{
 "array_types" : [],
 "builtin_types" :
 [
  {
   "alignment" : 4,
   "linker_set_key" : "_ZTIDn",
   "name" : "std::nullptr_t",
   "referenced_type" : "_ZTIDn",
   "self_type" : "_ZTIDn",
   "size" : 4
  },
  {
   "alignment" : 1,
   "is_integral" : true,
   "linker_set_key" : "_ZTIa",
   "name" : "signed char",
   "referenced_type" : "_ZTIa",
   "self_type" : "_ZTIa",
   "size" : 1
  },
  {
   "alignment" : 1,
   "is_integral" : true,
   "is_unsigned" : true,
   "linker_set_key" : "_ZTIb",
   "name" : "bool",
   "referenced_type" : "_ZTIb",
   "self_type" : "_ZTIb",
   "size" : 1
  },
  {
   "alignment" : 1,
   "is_integral" : true,
   "linker_set_key" : "_ZTIc",
   "name" : "char",
   "referenced_type" : "_ZTIc",
   "self_type" : "_ZTIc",
   "size" : 1
  },
  {
   "alignment" : 4,
   "linker_set_key" : "_ZTIf",
   "name" : "float",
   "referenced_type" : "_ZTIf",
   "self_type" : "_ZTIf",
   "size" : 4
  },
  {
   "alignment" : 1,
   "is_integral" : true,
   "is_unsigned" : true,
   "linker_set_key" : "_ZTIh",
   "name" : "unsigned char",
   "referenced_type" : "_ZTIh",
   "self_type" : "_ZTIh",
   "size" : 1
  },
  {
   "alignment" : 4,
   "is_integral" : true,
   "linker_set_key" : "_ZTIi",
   "name" : "int",
   "referenced_type" : "_ZTIi",
   "self_type" : "_ZTIi",
   "size" : 4
  },
  {
   "alignment" : 4,
   "is_integral" : true,
   "is_unsigned" : true,
   "linker_set_key" : "_ZTIj",
   "name" : "unsigned int",
   "referenced_type" : "_ZTIj",
   "self_type" : "_ZTIj",
   "size" : 4
  },
  {
   "linker_set_key" : "_ZTIv",
   "name" : "void",
   "referenced_type" : "_ZTIv",
   "self_type" : "_ZTIv"
  },
  {
   "alignment" : 4,
   "is_integral" : true,
   "linker_set_key" : "_ZTIx",
   "name" : "long long",
   "referenced_type" : "_ZTIx",
   "self_type" : "_ZTIx",
   "size" : 8
  }
 ],
 "elf_functions" :
 [
  {
   "binding" : "weak",
   "name" : "_ZN3ndk12BnCInterfaceIN4aidl7android8hardware7sensors16ISensorsCallbackEE8asBinderEv"
  },
  {
   "binding" : "weak",
   "name" : "_ZN3ndk12BnCInterfaceIN4aidl7android8hardware7sensors8ISensorsEE8asBinderEv"
  },
  {
   "binding" : "weak",
   "name" : "_ZN3ndk12BpCInterfaceIN4aidl7android8hardware7sensors16ISensorsCallbackEE8asBinderEv"
  },
  {
   "binding" : "weak",
   "name" : "_ZN3ndk12BpCInterfaceIN4aidl7android8hardware7sensors8ISensorsEE8asBinderEv"
  },
  {
   "binding" : "weak",
   "name" : "_ZN3ndk38AParcel_readStdVectorParcelableElementIN4aidl7android8hardware6common3fmq17GrantorDescriptorEEEiPK7AParcelPvj"
  },
  {
   "binding" : "weak",
   "name" : "_ZN3ndk38AParcel_readStdVectorParcelableElementIN4aidl7android8hardware7sensors10SensorInfoEEEiPK7AParcelPvj"
  },
  {
   "binding" : "weak",
   "name" : "_ZN3ndk39AParcel_writeStdVectorParcelableElementIN4aidl7android8hardware6common3fmq17GrantorDescriptorEEEiP7AParcelPKvj"
  },
  {
   "binding" : "weak",
   "name" : "_ZN3ndk39AParcel_writeStdVectorParcelableElementIN4aidl7android8hardware7sensors10SensorInfoEEEiP7AParcelPKvj"
  },
  {
   "binding" : "weak",
   "name" : "_ZN4aidl7android8hardware6common3fmq12MQDescriptorINS1_7sensors5EventENS3_21SynchronizedReadWriteEE14readFromParcelEPK7AParcel"
  },
  {
   "binding" : "weak",
   "name" : "_ZN4aidl7android8hardware6common3fmq12MQDescriptorIiNS3_21SynchronizedReadWriteEE14readFromParcelEPK7AParcel"
  },
  {
   "name" : "_ZN4aidl7android8hardware7sensors10SensorInfo14readFromParcelEPK7AParcel"
  },
  {
   "name" : "_ZN4aidl7android8hardware7sensors14AdditionalInfo14readFromParcelEPK7AParcel"
  },
  {
   "name" : "_ZN4aidl7android8hardware7sensors14AdditionalInfo21AdditionalInfoPayload11FloatValues14readFromParcelEPK7AParcel"
  },
  {
   "name" : "_ZN4aidl7android8hardware7sensors14AdditionalInfo21AdditionalInfoPayload11Int32Values14readFromParcelEPK7AParcel"
  },
  {
   "name" : "_ZN4aidl7android8hardware7sensors14AdditionalInfo21AdditionalInfoPayload14readFromParcelEPK7AParcel"
  },
  {
   "name" : "_ZN4aidl7android8hardware7sensors15ISensorsDefault10initializeERKNS1_6common3fmq12MQDescriptorINS2_5EventENS5_21SynchronizedReadWriteEEERKNS6_IiS8_EERKNSt3__110shared_ptrINS2_16ISensorsCallbackEEE"
  },
  {
   "name" : "_ZN4aidl7android8hardware7sensors15ISensorsDefault14getSensorsListEPNSt3__16vectorINS2_10SensorInfoENS4_9allocatorIS6_EEEE"
  },
  {
   "name" : "_ZN4aidl7android8hardware7sensors15ISensorsDefault16getInterfaceHashEPNSt3__112basic_stringIcNS4_11char_traitsIcEENS4_9allocatorIcEEEE"
  },
  {
   "name" : "_ZN4aidl7android8hardware7sensors15ISensorsDefault16injectSensorDataERKNS2_5EventE"
  },
  {
   "name" : "_ZN4aidl7android8hardware7sensors15ISensorsDefault16setOperationModeENS2_8ISensors13OperationModeE"
  },
  {
   "name" : "_ZN4aidl7android8hardware7sensors15ISensorsDefault18configDirectReportEiiNS2_8ISensors9RateLevelEPi"
  },
  {
   "name" : "_ZN4aidl7android8hardware7sensors15ISensorsDefault19getInterfaceVersionEPi"
  },
  {
   "name" : "_ZN4aidl7android8hardware7sensors15ISensorsDefault21registerDirectChannelERKNS2_8ISensors13SharedMemInfoEPi"
  },
  {
   "name" : "_ZN4aidl7android8hardware7sensors15ISensorsDefault23unregisterDirectChannelEi"
  },
  {
   "name" : "_ZN4aidl7android8hardware7sensors15ISensorsDefault5batchEixx"
  },
  {
   "name" : "_ZN4aidl7android8hardware7sensors15ISensorsDefault5flushEi"
  },
  {
   "name" : "_ZN4aidl7android8hardware7sensors15ISensorsDefault8activateEib"
  },
  {
   "name" : "_ZN4aidl7android8hardware7sensors15ISensorsDefault8asBinderEv"
  },
  {
   "name" : "_ZN4aidl7android8hardware7sensors15ISensorsDefault8isRemoteEv"
  },
  {
   "name" : "_ZN4aidl7android8hardware7sensors16ISensorsCallback10fromBinderERKN3ndk10SpAIBinderE"
  },
  {
   "name" : "_ZN4aidl7android8hardware7sensors16ISensorsCallback13writeToParcelEP7AParcelRKNSt3__110shared_ptrIS3_EE"
  },
  {
   "name" : "_ZN4aidl7android8hardware7sensors16ISensorsCallback14getDefaultImplEv"
  },
  {
   "name" : "_ZN4aidl7android8hardware7sensors16ISensorsCallback14readFromParcelEPK7AParcelPNSt3__110shared_ptrIS3_EE"
  },
  {
   "name" : "_ZN4aidl7android8hardware7sensors16ISensorsCallback14setDefaultImplERKNSt3__110shared_ptrIS3_EE"
  },
  {
   "name" : "_ZN4aidl7android8hardware7sensors16ISensorsCallbackC2Ev"
  },
  {
   "name" : "_ZN4aidl7android8hardware7sensors16ISensorsCallbackD0Ev"
  },
  {
   "name" : "_ZN4aidl7android8hardware7sensors16ISensorsCallbackD1Ev"
  },
  {
   "name" : "_ZN4aidl7android8hardware7sensors16ISensorsCallbackD2Ev"
  },
  {
   "name" : "_ZN4aidl7android8hardware7sensors17BnSensorsCallback12createBinderEv"
  },
  {
   "name" : "_ZN4aidl7android8hardware7sensors17BnSensorsCallback16getInterfaceHashEPNSt3__112basic_stringIcNS4_11char_traitsIcEENS4_9allocatorIcEEEE"
  },
  {
   "name" : "_ZN4aidl7android8hardware7sensors17BnSensorsCallback19getInterfaceVersionEPi"
  },
  {
   "name" : "_ZN4aidl7android8hardware7sensors17BnSensorsCallbackC2Ev"
  },
  {
   "name" : "_ZN4aidl7android8hardware7sensors17BnSensorsCallbackD0Ev"
  },
  {
   "name" : "_ZN4aidl7android8hardware7sensors17BnSensorsCallbackD1Ev"
  },
  {
   "name" : "_ZN4aidl7android8hardware7sensors17BnSensorsCallbackD2Ev"
  },
  {
   "name" : "_ZN4aidl7android8hardware7sensors17BpSensorsCallback16getInterfaceHashEPNSt3__112basic_stringIcNS4_11char_traitsIcEENS4_9allocatorIcEEEE"
  },
  {
   "name" : "_ZN4aidl7android8hardware7sensors17BpSensorsCallback19getInterfaceVersionEPi"
  },
  {
   "name" : "_ZN4aidl7android8hardware7sensors17BpSensorsCallback25onDynamicSensorsConnectedERKNSt3__16vectorINS2_10SensorInfoENS4_9allocatorIS6_EEEE"
  },
  {
   "name" : "_ZN4aidl7android8hardware7sensors17BpSensorsCallback28onDynamicSensorsDisconnectedERKNSt3__16vectorIiNS4_9allocatorIiEEEE"
  },
  {
   "name" : "_ZN4aidl7android8hardware7sensors17BpSensorsCallbackC1ERKN3ndk10SpAIBinderE"
  },
  {
   "name" : "_ZN4aidl7android8hardware7sensors17BpSensorsCallbackC2ERKN3ndk10SpAIBinderE"
  },
  {
   "name" : "_ZN4aidl7android8hardware7sensors17BpSensorsCallbackD0Ev"
  },
  {
   "name" : "_ZN4aidl7android8hardware7sensors17BpSensorsCallbackD1Ev"
  },
  {
   "name" : "_ZN4aidl7android8hardware7sensors17BpSensorsCallbackD2Ev"
  },
  {
   "name" : "_ZN4aidl7android8hardware7sensors17DynamicSensorInfo14readFromParcelEPK7AParcel"
  },
  {
   "name" : "_ZN4aidl7android8hardware7sensors17DynamicSensorInfo4Uuid14readFromParcelEPK7AParcel"
  },
  {
   "name" : "_ZN4aidl7android8hardware7sensors23ISensorsCallbackDefault16getInterfaceHashEPNSt3__112basic_stringIcNS4_11char_traitsIcEENS4_9allocatorIcEEEE"
  },
  {
   "name" : "_ZN4aidl7android8hardware7sensors23ISensorsCallbackDefault19getInterfaceVersionEPi"
  },
  {
   "name" : "_ZN4aidl7android8hardware7sensors23ISensorsCallbackDefault25onDynamicSensorsConnectedERKNSt3__16vectorINS2_10SensorInfoENS4_9allocatorIS6_EEEE"
  },
  {
   "name" : "_ZN4aidl7android8hardware7sensors23ISensorsCallbackDefault28onDynamicSensorsDisconnectedERKNSt3__16vectorIiNS4_9allocatorIiEEEE"
  },
  {
   "name" : "_ZN4aidl7android8hardware7sensors23ISensorsCallbackDefault8asBinderEv"
  },
  {
   "name" : "_ZN4aidl7android8hardware7sensors23ISensorsCallbackDefault8isRemoteEv"
  },
  {
   "name" : "_ZN4aidl7android8hardware7sensors5Event12EventPayload11HeadTracker14readFromParcelEPK7AParcel"
  },
  {
   "name" : "_ZN4aidl7android8hardware7sensors5Event12EventPayload14LimitedAxesImu14readFromParcelEPK7AParcel"
  },
  {
   "name" : "_ZN4aidl7android8hardware7sensors5Event12EventPayload14readFromParcelEPK7AParcel"
  },
  {
   "name" : "_ZN4aidl7android8hardware7sensors5Event12EventPayload19LimitedAxesImuUncal14readFromParcelEPK7AParcel"
  },
  {
   "name" : "_ZN4aidl7android8hardware7sensors5Event12EventPayload4Data14readFromParcelEPK7AParcel"
  },
  {
   "name" : "_ZN4aidl7android8hardware7sensors5Event12EventPayload4Vec314readFromParcelEPK7AParcel"
  },
  {
   "name" : "_ZN4aidl7android8hardware7sensors5Event12EventPayload4Vec414readFromParcelEPK7AParcel"
  },
  {
   "name" : "_ZN4aidl7android8hardware7sensors5Event12EventPayload5Uncal14readFromParcelEPK7AParcel"
  },
  {
   "name" : "_ZN4aidl7android8hardware7sensors5Event12EventPayload7Heading14readFromParcelEPK7AParcel"
  },
  {
   "name" : "_ZN4aidl7android8hardware7sensors5Event12EventPayload8MetaData14readFromParcelEPK7AParcel"
  },
  {
   "name" : "_ZN4aidl7android8hardware7sensors5Event12EventPayload8Pose6Dof14readFromParcelEPK7AParcel"
  },
  {
   "name" : "_ZN4aidl7android8hardware7sensors5Event12EventPayload9HeartRate14readFromParcelEPK7AParcel"
  },
  {
   "name" : "_ZN4aidl7android8hardware7sensors5Event14readFromParcelEPK7AParcel"
  },
  {
   "name" : "_ZN4aidl7android8hardware7sensors8ISensors10fromBinderERKN3ndk10SpAIBinderE"
  },
  {
   "name" : "_ZN4aidl7android8hardware7sensors8ISensors13SharedMemInfo14readFromParcelEPK7AParcel"
  },
  {
   "name" : "_ZN4aidl7android8hardware7sensors8ISensors13writeToParcelEP7AParcelRKNSt3__110shared_ptrIS3_EE"
  },
  {
   "name" : "_ZN4aidl7android8hardware7sensors8ISensors14getDefaultImplEv"
  },
  {
   "name" : "_ZN4aidl7android8hardware7sensors8ISensors14readFromParcelEPK7AParcelPNSt3__110shared_ptrIS3_EE"
  },
  {
   "name" : "_ZN4aidl7android8hardware7sensors8ISensors14setDefaultImplERKNSt3__110shared_ptrIS3_EE"
  },
  {
   "name" : "_ZN4aidl7android8hardware7sensors8ISensorsC2Ev"
  },
  {
   "name" : "_ZN4aidl7android8hardware7sensors8ISensorsD0Ev"
  },
  {
   "name" : "_ZN4aidl7android8hardware7sensors8ISensorsD1Ev"
  },
  {
   "name" : "_ZN4aidl7android8hardware7sensors8ISensorsD2Ev"
  },
  {
   "name" : "_ZN4aidl7android8hardware7sensors9BnSensors12createBinderEv"
  },
  {
   "name" : "_ZN4aidl7android8hardware7sensors9BnSensors16getInterfaceHashEPNSt3__112basic_stringIcNS4_11char_traitsIcEENS4_9allocatorIcEEEE"
  },
  {
   "name" : "_ZN4aidl7android8hardware7sensors9BnSensors19getInterfaceVersionEPi"
  },
  {
   "name" : "_ZN4aidl7android8hardware7sensors9BnSensorsC2Ev"
  },
  {
   "name" : "_ZN4aidl7android8hardware7sensors9BnSensorsD0Ev"
  },
  {
   "name" : "_ZN4aidl7android8hardware7sensors9BnSensorsD1Ev"
  },
  {
   "name" : "_ZN4aidl7android8hardware7sensors9BnSensorsD2Ev"
  },
  {
   "name" : "_ZN4aidl7android8hardware7sensors9BpSensors10initializeERKNS1_6common3fmq12MQDescriptorINS2_5EventENS5_21SynchronizedReadWriteEEERKNS6_IiS8_EERKNSt3__110shared_ptrINS2_16ISensorsCallbackEEE"
  },
  {
   "name" : "_ZN4aidl7android8hardware7sensors9BpSensors14getSensorsListEPNSt3__16vectorINS2_10SensorInfoENS4_9allocatorIS6_EEEE"
  },
  {
   "name" : "_ZN4aidl7android8hardware7sensors9BpSensors16getInterfaceHashEPNSt3__112basic_stringIcNS4_11char_traitsIcEENS4_9allocatorIcEEEE"
  },
  {
   "name" : "_ZN4aidl7android8hardware7sensors9BpSensors16injectSensorDataERKNS2_5EventE"
  },
  {
   "name" : "_ZN4aidl7android8hardware7sensors9BpSensors16setOperationModeENS2_8ISensors13OperationModeE"
  },
  {
   "name" : "_ZN4aidl7android8hardware7sensors9BpSensors18configDirectReportEiiNS2_8ISensors9RateLevelEPi"
  },
  {
   "name" : "_ZN4aidl7android8hardware7sensors9BpSensors19getInterfaceVersionEPi"
  },
  {
   "name" : "_ZN4aidl7android8hardware7sensors9BpSensors21registerDirectChannelERKNS2_8ISensors13SharedMemInfoEPi"
  },
  {
   "name" : "_ZN4aidl7android8hardware7sensors9BpSensors23unregisterDirectChannelEi"
  },
  {
   "name" : "_ZN4aidl7android8hardware7sensors9BpSensors5batchEixx"
  },
  {
   "name" : "_ZN4aidl7android8hardware7sensors9BpSensors5flushEi"
  },
  {
   "name" : "_ZN4aidl7android8hardware7sensors9BpSensors8activateEib"
  },
  {
   "name" : "_ZN4aidl7android8hardware7sensors9BpSensorsC1ERKN3ndk10SpAIBinderE"
  },
  {
   "name" : "_ZN4aidl7android8hardware7sensors9BpSensorsC2ERKN3ndk10SpAIBinderE"
  },
  {
   "name" : "_ZN4aidl7android8hardware7sensors9BpSensorsD0Ev"
  },
  {
   "name" : "_ZN4aidl7android8hardware7sensors9BpSensorsD1Ev"
  },
  {
   "name" : "_ZN4aidl7android8hardware7sensors9BpSensorsD2Ev"
  },
  {
   "binding" : "weak",
   "name" : "_ZNK4aidl7android8hardware6common3fmq12MQDescriptorINS1_7sensors5EventENS3_21SynchronizedReadWriteEE13writeToParcelEP7AParcel"
  },
  {
   "binding" : "weak",
   "name" : "_ZNK4aidl7android8hardware6common3fmq12MQDescriptorIiNS3_21SynchronizedReadWriteEE13writeToParcelEP7AParcel"
  },
  {
   "name" : "_ZNK4aidl7android8hardware7sensors10SensorInfo13writeToParcelEP7AParcel"
  },
  {
   "name" : "_ZNK4aidl7android8hardware7sensors14AdditionalInfo13writeToParcelEP7AParcel"
  },
  {
   "name" : "_ZNK4aidl7android8hardware7sensors14AdditionalInfo21AdditionalInfoPayload11FloatValues13writeToParcelEP7AParcel"
  },
  {
   "name" : "_ZNK4aidl7android8hardware7sensors14AdditionalInfo21AdditionalInfoPayload11Int32Values13writeToParcelEP7AParcel"
  },
  {
   "name" : "_ZNK4aidl7android8hardware7sensors14AdditionalInfo21AdditionalInfoPayload13writeToParcelEP7AParcel"
  },
  {
   "name" : "_ZNK4aidl7android8hardware7sensors17DynamicSensorInfo13writeToParcelEP7AParcel"
  },
  {
   "name" : "_ZNK4aidl7android8hardware7sensors17DynamicSensorInfo4Uuid13writeToParcelEP7AParcel"
  },
  {
   "name" : "_ZNK4aidl7android8hardware7sensors5Event12EventPayload11HeadTracker13writeToParcelEP7AParcel"
  },
  {
   "name" : "_ZNK4aidl7android8hardware7sensors5Event12EventPayload13writeToParcelEP7AParcel"
  },
  {
   "name" : "_ZNK4aidl7android8hardware7sensors5Event12EventPayload14LimitedAxesImu13writeToParcelEP7AParcel"
  },
  {
   "name" : "_ZNK4aidl7android8hardware7sensors5Event12EventPayload19LimitedAxesImuUncal13writeToParcelEP7AParcel"
  },
  {
   "name" : "_ZNK4aidl7android8hardware7sensors5Event12EventPayload4Data13writeToParcelEP7AParcel"
  },
  {
   "name" : "_ZNK4aidl7android8hardware7sensors5Event12EventPayload4Vec313writeToParcelEP7AParcel"
  },
  {
   "name" : "_ZNK4aidl7android8hardware7sensors5Event12EventPayload4Vec413writeToParcelEP7AParcel"
  },
  {
   "name" : "_ZNK4aidl7android8hardware7sensors5Event12EventPayload5Uncal13writeToParcelEP7AParcel"
  },
  {
   "name" : "_ZNK4aidl7android8hardware7sensors5Event12EventPayload7Heading13writeToParcelEP7AParcel"
  },
  {
   "name" : "_ZNK4aidl7android8hardware7sensors5Event12EventPayload8MetaData13writeToParcelEP7AParcel"
  },
  {
   "name" : "_ZNK4aidl7android8hardware7sensors5Event12EventPayload8Pose6Dof13writeToParcelEP7AParcel"
  },
  {
   "name" : "_ZNK4aidl7android8hardware7sensors5Event12EventPayload9HeartRate13writeToParcelEP7AParcel"
  },
  {
   "name" : "_ZNK4aidl7android8hardware7sensors5Event13writeToParcelEP7AParcel"
  },
  {
   "name" : "_ZNK4aidl7android8hardware7sensors8ISensors13SharedMemInfo13writeToParcelEP7AParcel"
  },
  {
   "binding" : "weak",
   "name" : "_ZNSt3__110shared_ptrIN4aidl7android8hardware7sensors16ISensorsCallbackEED2Ev"
  },
  {
   "binding" : "weak",
   "name" : "_ZNSt3__110shared_ptrIN4aidl7android8hardware7sensors8ISensorsEED2Ev"
  },
  {
   "binding" : "weak",
   "name" : "_ZNSt3__120__shared_ptr_pointerIPN3ndk13SharedRefBaseENS_14default_deleteIS2_EENS_9allocatorIS2_EEE16__on_zero_sharedEv"
  },
  {
   "binding" : "weak",
   "name" : "_ZNSt3__120__shared_ptr_pointerIPN3ndk13SharedRefBaseENS_14default_deleteIS2_EENS_9allocatorIS2_EEE21__on_zero_shared_weakEv"
  },
  {
   "binding" : "weak",
   "name" : "_ZNSt3__16vectorIN4aidl7android8hardware6common3fmq17GrantorDescriptorENS_9allocatorIS6_EEE8__appendEj"
  },
  {
   "binding" : "weak",
   "name" : "_ZNSt3__16vectorIN4aidl7android8hardware7sensors10SensorInfoENS_9allocatorIS5_EEE8__appendEj"
  },
  {
   "binding" : "weak",
   "name" : "_ZNSt3__16vectorIiNS_9allocatorIiEEE8__appendEj"
  }
 ],
 "elf_objects" :
 [
  {
   "binding" : "weak",
   "name" : "_ZGVN4aidl7android8hardware7sensors16ISensorsCallback4hashE"
  },
  {
   "binding" : "weak",
   "name" : "_ZGVN4aidl7android8hardware7sensors8ISensors4hashE"
  },
  {
   "name" : "_ZN4aidl7android8hardware7sensors10SensorInfo10descriptorE"
  },
  {
   "name" : "_ZN4aidl7android8hardware7sensors14AdditionalInfo10descriptorE"
  },
  {
   "name" : "_ZN4aidl7android8hardware7sensors14AdditionalInfo21AdditionalInfoPayload10descriptorE"
  },
  {
   "name" : "_ZN4aidl7android8hardware7sensors14AdditionalInfo21AdditionalInfoPayload11FloatValues10descriptorE"
  },
  {
   "name" : "_ZN4aidl7android8hardware7sensors14AdditionalInfo21AdditionalInfoPayload11Int32Values10descriptorE"
  },
  {
   "name" : "_ZN4aidl7android8hardware7sensors16ISensorsCallback10descriptorE"
  },
  {
   "name" : "_ZN4aidl7android8hardware7sensors16ISensorsCallback12default_implE"
  },
  {
   "binding" : "weak",
   "name" : "_ZN4aidl7android8hardware7sensors16ISensorsCallback4hashE"
  },
  {
   "name" : "_ZN4aidl7android8hardware7sensors17DynamicSensorInfo10descriptorE"
  },
  {
   "name" : "_ZN4aidl7android8hardware7sensors17DynamicSensorInfo4Uuid10descriptorE"
  },
  {
   "name" : "_ZN4aidl7android8hardware7sensors5Event10descriptorE"
  },
  {
   "name" : "_ZN4aidl7android8hardware7sensors5Event12EventPayload10descriptorE"
  },
  {
   "name" : "_ZN4aidl7android8hardware7sensors5Event12EventPayload11HeadTracker10descriptorE"
  },
  {
   "name" : "_ZN4aidl7android8hardware7sensors5Event12EventPayload14LimitedAxesImu10descriptorE"
  },
  {
   "name" : "_ZN4aidl7android8hardware7sensors5Event12EventPayload19LimitedAxesImuUncal10descriptorE"
  },
  {
   "name" : "_ZN4aidl7android8hardware7sensors5Event12EventPayload4Data10descriptorE"
  },
  {
   "name" : "_ZN4aidl7android8hardware7sensors5Event12EventPayload4Vec310descriptorE"
  },
  {
   "name" : "_ZN4aidl7android8hardware7sensors5Event12EventPayload4Vec410descriptorE"
  },
  {
   "name" : "_ZN4aidl7android8hardware7sensors5Event12EventPayload5Uncal10descriptorE"
  },
  {
   "name" : "_ZN4aidl7android8hardware7sensors5Event12EventPayload7Heading10descriptorE"
  },
  {
   "name" : "_ZN4aidl7android8hardware7sensors5Event12EventPayload8MetaData10descriptorE"
  },
  {
   "name" : "_ZN4aidl7android8hardware7sensors5Event12EventPayload8Pose6Dof10descriptorE"
  },
  {
   "name" : "_ZN4aidl7android8hardware7sensors5Event12EventPayload9HeartRate10descriptorE"
  },
  {
   "name" : "_ZN4aidl7android8hardware7sensors8ISensors10descriptorE"
  },
  {
   "name" : "_ZN4aidl7android8hardware7sensors8ISensors12default_implE"
  },
  {
   "name" : "_ZN4aidl7android8hardware7sensors8ISensors13SharedMemInfo10descriptorE"
  },
  {
   "binding" : "weak",
   "name" : "_ZN4aidl7android8hardware7sensors8ISensors4hashE"
  },
  {
   "binding" : "weak",
   "name" : "_ZTVN3ndk12BnCInterfaceIN4aidl7android8hardware7sensors16ISensorsCallbackEEE"
  },
  {
   "binding" : "weak",
   "name" : "_ZTVN3ndk12BnCInterfaceIN4aidl7android8hardware7sensors8ISensorsEEE"
  },
  {
   "binding" : "weak",
   "name" : "_ZTVN3ndk12BpCInterfaceIN4aidl7android8hardware7sensors16ISensorsCallbackEEE"
  },
  {
   "binding" : "weak",
   "name" : "_ZTVN3ndk12BpCInterfaceIN4aidl7android8hardware7sensors8ISensorsEEE"
  },
  {
   "binding" : "weak",
   "name" : "_ZTVN3ndk13SharedRefBaseE"
  },
  {
   "name" : "_ZTVN4aidl7android8hardware7sensors15ISensorsDefaultE"
  },
  {
   "name" : "_ZTVN4aidl7android8hardware7sensors16ISensorsCallbackE"
  },
  {
   "name" : "_ZTVN4aidl7android8hardware7sensors17BnSensorsCallbackE"
  },
  {
   "name" : "_ZTVN4aidl7android8hardware7sensors17BpSensorsCallbackE"
  },
  {
   "name" : "_ZTVN4aidl7android8hardware7sensors23ISensorsCallbackDefaultE"
  },
  {
   "name" : "_ZTVN4aidl7android8hardware7sensors8ISensorsE"
  },
  {
   "name" : "_ZTVN4aidl7android8hardware7sensors9BnSensorsE"
  },
  {
   "name" : "_ZTVN4aidl7android8hardware7sensors9BpSensorsE"
  },
  {
   "binding" : "weak",
   "name" : "_ZTVNSt3__120__shared_ptr_pointerIPN3ndk13SharedRefBaseENS_14default_deleteIS2_EENS_9allocatorIS2_EEEE"
  }
 ],
 "enum_types" :
 [
  {
   "alignment" : 4,
   "enum_fields" :
   [
    {
     "enum_field_value" : 1,
     "name" : "FLAG_ONEWAY"
    }
   ],
   "linker_set_key" : "_ZTI12$FLAG_ONEWAY",
   "name" : "(unnamed enum at frameworks/native/libs/binder/ndk/include_ndk/android/binder_ibinder.h:43:1)",
   "referenced_type" : "_ZTI12$FLAG_ONEWAY",
   "self_type" : "_ZTI12$FLAG_ONEWAY",
   "size" : 4,
   "source_file" : "frameworks/native/libs/binder/ndk/include_ndk/android/binder_ibinder.h",
   "underlying_type" : "_ZTIj"
  },
  {
   "alignment" : 4,
   "enum_fields" :
   [
    {
     "enum_field_value" : 0,
     "name" : "EX_NONE"
    },
    {
     "enum_field_value" : -1,
     "name" : "EX_SECURITY"
    },
    {
     "enum_field_value" : -2,
     "name" : "EX_BAD_PARCELABLE"
    },
    {
     "enum_field_value" : -3,
     "name" : "EX_ILLEGAL_ARGUMENT"
    },
    {
     "enum_field_value" : -4,
     "name" : "EX_NULL_POINTER"
    },
    {
     "enum_field_value" : -5,
     "name" : "EX_ILLEGAL_STATE"
    },
    {
     "enum_field_value" : -6,
     "name" : "EX_NETWORK_MAIN_THREAD"
    },
    {
     "enum_field_value" : -7,
     "name" : "EX_UNSUPPORTED_OPERATION"
    },
    {
     "enum_field_value" : -8,
     "name" : "EX_SERVICE_SPECIFIC"
    },
    {
     "enum_field_value" : -9,
     "name" : "EX_PARCELABLE"
    },
    {
     "enum_field_value" : -129,
     "name" : "EX_TRANSACTION_FAILED"
    }
   ],
   "linker_set_key" : "_ZTI18$EX_BAD_PARCELABLE",
   "name" : "(unnamed enum at frameworks/native/libs/binder/ndk/include_ndk/android/binder_status.h:94:1)",
   "referenced_type" : "_ZTI18$EX_BAD_PARCELABLE",
   "self_type" : "_ZTI18$EX_BAD_PARCELABLE",
   "size" : 4,
   "source_file" : "frameworks/native/libs/binder/ndk/include_ndk/android/binder_status.h",
   "underlying_type" : "_ZTIi"
  },
  {
   "alignment" : 4,
   "enum_fields" :
   [
    {
     "enum_field_value" : 268435456,
     "name" : "FLAG_PRIVATE_LOCAL"
    }
   ],
   "linker_set_key" : "_ZTI19$FLAG_PRIVATE_LOCAL",
   "name" : "(unnamed enum at frameworks/native/libs/binder/ndk/include_platform/android/binder_stability.h:35:1)",
   "referenced_type" : "_ZTI19$FLAG_PRIVATE_LOCAL",
   "self_type" : "_ZTI19$FLAG_PRIVATE_LOCAL",
   "size" : 4,
   "source_file" : "frameworks/native/libs/binder/ndk/include_platform/android/binder_stability.h",
   "underlying_type" : "_ZTIj"
  },
  {
   "alignment" : 4,
   "enum_fields" :
   [
    {
     "enum_field_value" : 268435456,
     "name" : "FLAG_PRIVATE_VENDOR"
    }
   ],
   "linker_set_key" : "_ZTI20$FLAG_PRIVATE_VENDOR",
   "name" : "(unnamed enum at frameworks/native/libs/binder/ndk/include_platform/android/binder_stability.h:26:1)",
   "referenced_type" : "_ZTI20$FLAG_PRIVATE_VENDOR",
   "self_type" : "_ZTI20$FLAG_PRIVATE_VENDOR",
   "size" : 4,
   "source_file" : "frameworks/native/libs/binder/ndk/include_platform/android/binder_stability.h",
   "underlying_type" : "_ZTIj"
  },
  {
   "alignment" : 4,
   "enum_fields" :
   [
    {
     "enum_field_value" : 0,
     "name" : "STATUS_OK"
    },
    {
     "enum_field_value" : -2147483648,
     "name" : "STATUS_UNKNOWN_ERROR"
    },
    {
     "enum_field_value" : -12,
     "name" : "STATUS_NO_MEMORY"
    },
    {
     "enum_field_value" : -38,
     "name" : "STATUS_INVALID_OPERATION"
    },
    {
     "enum_field_value" : -22,
     "name" : "STATUS_BAD_VALUE"
    },
    {
     "enum_field_value" : -2147483647,
     "name" : "STATUS_BAD_TYPE"
    },
    {
     "enum_field_value" : -2,
     "name" : "STATUS_NAME_NOT_FOUND"
    },
    {
     "enum_field_value" : -1,
     "name" : "STATUS_PERMISSION_DENIED"
    },
    {
     "enum_field_value" : -19,
     "name" : "STATUS_NO_INIT"
    },
    {
     "enum_field_value" : -17,
     "name" : "STATUS_ALREADY_EXISTS"
    },
    {
     "enum_field_value" : -32,
     "name" : "STATUS_DEAD_OBJECT"
    },
    {
     "enum_field_value" : -2147483646,
     "name" : "STATUS_FAILED_TRANSACTION"
    },
    {
     "enum_field_value" : -75,
     "name" : "STATUS_BAD_INDEX"
    },
    {
     "enum_field_value" : -61,
     "name" : "STATUS_NOT_ENOUGH_DATA"
    },
    {
     "enum_field_value" : -11,
     "name" : "STATUS_WOULD_BLOCK"
    },
    {
     "enum_field_value" : -110,
     "name" : "STATUS_TIMED_OUT"
    },
    {
     "enum_field_value" : -74,
     "name" : "STATUS_UNKNOWN_TRANSACTION"
    },
    {
     "enum_field_value" : -2147483641,
     "name" : "STATUS_FDS_NOT_ALLOWED"
    },
    {
     "enum_field_value" : -2147483640,
     "name" : "STATUS_UNEXPECTED_NULL"
    }
   ],
   "linker_set_key" : "_ZTI22$STATUS_ALREADY_EXISTS",
   "name" : "(unnamed enum at frameworks/native/libs/binder/ndk/include_ndk/android/binder_status.h:60:1)",
   "referenced_type" : "_ZTI22$STATUS_ALREADY_EXISTS",
   "self_type" : "_ZTI22$STATUS_ALREADY_EXISTS",
   "size" : 4,
   "source_file" : "frameworks/native/libs/binder/ndk/include_ndk/android/binder_status.h",
   "underlying_type" : "_ZTIi"
  },
  {
   "alignment" : 4,
   "enum_fields" :
   [
    {
     "enum_field_value" : 1,
     "name" : "FIRST_CALL_TRANSACTION"
    },
    {
     "enum_field_value" : 16777215,
     "name" : "LAST_CALL_TRANSACTION"
    }
   ],
   "linker_set_key" : "_ZTI23$FIRST_CALL_TRANSACTION",
   "name" : "(unnamed enum at frameworks/native/libs/binder/ndk/include_ndk/android/binder_ibinder.h:58:1)",
   "referenced_type" : "_ZTI23$FIRST_CALL_TRANSACTION",
   "self_type" : "_ZTI23$FIRST_CALL_TRANSACTION",
   "size" : 4,
   "source_file" : "frameworks/native/libs/binder/ndk/include_ndk/android/binder_ibinder.h",
   "underlying_type" : "_ZTIj"
  },
  {
   "alignment" : 4,
   "enum_fields" :
   [
    {
     "enum_field_value" : 0,
     "name" : "ndk::STABILITY_LOCAL"
    },
    {
     "enum_field_value" : 1,
     "name" : "ndk::STABILITY_VINTF"
    }
   ],
   "linker_set_key" : "_ZTIN3ndk16$STABILITY_LOCALE",
   "name" : "ndk::(unnamed enum at frameworks/native/libs/binder/ndk/include_cpp/android/binder_parcelable_utils.h:34:1)",
   "referenced_type" : "_ZTIN3ndk16$STABILITY_LOCALE",
   "self_type" : "_ZTIN3ndk16$STABILITY_LOCALE",
   "size" : 4,
   "source_file" : "frameworks/native/libs/binder/ndk/include_cpp/android/binder_parcelable_utils.h",
   "underlying_type" : "_ZTIj"
  },
  {
   "alignment" : 1,
   "enum_fields" :
   [
    {
     "enum_field_value" : 0,
     "name" : "aidl::android::hardware::common::fmq::SynchronizedReadWrite::EMPTY"
    }
   ],
   "linker_set_key" : "_ZTIN4aidl7android8hardware6common3fmq21SynchronizedReadWriteE",
   "name" : "aidl::android::hardware::common::fmq::SynchronizedReadWrite",
   "referenced_type" : "_ZTIN4aidl7android8hardware6common3fmq21SynchronizedReadWriteE",
   "self_type" : "_ZTIN4aidl7android8hardware6common3fmq21SynchronizedReadWriteE",
   "size" : 1,
   "source_file" : "out/soong/.intermediates/hardware/interfaces/common/fmq/aidl/android.hardware.common.fmq-V1-ndk-source/gen/include/aidl/android/hardware/common/fmq/SynchronizedReadWrite.h",
   "underlying_type" : "_ZTIa"
  },
  {
   "alignment" : 4,
   "enum_fields" :
   [
    {
     "enum_field_value" : 1,
     "name" : "aidl::android::hardware::sensors::SensorInfo::SENSOR_FLAG_BITS_WAKE_UP"
    }
   ],
   "linker_set_key" : "_ZTIN4aidl7android8hardware7sensors10SensorInfo25$SENSOR_FLAG_BITS_WAKE_UPE",
   "name" : "aidl::android::hardware::sensors::SensorInfo::(unnamed enum at out/soong/.intermediates/hardware/interfaces/sensors/aidl/android.hardware.sensors-V1-ndk-source/gen/include/aidl/android/hardware/sensors/SensorInfo.h:64:3)",
   "referenced_type" : "_ZTIN4aidl7android8hardware7sensors10SensorInfo25$SENSOR_FLAG_BITS_WAKE_UPE",
   "self_type" : "_ZTIN4aidl7android8hardware7sensors10SensorInfo25$SENSOR_FLAG_BITS_WAKE_UPE",
   "size" : 4,
   "source_file" : "out/soong/.intermediates/hardware/interfaces/sensors/aidl/android.hardware.sensors-V1-ndk-source/gen/include/aidl/android/hardware/sensors/SensorInfo.h",
   "underlying_type" : "_ZTIi"
  },
  {
   "alignment" : 4,
   "enum_fields" :
   [
    {
     "enum_field_value" : 4,
     "name" : "aidl::android::hardware::sensors::SensorInfo::SENSOR_FLAG_BITS_ONE_SHOT_MODE"
    }
   ],
   "linker_set_key" : "_ZTIN4aidl7android8hardware7sensors10SensorInfo31$SENSOR_FLAG_BITS_ONE_SHOT_MODEE",
   "name" : "aidl::android::hardware::sensors::SensorInfo::(unnamed enum at out/soong/.intermediates/hardware/interfaces/sensors/aidl/android.hardware.sensors-V1-ndk-source/gen/include/aidl/android/hardware/sensors/SensorInfo.h:67:3)",
   "referenced_type" : "_ZTIN4aidl7android8hardware7sensors10SensorInfo31$SENSOR_FLAG_BITS_ONE_SHOT_MODEE",
   "self_type" : "_ZTIN4aidl7android8hardware7sensors10SensorInfo31$SENSOR_FLAG_BITS_ONE_SHOT_MODEE",
   "size" : 4,
   "source_file" : "out/soong/.intermediates/hardware/interfaces/sensors/aidl/android.hardware.sensors-V1-ndk-source/gen/include/aidl/android/hardware/sensors/SensorInfo.h",
   "underlying_type" : "_ZTIi"
  },
  {
   "alignment" : 4,
   "enum_fields" :
   [
    {
     "enum_field_value" : 16,
     "name" : "aidl::android::hardware::sensors::SensorInfo::SENSOR_FLAG_BITS_DATA_INJECTION"
    }
   ],
   "linker_set_key" : "_ZTIN4aidl7android8hardware7sensors10SensorInfo32$SENSOR_FLAG_BITS_DATA_INJECTIONE",
   "name" : "aidl::android::hardware::sensors::SensorInfo::(unnamed enum at out/soong/.intermediates/hardware/interfaces/sensors/aidl/android.hardware.sensors-V1-ndk-source/gen/include/aidl/android/hardware/sensors/SensorInfo.h:69:3)",
   "referenced_type" : "_ZTIN4aidl7android8hardware7sensors10SensorInfo32$SENSOR_FLAG_BITS_DATA_INJECTIONE",
   "self_type" : "_ZTIN4aidl7android8hardware7sensors10SensorInfo32$SENSOR_FLAG_BITS_DATA_INJECTIONE",
   "size" : 4,
   "source_file" : "out/soong/.intermediates/hardware/interfaces/sensors/aidl/android.hardware.sensors-V1-ndk-source/gen/include/aidl/android/hardware/sensors/SensorInfo.h",
   "underlying_type" : "_ZTIi"
  },
  {
   "alignment" : 4,
   "enum_fields" :
   [
    {
     "enum_field_value" : 32,
     "name" : "aidl::android::hardware::sensors::SensorInfo::SENSOR_FLAG_BITS_DYNAMIC_SENSOR"
    }
   ],
   "linker_set_key" : "_ZTIN4aidl7android8hardware7sensors10SensorInfo32$SENSOR_FLAG_BITS_DYNAMIC_SENSORE",
   "name" : "aidl::android::hardware::sensors::SensorInfo::(unnamed enum at out/soong/.intermediates/hardware/interfaces/sensors/aidl/android.hardware.sensors-V1-ndk-source/gen/include/aidl/android/hardware/sensors/SensorInfo.h:70:3)",
   "referenced_type" : "_ZTIN4aidl7android8hardware7sensors10SensorInfo32$SENSOR_FLAG_BITS_DYNAMIC_SENSORE",
   "self_type" : "_ZTIN4aidl7android8hardware7sensors10SensorInfo32$SENSOR_FLAG_BITS_DYNAMIC_SENSORE",
   "size" : 4,
   "source_file" : "out/soong/.intermediates/hardware/interfaces/sensors/aidl/android.hardware.sensors-V1-ndk-source/gen/include/aidl/android/hardware/sensors/SensorInfo.h",
   "underlying_type" : "_ZTIi"
  },
  {
   "alignment" : 4,
   "enum_fields" :
   [
    {
     "enum_field_value" : 2,
     "name" : "aidl::android::hardware::sensors::SensorInfo::SENSOR_FLAG_BITS_ON_CHANGE_MODE"
    }
   ],
   "linker_set_key" : "_ZTIN4aidl7android8hardware7sensors10SensorInfo32$SENSOR_FLAG_BITS_ON_CHANGE_MODEE",
   "name" : "aidl::android::hardware::sensors::SensorInfo::(unnamed enum at out/soong/.intermediates/hardware/interfaces/sensors/aidl/android.hardware.sensors-V1-ndk-source/gen/include/aidl/android/hardware/sensors/SensorInfo.h:66:3)",
   "referenced_type" : "_ZTIN4aidl7android8hardware7sensors10SensorInfo32$SENSOR_FLAG_BITS_ON_CHANGE_MODEE",
   "self_type" : "_ZTIN4aidl7android8hardware7sensors10SensorInfo32$SENSOR_FLAG_BITS_ON_CHANGE_MODEE",
   "size" : 4,
   "source_file" : "out/soong/.intermediates/hardware/interfaces/sensors/aidl/android.hardware.sensors-V1-ndk-source/gen/include/aidl/android/hardware/sensors/SensorInfo.h",
   "underlying_type" : "_ZTIi"
  },
  {
   "alignment" : 4,
   "enum_fields" :
   [
    {
     "enum_field_value" : 7,
     "name" : "aidl::android::hardware::sensors::SensorInfo::SENSOR_FLAG_SHIFT_DIRECT_REPORT"
    }
   ],
   "linker_set_key" : "_ZTIN4aidl7android8hardware7sensors10SensorInfo32$SENSOR_FLAG_SHIFT_DIRECT_REPORTE",
   "name" : "aidl::android::hardware::sensors::SensorInfo::(unnamed enum at out/soong/.intermediates/hardware/interfaces/sensors/aidl/android.hardware.sensors-V1-ndk-source/gen/include/aidl/android/hardware/sensors/SensorInfo.h:81:3)",
   "referenced_type" : "_ZTIN4aidl7android8hardware7sensors10SensorInfo32$SENSOR_FLAG_SHIFT_DIRECT_REPORTE",
   "self_type" : "_ZTIN4aidl7android8hardware7sensors10SensorInfo32$SENSOR_FLAG_SHIFT_DIRECT_REPORTE",
   "size" : 4,
   "source_file" : "out/soong/.intermediates/hardware/interfaces/sensors/aidl/android.hardware.sensors-V1-ndk-source/gen/include/aidl/android/hardware/sensors/SensorInfo.h",
   "underlying_type" : "_ZTIi"
  },
  {
   "alignment" : 4,
   "enum_fields" :
   [
    {
     "enum_field_value" : 64,
     "name" : "aidl::android::hardware::sensors::SensorInfo::SENSOR_FLAG_BITS_ADDITIONAL_INFO"
    }
   ],
   "linker_set_key" : "_ZTIN4aidl7android8hardware7sensors10SensorInfo33$SENSOR_FLAG_BITS_ADDITIONAL_INFOE",
   "name" : "aidl::android::hardware::sensors::SensorInfo::(unnamed enum at out/soong/.intermediates/hardware/interfaces/sensors/aidl/android.hardware.sensors-V1-ndk-source/gen/include/aidl/android/hardware/sensors/SensorInfo.h:71:3)",
   "referenced_type" : "_ZTIN4aidl7android8hardware7sensors10SensorInfo33$SENSOR_FLAG_BITS_ADDITIONAL_INFOE",
   "self_type" : "_ZTIN4aidl7android8hardware7sensors10SensorInfo33$SENSOR_FLAG_BITS_ADDITIONAL_INFOE",
   "size" : 4,
   "source_file" : "out/soong/.intermediates/hardware/interfaces/sensors/aidl/android.hardware.sensors-V1-ndk-source/gen/include/aidl/android/hardware/sensors/SensorInfo.h",
   "underlying_type" : "_ZTIi"
  },
  {
   "alignment" : 4,
   "enum_fields" :
   [
    {
     "enum_field_value" : 0,
     "name" : "aidl::android::hardware::sensors::SensorInfo::SENSOR_FLAG_BITS_CONTINUOUS_MODE"
    }
   ],
   "linker_set_key" : "_ZTIN4aidl7android8hardware7sensors10SensorInfo33$SENSOR_FLAG_BITS_CONTINUOUS_MODEE",
   "name" : "aidl::android::hardware::sensors::SensorInfo::(unnamed enum at out/soong/.intermediates/hardware/interfaces/sensors/aidl/android.hardware.sensors-V1-ndk-source/gen/include/aidl/android/hardware/sensors/SensorInfo.h:65:3)",
   "referenced_type" : "_ZTIN4aidl7android8hardware7sensors10SensorInfo33$SENSOR_FLAG_BITS_CONTINUOUS_MODEE",
   "self_type" : "_ZTIN4aidl7android8hardware7sensors10SensorInfo33$SENSOR_FLAG_BITS_CONTINUOUS_MODEE",
   "size" : 4,
   "source_file" : "out/soong/.intermediates/hardware/interfaces/sensors/aidl/android.hardware.sensors-V1-ndk-source/gen/include/aidl/android/hardware/sensors/SensorInfo.h",
   "underlying_type" : "_ZTIi"
  },
  {
   "alignment" : 4,
   "enum_fields" :
   [
    {
     "enum_field_value" : 4,
     "name" : "aidl::android::hardware::sensors::SensorInfo::SENSOR_FLAG_SHIFT_DATA_INJECTION"
    }
   ],
   "linker_set_key" : "_ZTIN4aidl7android8hardware7sensors10SensorInfo33$SENSOR_FLAG_SHIFT_DATA_INJECTIONE",
   "name" : "aidl::android::hardware::sensors::SensorInfo::(unnamed enum at out/soong/.intermediates/hardware/interfaces/sensors/aidl/android.hardware.sensors-V1-ndk-source/gen/include/aidl/android/hardware/sensors/SensorInfo.h:78:3)",
   "referenced_type" : "_ZTIN4aidl7android8hardware7sensors10SensorInfo33$SENSOR_FLAG_SHIFT_DATA_INJECTIONE",
   "self_type" : "_ZTIN4aidl7android8hardware7sensors10SensorInfo33$SENSOR_FLAG_SHIFT_DATA_INJECTIONE",
   "size" : 4,
   "source_file" : "out/soong/.intermediates/hardware/interfaces/sensors/aidl/android.hardware.sensors-V1-ndk-source/gen/include/aidl/android/hardware/sensors/SensorInfo.h",
   "underlying_type" : "_ZTIi"
  },
  {
   "alignment" : 4,
   "enum_fields" :
   [
    {
     "enum_field_value" : 10,
     "name" : "aidl::android::hardware::sensors::SensorInfo::SENSOR_FLAG_SHIFT_DIRECT_CHANNEL"
    }
   ],
   "linker_set_key" : "_ZTIN4aidl7android8hardware7sensors10SensorInfo33$SENSOR_FLAG_SHIFT_DIRECT_CHANNELE",
   "name" : "aidl::android::hardware::sensors::SensorInfo::(unnamed enum at out/soong/.intermediates/hardware/interfaces/sensors/aidl/android.hardware.sensors-V1-ndk-source/gen/include/aidl/android/hardware/sensors/SensorInfo.h:82:3)",
   "referenced_type" : "_ZTIN4aidl7android8hardware7sensors10SensorInfo33$SENSOR_FLAG_SHIFT_DIRECT_CHANNELE",
   "self_type" : "_ZTIN4aidl7android8hardware7sensors10SensorInfo33$SENSOR_FLAG_SHIFT_DIRECT_CHANNELE",
   "size" : 4,
   "source_file" : "out/soong/.intermediates/hardware/interfaces/sensors/aidl/android.hardware.sensors-V1-ndk-source/gen/include/aidl/android/hardware/sensors/SensorInfo.h",
   "underlying_type" : "_ZTIi"
  },
  {
   "alignment" : 4,
   "enum_fields" :
   [
    {
     "enum_field_value" : 5,
     "name" : "aidl::android::hardware::sensors::SensorInfo::SENSOR_FLAG_SHIFT_DYNAMIC_SENSOR"
    }
   ],
   "linker_set_key" : "_ZTIN4aidl7android8hardware7sensors10SensorInfo33$SENSOR_FLAG_SHIFT_DYNAMIC_SENSORE",
   "name" : "aidl::android::hardware::sensors::SensorInfo::(unnamed enum at out/soong/.intermediates/hardware/interfaces/sensors/aidl/android.hardware.sensors-V1-ndk-source/gen/include/aidl/android/hardware/sensors/SensorInfo.h:79:3)",
   "referenced_type" : "_ZTIN4aidl7android8hardware7sensors10SensorInfo33$SENSOR_FLAG_SHIFT_DYNAMIC_SENSORE",
   "self_type" : "_ZTIN4aidl7android8hardware7sensors10SensorInfo33$SENSOR_FLAG_SHIFT_DYNAMIC_SENSORE",
   "size" : 4,
   "source_file" : "out/soong/.intermediates/hardware/interfaces/sensors/aidl/android.hardware.sensors-V1-ndk-source/gen/include/aidl/android/hardware/sensors/SensorInfo.h",
   "underlying_type" : "_ZTIi"
  },
  {
   "alignment" : 4,
   "enum_fields" :
   [
    {
     "enum_field_value" : 1,
     "name" : "aidl::android::hardware::sensors::SensorInfo::SENSOR_FLAG_SHIFT_REPORTING_MODE"
    }
   ],
   "linker_set_key" : "_ZTIN4aidl7android8hardware7sensors10SensorInfo33$SENSOR_FLAG_SHIFT_REPORTING_MODEE",
   "name" : "aidl::android::hardware::sensors::SensorInfo::(unnamed enum at out/soong/.intermediates/hardware/interfaces/sensors/aidl/android.hardware.sensors-V1-ndk-source/gen/include/aidl/android/hardware/sensors/SensorInfo.h:77:3)",
   "referenced_type" : "_ZTIN4aidl7android8hardware7sensors10SensorInfo33$SENSOR_FLAG_SHIFT_REPORTING_MODEE",
   "self_type" : "_ZTIN4aidl7android8hardware7sensors10SensorInfo33$SENSOR_FLAG_SHIFT_REPORTING_MODEE",
   "size" : 4,
   "source_file" : "out/soong/.intermediates/hardware/interfaces/sensors/aidl/android.hardware.sensors-V1-ndk-source/gen/include/aidl/android/hardware/sensors/SensorInfo.h",
   "underlying_type" : "_ZTIi"
  },
  {
   "alignment" : 4,
   "enum_fields" :
   [
    {
     "enum_field_value" : 6,
     "name" : "aidl::android::hardware::sensors::SensorInfo::SENSOR_FLAG_SHIFT_ADDITIONAL_INFO"
    }
   ],
   "linker_set_key" : "_ZTIN4aidl7android8hardware7sensors10SensorInfo34$SENSOR_FLAG_SHIFT_ADDITIONAL_INFOE",
   "name" : "aidl::android::hardware::sensors::SensorInfo::(unnamed enum at out/soong/.intermediates/hardware/interfaces/sensors/aidl/android.hardware.sensors-V1-ndk-source/gen/include/aidl/android/hardware/sensors/SensorInfo.h:80:3)",
   "referenced_type" : "_ZTIN4aidl7android8hardware7sensors10SensorInfo34$SENSOR_FLAG_SHIFT_ADDITIONAL_INFOE",
   "self_type" : "_ZTIN4aidl7android8hardware7sensors10SensorInfo34$SENSOR_FLAG_SHIFT_ADDITIONAL_INFOE",
   "size" : 4,
   "source_file" : "out/soong/.intermediates/hardware/interfaces/sensors/aidl/android.hardware.sensors-V1-ndk-source/gen/include/aidl/android/hardware/sensors/SensorInfo.h",
   "underlying_type" : "_ZTIi"
  },
  {
   "alignment" : 4,
   "enum_fields" :
   [
    {
     "enum_field_value" : 896,
     "name" : "aidl::android::hardware::sensors::SensorInfo::SENSOR_FLAG_BITS_MASK_DIRECT_REPORT"
    }
   ],
   "linker_set_key" : "_ZTIN4aidl7android8hardware7sensors10SensorInfo36$SENSOR_FLAG_BITS_MASK_DIRECT_REPORTE",
   "name" : "aidl::android::hardware::sensors::SensorInfo::(unnamed enum at out/soong/.intermediates/hardware/interfaces/sensors/aidl/android.hardware.sensors-V1-ndk-source/gen/include/aidl/android/hardware/sensors/SensorInfo.h:75:3)",
   "referenced_type" : "_ZTIN4aidl7android8hardware7sensors10SensorInfo36$SENSOR_FLAG_BITS_MASK_DIRECT_REPORTE",
   "self_type" : "_ZTIN4aidl7android8hardware7sensors10SensorInfo36$SENSOR_FLAG_BITS_MASK_DIRECT_REPORTE",
   "size" : 4,
   "source_file" : "out/soong/.intermediates/hardware/interfaces/sensors/aidl/android.hardware.sensors-V1-ndk-source/gen/include/aidl/android/hardware/sensors/SensorInfo.h",
   "underlying_type" : "_ZTIi"
  },
  {
   "alignment" : 4,
   "enum_fields" :
   [
    {
     "enum_field_value" : 3072,
     "name" : "aidl::android::hardware::sensors::SensorInfo::SENSOR_FLAG_BITS_MASK_DIRECT_CHANNEL"
    }
   ],
   "linker_set_key" : "_ZTIN4aidl7android8hardware7sensors10SensorInfo37$SENSOR_FLAG_BITS_MASK_DIRECT_CHANNELE",
   "name" : "aidl::android::hardware::sensors::SensorInfo::(unnamed enum at out/soong/.intermediates/hardware/interfaces/sensors/aidl/android.hardware.sensors-V1-ndk-source/gen/include/aidl/android/hardware/sensors/SensorInfo.h:76:3)",
   "referenced_type" : "_ZTIN4aidl7android8hardware7sensors10SensorInfo37$SENSOR_FLAG_BITS_MASK_DIRECT_CHANNELE",
   "self_type" : "_ZTIN4aidl7android8hardware7sensors10SensorInfo37$SENSOR_FLAG_BITS_MASK_DIRECT_CHANNELE",
   "size" : 4,
   "source_file" : "out/soong/.intermediates/hardware/interfaces/sensors/aidl/android.hardware.sensors-V1-ndk-source/gen/include/aidl/android/hardware/sensors/SensorInfo.h",
   "underlying_type" : "_ZTIi"
  },
  {
   "alignment" : 4,
   "enum_fields" :
   [
    {
     "enum_field_value" : 14,
     "name" : "aidl::android::hardware::sensors::SensorInfo::SENSOR_FLAG_BITS_MASK_REPORTING_MODE"
    }
   ],
   "linker_set_key" : "_ZTIN4aidl7android8hardware7sensors10SensorInfo37$SENSOR_FLAG_BITS_MASK_REPORTING_MODEE",
   "name" : "aidl::android::hardware::sensors::SensorInfo::(unnamed enum at out/soong/.intermediates/hardware/interfaces/sensors/aidl/android.hardware.sensors-V1-ndk-source/gen/include/aidl/android/hardware/sensors/SensorInfo.h:74:3)",
   "referenced_type" : "_ZTIN4aidl7android8hardware7sensors10SensorInfo37$SENSOR_FLAG_BITS_MASK_REPORTING_MODEE",
   "self_type" : "_ZTIN4aidl7android8hardware7sensors10SensorInfo37$SENSOR_FLAG_BITS_MASK_REPORTING_MODEE",
   "size" : 4,
   "source_file" : "out/soong/.intermediates/hardware/interfaces/sensors/aidl/android.hardware.sensors-V1-ndk-source/gen/include/aidl/android/hardware/sensors/SensorInfo.h",
   "underlying_type" : "_ZTIi"
  },
  {
   "alignment" : 4,
   "enum_fields" :
   [
    {
     "enum_field_value" : 1024,
     "name" : "aidl::android::hardware::sensors::SensorInfo::SENSOR_FLAG_BITS_DIRECT_CHANNEL_ASHMEM"
    }
   ],
   "linker_set_key" : "_ZTIN4aidl7android8hardware7sensors10SensorInfo39$SENSOR_FLAG_BITS_DIRECT_CHANNEL_ASHMEME",
   "name" : "aidl::android::hardware::sensors::SensorInfo::(unnamed enum at out/soong/.intermediates/hardware/interfaces/sensors/aidl/android.hardware.sensors-V1-ndk-source/gen/include/aidl/android/hardware/sensors/SensorInfo.h:72:3)",
   "referenced_type" : "_ZTIN4aidl7android8hardware7sensors10SensorInfo39$SENSOR_FLAG_BITS_DIRECT_CHANNEL_ASHMEME",
   "self_type" : "_ZTIN4aidl7android8hardware7sensors10SensorInfo39$SENSOR_FLAG_BITS_DIRECT_CHANNEL_ASHMEME",
   "size" : 4,
   "source_file" : "out/soong/.intermediates/hardware/interfaces/sensors/aidl/android.hardware.sensors-V1-ndk-source/gen/include/aidl/android/hardware/sensors/SensorInfo.h",
   "underlying_type" : "_ZTIi"
  },
  {
   "alignment" : 4,
   "enum_fields" :
   [
    {
     "enum_field_value" : 2048,
     "name" : "aidl::android::hardware::sensors::SensorInfo::SENSOR_FLAG_BITS_DIRECT_CHANNEL_GRALLOC"
    }
   ],
   "linker_set_key" : "_ZTIN4aidl7android8hardware7sensors10SensorInfo40$SENSOR_FLAG_BITS_DIRECT_CHANNEL_GRALLOCE",
   "name" : "aidl::android::hardware::sensors::SensorInfo::(unnamed enum at out/soong/.intermediates/hardware/interfaces/sensors/aidl/android.hardware.sensors-V1-ndk-source/gen/include/aidl/android/hardware/sensors/SensorInfo.h:73:3)",
   "referenced_type" : "_ZTIN4aidl7android8hardware7sensors10SensorInfo40$SENSOR_FLAG_BITS_DIRECT_CHANNEL_GRALLOCE",
   "self_type" : "_ZTIN4aidl7android8hardware7sensors10SensorInfo40$SENSOR_FLAG_BITS_DIRECT_CHANNEL_GRALLOCE",
   "size" : 4,
   "source_file" : "out/soong/.intermediates/hardware/interfaces/sensors/aidl/android.hardware.sensors-V1-ndk-source/gen/include/aidl/android/hardware/sensors/SensorInfo.h",
   "underlying_type" : "_ZTIi"
  },
  {
   "alignment" : 4,
   "enum_fields" :
   [
    {
     "enum_field_value" : 6,
     "name" : "aidl::android::hardware::sensors::SensorInfo::SENSOR_FLAG_BITS_SPECIAL_REPORTING_MODE"
    }
   ],
   "linker_set_key" : "_ZTIN4aidl7android8hardware7sensors10SensorInfo40$SENSOR_FLAG_BITS_SPECIAL_REPORTING_MODEE",
   "name" : "aidl::android::hardware::sensors::SensorInfo::(unnamed enum at out/soong/.intermediates/hardware/interfaces/sensors/aidl/android.hardware.sensors-V1-ndk-source/gen/include/aidl/android/hardware/sensors/SensorInfo.h:68:3)",
   "referenced_type" : "_ZTIN4aidl7android8hardware7sensors10SensorInfo40$SENSOR_FLAG_BITS_SPECIAL_REPORTING_MODEE",
   "self_type" : "_ZTIN4aidl7android8hardware7sensors10SensorInfo40$SENSOR_FLAG_BITS_SPECIAL_REPORTING_MODEE",
   "size" : 4,
   "source_file" : "out/soong/.intermediates/hardware/interfaces/sensors/aidl/android.hardware.sensors-V1-ndk-source/gen/include/aidl/android/hardware/sensors/SensorInfo.h",
   "underlying_type" : "_ZTIi"
  },
  {
   "alignment" : 4,
   "enum_fields" :
   [
    {
     "enum_field_value" : 0,
     "name" : "aidl::android::hardware::sensors::SensorType::META_DATA"
    },
    {
     "enum_field_value" : 1,
     "name" : "aidl::android::hardware::sensors::SensorType::ACCELEROMETER"
    },
    {
     "enum_field_value" : 2,
     "name" : "aidl::android::hardware::sensors::SensorType::MAGNETIC_FIELD"
    },
    {
     "enum_field_value" : 3,
     "name" : "aidl::android::hardware::sensors::SensorType::ORIENTATION"
    },
    {
     "enum_field_value" : 4,
     "name" : "aidl::android::hardware::sensors::SensorType::GYROSCOPE"
    },
    {
     "enum_field_value" : 5,
     "name" : "aidl::android::hardware::sensors::SensorType::LIGHT"
    },
    {
     "enum_field_value" : 6,
     "name" : "aidl::android::hardware::sensors::SensorType::PRESSURE"
    },
    {
     "enum_field_value" : 8,
     "name" : "aidl::android::hardware::sensors::SensorType::PROXIMITY"
    },
    {
     "enum_field_value" : 9,
     "name" : "aidl::android::hardware::sensors::SensorType::GRAVITY"
    },
    {
     "enum_field_value" : 10,
     "name" : "aidl::android::hardware::sensors::SensorType::LINEAR_ACCELERATION"
    },
    {
     "enum_field_value" : 11,
     "name" : "aidl::android::hardware::sensors::SensorType::ROTATION_VECTOR"
    },
    {
     "enum_field_value" : 12,
     "name" : "aidl::android::hardware::sensors::SensorType::RELATIVE_HUMIDITY"
    },
    {
     "enum_field_value" : 13,
     "name" : "aidl::android::hardware::sensors::SensorType::AMBIENT_TEMPERATURE"
    },
    {
     "enum_field_value" : 14,
     "name" : "aidl::android::hardware::sensors::SensorType::MAGNETIC_FIELD_UNCALIBRATED"
    },
    {
     "enum_field_value" : 15,
     "name" : "aidl::android::hardware::sensors::SensorType::GAME_ROTATION_VECTOR"
    },
    {
     "enum_field_value" : 16,
     "name" : "aidl::android::hardware::sensors::SensorType::GYROSCOPE_UNCALIBRATED"
    },
    {
     "enum_field_value" : 17,
     "name" : "aidl::android::hardware::sensors::SensorType::SIGNIFICANT_MOTION"
    },
    {
     "enum_field_value" : 18,
     "name" : "aidl::android::hardware::sensors::SensorType::STEP_DETECTOR"
    },
    {
     "enum_field_value" : 19,
     "name" : "aidl::android::hardware::sensors::SensorType::STEP_COUNTER"
    },
    {
     "enum_field_value" : 20,
     "name" : "aidl::android::hardware::sensors::SensorType::GEOMAGNETIC_ROTATION_VECTOR"
    },
    {
     "enum_field_value" : 21,
     "name" : "aidl::android::hardware::sensors::SensorType::HEART_RATE"
    },
    {
     "enum_field_value" : 22,
     "name" : "aidl::android::hardware::sensors::SensorType::TILT_DETECTOR"
    },
    {
     "enum_field_value" : 23,
     "name" : "aidl::android::hardware::sensors::SensorType::WAKE_GESTURE"
    },
    {
     "enum_field_value" : 24,
     "name" : "aidl::android::hardware::sensors::SensorType::GLANCE_GESTURE"
    },
    {
     "enum_field_value" : 25,
     "name" : "aidl::android::hardware::sensors::SensorType::PICK_UP_GESTURE"
    },
    {
     "enum_field_value" : 26,
     "name" : "aidl::android::hardware::sensors::SensorType::WRIST_TILT_GESTURE"
    },
    {
     "enum_field_value" : 27,
     "name" : "aidl::android::hardware::sensors::SensorType::DEVICE_ORIENTATION"
    },
    {
     "enum_field_value" : 28,
     "name" : "aidl::android::hardware::sensors::SensorType::POSE_6DOF"
    },
    {
     "enum_field_value" : 29,
     "name" : "aidl::android::hardware::sensors::SensorType::STATIONARY_DETECT"
    },
    {
     "enum_field_value" : 30,
     "name" : "aidl::android::hardware::sensors::SensorType::MOTION_DETECT"
    },
    {
     "enum_field_value" : 31,
     "name" : "aidl::android::hardware::sensors::SensorType::HEART_BEAT"
    },
    {
     "enum_field_value" : 32,
     "name" : "aidl::android::hardware::sensors::SensorType::DYNAMIC_SENSOR_META"
    },
    {
     "enum_field_value" : 33,
     "name" : "aidl::android::hardware::sensors::SensorType::ADDITIONAL_INFO"
    },
    {
     "enum_field_value" : 34,
     "name" : "aidl::android::hardware::sensors::SensorType::LOW_LATENCY_OFFBODY_DETECT"
    },
    {
     "enum_field_value" : 35,
     "name" : "aidl::android::hardware::sensors::SensorType::ACCELEROMETER_UNCALIBRATED"
    },
    {
     "enum_field_value" : 36,
     "name" : "aidl::android::hardware::sensors::SensorType::HINGE_ANGLE"
    },
    {
     "enum_field_value" : 37,
     "name" : "aidl::android::hardware::sensors::SensorType::HEAD_TRACKER"
    },
    {
     "enum_field_value" : 38,
     "name" : "aidl::android::hardware::sensors::SensorType::ACCELEROMETER_LIMITED_AXES"
    },
    {
     "enum_field_value" : 39,
     "name" : "aidl::android::hardware::sensors::SensorType::GYROSCOPE_LIMITED_AXES"
    },
    {
     "enum_field_value" : 40,
     "name" : "aidl::android::hardware::sensors::SensorType::ACCELEROMETER_LIMITED_AXES_UNCALIBRATED"
    },
    {
     "enum_field_value" : 41,
     "name" : "aidl::android::hardware::sensors::SensorType::GYROSCOPE_LIMITED_AXES_UNCALIBRATED"
    },
    {
     "enum_field_value" : 42,
     "name" : "aidl::android::hardware::sensors::SensorType::HEADING"
    },
    {
     "enum_field_value" : 65536,
     "name" : "aidl::android::hardware::sensors::SensorType::DEVICE_PRIVATE_BASE"
    }
   ],
   "linker_set_key" : "_ZTIN4aidl7android8hardware7sensors10SensorTypeE",
   "name" : "aidl::android::hardware::sensors::SensorType",
   "referenced_type" : "_ZTIN4aidl7android8hardware7sensors10SensorTypeE",
   "self_type" : "_ZTIN4aidl7android8hardware7sensors10SensorTypeE",
   "size" : 4,
   "source_file" : "out/soong/.intermediates/hardware/interfaces/sensors/aidl/android.hardware.sensors-V1-ndk-source/gen/include/aidl/android/hardware/sensors/SensorType.h",
   "underlying_type" : "_ZTIi"
  },
  {
   "alignment" : 1,
   "enum_fields" :
   [
    {
     "enum_field_value" : -1,
     "name" : "aidl::android::hardware::sensors::SensorStatus::NO_CONTACT"
    },
    {
     "enum_field_value" : 0,
     "name" : "aidl::android::hardware::sensors::SensorStatus::UNRELIABLE"
    },
    {
     "enum_field_value" : 1,
     "name" : "aidl::android::hardware::sensors::SensorStatus::ACCURACY_LOW"
    },
    {
     "enum_field_value" : 2,
     "name" : "aidl::android::hardware::sensors::SensorStatus::ACCURACY_MEDIUM"
    },
    {
     "enum_field_value" : 3,
     "name" : "aidl::android::hardware::sensors::SensorStatus::ACCURACY_HIGH"
    }
   ],
   "linker_set_key" : "_ZTIN4aidl7android8hardware7sensors12SensorStatusE",
   "name" : "aidl::android::hardware::sensors::SensorStatus",
   "referenced_type" : "_ZTIN4aidl7android8hardware7sensors12SensorStatusE",
   "self_type" : "_ZTIN4aidl7android8hardware7sensors12SensorStatusE",
   "size" : 1,
   "source_file" : "out/soong/.intermediates/hardware/interfaces/sensors/aidl/android.hardware.sensors-V1-ndk-source/gen/include/aidl/android/hardware/sensors/SensorStatus.h",
   "underlying_type" : "_ZTIa"
  },
  {
   "alignment" : 4,
   "enum_fields" :
   [
    {
     "enum_field_value" : 0,
     "name" : "aidl::android::hardware::sensors::AdditionalInfo::AdditionalInfoType::AINFO_BEGIN"
    },
    {
     "enum_field_value" : 1,
     "name" : "aidl::android::hardware::sensors::AdditionalInfo::AdditionalInfoType::AINFO_END"
    },
    {
     "enum_field_value" : 65536,
     "name" : "aidl::android::hardware::sensors::AdditionalInfo::AdditionalInfoType::AINFO_UNTRACKED_DELAY"
    },
    {
     "enum_field_value" : 65537,
     "name" : "aidl::android::hardware::sensors::AdditionalInfo::AdditionalInfoType::AINFO_INTERNAL_TEMPERATURE"
    },
    {
     "enum_field_value" : 65538,
     "name" : "aidl::android::hardware::sensors::AdditionalInfo::AdditionalInfoType::AINFO_VEC3_CALIBRATION"
    },
    {
     "enum_field_value" : 65539,
     "name" : "aidl::android::hardware::sensors::AdditionalInfo::AdditionalInfoType::AINFO_SENSOR_PLACEMENT"
    },
    {
     "enum_field_value" : 65540,
     "name" : "aidl::android::hardware::sensors::AdditionalInfo::AdditionalInfoType::AINFO_SAMPLING"
    },
    {
     "enum_field_value" : 131072,
     "name" : "aidl::android::hardware::sensors::AdditionalInfo::AdditionalInfoType::AINFO_CHANNEL_NOISE"
    },
    {
     "enum_field_value" : 131073,
     "name" : "aidl::android::hardware::sensors::AdditionalInfo::AdditionalInfoType::AINFO_CHANNEL_SAMPLER"
    },
    {
     "enum_field_value" : 131074,
     "name" : "aidl::android::hardware::sensors::AdditionalInfo::AdditionalInfoType::AINFO_CHANNEL_FILTER"
    },
    {
     "enum_field_value" : 131075,
     "name" : "aidl::android::hardware::sensors::AdditionalInfo::AdditionalInfoType::AINFO_CHANNEL_LINEAR_TRANSFORM"
    },
    {
     "enum_field_value" : 131076,
     "name" : "aidl::android::hardware::sensors::AdditionalInfo::AdditionalInfoType::AINFO_CHANNEL_NONLINEAR_MAP"
    },
    {
     "enum_field_value" : 131077,
     "name" : "aidl::android::hardware::sensors::AdditionalInfo::AdditionalInfoType::AINFO_CHANNEL_RESAMPLER"
    },
    {
     "enum_field_value" : 196608,
     "name" : "aidl::android::hardware::sensors::AdditionalInfo::AdditionalInfoType::AINFO_LOCAL_GEOMAGNETIC_FIELD"
    },
    {
     "enum_field_value" : 196609,
     "name" : "aidl::android::hardware::sensors::AdditionalInfo::AdditionalInfoType::AINFO_LOCAL_GRAVITY"
    },
    {
     "enum_field_value" : 196610,
     "name" : "aidl::android::hardware::sensors::AdditionalInfo::AdditionalInfoType::AINFO_DOCK_STATE"
    },
    {
     "enum_field_value" : 196611,
     "name" : "aidl::android::hardware::sensors::AdditionalInfo::AdditionalInfoType::AINFO_HIGH_PERFORMANCE_MODE"
    },
    {
     "enum_field_value" : 196612,
     "name" : "aidl::android::hardware::sensors::AdditionalInfo::AdditionalInfoType::AINFO_MAGNETIC_FIELD_CALIBRATION"
    },
    {
     "enum_field_value" : 268435456,
     "name" : "aidl::android::hardware::sensors::AdditionalInfo::AdditionalInfoType::AINFO_CUSTOM_START"
    },
    {
     "enum_field_value" : 1073741824,
     "name" : "aidl::android::hardware::sensors::AdditionalInfo::AdditionalInfoType::AINFO_DEBUGGING_START"
    }
   ],
   "linker_set_key" : "_ZTIN4aidl7android8hardware7sensors14AdditionalInfo18AdditionalInfoTypeE",
   "name" : "aidl::android::hardware::sensors::AdditionalInfo::AdditionalInfoType",
   "referenced_type" : "_ZTIN4aidl7android8hardware7sensors14AdditionalInfo18AdditionalInfoTypeE",
   "self_type" : "_ZTIN4aidl7android8hardware7sensors14AdditionalInfo18AdditionalInfoTypeE",
   "size" : 4,
   "source_file" : "out/soong/.intermediates/hardware/interfaces/sensors/aidl/android.hardware.sensors-V1-ndk-source/gen/include/aidl/android/hardware/sensors/AdditionalInfo.h",
   "underlying_type" : "_ZTIi"
  },
  {
   "alignment" : 1,
   "enum_fields" :
   [
    {
     "enum_field_value" : 0,
     "name" : "aidl::android::hardware::sensors::AdditionalInfo::AdditionalInfoPayload::Tag::dataInt32"
    },
    {
     "enum_field_value" : 1,
     "name" : "aidl::android::hardware::sensors::AdditionalInfo::AdditionalInfoPayload::Tag::dataFloat"
    }
   ],
   "linker_set_key" : "_ZTIN4aidl7android8hardware7sensors14AdditionalInfo21AdditionalInfoPayload3TagE",
   "name" : "aidl::android::hardware::sensors::AdditionalInfo::AdditionalInfoPayload::Tag",
   "referenced_type" : "_ZTIN4aidl7android8hardware7sensors14AdditionalInfo21AdditionalInfoPayload3TagE",
   "self_type" : "_ZTIN4aidl7android8hardware7sensors14AdditionalInfo21AdditionalInfoPayload3TagE",
   "size" : 1,
   "source_file" : "out/soong/.intermediates/hardware/interfaces/sensors/aidl/android.hardware.sensors-V1-ndk-source/gen/include/aidl/android/hardware/sensors/AdditionalInfo.h",
   "underlying_type" : "_ZTIa"
  },
  {
   "alignment" : 1,
   "enum_fields" :
   [
    {
     "enum_field_value" : 0,
     "name" : "aidl::android::hardware::sensors::Event::EventPayload::Tag::vec3"
    },
    {
     "enum_field_value" : 1,
     "name" : "aidl::android::hardware::sensors::Event::EventPayload::Tag::vec4"
    },
    {
     "enum_field_value" : 2,
     "name" : "aidl::android::hardware::sensors::Event::EventPayload::Tag::uncal"
    },
    {
     "enum_field_value" : 3,
     "name" : "aidl::android::hardware::sensors::Event::EventPayload::Tag::meta"
    },
    {
     "enum_field_value" : 4,
     "name" : "aidl::android::hardware::sensors::Event::EventPayload::Tag::scalar"
    },
    {
     "enum_field_value" : 5,
     "name" : "aidl::android::hardware::sensors::Event::EventPayload::Tag::stepCount"
    },
    {
     "enum_field_value" : 6,
     "name" : "aidl::android::hardware::sensors::Event::EventPayload::Tag::heartRate"
    },
    {
     "enum_field_value" : 7,
     "name" : "aidl::android::hardware::sensors::Event::EventPayload::Tag::pose6DOF"
    },
    {
     "enum_field_value" : 8,
     "name" : "aidl::android::hardware::sensors::Event::EventPayload::Tag::dynamic"
    },
    {
     "enum_field_value" : 9,
     "name" : "aidl::android::hardware::sensors::Event::EventPayload::Tag::additional"
    },
    {
     "enum_field_value" : 10,
     "name" : "aidl::android::hardware::sensors::Event::EventPayload::Tag::data"
    },
    {
     "enum_field_value" : 11,
     "name" : "aidl::android::hardware::sensors::Event::EventPayload::Tag::headTracker"
    },
    {
     "enum_field_value" : 12,
     "name" : "aidl::android::hardware::sensors::Event::EventPayload::Tag::limitedAxesImu"
    },
    {
     "enum_field_value" : 13,
     "name" : "aidl::android::hardware::sensors::Event::EventPayload::Tag::limitedAxesImuUncal"
    },
    {
     "enum_field_value" : 14,
     "name" : "aidl::android::hardware::sensors::Event::EventPayload::Tag::heading"
    }
   ],
   "linker_set_key" : "_ZTIN4aidl7android8hardware7sensors5Event12EventPayload3TagE",
   "name" : "aidl::android::hardware::sensors::Event::EventPayload::Tag",
   "referenced_type" : "_ZTIN4aidl7android8hardware7sensors5Event12EventPayload3TagE",
   "self_type" : "_ZTIN4aidl7android8hardware7sensors5Event12EventPayload3TagE",
   "size" : 1,
   "source_file" : "out/soong/.intermediates/hardware/interfaces/sensors/aidl/android.hardware.sensors-V1-ndk-source/gen/include/aidl/android/hardware/sensors/Event.h",
   "underlying_type" : "_ZTIa"
  },
  {
   "alignment" : 4,
   "enum_fields" :
   [
    {
     "enum_field_value" : 1,
     "name" : "aidl::android::hardware::sensors::Event::EventPayload::MetaData::MetaDataEventType::META_DATA_FLUSH_COMPLETE"
    }
   ],
   "linker_set_key" : "_ZTIN4aidl7android8hardware7sensors5Event12EventPayload8MetaData17MetaDataEventTypeE",
   "name" : "aidl::android::hardware::sensors::Event::EventPayload::MetaData::MetaDataEventType",
   "referenced_type" : "_ZTIN4aidl7android8hardware7sensors5Event12EventPayload8MetaData17MetaDataEventTypeE",
   "self_type" : "_ZTIN4aidl7android8hardware7sensors5Event12EventPayload8MetaData17MetaDataEventTypeE",
   "size" : 4,
   "source_file" : "out/soong/.intermediates/hardware/interfaces/sensors/aidl/android.hardware.sensors-V1-ndk-source/gen/include/aidl/android/hardware/sensors/Event.h",
   "underlying_type" : "_ZTIi"
  },
  {
   "alignment" : 4,
   "enum_fields" :
   [
    {
     "enum_field_value" : 0,
     "name" : "aidl::android::hardware::sensors::ISensors::OperationMode::NORMAL"
    },
    {
     "enum_field_value" : 1,
     "name" : "aidl::android::hardware::sensors::ISensors::OperationMode::DATA_INJECTION"
    }
   ],
   "linker_set_key" : "_ZTIN4aidl7android8hardware7sensors8ISensors13OperationModeE",
   "name" : "aidl::android::hardware::sensors::ISensors::OperationMode",
   "referenced_type" : "_ZTIN4aidl7android8hardware7sensors8ISensors13OperationModeE",
   "self_type" : "_ZTIN4aidl7android8hardware7sensors8ISensors13OperationModeE",
   "size" : 4,
   "source_file" : "out/soong/.intermediates/hardware/interfaces/sensors/aidl/android.hardware.sensors-V1-ndk-source/gen/include/aidl/android/hardware/sensors/ISensors.h",
   "underlying_type" : "_ZTIi"
  },
  {
   "alignment" : 4,
   "enum_fields" :
   [
    {
     "enum_field_value" : 1,
     "name" : "aidl::android::hardware::sensors::ISensors::SharedMemInfo::SharedMemType::ASHMEM"
    },
    {
     "enum_field_value" : 2,
     "name" : "aidl::android::hardware::sensors::ISensors::SharedMemInfo::SharedMemType::GRALLOC"
    }
   ],
   "linker_set_key" : "_ZTIN4aidl7android8hardware7sensors8ISensors13SharedMemInfo13SharedMemTypeE",
   "name" : "aidl::android::hardware::sensors::ISensors::SharedMemInfo::SharedMemType",
   "referenced_type" : "_ZTIN4aidl7android8hardware7sensors8ISensors13SharedMemInfo13SharedMemTypeE",
   "self_type" : "_ZTIN4aidl7android8hardware7sensors8ISensors13SharedMemInfo13SharedMemTypeE",
   "size" : 4,
   "source_file" : "out/soong/.intermediates/hardware/interfaces/sensors/aidl/android.hardware.sensors-V1-ndk-source/gen/include/aidl/android/hardware/sensors/ISensors.h",
   "underlying_type" : "_ZTIi"
  },
  {
   "alignment" : 4,
   "enum_fields" :
   [
    {
     "enum_field_value" : 1,
     "name" : "aidl::android::hardware::sensors::ISensors::SharedMemInfo::SharedMemFormat::SENSORS_EVENT"
    }
   ],
   "linker_set_key" : "_ZTIN4aidl7android8hardware7sensors8ISensors13SharedMemInfo15SharedMemFormatE",
   "name" : "aidl::android::hardware::sensors::ISensors::SharedMemInfo::SharedMemFormat",
   "referenced_type" : "_ZTIN4aidl7android8hardware7sensors8ISensors13SharedMemInfo15SharedMemFormatE",
   "self_type" : "_ZTIN4aidl7android8hardware7sensors8ISensors13SharedMemInfo15SharedMemFormatE",
   "size" : 4,
   "source_file" : "out/soong/.intermediates/hardware/interfaces/sensors/aidl/android.hardware.sensors-V1-ndk-source/gen/include/aidl/android/hardware/sensors/ISensors.h",
   "underlying_type" : "_ZTIi"
  },
  {
   "alignment" : 4,
   "enum_fields" :
   [
    {
     "enum_field_value" : -22,
     "name" : "aidl::android::hardware::sensors::ISensors::ERROR_BAD_VALUE"
    }
   ],
   "linker_set_key" : "_ZTIN4aidl7android8hardware7sensors8ISensors16$ERROR_BAD_VALUEE",
   "name" : "aidl::android::hardware::sensors::ISensors::(unnamed enum at out/soong/.intermediates/hardware/interfaces/sensors/aidl/android.hardware.sensors-V1-ndk-source/gen/include/aidl/android/hardware/sensors/ISensors.h:100:3)",
   "referenced_type" : "_ZTIN4aidl7android8hardware7sensors8ISensors16$ERROR_BAD_VALUEE",
   "self_type" : "_ZTIN4aidl7android8hardware7sensors8ISensors16$ERROR_BAD_VALUEE",
   "size" : 4,
   "source_file" : "out/soong/.intermediates/hardware/interfaces/sensors/aidl/android.hardware.sensors-V1-ndk-source/gen/include/aidl/android/hardware/sensors/ISensors.h",
   "underlying_type" : "_ZTIi"
  },
  {
   "alignment" : 4,
   "enum_fields" :
   [
    {
     "enum_field_value" : -12,
     "name" : "aidl::android::hardware::sensors::ISensors::ERROR_NO_MEMORY"
    }
   ],
   "linker_set_key" : "_ZTIN4aidl7android8hardware7sensors8ISensors16$ERROR_NO_MEMORYE",
   "name" : "aidl::android::hardware::sensors::ISensors::(unnamed enum at out/soong/.intermediates/hardware/interfaces/sensors/aidl/android.hardware.sensors-V1-ndk-source/gen/include/aidl/android/hardware/sensors/ISensors.h:99:3)",
   "referenced_type" : "_ZTIN4aidl7android8hardware7sensors8ISensors16$ERROR_NO_MEMORYE",
   "self_type" : "_ZTIN4aidl7android8hardware7sensors8ISensors16$ERROR_NO_MEMORYE",
   "size" : 4,
   "source_file" : "out/soong/.intermediates/hardware/interfaces/sensors/aidl/android.hardware.sensors-V1-ndk-source/gen/include/aidl/android/hardware/sensors/ISensors.h",
   "underlying_type" : "_ZTIi"
  },
  {
   "alignment" : 4,
   "enum_fields" :
   [
    {
     "enum_field_value" : 1,
     "name" : "aidl::android::hardware::sensors::ISensors::WAKE_LOCK_TIMEOUT_SECONDS"
    }
   ],
   "linker_set_key" : "_ZTIN4aidl7android8hardware7sensors8ISensors26$WAKE_LOCK_TIMEOUT_SECONDSE",
   "name" : "aidl::android::hardware::sensors::ISensors::(unnamed enum at out/soong/.intermediates/hardware/interfaces/sensors/aidl/android.hardware.sensors-V1-ndk-source/gen/include/aidl/android/hardware/sensors/ISensors.h:101:3)",
   "referenced_type" : "_ZTIN4aidl7android8hardware7sensors8ISensors26$WAKE_LOCK_TIMEOUT_SECONDSE",
   "self_type" : "_ZTIN4aidl7android8hardware7sensors8ISensors26$WAKE_LOCK_TIMEOUT_SECONDSE",
   "size" : 4,
   "source_file" : "out/soong/.intermediates/hardware/interfaces/sensors/aidl/android.hardware.sensors-V1-ndk-source/gen/include/aidl/android/hardware/sensors/ISensors.h",
   "underlying_type" : "_ZTIi"
  },
  {
   "alignment" : 4,
   "enum_fields" :
   [
    {
     "enum_field_value" : 2,
     "name" : "aidl::android::hardware::sensors::ISensors::EVENT_QUEUE_FLAG_BITS_EVENTS_READ"
    }
   ],
   "linker_set_key" : "_ZTIN4aidl7android8hardware7sensors8ISensors34$EVENT_QUEUE_FLAG_BITS_EVENTS_READE",
   "name" : "aidl::android::hardware::sensors::ISensors::(unnamed enum at out/soong/.intermediates/hardware/interfaces/sensors/aidl/android.hardware.sensors-V1-ndk-source/gen/include/aidl/android/hardware/sensors/ISensors.h:103:3)",
   "referenced_type" : "_ZTIN4aidl7android8hardware7sensors8ISensors34$EVENT_QUEUE_FLAG_BITS_EVENTS_READE",
   "self_type" : "_ZTIN4aidl7android8hardware7sensors8ISensors34$EVENT_QUEUE_FLAG_BITS_EVENTS_READE",
   "size" : 4,
   "source_file" : "out/soong/.intermediates/hardware/interfaces/sensors/aidl/android.hardware.sensors-V1-ndk-source/gen/include/aidl/android/hardware/sensors/ISensors.h",
   "underlying_type" : "_ZTIi"
  },
  {
   "alignment" : 4,
   "enum_fields" :
   [
    {
     "enum_field_value" : 1,
     "name" : "aidl::android::hardware::sensors::ISensors::EVENT_QUEUE_FLAG_BITS_READ_AND_PROCESS"
    }
   ],
   "linker_set_key" : "_ZTIN4aidl7android8hardware7sensors8ISensors39$EVENT_QUEUE_FLAG_BITS_READ_AND_PROCESSE",
   "name" : "aidl::android::hardware::sensors::ISensors::(unnamed enum at out/soong/.intermediates/hardware/interfaces/sensors/aidl/android.hardware.sensors-V1-ndk-source/gen/include/aidl/android/hardware/sensors/ISensors.h:102:3)",
   "referenced_type" : "_ZTIN4aidl7android8hardware7sensors8ISensors39$EVENT_QUEUE_FLAG_BITS_READ_AND_PROCESSE",
   "self_type" : "_ZTIN4aidl7android8hardware7sensors8ISensors39$EVENT_QUEUE_FLAG_BITS_READ_AND_PROCESSE",
   "size" : 4,
   "source_file" : "out/soong/.intermediates/hardware/interfaces/sensors/aidl/android.hardware.sensors-V1-ndk-source/gen/include/aidl/android/hardware/sensors/ISensors.h",
   "underlying_type" : "_ZTIi"
  },
  {
   "alignment" : 4,
   "enum_fields" :
   [
    {
     "enum_field_value" : 1,
     "name" : "aidl::android::hardware::sensors::ISensors::WAKE_LOCK_QUEUE_FLAG_BITS_DATA_WRITTEN"
    }
   ],
   "linker_set_key" : "_ZTIN4aidl7android8hardware7sensors8ISensors39$WAKE_LOCK_QUEUE_FLAG_BITS_DATA_WRITTENE",
   "name" : "aidl::android::hardware::sensors::ISensors::(unnamed enum at out/soong/.intermediates/hardware/interfaces/sensors/aidl/android.hardware.sensors-V1-ndk-source/gen/include/aidl/android/hardware/sensors/ISensors.h:104:3)",
   "referenced_type" : "_ZTIN4aidl7android8hardware7sensors8ISensors39$WAKE_LOCK_QUEUE_FLAG_BITS_DATA_WRITTENE",
   "self_type" : "_ZTIN4aidl7android8hardware7sensors8ISensors39$WAKE_LOCK_QUEUE_FLAG_BITS_DATA_WRITTENE",
   "size" : 4,
   "source_file" : "out/soong/.intermediates/hardware/interfaces/sensors/aidl/android.hardware.sensors-V1-ndk-source/gen/include/aidl/android/hardware/sensors/ISensors.h",
   "underlying_type" : "_ZTIi"
  },
  {
   "alignment" : 4,
   "enum_fields" :
   [
    {
     "enum_field_value" : 104,
     "name" : "aidl::android::hardware::sensors::ISensors::DIRECT_REPORT_SENSOR_EVENT_TOTAL_LENGTH"
    }
   ],
   "linker_set_key" : "_ZTIN4aidl7android8hardware7sensors8ISensors40$DIRECT_REPORT_SENSOR_EVENT_TOTAL_LENGTHE",
   "name" : "aidl::android::hardware::sensors::ISensors::(unnamed enum at out/soong/.intermediates/hardware/interfaces/sensors/aidl/android.hardware.sensors-V1-ndk-source/gen/include/aidl/android/hardware/sensors/ISensors.h:112:3)",
   "referenced_type" : "_ZTIN4aidl7android8hardware7sensors8ISensors40$DIRECT_REPORT_SENSOR_EVENT_TOTAL_LENGTHE",
   "self_type" : "_ZTIN4aidl7android8hardware7sensors8ISensors40$DIRECT_REPORT_SENSOR_EVENT_TOTAL_LENGTHE",
   "size" : 4,
   "source_file" : "out/soong/.intermediates/hardware/interfaces/sensors/aidl/android.hardware.sensors-V1-ndk-source/gen/include/aidl/android/hardware/sensors/ISensors.h",
   "underlying_type" : "_ZTIi"
  },
  {
   "alignment" : 4,
   "enum_fields" :
   [
    {
     "enum_field_value" : 24,
     "name" : "aidl::android::hardware::sensors::ISensors::DIRECT_REPORT_SENSOR_EVENT_OFFSET_SIZE_DATA"
    }
   ],
   "linker_set_key" : "_ZTIN4aidl7android8hardware7sensors8ISensors44$DIRECT_REPORT_SENSOR_EVENT_OFFSET_SIZE_DATAE",
   "name" : "aidl::android::hardware::sensors::ISensors::(unnamed enum at out/soong/.intermediates/hardware/interfaces/sensors/aidl/android.hardware.sensors-V1-ndk-source/gen/include/aidl/android/hardware/sensors/ISensors.h:110:3)",
   "referenced_type" : "_ZTIN4aidl7android8hardware7sensors8ISensors44$DIRECT_REPORT_SENSOR_EVENT_OFFSET_SIZE_DATAE",
   "self_type" : "_ZTIN4aidl7android8hardware7sensors8ISensors44$DIRECT_REPORT_SENSOR_EVENT_OFFSET_SIZE_DATAE",
   "size" : 4,
   "source_file" : "out/soong/.intermediates/hardware/interfaces/sensors/aidl/android.hardware.sensors-V1-ndk-source/gen/include/aidl/android/hardware/sensors/ISensors.h",
   "underlying_type" : "_ZTIi"
  },
  {
   "alignment" : 4,
   "enum_fields" :
   [
    {
     "enum_field_value" : 0,
     "name" : "aidl::android::hardware::sensors::ISensors::DIRECT_REPORT_SENSOR_EVENT_OFFSET_SIZE_FIELD"
    }
   ],
   "linker_set_key" : "_ZTIN4aidl7android8hardware7sensors8ISensors45$DIRECT_REPORT_SENSOR_EVENT_OFFSET_SIZE_FIELDE",
   "name" : "aidl::android::hardware::sensors::ISensors::(unnamed enum at out/soong/.intermediates/hardware/interfaces/sensors/aidl/android.hardware.sensors-V1-ndk-source/gen/include/aidl/android/hardware/sensors/ISensors.h:105:3)",
   "referenced_type" : "_ZTIN4aidl7android8hardware7sensors8ISensors45$DIRECT_REPORT_SENSOR_EVENT_OFFSET_SIZE_FIELDE",
   "self_type" : "_ZTIN4aidl7android8hardware7sensors8ISensors45$DIRECT_REPORT_SENSOR_EVENT_OFFSET_SIZE_FIELDE",
   "size" : 4,
   "source_file" : "out/soong/.intermediates/hardware/interfaces/sensors/aidl/android.hardware.sensors-V1-ndk-source/gen/include/aidl/android/hardware/sensors/ISensors.h",
   "underlying_type" : "_ZTIi"
  },
  {
   "alignment" : 4,
   "enum_fields" :
   [
    {
     "enum_field_value" : 88,
     "name" : "aidl::android::hardware::sensors::ISensors::DIRECT_REPORT_SENSOR_EVENT_OFFSET_SIZE_RESERVED"
    }
   ],
   "linker_set_key" : "_ZTIN4aidl7android8hardware7sensors8ISensors48$DIRECT_REPORT_SENSOR_EVENT_OFFSET_SIZE_RESERVEDE",
   "name" : "aidl::android::hardware::sensors::ISensors::(unnamed enum at out/soong/.intermediates/hardware/interfaces/sensors/aidl/android.hardware.sensors-V1-ndk-source/gen/include/aidl/android/hardware/sensors/ISensors.h:111:3)",
   "referenced_type" : "_ZTIN4aidl7android8hardware7sensors8ISensors48$DIRECT_REPORT_SENSOR_EVENT_OFFSET_SIZE_RESERVEDE",
   "self_type" : "_ZTIN4aidl7android8hardware7sensors8ISensors48$DIRECT_REPORT_SENSOR_EVENT_OFFSET_SIZE_RESERVEDE",
   "size" : 4,
   "source_file" : "out/soong/.intermediates/hardware/interfaces/sensors/aidl/android.hardware.sensors-V1-ndk-source/gen/include/aidl/android/hardware/sensors/ISensors.h",
   "underlying_type" : "_ZTIi"
  },
  {
   "alignment" : 4,
   "enum_fields" :
   [
    {
     "enum_field_value" : 16,
     "name" : "aidl::android::hardware::sensors::ISensors::DIRECT_REPORT_SENSOR_EVENT_OFFSET_SIZE_TIMESTAMP"
    }
   ],
   "linker_set_key" : "_ZTIN4aidl7android8hardware7sensors8ISensors49$DIRECT_REPORT_SENSOR_EVENT_OFFSET_SIZE_TIMESTAMPE",
   "name" : "aidl::android::hardware::sensors::ISensors::(unnamed enum at out/soong/.intermediates/hardware/interfaces/sensors/aidl/android.hardware.sensors-V1-ndk-source/gen/include/aidl/android/hardware/sensors/ISensors.h:109:3)",
   "referenced_type" : "_ZTIN4aidl7android8hardware7sensors8ISensors49$DIRECT_REPORT_SENSOR_EVENT_OFFSET_SIZE_TIMESTAMPE",
   "self_type" : "_ZTIN4aidl7android8hardware7sensors8ISensors49$DIRECT_REPORT_SENSOR_EVENT_OFFSET_SIZE_TIMESTAMPE",
   "size" : 4,
   "source_file" : "out/soong/.intermediates/hardware/interfaces/sensors/aidl/android.hardware.sensors-V1-ndk-source/gen/include/aidl/android/hardware/sensors/ISensors.h",
   "underlying_type" : "_ZTIi"
  },
  {
   "alignment" : 4,
   "enum_fields" :
   [
    {
     "enum_field_value" : 8,
     "name" : "aidl::android::hardware::sensors::ISensors::DIRECT_REPORT_SENSOR_EVENT_OFFSET_SIZE_SENSOR_TYPE"
    }
   ],
   "linker_set_key" : "_ZTIN4aidl7android8hardware7sensors8ISensors51$DIRECT_REPORT_SENSOR_EVENT_OFFSET_SIZE_SENSOR_TYPEE",
   "name" : "aidl::android::hardware::sensors::ISensors::(unnamed enum at out/soong/.intermediates/hardware/interfaces/sensors/aidl/android.hardware.sensors-V1-ndk-source/gen/include/aidl/android/hardware/sensors/ISensors.h:107:3)",
   "referenced_type" : "_ZTIN4aidl7android8hardware7sensors8ISensors51$DIRECT_REPORT_SENSOR_EVENT_OFFSET_SIZE_SENSOR_TYPEE",
   "self_type" : "_ZTIN4aidl7android8hardware7sensors8ISensors51$DIRECT_REPORT_SENSOR_EVENT_OFFSET_SIZE_SENSOR_TYPEE",
   "size" : 4,
   "source_file" : "out/soong/.intermediates/hardware/interfaces/sensors/aidl/android.hardware.sensors-V1-ndk-source/gen/include/aidl/android/hardware/sensors/ISensors.h",
   "underlying_type" : "_ZTIi"
  },
  {
   "alignment" : 4,
   "enum_fields" :
   [
    {
     "enum_field_value" : 4,
     "name" : "aidl::android::hardware::sensors::ISensors::DIRECT_REPORT_SENSOR_EVENT_OFFSET_SIZE_REPORT_TOKEN"
    }
   ],
   "linker_set_key" : "_ZTIN4aidl7android8hardware7sensors8ISensors52$DIRECT_REPORT_SENSOR_EVENT_OFFSET_SIZE_REPORT_TOKENE",
   "name" : "aidl::android::hardware::sensors::ISensors::(unnamed enum at out/soong/.intermediates/hardware/interfaces/sensors/aidl/android.hardware.sensors-V1-ndk-source/gen/include/aidl/android/hardware/sensors/ISensors.h:106:3)",
   "referenced_type" : "_ZTIN4aidl7android8hardware7sensors8ISensors52$DIRECT_REPORT_SENSOR_EVENT_OFFSET_SIZE_REPORT_TOKENE",
   "self_type" : "_ZTIN4aidl7android8hardware7sensors8ISensors52$DIRECT_REPORT_SENSOR_EVENT_OFFSET_SIZE_REPORT_TOKENE",
   "size" : 4,
   "source_file" : "out/soong/.intermediates/hardware/interfaces/sensors/aidl/android.hardware.sensors-V1-ndk-source/gen/include/aidl/android/hardware/sensors/ISensors.h",
   "underlying_type" : "_ZTIi"
  },
  {
   "alignment" : 4,
   "enum_fields" :
   [
    {
     "enum_field_value" : 12,
     "name" : "aidl::android::hardware::sensors::ISensors::DIRECT_REPORT_SENSOR_EVENT_OFFSET_SIZE_ATOMIC_COUNTER"
    }
   ],
   "linker_set_key" : "_ZTIN4aidl7android8hardware7sensors8ISensors54$DIRECT_REPORT_SENSOR_EVENT_OFFSET_SIZE_ATOMIC_COUNTERE",
   "name" : "aidl::android::hardware::sensors::ISensors::(unnamed enum at out/soong/.intermediates/hardware/interfaces/sensors/aidl/android.hardware.sensors-V1-ndk-source/gen/include/aidl/android/hardware/sensors/ISensors.h:108:3)",
   "referenced_type" : "_ZTIN4aidl7android8hardware7sensors8ISensors54$DIRECT_REPORT_SENSOR_EVENT_OFFSET_SIZE_ATOMIC_COUNTERE",
   "self_type" : "_ZTIN4aidl7android8hardware7sensors8ISensors54$DIRECT_REPORT_SENSOR_EVENT_OFFSET_SIZE_ATOMIC_COUNTERE",
   "size" : 4,
   "source_file" : "out/soong/.intermediates/hardware/interfaces/sensors/aidl/android.hardware.sensors-V1-ndk-source/gen/include/aidl/android/hardware/sensors/ISensors.h",
   "underlying_type" : "_ZTIi"
  },
  {
   "alignment" : 4,
   "enum_fields" :
   [
    {
     "enum_field_value" : 0,
     "name" : "aidl::android::hardware::sensors::ISensors::RateLevel::STOP"
    },
    {
     "enum_field_value" : 1,
     "name" : "aidl::android::hardware::sensors::ISensors::RateLevel::NORMAL"
    },
    {
     "enum_field_value" : 2,
     "name" : "aidl::android::hardware::sensors::ISensors::RateLevel::FAST"
    },
    {
     "enum_field_value" : 3,
     "name" : "aidl::android::hardware::sensors::ISensors::RateLevel::VERY_FAST"
    }
   ],
   "linker_set_key" : "_ZTIN4aidl7android8hardware7sensors8ISensors9RateLevelE",
   "name" : "aidl::android::hardware::sensors::ISensors::RateLevel",
   "referenced_type" : "_ZTIN4aidl7android8hardware7sensors8ISensors9RateLevelE",
   "self_type" : "_ZTIN4aidl7android8hardware7sensors8ISensors9RateLevelE",
   "size" : 4,
   "source_file" : "out/soong/.intermediates/hardware/interfaces/sensors/aidl/android.hardware.sensors-V1-ndk-source/gen/include/aidl/android/hardware/sensors/ISensors.h",
   "underlying_type" : "_ZTIi"
  },
  {
   "alignment" : 4,
   "enum_fields" :
   [
    {
     "enum_field_value" : 1,
     "name" : "android::internal::details::IsIterable<std::array<float, 14>>::value"
    }
   ],
   "linker_set_key" : "_ZTIN7android8internal7details10IsIterableINSt3__15arrayIfLj14EEEE6$valueE",
   "name" : "android::internal::details::IsIterable<std::array<float, 14>>::(unnamed enum at frameworks/native/libs/binder/ndk/include_cpp/android/binder_to_string.h:131:5)",
   "referenced_type" : "_ZTIN7android8internal7details10IsIterableINSt3__15arrayIfLj14EEEE6$valueE",
   "self_type" : "_ZTIN7android8internal7details10IsIterableINSt3__15arrayIfLj14EEEE6$valueE",
   "size" : 4,
   "source_file" : "frameworks/native/libs/binder/ndk/include_cpp/android/binder_to_string.h",
   "underlying_type" : "_ZTIj"
  },
  {
   "alignment" : 4,
   "enum_fields" :
   [
    {
     "enum_field_value" : 1,
     "name" : "android::internal::details::IsIterable<std::array<float, 15>>::value"
    }
   ],
   "linker_set_key" : "_ZTIN7android8internal7details10IsIterableINSt3__15arrayIfLj15EEEE6$valueE",
   "name" : "android::internal::details::IsIterable<std::array<float, 15>>::(unnamed enum at frameworks/native/libs/binder/ndk/include_cpp/android/binder_to_string.h:131:5)",
   "referenced_type" : "_ZTIN7android8internal7details10IsIterableINSt3__15arrayIfLj15EEEE6$valueE",
   "self_type" : "_ZTIN7android8internal7details10IsIterableINSt3__15arrayIfLj15EEEE6$valueE",
   "size" : 4,
   "source_file" : "frameworks/native/libs/binder/ndk/include_cpp/android/binder_to_string.h",
   "underlying_type" : "_ZTIj"
  },
  {
   "alignment" : 4,
   "enum_fields" :
   [
    {
     "enum_field_value" : 1,
     "name" : "android::internal::details::IsIterable<std::array<float, 16>>::value"
    }
   ],
   "linker_set_key" : "_ZTIN7android8internal7details10IsIterableINSt3__15arrayIfLj16EEEE6$valueE",
   "name" : "android::internal::details::IsIterable<std::array<float, 16>>::(unnamed enum at frameworks/native/libs/binder/ndk/include_cpp/android/binder_to_string.h:131:5)",
   "referenced_type" : "_ZTIN7android8internal7details10IsIterableINSt3__15arrayIfLj16EEEE6$valueE",
   "self_type" : "_ZTIN7android8internal7details10IsIterableINSt3__15arrayIfLj16EEEE6$valueE",
   "size" : 4,
   "source_file" : "frameworks/native/libs/binder/ndk/include_cpp/android/binder_to_string.h",
   "underlying_type" : "_ZTIj"
  },
  {
   "alignment" : 4,
   "enum_fields" :
   [
    {
     "enum_field_value" : 1,
     "name" : "android::internal::details::IsIterable<std::array<unsigned char, 16>>::value"
    }
   ],
   "linker_set_key" : "_ZTIN7android8internal7details10IsIterableINSt3__15arrayIhLj16EEEE6$valueE",
   "name" : "android::internal::details::IsIterable<std::array<unsigned char, 16>>::(unnamed enum at frameworks/native/libs/binder/ndk/include_cpp/android/binder_to_string.h:131:5)",
   "referenced_type" : "_ZTIN7android8internal7details10IsIterableINSt3__15arrayIhLj16EEEE6$valueE",
   "self_type" : "_ZTIN7android8internal7details10IsIterableINSt3__15arrayIhLj16EEEE6$valueE",
   "size" : 4,
   "source_file" : "frameworks/native/libs/binder/ndk/include_cpp/android/binder_to_string.h",
   "underlying_type" : "_ZTIj"
  },
  {
   "alignment" : 4,
   "enum_fields" :
   [
    {
     "enum_field_value" : 1,
     "name" : "android::internal::details::IsIterable<std::array<int, 14>>::value"
    }
   ],
   "linker_set_key" : "_ZTIN7android8internal7details10IsIterableINSt3__15arrayIiLj14EEEE6$valueE",
   "name" : "android::internal::details::IsIterable<std::array<int, 14>>::(unnamed enum at frameworks/native/libs/binder/ndk/include_cpp/android/binder_to_string.h:131:5)",
   "referenced_type" : "_ZTIN7android8internal7details10IsIterableINSt3__15arrayIiLj14EEEE6$valueE",
   "self_type" : "_ZTIN7android8internal7details10IsIterableINSt3__15arrayIiLj14EEEE6$valueE",
   "size" : 4,
   "source_file" : "frameworks/native/libs/binder/ndk/include_cpp/android/binder_to_string.h",
   "underlying_type" : "_ZTIj"
  },
  {
   "alignment" : 4,
   "enum_fields" :
   [
    {
     "enum_field_value" : 1,
     "name" : "android::internal::details::IsIterable<std::vector<ndk::ScopedFileDescriptor>>::value"
    }
   ],
   "linker_set_key" : "_ZTIN7android8internal7details10IsIterableINSt3__16vectorIN3ndk20ScopedFileDescriptorENS3_9allocatorIS6_EEEEE6$valueE",
   "name" : "android::internal::details::IsIterable<std::vector<ndk::ScopedFileDescriptor, std::allocator<ndk::ScopedFileDescriptor>>>::(unnamed enum at frameworks/native/libs/binder/ndk/include_cpp/android/binder_to_string.h:131:5)",
   "referenced_type" : "_ZTIN7android8internal7details10IsIterableINSt3__16vectorIN3ndk20ScopedFileDescriptorENS3_9allocatorIS6_EEEEE6$valueE",
   "self_type" : "_ZTIN7android8internal7details10IsIterableINSt3__16vectorIN3ndk20ScopedFileDescriptorENS3_9allocatorIS6_EEEEE6$valueE",
   "size" : 4,
   "source_file" : "frameworks/native/libs/binder/ndk/include_cpp/android/binder_to_string.h",
   "underlying_type" : "_ZTIj"
  },
  {
   "alignment" : 4,
   "enum_fields" :
   [
    {
     "enum_field_value" : 1,
     "name" : "android::internal::details::IsIterable<std::vector<int>>::value"
    }
   ],
   "linker_set_key" : "_ZTIN7android8internal7details10IsIterableINSt3__16vectorIiNS3_9allocatorIiEEEEE6$valueE",
   "name" : "android::internal::details::IsIterable<std::vector<int, std::allocator<int>>>::(unnamed enum at frameworks/native/libs/binder/ndk/include_cpp/android/binder_to_string.h:131:5)",
   "referenced_type" : "_ZTIN7android8internal7details10IsIterableINSt3__16vectorIiNS3_9allocatorIiEEEEE6$valueE",
   "self_type" : "_ZTIN7android8internal7details10IsIterableINSt3__16vectorIiNS3_9allocatorIiEEEEE6$valueE",
   "size" : 4,
   "source_file" : "frameworks/native/libs/binder/ndk/include_cpp/android/binder_to_string.h",
   "underlying_type" : "_ZTIj"
  },
  {
   "alignment" : 4,
   "enum_fields" :
   [
    {
     "enum_field_value" : 0,
     "name" : "android::internal::details::IsPointerLike<aidl::android::hardware::common::NativeHandle>::value"
    }
   ],
   "linker_set_key" : "_ZTIN7android8internal7details13IsPointerLikeIN4aidl7android8hardware6common12NativeHandleEE6$valueE",
   "name" : "android::internal::details::IsPointerLike<aidl::android::hardware::common::NativeHandle>::(unnamed enum at frameworks/native/libs/binder/ndk/include_cpp/android/binder_to_string.h:118:5)",
   "referenced_type" : "_ZTIN7android8internal7details13IsPointerLikeIN4aidl7android8hardware6common12NativeHandleEE6$valueE",
   "self_type" : "_ZTIN7android8internal7details13IsPointerLikeIN4aidl7android8hardware6common12NativeHandleEE6$valueE",
   "size" : 4,
   "source_file" : "frameworks/native/libs/binder/ndk/include_cpp/android/binder_to_string.h",
   "underlying_type" : "_ZTIj"
  },
  {
   "alignment" : 4,
   "enum_fields" :
   [
    {
     "enum_field_value" : 0,
     "name" : "android::internal::details::IsPointerLike<aidl::android::hardware::sensors::SensorType>::value"
    }
   ],
   "linker_set_key" : "_ZTIN7android8internal7details13IsPointerLikeIN4aidl7android8hardware7sensors10SensorTypeEE6$valueE",
   "name" : "android::internal::details::IsPointerLike<aidl::android::hardware::sensors::SensorType>::(unnamed enum at frameworks/native/libs/binder/ndk/include_cpp/android/binder_to_string.h:118:5)",
   "referenced_type" : "_ZTIN7android8internal7details13IsPointerLikeIN4aidl7android8hardware7sensors10SensorTypeEE6$valueE",
   "self_type" : "_ZTIN7android8internal7details13IsPointerLikeIN4aidl7android8hardware7sensors10SensorTypeEE6$valueE",
   "size" : 4,
   "source_file" : "frameworks/native/libs/binder/ndk/include_cpp/android/binder_to_string.h",
   "underlying_type" : "_ZTIj"
  },
  {
   "alignment" : 4,
   "enum_fields" :
   [
    {
     "enum_field_value" : 0,
     "name" : "android::internal::details::IsPointerLike<aidl::android::hardware::sensors::SensorStatus>::value"
    }
   ],
   "linker_set_key" : "_ZTIN7android8internal7details13IsPointerLikeIN4aidl7android8hardware7sensors12SensorStatusEE6$valueE",
   "name" : "android::internal::details::IsPointerLike<aidl::android::hardware::sensors::SensorStatus>::(unnamed enum at frameworks/native/libs/binder/ndk/include_cpp/android/binder_to_string.h:118:5)",
   "referenced_type" : "_ZTIN7android8internal7details13IsPointerLikeIN4aidl7android8hardware7sensors12SensorStatusEE6$valueE",
   "self_type" : "_ZTIN7android8internal7details13IsPointerLikeIN4aidl7android8hardware7sensors12SensorStatusEE6$valueE",
   "size" : 4,
   "source_file" : "frameworks/native/libs/binder/ndk/include_cpp/android/binder_to_string.h",
   "underlying_type" : "_ZTIj"
  },
  {
   "alignment" : 4,
   "enum_fields" :
   [
    {
     "enum_field_value" : 0,
     "name" : "android::internal::details::IsPointerLike<aidl::android::hardware::sensors::AdditionalInfo::AdditionalInfoType>::value"
    }
   ],
   "linker_set_key" : "_ZTIN7android8internal7details13IsPointerLikeIN4aidl7android8hardware7sensors14AdditionalInfo18AdditionalInfoTypeEE6$valueE",
   "name" : "android::internal::details::IsPointerLike<aidl::android::hardware::sensors::AdditionalInfo::AdditionalInfoType>::(unnamed enum at frameworks/native/libs/binder/ndk/include_cpp/android/binder_to_string.h:118:5)",
   "referenced_type" : "_ZTIN7android8internal7details13IsPointerLikeIN4aidl7android8hardware7sensors14AdditionalInfo18AdditionalInfoTypeEE6$valueE",
   "self_type" : "_ZTIN7android8internal7details13IsPointerLikeIN4aidl7android8hardware7sensors14AdditionalInfo18AdditionalInfoTypeEE6$valueE",
   "size" : 4,
   "source_file" : "frameworks/native/libs/binder/ndk/include_cpp/android/binder_to_string.h",
   "underlying_type" : "_ZTIj"
  },
  {
   "alignment" : 4,
   "enum_fields" :
   [
    {
     "enum_field_value" : 0,
     "name" : "android::internal::details::IsPointerLike<aidl::android::hardware::sensors::AdditionalInfo::AdditionalInfoPayload::FloatValues>::value"
    }
   ],
   "linker_set_key" : "_ZTIN7android8internal7details13IsPointerLikeIN4aidl7android8hardware7sensors14AdditionalInfo21AdditionalInfoPayload11FloatValuesEE6$valueE",
   "name" : "android::internal::details::IsPointerLike<aidl::android::hardware::sensors::AdditionalInfo::AdditionalInfoPayload::FloatValues>::(unnamed enum at frameworks/native/libs/binder/ndk/include_cpp/android/binder_to_string.h:118:5)",
   "referenced_type" : "_ZTIN7android8internal7details13IsPointerLikeIN4aidl7android8hardware7sensors14AdditionalInfo21AdditionalInfoPayload11FloatValuesEE6$valueE",
   "self_type" : "_ZTIN7android8internal7details13IsPointerLikeIN4aidl7android8hardware7sensors14AdditionalInfo21AdditionalInfoPayload11FloatValuesEE6$valueE",
   "size" : 4,
   "source_file" : "frameworks/native/libs/binder/ndk/include_cpp/android/binder_to_string.h",
   "underlying_type" : "_ZTIj"
  },
  {
   "alignment" : 4,
   "enum_fields" :
   [
    {
     "enum_field_value" : 0,
     "name" : "android::internal::details::IsPointerLike<aidl::android::hardware::sensors::AdditionalInfo::AdditionalInfoPayload::Int32Values>::value"
    }
   ],
   "linker_set_key" : "_ZTIN7android8internal7details13IsPointerLikeIN4aidl7android8hardware7sensors14AdditionalInfo21AdditionalInfoPayload11Int32ValuesEE6$valueE",
   "name" : "android::internal::details::IsPointerLike<aidl::android::hardware::sensors::AdditionalInfo::AdditionalInfoPayload::Int32Values>::(unnamed enum at frameworks/native/libs/binder/ndk/include_cpp/android/binder_to_string.h:118:5)",
   "referenced_type" : "_ZTIN7android8internal7details13IsPointerLikeIN4aidl7android8hardware7sensors14AdditionalInfo21AdditionalInfoPayload11Int32ValuesEE6$valueE",
   "self_type" : "_ZTIN7android8internal7details13IsPointerLikeIN4aidl7android8hardware7sensors14AdditionalInfo21AdditionalInfoPayload11Int32ValuesEE6$valueE",
   "size" : 4,
   "source_file" : "frameworks/native/libs/binder/ndk/include_cpp/android/binder_to_string.h",
   "underlying_type" : "_ZTIj"
  },
  {
   "alignment" : 4,
   "enum_fields" :
   [
    {
     "enum_field_value" : 0,
     "name" : "android::internal::details::IsPointerLike<aidl::android::hardware::sensors::AdditionalInfo::AdditionalInfoPayload>::value"
    }
   ],
   "linker_set_key" : "_ZTIN7android8internal7details13IsPointerLikeIN4aidl7android8hardware7sensors14AdditionalInfo21AdditionalInfoPayloadEE6$valueE",
   "name" : "android::internal::details::IsPointerLike<aidl::android::hardware::sensors::AdditionalInfo::AdditionalInfoPayload>::(unnamed enum at frameworks/native/libs/binder/ndk/include_cpp/android/binder_to_string.h:118:5)",
   "referenced_type" : "_ZTIN7android8internal7details13IsPointerLikeIN4aidl7android8hardware7sensors14AdditionalInfo21AdditionalInfoPayloadEE6$valueE",
   "self_type" : "_ZTIN7android8internal7details13IsPointerLikeIN4aidl7android8hardware7sensors14AdditionalInfo21AdditionalInfoPayloadEE6$valueE",
   "size" : 4,
   "source_file" : "frameworks/native/libs/binder/ndk/include_cpp/android/binder_to_string.h",
   "underlying_type" : "_ZTIj"
  },
  {
   "alignment" : 4,
   "enum_fields" :
   [
    {
     "enum_field_value" : 0,
     "name" : "android::internal::details::IsPointerLike<aidl::android::hardware::sensors::AdditionalInfo>::value"
    }
   ],
   "linker_set_key" : "_ZTIN7android8internal7details13IsPointerLikeIN4aidl7android8hardware7sensors14AdditionalInfoEE6$valueE",
   "name" : "android::internal::details::IsPointerLike<aidl::android::hardware::sensors::AdditionalInfo>::(unnamed enum at frameworks/native/libs/binder/ndk/include_cpp/android/binder_to_string.h:118:5)",
   "referenced_type" : "_ZTIN7android8internal7details13IsPointerLikeIN4aidl7android8hardware7sensors14AdditionalInfoEE6$valueE",
   "self_type" : "_ZTIN7android8internal7details13IsPointerLikeIN4aidl7android8hardware7sensors14AdditionalInfoEE6$valueE",
   "size" : 4,
   "source_file" : "frameworks/native/libs/binder/ndk/include_cpp/android/binder_to_string.h",
   "underlying_type" : "_ZTIj"
  },
  {
   "alignment" : 4,
   "enum_fields" :
   [
    {
     "enum_field_value" : 0,
     "name" : "android::internal::details::IsPointerLike<aidl::android::hardware::sensors::DynamicSensorInfo::Uuid>::value"
    }
   ],
   "linker_set_key" : "_ZTIN7android8internal7details13IsPointerLikeIN4aidl7android8hardware7sensors17DynamicSensorInfo4UuidEE6$valueE",
   "name" : "android::internal::details::IsPointerLike<aidl::android::hardware::sensors::DynamicSensorInfo::Uuid>::(unnamed enum at frameworks/native/libs/binder/ndk/include_cpp/android/binder_to_string.h:118:5)",
   "referenced_type" : "_ZTIN7android8internal7details13IsPointerLikeIN4aidl7android8hardware7sensors17DynamicSensorInfo4UuidEE6$valueE",
   "self_type" : "_ZTIN7android8internal7details13IsPointerLikeIN4aidl7android8hardware7sensors17DynamicSensorInfo4UuidEE6$valueE",
   "size" : 4,
   "source_file" : "frameworks/native/libs/binder/ndk/include_cpp/android/binder_to_string.h",
   "underlying_type" : "_ZTIj"
  },
  {
   "alignment" : 4,
   "enum_fields" :
   [
    {
     "enum_field_value" : 0,
     "name" : "android::internal::details::IsPointerLike<aidl::android::hardware::sensors::DynamicSensorInfo>::value"
    }
   ],
   "linker_set_key" : "_ZTIN7android8internal7details13IsPointerLikeIN4aidl7android8hardware7sensors17DynamicSensorInfoEE6$valueE",
   "name" : "android::internal::details::IsPointerLike<aidl::android::hardware::sensors::DynamicSensorInfo>::(unnamed enum at frameworks/native/libs/binder/ndk/include_cpp/android/binder_to_string.h:118:5)",
   "referenced_type" : "_ZTIN7android8internal7details13IsPointerLikeIN4aidl7android8hardware7sensors17DynamicSensorInfoEE6$valueE",
   "self_type" : "_ZTIN7android8internal7details13IsPointerLikeIN4aidl7android8hardware7sensors17DynamicSensorInfoEE6$valueE",
   "size" : 4,
   "source_file" : "frameworks/native/libs/binder/ndk/include_cpp/android/binder_to_string.h",
   "underlying_type" : "_ZTIj"
  },
  {
   "alignment" : 4,
   "enum_fields" :
   [
    {
     "enum_field_value" : 0,
     "name" : "android::internal::details::IsPointerLike<aidl::android::hardware::sensors::Event::EventPayload::HeadTracker>::value"
    }
   ],
   "linker_set_key" : "_ZTIN7android8internal7details13IsPointerLikeIN4aidl7android8hardware7sensors5Event12EventPayload11HeadTrackerEE6$valueE",
   "name" : "android::internal::details::IsPointerLike<aidl::android::hardware::sensors::Event::EventPayload::HeadTracker>::(unnamed enum at frameworks/native/libs/binder/ndk/include_cpp/android/binder_to_string.h:118:5)",
   "referenced_type" : "_ZTIN7android8internal7details13IsPointerLikeIN4aidl7android8hardware7sensors5Event12EventPayload11HeadTrackerEE6$valueE",
   "self_type" : "_ZTIN7android8internal7details13IsPointerLikeIN4aidl7android8hardware7sensors5Event12EventPayload11HeadTrackerEE6$valueE",
   "size" : 4,
   "source_file" : "frameworks/native/libs/binder/ndk/include_cpp/android/binder_to_string.h",
   "underlying_type" : "_ZTIj"
  },
  {
   "alignment" : 4,
   "enum_fields" :
   [
    {
     "enum_field_value" : 0,
     "name" : "android::internal::details::IsPointerLike<aidl::android::hardware::sensors::Event::EventPayload::LimitedAxesImu>::value"
    }
   ],
   "linker_set_key" : "_ZTIN7android8internal7details13IsPointerLikeIN4aidl7android8hardware7sensors5Event12EventPayload14LimitedAxesImuEE6$valueE",
   "name" : "android::internal::details::IsPointerLike<aidl::android::hardware::sensors::Event::EventPayload::LimitedAxesImu>::(unnamed enum at frameworks/native/libs/binder/ndk/include_cpp/android/binder_to_string.h:118:5)",
   "referenced_type" : "_ZTIN7android8internal7details13IsPointerLikeIN4aidl7android8hardware7sensors5Event12EventPayload14LimitedAxesImuEE6$valueE",
   "self_type" : "_ZTIN7android8internal7details13IsPointerLikeIN4aidl7android8hardware7sensors5Event12EventPayload14LimitedAxesImuEE6$valueE",
   "size" : 4,
   "source_file" : "frameworks/native/libs/binder/ndk/include_cpp/android/binder_to_string.h",
   "underlying_type" : "_ZTIj"
  },
  {
   "alignment" : 4,
   "enum_fields" :
   [
    {
     "enum_field_value" : 0,
     "name" : "android::internal::details::IsPointerLike<aidl::android::hardware::sensors::Event::EventPayload::LimitedAxesImuUncal>::value"
    }
   ],
   "linker_set_key" : "_ZTIN7android8internal7details13IsPointerLikeIN4aidl7android8hardware7sensors5Event12EventPayload19LimitedAxesImuUncalEE6$valueE",
   "name" : "android::internal::details::IsPointerLike<aidl::android::hardware::sensors::Event::EventPayload::LimitedAxesImuUncal>::(unnamed enum at frameworks/native/libs/binder/ndk/include_cpp/android/binder_to_string.h:118:5)",
   "referenced_type" : "_ZTIN7android8internal7details13IsPointerLikeIN4aidl7android8hardware7sensors5Event12EventPayload19LimitedAxesImuUncalEE6$valueE",
   "self_type" : "_ZTIN7android8internal7details13IsPointerLikeIN4aidl7android8hardware7sensors5Event12EventPayload19LimitedAxesImuUncalEE6$valueE",
   "size" : 4,
   "source_file" : "frameworks/native/libs/binder/ndk/include_cpp/android/binder_to_string.h",
   "underlying_type" : "_ZTIj"
  },
  {
   "alignment" : 4,
   "enum_fields" :
   [
    {
     "enum_field_value" : 0,
     "name" : "android::internal::details::IsPointerLike<aidl::android::hardware::sensors::Event::EventPayload::Data>::value"
    }
   ],
   "linker_set_key" : "_ZTIN7android8internal7details13IsPointerLikeIN4aidl7android8hardware7sensors5Event12EventPayload4DataEE6$valueE",
   "name" : "android::internal::details::IsPointerLike<aidl::android::hardware::sensors::Event::EventPayload::Data>::(unnamed enum at frameworks/native/libs/binder/ndk/include_cpp/android/binder_to_string.h:118:5)",
   "referenced_type" : "_ZTIN7android8internal7details13IsPointerLikeIN4aidl7android8hardware7sensors5Event12EventPayload4DataEE6$valueE",
   "self_type" : "_ZTIN7android8internal7details13IsPointerLikeIN4aidl7android8hardware7sensors5Event12EventPayload4DataEE6$valueE",
   "size" : 4,
   "source_file" : "frameworks/native/libs/binder/ndk/include_cpp/android/binder_to_string.h",
   "underlying_type" : "_ZTIj"
  },
  {
   "alignment" : 4,
   "enum_fields" :
   [
    {
     "enum_field_value" : 0,
     "name" : "android::internal::details::IsPointerLike<aidl::android::hardware::sensors::Event::EventPayload::Vec3>::value"
    }
   ],
   "linker_set_key" : "_ZTIN7android8internal7details13IsPointerLikeIN4aidl7android8hardware7sensors5Event12EventPayload4Vec3EE6$valueE",
   "name" : "android::internal::details::IsPointerLike<aidl::android::hardware::sensors::Event::EventPayload::Vec3>::(unnamed enum at frameworks/native/libs/binder/ndk/include_cpp/android/binder_to_string.h:118:5)",
   "referenced_type" : "_ZTIN7android8internal7details13IsPointerLikeIN4aidl7android8hardware7sensors5Event12EventPayload4Vec3EE6$valueE",
   "self_type" : "_ZTIN7android8internal7details13IsPointerLikeIN4aidl7android8hardware7sensors5Event12EventPayload4Vec3EE6$valueE",
   "size" : 4,
   "source_file" : "frameworks/native/libs/binder/ndk/include_cpp/android/binder_to_string.h",
   "underlying_type" : "_ZTIj"
  },
  {
   "alignment" : 4,
   "enum_fields" :
   [
    {
     "enum_field_value" : 0,
     "name" : "android::internal::details::IsPointerLike<aidl::android::hardware::sensors::Event::EventPayload::Vec4>::value"
    }
   ],
   "linker_set_key" : "_ZTIN7android8internal7details13IsPointerLikeIN4aidl7android8hardware7sensors5Event12EventPayload4Vec4EE6$valueE",
   "name" : "android::internal::details::IsPointerLike<aidl::android::hardware::sensors::Event::EventPayload::Vec4>::(unnamed enum at frameworks/native/libs/binder/ndk/include_cpp/android/binder_to_string.h:118:5)",
   "referenced_type" : "_ZTIN7android8internal7details13IsPointerLikeIN4aidl7android8hardware7sensors5Event12EventPayload4Vec4EE6$valueE",
   "self_type" : "_ZTIN7android8internal7details13IsPointerLikeIN4aidl7android8hardware7sensors5Event12EventPayload4Vec4EE6$valueE",
   "size" : 4,
   "source_file" : "frameworks/native/libs/binder/ndk/include_cpp/android/binder_to_string.h",
   "underlying_type" : "_ZTIj"
  },
  {
   "alignment" : 4,
   "enum_fields" :
   [
    {
     "enum_field_value" : 0,
     "name" : "android::internal::details::IsPointerLike<aidl::android::hardware::sensors::Event::EventPayload::Uncal>::value"
    }
   ],
   "linker_set_key" : "_ZTIN7android8internal7details13IsPointerLikeIN4aidl7android8hardware7sensors5Event12EventPayload5UncalEE6$valueE",
   "name" : "android::internal::details::IsPointerLike<aidl::android::hardware::sensors::Event::EventPayload::Uncal>::(unnamed enum at frameworks/native/libs/binder/ndk/include_cpp/android/binder_to_string.h:118:5)",
   "referenced_type" : "_ZTIN7android8internal7details13IsPointerLikeIN4aidl7android8hardware7sensors5Event12EventPayload5UncalEE6$valueE",
   "self_type" : "_ZTIN7android8internal7details13IsPointerLikeIN4aidl7android8hardware7sensors5Event12EventPayload5UncalEE6$valueE",
   "size" : 4,
   "source_file" : "frameworks/native/libs/binder/ndk/include_cpp/android/binder_to_string.h",
   "underlying_type" : "_ZTIj"
  },
  {
   "alignment" : 4,
   "enum_fields" :
   [
    {
     "enum_field_value" : 0,
     "name" : "android::internal::details::IsPointerLike<aidl::android::hardware::sensors::Event::EventPayload::Heading>::value"
    }
   ],
   "linker_set_key" : "_ZTIN7android8internal7details13IsPointerLikeIN4aidl7android8hardware7sensors5Event12EventPayload7HeadingEE6$valueE",
   "name" : "android::internal::details::IsPointerLike<aidl::android::hardware::sensors::Event::EventPayload::Heading>::(unnamed enum at frameworks/native/libs/binder/ndk/include_cpp/android/binder_to_string.h:118:5)",
   "referenced_type" : "_ZTIN7android8internal7details13IsPointerLikeIN4aidl7android8hardware7sensors5Event12EventPayload7HeadingEE6$valueE",
   "self_type" : "_ZTIN7android8internal7details13IsPointerLikeIN4aidl7android8hardware7sensors5Event12EventPayload7HeadingEE6$valueE",
   "size" : 4,
   "source_file" : "frameworks/native/libs/binder/ndk/include_cpp/android/binder_to_string.h",
   "underlying_type" : "_ZTIj"
  },
  {
   "alignment" : 4,
   "enum_fields" :
   [
    {
     "enum_field_value" : 0,
     "name" : "android::internal::details::IsPointerLike<aidl::android::hardware::sensors::Event::EventPayload::MetaData::MetaDataEventType>::value"
    }
   ],
   "linker_set_key" : "_ZTIN7android8internal7details13IsPointerLikeIN4aidl7android8hardware7sensors5Event12EventPayload8MetaData17MetaDataEventTypeEE6$valueE",
   "name" : "android::internal::details::IsPointerLike<aidl::android::hardware::sensors::Event::EventPayload::MetaData::MetaDataEventType>::(unnamed enum at frameworks/native/libs/binder/ndk/include_cpp/android/binder_to_string.h:118:5)",
   "referenced_type" : "_ZTIN7android8internal7details13IsPointerLikeIN4aidl7android8hardware7sensors5Event12EventPayload8MetaData17MetaDataEventTypeEE6$valueE",
   "self_type" : "_ZTIN7android8internal7details13IsPointerLikeIN4aidl7android8hardware7sensors5Event12EventPayload8MetaData17MetaDataEventTypeEE6$valueE",
   "size" : 4,
   "source_file" : "frameworks/native/libs/binder/ndk/include_cpp/android/binder_to_string.h",
   "underlying_type" : "_ZTIj"
  },
  {
   "alignment" : 4,
   "enum_fields" :
   [
    {
     "enum_field_value" : 0,
     "name" : "android::internal::details::IsPointerLike<aidl::android::hardware::sensors::Event::EventPayload::MetaData>::value"
    }
   ],
   "linker_set_key" : "_ZTIN7android8internal7details13IsPointerLikeIN4aidl7android8hardware7sensors5Event12EventPayload8MetaDataEE6$valueE",
   "name" : "android::internal::details::IsPointerLike<aidl::android::hardware::sensors::Event::EventPayload::MetaData>::(unnamed enum at frameworks/native/libs/binder/ndk/include_cpp/android/binder_to_string.h:118:5)",
   "referenced_type" : "_ZTIN7android8internal7details13IsPointerLikeIN4aidl7android8hardware7sensors5Event12EventPayload8MetaDataEE6$valueE",
   "self_type" : "_ZTIN7android8internal7details13IsPointerLikeIN4aidl7android8hardware7sensors5Event12EventPayload8MetaDataEE6$valueE",
   "size" : 4,
   "source_file" : "frameworks/native/libs/binder/ndk/include_cpp/android/binder_to_string.h",
   "underlying_type" : "_ZTIj"
  },
  {
   "alignment" : 4,
   "enum_fields" :
   [
    {
     "enum_field_value" : 0,
     "name" : "android::internal::details::IsPointerLike<aidl::android::hardware::sensors::Event::EventPayload::Pose6Dof>::value"
    }
   ],
   "linker_set_key" : "_ZTIN7android8internal7details13IsPointerLikeIN4aidl7android8hardware7sensors5Event12EventPayload8Pose6DofEE6$valueE",
   "name" : "android::internal::details::IsPointerLike<aidl::android::hardware::sensors::Event::EventPayload::Pose6Dof>::(unnamed enum at frameworks/native/libs/binder/ndk/include_cpp/android/binder_to_string.h:118:5)",
   "referenced_type" : "_ZTIN7android8internal7details13IsPointerLikeIN4aidl7android8hardware7sensors5Event12EventPayload8Pose6DofEE6$valueE",
   "self_type" : "_ZTIN7android8internal7details13IsPointerLikeIN4aidl7android8hardware7sensors5Event12EventPayload8Pose6DofEE6$valueE",
   "size" : 4,
   "source_file" : "frameworks/native/libs/binder/ndk/include_cpp/android/binder_to_string.h",
   "underlying_type" : "_ZTIj"
  },
  {
   "alignment" : 4,
   "enum_fields" :
   [
    {
     "enum_field_value" : 0,
     "name" : "android::internal::details::IsPointerLike<aidl::android::hardware::sensors::Event::EventPayload::HeartRate>::value"
    }
   ],
   "linker_set_key" : "_ZTIN7android8internal7details13IsPointerLikeIN4aidl7android8hardware7sensors5Event12EventPayload9HeartRateEE6$valueE",
   "name" : "android::internal::details::IsPointerLike<aidl::android::hardware::sensors::Event::EventPayload::HeartRate>::(unnamed enum at frameworks/native/libs/binder/ndk/include_cpp/android/binder_to_string.h:118:5)",
   "referenced_type" : "_ZTIN7android8internal7details13IsPointerLikeIN4aidl7android8hardware7sensors5Event12EventPayload9HeartRateEE6$valueE",
   "self_type" : "_ZTIN7android8internal7details13IsPointerLikeIN4aidl7android8hardware7sensors5Event12EventPayload9HeartRateEE6$valueE",
   "size" : 4,
   "source_file" : "frameworks/native/libs/binder/ndk/include_cpp/android/binder_to_string.h",
   "underlying_type" : "_ZTIj"
  },
  {
   "alignment" : 4,
   "enum_fields" :
   [
    {
     "enum_field_value" : 0,
     "name" : "android::internal::details::IsPointerLike<aidl::android::hardware::sensors::Event::EventPayload>::value"
    }
   ],
   "linker_set_key" : "_ZTIN7android8internal7details13IsPointerLikeIN4aidl7android8hardware7sensors5Event12EventPayloadEE6$valueE",
   "name" : "android::internal::details::IsPointerLike<aidl::android::hardware::sensors::Event::EventPayload>::(unnamed enum at frameworks/native/libs/binder/ndk/include_cpp/android/binder_to_string.h:118:5)",
   "referenced_type" : "_ZTIN7android8internal7details13IsPointerLikeIN4aidl7android8hardware7sensors5Event12EventPayloadEE6$valueE",
   "self_type" : "_ZTIN7android8internal7details13IsPointerLikeIN4aidl7android8hardware7sensors5Event12EventPayloadEE6$valueE",
   "size" : 4,
   "source_file" : "frameworks/native/libs/binder/ndk/include_cpp/android/binder_to_string.h",
   "underlying_type" : "_ZTIj"
  },
  {
   "alignment" : 4,
   "enum_fields" :
   [
    {
     "enum_field_value" : 0,
     "name" : "android::internal::details::IsPointerLike<aidl::android::hardware::sensors::ISensors::SharedMemInfo::SharedMemType>::value"
    }
   ],
   "linker_set_key" : "_ZTIN7android8internal7details13IsPointerLikeIN4aidl7android8hardware7sensors8ISensors13SharedMemInfo13SharedMemTypeEE6$valueE",
   "name" : "android::internal::details::IsPointerLike<aidl::android::hardware::sensors::ISensors::SharedMemInfo::SharedMemType>::(unnamed enum at frameworks/native/libs/binder/ndk/include_cpp/android/binder_to_string.h:118:5)",
   "referenced_type" : "_ZTIN7android8internal7details13IsPointerLikeIN4aidl7android8hardware7sensors8ISensors13SharedMemInfo13SharedMemTypeEE6$valueE",
   "self_type" : "_ZTIN7android8internal7details13IsPointerLikeIN4aidl7android8hardware7sensors8ISensors13SharedMemInfo13SharedMemTypeEE6$valueE",
   "size" : 4,
   "source_file" : "frameworks/native/libs/binder/ndk/include_cpp/android/binder_to_string.h",
   "underlying_type" : "_ZTIj"
  },
  {
   "alignment" : 4,
   "enum_fields" :
   [
    {
     "enum_field_value" : 0,
     "name" : "android::internal::details::IsPointerLike<aidl::android::hardware::sensors::ISensors::SharedMemInfo::SharedMemFormat>::value"
    }
   ],
   "linker_set_key" : "_ZTIN7android8internal7details13IsPointerLikeIN4aidl7android8hardware7sensors8ISensors13SharedMemInfo15SharedMemFormatEE6$valueE",
   "name" : "android::internal::details::IsPointerLike<aidl::android::hardware::sensors::ISensors::SharedMemInfo::SharedMemFormat>::(unnamed enum at frameworks/native/libs/binder/ndk/include_cpp/android/binder_to_string.h:118:5)",
   "referenced_type" : "_ZTIN7android8internal7details13IsPointerLikeIN4aidl7android8hardware7sensors8ISensors13SharedMemInfo15SharedMemFormatEE6$valueE",
   "self_type" : "_ZTIN7android8internal7details13IsPointerLikeIN4aidl7android8hardware7sensors8ISensors13SharedMemInfo15SharedMemFormatEE6$valueE",
   "size" : 4,
   "source_file" : "frameworks/native/libs/binder/ndk/include_cpp/android/binder_to_string.h",
   "underlying_type" : "_ZTIj"
  },
  {
   "alignment" : 4,
   "enum_fields" :
   [
    {
     "enum_field_value" : 0,
     "name" : "android::internal::details::IsPointerLike<std::array<float, 14>>::value"
    }
   ],
   "linker_set_key" : "_ZTIN7android8internal7details13IsPointerLikeINSt3__15arrayIfLj14EEEE6$valueE",
   "name" : "android::internal::details::IsPointerLike<std::array<float, 14>>::(unnamed enum at frameworks/native/libs/binder/ndk/include_cpp/android/binder_to_string.h:118:5)",
   "referenced_type" : "_ZTIN7android8internal7details13IsPointerLikeINSt3__15arrayIfLj14EEEE6$valueE",
   "self_type" : "_ZTIN7android8internal7details13IsPointerLikeINSt3__15arrayIfLj14EEEE6$valueE",
   "size" : 4,
   "source_file" : "frameworks/native/libs/binder/ndk/include_cpp/android/binder_to_string.h",
   "underlying_type" : "_ZTIj"
  },
  {
   "alignment" : 4,
   "enum_fields" :
   [
    {
     "enum_field_value" : 0,
     "name" : "android::internal::details::IsPointerLike<std::array<float, 15>>::value"
    }
   ],
   "linker_set_key" : "_ZTIN7android8internal7details13IsPointerLikeINSt3__15arrayIfLj15EEEE6$valueE",
   "name" : "android::internal::details::IsPointerLike<std::array<float, 15>>::(unnamed enum at frameworks/native/libs/binder/ndk/include_cpp/android/binder_to_string.h:118:5)",
   "referenced_type" : "_ZTIN7android8internal7details13IsPointerLikeINSt3__15arrayIfLj15EEEE6$valueE",
   "self_type" : "_ZTIN7android8internal7details13IsPointerLikeINSt3__15arrayIfLj15EEEE6$valueE",
   "size" : 4,
   "source_file" : "frameworks/native/libs/binder/ndk/include_cpp/android/binder_to_string.h",
   "underlying_type" : "_ZTIj"
  },
  {
   "alignment" : 4,
   "enum_fields" :
   [
    {
     "enum_field_value" : 0,
     "name" : "android::internal::details::IsPointerLike<std::array<float, 16>>::value"
    }
   ],
   "linker_set_key" : "_ZTIN7android8internal7details13IsPointerLikeINSt3__15arrayIfLj16EEEE6$valueE",
   "name" : "android::internal::details::IsPointerLike<std::array<float, 16>>::(unnamed enum at frameworks/native/libs/binder/ndk/include_cpp/android/binder_to_string.h:118:5)",
   "referenced_type" : "_ZTIN7android8internal7details13IsPointerLikeINSt3__15arrayIfLj16EEEE6$valueE",
   "self_type" : "_ZTIN7android8internal7details13IsPointerLikeINSt3__15arrayIfLj16EEEE6$valueE",
   "size" : 4,
   "source_file" : "frameworks/native/libs/binder/ndk/include_cpp/android/binder_to_string.h",
   "underlying_type" : "_ZTIj"
  },
  {
   "alignment" : 4,
   "enum_fields" :
   [
    {
     "enum_field_value" : 0,
     "name" : "android::internal::details::IsPointerLike<std::array<unsigned char, 16>>::value"
    }
   ],
   "linker_set_key" : "_ZTIN7android8internal7details13IsPointerLikeINSt3__15arrayIhLj16EEEE6$valueE",
   "name" : "android::internal::details::IsPointerLike<std::array<unsigned char, 16>>::(unnamed enum at frameworks/native/libs/binder/ndk/include_cpp/android/binder_to_string.h:118:5)",
   "referenced_type" : "_ZTIN7android8internal7details13IsPointerLikeINSt3__15arrayIhLj16EEEE6$valueE",
   "self_type" : "_ZTIN7android8internal7details13IsPointerLikeINSt3__15arrayIhLj16EEEE6$valueE",
   "size" : 4,
   "source_file" : "frameworks/native/libs/binder/ndk/include_cpp/android/binder_to_string.h",
   "underlying_type" : "_ZTIj"
  },
  {
   "alignment" : 4,
   "enum_fields" :
   [
    {
     "enum_field_value" : 0,
     "name" : "android::internal::details::IsPointerLike<std::array<int, 14>>::value"
    }
   ],
   "linker_set_key" : "_ZTIN7android8internal7details13IsPointerLikeINSt3__15arrayIiLj14EEEE6$valueE",
   "name" : "android::internal::details::IsPointerLike<std::array<int, 14>>::(unnamed enum at frameworks/native/libs/binder/ndk/include_cpp/android/binder_to_string.h:118:5)",
   "referenced_type" : "_ZTIN7android8internal7details13IsPointerLikeINSt3__15arrayIiLj14EEEE6$valueE",
   "self_type" : "_ZTIN7android8internal7details13IsPointerLikeINSt3__15arrayIiLj14EEEE6$valueE",
   "size" : 4,
   "source_file" : "frameworks/native/libs/binder/ndk/include_cpp/android/binder_to_string.h",
   "underlying_type" : "_ZTIj"
  },
  {
   "alignment" : 4,
   "enum_fields" :
   [
    {
     "enum_field_value" : 0,
     "name" : "android::internal::details::IsPointerLike<std::vector<ndk::ScopedFileDescriptor>>::value"
    }
   ],
   "linker_set_key" : "_ZTIN7android8internal7details13IsPointerLikeINSt3__16vectorIN3ndk20ScopedFileDescriptorENS3_9allocatorIS6_EEEEE6$valueE",
   "name" : "android::internal::details::IsPointerLike<std::vector<ndk::ScopedFileDescriptor, std::allocator<ndk::ScopedFileDescriptor>>>::(unnamed enum at frameworks/native/libs/binder/ndk/include_cpp/android/binder_to_string.h:118:5)",
   "referenced_type" : "_ZTIN7android8internal7details13IsPointerLikeINSt3__16vectorIN3ndk20ScopedFileDescriptorENS3_9allocatorIS6_EEEEE6$valueE",
   "self_type" : "_ZTIN7android8internal7details13IsPointerLikeINSt3__16vectorIN3ndk20ScopedFileDescriptorENS3_9allocatorIS6_EEEEE6$valueE",
   "size" : 4,
   "source_file" : "frameworks/native/libs/binder/ndk/include_cpp/android/binder_to_string.h",
   "underlying_type" : "_ZTIj"
  },
  {
   "alignment" : 4,
   "enum_fields" :
   [
    {
     "enum_field_value" : 0,
     "name" : "android::internal::details::IsPointerLike<std::vector<int>>::value"
    }
   ],
   "linker_set_key" : "_ZTIN7android8internal7details13IsPointerLikeINSt3__16vectorIiNS3_9allocatorIiEEEEE6$valueE",
   "name" : "android::internal::details::IsPointerLike<std::vector<int, std::allocator<int>>>::(unnamed enum at frameworks/native/libs/binder/ndk/include_cpp/android/binder_to_string.h:118:5)",
   "referenced_type" : "_ZTIN7android8internal7details13IsPointerLikeINSt3__16vectorIiNS3_9allocatorIiEEEEE6$valueE",
   "self_type" : "_ZTIN7android8internal7details13IsPointerLikeINSt3__16vectorIiNS3_9allocatorIiEEEEE6$valueE",
   "size" : 4,
   "source_file" : "frameworks/native/libs/binder/ndk/include_cpp/android/binder_to_string.h",
   "underlying_type" : "_ZTIj"
  },
  {
   "alignment" : 4,
   "enum_fields" :
   [
    {
     "enum_field_value" : 0,
     "name" : "android::internal::details::ToEmptyString<ndk::ScopedFileDescriptor>::value"
    }
   ],
   "linker_set_key" : "_ZTIN7android8internal7details13ToEmptyStringIN3ndk20ScopedFileDescriptorEE6$valueE",
   "name" : "android::internal::details::ToEmptyString<ndk::ScopedFileDescriptor>::(unnamed enum at frameworks/native/libs/binder/ndk/include_cpp/android/binder_to_string.h:153:5)",
   "referenced_type" : "_ZTIN7android8internal7details13ToEmptyStringIN3ndk20ScopedFileDescriptorEE6$valueE",
   "self_type" : "_ZTIN7android8internal7details13ToEmptyStringIN3ndk20ScopedFileDescriptorEE6$valueE",
   "size" : 4,
   "source_file" : "frameworks/native/libs/binder/ndk/include_cpp/android/binder_to_string.h",
   "underlying_type" : "_ZTIj"
  },
  {
   "alignment" : 4,
   "enum_fields" :
   [
    {
     "enum_field_value" : 0,
     "name" : "android::internal::details::ToEmptyString<aidl::android::hardware::common::NativeHandle>::value"
    }
   ],
   "linker_set_key" : "_ZTIN7android8internal7details13ToEmptyStringIN4aidl7android8hardware6common12NativeHandleEE6$valueE",
   "name" : "android::internal::details::ToEmptyString<aidl::android::hardware::common::NativeHandle>::(unnamed enum at frameworks/native/libs/binder/ndk/include_cpp/android/binder_to_string.h:153:5)",
   "referenced_type" : "_ZTIN7android8internal7details13ToEmptyStringIN4aidl7android8hardware6common12NativeHandleEE6$valueE",
   "self_type" : "_ZTIN7android8internal7details13ToEmptyStringIN4aidl7android8hardware6common12NativeHandleEE6$valueE",
   "size" : 4,
   "source_file" : "frameworks/native/libs/binder/ndk/include_cpp/android/binder_to_string.h",
   "underlying_type" : "_ZTIj"
  },
  {
   "alignment" : 4,
   "enum_fields" :
   [
    {
     "enum_field_value" : 0,
     "name" : "android::internal::details::ToEmptyString<aidl::android::hardware::sensors::SensorType>::value"
    }
   ],
   "linker_set_key" : "_ZTIN7android8internal7details13ToEmptyStringIN4aidl7android8hardware7sensors10SensorTypeEE6$valueE",
   "name" : "android::internal::details::ToEmptyString<aidl::android::hardware::sensors::SensorType>::(unnamed enum at frameworks/native/libs/binder/ndk/include_cpp/android/binder_to_string.h:153:5)",
   "referenced_type" : "_ZTIN7android8internal7details13ToEmptyStringIN4aidl7android8hardware7sensors10SensorTypeEE6$valueE",
   "self_type" : "_ZTIN7android8internal7details13ToEmptyStringIN4aidl7android8hardware7sensors10SensorTypeEE6$valueE",
   "size" : 4,
   "source_file" : "frameworks/native/libs/binder/ndk/include_cpp/android/binder_to_string.h",
   "underlying_type" : "_ZTIj"
  },
  {
   "alignment" : 4,
   "enum_fields" :
   [
    {
     "enum_field_value" : 0,
     "name" : "android::internal::details::ToEmptyString<aidl::android::hardware::sensors::SensorStatus>::value"
    }
   ],
   "linker_set_key" : "_ZTIN7android8internal7details13ToEmptyStringIN4aidl7android8hardware7sensors12SensorStatusEE6$valueE",
   "name" : "android::internal::details::ToEmptyString<aidl::android::hardware::sensors::SensorStatus>::(unnamed enum at frameworks/native/libs/binder/ndk/include_cpp/android/binder_to_string.h:153:5)",
   "referenced_type" : "_ZTIN7android8internal7details13ToEmptyStringIN4aidl7android8hardware7sensors12SensorStatusEE6$valueE",
   "self_type" : "_ZTIN7android8internal7details13ToEmptyStringIN4aidl7android8hardware7sensors12SensorStatusEE6$valueE",
   "size" : 4,
   "source_file" : "frameworks/native/libs/binder/ndk/include_cpp/android/binder_to_string.h",
   "underlying_type" : "_ZTIj"
  },
  {
   "alignment" : 4,
   "enum_fields" :
   [
    {
     "enum_field_value" : 0,
     "name" : "android::internal::details::ToEmptyString<aidl::android::hardware::sensors::AdditionalInfo::AdditionalInfoType>::value"
    }
   ],
   "linker_set_key" : "_ZTIN7android8internal7details13ToEmptyStringIN4aidl7android8hardware7sensors14AdditionalInfo18AdditionalInfoTypeEE6$valueE",
   "name" : "android::internal::details::ToEmptyString<aidl::android::hardware::sensors::AdditionalInfo::AdditionalInfoType>::(unnamed enum at frameworks/native/libs/binder/ndk/include_cpp/android/binder_to_string.h:153:5)",
   "referenced_type" : "_ZTIN7android8internal7details13ToEmptyStringIN4aidl7android8hardware7sensors14AdditionalInfo18AdditionalInfoTypeEE6$valueE",
   "self_type" : "_ZTIN7android8internal7details13ToEmptyStringIN4aidl7android8hardware7sensors14AdditionalInfo18AdditionalInfoTypeEE6$valueE",
   "size" : 4,
   "source_file" : "frameworks/native/libs/binder/ndk/include_cpp/android/binder_to_string.h",
   "underlying_type" : "_ZTIj"
  },
  {
   "alignment" : 4,
   "enum_fields" :
   [
    {
     "enum_field_value" : 0,
     "name" : "android::internal::details::ToEmptyString<aidl::android::hardware::sensors::AdditionalInfo::AdditionalInfoPayload::FloatValues>::value"
    }
   ],
   "linker_set_key" : "_ZTIN7android8internal7details13ToEmptyStringIN4aidl7android8hardware7sensors14AdditionalInfo21AdditionalInfoPayload11FloatValuesEE6$valueE",
   "name" : "android::internal::details::ToEmptyString<aidl::android::hardware::sensors::AdditionalInfo::AdditionalInfoPayload::FloatValues>::(unnamed enum at frameworks/native/libs/binder/ndk/include_cpp/android/binder_to_string.h:153:5)",
   "referenced_type" : "_ZTIN7android8internal7details13ToEmptyStringIN4aidl7android8hardware7sensors14AdditionalInfo21AdditionalInfoPayload11FloatValuesEE6$valueE",
   "self_type" : "_ZTIN7android8internal7details13ToEmptyStringIN4aidl7android8hardware7sensors14AdditionalInfo21AdditionalInfoPayload11FloatValuesEE6$valueE",
   "size" : 4,
   "source_file" : "frameworks/native/libs/binder/ndk/include_cpp/android/binder_to_string.h",
   "underlying_type" : "_ZTIj"
  },
  {
   "alignment" : 4,
   "enum_fields" :
   [
    {
     "enum_field_value" : 0,
     "name" : "android::internal::details::ToEmptyString<aidl::android::hardware::sensors::AdditionalInfo::AdditionalInfoPayload::Int32Values>::value"
    }
   ],
   "linker_set_key" : "_ZTIN7android8internal7details13ToEmptyStringIN4aidl7android8hardware7sensors14AdditionalInfo21AdditionalInfoPayload11Int32ValuesEE6$valueE",
   "name" : "android::internal::details::ToEmptyString<aidl::android::hardware::sensors::AdditionalInfo::AdditionalInfoPayload::Int32Values>::(unnamed enum at frameworks/native/libs/binder/ndk/include_cpp/android/binder_to_string.h:153:5)",
   "referenced_type" : "_ZTIN7android8internal7details13ToEmptyStringIN4aidl7android8hardware7sensors14AdditionalInfo21AdditionalInfoPayload11Int32ValuesEE6$valueE",
   "self_type" : "_ZTIN7android8internal7details13ToEmptyStringIN4aidl7android8hardware7sensors14AdditionalInfo21AdditionalInfoPayload11Int32ValuesEE6$valueE",
   "size" : 4,
   "source_file" : "frameworks/native/libs/binder/ndk/include_cpp/android/binder_to_string.h",
   "underlying_type" : "_ZTIj"
  },
  {
   "alignment" : 4,
   "enum_fields" :
   [
    {
     "enum_field_value" : 0,
     "name" : "android::internal::details::ToEmptyString<aidl::android::hardware::sensors::AdditionalInfo::AdditionalInfoPayload>::value"
    }
   ],
   "linker_set_key" : "_ZTIN7android8internal7details13ToEmptyStringIN4aidl7android8hardware7sensors14AdditionalInfo21AdditionalInfoPayloadEE6$valueE",
   "name" : "android::internal::details::ToEmptyString<aidl::android::hardware::sensors::AdditionalInfo::AdditionalInfoPayload>::(unnamed enum at frameworks/native/libs/binder/ndk/include_cpp/android/binder_to_string.h:153:5)",
   "referenced_type" : "_ZTIN7android8internal7details13ToEmptyStringIN4aidl7android8hardware7sensors14AdditionalInfo21AdditionalInfoPayloadEE6$valueE",
   "self_type" : "_ZTIN7android8internal7details13ToEmptyStringIN4aidl7android8hardware7sensors14AdditionalInfo21AdditionalInfoPayloadEE6$valueE",
   "size" : 4,
   "source_file" : "frameworks/native/libs/binder/ndk/include_cpp/android/binder_to_string.h",
   "underlying_type" : "_ZTIj"
  },
  {
   "alignment" : 4,
   "enum_fields" :
   [
    {
     "enum_field_value" : 0,
     "name" : "android::internal::details::ToEmptyString<aidl::android::hardware::sensors::AdditionalInfo>::value"
    }
   ],
   "linker_set_key" : "_ZTIN7android8internal7details13ToEmptyStringIN4aidl7android8hardware7sensors14AdditionalInfoEE6$valueE",
   "name" : "android::internal::details::ToEmptyString<aidl::android::hardware::sensors::AdditionalInfo>::(unnamed enum at frameworks/native/libs/binder/ndk/include_cpp/android/binder_to_string.h:153:5)",
   "referenced_type" : "_ZTIN7android8internal7details13ToEmptyStringIN4aidl7android8hardware7sensors14AdditionalInfoEE6$valueE",
   "self_type" : "_ZTIN7android8internal7details13ToEmptyStringIN4aidl7android8hardware7sensors14AdditionalInfoEE6$valueE",
   "size" : 4,
   "source_file" : "frameworks/native/libs/binder/ndk/include_cpp/android/binder_to_string.h",
   "underlying_type" : "_ZTIj"
  },
  {
   "alignment" : 4,
   "enum_fields" :
   [
    {
     "enum_field_value" : 0,
     "name" : "android::internal::details::ToEmptyString<aidl::android::hardware::sensors::DynamicSensorInfo::Uuid>::value"
    }
   ],
   "linker_set_key" : "_ZTIN7android8internal7details13ToEmptyStringIN4aidl7android8hardware7sensors17DynamicSensorInfo4UuidEE6$valueE",
   "name" : "android::internal::details::ToEmptyString<aidl::android::hardware::sensors::DynamicSensorInfo::Uuid>::(unnamed enum at frameworks/native/libs/binder/ndk/include_cpp/android/binder_to_string.h:153:5)",
   "referenced_type" : "_ZTIN7android8internal7details13ToEmptyStringIN4aidl7android8hardware7sensors17DynamicSensorInfo4UuidEE6$valueE",
   "self_type" : "_ZTIN7android8internal7details13ToEmptyStringIN4aidl7android8hardware7sensors17DynamicSensorInfo4UuidEE6$valueE",
   "size" : 4,
   "source_file" : "frameworks/native/libs/binder/ndk/include_cpp/android/binder_to_string.h",
   "underlying_type" : "_ZTIj"
  },
  {
   "alignment" : 4,
   "enum_fields" :
   [
    {
     "enum_field_value" : 0,
     "name" : "android::internal::details::ToEmptyString<aidl::android::hardware::sensors::DynamicSensorInfo>::value"
    }
   ],
   "linker_set_key" : "_ZTIN7android8internal7details13ToEmptyStringIN4aidl7android8hardware7sensors17DynamicSensorInfoEE6$valueE",
   "name" : "android::internal::details::ToEmptyString<aidl::android::hardware::sensors::DynamicSensorInfo>::(unnamed enum at frameworks/native/libs/binder/ndk/include_cpp/android/binder_to_string.h:153:5)",
   "referenced_type" : "_ZTIN7android8internal7details13ToEmptyStringIN4aidl7android8hardware7sensors17DynamicSensorInfoEE6$valueE",
   "self_type" : "_ZTIN7android8internal7details13ToEmptyStringIN4aidl7android8hardware7sensors17DynamicSensorInfoEE6$valueE",
   "size" : 4,
   "source_file" : "frameworks/native/libs/binder/ndk/include_cpp/android/binder_to_string.h",
   "underlying_type" : "_ZTIj"
  },
  {
   "alignment" : 4,
   "enum_fields" :
   [
    {
     "enum_field_value" : 0,
     "name" : "android::internal::details::ToEmptyString<aidl::android::hardware::sensors::Event::EventPayload::HeadTracker>::value"
    }
   ],
   "linker_set_key" : "_ZTIN7android8internal7details13ToEmptyStringIN4aidl7android8hardware7sensors5Event12EventPayload11HeadTrackerEE6$valueE",
   "name" : "android::internal::details::ToEmptyString<aidl::android::hardware::sensors::Event::EventPayload::HeadTracker>::(unnamed enum at frameworks/native/libs/binder/ndk/include_cpp/android/binder_to_string.h:153:5)",
   "referenced_type" : "_ZTIN7android8internal7details13ToEmptyStringIN4aidl7android8hardware7sensors5Event12EventPayload11HeadTrackerEE6$valueE",
   "self_type" : "_ZTIN7android8internal7details13ToEmptyStringIN4aidl7android8hardware7sensors5Event12EventPayload11HeadTrackerEE6$valueE",
   "size" : 4,
   "source_file" : "frameworks/native/libs/binder/ndk/include_cpp/android/binder_to_string.h",
   "underlying_type" : "_ZTIj"
  },
  {
   "alignment" : 4,
   "enum_fields" :
   [
    {
     "enum_field_value" : 0,
     "name" : "android::internal::details::ToEmptyString<aidl::android::hardware::sensors::Event::EventPayload::LimitedAxesImu>::value"
    }
   ],
   "linker_set_key" : "_ZTIN7android8internal7details13ToEmptyStringIN4aidl7android8hardware7sensors5Event12EventPayload14LimitedAxesImuEE6$valueE",
   "name" : "android::internal::details::ToEmptyString<aidl::android::hardware::sensors::Event::EventPayload::LimitedAxesImu>::(unnamed enum at frameworks/native/libs/binder/ndk/include_cpp/android/binder_to_string.h:153:5)",
   "referenced_type" : "_ZTIN7android8internal7details13ToEmptyStringIN4aidl7android8hardware7sensors5Event12EventPayload14LimitedAxesImuEE6$valueE",
   "self_type" : "_ZTIN7android8internal7details13ToEmptyStringIN4aidl7android8hardware7sensors5Event12EventPayload14LimitedAxesImuEE6$valueE",
   "size" : 4,
   "source_file" : "frameworks/native/libs/binder/ndk/include_cpp/android/binder_to_string.h",
   "underlying_type" : "_ZTIj"
  },
  {
   "alignment" : 4,
   "enum_fields" :
   [
    {
     "enum_field_value" : 0,
     "name" : "android::internal::details::ToEmptyString<aidl::android::hardware::sensors::Event::EventPayload::LimitedAxesImuUncal>::value"
    }
   ],
   "linker_set_key" : "_ZTIN7android8internal7details13ToEmptyStringIN4aidl7android8hardware7sensors5Event12EventPayload19LimitedAxesImuUncalEE6$valueE",
   "name" : "android::internal::details::ToEmptyString<aidl::android::hardware::sensors::Event::EventPayload::LimitedAxesImuUncal>::(unnamed enum at frameworks/native/libs/binder/ndk/include_cpp/android/binder_to_string.h:153:5)",
   "referenced_type" : "_ZTIN7android8internal7details13ToEmptyStringIN4aidl7android8hardware7sensors5Event12EventPayload19LimitedAxesImuUncalEE6$valueE",
   "self_type" : "_ZTIN7android8internal7details13ToEmptyStringIN4aidl7android8hardware7sensors5Event12EventPayload19LimitedAxesImuUncalEE6$valueE",
   "size" : 4,
   "source_file" : "frameworks/native/libs/binder/ndk/include_cpp/android/binder_to_string.h",
   "underlying_type" : "_ZTIj"
  },
  {
   "alignment" : 4,
   "enum_fields" :
   [
    {
     "enum_field_value" : 0,
     "name" : "android::internal::details::ToEmptyString<aidl::android::hardware::sensors::Event::EventPayload::Data>::value"
    }
   ],
   "linker_set_key" : "_ZTIN7android8internal7details13ToEmptyStringIN4aidl7android8hardware7sensors5Event12EventPayload4DataEE6$valueE",
   "name" : "android::internal::details::ToEmptyString<aidl::android::hardware::sensors::Event::EventPayload::Data>::(unnamed enum at frameworks/native/libs/binder/ndk/include_cpp/android/binder_to_string.h:153:5)",
   "referenced_type" : "_ZTIN7android8internal7details13ToEmptyStringIN4aidl7android8hardware7sensors5Event12EventPayload4DataEE6$valueE",
   "self_type" : "_ZTIN7android8internal7details13ToEmptyStringIN4aidl7android8hardware7sensors5Event12EventPayload4DataEE6$valueE",
   "size" : 4,
   "source_file" : "frameworks/native/libs/binder/ndk/include_cpp/android/binder_to_string.h",
   "underlying_type" : "_ZTIj"
  },
  {
   "alignment" : 4,
   "enum_fields" :
   [
    {
     "enum_field_value" : 0,
     "name" : "android::internal::details::ToEmptyString<aidl::android::hardware::sensors::Event::EventPayload::Vec3>::value"
    }
   ],
   "linker_set_key" : "_ZTIN7android8internal7details13ToEmptyStringIN4aidl7android8hardware7sensors5Event12EventPayload4Vec3EE6$valueE",
   "name" : "android::internal::details::ToEmptyString<aidl::android::hardware::sensors::Event::EventPayload::Vec3>::(unnamed enum at frameworks/native/libs/binder/ndk/include_cpp/android/binder_to_string.h:153:5)",
   "referenced_type" : "_ZTIN7android8internal7details13ToEmptyStringIN4aidl7android8hardware7sensors5Event12EventPayload4Vec3EE6$valueE",
   "self_type" : "_ZTIN7android8internal7details13ToEmptyStringIN4aidl7android8hardware7sensors5Event12EventPayload4Vec3EE6$valueE",
   "size" : 4,
   "source_file" : "frameworks/native/libs/binder/ndk/include_cpp/android/binder_to_string.h",
   "underlying_type" : "_ZTIj"
  },
  {
   "alignment" : 4,
   "enum_fields" :
   [
    {
     "enum_field_value" : 0,
     "name" : "android::internal::details::ToEmptyString<aidl::android::hardware::sensors::Event::EventPayload::Vec4>::value"
    }
   ],
   "linker_set_key" : "_ZTIN7android8internal7details13ToEmptyStringIN4aidl7android8hardware7sensors5Event12EventPayload4Vec4EE6$valueE",
   "name" : "android::internal::details::ToEmptyString<aidl::android::hardware::sensors::Event::EventPayload::Vec4>::(unnamed enum at frameworks/native/libs/binder/ndk/include_cpp/android/binder_to_string.h:153:5)",
   "referenced_type" : "_ZTIN7android8internal7details13ToEmptyStringIN4aidl7android8hardware7sensors5Event12EventPayload4Vec4EE6$valueE",
   "self_type" : "_ZTIN7android8internal7details13ToEmptyStringIN4aidl7android8hardware7sensors5Event12EventPayload4Vec4EE6$valueE",
   "size" : 4,
   "source_file" : "frameworks/native/libs/binder/ndk/include_cpp/android/binder_to_string.h",
   "underlying_type" : "_ZTIj"
  },
  {
   "alignment" : 4,
   "enum_fields" :
   [
    {
     "enum_field_value" : 0,
     "name" : "android::internal::details::ToEmptyString<aidl::android::hardware::sensors::Event::EventPayload::Uncal>::value"
    }
   ],
   "linker_set_key" : "_ZTIN7android8internal7details13ToEmptyStringIN4aidl7android8hardware7sensors5Event12EventPayload5UncalEE6$valueE",
   "name" : "android::internal::details::ToEmptyString<aidl::android::hardware::sensors::Event::EventPayload::Uncal>::(unnamed enum at frameworks/native/libs/binder/ndk/include_cpp/android/binder_to_string.h:153:5)",
   "referenced_type" : "_ZTIN7android8internal7details13ToEmptyStringIN4aidl7android8hardware7sensors5Event12EventPayload5UncalEE6$valueE",
   "self_type" : "_ZTIN7android8internal7details13ToEmptyStringIN4aidl7android8hardware7sensors5Event12EventPayload5UncalEE6$valueE",
   "size" : 4,
   "source_file" : "frameworks/native/libs/binder/ndk/include_cpp/android/binder_to_string.h",
   "underlying_type" : "_ZTIj"
  },
  {
   "alignment" : 4,
   "enum_fields" :
   [
    {
     "enum_field_value" : 0,
     "name" : "android::internal::details::ToEmptyString<aidl::android::hardware::sensors::Event::EventPayload::Heading>::value"
    }
   ],
   "linker_set_key" : "_ZTIN7android8internal7details13ToEmptyStringIN4aidl7android8hardware7sensors5Event12EventPayload7HeadingEE6$valueE",
   "name" : "android::internal::details::ToEmptyString<aidl::android::hardware::sensors::Event::EventPayload::Heading>::(unnamed enum at frameworks/native/libs/binder/ndk/include_cpp/android/binder_to_string.h:153:5)",
   "referenced_type" : "_ZTIN7android8internal7details13ToEmptyStringIN4aidl7android8hardware7sensors5Event12EventPayload7HeadingEE6$valueE",
   "self_type" : "_ZTIN7android8internal7details13ToEmptyStringIN4aidl7android8hardware7sensors5Event12EventPayload7HeadingEE6$valueE",
   "size" : 4,
   "source_file" : "frameworks/native/libs/binder/ndk/include_cpp/android/binder_to_string.h",
   "underlying_type" : "_ZTIj"
  },
  {
   "alignment" : 4,
   "enum_fields" :
   [
    {
     "enum_field_value" : 0,
     "name" : "android::internal::details::ToEmptyString<aidl::android::hardware::sensors::Event::EventPayload::MetaData::MetaDataEventType>::value"
    }
   ],
   "linker_set_key" : "_ZTIN7android8internal7details13ToEmptyStringIN4aidl7android8hardware7sensors5Event12EventPayload8MetaData17MetaDataEventTypeEE6$valueE",
   "name" : "android::internal::details::ToEmptyString<aidl::android::hardware::sensors::Event::EventPayload::MetaData::MetaDataEventType>::(unnamed enum at frameworks/native/libs/binder/ndk/include_cpp/android/binder_to_string.h:153:5)",
   "referenced_type" : "_ZTIN7android8internal7details13ToEmptyStringIN4aidl7android8hardware7sensors5Event12EventPayload8MetaData17MetaDataEventTypeEE6$valueE",
   "self_type" : "_ZTIN7android8internal7details13ToEmptyStringIN4aidl7android8hardware7sensors5Event12EventPayload8MetaData17MetaDataEventTypeEE6$valueE",
   "size" : 4,
   "source_file" : "frameworks/native/libs/binder/ndk/include_cpp/android/binder_to_string.h",
   "underlying_type" : "_ZTIj"
  },
  {
   "alignment" : 4,
   "enum_fields" :
   [
    {
     "enum_field_value" : 0,
     "name" : "android::internal::details::ToEmptyString<aidl::android::hardware::sensors::Event::EventPayload::MetaData>::value"
    }
   ],
   "linker_set_key" : "_ZTIN7android8internal7details13ToEmptyStringIN4aidl7android8hardware7sensors5Event12EventPayload8MetaDataEE6$valueE",
   "name" : "android::internal::details::ToEmptyString<aidl::android::hardware::sensors::Event::EventPayload::MetaData>::(unnamed enum at frameworks/native/libs/binder/ndk/include_cpp/android/binder_to_string.h:153:5)",
   "referenced_type" : "_ZTIN7android8internal7details13ToEmptyStringIN4aidl7android8hardware7sensors5Event12EventPayload8MetaDataEE6$valueE",
   "self_type" : "_ZTIN7android8internal7details13ToEmptyStringIN4aidl7android8hardware7sensors5Event12EventPayload8MetaDataEE6$valueE",
   "size" : 4,
   "source_file" : "frameworks/native/libs/binder/ndk/include_cpp/android/binder_to_string.h",
   "underlying_type" : "_ZTIj"
  },
  {
   "alignment" : 4,
   "enum_fields" :
   [
    {
     "enum_field_value" : 0,
     "name" : "android::internal::details::ToEmptyString<aidl::android::hardware::sensors::Event::EventPayload::Pose6Dof>::value"
    }
   ],
   "linker_set_key" : "_ZTIN7android8internal7details13ToEmptyStringIN4aidl7android8hardware7sensors5Event12EventPayload8Pose6DofEE6$valueE",
   "name" : "android::internal::details::ToEmptyString<aidl::android::hardware::sensors::Event::EventPayload::Pose6Dof>::(unnamed enum at frameworks/native/libs/binder/ndk/include_cpp/android/binder_to_string.h:153:5)",
   "referenced_type" : "_ZTIN7android8internal7details13ToEmptyStringIN4aidl7android8hardware7sensors5Event12EventPayload8Pose6DofEE6$valueE",
   "self_type" : "_ZTIN7android8internal7details13ToEmptyStringIN4aidl7android8hardware7sensors5Event12EventPayload8Pose6DofEE6$valueE",
   "size" : 4,
   "source_file" : "frameworks/native/libs/binder/ndk/include_cpp/android/binder_to_string.h",
   "underlying_type" : "_ZTIj"
  },
  {
   "alignment" : 4,
   "enum_fields" :
   [
    {
     "enum_field_value" : 0,
     "name" : "android::internal::details::ToEmptyString<aidl::android::hardware::sensors::Event::EventPayload::HeartRate>::value"
    }
   ],
   "linker_set_key" : "_ZTIN7android8internal7details13ToEmptyStringIN4aidl7android8hardware7sensors5Event12EventPayload9HeartRateEE6$valueE",
   "name" : "android::internal::details::ToEmptyString<aidl::android::hardware::sensors::Event::EventPayload::HeartRate>::(unnamed enum at frameworks/native/libs/binder/ndk/include_cpp/android/binder_to_string.h:153:5)",
   "referenced_type" : "_ZTIN7android8internal7details13ToEmptyStringIN4aidl7android8hardware7sensors5Event12EventPayload9HeartRateEE6$valueE",
   "self_type" : "_ZTIN7android8internal7details13ToEmptyStringIN4aidl7android8hardware7sensors5Event12EventPayload9HeartRateEE6$valueE",
   "size" : 4,
   "source_file" : "frameworks/native/libs/binder/ndk/include_cpp/android/binder_to_string.h",
   "underlying_type" : "_ZTIj"
  },
  {
   "alignment" : 4,
   "enum_fields" :
   [
    {
     "enum_field_value" : 0,
     "name" : "android::internal::details::ToEmptyString<aidl::android::hardware::sensors::Event::EventPayload>::value"
    }
   ],
   "linker_set_key" : "_ZTIN7android8internal7details13ToEmptyStringIN4aidl7android8hardware7sensors5Event12EventPayloadEE6$valueE",
   "name" : "android::internal::details::ToEmptyString<aidl::android::hardware::sensors::Event::EventPayload>::(unnamed enum at frameworks/native/libs/binder/ndk/include_cpp/android/binder_to_string.h:153:5)",
   "referenced_type" : "_ZTIN7android8internal7details13ToEmptyStringIN4aidl7android8hardware7sensors5Event12EventPayloadEE6$valueE",
   "self_type" : "_ZTIN7android8internal7details13ToEmptyStringIN4aidl7android8hardware7sensors5Event12EventPayloadEE6$valueE",
   "size" : 4,
   "source_file" : "frameworks/native/libs/binder/ndk/include_cpp/android/binder_to_string.h",
   "underlying_type" : "_ZTIj"
  },
  {
   "alignment" : 4,
   "enum_fields" :
   [
    {
     "enum_field_value" : 0,
     "name" : "android::internal::details::ToEmptyString<aidl::android::hardware::sensors::ISensors::SharedMemInfo::SharedMemType>::value"
    }
   ],
   "linker_set_key" : "_ZTIN7android8internal7details13ToEmptyStringIN4aidl7android8hardware7sensors8ISensors13SharedMemInfo13SharedMemTypeEE6$valueE",
   "name" : "android::internal::details::ToEmptyString<aidl::android::hardware::sensors::ISensors::SharedMemInfo::SharedMemType>::(unnamed enum at frameworks/native/libs/binder/ndk/include_cpp/android/binder_to_string.h:153:5)",
   "referenced_type" : "_ZTIN7android8internal7details13ToEmptyStringIN4aidl7android8hardware7sensors8ISensors13SharedMemInfo13SharedMemTypeEE6$valueE",
   "self_type" : "_ZTIN7android8internal7details13ToEmptyStringIN4aidl7android8hardware7sensors8ISensors13SharedMemInfo13SharedMemTypeEE6$valueE",
   "size" : 4,
   "source_file" : "frameworks/native/libs/binder/ndk/include_cpp/android/binder_to_string.h",
   "underlying_type" : "_ZTIj"
  },
  {
   "alignment" : 4,
   "enum_fields" :
   [
    {
     "enum_field_value" : 0,
     "name" : "android::internal::details::ToEmptyString<aidl::android::hardware::sensors::ISensors::SharedMemInfo::SharedMemFormat>::value"
    }
   ],
   "linker_set_key" : "_ZTIN7android8internal7details13ToEmptyStringIN4aidl7android8hardware7sensors8ISensors13SharedMemInfo15SharedMemFormatEE6$valueE",
   "name" : "android::internal::details::ToEmptyString<aidl::android::hardware::sensors::ISensors::SharedMemInfo::SharedMemFormat>::(unnamed enum at frameworks/native/libs/binder/ndk/include_cpp/android/binder_to_string.h:153:5)",
   "referenced_type" : "_ZTIN7android8internal7details13ToEmptyStringIN4aidl7android8hardware7sensors8ISensors13SharedMemInfo15SharedMemFormatEE6$valueE",
   "self_type" : "_ZTIN7android8internal7details13ToEmptyStringIN4aidl7android8hardware7sensors8ISensors13SharedMemInfo15SharedMemFormatEE6$valueE",
   "size" : 4,
   "source_file" : "frameworks/native/libs/binder/ndk/include_cpp/android/binder_to_string.h",
   "underlying_type" : "_ZTIj"
  },
  {
   "alignment" : 4,
   "enum_fields" :
   [
    {
     "enum_field_value" : 0,
     "name" : "android::internal::details::ToEmptyString<std::basic_string<char>>::value"
    }
   ],
   "linker_set_key" : "_ZTIN7android8internal7details13ToEmptyStringINSt3__112basic_stringIcNS3_11char_traitsIcEENS3_9allocatorIcEEEEE6$valueE",
   "name" : "android::internal::details::ToEmptyString<std::basic_string<char, std::char_traits<char>, std::allocator<char>>>::(unnamed enum at frameworks/native/libs/binder/ndk/include_cpp/android/binder_to_string.h:153:5)",
   "referenced_type" : "_ZTIN7android8internal7details13ToEmptyStringINSt3__112basic_stringIcNS3_11char_traitsIcEENS3_9allocatorIcEEEEE6$valueE",
   "self_type" : "_ZTIN7android8internal7details13ToEmptyStringINSt3__112basic_stringIcNS3_11char_traitsIcEENS3_9allocatorIcEEEEE6$valueE",
   "size" : 4,
   "source_file" : "frameworks/native/libs/binder/ndk/include_cpp/android/binder_to_string.h",
   "underlying_type" : "_ZTIj"
  },
  {
   "alignment" : 4,
   "enum_fields" :
   [
    {
     "enum_field_value" : 0,
     "name" : "android::internal::details::ToEmptyString<std::array<float, 14>>::value"
    }
   ],
   "linker_set_key" : "_ZTIN7android8internal7details13ToEmptyStringINSt3__15arrayIfLj14EEEE6$valueE",
   "name" : "android::internal::details::ToEmptyString<std::array<float, 14>>::(unnamed enum at frameworks/native/libs/binder/ndk/include_cpp/android/binder_to_string.h:153:5)",
   "referenced_type" : "_ZTIN7android8internal7details13ToEmptyStringINSt3__15arrayIfLj14EEEE6$valueE",
   "self_type" : "_ZTIN7android8internal7details13ToEmptyStringINSt3__15arrayIfLj14EEEE6$valueE",
   "size" : 4,
   "source_file" : "frameworks/native/libs/binder/ndk/include_cpp/android/binder_to_string.h",
   "underlying_type" : "_ZTIj"
  },
  {
   "alignment" : 4,
   "enum_fields" :
   [
    {
     "enum_field_value" : 0,
     "name" : "android::internal::details::ToEmptyString<std::array<float, 15>>::value"
    }
   ],
   "linker_set_key" : "_ZTIN7android8internal7details13ToEmptyStringINSt3__15arrayIfLj15EEEE6$valueE",
   "name" : "android::internal::details::ToEmptyString<std::array<float, 15>>::(unnamed enum at frameworks/native/libs/binder/ndk/include_cpp/android/binder_to_string.h:153:5)",
   "referenced_type" : "_ZTIN7android8internal7details13ToEmptyStringINSt3__15arrayIfLj15EEEE6$valueE",
   "self_type" : "_ZTIN7android8internal7details13ToEmptyStringINSt3__15arrayIfLj15EEEE6$valueE",
   "size" : 4,
   "source_file" : "frameworks/native/libs/binder/ndk/include_cpp/android/binder_to_string.h",
   "underlying_type" : "_ZTIj"
  },
  {
   "alignment" : 4,
   "enum_fields" :
   [
    {
     "enum_field_value" : 0,
     "name" : "android::internal::details::ToEmptyString<std::array<float, 16>>::value"
    }
   ],
   "linker_set_key" : "_ZTIN7android8internal7details13ToEmptyStringINSt3__15arrayIfLj16EEEE6$valueE",
   "name" : "android::internal::details::ToEmptyString<std::array<float, 16>>::(unnamed enum at frameworks/native/libs/binder/ndk/include_cpp/android/binder_to_string.h:153:5)",
   "referenced_type" : "_ZTIN7android8internal7details13ToEmptyStringINSt3__15arrayIfLj16EEEE6$valueE",
   "self_type" : "_ZTIN7android8internal7details13ToEmptyStringINSt3__15arrayIfLj16EEEE6$valueE",
   "size" : 4,
   "source_file" : "frameworks/native/libs/binder/ndk/include_cpp/android/binder_to_string.h",
   "underlying_type" : "_ZTIj"
  },
  {
   "alignment" : 4,
   "enum_fields" :
   [
    {
     "enum_field_value" : 0,
     "name" : "android::internal::details::ToEmptyString<std::array<unsigned char, 16>>::value"
    }
   ],
   "linker_set_key" : "_ZTIN7android8internal7details13ToEmptyStringINSt3__15arrayIhLj16EEEE6$valueE",
   "name" : "android::internal::details::ToEmptyString<std::array<unsigned char, 16>>::(unnamed enum at frameworks/native/libs/binder/ndk/include_cpp/android/binder_to_string.h:153:5)",
   "referenced_type" : "_ZTIN7android8internal7details13ToEmptyStringINSt3__15arrayIhLj16EEEE6$valueE",
   "self_type" : "_ZTIN7android8internal7details13ToEmptyStringINSt3__15arrayIhLj16EEEE6$valueE",
   "size" : 4,
   "source_file" : "frameworks/native/libs/binder/ndk/include_cpp/android/binder_to_string.h",
   "underlying_type" : "_ZTIj"
  },
  {
   "alignment" : 4,
   "enum_fields" :
   [
    {
     "enum_field_value" : 0,
     "name" : "android::internal::details::ToEmptyString<std::array<int, 14>>::value"
    }
   ],
   "linker_set_key" : "_ZTIN7android8internal7details13ToEmptyStringINSt3__15arrayIiLj14EEEE6$valueE",
   "name" : "android::internal::details::ToEmptyString<std::array<int, 14>>::(unnamed enum at frameworks/native/libs/binder/ndk/include_cpp/android/binder_to_string.h:153:5)",
   "referenced_type" : "_ZTIN7android8internal7details13ToEmptyStringINSt3__15arrayIiLj14EEEE6$valueE",
   "self_type" : "_ZTIN7android8internal7details13ToEmptyStringINSt3__15arrayIiLj14EEEE6$valueE",
   "size" : 4,
   "source_file" : "frameworks/native/libs/binder/ndk/include_cpp/android/binder_to_string.h",
   "underlying_type" : "_ZTIj"
  },
  {
   "alignment" : 4,
   "enum_fields" :
   [
    {
     "enum_field_value" : 0,
     "name" : "android::internal::details::ToEmptyString<std::vector<ndk::ScopedFileDescriptor>>::value"
    }
   ],
   "linker_set_key" : "_ZTIN7android8internal7details13ToEmptyStringINSt3__16vectorIN3ndk20ScopedFileDescriptorENS3_9allocatorIS6_EEEEE6$valueE",
   "name" : "android::internal::details::ToEmptyString<std::vector<ndk::ScopedFileDescriptor, std::allocator<ndk::ScopedFileDescriptor>>>::(unnamed enum at frameworks/native/libs/binder/ndk/include_cpp/android/binder_to_string.h:153:5)",
   "referenced_type" : "_ZTIN7android8internal7details13ToEmptyStringINSt3__16vectorIN3ndk20ScopedFileDescriptorENS3_9allocatorIS6_EEEEE6$valueE",
   "self_type" : "_ZTIN7android8internal7details13ToEmptyStringINSt3__16vectorIN3ndk20ScopedFileDescriptorENS3_9allocatorIS6_EEEEE6$valueE",
   "size" : 4,
   "source_file" : "frameworks/native/libs/binder/ndk/include_cpp/android/binder_to_string.h",
   "underlying_type" : "_ZTIj"
  },
  {
   "alignment" : 4,
   "enum_fields" :
   [
    {
     "enum_field_value" : 0,
     "name" : "android::internal::details::ToEmptyString<std::vector<int>>::value"
    }
   ],
   "linker_set_key" : "_ZTIN7android8internal7details13ToEmptyStringINSt3__16vectorIiNS3_9allocatorIiEEEEE6$valueE",
   "name" : "android::internal::details::ToEmptyString<std::vector<int, std::allocator<int>>>::(unnamed enum at frameworks/native/libs/binder/ndk/include_cpp/android/binder_to_string.h:153:5)",
   "referenced_type" : "_ZTIN7android8internal7details13ToEmptyStringINSt3__16vectorIiNS3_9allocatorIiEEEEE6$valueE",
   "self_type" : "_ZTIN7android8internal7details13ToEmptyStringINSt3__16vectorIiNS3_9allocatorIiEEEEE6$valueE",
   "size" : 4,
   "source_file" : "frameworks/native/libs/binder/ndk/include_cpp/android/binder_to_string.h",
   "underlying_type" : "_ZTIj"
  },
  {
   "alignment" : 4,
   "enum_fields" :
   [
    {
     "enum_field_value" : 0,
     "name" : "android::internal::details::ToEmptyString<bool>::value"
    }
   ],
   "linker_set_key" : "_ZTIN7android8internal7details13ToEmptyStringIbE6$valueE",
   "name" : "android::internal::details::ToEmptyString<bool>::(unnamed enum at frameworks/native/libs/binder/ndk/include_cpp/android/binder_to_string.h:153:5)",
   "referenced_type" : "_ZTIN7android8internal7details13ToEmptyStringIbE6$valueE",
   "self_type" : "_ZTIN7android8internal7details13ToEmptyStringIbE6$valueE",
   "size" : 4,
   "source_file" : "frameworks/native/libs/binder/ndk/include_cpp/android/binder_to_string.h",
   "underlying_type" : "_ZTIj"
  },
  {
   "alignment" : 4,
   "enum_fields" :
   [
    {
     "enum_field_value" : 0,
     "name" : "android::internal::details::ToEmptyString<float>::value"
    }
   ],
   "linker_set_key" : "_ZTIN7android8internal7details13ToEmptyStringIfE6$valueE",
   "name" : "android::internal::details::ToEmptyString<float>::(unnamed enum at frameworks/native/libs/binder/ndk/include_cpp/android/binder_to_string.h:153:5)",
   "referenced_type" : "_ZTIN7android8internal7details13ToEmptyStringIfE6$valueE",
   "self_type" : "_ZTIN7android8internal7details13ToEmptyStringIfE6$valueE",
   "size" : 4,
   "source_file" : "frameworks/native/libs/binder/ndk/include_cpp/android/binder_to_string.h",
   "underlying_type" : "_ZTIj"
  },
  {
   "alignment" : 4,
   "enum_fields" :
   [
    {
     "enum_field_value" : 0,
     "name" : "android::internal::details::ToEmptyString<unsigned char>::value"
    }
   ],
   "linker_set_key" : "_ZTIN7android8internal7details13ToEmptyStringIhE6$valueE",
   "name" : "android::internal::details::ToEmptyString<unsigned char>::(unnamed enum at frameworks/native/libs/binder/ndk/include_cpp/android/binder_to_string.h:153:5)",
   "referenced_type" : "_ZTIN7android8internal7details13ToEmptyStringIhE6$valueE",
   "self_type" : "_ZTIN7android8internal7details13ToEmptyStringIhE6$valueE",
   "size" : 4,
   "source_file" : "frameworks/native/libs/binder/ndk/include_cpp/android/binder_to_string.h",
   "underlying_type" : "_ZTIj"
  },
  {
   "alignment" : 4,
   "enum_fields" :
   [
    {
     "enum_field_value" : 0,
     "name" : "android::internal::details::ToEmptyString<int>::value"
    }
   ],
   "linker_set_key" : "_ZTIN7android8internal7details13ToEmptyStringIiE6$valueE",
   "name" : "android::internal::details::ToEmptyString<int>::(unnamed enum at frameworks/native/libs/binder/ndk/include_cpp/android/binder_to_string.h:153:5)",
   "referenced_type" : "_ZTIN7android8internal7details13ToEmptyStringIiE6$valueE",
   "self_type" : "_ZTIN7android8internal7details13ToEmptyStringIiE6$valueE",
   "size" : 4,
   "source_file" : "frameworks/native/libs/binder/ndk/include_cpp/android/binder_to_string.h",
   "underlying_type" : "_ZTIj"
  },
  {
   "alignment" : 4,
   "enum_fields" :
   [
    {
     "enum_field_value" : 0,
     "name" : "android::internal::details::ToEmptyString<long long>::value"
    }
   ],
   "linker_set_key" : "_ZTIN7android8internal7details13ToEmptyStringIxE6$valueE",
   "name" : "android::internal::details::ToEmptyString<long long>::(unnamed enum at frameworks/native/libs/binder/ndk/include_cpp/android/binder_to_string.h:153:5)",
   "referenced_type" : "_ZTIN7android8internal7details13ToEmptyStringIxE6$valueE",
   "self_type" : "_ZTIN7android8internal7details13ToEmptyStringIxE6$valueE",
   "size" : 4,
   "source_file" : "frameworks/native/libs/binder/ndk/include_cpp/android/binder_to_string.h",
   "underlying_type" : "_ZTIj"
  },
  {
   "alignment" : 4,
   "enum_fields" :
   [
    {
     "enum_field_value" : 1,
     "name" : "android::internal::details::HasToStringMethod<aidl::android::hardware::common::NativeHandle>::value"
    }
   ],
   "linker_set_key" : "_ZTIN7android8internal7details17HasToStringMethodIN4aidl7android8hardware6common12NativeHandleEE6$valueE",
   "name" : "android::internal::details::HasToStringMethod<aidl::android::hardware::common::NativeHandle>::(unnamed enum at frameworks/native/libs/binder/ndk/include_cpp/android/binder_to_string.h:77:5)",
   "referenced_type" : "_ZTIN7android8internal7details17HasToStringMethodIN4aidl7android8hardware6common12NativeHandleEE6$valueE",
   "self_type" : "_ZTIN7android8internal7details17HasToStringMethodIN4aidl7android8hardware6common12NativeHandleEE6$valueE",
   "size" : 4,
   "source_file" : "frameworks/native/libs/binder/ndk/include_cpp/android/binder_to_string.h",
   "underlying_type" : "_ZTIj"
  },
  {
   "alignment" : 4,
   "enum_fields" :
   [
    {
     "enum_field_value" : 0,
     "name" : "android::internal::details::HasToStringMethod<aidl::android::hardware::sensors::SensorType>::value"
    }
   ],
   "linker_set_key" : "_ZTIN7android8internal7details17HasToStringMethodIN4aidl7android8hardware7sensors10SensorTypeEE6$valueE",
   "name" : "android::internal::details::HasToStringMethod<aidl::android::hardware::sensors::SensorType>::(unnamed enum at frameworks/native/libs/binder/ndk/include_cpp/android/binder_to_string.h:77:5)",
   "referenced_type" : "_ZTIN7android8internal7details17HasToStringMethodIN4aidl7android8hardware7sensors10SensorTypeEE6$valueE",
   "self_type" : "_ZTIN7android8internal7details17HasToStringMethodIN4aidl7android8hardware7sensors10SensorTypeEE6$valueE",
   "size" : 4,
   "source_file" : "frameworks/native/libs/binder/ndk/include_cpp/android/binder_to_string.h",
   "underlying_type" : "_ZTIj"
  },
  {
   "alignment" : 4,
   "enum_fields" :
   [
    {
     "enum_field_value" : 0,
     "name" : "android::internal::details::HasToStringMethod<aidl::android::hardware::sensors::SensorStatus>::value"
    }
   ],
   "linker_set_key" : "_ZTIN7android8internal7details17HasToStringMethodIN4aidl7android8hardware7sensors12SensorStatusEE6$valueE",
   "name" : "android::internal::details::HasToStringMethod<aidl::android::hardware::sensors::SensorStatus>::(unnamed enum at frameworks/native/libs/binder/ndk/include_cpp/android/binder_to_string.h:77:5)",
   "referenced_type" : "_ZTIN7android8internal7details17HasToStringMethodIN4aidl7android8hardware7sensors12SensorStatusEE6$valueE",
   "self_type" : "_ZTIN7android8internal7details17HasToStringMethodIN4aidl7android8hardware7sensors12SensorStatusEE6$valueE",
   "size" : 4,
   "source_file" : "frameworks/native/libs/binder/ndk/include_cpp/android/binder_to_string.h",
   "underlying_type" : "_ZTIj"
  },
  {
   "alignment" : 4,
   "enum_fields" :
   [
    {
     "enum_field_value" : 0,
     "name" : "android::internal::details::HasToStringMethod<aidl::android::hardware::sensors::AdditionalInfo::AdditionalInfoType>::value"
    }
   ],
   "linker_set_key" : "_ZTIN7android8internal7details17HasToStringMethodIN4aidl7android8hardware7sensors14AdditionalInfo18AdditionalInfoTypeEE6$valueE",
   "name" : "android::internal::details::HasToStringMethod<aidl::android::hardware::sensors::AdditionalInfo::AdditionalInfoType>::(unnamed enum at frameworks/native/libs/binder/ndk/include_cpp/android/binder_to_string.h:77:5)",
   "referenced_type" : "_ZTIN7android8internal7details17HasToStringMethodIN4aidl7android8hardware7sensors14AdditionalInfo18AdditionalInfoTypeEE6$valueE",
   "self_type" : "_ZTIN7android8internal7details17HasToStringMethodIN4aidl7android8hardware7sensors14AdditionalInfo18AdditionalInfoTypeEE6$valueE",
   "size" : 4,
   "source_file" : "frameworks/native/libs/binder/ndk/include_cpp/android/binder_to_string.h",
   "underlying_type" : "_ZTIj"
  },
  {
   "alignment" : 4,
   "enum_fields" :
   [
    {
     "enum_field_value" : 1,
     "name" : "android::internal::details::HasToStringMethod<aidl::android::hardware::sensors::AdditionalInfo::AdditionalInfoPayload::FloatValues>::value"
    }
   ],
   "linker_set_key" : "_ZTIN7android8internal7details17HasToStringMethodIN4aidl7android8hardware7sensors14AdditionalInfo21AdditionalInfoPayload11FloatValuesEE6$valueE",
   "name" : "android::internal::details::HasToStringMethod<aidl::android::hardware::sensors::AdditionalInfo::AdditionalInfoPayload::FloatValues>::(unnamed enum at frameworks/native/libs/binder/ndk/include_cpp/android/binder_to_string.h:77:5)",
   "referenced_type" : "_ZTIN7android8internal7details17HasToStringMethodIN4aidl7android8hardware7sensors14AdditionalInfo21AdditionalInfoPayload11FloatValuesEE6$valueE",
   "self_type" : "_ZTIN7android8internal7details17HasToStringMethodIN4aidl7android8hardware7sensors14AdditionalInfo21AdditionalInfoPayload11FloatValuesEE6$valueE",
   "size" : 4,
   "source_file" : "frameworks/native/libs/binder/ndk/include_cpp/android/binder_to_string.h",
   "underlying_type" : "_ZTIj"
  },
  {
   "alignment" : 4,
   "enum_fields" :
   [
    {
     "enum_field_value" : 1,
     "name" : "android::internal::details::HasToStringMethod<aidl::android::hardware::sensors::AdditionalInfo::AdditionalInfoPayload::Int32Values>::value"
    }
   ],
   "linker_set_key" : "_ZTIN7android8internal7details17HasToStringMethodIN4aidl7android8hardware7sensors14AdditionalInfo21AdditionalInfoPayload11Int32ValuesEE6$valueE",
   "name" : "android::internal::details::HasToStringMethod<aidl::android::hardware::sensors::AdditionalInfo::AdditionalInfoPayload::Int32Values>::(unnamed enum at frameworks/native/libs/binder/ndk/include_cpp/android/binder_to_string.h:77:5)",
   "referenced_type" : "_ZTIN7android8internal7details17HasToStringMethodIN4aidl7android8hardware7sensors14AdditionalInfo21AdditionalInfoPayload11Int32ValuesEE6$valueE",
   "self_type" : "_ZTIN7android8internal7details17HasToStringMethodIN4aidl7android8hardware7sensors14AdditionalInfo21AdditionalInfoPayload11Int32ValuesEE6$valueE",
   "size" : 4,
   "source_file" : "frameworks/native/libs/binder/ndk/include_cpp/android/binder_to_string.h",
   "underlying_type" : "_ZTIj"
  },
  {
   "alignment" : 4,
   "enum_fields" :
   [
    {
     "enum_field_value" : 1,
     "name" : "android::internal::details::HasToStringMethod<aidl::android::hardware::sensors::AdditionalInfo::AdditionalInfoPayload>::value"
    }
   ],
   "linker_set_key" : "_ZTIN7android8internal7details17HasToStringMethodIN4aidl7android8hardware7sensors14AdditionalInfo21AdditionalInfoPayloadEE6$valueE",
   "name" : "android::internal::details::HasToStringMethod<aidl::android::hardware::sensors::AdditionalInfo::AdditionalInfoPayload>::(unnamed enum at frameworks/native/libs/binder/ndk/include_cpp/android/binder_to_string.h:77:5)",
   "referenced_type" : "_ZTIN7android8internal7details17HasToStringMethodIN4aidl7android8hardware7sensors14AdditionalInfo21AdditionalInfoPayloadEE6$valueE",
   "self_type" : "_ZTIN7android8internal7details17HasToStringMethodIN4aidl7android8hardware7sensors14AdditionalInfo21AdditionalInfoPayloadEE6$valueE",
   "size" : 4,
   "source_file" : "frameworks/native/libs/binder/ndk/include_cpp/android/binder_to_string.h",
   "underlying_type" : "_ZTIj"
  },
  {
   "alignment" : 4,
   "enum_fields" :
   [
    {
     "enum_field_value" : 1,
     "name" : "android::internal::details::HasToStringMethod<aidl::android::hardware::sensors::AdditionalInfo>::value"
    }
   ],
   "linker_set_key" : "_ZTIN7android8internal7details17HasToStringMethodIN4aidl7android8hardware7sensors14AdditionalInfoEE6$valueE",
   "name" : "android::internal::details::HasToStringMethod<aidl::android::hardware::sensors::AdditionalInfo>::(unnamed enum at frameworks/native/libs/binder/ndk/include_cpp/android/binder_to_string.h:77:5)",
   "referenced_type" : "_ZTIN7android8internal7details17HasToStringMethodIN4aidl7android8hardware7sensors14AdditionalInfoEE6$valueE",
   "self_type" : "_ZTIN7android8internal7details17HasToStringMethodIN4aidl7android8hardware7sensors14AdditionalInfoEE6$valueE",
   "size" : 4,
   "source_file" : "frameworks/native/libs/binder/ndk/include_cpp/android/binder_to_string.h",
   "underlying_type" : "_ZTIj"
  },
  {
   "alignment" : 4,
   "enum_fields" :
   [
    {
     "enum_field_value" : 1,
     "name" : "android::internal::details::HasToStringMethod<aidl::android::hardware::sensors::DynamicSensorInfo::Uuid>::value"
    }
   ],
   "linker_set_key" : "_ZTIN7android8internal7details17HasToStringMethodIN4aidl7android8hardware7sensors17DynamicSensorInfo4UuidEE6$valueE",
   "name" : "android::internal::details::HasToStringMethod<aidl::android::hardware::sensors::DynamicSensorInfo::Uuid>::(unnamed enum at frameworks/native/libs/binder/ndk/include_cpp/android/binder_to_string.h:77:5)",
   "referenced_type" : "_ZTIN7android8internal7details17HasToStringMethodIN4aidl7android8hardware7sensors17DynamicSensorInfo4UuidEE6$valueE",
   "self_type" : "_ZTIN7android8internal7details17HasToStringMethodIN4aidl7android8hardware7sensors17DynamicSensorInfo4UuidEE6$valueE",
   "size" : 4,
   "source_file" : "frameworks/native/libs/binder/ndk/include_cpp/android/binder_to_string.h",
   "underlying_type" : "_ZTIj"
  },
  {
   "alignment" : 4,
   "enum_fields" :
   [
    {
     "enum_field_value" : 1,
     "name" : "android::internal::details::HasToStringMethod<aidl::android::hardware::sensors::DynamicSensorInfo>::value"
    }
   ],
   "linker_set_key" : "_ZTIN7android8internal7details17HasToStringMethodIN4aidl7android8hardware7sensors17DynamicSensorInfoEE6$valueE",
   "name" : "android::internal::details::HasToStringMethod<aidl::android::hardware::sensors::DynamicSensorInfo>::(unnamed enum at frameworks/native/libs/binder/ndk/include_cpp/android/binder_to_string.h:77:5)",
   "referenced_type" : "_ZTIN7android8internal7details17HasToStringMethodIN4aidl7android8hardware7sensors17DynamicSensorInfoEE6$valueE",
   "self_type" : "_ZTIN7android8internal7details17HasToStringMethodIN4aidl7android8hardware7sensors17DynamicSensorInfoEE6$valueE",
   "size" : 4,
   "source_file" : "frameworks/native/libs/binder/ndk/include_cpp/android/binder_to_string.h",
   "underlying_type" : "_ZTIj"
  },
  {
   "alignment" : 4,
   "enum_fields" :
   [
    {
     "enum_field_value" : 1,
     "name" : "android::internal::details::HasToStringMethod<aidl::android::hardware::sensors::Event::EventPayload::HeadTracker>::value"
    }
   ],
   "linker_set_key" : "_ZTIN7android8internal7details17HasToStringMethodIN4aidl7android8hardware7sensors5Event12EventPayload11HeadTrackerEE6$valueE",
   "name" : "android::internal::details::HasToStringMethod<aidl::android::hardware::sensors::Event::EventPayload::HeadTracker>::(unnamed enum at frameworks/native/libs/binder/ndk/include_cpp/android/binder_to_string.h:77:5)",
   "referenced_type" : "_ZTIN7android8internal7details17HasToStringMethodIN4aidl7android8hardware7sensors5Event12EventPayload11HeadTrackerEE6$valueE",
   "self_type" : "_ZTIN7android8internal7details17HasToStringMethodIN4aidl7android8hardware7sensors5Event12EventPayload11HeadTrackerEE6$valueE",
   "size" : 4,
   "source_file" : "frameworks/native/libs/binder/ndk/include_cpp/android/binder_to_string.h",
   "underlying_type" : "_ZTIj"
  },
  {
   "alignment" : 4,
   "enum_fields" :
   [
    {
     "enum_field_value" : 1,
     "name" : "android::internal::details::HasToStringMethod<aidl::android::hardware::sensors::Event::EventPayload::LimitedAxesImu>::value"
    }
   ],
   "linker_set_key" : "_ZTIN7android8internal7details17HasToStringMethodIN4aidl7android8hardware7sensors5Event12EventPayload14LimitedAxesImuEE6$valueE",
   "name" : "android::internal::details::HasToStringMethod<aidl::android::hardware::sensors::Event::EventPayload::LimitedAxesImu>::(unnamed enum at frameworks/native/libs/binder/ndk/include_cpp/android/binder_to_string.h:77:5)",
   "referenced_type" : "_ZTIN7android8internal7details17HasToStringMethodIN4aidl7android8hardware7sensors5Event12EventPayload14LimitedAxesImuEE6$valueE",
   "self_type" : "_ZTIN7android8internal7details17HasToStringMethodIN4aidl7android8hardware7sensors5Event12EventPayload14LimitedAxesImuEE6$valueE",
   "size" : 4,
   "source_file" : "frameworks/native/libs/binder/ndk/include_cpp/android/binder_to_string.h",
   "underlying_type" : "_ZTIj"
  },
  {
   "alignment" : 4,
   "enum_fields" :
   [
    {
     "enum_field_value" : 1,
     "name" : "android::internal::details::HasToStringMethod<aidl::android::hardware::sensors::Event::EventPayload::LimitedAxesImuUncal>::value"
    }
   ],
   "linker_set_key" : "_ZTIN7android8internal7details17HasToStringMethodIN4aidl7android8hardware7sensors5Event12EventPayload19LimitedAxesImuUncalEE6$valueE",
   "name" : "android::internal::details::HasToStringMethod<aidl::android::hardware::sensors::Event::EventPayload::LimitedAxesImuUncal>::(unnamed enum at frameworks/native/libs/binder/ndk/include_cpp/android/binder_to_string.h:77:5)",
   "referenced_type" : "_ZTIN7android8internal7details17HasToStringMethodIN4aidl7android8hardware7sensors5Event12EventPayload19LimitedAxesImuUncalEE6$valueE",
   "self_type" : "_ZTIN7android8internal7details17HasToStringMethodIN4aidl7android8hardware7sensors5Event12EventPayload19LimitedAxesImuUncalEE6$valueE",
   "size" : 4,
   "source_file" : "frameworks/native/libs/binder/ndk/include_cpp/android/binder_to_string.h",
   "underlying_type" : "_ZTIj"
  },
  {
   "alignment" : 4,
   "enum_fields" :
   [
    {
     "enum_field_value" : 1,
     "name" : "android::internal::details::HasToStringMethod<aidl::android::hardware::sensors::Event::EventPayload::Data>::value"
    }
   ],
   "linker_set_key" : "_ZTIN7android8internal7details17HasToStringMethodIN4aidl7android8hardware7sensors5Event12EventPayload4DataEE6$valueE",
   "name" : "android::internal::details::HasToStringMethod<aidl::android::hardware::sensors::Event::EventPayload::Data>::(unnamed enum at frameworks/native/libs/binder/ndk/include_cpp/android/binder_to_string.h:77:5)",
   "referenced_type" : "_ZTIN7android8internal7details17HasToStringMethodIN4aidl7android8hardware7sensors5Event12EventPayload4DataEE6$valueE",
   "self_type" : "_ZTIN7android8internal7details17HasToStringMethodIN4aidl7android8hardware7sensors5Event12EventPayload4DataEE6$valueE",
   "size" : 4,
   "source_file" : "frameworks/native/libs/binder/ndk/include_cpp/android/binder_to_string.h",
   "underlying_type" : "_ZTIj"
  },
  {
   "alignment" : 4,
   "enum_fields" :
   [
    {
     "enum_field_value" : 1,
     "name" : "android::internal::details::HasToStringMethod<aidl::android::hardware::sensors::Event::EventPayload::Vec3>::value"
    }
   ],
   "linker_set_key" : "_ZTIN7android8internal7details17HasToStringMethodIN4aidl7android8hardware7sensors5Event12EventPayload4Vec3EE6$valueE",
   "name" : "android::internal::details::HasToStringMethod<aidl::android::hardware::sensors::Event::EventPayload::Vec3>::(unnamed enum at frameworks/native/libs/binder/ndk/include_cpp/android/binder_to_string.h:77:5)",
   "referenced_type" : "_ZTIN7android8internal7details17HasToStringMethodIN4aidl7android8hardware7sensors5Event12EventPayload4Vec3EE6$valueE",
   "self_type" : "_ZTIN7android8internal7details17HasToStringMethodIN4aidl7android8hardware7sensors5Event12EventPayload4Vec3EE6$valueE",
   "size" : 4,
   "source_file" : "frameworks/native/libs/binder/ndk/include_cpp/android/binder_to_string.h",
   "underlying_type" : "_ZTIj"
  },
  {
   "alignment" : 4,
   "enum_fields" :
   [
    {
     "enum_field_value" : 1,
     "name" : "android::internal::details::HasToStringMethod<aidl::android::hardware::sensors::Event::EventPayload::Vec4>::value"
    }
   ],
   "linker_set_key" : "_ZTIN7android8internal7details17HasToStringMethodIN4aidl7android8hardware7sensors5Event12EventPayload4Vec4EE6$valueE",
   "name" : "android::internal::details::HasToStringMethod<aidl::android::hardware::sensors::Event::EventPayload::Vec4>::(unnamed enum at frameworks/native/libs/binder/ndk/include_cpp/android/binder_to_string.h:77:5)",
   "referenced_type" : "_ZTIN7android8internal7details17HasToStringMethodIN4aidl7android8hardware7sensors5Event12EventPayload4Vec4EE6$valueE",
   "self_type" : "_ZTIN7android8internal7details17HasToStringMethodIN4aidl7android8hardware7sensors5Event12EventPayload4Vec4EE6$valueE",
   "size" : 4,
   "source_file" : "frameworks/native/libs/binder/ndk/include_cpp/android/binder_to_string.h",
   "underlying_type" : "_ZTIj"
  },
  {
   "alignment" : 4,
   "enum_fields" :
   [
    {
     "enum_field_value" : 1,
     "name" : "android::internal::details::HasToStringMethod<aidl::android::hardware::sensors::Event::EventPayload::Uncal>::value"
    }
   ],
   "linker_set_key" : "_ZTIN7android8internal7details17HasToStringMethodIN4aidl7android8hardware7sensors5Event12EventPayload5UncalEE6$valueE",
   "name" : "android::internal::details::HasToStringMethod<aidl::android::hardware::sensors::Event::EventPayload::Uncal>::(unnamed enum at frameworks/native/libs/binder/ndk/include_cpp/android/binder_to_string.h:77:5)",
   "referenced_type" : "_ZTIN7android8internal7details17HasToStringMethodIN4aidl7android8hardware7sensors5Event12EventPayload5UncalEE6$valueE",
   "self_type" : "_ZTIN7android8internal7details17HasToStringMethodIN4aidl7android8hardware7sensors5Event12EventPayload5UncalEE6$valueE",
   "size" : 4,
   "source_file" : "frameworks/native/libs/binder/ndk/include_cpp/android/binder_to_string.h",
   "underlying_type" : "_ZTIj"
  },
  {
   "alignment" : 4,
   "enum_fields" :
   [
    {
     "enum_field_value" : 1,
     "name" : "android::internal::details::HasToStringMethod<aidl::android::hardware::sensors::Event::EventPayload::Heading>::value"
    }
   ],
   "linker_set_key" : "_ZTIN7android8internal7details17HasToStringMethodIN4aidl7android8hardware7sensors5Event12EventPayload7HeadingEE6$valueE",
   "name" : "android::internal::details::HasToStringMethod<aidl::android::hardware::sensors::Event::EventPayload::Heading>::(unnamed enum at frameworks/native/libs/binder/ndk/include_cpp/android/binder_to_string.h:77:5)",
   "referenced_type" : "_ZTIN7android8internal7details17HasToStringMethodIN4aidl7android8hardware7sensors5Event12EventPayload7HeadingEE6$valueE",
   "self_type" : "_ZTIN7android8internal7details17HasToStringMethodIN4aidl7android8hardware7sensors5Event12EventPayload7HeadingEE6$valueE",
   "size" : 4,
   "source_file" : "frameworks/native/libs/binder/ndk/include_cpp/android/binder_to_string.h",
   "underlying_type" : "_ZTIj"
  },
  {
   "alignment" : 4,
   "enum_fields" :
   [
    {
     "enum_field_value" : 0,
     "name" : "android::internal::details::HasToStringMethod<aidl::android::hardware::sensors::Event::EventPayload::MetaData::MetaDataEventType>::value"
    }
   ],
   "linker_set_key" : "_ZTIN7android8internal7details17HasToStringMethodIN4aidl7android8hardware7sensors5Event12EventPayload8MetaData17MetaDataEventTypeEE6$valueE",
   "name" : "android::internal::details::HasToStringMethod<aidl::android::hardware::sensors::Event::EventPayload::MetaData::MetaDataEventType>::(unnamed enum at frameworks/native/libs/binder/ndk/include_cpp/android/binder_to_string.h:77:5)",
   "referenced_type" : "_ZTIN7android8internal7details17HasToStringMethodIN4aidl7android8hardware7sensors5Event12EventPayload8MetaData17MetaDataEventTypeEE6$valueE",
   "self_type" : "_ZTIN7android8internal7details17HasToStringMethodIN4aidl7android8hardware7sensors5Event12EventPayload8MetaData17MetaDataEventTypeEE6$valueE",
   "size" : 4,
   "source_file" : "frameworks/native/libs/binder/ndk/include_cpp/android/binder_to_string.h",
   "underlying_type" : "_ZTIj"
  },
  {
   "alignment" : 4,
   "enum_fields" :
   [
    {
     "enum_field_value" : 1,
     "name" : "android::internal::details::HasToStringMethod<aidl::android::hardware::sensors::Event::EventPayload::MetaData>::value"
    }
   ],
   "linker_set_key" : "_ZTIN7android8internal7details17HasToStringMethodIN4aidl7android8hardware7sensors5Event12EventPayload8MetaDataEE6$valueE",
   "name" : "android::internal::details::HasToStringMethod<aidl::android::hardware::sensors::Event::EventPayload::MetaData>::(unnamed enum at frameworks/native/libs/binder/ndk/include_cpp/android/binder_to_string.h:77:5)",
   "referenced_type" : "_ZTIN7android8internal7details17HasToStringMethodIN4aidl7android8hardware7sensors5Event12EventPayload8MetaDataEE6$valueE",
   "self_type" : "_ZTIN7android8internal7details17HasToStringMethodIN4aidl7android8hardware7sensors5Event12EventPayload8MetaDataEE6$valueE",
   "size" : 4,
   "source_file" : "frameworks/native/libs/binder/ndk/include_cpp/android/binder_to_string.h",
   "underlying_type" : "_ZTIj"
  },
  {
   "alignment" : 4,
   "enum_fields" :
   [
    {
     "enum_field_value" : 1,
     "name" : "android::internal::details::HasToStringMethod<aidl::android::hardware::sensors::Event::EventPayload::Pose6Dof>::value"
    }
   ],
   "linker_set_key" : "_ZTIN7android8internal7details17HasToStringMethodIN4aidl7android8hardware7sensors5Event12EventPayload8Pose6DofEE6$valueE",
   "name" : "android::internal::details::HasToStringMethod<aidl::android::hardware::sensors::Event::EventPayload::Pose6Dof>::(unnamed enum at frameworks/native/libs/binder/ndk/include_cpp/android/binder_to_string.h:77:5)",
   "referenced_type" : "_ZTIN7android8internal7details17HasToStringMethodIN4aidl7android8hardware7sensors5Event12EventPayload8Pose6DofEE6$valueE",
   "self_type" : "_ZTIN7android8internal7details17HasToStringMethodIN4aidl7android8hardware7sensors5Event12EventPayload8Pose6DofEE6$valueE",
   "size" : 4,
   "source_file" : "frameworks/native/libs/binder/ndk/include_cpp/android/binder_to_string.h",
   "underlying_type" : "_ZTIj"
  },
  {
   "alignment" : 4,
   "enum_fields" :
   [
    {
     "enum_field_value" : 1,
     "name" : "android::internal::details::HasToStringMethod<aidl::android::hardware::sensors::Event::EventPayload::HeartRate>::value"
    }
   ],
   "linker_set_key" : "_ZTIN7android8internal7details17HasToStringMethodIN4aidl7android8hardware7sensors5Event12EventPayload9HeartRateEE6$valueE",
   "name" : "android::internal::details::HasToStringMethod<aidl::android::hardware::sensors::Event::EventPayload::HeartRate>::(unnamed enum at frameworks/native/libs/binder/ndk/include_cpp/android/binder_to_string.h:77:5)",
   "referenced_type" : "_ZTIN7android8internal7details17HasToStringMethodIN4aidl7android8hardware7sensors5Event12EventPayload9HeartRateEE6$valueE",
   "self_type" : "_ZTIN7android8internal7details17HasToStringMethodIN4aidl7android8hardware7sensors5Event12EventPayload9HeartRateEE6$valueE",
   "size" : 4,
   "source_file" : "frameworks/native/libs/binder/ndk/include_cpp/android/binder_to_string.h",
   "underlying_type" : "_ZTIj"
  },
  {
   "alignment" : 4,
   "enum_fields" :
   [
    {
     "enum_field_value" : 1,
     "name" : "android::internal::details::HasToStringMethod<aidl::android::hardware::sensors::Event::EventPayload>::value"
    }
   ],
   "linker_set_key" : "_ZTIN7android8internal7details17HasToStringMethodIN4aidl7android8hardware7sensors5Event12EventPayloadEE6$valueE",
   "name" : "android::internal::details::HasToStringMethod<aidl::android::hardware::sensors::Event::EventPayload>::(unnamed enum at frameworks/native/libs/binder/ndk/include_cpp/android/binder_to_string.h:77:5)",
   "referenced_type" : "_ZTIN7android8internal7details17HasToStringMethodIN4aidl7android8hardware7sensors5Event12EventPayloadEE6$valueE",
   "self_type" : "_ZTIN7android8internal7details17HasToStringMethodIN4aidl7android8hardware7sensors5Event12EventPayloadEE6$valueE",
   "size" : 4,
   "source_file" : "frameworks/native/libs/binder/ndk/include_cpp/android/binder_to_string.h",
   "underlying_type" : "_ZTIj"
  },
  {
   "alignment" : 4,
   "enum_fields" :
   [
    {
     "enum_field_value" : 0,
     "name" : "android::internal::details::HasToStringMethod<aidl::android::hardware::sensors::ISensors::SharedMemInfo::SharedMemType>::value"
    }
   ],
   "linker_set_key" : "_ZTIN7android8internal7details17HasToStringMethodIN4aidl7android8hardware7sensors8ISensors13SharedMemInfo13SharedMemTypeEE6$valueE",
   "name" : "android::internal::details::HasToStringMethod<aidl::android::hardware::sensors::ISensors::SharedMemInfo::SharedMemType>::(unnamed enum at frameworks/native/libs/binder/ndk/include_cpp/android/binder_to_string.h:77:5)",
   "referenced_type" : "_ZTIN7android8internal7details17HasToStringMethodIN4aidl7android8hardware7sensors8ISensors13SharedMemInfo13SharedMemTypeEE6$valueE",
   "self_type" : "_ZTIN7android8internal7details17HasToStringMethodIN4aidl7android8hardware7sensors8ISensors13SharedMemInfo13SharedMemTypeEE6$valueE",
   "size" : 4,
   "source_file" : "frameworks/native/libs/binder/ndk/include_cpp/android/binder_to_string.h",
   "underlying_type" : "_ZTIj"
  },
  {
   "alignment" : 4,
   "enum_fields" :
   [
    {
     "enum_field_value" : 0,
     "name" : "android::internal::details::HasToStringMethod<aidl::android::hardware::sensors::ISensors::SharedMemInfo::SharedMemFormat>::value"
    }
   ],
   "linker_set_key" : "_ZTIN7android8internal7details17HasToStringMethodIN4aidl7android8hardware7sensors8ISensors13SharedMemInfo15SharedMemFormatEE6$valueE",
   "name" : "android::internal::details::HasToStringMethod<aidl::android::hardware::sensors::ISensors::SharedMemInfo::SharedMemFormat>::(unnamed enum at frameworks/native/libs/binder/ndk/include_cpp/android/binder_to_string.h:77:5)",
   "referenced_type" : "_ZTIN7android8internal7details17HasToStringMethodIN4aidl7android8hardware7sensors8ISensors13SharedMemInfo15SharedMemFormatEE6$valueE",
   "self_type" : "_ZTIN7android8internal7details17HasToStringMethodIN4aidl7android8hardware7sensors8ISensors13SharedMemInfo15SharedMemFormatEE6$valueE",
   "size" : 4,
   "source_file" : "frameworks/native/libs/binder/ndk/include_cpp/android/binder_to_string.h",
   "underlying_type" : "_ZTIj"
  },
  {
   "alignment" : 4,
   "enum_fields" :
   [
    {
     "enum_field_value" : 0,
     "name" : "android::internal::details::HasToStringMethod<std::array<float, 14>>::value"
    }
   ],
   "linker_set_key" : "_ZTIN7android8internal7details17HasToStringMethodINSt3__15arrayIfLj14EEEE6$valueE",
   "name" : "android::internal::details::HasToStringMethod<std::array<float, 14>>::(unnamed enum at frameworks/native/libs/binder/ndk/include_cpp/android/binder_to_string.h:77:5)",
   "referenced_type" : "_ZTIN7android8internal7details17HasToStringMethodINSt3__15arrayIfLj14EEEE6$valueE",
   "self_type" : "_ZTIN7android8internal7details17HasToStringMethodINSt3__15arrayIfLj14EEEE6$valueE",
   "size" : 4,
   "source_file" : "frameworks/native/libs/binder/ndk/include_cpp/android/binder_to_string.h",
   "underlying_type" : "_ZTIj"
  },
  {
   "alignment" : 4,
   "enum_fields" :
   [
    {
     "enum_field_value" : 0,
     "name" : "android::internal::details::HasToStringMethod<std::array<float, 15>>::value"
    }
   ],
   "linker_set_key" : "_ZTIN7android8internal7details17HasToStringMethodINSt3__15arrayIfLj15EEEE6$valueE",
   "name" : "android::internal::details::HasToStringMethod<std::array<float, 15>>::(unnamed enum at frameworks/native/libs/binder/ndk/include_cpp/android/binder_to_string.h:77:5)",
   "referenced_type" : "_ZTIN7android8internal7details17HasToStringMethodINSt3__15arrayIfLj15EEEE6$valueE",
   "self_type" : "_ZTIN7android8internal7details17HasToStringMethodINSt3__15arrayIfLj15EEEE6$valueE",
   "size" : 4,
   "source_file" : "frameworks/native/libs/binder/ndk/include_cpp/android/binder_to_string.h",
   "underlying_type" : "_ZTIj"
  },
  {
   "alignment" : 4,
   "enum_fields" :
   [
    {
     "enum_field_value" : 0,
     "name" : "android::internal::details::HasToStringMethod<std::array<float, 16>>::value"
    }
   ],
   "linker_set_key" : "_ZTIN7android8internal7details17HasToStringMethodINSt3__15arrayIfLj16EEEE6$valueE",
   "name" : "android::internal::details::HasToStringMethod<std::array<float, 16>>::(unnamed enum at frameworks/native/libs/binder/ndk/include_cpp/android/binder_to_string.h:77:5)",
   "referenced_type" : "_ZTIN7android8internal7details17HasToStringMethodINSt3__15arrayIfLj16EEEE6$valueE",
   "self_type" : "_ZTIN7android8internal7details17HasToStringMethodINSt3__15arrayIfLj16EEEE6$valueE",
   "size" : 4,
   "source_file" : "frameworks/native/libs/binder/ndk/include_cpp/android/binder_to_string.h",
   "underlying_type" : "_ZTIj"
  },
  {
   "alignment" : 4,
   "enum_fields" :
   [
    {
     "enum_field_value" : 0,
     "name" : "android::internal::details::HasToStringMethod<std::array<unsigned char, 16>>::value"
    }
   ],
   "linker_set_key" : "_ZTIN7android8internal7details17HasToStringMethodINSt3__15arrayIhLj16EEEE6$valueE",
   "name" : "android::internal::details::HasToStringMethod<std::array<unsigned char, 16>>::(unnamed enum at frameworks/native/libs/binder/ndk/include_cpp/android/binder_to_string.h:77:5)",
   "referenced_type" : "_ZTIN7android8internal7details17HasToStringMethodINSt3__15arrayIhLj16EEEE6$valueE",
   "self_type" : "_ZTIN7android8internal7details17HasToStringMethodINSt3__15arrayIhLj16EEEE6$valueE",
   "size" : 4,
   "source_file" : "frameworks/native/libs/binder/ndk/include_cpp/android/binder_to_string.h",
   "underlying_type" : "_ZTIj"
  },
  {
   "alignment" : 4,
   "enum_fields" :
   [
    {
     "enum_field_value" : 0,
     "name" : "android::internal::details::HasToStringMethod<std::array<int, 14>>::value"
    }
   ],
   "linker_set_key" : "_ZTIN7android8internal7details17HasToStringMethodINSt3__15arrayIiLj14EEEE6$valueE",
   "name" : "android::internal::details::HasToStringMethod<std::array<int, 14>>::(unnamed enum at frameworks/native/libs/binder/ndk/include_cpp/android/binder_to_string.h:77:5)",
   "referenced_type" : "_ZTIN7android8internal7details17HasToStringMethodINSt3__15arrayIiLj14EEEE6$valueE",
   "self_type" : "_ZTIN7android8internal7details17HasToStringMethodINSt3__15arrayIiLj14EEEE6$valueE",
   "size" : 4,
   "source_file" : "frameworks/native/libs/binder/ndk/include_cpp/android/binder_to_string.h",
   "underlying_type" : "_ZTIj"
  },
  {
   "alignment" : 4,
   "enum_fields" :
   [
    {
     "enum_field_value" : 0,
     "name" : "android::internal::details::HasToStringMethod<std::vector<ndk::ScopedFileDescriptor>>::value"
    }
   ],
   "linker_set_key" : "_ZTIN7android8internal7details17HasToStringMethodINSt3__16vectorIN3ndk20ScopedFileDescriptorENS3_9allocatorIS6_EEEEE6$valueE",
   "name" : "android::internal::details::HasToStringMethod<std::vector<ndk::ScopedFileDescriptor, std::allocator<ndk::ScopedFileDescriptor>>>::(unnamed enum at frameworks/native/libs/binder/ndk/include_cpp/android/binder_to_string.h:77:5)",
   "referenced_type" : "_ZTIN7android8internal7details17HasToStringMethodINSt3__16vectorIN3ndk20ScopedFileDescriptorENS3_9allocatorIS6_EEEEE6$valueE",
   "self_type" : "_ZTIN7android8internal7details17HasToStringMethodINSt3__16vectorIN3ndk20ScopedFileDescriptorENS3_9allocatorIS6_EEEEE6$valueE",
   "size" : 4,
   "source_file" : "frameworks/native/libs/binder/ndk/include_cpp/android/binder_to_string.h",
   "underlying_type" : "_ZTIj"
  },
  {
   "alignment" : 4,
   "enum_fields" :
   [
    {
     "enum_field_value" : 0,
     "name" : "android::internal::details::HasToStringMethod<std::vector<int>>::value"
    }
   ],
   "linker_set_key" : "_ZTIN7android8internal7details17HasToStringMethodINSt3__16vectorIiNS3_9allocatorIiEEEEE6$valueE",
   "name" : "android::internal::details::HasToStringMethod<std::vector<int, std::allocator<int>>>::(unnamed enum at frameworks/native/libs/binder/ndk/include_cpp/android/binder_to_string.h:77:5)",
   "referenced_type" : "_ZTIN7android8internal7details17HasToStringMethodINSt3__16vectorIiNS3_9allocatorIiEEEEE6$valueE",
   "self_type" : "_ZTIN7android8internal7details17HasToStringMethodINSt3__16vectorIiNS3_9allocatorIiEEEEE6$valueE",
   "size" : 4,
   "source_file" : "frameworks/native/libs/binder/ndk/include_cpp/android/binder_to_string.h",
   "underlying_type" : "_ZTIj"
  },
  {
   "alignment" : 4,
   "enum_fields" :
   [
    {
     "enum_field_value" : 1,
     "name" : "android::internal::details::HasToStringFunction<aidl::android::hardware::sensors::SensorType>::value"
    }
   ],
   "linker_set_key" : "_ZTIN7android8internal7details19HasToStringFunctionIN4aidl7android8hardware7sensors10SensorTypeEE6$valueE",
   "name" : "android::internal::details::HasToStringFunction<aidl::android::hardware::sensors::SensorType>::(unnamed enum at frameworks/native/libs/binder/ndk/include_cpp/android/binder_to_string.h:89:5)",
   "referenced_type" : "_ZTIN7android8internal7details19HasToStringFunctionIN4aidl7android8hardware7sensors10SensorTypeEE6$valueE",
   "self_type" : "_ZTIN7android8internal7details19HasToStringFunctionIN4aidl7android8hardware7sensors10SensorTypeEE6$valueE",
   "size" : 4,
   "source_file" : "frameworks/native/libs/binder/ndk/include_cpp/android/binder_to_string.h",
   "underlying_type" : "_ZTIj"
  },
  {
   "alignment" : 4,
   "enum_fields" :
   [
    {
     "enum_field_value" : 1,
     "name" : "android::internal::details::HasToStringFunction<aidl::android::hardware::sensors::SensorStatus>::value"
    }
   ],
   "linker_set_key" : "_ZTIN7android8internal7details19HasToStringFunctionIN4aidl7android8hardware7sensors12SensorStatusEE6$valueE",
   "name" : "android::internal::details::HasToStringFunction<aidl::android::hardware::sensors::SensorStatus>::(unnamed enum at frameworks/native/libs/binder/ndk/include_cpp/android/binder_to_string.h:89:5)",
   "referenced_type" : "_ZTIN7android8internal7details19HasToStringFunctionIN4aidl7android8hardware7sensors12SensorStatusEE6$valueE",
   "self_type" : "_ZTIN7android8internal7details19HasToStringFunctionIN4aidl7android8hardware7sensors12SensorStatusEE6$valueE",
   "size" : 4,
   "source_file" : "frameworks/native/libs/binder/ndk/include_cpp/android/binder_to_string.h",
   "underlying_type" : "_ZTIj"
  },
  {
   "alignment" : 4,
   "enum_fields" :
   [
    {
     "enum_field_value" : 1,
     "name" : "android::internal::details::HasToStringFunction<aidl::android::hardware::sensors::AdditionalInfo::AdditionalInfoType>::value"
    }
   ],
   "linker_set_key" : "_ZTIN7android8internal7details19HasToStringFunctionIN4aidl7android8hardware7sensors14AdditionalInfo18AdditionalInfoTypeEE6$valueE",
   "name" : "android::internal::details::HasToStringFunction<aidl::android::hardware::sensors::AdditionalInfo::AdditionalInfoType>::(unnamed enum at frameworks/native/libs/binder/ndk/include_cpp/android/binder_to_string.h:89:5)",
   "referenced_type" : "_ZTIN7android8internal7details19HasToStringFunctionIN4aidl7android8hardware7sensors14AdditionalInfo18AdditionalInfoTypeEE6$valueE",
   "self_type" : "_ZTIN7android8internal7details19HasToStringFunctionIN4aidl7android8hardware7sensors14AdditionalInfo18AdditionalInfoTypeEE6$valueE",
   "size" : 4,
   "source_file" : "frameworks/native/libs/binder/ndk/include_cpp/android/binder_to_string.h",
   "underlying_type" : "_ZTIj"
  },
  {
   "alignment" : 4,
   "enum_fields" :
   [
    {
     "enum_field_value" : 1,
     "name" : "android::internal::details::HasToStringFunction<aidl::android::hardware::sensors::Event::EventPayload::MetaData::MetaDataEventType>::value"
    }
   ],
   "linker_set_key" : "_ZTIN7android8internal7details19HasToStringFunctionIN4aidl7android8hardware7sensors5Event12EventPayload8MetaData17MetaDataEventTypeEE6$valueE",
   "name" : "android::internal::details::HasToStringFunction<aidl::android::hardware::sensors::Event::EventPayload::MetaData::MetaDataEventType>::(unnamed enum at frameworks/native/libs/binder/ndk/include_cpp/android/binder_to_string.h:89:5)",
   "referenced_type" : "_ZTIN7android8internal7details19HasToStringFunctionIN4aidl7android8hardware7sensors5Event12EventPayload8MetaData17MetaDataEventTypeEE6$valueE",
   "self_type" : "_ZTIN7android8internal7details19HasToStringFunctionIN4aidl7android8hardware7sensors5Event12EventPayload8MetaData17MetaDataEventTypeEE6$valueE",
   "size" : 4,
   "source_file" : "frameworks/native/libs/binder/ndk/include_cpp/android/binder_to_string.h",
   "underlying_type" : "_ZTIj"
  },
  {
   "alignment" : 4,
   "enum_fields" :
   [
    {
     "enum_field_value" : 1,
     "name" : "android::internal::details::HasToStringFunction<aidl::android::hardware::sensors::ISensors::SharedMemInfo::SharedMemType>::value"
    }
   ],
   "linker_set_key" : "_ZTIN7android8internal7details19HasToStringFunctionIN4aidl7android8hardware7sensors8ISensors13SharedMemInfo13SharedMemTypeEE6$valueE",
   "name" : "android::internal::details::HasToStringFunction<aidl::android::hardware::sensors::ISensors::SharedMemInfo::SharedMemType>::(unnamed enum at frameworks/native/libs/binder/ndk/include_cpp/android/binder_to_string.h:89:5)",
   "referenced_type" : "_ZTIN7android8internal7details19HasToStringFunctionIN4aidl7android8hardware7sensors8ISensors13SharedMemInfo13SharedMemTypeEE6$valueE",
   "self_type" : "_ZTIN7android8internal7details19HasToStringFunctionIN4aidl7android8hardware7sensors8ISensors13SharedMemInfo13SharedMemTypeEE6$valueE",
   "size" : 4,
   "source_file" : "frameworks/native/libs/binder/ndk/include_cpp/android/binder_to_string.h",
   "underlying_type" : "_ZTIj"
  },
  {
   "alignment" : 4,
   "enum_fields" :
   [
    {
     "enum_field_value" : 1,
     "name" : "android::internal::details::HasToStringFunction<aidl::android::hardware::sensors::ISensors::SharedMemInfo::SharedMemFormat>::value"
    }
   ],
   "linker_set_key" : "_ZTIN7android8internal7details19HasToStringFunctionIN4aidl7android8hardware7sensors8ISensors13SharedMemInfo15SharedMemFormatEE6$valueE",
   "name" : "android::internal::details::HasToStringFunction<aidl::android::hardware::sensors::ISensors::SharedMemInfo::SharedMemFormat>::(unnamed enum at frameworks/native/libs/binder/ndk/include_cpp/android/binder_to_string.h:89:5)",
   "referenced_type" : "_ZTIN7android8internal7details19HasToStringFunctionIN4aidl7android8hardware7sensors8ISensors13SharedMemInfo15SharedMemFormatEE6$valueE",
   "self_type" : "_ZTIN7android8internal7details19HasToStringFunctionIN4aidl7android8hardware7sensors8ISensors13SharedMemInfo15SharedMemFormatEE6$valueE",
   "size" : 4,
   "source_file" : "frameworks/native/libs/binder/ndk/include_cpp/android/binder_to_string.h",
   "underlying_type" : "_ZTIj"
  },
  {
   "alignment" : 4,
   "enum_fields" :
   [
    {
     "enum_field_value" : 0,
     "name" : "android::internal::details::HasToStringFunction<std::array<float, 14>>::value"
    }
   ],
   "linker_set_key" : "_ZTIN7android8internal7details19HasToStringFunctionINSt3__15arrayIfLj14EEEE6$valueE",
   "name" : "android::internal::details::HasToStringFunction<std::array<float, 14>>::(unnamed enum at frameworks/native/libs/binder/ndk/include_cpp/android/binder_to_string.h:89:5)",
   "referenced_type" : "_ZTIN7android8internal7details19HasToStringFunctionINSt3__15arrayIfLj14EEEE6$valueE",
   "self_type" : "_ZTIN7android8internal7details19HasToStringFunctionINSt3__15arrayIfLj14EEEE6$valueE",
   "size" : 4,
   "source_file" : "frameworks/native/libs/binder/ndk/include_cpp/android/binder_to_string.h",
   "underlying_type" : "_ZTIj"
  },
  {
   "alignment" : 4,
   "enum_fields" :
   [
    {
     "enum_field_value" : 0,
     "name" : "android::internal::details::HasToStringFunction<std::array<float, 15>>::value"
    }
   ],
   "linker_set_key" : "_ZTIN7android8internal7details19HasToStringFunctionINSt3__15arrayIfLj15EEEE6$valueE",
   "name" : "android::internal::details::HasToStringFunction<std::array<float, 15>>::(unnamed enum at frameworks/native/libs/binder/ndk/include_cpp/android/binder_to_string.h:89:5)",
   "referenced_type" : "_ZTIN7android8internal7details19HasToStringFunctionINSt3__15arrayIfLj15EEEE6$valueE",
   "self_type" : "_ZTIN7android8internal7details19HasToStringFunctionINSt3__15arrayIfLj15EEEE6$valueE",
   "size" : 4,
   "source_file" : "frameworks/native/libs/binder/ndk/include_cpp/android/binder_to_string.h",
   "underlying_type" : "_ZTIj"
  },
  {
   "alignment" : 4,
   "enum_fields" :
   [
    {
     "enum_field_value" : 0,
     "name" : "android::internal::details::HasToStringFunction<std::array<float, 16>>::value"
    }
   ],
   "linker_set_key" : "_ZTIN7android8internal7details19HasToStringFunctionINSt3__15arrayIfLj16EEEE6$valueE",
   "name" : "android::internal::details::HasToStringFunction<std::array<float, 16>>::(unnamed enum at frameworks/native/libs/binder/ndk/include_cpp/android/binder_to_string.h:89:5)",
   "referenced_type" : "_ZTIN7android8internal7details19HasToStringFunctionINSt3__15arrayIfLj16EEEE6$valueE",
   "self_type" : "_ZTIN7android8internal7details19HasToStringFunctionINSt3__15arrayIfLj16EEEE6$valueE",
   "size" : 4,
   "source_file" : "frameworks/native/libs/binder/ndk/include_cpp/android/binder_to_string.h",
   "underlying_type" : "_ZTIj"
  },
  {
   "alignment" : 4,
   "enum_fields" :
   [
    {
     "enum_field_value" : 0,
     "name" : "android::internal::details::HasToStringFunction<std::array<unsigned char, 16>>::value"
    }
   ],
   "linker_set_key" : "_ZTIN7android8internal7details19HasToStringFunctionINSt3__15arrayIhLj16EEEE6$valueE",
   "name" : "android::internal::details::HasToStringFunction<std::array<unsigned char, 16>>::(unnamed enum at frameworks/native/libs/binder/ndk/include_cpp/android/binder_to_string.h:89:5)",
   "referenced_type" : "_ZTIN7android8internal7details19HasToStringFunctionINSt3__15arrayIhLj16EEEE6$valueE",
   "self_type" : "_ZTIN7android8internal7details19HasToStringFunctionINSt3__15arrayIhLj16EEEE6$valueE",
   "size" : 4,
   "source_file" : "frameworks/native/libs/binder/ndk/include_cpp/android/binder_to_string.h",
   "underlying_type" : "_ZTIj"
  },
  {
   "alignment" : 4,
   "enum_fields" :
   [
    {
     "enum_field_value" : 0,
     "name" : "android::internal::details::HasToStringFunction<std::array<int, 14>>::value"
    }
   ],
   "linker_set_key" : "_ZTIN7android8internal7details19HasToStringFunctionINSt3__15arrayIiLj14EEEE6$valueE",
   "name" : "android::internal::details::HasToStringFunction<std::array<int, 14>>::(unnamed enum at frameworks/native/libs/binder/ndk/include_cpp/android/binder_to_string.h:89:5)",
   "referenced_type" : "_ZTIN7android8internal7details19HasToStringFunctionINSt3__15arrayIiLj14EEEE6$valueE",
   "self_type" : "_ZTIN7android8internal7details19HasToStringFunctionINSt3__15arrayIiLj14EEEE6$valueE",
   "size" : 4,
   "source_file" : "frameworks/native/libs/binder/ndk/include_cpp/android/binder_to_string.h",
   "underlying_type" : "_ZTIj"
  },
  {
   "alignment" : 4,
   "enum_fields" :
   [
    {
     "enum_field_value" : 0,
     "name" : "android::internal::details::HasToStringFunction<std::vector<ndk::ScopedFileDescriptor>>::value"
    }
   ],
   "linker_set_key" : "_ZTIN7android8internal7details19HasToStringFunctionINSt3__16vectorIN3ndk20ScopedFileDescriptorENS3_9allocatorIS6_EEEEE6$valueE",
   "name" : "android::internal::details::HasToStringFunction<std::vector<ndk::ScopedFileDescriptor, std::allocator<ndk::ScopedFileDescriptor>>>::(unnamed enum at frameworks/native/libs/binder/ndk/include_cpp/android/binder_to_string.h:89:5)",
   "referenced_type" : "_ZTIN7android8internal7details19HasToStringFunctionINSt3__16vectorIN3ndk20ScopedFileDescriptorENS3_9allocatorIS6_EEEEE6$valueE",
   "self_type" : "_ZTIN7android8internal7details19HasToStringFunctionINSt3__16vectorIN3ndk20ScopedFileDescriptorENS3_9allocatorIS6_EEEEE6$valueE",
   "size" : 4,
   "source_file" : "frameworks/native/libs/binder/ndk/include_cpp/android/binder_to_string.h",
   "underlying_type" : "_ZTIj"
  },
  {
   "alignment" : 4,
   "enum_fields" :
   [
    {
     "enum_field_value" : 0,
     "name" : "android::internal::details::HasToStringFunction<std::vector<int>>::value"
    }
   ],
   "linker_set_key" : "_ZTIN7android8internal7details19HasToStringFunctionINSt3__16vectorIiNS3_9allocatorIiEEEEE6$valueE",
   "name" : "android::internal::details::HasToStringFunction<std::vector<int, std::allocator<int>>>::(unnamed enum at frameworks/native/libs/binder/ndk/include_cpp/android/binder_to_string.h:89:5)",
   "referenced_type" : "_ZTIN7android8internal7details19HasToStringFunctionINSt3__16vectorIiNS3_9allocatorIiEEEEE6$valueE",
   "self_type" : "_ZTIN7android8internal7details19HasToStringFunctionINSt3__16vectorIiNS3_9allocatorIiEEEEE6$valueE",
   "size" : 4,
   "source_file" : "frameworks/native/libs/binder/ndk/include_cpp/android/binder_to_string.h",
   "underlying_type" : "_ZTIj"
  }
 ],
 "function_types" :
 [
  {
   "alignment" : 4,
   "linker_set_key" : "_ZTIFiP8AIBinderjPK7AParcelPS1_E",
   "name" : "int (AIBinder *, unsigned int, const AParcel *, AParcel *)",
   "parameters" :
   [
    {
     "referenced_type" : "_ZTIP8AIBinder"
    },
    {
     "referenced_type" : "_ZTIj"
    },
    {
     "referenced_type" : "_ZTIPK7AParcel"
    },
    {
     "referenced_type" : "_ZTIP7AParcel"
    }
   ],
   "referenced_type" : "_ZTIFiP8AIBinderjPK7AParcelPS1_E",
   "return_type" : "_ZTIi",
   "self_type" : "_ZTIFiP8AIBinderjPK7AParcelPS1_E",
   "source_file" : "frameworks/native/libs/binder/ndk/include_cpp/android/binder_interface_utils.h"
  }
 ],
 "functions" :
 [
  {
   "function_name" : "ndk::BnCInterface<aidl::android::hardware::sensors::ISensorsCallback>::asBinder",
   "linker_set_key" : "_ZN3ndk12BnCInterfaceIN4aidl7android8hardware7sensors16ISensorsCallbackEE8asBinderEv",
   "parameters" :
   [
    {
     "is_this_ptr" : true,
     "referenced_type" : "_ZTIPN3ndk12BnCInterfaceIN4aidl7android8hardware7sensors16ISensorsCallbackEEE"
    }
   ],
   "return_type" : "_ZTIN3ndk10SpAIBinderE",
   "source_file" : "frameworks/native/libs/binder/ndk/include_cpp/android/binder_interface_utils.h"
  },
  {
   "function_name" : "ndk::BnCInterface<aidl::android::hardware::sensors::ISensors>::asBinder",
   "linker_set_key" : "_ZN3ndk12BnCInterfaceIN4aidl7android8hardware7sensors8ISensorsEE8asBinderEv",
   "parameters" :
   [
    {
     "is_this_ptr" : true,
     "referenced_type" : "_ZTIPN3ndk12BnCInterfaceIN4aidl7android8hardware7sensors8ISensorsEEE"
    }
   ],
   "return_type" : "_ZTIN3ndk10SpAIBinderE",
   "source_file" : "frameworks/native/libs/binder/ndk/include_cpp/android/binder_interface_utils.h"
  },
  {
   "function_name" : "ndk::BpCInterface<aidl::android::hardware::sensors::ISensorsCallback>::asBinder",
   "linker_set_key" : "_ZN3ndk12BpCInterfaceIN4aidl7android8hardware7sensors16ISensorsCallbackEE8asBinderEv",
   "parameters" :
   [
    {
     "is_this_ptr" : true,
     "referenced_type" : "_ZTIPN3ndk12BpCInterfaceIN4aidl7android8hardware7sensors16ISensorsCallbackEEE"
    }
   ],
   "return_type" : "_ZTIN3ndk10SpAIBinderE",
   "source_file" : "frameworks/native/libs/binder/ndk/include_cpp/android/binder_interface_utils.h"
  },
  {
   "function_name" : "ndk::BpCInterface<aidl::android::hardware::sensors::ISensors>::asBinder",
   "linker_set_key" : "_ZN3ndk12BpCInterfaceIN4aidl7android8hardware7sensors8ISensorsEE8asBinderEv",
   "parameters" :
   [
    {
     "is_this_ptr" : true,
     "referenced_type" : "_ZTIPN3ndk12BpCInterfaceIN4aidl7android8hardware7sensors8ISensorsEEE"
    }
   ],
   "return_type" : "_ZTIN3ndk10SpAIBinderE",
   "source_file" : "frameworks/native/libs/binder/ndk/include_cpp/android/binder_interface_utils.h"
  },
  {
   "function_name" : "ndk::AParcel_readStdVectorParcelableElement",
   "linker_set_key" : "_ZN3ndk38AParcel_readStdVectorParcelableElementIN4aidl7android8hardware6common3fmq17GrantorDescriptorEEEiPK7AParcelPvj",
   "parameters" :
   [
    {
     "referenced_type" : "_ZTIPK7AParcel"
    },
    {
     "referenced_type" : "_ZTIPv"
    },
    {
     "referenced_type" : "_ZTIj"
    }
   ],
   "return_type" : "_ZTIi",
   "source_file" : "frameworks/native/libs/binder/ndk/include_cpp/android/binder_parcel_utils.h",
   "template_args" :
   [
    "_ZTIN4aidl7android8hardware6common3fmq17GrantorDescriptorE"
   ]
  },
  {
   "function_name" : "ndk::AParcel_readStdVectorParcelableElement",
   "linker_set_key" : "_ZN3ndk38AParcel_readStdVectorParcelableElementIN4aidl7android8hardware7sensors10SensorInfoEEEiPK7AParcelPvj",
   "parameters" :
   [
    {
     "referenced_type" : "_ZTIPK7AParcel"
    },
    {
     "referenced_type" : "_ZTIPv"
    },
    {
     "referenced_type" : "_ZTIj"
    }
   ],
   "return_type" : "_ZTIi",
   "source_file" : "frameworks/native/libs/binder/ndk/include_cpp/android/binder_parcel_utils.h",
   "template_args" :
   [
    "_ZTIN4aidl7android8hardware7sensors10SensorInfoE"
   ]
  },
  {
   "function_name" : "ndk::AParcel_writeStdVectorParcelableElement",
   "linker_set_key" : "_ZN3ndk39AParcel_writeStdVectorParcelableElementIN4aidl7android8hardware6common3fmq17GrantorDescriptorEEEiP7AParcelPKvj",
   "parameters" :
   [
    {
     "referenced_type" : "_ZTIP7AParcel"
    },
    {
     "referenced_type" : "_ZTIPKv"
    },
    {
     "referenced_type" : "_ZTIj"
    }
   ],
   "return_type" : "_ZTIi",
   "source_file" : "frameworks/native/libs/binder/ndk/include_cpp/android/binder_parcel_utils.h",
   "template_args" :
   [
    "_ZTIN4aidl7android8hardware6common3fmq17GrantorDescriptorE"
   ]
  },
  {
   "function_name" : "ndk::AParcel_writeStdVectorParcelableElement",
   "linker_set_key" : "_ZN3ndk39AParcel_writeStdVectorParcelableElementIN4aidl7android8hardware7sensors10SensorInfoEEEiP7AParcelPKvj",
   "parameters" :
   [
    {
     "referenced_type" : "_ZTIP7AParcel"
    },
    {
     "referenced_type" : "_ZTIPKv"
    },
    {
     "referenced_type" : "_ZTIj"
    }
   ],
   "return_type" : "_ZTIi",
   "source_file" : "frameworks/native/libs/binder/ndk/include_cpp/android/binder_parcel_utils.h",
   "template_args" :
   [
    "_ZTIN4aidl7android8hardware7sensors10SensorInfoE"
   ]
  },
  {
   "function_name" : "aidl::android::hardware::common::fmq::MQDescriptor<aidl::android::hardware::sensors::Event, aidl::android::hardware::common::fmq::SynchronizedReadWrite>::readFromParcel",
   "linker_set_key" : "_ZN4aidl7android8hardware6common3fmq12MQDescriptorINS1_7sensors5EventENS3_21SynchronizedReadWriteEE14readFromParcelEPK7AParcel",
   "parameters" :
   [
    {
     "is_this_ptr" : true,
     "referenced_type" : "_ZTIPN4aidl7android8hardware6common3fmq12MQDescriptorINS1_7sensors5EventENS3_21SynchronizedReadWriteEEE"
    },
    {
     "referenced_type" : "_ZTIPK7AParcel"
    }
   ],
   "return_type" : "_ZTIi",
   "source_file" : "out/soong/.intermediates/hardware/interfaces/common/fmq/aidl/android.hardware.common.fmq-V1-ndk-source/gen/include/aidl/android/hardware/common/fmq/MQDescriptor.h"
  },
  {
   "function_name" : "aidl::android::hardware::common::fmq::MQDescriptor<int, aidl::android::hardware::common::fmq::SynchronizedReadWrite>::readFromParcel",
   "linker_set_key" : "_ZN4aidl7android8hardware6common3fmq12MQDescriptorIiNS3_21SynchronizedReadWriteEE14readFromParcelEPK7AParcel",
   "parameters" :
   [
    {
     "is_this_ptr" : true,
     "referenced_type" : "_ZTIPN4aidl7android8hardware6common3fmq12MQDescriptorIiNS3_21SynchronizedReadWriteEEE"
    },
    {
     "referenced_type" : "_ZTIPK7AParcel"
    }
   ],
   "return_type" : "_ZTIi",
   "source_file" : "out/soong/.intermediates/hardware/interfaces/common/fmq/aidl/android.hardware.common.fmq-V1-ndk-source/gen/include/aidl/android/hardware/common/fmq/MQDescriptor.h"
  },
  {
   "function_name" : "aidl::android::hardware::sensors::SensorInfo::readFromParcel",
   "linker_set_key" : "_ZN4aidl7android8hardware7sensors10SensorInfo14readFromParcelEPK7AParcel",
   "parameters" :
   [
    {
     "is_this_ptr" : true,
     "referenced_type" : "_ZTIPN4aidl7android8hardware7sensors10SensorInfoE"
    },
    {
     "referenced_type" : "_ZTIPK7AParcel"
    }
   ],
   "return_type" : "_ZTIi",
   "source_file" : "out/soong/.intermediates/hardware/interfaces/sensors/aidl/android.hardware.sensors-V1-ndk-source/gen/include/aidl/android/hardware/sensors/SensorInfo.h"
  },
  {
   "function_name" : "aidl::android::hardware::sensors::AdditionalInfo::readFromParcel",
   "linker_set_key" : "_ZN4aidl7android8hardware7sensors14AdditionalInfo14readFromParcelEPK7AParcel",
   "parameters" :
   [
    {
     "is_this_ptr" : true,
     "referenced_type" : "_ZTIPN4aidl7android8hardware7sensors14AdditionalInfoE"
    },
    {
     "referenced_type" : "_ZTIPK7AParcel"
    }
   ],
   "return_type" : "_ZTIi",
   "source_file" : "out/soong/.intermediates/hardware/interfaces/sensors/aidl/android.hardware.sensors-V1-ndk-source/gen/include/aidl/android/hardware/sensors/AdditionalInfo.h"
  },
  {
   "function_name" : "aidl::android::hardware::sensors::AdditionalInfo::AdditionalInfoPayload::FloatValues::readFromParcel",
   "linker_set_key" : "_ZN4aidl7android8hardware7sensors14AdditionalInfo21AdditionalInfoPayload11FloatValues14readFromParcelEPK7AParcel",
   "parameters" :
   [
    {
     "is_this_ptr" : true,
     "referenced_type" : "_ZTIPN4aidl7android8hardware7sensors14AdditionalInfo21AdditionalInfoPayload11FloatValuesE"
    },
    {
     "referenced_type" : "_ZTIPK7AParcel"
    }
   ],
   "return_type" : "_ZTIi",
   "source_file" : "out/soong/.intermediates/hardware/interfaces/sensors/aidl/android.hardware.sensors-V1-ndk-source/gen/include/aidl/android/hardware/sensors/AdditionalInfo.h"
  },
  {
   "function_name" : "aidl::android::hardware::sensors::AdditionalInfo::AdditionalInfoPayload::Int32Values::readFromParcel",
   "linker_set_key" : "_ZN4aidl7android8hardware7sensors14AdditionalInfo21AdditionalInfoPayload11Int32Values14readFromParcelEPK7AParcel",
   "parameters" :
   [
    {
     "is_this_ptr" : true,
     "referenced_type" : "_ZTIPN4aidl7android8hardware7sensors14AdditionalInfo21AdditionalInfoPayload11Int32ValuesE"
    },
    {
     "referenced_type" : "_ZTIPK7AParcel"
    }
   ],
   "return_type" : "_ZTIi",
   "source_file" : "out/soong/.intermediates/hardware/interfaces/sensors/aidl/android.hardware.sensors-V1-ndk-source/gen/include/aidl/android/hardware/sensors/AdditionalInfo.h"
  },
  {
   "function_name" : "aidl::android::hardware::sensors::AdditionalInfo::AdditionalInfoPayload::readFromParcel",
   "linker_set_key" : "_ZN4aidl7android8hardware7sensors14AdditionalInfo21AdditionalInfoPayload14readFromParcelEPK7AParcel",
   "parameters" :
   [
    {
     "is_this_ptr" : true,
     "referenced_type" : "_ZTIPN4aidl7android8hardware7sensors14AdditionalInfo21AdditionalInfoPayloadE"
    },
    {
     "referenced_type" : "_ZTIPK7AParcel"
    }
   ],
   "return_type" : "_ZTIi",
   "source_file" : "out/soong/.intermediates/hardware/interfaces/sensors/aidl/android.hardware.sensors-V1-ndk-source/gen/include/aidl/android/hardware/sensors/AdditionalInfo.h"
  },
  {
   "function_name" : "aidl::android::hardware::sensors::ISensorsDefault::initialize",
   "linker_set_key" : "_ZN4aidl7android8hardware7sensors15ISensorsDefault10initializeERKNS1_6common3fmq12MQDescriptorINS2_5EventENS5_21SynchronizedReadWriteEEERKNS6_IiS8_EERKNSt3__110shared_ptrINS2_16ISensorsCallbackEEE",
   "parameters" :
   [
    {
     "is_this_ptr" : true,
     "referenced_type" : "_ZTIPN4aidl7android8hardware7sensors15ISensorsDefaultE"
    },
    {
     "referenced_type" : "_ZTIRKN4aidl7android8hardware6common3fmq12MQDescriptorINS1_7sensors5EventENS3_21SynchronizedReadWriteEEE"
    },
    {
     "referenced_type" : "_ZTIRKN4aidl7android8hardware6common3fmq12MQDescriptorIiNS3_21SynchronizedReadWriteEEE"
    },
    {
     "referenced_type" : "_ZTIRKNSt3__110shared_ptrIN4aidl7android8hardware7sensors16ISensorsCallbackEEE"
    }
   ],
   "return_type" : "_ZTIN3ndk13ScopedAStatusE",
   "source_file" : "out/soong/.intermediates/hardware/interfaces/sensors/aidl/android.hardware.sensors-V1-ndk-source/gen/include/aidl/android/hardware/sensors/ISensors.h"
  },
  {
   "function_name" : "aidl::android::hardware::sensors::ISensorsDefault::getSensorsList",
   "linker_set_key" : "_ZN4aidl7android8hardware7sensors15ISensorsDefault14getSensorsListEPNSt3__16vectorINS2_10SensorInfoENS4_9allocatorIS6_EEEE",
   "parameters" :
   [
    {
     "is_this_ptr" : true,
     "referenced_type" : "_ZTIPN4aidl7android8hardware7sensors15ISensorsDefaultE"
    },
    {
     "referenced_type" : "_ZTIPNSt3__16vectorIN4aidl7android8hardware7sensors10SensorInfoENS_9allocatorIS5_EEEE"
    }
   ],
   "return_type" : "_ZTIN3ndk13ScopedAStatusE",
   "source_file" : "out/soong/.intermediates/hardware/interfaces/sensors/aidl/android.hardware.sensors-V1-ndk-source/gen/include/aidl/android/hardware/sensors/ISensors.h"
  },
  {
   "function_name" : "aidl::android::hardware::sensors::ISensorsDefault::getInterfaceHash",
   "linker_set_key" : "_ZN4aidl7android8hardware7sensors15ISensorsDefault16getInterfaceHashEPNSt3__112basic_stringIcNS4_11char_traitsIcEENS4_9allocatorIcEEEE",
   "parameters" :
   [
    {
     "is_this_ptr" : true,
     "referenced_type" : "_ZTIPN4aidl7android8hardware7sensors15ISensorsDefaultE"
    },
    {
     "referenced_type" : "_ZTIPNSt3__112basic_stringIcNS_11char_traitsIcEENS_9allocatorIcEEEE"
    }
   ],
   "return_type" : "_ZTIN3ndk13ScopedAStatusE",
   "source_file" : "out/soong/.intermediates/hardware/interfaces/sensors/aidl/android.hardware.sensors-V1-ndk-source/gen/include/aidl/android/hardware/sensors/ISensors.h"
  },
  {
   "function_name" : "aidl::android::hardware::sensors::ISensorsDefault::injectSensorData",
   "linker_set_key" : "_ZN4aidl7android8hardware7sensors15ISensorsDefault16injectSensorDataERKNS2_5EventE",
   "parameters" :
   [
    {
     "is_this_ptr" : true,
     "referenced_type" : "_ZTIPN4aidl7android8hardware7sensors15ISensorsDefaultE"
    },
    {
     "referenced_type" : "_ZTIRKN4aidl7android8hardware7sensors5EventE"
    }
   ],
   "return_type" : "_ZTIN3ndk13ScopedAStatusE",
   "source_file" : "out/soong/.intermediates/hardware/interfaces/sensors/aidl/android.hardware.sensors-V1-ndk-source/gen/include/aidl/android/hardware/sensors/ISensors.h"
  },
  {
   "function_name" : "aidl::android::hardware::sensors::ISensorsDefault::setOperationMode",
   "linker_set_key" : "_ZN4aidl7android8hardware7sensors15ISensorsDefault16setOperationModeENS2_8ISensors13OperationModeE",
   "parameters" :
   [
    {
     "is_this_ptr" : true,
     "referenced_type" : "_ZTIPN4aidl7android8hardware7sensors15ISensorsDefaultE"
    },
    {
     "referenced_type" : "_ZTIN4aidl7android8hardware7sensors8ISensors13OperationModeE"
    }
   ],
   "return_type" : "_ZTIN3ndk13ScopedAStatusE",
   "source_file" : "out/soong/.intermediates/hardware/interfaces/sensors/aidl/android.hardware.sensors-V1-ndk-source/gen/include/aidl/android/hardware/sensors/ISensors.h"
  },
  {
   "function_name" : "aidl::android::hardware::sensors::ISensorsDefault::configDirectReport",
   "linker_set_key" : "_ZN4aidl7android8hardware7sensors15ISensorsDefault18configDirectReportEiiNS2_8ISensors9RateLevelEPi",
   "parameters" :
   [
    {
     "is_this_ptr" : true,
     "referenced_type" : "_ZTIPN4aidl7android8hardware7sensors15ISensorsDefaultE"
    },
    {
     "referenced_type" : "_ZTIi"
    },
    {
     "referenced_type" : "_ZTIi"
    },
    {
     "referenced_type" : "_ZTIN4aidl7android8hardware7sensors8ISensors9RateLevelE"
    },
    {
     "referenced_type" : "_ZTIPi"
    }
   ],
   "return_type" : "_ZTIN3ndk13ScopedAStatusE",
   "source_file" : "out/soong/.intermediates/hardware/interfaces/sensors/aidl/android.hardware.sensors-V1-ndk-source/gen/include/aidl/android/hardware/sensors/ISensors.h"
  },
  {
   "function_name" : "aidl::android::hardware::sensors::ISensorsDefault::getInterfaceVersion",
   "linker_set_key" : "_ZN4aidl7android8hardware7sensors15ISensorsDefault19getInterfaceVersionEPi",
   "parameters" :
   [
    {
     "is_this_ptr" : true,
     "referenced_type" : "_ZTIPN4aidl7android8hardware7sensors15ISensorsDefaultE"
    },
    {
     "referenced_type" : "_ZTIPi"
    }
   ],
   "return_type" : "_ZTIN3ndk13ScopedAStatusE",
   "source_file" : "out/soong/.intermediates/hardware/interfaces/sensors/aidl/android.hardware.sensors-V1-ndk-source/gen/include/aidl/android/hardware/sensors/ISensors.h"
  },
  {
   "function_name" : "aidl::android::hardware::sensors::ISensorsDefault::registerDirectChannel",
   "linker_set_key" : "_ZN4aidl7android8hardware7sensors15ISensorsDefault21registerDirectChannelERKNS2_8ISensors13SharedMemInfoEPi",
   "parameters" :
   [
    {
     "is_this_ptr" : true,
     "referenced_type" : "_ZTIPN4aidl7android8hardware7sensors15ISensorsDefaultE"
    },
    {
     "referenced_type" : "_ZTIRKN4aidl7android8hardware7sensors8ISensors13SharedMemInfoE"
    },
    {
     "referenced_type" : "_ZTIPi"
    }
   ],
   "return_type" : "_ZTIN3ndk13ScopedAStatusE",
   "source_file" : "out/soong/.intermediates/hardware/interfaces/sensors/aidl/android.hardware.sensors-V1-ndk-source/gen/include/aidl/android/hardware/sensors/ISensors.h"
  },
  {
   "function_name" : "aidl::android::hardware::sensors::ISensorsDefault::unregisterDirectChannel",
   "linker_set_key" : "_ZN4aidl7android8hardware7sensors15ISensorsDefault23unregisterDirectChannelEi",
   "parameters" :
   [
    {
     "is_this_ptr" : true,
     "referenced_type" : "_ZTIPN4aidl7android8hardware7sensors15ISensorsDefaultE"
    },
    {
     "referenced_type" : "_ZTIi"
    }
   ],
   "return_type" : "_ZTIN3ndk13ScopedAStatusE",
   "source_file" : "out/soong/.intermediates/hardware/interfaces/sensors/aidl/android.hardware.sensors-V1-ndk-source/gen/include/aidl/android/hardware/sensors/ISensors.h"
  },
  {
   "function_name" : "aidl::android::hardware::sensors::ISensorsDefault::batch",
   "linker_set_key" : "_ZN4aidl7android8hardware7sensors15ISensorsDefault5batchEixx",
   "parameters" :
   [
    {
     "is_this_ptr" : true,
     "referenced_type" : "_ZTIPN4aidl7android8hardware7sensors15ISensorsDefaultE"
    },
    {
     "referenced_type" : "_ZTIi"
    },
    {
     "referenced_type" : "_ZTIx"
    },
    {
     "referenced_type" : "_ZTIx"
    }
   ],
   "return_type" : "_ZTIN3ndk13ScopedAStatusE",
   "source_file" : "out/soong/.intermediates/hardware/interfaces/sensors/aidl/android.hardware.sensors-V1-ndk-source/gen/include/aidl/android/hardware/sensors/ISensors.h"
  },
  {
   "function_name" : "aidl::android::hardware::sensors::ISensorsDefault::flush",
   "linker_set_key" : "_ZN4aidl7android8hardware7sensors15ISensorsDefault5flushEi",
   "parameters" :
   [
    {
     "is_this_ptr" : true,
     "referenced_type" : "_ZTIPN4aidl7android8hardware7sensors15ISensorsDefaultE"
    },
    {
     "referenced_type" : "_ZTIi"
    }
   ],
   "return_type" : "_ZTIN3ndk13ScopedAStatusE",
   "source_file" : "out/soong/.intermediates/hardware/interfaces/sensors/aidl/android.hardware.sensors-V1-ndk-source/gen/include/aidl/android/hardware/sensors/ISensors.h"
  },
  {
   "function_name" : "aidl::android::hardware::sensors::ISensorsDefault::activate",
   "linker_set_key" : "_ZN4aidl7android8hardware7sensors15ISensorsDefault8activateEib",
   "parameters" :
   [
    {
     "is_this_ptr" : true,
     "referenced_type" : "_ZTIPN4aidl7android8hardware7sensors15ISensorsDefaultE"
    },
    {
     "referenced_type" : "_ZTIi"
    },
    {
     "referenced_type" : "_ZTIb"
    }
   ],
   "return_type" : "_ZTIN3ndk13ScopedAStatusE",
   "source_file" : "out/soong/.intermediates/hardware/interfaces/sensors/aidl/android.hardware.sensors-V1-ndk-source/gen/include/aidl/android/hardware/sensors/ISensors.h"
  },
  {
   "function_name" : "aidl::android::hardware::sensors::ISensorsDefault::asBinder",
   "linker_set_key" : "_ZN4aidl7android8hardware7sensors15ISensorsDefault8asBinderEv",
   "parameters" :
   [
    {
     "is_this_ptr" : true,
     "referenced_type" : "_ZTIPN4aidl7android8hardware7sensors15ISensorsDefaultE"
    }
   ],
   "return_type" : "_ZTIN3ndk10SpAIBinderE",
   "source_file" : "out/soong/.intermediates/hardware/interfaces/sensors/aidl/android.hardware.sensors-V1-ndk-source/gen/include/aidl/android/hardware/sensors/ISensors.h"
  },
  {
   "function_name" : "aidl::android::hardware::sensors::ISensorsDefault::isRemote",
   "linker_set_key" : "_ZN4aidl7android8hardware7sensors15ISensorsDefault8isRemoteEv",
   "parameters" :
   [
    {
     "is_this_ptr" : true,
     "referenced_type" : "_ZTIPN4aidl7android8hardware7sensors15ISensorsDefaultE"
    }
   ],
   "return_type" : "_ZTIb",
   "source_file" : "out/soong/.intermediates/hardware/interfaces/sensors/aidl/android.hardware.sensors-V1-ndk-source/gen/include/aidl/android/hardware/sensors/ISensors.h"
  },
  {
   "function_name" : "aidl::android::hardware::sensors::ISensorsCallback::fromBinder",
   "linker_set_key" : "_ZN4aidl7android8hardware7sensors16ISensorsCallback10fromBinderERKN3ndk10SpAIBinderE",
   "parameters" :
   [
    {
     "referenced_type" : "_ZTIRKN3ndk10SpAIBinderE"
    }
   ],
   "return_type" : "_ZTINSt3__110shared_ptrIN4aidl7android8hardware7sensors16ISensorsCallbackEEE",
   "source_file" : "out/soong/.intermediates/hardware/interfaces/sensors/aidl/android.hardware.sensors-V1-ndk-source/gen/include/aidl/android/hardware/sensors/ISensorsCallback.h"
  },
  {
   "function_name" : "aidl::android::hardware::sensors::ISensorsCallback::writeToParcel",
   "linker_set_key" : "_ZN4aidl7android8hardware7sensors16ISensorsCallback13writeToParcelEP7AParcelRKNSt3__110shared_ptrIS3_EE",
   "parameters" :
   [
    {
     "referenced_type" : "_ZTIP7AParcel"
    },
    {
     "referenced_type" : "_ZTIRKNSt3__110shared_ptrIN4aidl7android8hardware7sensors16ISensorsCallbackEEE"
    }
   ],
   "return_type" : "_ZTIi",
   "source_file" : "out/soong/.intermediates/hardware/interfaces/sensors/aidl/android.hardware.sensors-V1-ndk-source/gen/include/aidl/android/hardware/sensors/ISensorsCallback.h"
  },
  {
   "function_name" : "aidl::android::hardware::sensors::ISensorsCallback::getDefaultImpl",
   "linker_set_key" : "_ZN4aidl7android8hardware7sensors16ISensorsCallback14getDefaultImplEv",
   "return_type" : "_ZTIRKNSt3__110shared_ptrIN4aidl7android8hardware7sensors16ISensorsCallbackEEE",
   "source_file" : "out/soong/.intermediates/hardware/interfaces/sensors/aidl/android.hardware.sensors-V1-ndk-source/gen/include/aidl/android/hardware/sensors/ISensorsCallback.h"
  },
  {
   "function_name" : "aidl::android::hardware::sensors::ISensorsCallback::readFromParcel",
   "linker_set_key" : "_ZN4aidl7android8hardware7sensors16ISensorsCallback14readFromParcelEPK7AParcelPNSt3__110shared_ptrIS3_EE",
   "parameters" :
   [
    {
     "referenced_type" : "_ZTIPK7AParcel"
    },
    {
     "referenced_type" : "_ZTIPNSt3__110shared_ptrIN4aidl7android8hardware7sensors16ISensorsCallbackEEE"
    }
   ],
   "return_type" : "_ZTIi",
   "source_file" : "out/soong/.intermediates/hardware/interfaces/sensors/aidl/android.hardware.sensors-V1-ndk-source/gen/include/aidl/android/hardware/sensors/ISensorsCallback.h"
  },
  {
   "function_name" : "aidl::android::hardware::sensors::ISensorsCallback::setDefaultImpl",
   "linker_set_key" : "_ZN4aidl7android8hardware7sensors16ISensorsCallback14setDefaultImplERKNSt3__110shared_ptrIS3_EE",
   "parameters" :
   [
    {
     "referenced_type" : "_ZTIRKNSt3__110shared_ptrIN4aidl7android8hardware7sensors16ISensorsCallbackEEE"
    }
   ],
   "return_type" : "_ZTIb",
   "source_file" : "out/soong/.intermediates/hardware/interfaces/sensors/aidl/android.hardware.sensors-V1-ndk-source/gen/include/aidl/android/hardware/sensors/ISensorsCallback.h"
  },
  {
   "function_name" : "aidl::android::hardware::sensors::ISensorsCallback::ISensorsCallback",
   "linker_set_key" : "_ZN4aidl7android8hardware7sensors16ISensorsCallbackC2Ev",
   "parameters" :
   [
    {
     "is_this_ptr" : true,
     "referenced_type" : "_ZTIPN4aidl7android8hardware7sensors16ISensorsCallbackE"
    }
   ],
   "return_type" : "_ZTIv",
   "source_file" : "out/soong/.intermediates/hardware/interfaces/sensors/aidl/android.hardware.sensors-V1-ndk-source/gen/include/aidl/android/hardware/sensors/ISensorsCallback.h"
  },
  {
   "function_name" : "aidl::android::hardware::sensors::ISensorsCallback::~ISensorsCallback",
   "linker_set_key" : "_ZN4aidl7android8hardware7sensors16ISensorsCallbackD0Ev",
   "parameters" :
   [
    {
     "is_this_ptr" : true,
     "referenced_type" : "_ZTIPN4aidl7android8hardware7sensors16ISensorsCallbackE"
    }
   ],
   "return_type" : "_ZTIv",
   "source_file" : "out/soong/.intermediates/hardware/interfaces/sensors/aidl/android.hardware.sensors-V1-ndk-source/gen/include/aidl/android/hardware/sensors/ISensorsCallback.h"
  },
  {
   "function_name" : "aidl::android::hardware::sensors::ISensorsCallback::~ISensorsCallback",
   "linker_set_key" : "_ZN4aidl7android8hardware7sensors16ISensorsCallbackD1Ev",
   "parameters" :
   [
    {
     "is_this_ptr" : true,
     "referenced_type" : "_ZTIPN4aidl7android8hardware7sensors16ISensorsCallbackE"
    }
   ],
   "return_type" : "_ZTIv",
   "source_file" : "out/soong/.intermediates/hardware/interfaces/sensors/aidl/android.hardware.sensors-V1-ndk-source/gen/include/aidl/android/hardware/sensors/ISensorsCallback.h"
  },
  {
   "function_name" : "aidl::android::hardware::sensors::ISensorsCallback::~ISensorsCallback",
   "linker_set_key" : "_ZN4aidl7android8hardware7sensors16ISensorsCallbackD2Ev",
   "parameters" :
   [
    {
     "is_this_ptr" : true,
     "referenced_type" : "_ZTIPN4aidl7android8hardware7sensors16ISensorsCallbackE"
    }
   ],
   "return_type" : "_ZTIv",
   "source_file" : "out/soong/.intermediates/hardware/interfaces/sensors/aidl/android.hardware.sensors-V1-ndk-source/gen/include/aidl/android/hardware/sensors/ISensorsCallback.h"
  },
  {
   "access" : "protected",
   "function_name" : "aidl::android::hardware::sensors::BnSensorsCallback::createBinder",
   "linker_set_key" : "_ZN4aidl7android8hardware7sensors17BnSensorsCallback12createBinderEv",
   "parameters" :
   [
    {
     "is_this_ptr" : true,
     "referenced_type" : "_ZTIPN4aidl7android8hardware7sensors17BnSensorsCallbackE"
    }
   ],
   "return_type" : "_ZTIN3ndk10SpAIBinderE",
   "source_file" : "out/soong/.intermediates/hardware/interfaces/sensors/aidl/android.hardware.sensors-V1-ndk-source/gen/include/aidl/android/hardware/sensors/BnSensorsCallback.h"
  },
  {
   "function_name" : "aidl::android::hardware::sensors::BnSensorsCallback::getInterfaceHash",
   "linker_set_key" : "_ZN4aidl7android8hardware7sensors17BnSensorsCallback16getInterfaceHashEPNSt3__112basic_stringIcNS4_11char_traitsIcEENS4_9allocatorIcEEEE",
   "parameters" :
   [
    {
     "is_this_ptr" : true,
     "referenced_type" : "_ZTIPN4aidl7android8hardware7sensors17BnSensorsCallbackE"
    },
    {
     "referenced_type" : "_ZTIPNSt3__112basic_stringIcNS_11char_traitsIcEENS_9allocatorIcEEEE"
    }
   ],
   "return_type" : "_ZTIN3ndk13ScopedAStatusE",
   "source_file" : "out/soong/.intermediates/hardware/interfaces/sensors/aidl/android.hardware.sensors-V1-ndk-source/gen/include/aidl/android/hardware/sensors/BnSensorsCallback.h"
  },
  {
   "function_name" : "aidl::android::hardware::sensors::BnSensorsCallback::getInterfaceVersion",
   "linker_set_key" : "_ZN4aidl7android8hardware7sensors17BnSensorsCallback19getInterfaceVersionEPi",
   "parameters" :
   [
    {
     "is_this_ptr" : true,
     "referenced_type" : "_ZTIPN4aidl7android8hardware7sensors17BnSensorsCallbackE"
    },
    {
     "referenced_type" : "_ZTIPi"
    }
   ],
   "return_type" : "_ZTIN3ndk13ScopedAStatusE",
   "source_file" : "out/soong/.intermediates/hardware/interfaces/sensors/aidl/android.hardware.sensors-V1-ndk-source/gen/include/aidl/android/hardware/sensors/BnSensorsCallback.h"
  },
  {
   "function_name" : "aidl::android::hardware::sensors::BnSensorsCallback::BnSensorsCallback",
   "linker_set_key" : "_ZN4aidl7android8hardware7sensors17BnSensorsCallbackC2Ev",
   "parameters" :
   [
    {
     "is_this_ptr" : true,
     "referenced_type" : "_ZTIPN4aidl7android8hardware7sensors17BnSensorsCallbackE"
    }
   ],
   "return_type" : "_ZTIv",
   "source_file" : "out/soong/.intermediates/hardware/interfaces/sensors/aidl/android.hardware.sensors-V1-ndk-source/gen/include/aidl/android/hardware/sensors/BnSensorsCallback.h"
  },
  {
   "function_name" : "aidl::android::hardware::sensors::BnSensorsCallback::~BnSensorsCallback",
   "linker_set_key" : "_ZN4aidl7android8hardware7sensors17BnSensorsCallbackD0Ev",
   "parameters" :
   [
    {
     "is_this_ptr" : true,
     "referenced_type" : "_ZTIPN4aidl7android8hardware7sensors17BnSensorsCallbackE"
    }
   ],
   "return_type" : "_ZTIv",
   "source_file" : "out/soong/.intermediates/hardware/interfaces/sensors/aidl/android.hardware.sensors-V1-ndk-source/gen/include/aidl/android/hardware/sensors/BnSensorsCallback.h"
  },
  {
   "function_name" : "aidl::android::hardware::sensors::BnSensorsCallback::~BnSensorsCallback",
   "linker_set_key" : "_ZN4aidl7android8hardware7sensors17BnSensorsCallbackD1Ev",
   "parameters" :
   [
    {
     "is_this_ptr" : true,
     "referenced_type" : "_ZTIPN4aidl7android8hardware7sensors17BnSensorsCallbackE"
    }
   ],
   "return_type" : "_ZTIv",
   "source_file" : "out/soong/.intermediates/hardware/interfaces/sensors/aidl/android.hardware.sensors-V1-ndk-source/gen/include/aidl/android/hardware/sensors/BnSensorsCallback.h"
  },
  {
   "function_name" : "aidl::android::hardware::sensors::BnSensorsCallback::~BnSensorsCallback",
   "linker_set_key" : "_ZN4aidl7android8hardware7sensors17BnSensorsCallbackD2Ev",
   "parameters" :
   [
    {
     "is_this_ptr" : true,
     "referenced_type" : "_ZTIPN4aidl7android8hardware7sensors17BnSensorsCallbackE"
    }
   ],
   "return_type" : "_ZTIv",
   "source_file" : "out/soong/.intermediates/hardware/interfaces/sensors/aidl/android.hardware.sensors-V1-ndk-source/gen/include/aidl/android/hardware/sensors/BnSensorsCallback.h"
  },
  {
   "function_name" : "aidl::android::hardware::sensors::BpSensorsCallback::getInterfaceHash",
   "linker_set_key" : "_ZN4aidl7android8hardware7sensors17BpSensorsCallback16getInterfaceHashEPNSt3__112basic_stringIcNS4_11char_traitsIcEENS4_9allocatorIcEEEE",
   "parameters" :
   [
    {
     "is_this_ptr" : true,
     "referenced_type" : "_ZTIPN4aidl7android8hardware7sensors17BpSensorsCallbackE"
    },
    {
     "referenced_type" : "_ZTIPNSt3__112basic_stringIcNS_11char_traitsIcEENS_9allocatorIcEEEE"
    }
   ],
   "return_type" : "_ZTIN3ndk13ScopedAStatusE",
   "source_file" : "out/soong/.intermediates/hardware/interfaces/sensors/aidl/android.hardware.sensors-V1-ndk-source/gen/include/aidl/android/hardware/sensors/BpSensorsCallback.h"
  },
  {
   "function_name" : "aidl::android::hardware::sensors::BpSensorsCallback::getInterfaceVersion",
   "linker_set_key" : "_ZN4aidl7android8hardware7sensors17BpSensorsCallback19getInterfaceVersionEPi",
   "parameters" :
   [
    {
     "is_this_ptr" : true,
     "referenced_type" : "_ZTIPN4aidl7android8hardware7sensors17BpSensorsCallbackE"
    },
    {
     "referenced_type" : "_ZTIPi"
    }
   ],
   "return_type" : "_ZTIN3ndk13ScopedAStatusE",
   "source_file" : "out/soong/.intermediates/hardware/interfaces/sensors/aidl/android.hardware.sensors-V1-ndk-source/gen/include/aidl/android/hardware/sensors/BpSensorsCallback.h"
  },
  {
   "function_name" : "aidl::android::hardware::sensors::BpSensorsCallback::onDynamicSensorsConnected",
   "linker_set_key" : "_ZN4aidl7android8hardware7sensors17BpSensorsCallback25onDynamicSensorsConnectedERKNSt3__16vectorINS2_10SensorInfoENS4_9allocatorIS6_EEEE",
   "parameters" :
   [
    {
     "is_this_ptr" : true,
     "referenced_type" : "_ZTIPN4aidl7android8hardware7sensors17BpSensorsCallbackE"
    },
    {
     "referenced_type" : "_ZTIRKNSt3__16vectorIN4aidl7android8hardware7sensors10SensorInfoENS_9allocatorIS5_EEEE"
    }
   ],
   "return_type" : "_ZTIN3ndk13ScopedAStatusE",
   "source_file" : "out/soong/.intermediates/hardware/interfaces/sensors/aidl/android.hardware.sensors-V1-ndk-source/gen/include/aidl/android/hardware/sensors/BpSensorsCallback.h"
  },
  {
   "function_name" : "aidl::android::hardware::sensors::BpSensorsCallback::onDynamicSensorsDisconnected",
   "linker_set_key" : "_ZN4aidl7android8hardware7sensors17BpSensorsCallback28onDynamicSensorsDisconnectedERKNSt3__16vectorIiNS4_9allocatorIiEEEE",
   "parameters" :
   [
    {
     "is_this_ptr" : true,
     "referenced_type" : "_ZTIPN4aidl7android8hardware7sensors17BpSensorsCallbackE"
    },
    {
     "referenced_type" : "_ZTIRKNSt3__16vectorIiNS_9allocatorIiEEEE"
    }
   ],
   "return_type" : "_ZTIN3ndk13ScopedAStatusE",
   "source_file" : "out/soong/.intermediates/hardware/interfaces/sensors/aidl/android.hardware.sensors-V1-ndk-source/gen/include/aidl/android/hardware/sensors/BpSensorsCallback.h"
  },
  {
   "function_name" : "aidl::android::hardware::sensors::BpSensorsCallback::BpSensorsCallback",
   "linker_set_key" : "_ZN4aidl7android8hardware7sensors17BpSensorsCallbackC1ERKN3ndk10SpAIBinderE",
   "parameters" :
   [
    {
     "is_this_ptr" : true,
     "referenced_type" : "_ZTIPN4aidl7android8hardware7sensors17BpSensorsCallbackE"
    },
    {
     "referenced_type" : "_ZTIRKN3ndk10SpAIBinderE"
    }
   ],
   "return_type" : "_ZTIv",
   "source_file" : "out/soong/.intermediates/hardware/interfaces/sensors/aidl/android.hardware.sensors-V1-ndk-source/gen/include/aidl/android/hardware/sensors/BpSensorsCallback.h"
  },
  {
   "function_name" : "aidl::android::hardware::sensors::BpSensorsCallback::BpSensorsCallback",
   "linker_set_key" : "_ZN4aidl7android8hardware7sensors17BpSensorsCallbackC2ERKN3ndk10SpAIBinderE",
   "parameters" :
   [
    {
     "is_this_ptr" : true,
     "referenced_type" : "_ZTIPN4aidl7android8hardware7sensors17BpSensorsCallbackE"
    },
    {
     "referenced_type" : "_ZTIRKN3ndk10SpAIBinderE"
    }
   ],
   "return_type" : "_ZTIv",
   "source_file" : "out/soong/.intermediates/hardware/interfaces/sensors/aidl/android.hardware.sensors-V1-ndk-source/gen/include/aidl/android/hardware/sensors/BpSensorsCallback.h"
  },
  {
   "function_name" : "aidl::android::hardware::sensors::BpSensorsCallback::~BpSensorsCallback",
   "linker_set_key" : "_ZN4aidl7android8hardware7sensors17BpSensorsCallbackD0Ev",
   "parameters" :
   [
    {
     "is_this_ptr" : true,
     "referenced_type" : "_ZTIPN4aidl7android8hardware7sensors17BpSensorsCallbackE"
    }
   ],
   "return_type" : "_ZTIv",
   "source_file" : "out/soong/.intermediates/hardware/interfaces/sensors/aidl/android.hardware.sensors-V1-ndk-source/gen/include/aidl/android/hardware/sensors/BpSensorsCallback.h"
  },
  {
   "function_name" : "aidl::android::hardware::sensors::BpSensorsCallback::~BpSensorsCallback",
   "linker_set_key" : "_ZN4aidl7android8hardware7sensors17BpSensorsCallbackD1Ev",
   "parameters" :
   [
    {
     "is_this_ptr" : true,
     "referenced_type" : "_ZTIPN4aidl7android8hardware7sensors17BpSensorsCallbackE"
    }
   ],
   "return_type" : "_ZTIv",
   "source_file" : "out/soong/.intermediates/hardware/interfaces/sensors/aidl/android.hardware.sensors-V1-ndk-source/gen/include/aidl/android/hardware/sensors/BpSensorsCallback.h"
  },
  {
   "function_name" : "aidl::android::hardware::sensors::BpSensorsCallback::~BpSensorsCallback",
   "linker_set_key" : "_ZN4aidl7android8hardware7sensors17BpSensorsCallbackD2Ev",
   "parameters" :
   [
    {
     "is_this_ptr" : true,
     "referenced_type" : "_ZTIPN4aidl7android8hardware7sensors17BpSensorsCallbackE"
    }
   ],
   "return_type" : "_ZTIv",
   "source_file" : "out/soong/.intermediates/hardware/interfaces/sensors/aidl/android.hardware.sensors-V1-ndk-source/gen/include/aidl/android/hardware/sensors/BpSensorsCallback.h"
  },
  {
   "function_name" : "aidl::android::hardware::sensors::DynamicSensorInfo::readFromParcel",
   "linker_set_key" : "_ZN4aidl7android8hardware7sensors17DynamicSensorInfo14readFromParcelEPK7AParcel",
   "parameters" :
   [
    {
     "is_this_ptr" : true,
     "referenced_type" : "_ZTIPN4aidl7android8hardware7sensors17DynamicSensorInfoE"
    },
    {
     "referenced_type" : "_ZTIPK7AParcel"
    }
   ],
   "return_type" : "_ZTIi",
   "source_file" : "out/soong/.intermediates/hardware/interfaces/sensors/aidl/android.hardware.sensors-V1-ndk-source/gen/include/aidl/android/hardware/sensors/DynamicSensorInfo.h"
  },
  {
   "function_name" : "aidl::android::hardware::sensors::DynamicSensorInfo::Uuid::readFromParcel",
   "linker_set_key" : "_ZN4aidl7android8hardware7sensors17DynamicSensorInfo4Uuid14readFromParcelEPK7AParcel",
   "parameters" :
   [
    {
     "is_this_ptr" : true,
     "referenced_type" : "_ZTIPN4aidl7android8hardware7sensors17DynamicSensorInfo4UuidE"
    },
    {
     "referenced_type" : "_ZTIPK7AParcel"
    }
   ],
   "return_type" : "_ZTIi",
   "source_file" : "out/soong/.intermediates/hardware/interfaces/sensors/aidl/android.hardware.sensors-V1-ndk-source/gen/include/aidl/android/hardware/sensors/DynamicSensorInfo.h"
  },
  {
   "function_name" : "aidl::android::hardware::sensors::ISensorsCallbackDefault::getInterfaceHash",
   "linker_set_key" : "_ZN4aidl7android8hardware7sensors23ISensorsCallbackDefault16getInterfaceHashEPNSt3__112basic_stringIcNS4_11char_traitsIcEENS4_9allocatorIcEEEE",
   "parameters" :
   [
    {
     "is_this_ptr" : true,
     "referenced_type" : "_ZTIPN4aidl7android8hardware7sensors23ISensorsCallbackDefaultE"
    },
    {
     "referenced_type" : "_ZTIPNSt3__112basic_stringIcNS_11char_traitsIcEENS_9allocatorIcEEEE"
    }
   ],
   "return_type" : "_ZTIN3ndk13ScopedAStatusE",
   "source_file" : "out/soong/.intermediates/hardware/interfaces/sensors/aidl/android.hardware.sensors-V1-ndk-source/gen/include/aidl/android/hardware/sensors/ISensorsCallback.h"
  },
  {
   "function_name" : "aidl::android::hardware::sensors::ISensorsCallbackDefault::getInterfaceVersion",
   "linker_set_key" : "_ZN4aidl7android8hardware7sensors23ISensorsCallbackDefault19getInterfaceVersionEPi",
   "parameters" :
   [
    {
     "is_this_ptr" : true,
     "referenced_type" : "_ZTIPN4aidl7android8hardware7sensors23ISensorsCallbackDefaultE"
    },
    {
     "referenced_type" : "_ZTIPi"
    }
   ],
   "return_type" : "_ZTIN3ndk13ScopedAStatusE",
   "source_file" : "out/soong/.intermediates/hardware/interfaces/sensors/aidl/android.hardware.sensors-V1-ndk-source/gen/include/aidl/android/hardware/sensors/ISensorsCallback.h"
  },
  {
   "function_name" : "aidl::android::hardware::sensors::ISensorsCallbackDefault::onDynamicSensorsConnected",
   "linker_set_key" : "_ZN4aidl7android8hardware7sensors23ISensorsCallbackDefault25onDynamicSensorsConnectedERKNSt3__16vectorINS2_10SensorInfoENS4_9allocatorIS6_EEEE",
   "parameters" :
   [
    {
     "is_this_ptr" : true,
     "referenced_type" : "_ZTIPN4aidl7android8hardware7sensors23ISensorsCallbackDefaultE"
    },
    {
     "referenced_type" : "_ZTIRKNSt3__16vectorIN4aidl7android8hardware7sensors10SensorInfoENS_9allocatorIS5_EEEE"
    }
   ],
   "return_type" : "_ZTIN3ndk13ScopedAStatusE",
   "source_file" : "out/soong/.intermediates/hardware/interfaces/sensors/aidl/android.hardware.sensors-V1-ndk-source/gen/include/aidl/android/hardware/sensors/ISensorsCallback.h"
  },
  {
   "function_name" : "aidl::android::hardware::sensors::ISensorsCallbackDefault::onDynamicSensorsDisconnected",
   "linker_set_key" : "_ZN4aidl7android8hardware7sensors23ISensorsCallbackDefault28onDynamicSensorsDisconnectedERKNSt3__16vectorIiNS4_9allocatorIiEEEE",
   "parameters" :
   [
    {
     "is_this_ptr" : true,
     "referenced_type" : "_ZTIPN4aidl7android8hardware7sensors23ISensorsCallbackDefaultE"
    },
    {
     "referenced_type" : "_ZTIRKNSt3__16vectorIiNS_9allocatorIiEEEE"
    }
   ],
   "return_type" : "_ZTIN3ndk13ScopedAStatusE",
   "source_file" : "out/soong/.intermediates/hardware/interfaces/sensors/aidl/android.hardware.sensors-V1-ndk-source/gen/include/aidl/android/hardware/sensors/ISensorsCallback.h"
  },
  {
   "function_name" : "aidl::android::hardware::sensors::ISensorsCallbackDefault::asBinder",
   "linker_set_key" : "_ZN4aidl7android8hardware7sensors23ISensorsCallbackDefault8asBinderEv",
   "parameters" :
   [
    {
     "is_this_ptr" : true,
     "referenced_type" : "_ZTIPN4aidl7android8hardware7sensors23ISensorsCallbackDefaultE"
    }
   ],
   "return_type" : "_ZTIN3ndk10SpAIBinderE",
   "source_file" : "out/soong/.intermediates/hardware/interfaces/sensors/aidl/android.hardware.sensors-V1-ndk-source/gen/include/aidl/android/hardware/sensors/ISensorsCallback.h"
  },
  {
   "function_name" : "aidl::android::hardware::sensors::ISensorsCallbackDefault::isRemote",
   "linker_set_key" : "_ZN4aidl7android8hardware7sensors23ISensorsCallbackDefault8isRemoteEv",
   "parameters" :
   [
    {
     "is_this_ptr" : true,
     "referenced_type" : "_ZTIPN4aidl7android8hardware7sensors23ISensorsCallbackDefaultE"
    }
   ],
   "return_type" : "_ZTIb",
   "source_file" : "out/soong/.intermediates/hardware/interfaces/sensors/aidl/android.hardware.sensors-V1-ndk-source/gen/include/aidl/android/hardware/sensors/ISensorsCallback.h"
  },
  {
   "function_name" : "aidl::android::hardware::sensors::Event::EventPayload::HeadTracker::readFromParcel",
   "linker_set_key" : "_ZN4aidl7android8hardware7sensors5Event12EventPayload11HeadTracker14readFromParcelEPK7AParcel",
   "parameters" :
   [
    {
     "is_this_ptr" : true,
     "referenced_type" : "_ZTIPN4aidl7android8hardware7sensors5Event12EventPayload11HeadTrackerE"
    },
    {
     "referenced_type" : "_ZTIPK7AParcel"
    }
   ],
   "return_type" : "_ZTIi",
   "source_file" : "out/soong/.intermediates/hardware/interfaces/sensors/aidl/android.hardware.sensors-V1-ndk-source/gen/include/aidl/android/hardware/sensors/Event.h"
  },
  {
   "function_name" : "aidl::android::hardware::sensors::Event::EventPayload::LimitedAxesImu::readFromParcel",
   "linker_set_key" : "_ZN4aidl7android8hardware7sensors5Event12EventPayload14LimitedAxesImu14readFromParcelEPK7AParcel",
   "parameters" :
   [
    {
     "is_this_ptr" : true,
     "referenced_type" : "_ZTIPN4aidl7android8hardware7sensors5Event12EventPayload14LimitedAxesImuE"
    },
    {
     "referenced_type" : "_ZTIPK7AParcel"
    }
   ],
   "return_type" : "_ZTIi",
   "source_file" : "out/soong/.intermediates/hardware/interfaces/sensors/aidl/android.hardware.sensors-V1-ndk-source/gen/include/aidl/android/hardware/sensors/Event.h"
  },
  {
   "function_name" : "aidl::android::hardware::sensors::Event::EventPayload::readFromParcel",
   "linker_set_key" : "_ZN4aidl7android8hardware7sensors5Event12EventPayload14readFromParcelEPK7AParcel",
   "parameters" :
   [
    {
     "is_this_ptr" : true,
     "referenced_type" : "_ZTIPN4aidl7android8hardware7sensors5Event12EventPayloadE"
    },
    {
     "referenced_type" : "_ZTIPK7AParcel"
    }
   ],
   "return_type" : "_ZTIi",
   "source_file" : "out/soong/.intermediates/hardware/interfaces/sensors/aidl/android.hardware.sensors-V1-ndk-source/gen/include/aidl/android/hardware/sensors/Event.h"
  },
  {
   "function_name" : "aidl::android::hardware::sensors::Event::EventPayload::LimitedAxesImuUncal::readFromParcel",
   "linker_set_key" : "_ZN4aidl7android8hardware7sensors5Event12EventPayload19LimitedAxesImuUncal14readFromParcelEPK7AParcel",
   "parameters" :
   [
    {
     "is_this_ptr" : true,
     "referenced_type" : "_ZTIPN4aidl7android8hardware7sensors5Event12EventPayload19LimitedAxesImuUncalE"
    },
    {
     "referenced_type" : "_ZTIPK7AParcel"
    }
   ],
   "return_type" : "_ZTIi",
   "source_file" : "out/soong/.intermediates/hardware/interfaces/sensors/aidl/android.hardware.sensors-V1-ndk-source/gen/include/aidl/android/hardware/sensors/Event.h"
  },
  {
   "function_name" : "aidl::android::hardware::sensors::Event::EventPayload::Data::readFromParcel",
   "linker_set_key" : "_ZN4aidl7android8hardware7sensors5Event12EventPayload4Data14readFromParcelEPK7AParcel",
   "parameters" :
   [
    {
     "is_this_ptr" : true,
     "referenced_type" : "_ZTIPN4aidl7android8hardware7sensors5Event12EventPayload4DataE"
    },
    {
     "referenced_type" : "_ZTIPK7AParcel"
    }
   ],
   "return_type" : "_ZTIi",
   "source_file" : "out/soong/.intermediates/hardware/interfaces/sensors/aidl/android.hardware.sensors-V1-ndk-source/gen/include/aidl/android/hardware/sensors/Event.h"
  },
  {
   "function_name" : "aidl::android::hardware::sensors::Event::EventPayload::Vec3::readFromParcel",
   "linker_set_key" : "_ZN4aidl7android8hardware7sensors5Event12EventPayload4Vec314readFromParcelEPK7AParcel",
   "parameters" :
   [
    {
     "is_this_ptr" : true,
     "referenced_type" : "_ZTIPN4aidl7android8hardware7sensors5Event12EventPayload4Vec3E"
    },
    {
     "referenced_type" : "_ZTIPK7AParcel"
    }
   ],
   "return_type" : "_ZTIi",
   "source_file" : "out/soong/.intermediates/hardware/interfaces/sensors/aidl/android.hardware.sensors-V1-ndk-source/gen/include/aidl/android/hardware/sensors/Event.h"
  },
  {
   "function_name" : "aidl::android::hardware::sensors::Event::EventPayload::Vec4::readFromParcel",
   "linker_set_key" : "_ZN4aidl7android8hardware7sensors5Event12EventPayload4Vec414readFromParcelEPK7AParcel",
   "parameters" :
   [
    {
     "is_this_ptr" : true,
     "referenced_type" : "_ZTIPN4aidl7android8hardware7sensors5Event12EventPayload4Vec4E"
    },
    {
     "referenced_type" : "_ZTIPK7AParcel"
    }
   ],
   "return_type" : "_ZTIi",
   "source_file" : "out/soong/.intermediates/hardware/interfaces/sensors/aidl/android.hardware.sensors-V1-ndk-source/gen/include/aidl/android/hardware/sensors/Event.h"
  },
  {
   "function_name" : "aidl::android::hardware::sensors::Event::EventPayload::Uncal::readFromParcel",
   "linker_set_key" : "_ZN4aidl7android8hardware7sensors5Event12EventPayload5Uncal14readFromParcelEPK7AParcel",
   "parameters" :
   [
    {
     "is_this_ptr" : true,
     "referenced_type" : "_ZTIPN4aidl7android8hardware7sensors5Event12EventPayload5UncalE"
    },
    {
     "referenced_type" : "_ZTIPK7AParcel"
    }
   ],
   "return_type" : "_ZTIi",
   "source_file" : "out/soong/.intermediates/hardware/interfaces/sensors/aidl/android.hardware.sensors-V1-ndk-source/gen/include/aidl/android/hardware/sensors/Event.h"
  },
  {
   "function_name" : "aidl::android::hardware::sensors::Event::EventPayload::Heading::readFromParcel",
   "linker_set_key" : "_ZN4aidl7android8hardware7sensors5Event12EventPayload7Heading14readFromParcelEPK7AParcel",
   "parameters" :
   [
    {
     "is_this_ptr" : true,
     "referenced_type" : "_ZTIPN4aidl7android8hardware7sensors5Event12EventPayload7HeadingE"
    },
    {
     "referenced_type" : "_ZTIPK7AParcel"
    }
   ],
   "return_type" : "_ZTIi",
   "source_file" : "out/soong/.intermediates/hardware/interfaces/sensors/aidl/android.hardware.sensors-V1-ndk-source/gen/include/aidl/android/hardware/sensors/Event.h"
  },
  {
   "function_name" : "aidl::android::hardware::sensors::Event::EventPayload::MetaData::readFromParcel",
   "linker_set_key" : "_ZN4aidl7android8hardware7sensors5Event12EventPayload8MetaData14readFromParcelEPK7AParcel",
   "parameters" :
   [
    {
     "is_this_ptr" : true,
     "referenced_type" : "_ZTIPN4aidl7android8hardware7sensors5Event12EventPayload8MetaDataE"
    },
    {
     "referenced_type" : "_ZTIPK7AParcel"
    }
   ],
   "return_type" : "_ZTIi",
   "source_file" : "out/soong/.intermediates/hardware/interfaces/sensors/aidl/android.hardware.sensors-V1-ndk-source/gen/include/aidl/android/hardware/sensors/Event.h"
  },
  {
   "function_name" : "aidl::android::hardware::sensors::Event::EventPayload::Pose6Dof::readFromParcel",
   "linker_set_key" : "_ZN4aidl7android8hardware7sensors5Event12EventPayload8Pose6Dof14readFromParcelEPK7AParcel",
   "parameters" :
   [
    {
     "is_this_ptr" : true,
     "referenced_type" : "_ZTIPN4aidl7android8hardware7sensors5Event12EventPayload8Pose6DofE"
    },
    {
     "referenced_type" : "_ZTIPK7AParcel"
    }
   ],
   "return_type" : "_ZTIi",
   "source_file" : "out/soong/.intermediates/hardware/interfaces/sensors/aidl/android.hardware.sensors-V1-ndk-source/gen/include/aidl/android/hardware/sensors/Event.h"
  },
  {
   "function_name" : "aidl::android::hardware::sensors::Event::EventPayload::HeartRate::readFromParcel",
   "linker_set_key" : "_ZN4aidl7android8hardware7sensors5Event12EventPayload9HeartRate14readFromParcelEPK7AParcel",
   "parameters" :
   [
    {
     "is_this_ptr" : true,
     "referenced_type" : "_ZTIPN4aidl7android8hardware7sensors5Event12EventPayload9HeartRateE"
    },
    {
     "referenced_type" : "_ZTIPK7AParcel"
    }
   ],
   "return_type" : "_ZTIi",
   "source_file" : "out/soong/.intermediates/hardware/interfaces/sensors/aidl/android.hardware.sensors-V1-ndk-source/gen/include/aidl/android/hardware/sensors/Event.h"
  },
  {
   "function_name" : "aidl::android::hardware::sensors::Event::readFromParcel",
   "linker_set_key" : "_ZN4aidl7android8hardware7sensors5Event14readFromParcelEPK7AParcel",
   "parameters" :
   [
    {
     "is_this_ptr" : true,
     "referenced_type" : "_ZTIPN4aidl7android8hardware7sensors5EventE"
    },
    {
     "referenced_type" : "_ZTIPK7AParcel"
    }
   ],
   "return_type" : "_ZTIi",
   "source_file" : "out/soong/.intermediates/hardware/interfaces/sensors/aidl/android.hardware.sensors-V1-ndk-source/gen/include/aidl/android/hardware/sensors/Event.h"
  },
  {
   "function_name" : "aidl::android::hardware::sensors::ISensors::fromBinder",
   "linker_set_key" : "_ZN4aidl7android8hardware7sensors8ISensors10fromBinderERKN3ndk10SpAIBinderE",
   "parameters" :
   [
    {
     "referenced_type" : "_ZTIRKN3ndk10SpAIBinderE"
    }
   ],
   "return_type" : "_ZTINSt3__110shared_ptrIN4aidl7android8hardware7sensors8ISensorsEEE",
   "source_file" : "out/soong/.intermediates/hardware/interfaces/sensors/aidl/android.hardware.sensors-V1-ndk-source/gen/include/aidl/android/hardware/sensors/ISensors.h"
  },
  {
   "function_name" : "aidl::android::hardware::sensors::ISensors::SharedMemInfo::readFromParcel",
   "linker_set_key" : "_ZN4aidl7android8hardware7sensors8ISensors13SharedMemInfo14readFromParcelEPK7AParcel",
   "parameters" :
   [
    {
     "is_this_ptr" : true,
     "referenced_type" : "_ZTIPN4aidl7android8hardware7sensors8ISensors13SharedMemInfoE"
    },
    {
     "referenced_type" : "_ZTIPK7AParcel"
    }
   ],
   "return_type" : "_ZTIi",
   "source_file" : "out/soong/.intermediates/hardware/interfaces/sensors/aidl/android.hardware.sensors-V1-ndk-source/gen/include/aidl/android/hardware/sensors/ISensors.h"
  },
  {
   "function_name" : "aidl::android::hardware::sensors::ISensors::writeToParcel",
   "linker_set_key" : "_ZN4aidl7android8hardware7sensors8ISensors13writeToParcelEP7AParcelRKNSt3__110shared_ptrIS3_EE",
   "parameters" :
   [
    {
     "referenced_type" : "_ZTIP7AParcel"
    },
    {
     "referenced_type" : "_ZTIRKNSt3__110shared_ptrIN4aidl7android8hardware7sensors8ISensorsEEE"
    }
   ],
   "return_type" : "_ZTIi",
   "source_file" : "out/soong/.intermediates/hardware/interfaces/sensors/aidl/android.hardware.sensors-V1-ndk-source/gen/include/aidl/android/hardware/sensors/ISensors.h"
  },
  {
   "function_name" : "aidl::android::hardware::sensors::ISensors::getDefaultImpl",
   "linker_set_key" : "_ZN4aidl7android8hardware7sensors8ISensors14getDefaultImplEv",
   "return_type" : "_ZTIRKNSt3__110shared_ptrIN4aidl7android8hardware7sensors8ISensorsEEE",
   "source_file" : "out/soong/.intermediates/hardware/interfaces/sensors/aidl/android.hardware.sensors-V1-ndk-source/gen/include/aidl/android/hardware/sensors/ISensors.h"
  },
  {
   "function_name" : "aidl::android::hardware::sensors::ISensors::readFromParcel",
   "linker_set_key" : "_ZN4aidl7android8hardware7sensors8ISensors14readFromParcelEPK7AParcelPNSt3__110shared_ptrIS3_EE",
   "parameters" :
   [
    {
     "referenced_type" : "_ZTIPK7AParcel"
    },
    {
     "referenced_type" : "_ZTIPNSt3__110shared_ptrIN4aidl7android8hardware7sensors8ISensorsEEE"
    }
   ],
   "return_type" : "_ZTIi",
   "source_file" : "out/soong/.intermediates/hardware/interfaces/sensors/aidl/android.hardware.sensors-V1-ndk-source/gen/include/aidl/android/hardware/sensors/ISensors.h"
  },
  {
   "function_name" : "aidl::android::hardware::sensors::ISensors::setDefaultImpl",
   "linker_set_key" : "_ZN4aidl7android8hardware7sensors8ISensors14setDefaultImplERKNSt3__110shared_ptrIS3_EE",
   "parameters" :
   [
    {
     "referenced_type" : "_ZTIRKNSt3__110shared_ptrIN4aidl7android8hardware7sensors8ISensorsEEE"
    }
   ],
   "return_type" : "_ZTIb",
   "source_file" : "out/soong/.intermediates/hardware/interfaces/sensors/aidl/android.hardware.sensors-V1-ndk-source/gen/include/aidl/android/hardware/sensors/ISensors.h"
  },
  {
   "function_name" : "aidl::android::hardware::sensors::ISensors::ISensors",
   "linker_set_key" : "_ZN4aidl7android8hardware7sensors8ISensorsC2Ev",
   "parameters" :
   [
    {
     "is_this_ptr" : true,
     "referenced_type" : "_ZTIPN4aidl7android8hardware7sensors8ISensorsE"
    }
   ],
   "return_type" : "_ZTIv",
   "source_file" : "out/soong/.intermediates/hardware/interfaces/sensors/aidl/android.hardware.sensors-V1-ndk-source/gen/include/aidl/android/hardware/sensors/ISensors.h"
  },
  {
   "function_name" : "aidl::android::hardware::sensors::ISensors::~ISensors",
   "linker_set_key" : "_ZN4aidl7android8hardware7sensors8ISensorsD0Ev",
   "parameters" :
   [
    {
     "is_this_ptr" : true,
     "referenced_type" : "_ZTIPN4aidl7android8hardware7sensors8ISensorsE"
    }
   ],
   "return_type" : "_ZTIv",
   "source_file" : "out/soong/.intermediates/hardware/interfaces/sensors/aidl/android.hardware.sensors-V1-ndk-source/gen/include/aidl/android/hardware/sensors/ISensors.h"
  },
  {
   "function_name" : "aidl::android::hardware::sensors::ISensors::~ISensors",
   "linker_set_key" : "_ZN4aidl7android8hardware7sensors8ISensorsD1Ev",
   "parameters" :
   [
    {
     "is_this_ptr" : true,
     "referenced_type" : "_ZTIPN4aidl7android8hardware7sensors8ISensorsE"
    }
   ],
   "return_type" : "_ZTIv",
   "source_file" : "out/soong/.intermediates/hardware/interfaces/sensors/aidl/android.hardware.sensors-V1-ndk-source/gen/include/aidl/android/hardware/sensors/ISensors.h"
  },
  {
   "function_name" : "aidl::android::hardware::sensors::ISensors::~ISensors",
   "linker_set_key" : "_ZN4aidl7android8hardware7sensors8ISensorsD2Ev",
   "parameters" :
   [
    {
     "is_this_ptr" : true,
     "referenced_type" : "_ZTIPN4aidl7android8hardware7sensors8ISensorsE"
    }
   ],
   "return_type" : "_ZTIv",
   "source_file" : "out/soong/.intermediates/hardware/interfaces/sensors/aidl/android.hardware.sensors-V1-ndk-source/gen/include/aidl/android/hardware/sensors/ISensors.h"
  },
  {
   "access" : "protected",
   "function_name" : "aidl::android::hardware::sensors::BnSensors::createBinder",
   "linker_set_key" : "_ZN4aidl7android8hardware7sensors9BnSensors12createBinderEv",
   "parameters" :
   [
    {
     "is_this_ptr" : true,
     "referenced_type" : "_ZTIPN4aidl7android8hardware7sensors9BnSensorsE"
    }
   ],
   "return_type" : "_ZTIN3ndk10SpAIBinderE",
   "source_file" : "out/soong/.intermediates/hardware/interfaces/sensors/aidl/android.hardware.sensors-V1-ndk-source/gen/include/aidl/android/hardware/sensors/BnSensors.h"
  },
  {
   "function_name" : "aidl::android::hardware::sensors::BnSensors::getInterfaceHash",
   "linker_set_key" : "_ZN4aidl7android8hardware7sensors9BnSensors16getInterfaceHashEPNSt3__112basic_stringIcNS4_11char_traitsIcEENS4_9allocatorIcEEEE",
   "parameters" :
   [
    {
     "is_this_ptr" : true,
     "referenced_type" : "_ZTIPN4aidl7android8hardware7sensors9BnSensorsE"
    },
    {
     "referenced_type" : "_ZTIPNSt3__112basic_stringIcNS_11char_traitsIcEENS_9allocatorIcEEEE"
    }
   ],
   "return_type" : "_ZTIN3ndk13ScopedAStatusE",
   "source_file" : "out/soong/.intermediates/hardware/interfaces/sensors/aidl/android.hardware.sensors-V1-ndk-source/gen/include/aidl/android/hardware/sensors/BnSensors.h"
  },
  {
   "function_name" : "aidl::android::hardware::sensors::BnSensors::getInterfaceVersion",
   "linker_set_key" : "_ZN4aidl7android8hardware7sensors9BnSensors19getInterfaceVersionEPi",
   "parameters" :
   [
    {
     "is_this_ptr" : true,
     "referenced_type" : "_ZTIPN4aidl7android8hardware7sensors9BnSensorsE"
    },
    {
     "referenced_type" : "_ZTIPi"
    }
   ],
   "return_type" : "_ZTIN3ndk13ScopedAStatusE",
   "source_file" : "out/soong/.intermediates/hardware/interfaces/sensors/aidl/android.hardware.sensors-V1-ndk-source/gen/include/aidl/android/hardware/sensors/BnSensors.h"
  },
  {
   "function_name" : "aidl::android::hardware::sensors::BnSensors::BnSensors",
   "linker_set_key" : "_ZN4aidl7android8hardware7sensors9BnSensorsC2Ev",
   "parameters" :
   [
    {
     "is_this_ptr" : true,
     "referenced_type" : "_ZTIPN4aidl7android8hardware7sensors9BnSensorsE"
    }
   ],
   "return_type" : "_ZTIv",
   "source_file" : "out/soong/.intermediates/hardware/interfaces/sensors/aidl/android.hardware.sensors-V1-ndk-source/gen/include/aidl/android/hardware/sensors/BnSensors.h"
  },
  {
   "function_name" : "aidl::android::hardware::sensors::BnSensors::~BnSensors",
   "linker_set_key" : "_ZN4aidl7android8hardware7sensors9BnSensorsD0Ev",
   "parameters" :
   [
    {
     "is_this_ptr" : true,
     "referenced_type" : "_ZTIPN4aidl7android8hardware7sensors9BnSensorsE"
    }
   ],
   "return_type" : "_ZTIv",
   "source_file" : "out/soong/.intermediates/hardware/interfaces/sensors/aidl/android.hardware.sensors-V1-ndk-source/gen/include/aidl/android/hardware/sensors/BnSensors.h"
  },
  {
   "function_name" : "aidl::android::hardware::sensors::BnSensors::~BnSensors",
   "linker_set_key" : "_ZN4aidl7android8hardware7sensors9BnSensorsD1Ev",
   "parameters" :
   [
    {
     "is_this_ptr" : true,
     "referenced_type" : "_ZTIPN4aidl7android8hardware7sensors9BnSensorsE"
    }
   ],
   "return_type" : "_ZTIv",
   "source_file" : "out/soong/.intermediates/hardware/interfaces/sensors/aidl/android.hardware.sensors-V1-ndk-source/gen/include/aidl/android/hardware/sensors/BnSensors.h"
  },
  {
   "function_name" : "aidl::android::hardware::sensors::BnSensors::~BnSensors",
   "linker_set_key" : "_ZN4aidl7android8hardware7sensors9BnSensorsD2Ev",
   "parameters" :
   [
    {
     "is_this_ptr" : true,
     "referenced_type" : "_ZTIPN4aidl7android8hardware7sensors9BnSensorsE"
    }
   ],
   "return_type" : "_ZTIv",
   "source_file" : "out/soong/.intermediates/hardware/interfaces/sensors/aidl/android.hardware.sensors-V1-ndk-source/gen/include/aidl/android/hardware/sensors/BnSensors.h"
  },
  {
   "function_name" : "aidl::android::hardware::sensors::BpSensors::initialize",
   "linker_set_key" : "_ZN4aidl7android8hardware7sensors9BpSensors10initializeERKNS1_6common3fmq12MQDescriptorINS2_5EventENS5_21SynchronizedReadWriteEEERKNS6_IiS8_EERKNSt3__110shared_ptrINS2_16ISensorsCallbackEEE",
   "parameters" :
   [
    {
     "is_this_ptr" : true,
     "referenced_type" : "_ZTIPN4aidl7android8hardware7sensors9BpSensorsE"
    },
    {
     "referenced_type" : "_ZTIRKN4aidl7android8hardware6common3fmq12MQDescriptorINS1_7sensors5EventENS3_21SynchronizedReadWriteEEE"
    },
    {
     "referenced_type" : "_ZTIRKN4aidl7android8hardware6common3fmq12MQDescriptorIiNS3_21SynchronizedReadWriteEEE"
    },
    {
     "referenced_type" : "_ZTIRKNSt3__110shared_ptrIN4aidl7android8hardware7sensors16ISensorsCallbackEEE"
    }
   ],
   "return_type" : "_ZTIN3ndk13ScopedAStatusE",
   "source_file" : "out/soong/.intermediates/hardware/interfaces/sensors/aidl/android.hardware.sensors-V1-ndk-source/gen/include/aidl/android/hardware/sensors/BpSensors.h"
  },
  {
   "function_name" : "aidl::android::hardware::sensors::BpSensors::getSensorsList",
   "linker_set_key" : "_ZN4aidl7android8hardware7sensors9BpSensors14getSensorsListEPNSt3__16vectorINS2_10SensorInfoENS4_9allocatorIS6_EEEE",
   "parameters" :
   [
    {
     "is_this_ptr" : true,
     "referenced_type" : "_ZTIPN4aidl7android8hardware7sensors9BpSensorsE"
    },
    {
     "referenced_type" : "_ZTIPNSt3__16vectorIN4aidl7android8hardware7sensors10SensorInfoENS_9allocatorIS5_EEEE"
    }
   ],
   "return_type" : "_ZTIN3ndk13ScopedAStatusE",
   "source_file" : "out/soong/.intermediates/hardware/interfaces/sensors/aidl/android.hardware.sensors-V1-ndk-source/gen/include/aidl/android/hardware/sensors/BpSensors.h"
  },
  {
   "function_name" : "aidl::android::hardware::sensors::BpSensors::getInterfaceHash",
   "linker_set_key" : "_ZN4aidl7android8hardware7sensors9BpSensors16getInterfaceHashEPNSt3__112basic_stringIcNS4_11char_traitsIcEENS4_9allocatorIcEEEE",
   "parameters" :
   [
    {
     "is_this_ptr" : true,
     "referenced_type" : "_ZTIPN4aidl7android8hardware7sensors9BpSensorsE"
    },
    {
     "referenced_type" : "_ZTIPNSt3__112basic_stringIcNS_11char_traitsIcEENS_9allocatorIcEEEE"
    }
   ],
   "return_type" : "_ZTIN3ndk13ScopedAStatusE",
   "source_file" : "out/soong/.intermediates/hardware/interfaces/sensors/aidl/android.hardware.sensors-V1-ndk-source/gen/include/aidl/android/hardware/sensors/BpSensors.h"
  },
  {
   "function_name" : "aidl::android::hardware::sensors::BpSensors::injectSensorData",
   "linker_set_key" : "_ZN4aidl7android8hardware7sensors9BpSensors16injectSensorDataERKNS2_5EventE",
   "parameters" :
   [
    {
     "is_this_ptr" : true,
     "referenced_type" : "_ZTIPN4aidl7android8hardware7sensors9BpSensorsE"
    },
    {
     "referenced_type" : "_ZTIRKN4aidl7android8hardware7sensors5EventE"
    }
   ],
   "return_type" : "_ZTIN3ndk13ScopedAStatusE",
   "source_file" : "out/soong/.intermediates/hardware/interfaces/sensors/aidl/android.hardware.sensors-V1-ndk-source/gen/include/aidl/android/hardware/sensors/BpSensors.h"
  },
  {
   "function_name" : "aidl::android::hardware::sensors::BpSensors::setOperationMode",
   "linker_set_key" : "_ZN4aidl7android8hardware7sensors9BpSensors16setOperationModeENS2_8ISensors13OperationModeE",
   "parameters" :
   [
    {
     "is_this_ptr" : true,
     "referenced_type" : "_ZTIPN4aidl7android8hardware7sensors9BpSensorsE"
    },
    {
     "referenced_type" : "_ZTIN4aidl7android8hardware7sensors8ISensors13OperationModeE"
    }
   ],
   "return_type" : "_ZTIN3ndk13ScopedAStatusE",
   "source_file" : "out/soong/.intermediates/hardware/interfaces/sensors/aidl/android.hardware.sensors-V1-ndk-source/gen/include/aidl/android/hardware/sensors/BpSensors.h"
  },
  {
   "function_name" : "aidl::android::hardware::sensors::BpSensors::configDirectReport",
   "linker_set_key" : "_ZN4aidl7android8hardware7sensors9BpSensors18configDirectReportEiiNS2_8ISensors9RateLevelEPi",
   "parameters" :
   [
    {
     "is_this_ptr" : true,
     "referenced_type" : "_ZTIPN4aidl7android8hardware7sensors9BpSensorsE"
    },
    {
     "referenced_type" : "_ZTIi"
    },
    {
     "referenced_type" : "_ZTIi"
    },
    {
     "referenced_type" : "_ZTIN4aidl7android8hardware7sensors8ISensors9RateLevelE"
    },
    {
     "referenced_type" : "_ZTIPi"
    }
   ],
   "return_type" : "_ZTIN3ndk13ScopedAStatusE",
   "source_file" : "out/soong/.intermediates/hardware/interfaces/sensors/aidl/android.hardware.sensors-V1-ndk-source/gen/include/aidl/android/hardware/sensors/BpSensors.h"
  },
  {
   "function_name" : "aidl::android::hardware::sensors::BpSensors::getInterfaceVersion",
   "linker_set_key" : "_ZN4aidl7android8hardware7sensors9BpSensors19getInterfaceVersionEPi",
   "parameters" :
   [
    {
     "is_this_ptr" : true,
     "referenced_type" : "_ZTIPN4aidl7android8hardware7sensors9BpSensorsE"
    },
    {
     "referenced_type" : "_ZTIPi"
    }
   ],
   "return_type" : "_ZTIN3ndk13ScopedAStatusE",
   "source_file" : "out/soong/.intermediates/hardware/interfaces/sensors/aidl/android.hardware.sensors-V1-ndk-source/gen/include/aidl/android/hardware/sensors/BpSensors.h"
  },
  {
   "function_name" : "aidl::android::hardware::sensors::BpSensors::registerDirectChannel",
   "linker_set_key" : "_ZN4aidl7android8hardware7sensors9BpSensors21registerDirectChannelERKNS2_8ISensors13SharedMemInfoEPi",
   "parameters" :
   [
    {
     "is_this_ptr" : true,
     "referenced_type" : "_ZTIPN4aidl7android8hardware7sensors9BpSensorsE"
    },
    {
     "referenced_type" : "_ZTIRKN4aidl7android8hardware7sensors8ISensors13SharedMemInfoE"
    },
    {
     "referenced_type" : "_ZTIPi"
    }
   ],
   "return_type" : "_ZTIN3ndk13ScopedAStatusE",
   "source_file" : "out/soong/.intermediates/hardware/interfaces/sensors/aidl/android.hardware.sensors-V1-ndk-source/gen/include/aidl/android/hardware/sensors/BpSensors.h"
  },
  {
   "function_name" : "aidl::android::hardware::sensors::BpSensors::unregisterDirectChannel",
   "linker_set_key" : "_ZN4aidl7android8hardware7sensors9BpSensors23unregisterDirectChannelEi",
   "parameters" :
   [
    {
     "is_this_ptr" : true,
     "referenced_type" : "_ZTIPN4aidl7android8hardware7sensors9BpSensorsE"
    },
    {
     "referenced_type" : "_ZTIi"
    }
   ],
   "return_type" : "_ZTIN3ndk13ScopedAStatusE",
   "source_file" : "out/soong/.intermediates/hardware/interfaces/sensors/aidl/android.hardware.sensors-V1-ndk-source/gen/include/aidl/android/hardware/sensors/BpSensors.h"
  },
  {
   "function_name" : "aidl::android::hardware::sensors::BpSensors::batch",
   "linker_set_key" : "_ZN4aidl7android8hardware7sensors9BpSensors5batchEixx",
   "parameters" :
   [
    {
     "is_this_ptr" : true,
     "referenced_type" : "_ZTIPN4aidl7android8hardware7sensors9BpSensorsE"
    },
    {
     "referenced_type" : "_ZTIi"
    },
    {
     "referenced_type" : "_ZTIx"
    },
    {
     "referenced_type" : "_ZTIx"
    }
   ],
   "return_type" : "_ZTIN3ndk13ScopedAStatusE",
   "source_file" : "out/soong/.intermediates/hardware/interfaces/sensors/aidl/android.hardware.sensors-V1-ndk-source/gen/include/aidl/android/hardware/sensors/BpSensors.h"
  },
  {
   "function_name" : "aidl::android::hardware::sensors::BpSensors::flush",
   "linker_set_key" : "_ZN4aidl7android8hardware7sensors9BpSensors5flushEi",
   "parameters" :
   [
    {
     "is_this_ptr" : true,
     "referenced_type" : "_ZTIPN4aidl7android8hardware7sensors9BpSensorsE"
    },
    {
     "referenced_type" : "_ZTIi"
    }
   ],
   "return_type" : "_ZTIN3ndk13ScopedAStatusE",
   "source_file" : "out/soong/.intermediates/hardware/interfaces/sensors/aidl/android.hardware.sensors-V1-ndk-source/gen/include/aidl/android/hardware/sensors/BpSensors.h"
  },
  {
   "function_name" : "aidl::android::hardware::sensors::BpSensors::activate",
   "linker_set_key" : "_ZN4aidl7android8hardware7sensors9BpSensors8activateEib",
   "parameters" :
   [
    {
     "is_this_ptr" : true,
     "referenced_type" : "_ZTIPN4aidl7android8hardware7sensors9BpSensorsE"
    },
    {
     "referenced_type" : "_ZTIi"
    },
    {
     "referenced_type" : "_ZTIb"
    }
   ],
   "return_type" : "_ZTIN3ndk13ScopedAStatusE",
   "source_file" : "out/soong/.intermediates/hardware/interfaces/sensors/aidl/android.hardware.sensors-V1-ndk-source/gen/include/aidl/android/hardware/sensors/BpSensors.h"
  },
  {
   "function_name" : "aidl::android::hardware::sensors::BpSensors::BpSensors",
   "linker_set_key" : "_ZN4aidl7android8hardware7sensors9BpSensorsC1ERKN3ndk10SpAIBinderE",
   "parameters" :
   [
    {
     "is_this_ptr" : true,
     "referenced_type" : "_ZTIPN4aidl7android8hardware7sensors9BpSensorsE"
    },
    {
     "referenced_type" : "_ZTIRKN3ndk10SpAIBinderE"
    }
   ],
   "return_type" : "_ZTIv",
   "source_file" : "out/soong/.intermediates/hardware/interfaces/sensors/aidl/android.hardware.sensors-V1-ndk-source/gen/include/aidl/android/hardware/sensors/BpSensors.h"
  },
  {
   "function_name" : "aidl::android::hardware::sensors::BpSensors::BpSensors",
   "linker_set_key" : "_ZN4aidl7android8hardware7sensors9BpSensorsC2ERKN3ndk10SpAIBinderE",
   "parameters" :
   [
    {
     "is_this_ptr" : true,
     "referenced_type" : "_ZTIPN4aidl7android8hardware7sensors9BpSensorsE"
    },
    {
     "referenced_type" : "_ZTIRKN3ndk10SpAIBinderE"
    }
   ],
   "return_type" : "_ZTIv",
   "source_file" : "out/soong/.intermediates/hardware/interfaces/sensors/aidl/android.hardware.sensors-V1-ndk-source/gen/include/aidl/android/hardware/sensors/BpSensors.h"
  },
  {
   "function_name" : "aidl::android::hardware::sensors::BpSensors::~BpSensors",
   "linker_set_key" : "_ZN4aidl7android8hardware7sensors9BpSensorsD0Ev",
   "parameters" :
   [
    {
     "is_this_ptr" : true,
     "referenced_type" : "_ZTIPN4aidl7android8hardware7sensors9BpSensorsE"
    }
   ],
   "return_type" : "_ZTIv",
   "source_file" : "out/soong/.intermediates/hardware/interfaces/sensors/aidl/android.hardware.sensors-V1-ndk-source/gen/include/aidl/android/hardware/sensors/BpSensors.h"
  },
  {
   "function_name" : "aidl::android::hardware::sensors::BpSensors::~BpSensors",
   "linker_set_key" : "_ZN4aidl7android8hardware7sensors9BpSensorsD1Ev",
   "parameters" :
   [
    {
     "is_this_ptr" : true,
     "referenced_type" : "_ZTIPN4aidl7android8hardware7sensors9BpSensorsE"
    }
   ],
   "return_type" : "_ZTIv",
   "source_file" : "out/soong/.intermediates/hardware/interfaces/sensors/aidl/android.hardware.sensors-V1-ndk-source/gen/include/aidl/android/hardware/sensors/BpSensors.h"
  },
  {
   "function_name" : "aidl::android::hardware::sensors::BpSensors::~BpSensors",
   "linker_set_key" : "_ZN4aidl7android8hardware7sensors9BpSensorsD2Ev",
   "parameters" :
   [
    {
     "is_this_ptr" : true,
     "referenced_type" : "_ZTIPN4aidl7android8hardware7sensors9BpSensorsE"
    }
   ],
   "return_type" : "_ZTIv",
   "source_file" : "out/soong/.intermediates/hardware/interfaces/sensors/aidl/android.hardware.sensors-V1-ndk-source/gen/include/aidl/android/hardware/sensors/BpSensors.h"
  },
  {
   "function_name" : "aidl::android::hardware::common::fmq::MQDescriptor<aidl::android::hardware::sensors::Event, aidl::android::hardware::common::fmq::SynchronizedReadWrite>::writeToParcel",
   "linker_set_key" : "_ZNK4aidl7android8hardware6common3fmq12MQDescriptorINS1_7sensors5EventENS3_21SynchronizedReadWriteEE13writeToParcelEP7AParcel",
   "parameters" :
   [
    {
     "is_this_ptr" : true,
     "referenced_type" : "_ZTIPKN4aidl7android8hardware6common3fmq12MQDescriptorINS1_7sensors5EventENS3_21SynchronizedReadWriteEEE"
    },
    {
     "referenced_type" : "_ZTIP7AParcel"
    }
   ],
   "return_type" : "_ZTIi",
   "source_file" : "out/soong/.intermediates/hardware/interfaces/common/fmq/aidl/android.hardware.common.fmq-V1-ndk-source/gen/include/aidl/android/hardware/common/fmq/MQDescriptor.h"
  },
  {
   "function_name" : "aidl::android::hardware::common::fmq::MQDescriptor<int, aidl::android::hardware::common::fmq::SynchronizedReadWrite>::writeToParcel",
   "linker_set_key" : "_ZNK4aidl7android8hardware6common3fmq12MQDescriptorIiNS3_21SynchronizedReadWriteEE13writeToParcelEP7AParcel",
   "parameters" :
   [
    {
     "is_this_ptr" : true,
     "referenced_type" : "_ZTIPKN4aidl7android8hardware6common3fmq12MQDescriptorIiNS3_21SynchronizedReadWriteEEE"
    },
    {
     "referenced_type" : "_ZTIP7AParcel"
    }
   ],
   "return_type" : "_ZTIi",
   "source_file" : "out/soong/.intermediates/hardware/interfaces/common/fmq/aidl/android.hardware.common.fmq-V1-ndk-source/gen/include/aidl/android/hardware/common/fmq/MQDescriptor.h"
  },
  {
   "function_name" : "aidl::android::hardware::sensors::SensorInfo::writeToParcel",
   "linker_set_key" : "_ZNK4aidl7android8hardware7sensors10SensorInfo13writeToParcelEP7AParcel",
   "parameters" :
   [
    {
     "is_this_ptr" : true,
     "referenced_type" : "_ZTIPKN4aidl7android8hardware7sensors10SensorInfoE"
    },
    {
     "referenced_type" : "_ZTIP7AParcel"
    }
   ],
   "return_type" : "_ZTIi",
   "source_file" : "out/soong/.intermediates/hardware/interfaces/sensors/aidl/android.hardware.sensors-V1-ndk-source/gen/include/aidl/android/hardware/sensors/SensorInfo.h"
  },
  {
   "function_name" : "aidl::android::hardware::sensors::AdditionalInfo::writeToParcel",
   "linker_set_key" : "_ZNK4aidl7android8hardware7sensors14AdditionalInfo13writeToParcelEP7AParcel",
   "parameters" :
   [
    {
     "is_this_ptr" : true,
     "referenced_type" : "_ZTIPKN4aidl7android8hardware7sensors14AdditionalInfoE"
    },
    {
     "referenced_type" : "_ZTIP7AParcel"
    }
   ],
   "return_type" : "_ZTIi",
   "source_file" : "out/soong/.intermediates/hardware/interfaces/sensors/aidl/android.hardware.sensors-V1-ndk-source/gen/include/aidl/android/hardware/sensors/AdditionalInfo.h"
  },
  {
   "function_name" : "aidl::android::hardware::sensors::AdditionalInfo::AdditionalInfoPayload::FloatValues::writeToParcel",
   "linker_set_key" : "_ZNK4aidl7android8hardware7sensors14AdditionalInfo21AdditionalInfoPayload11FloatValues13writeToParcelEP7AParcel",
   "parameters" :
   [
    {
     "is_this_ptr" : true,
     "referenced_type" : "_ZTIPKN4aidl7android8hardware7sensors14AdditionalInfo21AdditionalInfoPayload11FloatValuesE"
    },
    {
     "referenced_type" : "_ZTIP7AParcel"
    }
   ],
   "return_type" : "_ZTIi",
   "source_file" : "out/soong/.intermediates/hardware/interfaces/sensors/aidl/android.hardware.sensors-V1-ndk-source/gen/include/aidl/android/hardware/sensors/AdditionalInfo.h"
  },
  {
   "function_name" : "aidl::android::hardware::sensors::AdditionalInfo::AdditionalInfoPayload::Int32Values::writeToParcel",
   "linker_set_key" : "_ZNK4aidl7android8hardware7sensors14AdditionalInfo21AdditionalInfoPayload11Int32Values13writeToParcelEP7AParcel",
   "parameters" :
   [
    {
     "is_this_ptr" : true,
     "referenced_type" : "_ZTIPKN4aidl7android8hardware7sensors14AdditionalInfo21AdditionalInfoPayload11Int32ValuesE"
    },
    {
     "referenced_type" : "_ZTIP7AParcel"
    }
   ],
   "return_type" : "_ZTIi",
   "source_file" : "out/soong/.intermediates/hardware/interfaces/sensors/aidl/android.hardware.sensors-V1-ndk-source/gen/include/aidl/android/hardware/sensors/AdditionalInfo.h"
  },
  {
   "function_name" : "aidl::android::hardware::sensors::AdditionalInfo::AdditionalInfoPayload::writeToParcel",
   "linker_set_key" : "_ZNK4aidl7android8hardware7sensors14AdditionalInfo21AdditionalInfoPayload13writeToParcelEP7AParcel",
   "parameters" :
   [
    {
     "is_this_ptr" : true,
     "referenced_type" : "_ZTIPKN4aidl7android8hardware7sensors14AdditionalInfo21AdditionalInfoPayloadE"
    },
    {
     "referenced_type" : "_ZTIP7AParcel"
    }
   ],
   "return_type" : "_ZTIi",
   "source_file" : "out/soong/.intermediates/hardware/interfaces/sensors/aidl/android.hardware.sensors-V1-ndk-source/gen/include/aidl/android/hardware/sensors/AdditionalInfo.h"
  },
  {
   "function_name" : "aidl::android::hardware::sensors::DynamicSensorInfo::writeToParcel",
   "linker_set_key" : "_ZNK4aidl7android8hardware7sensors17DynamicSensorInfo13writeToParcelEP7AParcel",
   "parameters" :
   [
    {
     "is_this_ptr" : true,
     "referenced_type" : "_ZTIPKN4aidl7android8hardware7sensors17DynamicSensorInfoE"
    },
    {
     "referenced_type" : "_ZTIP7AParcel"
    }
   ],
   "return_type" : "_ZTIi",
   "source_file" : "out/soong/.intermediates/hardware/interfaces/sensors/aidl/android.hardware.sensors-V1-ndk-source/gen/include/aidl/android/hardware/sensors/DynamicSensorInfo.h"
  },
  {
   "function_name" : "aidl::android::hardware::sensors::DynamicSensorInfo::Uuid::writeToParcel",
   "linker_set_key" : "_ZNK4aidl7android8hardware7sensors17DynamicSensorInfo4Uuid13writeToParcelEP7AParcel",
   "parameters" :
   [
    {
     "is_this_ptr" : true,
     "referenced_type" : "_ZTIPKN4aidl7android8hardware7sensors17DynamicSensorInfo4UuidE"
    },
    {
     "referenced_type" : "_ZTIP7AParcel"
    }
   ],
   "return_type" : "_ZTIi",
   "source_file" : "out/soong/.intermediates/hardware/interfaces/sensors/aidl/android.hardware.sensors-V1-ndk-source/gen/include/aidl/android/hardware/sensors/DynamicSensorInfo.h"
  },
  {
   "function_name" : "aidl::android::hardware::sensors::Event::EventPayload::HeadTracker::writeToParcel",
   "linker_set_key" : "_ZNK4aidl7android8hardware7sensors5Event12EventPayload11HeadTracker13writeToParcelEP7AParcel",
   "parameters" :
   [
    {
     "is_this_ptr" : true,
     "referenced_type" : "_ZTIPKN4aidl7android8hardware7sensors5Event12EventPayload11HeadTrackerE"
    },
    {
     "referenced_type" : "_ZTIP7AParcel"
    }
   ],
   "return_type" : "_ZTIi",
   "source_file" : "out/soong/.intermediates/hardware/interfaces/sensors/aidl/android.hardware.sensors-V1-ndk-source/gen/include/aidl/android/hardware/sensors/Event.h"
  },
  {
   "function_name" : "aidl::android::hardware::sensors::Event::EventPayload::writeToParcel",
   "linker_set_key" : "_ZNK4aidl7android8hardware7sensors5Event12EventPayload13writeToParcelEP7AParcel",
   "parameters" :
   [
    {
     "is_this_ptr" : true,
     "referenced_type" : "_ZTIPKN4aidl7android8hardware7sensors5Event12EventPayloadE"
    },
    {
     "referenced_type" : "_ZTIP7AParcel"
    }
   ],
   "return_type" : "_ZTIi",
   "source_file" : "out/soong/.intermediates/hardware/interfaces/sensors/aidl/android.hardware.sensors-V1-ndk-source/gen/include/aidl/android/hardware/sensors/Event.h"
  },
  {
   "function_name" : "aidl::android::hardware::sensors::Event::EventPayload::LimitedAxesImu::writeToParcel",
   "linker_set_key" : "_ZNK4aidl7android8hardware7sensors5Event12EventPayload14LimitedAxesImu13writeToParcelEP7AParcel",
   "parameters" :
   [
    {
     "is_this_ptr" : true,
     "referenced_type" : "_ZTIPKN4aidl7android8hardware7sensors5Event12EventPayload14LimitedAxesImuE"
    },
    {
     "referenced_type" : "_ZTIP7AParcel"
    }
   ],
   "return_type" : "_ZTIi",
   "source_file" : "out/soong/.intermediates/hardware/interfaces/sensors/aidl/android.hardware.sensors-V1-ndk-source/gen/include/aidl/android/hardware/sensors/Event.h"
  },
  {
   "function_name" : "aidl::android::hardware::sensors::Event::EventPayload::LimitedAxesImuUncal::writeToParcel",
   "linker_set_key" : "_ZNK4aidl7android8hardware7sensors5Event12EventPayload19LimitedAxesImuUncal13writeToParcelEP7AParcel",
   "parameters" :
   [
    {
     "is_this_ptr" : true,
     "referenced_type" : "_ZTIPKN4aidl7android8hardware7sensors5Event12EventPayload19LimitedAxesImuUncalE"
    },
    {
     "referenced_type" : "_ZTIP7AParcel"
    }
   ],
   "return_type" : "_ZTIi",
   "source_file" : "out/soong/.intermediates/hardware/interfaces/sensors/aidl/android.hardware.sensors-V1-ndk-source/gen/include/aidl/android/hardware/sensors/Event.h"
  },
  {
   "function_name" : "aidl::android::hardware::sensors::Event::EventPayload::Data::writeToParcel",
   "linker_set_key" : "_ZNK4aidl7android8hardware7sensors5Event12EventPayload4Data13writeToParcelEP7AParcel",
   "parameters" :
   [
    {
     "is_this_ptr" : true,
     "referenced_type" : "_ZTIPKN4aidl7android8hardware7sensors5Event12EventPayload4DataE"
    },
    {
     "referenced_type" : "_ZTIP7AParcel"
    }
   ],
   "return_type" : "_ZTIi",
   "source_file" : "out/soong/.intermediates/hardware/interfaces/sensors/aidl/android.hardware.sensors-V1-ndk-source/gen/include/aidl/android/hardware/sensors/Event.h"
  },
  {
   "function_name" : "aidl::android::hardware::sensors::Event::EventPayload::Vec3::writeToParcel",
   "linker_set_key" : "_ZNK4aidl7android8hardware7sensors5Event12EventPayload4Vec313writeToParcelEP7AParcel",
   "parameters" :
   [
    {
     "is_this_ptr" : true,
     "referenced_type" : "_ZTIPKN4aidl7android8hardware7sensors5Event12EventPayload4Vec3E"
    },
    {
     "referenced_type" : "_ZTIP7AParcel"
    }
   ],
   "return_type" : "_ZTIi",
   "source_file" : "out/soong/.intermediates/hardware/interfaces/sensors/aidl/android.hardware.sensors-V1-ndk-source/gen/include/aidl/android/hardware/sensors/Event.h"
  },
  {
   "function_name" : "aidl::android::hardware::sensors::Event::EventPayload::Vec4::writeToParcel",
   "linker_set_key" : "_ZNK4aidl7android8hardware7sensors5Event12EventPayload4Vec413writeToParcelEP7AParcel",
   "parameters" :
   [
    {
     "is_this_ptr" : true,
     "referenced_type" : "_ZTIPKN4aidl7android8hardware7sensors5Event12EventPayload4Vec4E"
    },
    {
     "referenced_type" : "_ZTIP7AParcel"
    }
   ],
   "return_type" : "_ZTIi",
   "source_file" : "out/soong/.intermediates/hardware/interfaces/sensors/aidl/android.hardware.sensors-V1-ndk-source/gen/include/aidl/android/hardware/sensors/Event.h"
  },
  {
   "function_name" : "aidl::android::hardware::sensors::Event::EventPayload::Uncal::writeToParcel",
   "linker_set_key" : "_ZNK4aidl7android8hardware7sensors5Event12EventPayload5Uncal13writeToParcelEP7AParcel",
   "parameters" :
   [
    {
     "is_this_ptr" : true,
     "referenced_type" : "_ZTIPKN4aidl7android8hardware7sensors5Event12EventPayload5UncalE"
    },
    {
     "referenced_type" : "_ZTIP7AParcel"
    }
   ],
   "return_type" : "_ZTIi",
   "source_file" : "out/soong/.intermediates/hardware/interfaces/sensors/aidl/android.hardware.sensors-V1-ndk-source/gen/include/aidl/android/hardware/sensors/Event.h"
  },
  {
   "function_name" : "aidl::android::hardware::sensors::Event::EventPayload::Heading::writeToParcel",
   "linker_set_key" : "_ZNK4aidl7android8hardware7sensors5Event12EventPayload7Heading13writeToParcelEP7AParcel",
   "parameters" :
   [
    {
     "is_this_ptr" : true,
     "referenced_type" : "_ZTIPKN4aidl7android8hardware7sensors5Event12EventPayload7HeadingE"
    },
    {
     "referenced_type" : "_ZTIP7AParcel"
    }
   ],
   "return_type" : "_ZTIi",
   "source_file" : "out/soong/.intermediates/hardware/interfaces/sensors/aidl/android.hardware.sensors-V1-ndk-source/gen/include/aidl/android/hardware/sensors/Event.h"
  },
  {
   "function_name" : "aidl::android::hardware::sensors::Event::EventPayload::MetaData::writeToParcel",
   "linker_set_key" : "_ZNK4aidl7android8hardware7sensors5Event12EventPayload8MetaData13writeToParcelEP7AParcel",
   "parameters" :
   [
    {
     "is_this_ptr" : true,
     "referenced_type" : "_ZTIPKN4aidl7android8hardware7sensors5Event12EventPayload8MetaDataE"
    },
    {
     "referenced_type" : "_ZTIP7AParcel"
    }
   ],
   "return_type" : "_ZTIi",
   "source_file" : "out/soong/.intermediates/hardware/interfaces/sensors/aidl/android.hardware.sensors-V1-ndk-source/gen/include/aidl/android/hardware/sensors/Event.h"
  },
  {
   "function_name" : "aidl::android::hardware::sensors::Event::EventPayload::Pose6Dof::writeToParcel",
   "linker_set_key" : "_ZNK4aidl7android8hardware7sensors5Event12EventPayload8Pose6Dof13writeToParcelEP7AParcel",
   "parameters" :
   [
    {
     "is_this_ptr" : true,
     "referenced_type" : "_ZTIPKN4aidl7android8hardware7sensors5Event12EventPayload8Pose6DofE"
    },
    {
     "referenced_type" : "_ZTIP7AParcel"
    }
   ],
   "return_type" : "_ZTIi",
   "source_file" : "out/soong/.intermediates/hardware/interfaces/sensors/aidl/android.hardware.sensors-V1-ndk-source/gen/include/aidl/android/hardware/sensors/Event.h"
  },
  {
   "function_name" : "aidl::android::hardware::sensors::Event::EventPayload::HeartRate::writeToParcel",
   "linker_set_key" : "_ZNK4aidl7android8hardware7sensors5Event12EventPayload9HeartRate13writeToParcelEP7AParcel",
   "parameters" :
   [
    {
     "is_this_ptr" : true,
     "referenced_type" : "_ZTIPKN4aidl7android8hardware7sensors5Event12EventPayload9HeartRateE"
    },
    {
     "referenced_type" : "_ZTIP7AParcel"
    }
   ],
   "return_type" : "_ZTIi",
   "source_file" : "out/soong/.intermediates/hardware/interfaces/sensors/aidl/android.hardware.sensors-V1-ndk-source/gen/include/aidl/android/hardware/sensors/Event.h"
  },
  {
   "function_name" : "aidl::android::hardware::sensors::Event::writeToParcel",
   "linker_set_key" : "_ZNK4aidl7android8hardware7sensors5Event13writeToParcelEP7AParcel",
   "parameters" :
   [
    {
     "is_this_ptr" : true,
     "referenced_type" : "_ZTIPKN4aidl7android8hardware7sensors5EventE"
    },
    {
     "referenced_type" : "_ZTIP7AParcel"
    }
   ],
   "return_type" : "_ZTIi",
   "source_file" : "out/soong/.intermediates/hardware/interfaces/sensors/aidl/android.hardware.sensors-V1-ndk-source/gen/include/aidl/android/hardware/sensors/Event.h"
  },
  {
   "function_name" : "aidl::android::hardware::sensors::ISensors::SharedMemInfo::writeToParcel",
   "linker_set_key" : "_ZNK4aidl7android8hardware7sensors8ISensors13SharedMemInfo13writeToParcelEP7AParcel",
   "parameters" :
   [
    {
     "is_this_ptr" : true,
     "referenced_type" : "_ZTIPKN4aidl7android8hardware7sensors8ISensors13SharedMemInfoE"
    },
    {
     "referenced_type" : "_ZTIP7AParcel"
    }
   ],
   "return_type" : "_ZTIi",
   "source_file" : "out/soong/.intermediates/hardware/interfaces/sensors/aidl/android.hardware.sensors-V1-ndk-source/gen/include/aidl/android/hardware/sensors/ISensors.h"
  }
 ],
 "global_vars" :
 [
  {
   "linker_set_key" : "_ZN4aidl7android8hardware7sensors10SensorInfo10descriptorE",
   "name" : "aidl::android::hardware::sensors::SensorInfo::descriptor",
   "referenced_type" : "_ZTIPKc",
   "source_file" : "out/soong/.intermediates/hardware/interfaces/sensors/aidl/android.hardware.sensors-V1-ndk-source/gen/include/aidl/android/hardware/sensors/SensorInfo.h"
  },
  {
   "linker_set_key" : "_ZN4aidl7android8hardware7sensors14AdditionalInfo10descriptorE",
   "name" : "aidl::android::hardware::sensors::AdditionalInfo::descriptor",
   "referenced_type" : "_ZTIPKc",
   "source_file" : "out/soong/.intermediates/hardware/interfaces/sensors/aidl/android.hardware.sensors-V1-ndk-source/gen/include/aidl/android/hardware/sensors/AdditionalInfo.h"
  },
  {
   "linker_set_key" : "_ZN4aidl7android8hardware7sensors14AdditionalInfo21AdditionalInfoPayload10descriptorE",
   "name" : "aidl::android::hardware::sensors::AdditionalInfo::AdditionalInfoPayload::descriptor",
   "referenced_type" : "_ZTIPKc",
   "source_file" : "out/soong/.intermediates/hardware/interfaces/sensors/aidl/android.hardware.sensors-V1-ndk-source/gen/include/aidl/android/hardware/sensors/AdditionalInfo.h"
  },
  {
   "linker_set_key" : "_ZN4aidl7android8hardware7sensors14AdditionalInfo21AdditionalInfoPayload11FloatValues10descriptorE",
   "name" : "aidl::android::hardware::sensors::AdditionalInfo::AdditionalInfoPayload::FloatValues::descriptor",
   "referenced_type" : "_ZTIPKc",
   "source_file" : "out/soong/.intermediates/hardware/interfaces/sensors/aidl/android.hardware.sensors-V1-ndk-source/gen/include/aidl/android/hardware/sensors/AdditionalInfo.h"
  },
  {
   "linker_set_key" : "_ZN4aidl7android8hardware7sensors14AdditionalInfo21AdditionalInfoPayload11Int32Values10descriptorE",
   "name" : "aidl::android::hardware::sensors::AdditionalInfo::AdditionalInfoPayload::Int32Values::descriptor",
   "referenced_type" : "_ZTIPKc",
   "source_file" : "out/soong/.intermediates/hardware/interfaces/sensors/aidl/android.hardware.sensors-V1-ndk-source/gen/include/aidl/android/hardware/sensors/AdditionalInfo.h"
  },
  {
   "linker_set_key" : "_ZN4aidl7android8hardware7sensors16ISensorsCallback10descriptorE",
   "name" : "aidl::android::hardware::sensors::ISensorsCallback::descriptor",
   "referenced_type" : "_ZTIPKc",
   "source_file" : "out/soong/.intermediates/hardware/interfaces/sensors/aidl/android.hardware.sensors-V1-ndk-source/gen/include/aidl/android/hardware/sensors/ISensorsCallback.h"
  },
  {
   "access" : "private",
   "linker_set_key" : "_ZN4aidl7android8hardware7sensors16ISensorsCallback12default_implE",
   "name" : "aidl::android::hardware::sensors::ISensorsCallback::default_impl",
   "referenced_type" : "_ZTINSt3__110shared_ptrIN4aidl7android8hardware7sensors16ISensorsCallbackEEE",
   "source_file" : "out/soong/.intermediates/hardware/interfaces/sensors/aidl/android.hardware.sensors-V1-ndk-source/gen/include/aidl/android/hardware/sensors/ISensorsCallback.h"
  },
  {
   "linker_set_key" : "_ZN4aidl7android8hardware7sensors16ISensorsCallback4hashE",
   "name" : "aidl::android::hardware::sensors::ISensorsCallback::hash",
   "referenced_type" : "_ZTIKNSt3__112basic_stringIcNS_11char_traitsIcEENS_9allocatorIcEEEE",
   "source_file" : "out/soong/.intermediates/hardware/interfaces/sensors/aidl/android.hardware.sensors-V1-ndk-source/gen/include/aidl/android/hardware/sensors/ISensorsCallback.h"
  },
  {
   "linker_set_key" : "_ZN4aidl7android8hardware7sensors17DynamicSensorInfo10descriptorE",
   "name" : "aidl::android::hardware::sensors::DynamicSensorInfo::descriptor",
   "referenced_type" : "_ZTIPKc",
   "source_file" : "out/soong/.intermediates/hardware/interfaces/sensors/aidl/android.hardware.sensors-V1-ndk-source/gen/include/aidl/android/hardware/sensors/DynamicSensorInfo.h"
  },
  {
   "linker_set_key" : "_ZN4aidl7android8hardware7sensors17DynamicSensorInfo4Uuid10descriptorE",
   "name" : "aidl::android::hardware::sensors::DynamicSensorInfo::Uuid::descriptor",
   "referenced_type" : "_ZTIPKc",
   "source_file" : "out/soong/.intermediates/hardware/interfaces/sensors/aidl/android.hardware.sensors-V1-ndk-source/gen/include/aidl/android/hardware/sensors/DynamicSensorInfo.h"
  },
  {
   "linker_set_key" : "_ZN4aidl7android8hardware7sensors5Event10descriptorE",
   "name" : "aidl::android::hardware::sensors::Event::descriptor",
   "referenced_type" : "_ZTIPKc",
   "source_file" : "out/soong/.intermediates/hardware/interfaces/sensors/aidl/android.hardware.sensors-V1-ndk-source/gen/include/aidl/android/hardware/sensors/Event.h"
  },
  {
   "linker_set_key" : "_ZN4aidl7android8hardware7sensors5Event12EventPayload10descriptorE",
   "name" : "aidl::android::hardware::sensors::Event::EventPayload::descriptor",
   "referenced_type" : "_ZTIPKc",
   "source_file" : "out/soong/.intermediates/hardware/interfaces/sensors/aidl/android.hardware.sensors-V1-ndk-source/gen/include/aidl/android/hardware/sensors/Event.h"
  },
  {
   "linker_set_key" : "_ZN4aidl7android8hardware7sensors5Event12EventPayload11HeadTracker10descriptorE",
   "name" : "aidl::android::hardware::sensors::Event::EventPayload::HeadTracker::descriptor",
   "referenced_type" : "_ZTIPKc",
   "source_file" : "out/soong/.intermediates/hardware/interfaces/sensors/aidl/android.hardware.sensors-V1-ndk-source/gen/include/aidl/android/hardware/sensors/Event.h"
  },
  {
   "linker_set_key" : "_ZN4aidl7android8hardware7sensors5Event12EventPayload14LimitedAxesImu10descriptorE",
   "name" : "aidl::android::hardware::sensors::Event::EventPayload::LimitedAxesImu::descriptor",
   "referenced_type" : "_ZTIPKc",
   "source_file" : "out/soong/.intermediates/hardware/interfaces/sensors/aidl/android.hardware.sensors-V1-ndk-source/gen/include/aidl/android/hardware/sensors/Event.h"
  },
  {
   "linker_set_key" : "_ZN4aidl7android8hardware7sensors5Event12EventPayload19LimitedAxesImuUncal10descriptorE",
   "name" : "aidl::android::hardware::sensors::Event::EventPayload::LimitedAxesImuUncal::descriptor",
   "referenced_type" : "_ZTIPKc",
   "source_file" : "out/soong/.intermediates/hardware/interfaces/sensors/aidl/android.hardware.sensors-V1-ndk-source/gen/include/aidl/android/hardware/sensors/Event.h"
  },
  {
   "linker_set_key" : "_ZN4aidl7android8hardware7sensors5Event12EventPayload4Data10descriptorE",
   "name" : "aidl::android::hardware::sensors::Event::EventPayload::Data::descriptor",
   "referenced_type" : "_ZTIPKc",
   "source_file" : "out/soong/.intermediates/hardware/interfaces/sensors/aidl/android.hardware.sensors-V1-ndk-source/gen/include/aidl/android/hardware/sensors/Event.h"
  },
  {
   "linker_set_key" : "_ZN4aidl7android8hardware7sensors5Event12EventPayload4Vec310descriptorE",
   "name" : "aidl::android::hardware::sensors::Event::EventPayload::Vec3::descriptor",
   "referenced_type" : "_ZTIPKc",
   "source_file" : "out/soong/.intermediates/hardware/interfaces/sensors/aidl/android.hardware.sensors-V1-ndk-source/gen/include/aidl/android/hardware/sensors/Event.h"
  },
  {
   "linker_set_key" : "_ZN4aidl7android8hardware7sensors5Event12EventPayload4Vec410descriptorE",
   "name" : "aidl::android::hardware::sensors::Event::EventPayload::Vec4::descriptor",
   "referenced_type" : "_ZTIPKc",
   "source_file" : "out/soong/.intermediates/hardware/interfaces/sensors/aidl/android.hardware.sensors-V1-ndk-source/gen/include/aidl/android/hardware/sensors/Event.h"
  },
  {
   "linker_set_key" : "_ZN4aidl7android8hardware7sensors5Event12EventPayload5Uncal10descriptorE",
   "name" : "aidl::android::hardware::sensors::Event::EventPayload::Uncal::descriptor",
   "referenced_type" : "_ZTIPKc",
   "source_file" : "out/soong/.intermediates/hardware/interfaces/sensors/aidl/android.hardware.sensors-V1-ndk-source/gen/include/aidl/android/hardware/sensors/Event.h"
  },
  {
   "linker_set_key" : "_ZN4aidl7android8hardware7sensors5Event12EventPayload7Heading10descriptorE",
   "name" : "aidl::android::hardware::sensors::Event::EventPayload::Heading::descriptor",
   "referenced_type" : "_ZTIPKc",
   "source_file" : "out/soong/.intermediates/hardware/interfaces/sensors/aidl/android.hardware.sensors-V1-ndk-source/gen/include/aidl/android/hardware/sensors/Event.h"
  },
  {
   "linker_set_key" : "_ZN4aidl7android8hardware7sensors5Event12EventPayload8MetaData10descriptorE",
   "name" : "aidl::android::hardware::sensors::Event::EventPayload::MetaData::descriptor",
   "referenced_type" : "_ZTIPKc",
   "source_file" : "out/soong/.intermediates/hardware/interfaces/sensors/aidl/android.hardware.sensors-V1-ndk-source/gen/include/aidl/android/hardware/sensors/Event.h"
  },
  {
   "linker_set_key" : "_ZN4aidl7android8hardware7sensors5Event12EventPayload8Pose6Dof10descriptorE",
   "name" : "aidl::android::hardware::sensors::Event::EventPayload::Pose6Dof::descriptor",
   "referenced_type" : "_ZTIPKc",
   "source_file" : "out/soong/.intermediates/hardware/interfaces/sensors/aidl/android.hardware.sensors-V1-ndk-source/gen/include/aidl/android/hardware/sensors/Event.h"
  },
  {
   "linker_set_key" : "_ZN4aidl7android8hardware7sensors5Event12EventPayload9HeartRate10descriptorE",
   "name" : "aidl::android::hardware::sensors::Event::EventPayload::HeartRate::descriptor",
   "referenced_type" : "_ZTIPKc",
   "source_file" : "out/soong/.intermediates/hardware/interfaces/sensors/aidl/android.hardware.sensors-V1-ndk-source/gen/include/aidl/android/hardware/sensors/Event.h"
  },
  {
   "linker_set_key" : "_ZN4aidl7android8hardware7sensors8ISensors10descriptorE",
   "name" : "aidl::android::hardware::sensors::ISensors::descriptor",
   "referenced_type" : "_ZTIPKc",
   "source_file" : "out/soong/.intermediates/hardware/interfaces/sensors/aidl/android.hardware.sensors-V1-ndk-source/gen/include/aidl/android/hardware/sensors/ISensors.h"
  },
  {
   "access" : "private",
   "linker_set_key" : "_ZN4aidl7android8hardware7sensors8ISensors12default_implE",
   "name" : "aidl::android::hardware::sensors::ISensors::default_impl",
   "referenced_type" : "_ZTINSt3__110shared_ptrIN4aidl7android8hardware7sensors8ISensorsEEE",
   "source_file" : "out/soong/.intermediates/hardware/interfaces/sensors/aidl/android.hardware.sensors-V1-ndk-source/gen/include/aidl/android/hardware/sensors/ISensors.h"
  },
  {
   "linker_set_key" : "_ZN4aidl7android8hardware7sensors8ISensors13SharedMemInfo10descriptorE",
   "name" : "aidl::android::hardware::sensors::ISensors::SharedMemInfo::descriptor",
   "referenced_type" : "_ZTIPKc",
   "source_file" : "out/soong/.intermediates/hardware/interfaces/sensors/aidl/android.hardware.sensors-V1-ndk-source/gen/include/aidl/android/hardware/sensors/ISensors.h"
  },
  {
   "linker_set_key" : "_ZN4aidl7android8hardware7sensors8ISensors4hashE",
   "name" : "aidl::android::hardware::sensors::ISensors::hash",
   "referenced_type" : "_ZTIKNSt3__112basic_stringIcNS_11char_traitsIcEENS_9allocatorIcEEEE",
   "source_file" : "out/soong/.intermediates/hardware/interfaces/sensors/aidl/android.hardware.sensors-V1-ndk-source/gen/include/aidl/android/hardware/sensors/ISensors.h"
  }
 ],
 "lvalue_reference_types" :
 [
  {
   "alignment" : 4,
   "linker_set_key" : "_ZTIRKN3ndk10SpAIBinderE",
   "name" : "const ndk::SpAIBinder &",
   "referenced_type" : "_ZTIKN3ndk10SpAIBinderE",
   "self_type" : "_ZTIRKN3ndk10SpAIBinderE",
   "size" : 4,
   "source_file" : "frameworks/native/libs/binder/ndk/include_cpp/android/binder_auto_utils.h"
  },
  {
   "alignment" : 4,
   "linker_set_key" : "_ZTIRKN3ndk13ScopedAParcelE",
   "name" : "const ndk::ScopedAParcel &",
   "referenced_type" : "_ZTIKN3ndk13ScopedAParcelE",
   "self_type" : "_ZTIRKN3ndk13ScopedAParcelE",
   "size" : 4,
   "source_file" : "frameworks/native/libs/binder/ndk/include_cpp/android/binder_auto_utils.h"
  },
  {
   "alignment" : 4,
   "linker_set_key" : "_ZTIRKN3ndk17AParcelableHolderE",
   "name" : "const ndk::AParcelableHolder &",
   "referenced_type" : "_ZTIKN3ndk17AParcelableHolderE",
   "self_type" : "_ZTIRKN3ndk17AParcelableHolderE",
   "size" : 4,
   "source_file" : "frameworks/native/libs/binder/ndk/include_cpp/android/binder_parcelable_utils.h"
  },
  {
   "alignment" : 4,
   "linker_set_key" : "_ZTIRKN3ndk20ScopedFileDescriptorE",
   "name" : "const ndk::ScopedFileDescriptor &",
   "referenced_type" : "_ZTIKN3ndk20ScopedFileDescriptorE",
   "self_type" : "_ZTIRKN3ndk20ScopedFileDescriptorE",
   "size" : 4,
   "source_file" : "frameworks/native/libs/binder/ndk/include_cpp/android/binder_auto_utils.h"
  },
  {
   "alignment" : 4,
   "linker_set_key" : "_ZTIRKN4aidl7android8hardware6common12NativeHandleE",
   "name" : "const aidl::android::hardware::common::NativeHandle &",
   "referenced_type" : "_ZTIKN4aidl7android8hardware6common12NativeHandleE",
   "self_type" : "_ZTIRKN4aidl7android8hardware6common12NativeHandleE",
   "size" : 4,
   "source_file" : "frameworks/native/libs/binder/ndk/include_cpp/android/binder_to_string.h"
  },
  {
   "alignment" : 4,
   "linker_set_key" : "_ZTIRKN4aidl7android8hardware6common3fmq12MQDescriptorINS1_7sensors5EventENS3_21SynchronizedReadWriteEEE",
   "name" : "const aidl::android::hardware::common::fmq::MQDescriptor<aidl::android::hardware::sensors::Event, aidl::android::hardware::common::fmq::SynchronizedReadWrite> &",
   "referenced_type" : "_ZTIKN4aidl7android8hardware6common3fmq12MQDescriptorINS1_7sensors5EventENS3_21SynchronizedReadWriteEEE",
   "self_type" : "_ZTIRKN4aidl7android8hardware6common3fmq12MQDescriptorINS1_7sensors5EventENS3_21SynchronizedReadWriteEEE",
   "size" : 4,
   "source_file" : "out/soong/.intermediates/hardware/interfaces/sensors/aidl/android.hardware.sensors-V1-ndk-source/gen/include/aidl/android/hardware/sensors/ISensors.h"
  },
  {
   "alignment" : 4,
   "linker_set_key" : "_ZTIRKN4aidl7android8hardware6common3fmq12MQDescriptorIiNS3_21SynchronizedReadWriteEEE",
   "name" : "const aidl::android::hardware::common::fmq::MQDescriptor<int, aidl::android::hardware::common::fmq::SynchronizedReadWrite> &",
   "referenced_type" : "_ZTIKN4aidl7android8hardware6common3fmq12MQDescriptorIiNS3_21SynchronizedReadWriteEEE",
   "self_type" : "_ZTIRKN4aidl7android8hardware6common3fmq12MQDescriptorIiNS3_21SynchronizedReadWriteEEE",
   "size" : 4,
   "source_file" : "out/soong/.intermediates/hardware/interfaces/sensors/aidl/android.hardware.sensors-V1-ndk-source/gen/include/aidl/android/hardware/sensors/ISensors.h"
  },
  {
   "alignment" : 4,
   "linker_set_key" : "_ZTIRKN4aidl7android8hardware6common3fmq17GrantorDescriptorE",
   "name" : "const aidl::android::hardware::common::fmq::GrantorDescriptor &",
   "referenced_type" : "_ZTIKN4aidl7android8hardware6common3fmq17GrantorDescriptorE",
   "self_type" : "_ZTIRKN4aidl7android8hardware6common3fmq17GrantorDescriptorE",
   "size" : 4,
   "source_file" : "out/soong/.intermediates/hardware/interfaces/common/fmq/aidl/android.hardware.common.fmq-V1-ndk-source/gen/include/aidl/android/hardware/common/fmq/GrantorDescriptor.h"
  },
  {
   "alignment" : 4,
   "linker_set_key" : "_ZTIRKN4aidl7android8hardware7sensors10SensorInfoE",
   "name" : "const aidl::android::hardware::sensors::SensorInfo &",
   "referenced_type" : "_ZTIKN4aidl7android8hardware7sensors10SensorInfoE",
   "self_type" : "_ZTIRKN4aidl7android8hardware7sensors10SensorInfoE",
   "size" : 4,
   "source_file" : "out/soong/.intermediates/hardware/interfaces/sensors/aidl/android.hardware.sensors-V1-ndk-source/gen/include/aidl/android/hardware/sensors/SensorInfo.h"
  },
  {
   "alignment" : 4,
   "linker_set_key" : "_ZTIRKN4aidl7android8hardware7sensors10SensorTypeE",
   "name" : "const aidl::android::hardware::sensors::SensorType &",
   "referenced_type" : "_ZTIKN4aidl7android8hardware7sensors10SensorTypeE",
   "self_type" : "_ZTIRKN4aidl7android8hardware7sensors10SensorTypeE",
   "size" : 4,
   "source_file" : "frameworks/native/libs/binder/ndk/include_cpp/android/binder_to_string.h"
  },
  {
   "alignment" : 4,
   "linker_set_key" : "_ZTIRKN4aidl7android8hardware7sensors12SensorStatusE",
   "name" : "const aidl::android::hardware::sensors::SensorStatus &",
   "referenced_type" : "_ZTIKN4aidl7android8hardware7sensors12SensorStatusE",
   "self_type" : "_ZTIRKN4aidl7android8hardware7sensors12SensorStatusE",
   "size" : 4,
   "source_file" : "frameworks/native/libs/binder/ndk/include_cpp/android/binder_to_string.h"
  },
  {
   "alignment" : 4,
   "linker_set_key" : "_ZTIRKN4aidl7android8hardware7sensors14AdditionalInfo18AdditionalInfoTypeE",
   "name" : "const aidl::android::hardware::sensors::AdditionalInfo::AdditionalInfoType &",
   "referenced_type" : "_ZTIKN4aidl7android8hardware7sensors14AdditionalInfo18AdditionalInfoTypeE",
   "self_type" : "_ZTIRKN4aidl7android8hardware7sensors14AdditionalInfo18AdditionalInfoTypeE",
   "size" : 4,
   "source_file" : "frameworks/native/libs/binder/ndk/include_cpp/android/binder_to_string.h"
  },
  {
   "alignment" : 4,
   "linker_set_key" : "_ZTIRKN4aidl7android8hardware7sensors14AdditionalInfo21AdditionalInfoPayload11FloatValuesE",
   "name" : "const aidl::android::hardware::sensors::AdditionalInfo::AdditionalInfoPayload::FloatValues &",
   "referenced_type" : "_ZTIKN4aidl7android8hardware7sensors14AdditionalInfo21AdditionalInfoPayload11FloatValuesE",
   "self_type" : "_ZTIRKN4aidl7android8hardware7sensors14AdditionalInfo21AdditionalInfoPayload11FloatValuesE",
   "size" : 4,
   "source_file" : "frameworks/native/libs/binder/ndk/include_cpp/android/binder_to_string.h"
  },
  {
   "alignment" : 4,
   "linker_set_key" : "_ZTIRKN4aidl7android8hardware7sensors14AdditionalInfo21AdditionalInfoPayload11Int32ValuesE",
   "name" : "const aidl::android::hardware::sensors::AdditionalInfo::AdditionalInfoPayload::Int32Values &",
   "referenced_type" : "_ZTIKN4aidl7android8hardware7sensors14AdditionalInfo21AdditionalInfoPayload11Int32ValuesE",
   "self_type" : "_ZTIRKN4aidl7android8hardware7sensors14AdditionalInfo21AdditionalInfoPayload11Int32ValuesE",
   "size" : 4,
   "source_file" : "frameworks/native/libs/binder/ndk/include_cpp/android/binder_to_string.h"
  },
  {
   "alignment" : 4,
   "linker_set_key" : "_ZTIRKN4aidl7android8hardware7sensors14AdditionalInfo21AdditionalInfoPayload3TagE",
   "name" : "const aidl::android::hardware::sensors::AdditionalInfo::AdditionalInfoPayload::Tag &",
   "referenced_type" : "_ZTIKN4aidl7android8hardware7sensors14AdditionalInfo21AdditionalInfoPayload3TagE",
   "self_type" : "_ZTIRKN4aidl7android8hardware7sensors14AdditionalInfo21AdditionalInfoPayload3TagE",
   "size" : 4,
   "source_file" : "out/soong/.intermediates/hardware/interfaces/sensors/aidl/android.hardware.sensors-V1-ndk-source/gen/include/aidl/android/hardware/sensors/AdditionalInfo.h"
  },
  {
   "alignment" : 4,
   "linker_set_key" : "_ZTIRKN4aidl7android8hardware7sensors14AdditionalInfo21AdditionalInfoPayloadE",
   "name" : "const aidl::android::hardware::sensors::AdditionalInfo::AdditionalInfoPayload &",
   "referenced_type" : "_ZTIKN4aidl7android8hardware7sensors14AdditionalInfo21AdditionalInfoPayloadE",
   "self_type" : "_ZTIRKN4aidl7android8hardware7sensors14AdditionalInfo21AdditionalInfoPayloadE",
   "size" : 4,
   "source_file" : "frameworks/native/libs/binder/ndk/include_cpp/android/binder_to_string.h"
  },
  {
   "alignment" : 4,
   "linker_set_key" : "_ZTIRKN4aidl7android8hardware7sensors14AdditionalInfoE",
   "name" : "const aidl::android::hardware::sensors::AdditionalInfo &",
   "referenced_type" : "_ZTIKN4aidl7android8hardware7sensors14AdditionalInfoE",
   "self_type" : "_ZTIRKN4aidl7android8hardware7sensors14AdditionalInfoE",
   "size" : 4,
   "source_file" : "out/soong/.intermediates/hardware/interfaces/sensors/aidl/android.hardware.sensors-V1-ndk-source/gen/include/aidl/android/hardware/sensors/AdditionalInfo.h"
  },
  {
   "alignment" : 4,
   "linker_set_key" : "_ZTIRKN4aidl7android8hardware7sensors17DynamicSensorInfo4UuidE",
   "name" : "const aidl::android::hardware::sensors::DynamicSensorInfo::Uuid &",
   "referenced_type" : "_ZTIKN4aidl7android8hardware7sensors17DynamicSensorInfo4UuidE",
   "self_type" : "_ZTIRKN4aidl7android8hardware7sensors17DynamicSensorInfo4UuidE",
   "size" : 4,
   "source_file" : "frameworks/native/libs/binder/ndk/include_cpp/android/binder_to_string.h"
  },
  {
   "alignment" : 4,
   "linker_set_key" : "_ZTIRKN4aidl7android8hardware7sensors17DynamicSensorInfoE",
   "name" : "const aidl::android::hardware::sensors::DynamicSensorInfo &",
   "referenced_type" : "_ZTIKN4aidl7android8hardware7sensors17DynamicSensorInfoE",
   "self_type" : "_ZTIRKN4aidl7android8hardware7sensors17DynamicSensorInfoE",
   "size" : 4,
   "source_file" : "out/soong/.intermediates/hardware/interfaces/sensors/aidl/android.hardware.sensors-V1-ndk-source/gen/include/aidl/android/hardware/sensors/DynamicSensorInfo.h"
  },
  {
   "alignment" : 4,
   "linker_set_key" : "_ZTIRKN4aidl7android8hardware7sensors5Event12EventPayload11HeadTrackerE",
   "name" : "const aidl::android::hardware::sensors::Event::EventPayload::HeadTracker &",
   "referenced_type" : "_ZTIKN4aidl7android8hardware7sensors5Event12EventPayload11HeadTrackerE",
   "self_type" : "_ZTIRKN4aidl7android8hardware7sensors5Event12EventPayload11HeadTrackerE",
   "size" : 4,
   "source_file" : "frameworks/native/libs/binder/ndk/include_cpp/android/binder_to_string.h"
  },
  {
   "alignment" : 4,
   "linker_set_key" : "_ZTIRKN4aidl7android8hardware7sensors5Event12EventPayload14LimitedAxesImuE",
   "name" : "const aidl::android::hardware::sensors::Event::EventPayload::LimitedAxesImu &",
   "referenced_type" : "_ZTIKN4aidl7android8hardware7sensors5Event12EventPayload14LimitedAxesImuE",
   "self_type" : "_ZTIRKN4aidl7android8hardware7sensors5Event12EventPayload14LimitedAxesImuE",
   "size" : 4,
   "source_file" : "frameworks/native/libs/binder/ndk/include_cpp/android/binder_to_string.h"
  },
  {
   "alignment" : 4,
   "linker_set_key" : "_ZTIRKN4aidl7android8hardware7sensors5Event12EventPayload19LimitedAxesImuUncalE",
   "name" : "const aidl::android::hardware::sensors::Event::EventPayload::LimitedAxesImuUncal &",
   "referenced_type" : "_ZTIKN4aidl7android8hardware7sensors5Event12EventPayload19LimitedAxesImuUncalE",
   "self_type" : "_ZTIRKN4aidl7android8hardware7sensors5Event12EventPayload19LimitedAxesImuUncalE",
   "size" : 4,
   "source_file" : "frameworks/native/libs/binder/ndk/include_cpp/android/binder_to_string.h"
  },
  {
   "alignment" : 4,
   "linker_set_key" : "_ZTIRKN4aidl7android8hardware7sensors5Event12EventPayload3TagE",
   "name" : "const aidl::android::hardware::sensors::Event::EventPayload::Tag &",
   "referenced_type" : "_ZTIKN4aidl7android8hardware7sensors5Event12EventPayload3TagE",
   "self_type" : "_ZTIRKN4aidl7android8hardware7sensors5Event12EventPayload3TagE",
   "size" : 4,
   "source_file" : "out/soong/.intermediates/hardware/interfaces/sensors/aidl/android.hardware.sensors-V1-ndk-source/gen/include/aidl/android/hardware/sensors/Event.h"
  },
  {
   "alignment" : 4,
   "linker_set_key" : "_ZTIRKN4aidl7android8hardware7sensors5Event12EventPayload4DataE",
   "name" : "const aidl::android::hardware::sensors::Event::EventPayload::Data &",
   "referenced_type" : "_ZTIKN4aidl7android8hardware7sensors5Event12EventPayload4DataE",
   "self_type" : "_ZTIRKN4aidl7android8hardware7sensors5Event12EventPayload4DataE",
   "size" : 4,
   "source_file" : "frameworks/native/libs/binder/ndk/include_cpp/android/binder_to_string.h"
  },
  {
   "alignment" : 4,
   "linker_set_key" : "_ZTIRKN4aidl7android8hardware7sensors5Event12EventPayload4Vec3E",
   "name" : "const aidl::android::hardware::sensors::Event::EventPayload::Vec3 &",
   "referenced_type" : "_ZTIKN4aidl7android8hardware7sensors5Event12EventPayload4Vec3E",
   "self_type" : "_ZTIRKN4aidl7android8hardware7sensors5Event12EventPayload4Vec3E",
   "size" : 4,
   "source_file" : "frameworks/native/libs/binder/ndk/include_cpp/android/binder_to_string.h"
  },
  {
   "alignment" : 4,
   "linker_set_key" : "_ZTIRKN4aidl7android8hardware7sensors5Event12EventPayload4Vec4E",
   "name" : "const aidl::android::hardware::sensors::Event::EventPayload::Vec4 &",
   "referenced_type" : "_ZTIKN4aidl7android8hardware7sensors5Event12EventPayload4Vec4E",
   "self_type" : "_ZTIRKN4aidl7android8hardware7sensors5Event12EventPayload4Vec4E",
   "size" : 4,
   "source_file" : "frameworks/native/libs/binder/ndk/include_cpp/android/binder_to_string.h"
  },
  {
   "alignment" : 4,
   "linker_set_key" : "_ZTIRKN4aidl7android8hardware7sensors5Event12EventPayload5UncalE",
   "name" : "const aidl::android::hardware::sensors::Event::EventPayload::Uncal &",
   "referenced_type" : "_ZTIKN4aidl7android8hardware7sensors5Event12EventPayload5UncalE",
   "self_type" : "_ZTIRKN4aidl7android8hardware7sensors5Event12EventPayload5UncalE",
   "size" : 4,
   "source_file" : "frameworks/native/libs/binder/ndk/include_cpp/android/binder_to_string.h"
  },
  {
   "alignment" : 4,
   "linker_set_key" : "_ZTIRKN4aidl7android8hardware7sensors5Event12EventPayload7HeadingE",
   "name" : "const aidl::android::hardware::sensors::Event::EventPayload::Heading &",
   "referenced_type" : "_ZTIKN4aidl7android8hardware7sensors5Event12EventPayload7HeadingE",
   "self_type" : "_ZTIRKN4aidl7android8hardware7sensors5Event12EventPayload7HeadingE",
   "size" : 4,
   "source_file" : "frameworks/native/libs/binder/ndk/include_cpp/android/binder_to_string.h"
  },
  {
   "alignment" : 4,
   "linker_set_key" : "_ZTIRKN4aidl7android8hardware7sensors5Event12EventPayload8MetaData17MetaDataEventTypeE",
   "name" : "const aidl::android::hardware::sensors::Event::EventPayload::MetaData::MetaDataEventType &",
   "referenced_type" : "_ZTIKN4aidl7android8hardware7sensors5Event12EventPayload8MetaData17MetaDataEventTypeE",
   "self_type" : "_ZTIRKN4aidl7android8hardware7sensors5Event12EventPayload8MetaData17MetaDataEventTypeE",
   "size" : 4,
   "source_file" : "frameworks/native/libs/binder/ndk/include_cpp/android/binder_to_string.h"
  },
  {
   "alignment" : 4,
   "linker_set_key" : "_ZTIRKN4aidl7android8hardware7sensors5Event12EventPayload8MetaDataE",
   "name" : "const aidl::android::hardware::sensors::Event::EventPayload::MetaData &",
   "referenced_type" : "_ZTIKN4aidl7android8hardware7sensors5Event12EventPayload8MetaDataE",
   "self_type" : "_ZTIRKN4aidl7android8hardware7sensors5Event12EventPayload8MetaDataE",
   "size" : 4,
   "source_file" : "frameworks/native/libs/binder/ndk/include_cpp/android/binder_to_string.h"
  },
  {
   "alignment" : 4,
   "linker_set_key" : "_ZTIRKN4aidl7android8hardware7sensors5Event12EventPayload8Pose6DofE",
   "name" : "const aidl::android::hardware::sensors::Event::EventPayload::Pose6Dof &",
   "referenced_type" : "_ZTIKN4aidl7android8hardware7sensors5Event12EventPayload8Pose6DofE",
   "self_type" : "_ZTIRKN4aidl7android8hardware7sensors5Event12EventPayload8Pose6DofE",
   "size" : 4,
   "source_file" : "frameworks/native/libs/binder/ndk/include_cpp/android/binder_to_string.h"
  },
  {
   "alignment" : 4,
   "linker_set_key" : "_ZTIRKN4aidl7android8hardware7sensors5Event12EventPayload9HeartRateE",
   "name" : "const aidl::android::hardware::sensors::Event::EventPayload::HeartRate &",
   "referenced_type" : "_ZTIKN4aidl7android8hardware7sensors5Event12EventPayload9HeartRateE",
   "self_type" : "_ZTIRKN4aidl7android8hardware7sensors5Event12EventPayload9HeartRateE",
   "size" : 4,
   "source_file" : "frameworks/native/libs/binder/ndk/include_cpp/android/binder_to_string.h"
  },
  {
   "alignment" : 4,
   "linker_set_key" : "_ZTIRKN4aidl7android8hardware7sensors5Event12EventPayloadE",
   "name" : "const aidl::android::hardware::sensors::Event::EventPayload &",
   "referenced_type" : "_ZTIKN4aidl7android8hardware7sensors5Event12EventPayloadE",
   "self_type" : "_ZTIRKN4aidl7android8hardware7sensors5Event12EventPayloadE",
   "size" : 4,
   "source_file" : "frameworks/native/libs/binder/ndk/include_cpp/android/binder_to_string.h"
  },
  {
   "alignment" : 4,
   "linker_set_key" : "_ZTIRKN4aidl7android8hardware7sensors5EventE",
   "name" : "const aidl::android::hardware::sensors::Event &",
   "referenced_type" : "_ZTIKN4aidl7android8hardware7sensors5EventE",
   "self_type" : "_ZTIRKN4aidl7android8hardware7sensors5EventE",
   "size" : 4,
   "source_file" : "out/soong/.intermediates/hardware/interfaces/sensors/aidl/android.hardware.sensors-V1-ndk-source/gen/include/aidl/android/hardware/sensors/Event.h"
  },
  {
   "alignment" : 4,
   "linker_set_key" : "_ZTIRKN4aidl7android8hardware7sensors8ISensors13SharedMemInfo13SharedMemTypeE",
   "name" : "const aidl::android::hardware::sensors::ISensors::SharedMemInfo::SharedMemType &",
   "referenced_type" : "_ZTIKN4aidl7android8hardware7sensors8ISensors13SharedMemInfo13SharedMemTypeE",
   "self_type" : "_ZTIRKN4aidl7android8hardware7sensors8ISensors13SharedMemInfo13SharedMemTypeE",
   "size" : 4,
   "source_file" : "frameworks/native/libs/binder/ndk/include_cpp/android/binder_to_string.h"
  },
  {
   "alignment" : 4,
   "linker_set_key" : "_ZTIRKN4aidl7android8hardware7sensors8ISensors13SharedMemInfo15SharedMemFormatE",
   "name" : "const aidl::android::hardware::sensors::ISensors::SharedMemInfo::SharedMemFormat &",
   "referenced_type" : "_ZTIKN4aidl7android8hardware7sensors8ISensors13SharedMemInfo15SharedMemFormatE",
   "self_type" : "_ZTIRKN4aidl7android8hardware7sensors8ISensors13SharedMemInfo15SharedMemFormatE",
   "size" : 4,
   "source_file" : "frameworks/native/libs/binder/ndk/include_cpp/android/binder_to_string.h"
  },
  {
   "alignment" : 4,
   "linker_set_key" : "_ZTIRKN4aidl7android8hardware7sensors8ISensors13SharedMemInfoE",
   "name" : "const aidl::android::hardware::sensors::ISensors::SharedMemInfo &",
   "referenced_type" : "_ZTIKN4aidl7android8hardware7sensors8ISensors13SharedMemInfoE",
   "self_type" : "_ZTIRKN4aidl7android8hardware7sensors8ISensors13SharedMemInfoE",
   "size" : 4,
   "source_file" : "out/soong/.intermediates/hardware/interfaces/sensors/aidl/android.hardware.sensors-V1-ndk-source/gen/include/aidl/android/hardware/sensors/ISensors.h"
  },
  {
   "alignment" : 4,
   "linker_set_key" : "_ZTIRKNSt3__110shared_ptrIN4aidl7android8hardware7sensors16ISensorsCallbackEEE",
   "name" : "const std::shared_ptr<aidl::android::hardware::sensors::ISensorsCallback> &",
   "referenced_type" : "_ZTIKNSt3__110shared_ptrIN4aidl7android8hardware7sensors16ISensorsCallbackEEE",
   "self_type" : "_ZTIRKNSt3__110shared_ptrIN4aidl7android8hardware7sensors16ISensorsCallbackEEE",
   "size" : 4,
   "source_file" : "out/soong/.intermediates/hardware/interfaces/sensors/aidl/android.hardware.sensors-V1-ndk-source/gen/include/aidl/android/hardware/sensors/ISensors.h"
  },
  {
   "alignment" : 4,
   "linker_set_key" : "_ZTIRKNSt3__110shared_ptrIN4aidl7android8hardware7sensors8ISensorsEEE",
   "name" : "const std::shared_ptr<aidl::android::hardware::sensors::ISensors> &",
   "referenced_type" : "_ZTIKNSt3__110shared_ptrIN4aidl7android8hardware7sensors8ISensorsEEE",
   "self_type" : "_ZTIRKNSt3__110shared_ptrIN4aidl7android8hardware7sensors8ISensorsEEE",
   "size" : 4,
   "source_file" : "out/soong/.intermediates/hardware/interfaces/sensors/aidl/android.hardware.sensors-V1-ndk-source/gen/include/aidl/android/hardware/sensors/ISensors.h"
  },
  {
   "alignment" : 4,
   "linker_set_key" : "_ZTIRKNSt3__112basic_stringIcNS_11char_traitsIcEENS_9allocatorIcEEEE",
   "name" : "const std::basic_string<char, std::char_traits<char>, std::allocator<char>> &",
   "referenced_type" : "_ZTIKNSt3__112basic_stringIcNS_11char_traitsIcEENS_9allocatorIcEEEE",
   "self_type" : "_ZTIRKNSt3__112basic_stringIcNS_11char_traitsIcEENS_9allocatorIcEEEE",
   "size" : 4,
   "source_file" : "frameworks/native/libs/binder/ndk/include_cpp/android/binder_to_string.h"
  },
  {
   "alignment" : 4,
   "linker_set_key" : "_ZTIRKNSt3__15arrayIfLj14EEE",
   "name" : "const std::array<float, 14> &",
   "referenced_type" : "_ZTIKNSt3__15arrayIfLj14EEE",
   "self_type" : "_ZTIRKNSt3__15arrayIfLj14EEE",
   "size" : 4,
   "source_file" : "frameworks/native/libs/binder/ndk/include_cpp/android/binder_to_string.h"
  },
  {
   "alignment" : 4,
   "linker_set_key" : "_ZTIRKNSt3__15arrayIfLj15EEE",
   "name" : "const std::array<float, 15> &",
   "referenced_type" : "_ZTIKNSt3__15arrayIfLj15EEE",
   "self_type" : "_ZTIRKNSt3__15arrayIfLj15EEE",
   "size" : 4,
   "source_file" : "frameworks/native/libs/binder/ndk/include_cpp/android/binder_to_string.h"
  },
  {
   "alignment" : 4,
   "linker_set_key" : "_ZTIRKNSt3__15arrayIfLj16EEE",
   "name" : "const std::array<float, 16> &",
   "referenced_type" : "_ZTIKNSt3__15arrayIfLj16EEE",
   "self_type" : "_ZTIRKNSt3__15arrayIfLj16EEE",
   "size" : 4,
   "source_file" : "frameworks/native/libs/binder/ndk/include_cpp/android/binder_to_string.h"
  },
  {
   "alignment" : 4,
   "linker_set_key" : "_ZTIRKNSt3__15arrayIhLj16EEE",
   "name" : "const std::array<unsigned char, 16> &",
   "referenced_type" : "_ZTIKNSt3__15arrayIhLj16EEE",
   "self_type" : "_ZTIRKNSt3__15arrayIhLj16EEE",
   "size" : 4,
   "source_file" : "frameworks/native/libs/binder/ndk/include_cpp/android/binder_to_string.h"
  },
  {
   "alignment" : 4,
   "linker_set_key" : "_ZTIRKNSt3__15arrayIiLj14EEE",
   "name" : "const std::array<int, 14> &",
   "referenced_type" : "_ZTIKNSt3__15arrayIiLj14EEE",
   "self_type" : "_ZTIRKNSt3__15arrayIiLj14EEE",
   "size" : 4,
   "source_file" : "frameworks/native/libs/binder/ndk/include_cpp/android/binder_to_string.h"
  },
  {
   "alignment" : 4,
   "linker_set_key" : "_ZTIRKNSt3__16vectorIDsNS_9allocatorIDsEEEE",
   "name" : "const std::vector<char16_t, std::allocator<char16_t>> &",
   "referenced_type" : "_ZTIKNSt3__16vectorIDsNS_9allocatorIDsEEEE",
   "self_type" : "_ZTIRKNSt3__16vectorIDsNS_9allocatorIDsEEEE",
   "size" : 4,
   "source_file" : "frameworks/native/libs/binder/ndk/include_cpp/android/binder_parcel_utils.h"
  },
  {
   "alignment" : 4,
   "linker_set_key" : "_ZTIRKNSt3__16vectorIN3ndk20ScopedFileDescriptorENS_9allocatorIS2_EEEE",
   "name" : "const std::vector<ndk::ScopedFileDescriptor, std::allocator<ndk::ScopedFileDescriptor>> &",
   "referenced_type" : "_ZTIKNSt3__16vectorIN3ndk20ScopedFileDescriptorENS_9allocatorIS2_EEEE",
   "self_type" : "_ZTIRKNSt3__16vectorIN3ndk20ScopedFileDescriptorENS_9allocatorIS2_EEEE",
   "size" : 4,
   "source_file" : "frameworks/native/libs/binder/ndk/include_cpp/android/binder_to_string.h"
  },
  {
   "alignment" : 4,
   "linker_set_key" : "_ZTIRKNSt3__16vectorIN4aidl7android8hardware7sensors10SensorInfoENS_9allocatorIS5_EEEE",
   "name" : "const std::vector<aidl::android::hardware::sensors::SensorInfo, std::allocator<aidl::android::hardware::sensors::SensorInfo>> &",
   "referenced_type" : "_ZTIKNSt3__16vectorIN4aidl7android8hardware7sensors10SensorInfoENS_9allocatorIS5_EEEE",
   "self_type" : "_ZTIRKNSt3__16vectorIN4aidl7android8hardware7sensors10SensorInfoENS_9allocatorIS5_EEEE",
   "size" : 4,
   "source_file" : "out/soong/.intermediates/hardware/interfaces/sensors/aidl/android.hardware.sensors-V1-ndk-source/gen/include/aidl/android/hardware/sensors/BnSensorsCallback.h"
  },
  {
   "alignment" : 4,
   "linker_set_key" : "_ZTIRKNSt3__16vectorIbNS_9allocatorIbEEEE",
   "name" : "const std::vector<bool, std::allocator<bool>> &",
   "referenced_type" : "_ZTIKNSt3__16vectorIbNS_9allocatorIbEEEE",
   "self_type" : "_ZTIRKNSt3__16vectorIbNS_9allocatorIbEEEE",
   "size" : 4,
   "source_file" : "frameworks/native/libs/binder/ndk/include_cpp/android/binder_parcel_utils.h"
  },
  {
   "alignment" : 4,
   "linker_set_key" : "_ZTIRKNSt3__16vectorIdNS_9allocatorIdEEEE",
   "name" : "const std::vector<double, std::allocator<double>> &",
   "referenced_type" : "_ZTIKNSt3__16vectorIdNS_9allocatorIdEEEE",
   "self_type" : "_ZTIRKNSt3__16vectorIdNS_9allocatorIdEEEE",
   "size" : 4,
   "source_file" : "frameworks/native/libs/binder/ndk/include_cpp/android/binder_parcel_utils.h"
  },
  {
   "alignment" : 4,
   "linker_set_key" : "_ZTIRKNSt3__16vectorIfNS_9allocatorIfEEEE",
   "name" : "const std::vector<float, std::allocator<float>> &",
   "referenced_type" : "_ZTIKNSt3__16vectorIfNS_9allocatorIfEEEE",
   "self_type" : "_ZTIRKNSt3__16vectorIfNS_9allocatorIfEEEE",
   "size" : 4,
   "source_file" : "frameworks/native/libs/binder/ndk/include_cpp/android/binder_parcel_utils.h"
  },
  {
   "alignment" : 4,
   "linker_set_key" : "_ZTIRKNSt3__16vectorIhNS_9allocatorIhEEEE",
   "name" : "const std::vector<unsigned char, std::allocator<unsigned char>> &",
   "referenced_type" : "_ZTIKNSt3__16vectorIhNS_9allocatorIhEEEE",
   "self_type" : "_ZTIRKNSt3__16vectorIhNS_9allocatorIhEEEE",
   "size" : 4,
   "source_file" : "frameworks/native/libs/binder/ndk/include_cpp/android/binder_parcel_utils.h"
  },
  {
   "alignment" : 4,
   "linker_set_key" : "_ZTIRKNSt3__16vectorIiNS_9allocatorIiEEEE",
   "name" : "const std::vector<int, std::allocator<int>> &",
   "referenced_type" : "_ZTIKNSt3__16vectorIiNS_9allocatorIiEEEE",
   "self_type" : "_ZTIRKNSt3__16vectorIiNS_9allocatorIiEEEE",
   "size" : 4,
   "source_file" : "frameworks/native/libs/binder/ndk/include_cpp/android/binder_parcel_utils.h"
  },
  {
   "alignment" : 4,
   "linker_set_key" : "_ZTIRKNSt3__16vectorIjNS_9allocatorIjEEEE",
   "name" : "const std::vector<unsigned int, std::allocator<unsigned int>> &",
   "referenced_type" : "_ZTIKNSt3__16vectorIjNS_9allocatorIjEEEE",
   "self_type" : "_ZTIRKNSt3__16vectorIjNS_9allocatorIjEEEE",
   "size" : 4,
   "source_file" : "frameworks/native/libs/binder/ndk/include_cpp/android/binder_parcel_utils.h"
  },
  {
   "alignment" : 4,
   "linker_set_key" : "_ZTIRKNSt3__16vectorIxNS_9allocatorIxEEEE",
   "name" : "const std::vector<long long, std::allocator<long long>> &",
   "referenced_type" : "_ZTIKNSt3__16vectorIxNS_9allocatorIxEEEE",
   "self_type" : "_ZTIRKNSt3__16vectorIxNS_9allocatorIxEEEE",
   "size" : 4,
   "source_file" : "frameworks/native/libs/binder/ndk/include_cpp/android/binder_parcel_utils.h"
  },
  {
   "alignment" : 4,
   "linker_set_key" : "_ZTIRKNSt3__16vectorIyNS_9allocatorIyEEEE",
   "name" : "const std::vector<unsigned long long, std::allocator<unsigned long long>> &",
   "referenced_type" : "_ZTIKNSt3__16vectorIyNS_9allocatorIyEEEE",
   "self_type" : "_ZTIRKNSt3__16vectorIyNS_9allocatorIyEEEE",
   "size" : 4,
   "source_file" : "frameworks/native/libs/binder/ndk/include_cpp/android/binder_parcel_utils.h"
  },
  {
   "alignment" : 4,
   "linker_set_key" : "_ZTIRKNSt3__18optionalINS_6vectorIDsNS_9allocatorIDsEEEEEE",
   "name" : "const std::optional<std::vector<char16_t, std::allocator<char16_t>>> &",
   "referenced_type" : "_ZTIKNSt3__18optionalINS_6vectorIDsNS_9allocatorIDsEEEEEE",
   "self_type" : "_ZTIRKNSt3__18optionalINS_6vectorIDsNS_9allocatorIDsEEEEEE",
   "size" : 4,
   "source_file" : "frameworks/native/libs/binder/ndk/include_cpp/android/binder_parcel_utils.h"
  },
  {
   "alignment" : 4,
   "linker_set_key" : "_ZTIRKNSt3__18optionalINS_6vectorIbNS_9allocatorIbEEEEEE",
   "name" : "const std::optional<std::vector<bool, std::allocator<bool>>> &",
   "referenced_type" : "_ZTIKNSt3__18optionalINS_6vectorIbNS_9allocatorIbEEEEEE",
   "self_type" : "_ZTIRKNSt3__18optionalINS_6vectorIbNS_9allocatorIbEEEEEE",
   "size" : 4,
   "source_file" : "frameworks/native/libs/binder/ndk/include_cpp/android/binder_parcel_utils.h"
  },
  {
   "alignment" : 4,
   "linker_set_key" : "_ZTIRKNSt3__18optionalINS_6vectorIdNS_9allocatorIdEEEEEE",
   "name" : "const std::optional<std::vector<double, std::allocator<double>>> &",
   "referenced_type" : "_ZTIKNSt3__18optionalINS_6vectorIdNS_9allocatorIdEEEEEE",
   "self_type" : "_ZTIRKNSt3__18optionalINS_6vectorIdNS_9allocatorIdEEEEEE",
   "size" : 4,
   "source_file" : "frameworks/native/libs/binder/ndk/include_cpp/android/binder_parcel_utils.h"
  },
  {
   "alignment" : 4,
   "linker_set_key" : "_ZTIRKNSt3__18optionalINS_6vectorIfNS_9allocatorIfEEEEEE",
   "name" : "const std::optional<std::vector<float, std::allocator<float>>> &",
   "referenced_type" : "_ZTIKNSt3__18optionalINS_6vectorIfNS_9allocatorIfEEEEEE",
   "self_type" : "_ZTIRKNSt3__18optionalINS_6vectorIfNS_9allocatorIfEEEEEE",
   "size" : 4,
   "source_file" : "frameworks/native/libs/binder/ndk/include_cpp/android/binder_parcel_utils.h"
  },
  {
   "alignment" : 4,
   "linker_set_key" : "_ZTIRKNSt3__18optionalINS_6vectorIhNS_9allocatorIhEEEEEE",
   "name" : "const std::optional<std::vector<unsigned char, std::allocator<unsigned char>>> &",
   "referenced_type" : "_ZTIKNSt3__18optionalINS_6vectorIhNS_9allocatorIhEEEEEE",
   "self_type" : "_ZTIRKNSt3__18optionalINS_6vectorIhNS_9allocatorIhEEEEEE",
   "size" : 4,
   "source_file" : "frameworks/native/libs/binder/ndk/include_cpp/android/binder_parcel_utils.h"
  },
  {
   "alignment" : 4,
   "linker_set_key" : "_ZTIRKNSt3__18optionalINS_6vectorIiNS_9allocatorIiEEEEEE",
   "name" : "const std::optional<std::vector<int, std::allocator<int>>> &",
   "referenced_type" : "_ZTIKNSt3__18optionalINS_6vectorIiNS_9allocatorIiEEEEEE",
   "self_type" : "_ZTIRKNSt3__18optionalINS_6vectorIiNS_9allocatorIiEEEEEE",
   "size" : 4,
   "source_file" : "frameworks/native/libs/binder/ndk/include_cpp/android/binder_parcel_utils.h"
  },
  {
   "alignment" : 4,
   "linker_set_key" : "_ZTIRKNSt3__18optionalINS_6vectorIjNS_9allocatorIjEEEEEE",
   "name" : "const std::optional<std::vector<unsigned int, std::allocator<unsigned int>>> &",
   "referenced_type" : "_ZTIKNSt3__18optionalINS_6vectorIjNS_9allocatorIjEEEEEE",
   "self_type" : "_ZTIRKNSt3__18optionalINS_6vectorIjNS_9allocatorIjEEEEEE",
   "size" : 4,
   "source_file" : "frameworks/native/libs/binder/ndk/include_cpp/android/binder_parcel_utils.h"
  },
  {
   "alignment" : 4,
   "linker_set_key" : "_ZTIRKNSt3__18optionalINS_6vectorIxNS_9allocatorIxEEEEEE",
   "name" : "const std::optional<std::vector<long long, std::allocator<long long>>> &",
   "referenced_type" : "_ZTIKNSt3__18optionalINS_6vectorIxNS_9allocatorIxEEEEEE",
   "self_type" : "_ZTIRKNSt3__18optionalINS_6vectorIxNS_9allocatorIxEEEEEE",
   "size" : 4,
   "source_file" : "frameworks/native/libs/binder/ndk/include_cpp/android/binder_parcel_utils.h"
  },
  {
   "alignment" : 4,
   "linker_set_key" : "_ZTIRKNSt3__18optionalINS_6vectorIyNS_9allocatorIyEEEEEE",
   "name" : "const std::optional<std::vector<unsigned long long, std::allocator<unsigned long long>>> &",
   "referenced_type" : "_ZTIKNSt3__18optionalINS_6vectorIyNS_9allocatorIyEEEEEE",
   "self_type" : "_ZTIRKNSt3__18optionalINS_6vectorIyNS_9allocatorIyEEEEEE",
   "size" : 4,
   "source_file" : "frameworks/native/libs/binder/ndk/include_cpp/android/binder_parcel_utils.h"
  },
  {
   "alignment" : 4,
   "linker_set_key" : "_ZTIRKb",
   "name" : "const bool &",
   "referenced_type" : "_ZTIKb",
   "self_type" : "_ZTIRKb",
   "size" : 4,
   "source_file" : "frameworks/native/libs/binder/ndk/include_cpp/android/binder_to_string.h"
  },
  {
   "alignment" : 4,
   "linker_set_key" : "_ZTIRKf",
   "name" : "const float &",
   "referenced_type" : "_ZTIKf",
   "self_type" : "_ZTIRKf",
   "size" : 4,
   "source_file" : "frameworks/native/libs/binder/ndk/include_cpp/android/binder_to_string.h"
  },
  {
   "alignment" : 4,
   "linker_set_key" : "_ZTIRKh",
   "name" : "const unsigned char &",
   "referenced_type" : "_ZTIKh",
   "self_type" : "_ZTIRKh",
   "size" : 4,
   "source_file" : "frameworks/native/libs/binder/ndk/include_cpp/android/binder_to_string.h"
  },
  {
   "alignment" : 4,
   "linker_set_key" : "_ZTIRKi",
   "name" : "const int &",
   "referenced_type" : "_ZTIKi",
   "self_type" : "_ZTIRKi",
   "size" : 4,
   "source_file" : "frameworks/native/libs/binder/ndk/include_cpp/android/binder_to_string.h"
  },
  {
   "alignment" : 4,
   "linker_set_key" : "_ZTIRKx",
   "name" : "const long long &",
   "referenced_type" : "_ZTIKx",
   "self_type" : "_ZTIRKx",
   "size" : 4,
   "source_file" : "frameworks/native/libs/binder/ndk/include_cpp/android/binder_to_string.h"
  },
  {
   "alignment" : 4,
   "linker_set_key" : "_ZTIRN3ndk10SpAIBinderE",
   "name" : "ndk::SpAIBinder &",
   "referenced_type" : "_ZTIN3ndk10SpAIBinderE",
   "self_type" : "_ZTIRN3ndk10SpAIBinderE",
   "size" : 4,
   "source_file" : "frameworks/native/libs/binder/ndk/include_cpp/android/binder_auto_utils.h"
  },
  {
   "alignment" : 4,
   "linker_set_key" : "_ZTIRN3ndk13ScopedAParcelE",
   "name" : "ndk::ScopedAParcel &",
   "referenced_type" : "_ZTIN3ndk13ScopedAParcelE",
   "self_type" : "_ZTIRN3ndk13ScopedAParcelE",
   "size" : 4,
   "source_file" : "frameworks/native/libs/binder/ndk/include_cpp/android/binder_auto_utils.h"
  },
  {
   "alignment" : 4,
   "linker_set_key" : "_ZTIRN3ndk13ScopedAStatusE",
   "name" : "ndk::ScopedAStatus &",
   "referenced_type" : "_ZTIN3ndk13ScopedAStatusE",
   "self_type" : "_ZTIRN3ndk13ScopedAStatusE",
   "size" : 4,
   "source_file" : "frameworks/native/libs/binder/ndk/include_cpp/android/binder_auto_utils.h"
  },
  {
   "alignment" : 4,
   "linker_set_key" : "_ZTIRN3ndk19ScopedAIBinder_WeakE",
   "name" : "ndk::ScopedAIBinder_Weak &",
   "referenced_type" : "_ZTIN3ndk19ScopedAIBinder_WeakE",
   "self_type" : "_ZTIRN3ndk19ScopedAIBinder_WeakE",
   "size" : 4,
   "source_file" : "frameworks/native/libs/binder/ndk/include_cpp/android/binder_auto_utils.h"
  },
  {
   "alignment" : 4,
   "linker_set_key" : "_ZTIRN3ndk20ScopedFileDescriptorE",
   "name" : "ndk::ScopedFileDescriptor &",
   "referenced_type" : "_ZTIN3ndk20ScopedFileDescriptorE",
   "self_type" : "_ZTIRN3ndk20ScopedFileDescriptorE",
   "size" : 4,
   "source_file" : "frameworks/native/libs/binder/ndk/include_cpp/android/binder_auto_utils.h"
  },
  {
   "alignment" : 4,
   "linker_set_key" : "_ZTIRN3ndk29ScopedAIBinder_DeathRecipientE",
   "name" : "ndk::ScopedAIBinder_DeathRecipient &",
   "referenced_type" : "_ZTIN3ndk29ScopedAIBinder_DeathRecipientE",
   "self_type" : "_ZTIRN3ndk29ScopedAIBinder_DeathRecipientE",
   "size" : 4,
   "source_file" : "frameworks/native/libs/binder/ndk/include_cpp/android/binder_auto_utils.h"
  },
  {
   "alignment" : 4,
   "linker_set_key" : "_ZTIRN3ndk4impl15ScopedAResourceIP7AStatusXadL_Z14AStatus_deleteEELS3_0EEE",
   "name" : "ndk::impl::ScopedAResource<AStatus *, &AStatus_delete, nullptr> &",
   "referenced_type" : "_ZTIN3ndk4impl15ScopedAResourceIP7AStatusXadL_Z14AStatus_deleteEELS3_0EEE",
   "self_type" : "_ZTIRN3ndk4impl15ScopedAResourceIP7AStatusXadL_Z14AStatus_deleteEELS3_0EEE",
   "size" : 4,
   "source_file" : "frameworks/native/libs/binder/ndk/include_cpp/android/binder_auto_utils.h"
  },
  {
   "alignment" : 4,
   "linker_set_key" : "_ZTIRN4aidl7android8hardware7sensors14AdditionalInfo21AdditionalInfoPayload11FloatValuesE",
   "name" : "aidl::android::hardware::sensors::AdditionalInfo::AdditionalInfoPayload::FloatValues &",
   "referenced_type" : "_ZTIN4aidl7android8hardware7sensors14AdditionalInfo21AdditionalInfoPayload11FloatValuesE",
   "self_type" : "_ZTIRN4aidl7android8hardware7sensors14AdditionalInfo21AdditionalInfoPayload11FloatValuesE",
   "size" : 4,
   "source_file" : "out/soong/.intermediates/hardware/interfaces/sensors/aidl/android.hardware.sensors-V1-ndk-source/gen/include/aidl/android/hardware/sensors/AdditionalInfo.h"
  },
  {
   "alignment" : 4,
   "linker_set_key" : "_ZTIRN4aidl7android8hardware7sensors14AdditionalInfo21AdditionalInfoPayload11Int32ValuesE",
   "name" : "aidl::android::hardware::sensors::AdditionalInfo::AdditionalInfoPayload::Int32Values &",
   "referenced_type" : "_ZTIN4aidl7android8hardware7sensors14AdditionalInfo21AdditionalInfoPayload11Int32ValuesE",
   "self_type" : "_ZTIRN4aidl7android8hardware7sensors14AdditionalInfo21AdditionalInfoPayload11Int32ValuesE",
   "size" : 4,
   "source_file" : "out/soong/.intermediates/hardware/interfaces/sensors/aidl/android.hardware.sensors-V1-ndk-source/gen/include/aidl/android/hardware/sensors/AdditionalInfo.h"
  },
  {
   "alignment" : 4,
   "linker_set_key" : "_ZTIRN4aidl7android8hardware7sensors14AdditionalInfoE",
   "name" : "aidl::android::hardware::sensors::AdditionalInfo &",
   "referenced_type" : "_ZTIN4aidl7android8hardware7sensors14AdditionalInfoE",
   "self_type" : "_ZTIRN4aidl7android8hardware7sensors14AdditionalInfoE",
   "size" : 4,
   "source_file" : "out/soong/.intermediates/hardware/interfaces/sensors/aidl/android.hardware.sensors-V1-ndk-source/gen/include/aidl/android/hardware/sensors/Event.h"
  },
  {
   "alignment" : 4,
   "linker_set_key" : "_ZTIRN4aidl7android8hardware7sensors17DynamicSensorInfoE",
   "name" : "aidl::android::hardware::sensors::DynamicSensorInfo &",
   "referenced_type" : "_ZTIN4aidl7android8hardware7sensors17DynamicSensorInfoE",
   "self_type" : "_ZTIRN4aidl7android8hardware7sensors17DynamicSensorInfoE",
   "size" : 4,
   "source_file" : "out/soong/.intermediates/hardware/interfaces/sensors/aidl/android.hardware.sensors-V1-ndk-source/gen/include/aidl/android/hardware/sensors/Event.h"
  },
  {
   "alignment" : 4,
   "linker_set_key" : "_ZTIRN4aidl7android8hardware7sensors5Event12EventPayload11HeadTrackerE",
   "name" : "aidl::android::hardware::sensors::Event::EventPayload::HeadTracker &",
   "referenced_type" : "_ZTIN4aidl7android8hardware7sensors5Event12EventPayload11HeadTrackerE",
   "self_type" : "_ZTIRN4aidl7android8hardware7sensors5Event12EventPayload11HeadTrackerE",
   "size" : 4,
   "source_file" : "out/soong/.intermediates/hardware/interfaces/sensors/aidl/android.hardware.sensors-V1-ndk-source/gen/include/aidl/android/hardware/sensors/Event.h"
  },
  {
   "alignment" : 4,
   "linker_set_key" : "_ZTIRN4aidl7android8hardware7sensors5Event12EventPayload14LimitedAxesImuE",
   "name" : "aidl::android::hardware::sensors::Event::EventPayload::LimitedAxesImu &",
   "referenced_type" : "_ZTIN4aidl7android8hardware7sensors5Event12EventPayload14LimitedAxesImuE",
   "self_type" : "_ZTIRN4aidl7android8hardware7sensors5Event12EventPayload14LimitedAxesImuE",
   "size" : 4,
   "source_file" : "out/soong/.intermediates/hardware/interfaces/sensors/aidl/android.hardware.sensors-V1-ndk-source/gen/include/aidl/android/hardware/sensors/Event.h"
  },
  {
   "alignment" : 4,
   "linker_set_key" : "_ZTIRN4aidl7android8hardware7sensors5Event12EventPayload19LimitedAxesImuUncalE",
   "name" : "aidl::android::hardware::sensors::Event::EventPayload::LimitedAxesImuUncal &",
   "referenced_type" : "_ZTIN4aidl7android8hardware7sensors5Event12EventPayload19LimitedAxesImuUncalE",
   "self_type" : "_ZTIRN4aidl7android8hardware7sensors5Event12EventPayload19LimitedAxesImuUncalE",
   "size" : 4,
   "source_file" : "out/soong/.intermediates/hardware/interfaces/sensors/aidl/android.hardware.sensors-V1-ndk-source/gen/include/aidl/android/hardware/sensors/Event.h"
  },
  {
   "alignment" : 4,
   "linker_set_key" : "_ZTIRN4aidl7android8hardware7sensors5Event12EventPayload4DataE",
   "name" : "aidl::android::hardware::sensors::Event::EventPayload::Data &",
   "referenced_type" : "_ZTIN4aidl7android8hardware7sensors5Event12EventPayload4DataE",
   "self_type" : "_ZTIRN4aidl7android8hardware7sensors5Event12EventPayload4DataE",
   "size" : 4,
   "source_file" : "out/soong/.intermediates/hardware/interfaces/sensors/aidl/android.hardware.sensors-V1-ndk-source/gen/include/aidl/android/hardware/sensors/Event.h"
  },
  {
   "alignment" : 4,
   "linker_set_key" : "_ZTIRN4aidl7android8hardware7sensors5Event12EventPayload4Vec3E",
   "name" : "aidl::android::hardware::sensors::Event::EventPayload::Vec3 &",
   "referenced_type" : "_ZTIN4aidl7android8hardware7sensors5Event12EventPayload4Vec3E",
   "self_type" : "_ZTIRN4aidl7android8hardware7sensors5Event12EventPayload4Vec3E",
   "size" : 4,
   "source_file" : "out/soong/.intermediates/hardware/interfaces/sensors/aidl/android.hardware.sensors-V1-ndk-source/gen/include/aidl/android/hardware/sensors/Event.h"
  },
  {
   "alignment" : 4,
   "linker_set_key" : "_ZTIRN4aidl7android8hardware7sensors5Event12EventPayload4Vec4E",
   "name" : "aidl::android::hardware::sensors::Event::EventPayload::Vec4 &",
   "referenced_type" : "_ZTIN4aidl7android8hardware7sensors5Event12EventPayload4Vec4E",
   "self_type" : "_ZTIRN4aidl7android8hardware7sensors5Event12EventPayload4Vec4E",
   "size" : 4,
   "source_file" : "out/soong/.intermediates/hardware/interfaces/sensors/aidl/android.hardware.sensors-V1-ndk-source/gen/include/aidl/android/hardware/sensors/Event.h"
  },
  {
   "alignment" : 4,
   "linker_set_key" : "_ZTIRN4aidl7android8hardware7sensors5Event12EventPayload5UncalE",
   "name" : "aidl::android::hardware::sensors::Event::EventPayload::Uncal &",
   "referenced_type" : "_ZTIN4aidl7android8hardware7sensors5Event12EventPayload5UncalE",
   "self_type" : "_ZTIRN4aidl7android8hardware7sensors5Event12EventPayload5UncalE",
   "size" : 4,
   "source_file" : "out/soong/.intermediates/hardware/interfaces/sensors/aidl/android.hardware.sensors-V1-ndk-source/gen/include/aidl/android/hardware/sensors/Event.h"
  },
  {
   "alignment" : 4,
   "linker_set_key" : "_ZTIRN4aidl7android8hardware7sensors5Event12EventPayload7HeadingE",
   "name" : "aidl::android::hardware::sensors::Event::EventPayload::Heading &",
   "referenced_type" : "_ZTIN4aidl7android8hardware7sensors5Event12EventPayload7HeadingE",
   "self_type" : "_ZTIRN4aidl7android8hardware7sensors5Event12EventPayload7HeadingE",
   "size" : 4,
   "source_file" : "out/soong/.intermediates/hardware/interfaces/sensors/aidl/android.hardware.sensors-V1-ndk-source/gen/include/aidl/android/hardware/sensors/Event.h"
  },
  {
   "alignment" : 4,
   "linker_set_key" : "_ZTIRN4aidl7android8hardware7sensors5Event12EventPayload8MetaDataE",
   "name" : "aidl::android::hardware::sensors::Event::EventPayload::MetaData &",
   "referenced_type" : "_ZTIN4aidl7android8hardware7sensors5Event12EventPayload8MetaDataE",
   "self_type" : "_ZTIRN4aidl7android8hardware7sensors5Event12EventPayload8MetaDataE",
   "size" : 4,
   "source_file" : "out/soong/.intermediates/hardware/interfaces/sensors/aidl/android.hardware.sensors-V1-ndk-source/gen/include/aidl/android/hardware/sensors/Event.h"
  },
  {
   "alignment" : 4,
   "linker_set_key" : "_ZTIRN4aidl7android8hardware7sensors5Event12EventPayload8Pose6DofE",
   "name" : "aidl::android::hardware::sensors::Event::EventPayload::Pose6Dof &",
   "referenced_type" : "_ZTIN4aidl7android8hardware7sensors5Event12EventPayload8Pose6DofE",
   "self_type" : "_ZTIRN4aidl7android8hardware7sensors5Event12EventPayload8Pose6DofE",
   "size" : 4,
   "source_file" : "out/soong/.intermediates/hardware/interfaces/sensors/aidl/android.hardware.sensors-V1-ndk-source/gen/include/aidl/android/hardware/sensors/Event.h"
  },
  {
   "alignment" : 4,
   "linker_set_key" : "_ZTIRN4aidl7android8hardware7sensors5Event12EventPayload9HeartRateE",
   "name" : "aidl::android::hardware::sensors::Event::EventPayload::HeartRate &",
   "referenced_type" : "_ZTIN4aidl7android8hardware7sensors5Event12EventPayload9HeartRateE",
   "self_type" : "_ZTIRN4aidl7android8hardware7sensors5Event12EventPayload9HeartRateE",
   "size" : 4,
   "source_file" : "out/soong/.intermediates/hardware/interfaces/sensors/aidl/android.hardware.sensors-V1-ndk-source/gen/include/aidl/android/hardware/sensors/Event.h"
  },
  {
   "alignment" : 4,
   "linker_set_key" : "_ZTIRf",
   "name" : "float &",
   "referenced_type" : "_ZTIf",
   "self_type" : "_ZTIRf",
   "size" : 4,
   "source_file" : "out/soong/.intermediates/hardware/interfaces/sensors/aidl/android.hardware.sensors-V1-ndk-source/gen/include/aidl/android/hardware/sensors/Event.h"
  },
  {
   "alignment" : 4,
   "linker_set_key" : "_ZTIRx",
   "name" : "long long &",
   "referenced_type" : "_ZTIx",
   "self_type" : "_ZTIRx",
   "size" : 4,
   "source_file" : "out/soong/.intermediates/hardware/interfaces/sensors/aidl/android.hardware.sensors-V1-ndk-source/gen/include/aidl/android/hardware/sensors/Event.h"
  }
 ],
 "pointer_types" :
 [
  {
   "alignment" : 4,
   "linker_set_key" : "_ZTIP13AIBinder_Weak",
   "name" : "AIBinder_Weak *",
   "referenced_type" : "_ZTI13AIBinder_Weak",
   "self_type" : "_ZTIP13AIBinder_Weak",
   "size" : 4,
   "source_file" : "frameworks/native/libs/binder/ndk/include_cpp/android/binder_auto_utils.h"
  },
  {
   "alignment" : 4,
   "linker_set_key" : "_ZTIP14AIBinder_Class",
   "name" : "AIBinder_Class *",
   "referenced_type" : "_ZTI14AIBinder_Class",
   "self_type" : "_ZTIP14AIBinder_Class",
   "size" : 4,
   "source_file" : "frameworks/native/libs/binder/ndk/include_cpp/android/binder_interface_utils.h"
  },
  {
   "alignment" : 4,
   "linker_set_key" : "_ZTIP23AIBinder_DeathRecipient",
   "name" : "AIBinder_DeathRecipient *",
   "referenced_type" : "_ZTI23AIBinder_DeathRecipient",
   "self_type" : "_ZTIP23AIBinder_DeathRecipient",
   "size" : 4,
   "source_file" : "frameworks/native/libs/binder/ndk/include_cpp/android/binder_auto_utils.h"
  },
  {
   "alignment" : 4,
   "linker_set_key" : "_ZTIP7AParcel",
   "name" : "AParcel *",
   "referenced_type" : "_ZTI7AParcel",
   "self_type" : "_ZTIP7AParcel",
   "size" : 4,
   "source_file" : "frameworks/native/libs/binder/ndk/include_cpp/android/binder_auto_utils.h"
  },
  {
   "alignment" : 4,
   "linker_set_key" : "_ZTIP7AStatus",
   "name" : "AStatus *",
   "referenced_type" : "_ZTI7AStatus",
   "self_type" : "_ZTIP7AStatus",
   "size" : 4,
   "source_file" : "frameworks/native/libs/binder/ndk/include_cpp/android/binder_auto_utils.h"
  },
  {
   "alignment" : 4,
   "linker_set_key" : "_ZTIP8AIBinder",
   "name" : "AIBinder *",
   "referenced_type" : "_ZTI8AIBinder",
   "self_type" : "_ZTIP8AIBinder",
   "size" : 4,
   "source_file" : "frameworks/native/libs/binder/ndk/include_cpp/android/binder_auto_utils.h"
  },
  {
   "alignment" : 4,
   "linker_set_key" : "_ZTIPFiP8AIBinderjPK7AParcelPS1_E",
   "name" : "int (*)(AIBinder *, unsigned int, const AParcel *, AParcel *)",
   "referenced_type" : "_ZTIFiP8AIBinderjPK7AParcelPS1_E",
   "self_type" : "_ZTIPFiP8AIBinderjPK7AParcelPS1_E",
   "size" : 4,
   "source_file" : "frameworks/native/libs/binder/ndk/include_cpp/android/binder_interface_utils.h"
  },
  {
   "alignment" : 4,
   "linker_set_key" : "_ZTIPK7AParcel",
   "name" : "const AParcel *",
   "referenced_type" : "_ZTIK7AParcel",
   "self_type" : "_ZTIPK7AParcel",
   "size" : 4,
   "source_file" : "frameworks/native/libs/binder/ndk/include_cpp/android/binder_interface_utils.h"
  },
  {
   "alignment" : 4,
   "linker_set_key" : "_ZTIPKN3ndk10SpAIBinderE",
   "name" : "const ndk::SpAIBinder *",
   "referenced_type" : "_ZTIKN3ndk10SpAIBinderE",
   "self_type" : "_ZTIPKN3ndk10SpAIBinderE",
   "size" : 4,
   "source_file" : "frameworks/native/libs/binder/ndk/include_cpp/android/binder_auto_utils.h"
  },
  {
   "alignment" : 4,
   "linker_set_key" : "_ZTIPKN3ndk13ScopedAParcelE",
   "name" : "const ndk::ScopedAParcel *",
   "referenced_type" : "_ZTIKN3ndk13ScopedAParcelE",
   "self_type" : "_ZTIPKN3ndk13ScopedAParcelE",
   "size" : 4,
   "source_file" : "frameworks/native/libs/binder/ndk/include_cpp/android/binder_auto_utils.h"
  },
  {
   "alignment" : 4,
   "linker_set_key" : "_ZTIPKN3ndk13ScopedAStatusE",
   "name" : "const ndk::ScopedAStatus *",
   "referenced_type" : "_ZTIKN3ndk13ScopedAStatusE",
   "self_type" : "_ZTIPKN3ndk13ScopedAStatusE",
   "size" : 4,
   "source_file" : "frameworks/native/libs/binder/ndk/include_cpp/android/binder_auto_utils.h"
  },
  {
   "alignment" : 4,
   "linker_set_key" : "_ZTIPKN3ndk17AParcelableHolderE",
   "name" : "const ndk::AParcelableHolder *",
   "referenced_type" : "_ZTIKN3ndk17AParcelableHolderE",
   "self_type" : "_ZTIPKN3ndk17AParcelableHolderE",
   "size" : 4,
   "source_file" : "frameworks/native/libs/binder/ndk/include_cpp/android/binder_parcelable_utils.h"
  },
  {
   "alignment" : 4,
   "linker_set_key" : "_ZTIPKN3ndk20ScopedFileDescriptorE",
   "name" : "const ndk::ScopedFileDescriptor *",
   "referenced_type" : "_ZTIKN3ndk20ScopedFileDescriptorE",
   "self_type" : "_ZTIPKN3ndk20ScopedFileDescriptorE",
   "size" : 4,
   "source_file" : "frameworks/native/libs/binder/ndk/include_cpp/android/binder_auto_utils.h"
  },
  {
   "alignment" : 4,
   "linker_set_key" : "_ZTIPKN3ndk4impl15ScopedAResourceIP7AParcelXadL_Z14AParcel_deleteEELS3_0EEE",
   "name" : "const ndk::impl::ScopedAResource<AParcel *, &AParcel_delete, nullptr> *",
   "referenced_type" : "_ZTIKN3ndk4impl15ScopedAResourceIP7AParcelXadL_Z14AParcel_deleteEELS3_0EEE",
   "self_type" : "_ZTIPKN3ndk4impl15ScopedAResourceIP7AParcelXadL_Z14AParcel_deleteEELS3_0EEE",
   "size" : 4,
   "source_file" : "frameworks/native/libs/binder/ndk/include_cpp/android/binder_auto_utils.h"
  },
  {
   "alignment" : 4,
   "linker_set_key" : "_ZTIPKN3ndk4impl15ScopedAResourceIP7AStatusXadL_Z14AStatus_deleteEELS3_0EEE",
   "name" : "const ndk::impl::ScopedAResource<AStatus *, &AStatus_delete, nullptr> *",
   "referenced_type" : "_ZTIKN3ndk4impl15ScopedAResourceIP7AStatusXadL_Z14AStatus_deleteEELS3_0EEE",
   "self_type" : "_ZTIPKN3ndk4impl15ScopedAResourceIP7AStatusXadL_Z14AStatus_deleteEELS3_0EEE",
   "size" : 4,
   "source_file" : "frameworks/native/libs/binder/ndk/include_cpp/android/binder_auto_utils.h"
  },
  {
   "alignment" : 4,
   "linker_set_key" : "_ZTIPKN4aidl7android8hardware6common12NativeHandleE",
   "name" : "const aidl::android::hardware::common::NativeHandle *",
   "referenced_type" : "_ZTIKN4aidl7android8hardware6common12NativeHandleE",
   "self_type" : "_ZTIPKN4aidl7android8hardware6common12NativeHandleE",
   "size" : 4,
   "source_file" : "out/soong/.intermediates/hardware/interfaces/common/aidl/android.hardware.common-V2-ndk-source/gen/include/aidl/android/hardware/common/NativeHandle.h"
  },
  {
   "alignment" : 4,
   "linker_set_key" : "_ZTIPKN4aidl7android8hardware6common3fmq12MQDescriptorINS1_7sensors5EventENS3_21SynchronizedReadWriteEEE",
   "name" : "const aidl::android::hardware::common::fmq::MQDescriptor<aidl::android::hardware::sensors::Event, aidl::android::hardware::common::fmq::SynchronizedReadWrite> *",
   "referenced_type" : "_ZTIKN4aidl7android8hardware6common3fmq12MQDescriptorINS1_7sensors5EventENS3_21SynchronizedReadWriteEEE",
   "self_type" : "_ZTIPKN4aidl7android8hardware6common3fmq12MQDescriptorINS1_7sensors5EventENS3_21SynchronizedReadWriteEEE",
   "size" : 4,
   "source_file" : "out/soong/.intermediates/hardware/interfaces/common/fmq/aidl/android.hardware.common.fmq-V1-ndk-source/gen/include/aidl/android/hardware/common/fmq/MQDescriptor.h"
  },
  {
   "alignment" : 4,
   "linker_set_key" : "_ZTIPKN4aidl7android8hardware6common3fmq12MQDescriptorIiNS3_21SynchronizedReadWriteEEE",
   "name" : "const aidl::android::hardware::common::fmq::MQDescriptor<int, aidl::android::hardware::common::fmq::SynchronizedReadWrite> *",
   "referenced_type" : "_ZTIKN4aidl7android8hardware6common3fmq12MQDescriptorIiNS3_21SynchronizedReadWriteEEE",
   "self_type" : "_ZTIPKN4aidl7android8hardware6common3fmq12MQDescriptorIiNS3_21SynchronizedReadWriteEEE",
   "size" : 4,
   "source_file" : "out/soong/.intermediates/hardware/interfaces/common/fmq/aidl/android.hardware.common.fmq-V1-ndk-source/gen/include/aidl/android/hardware/common/fmq/MQDescriptor.h"
  },
  {
   "alignment" : 4,
   "linker_set_key" : "_ZTIPKN4aidl7android8hardware6common3fmq17GrantorDescriptorE",
   "name" : "const aidl::android::hardware::common::fmq::GrantorDescriptor *",
   "referenced_type" : "_ZTIKN4aidl7android8hardware6common3fmq17GrantorDescriptorE",
   "self_type" : "_ZTIPKN4aidl7android8hardware6common3fmq17GrantorDescriptorE",
   "size" : 4,
   "source_file" : "out/soong/.intermediates/hardware/interfaces/common/fmq/aidl/android.hardware.common.fmq-V1-ndk-source/gen/include/aidl/android/hardware/common/fmq/GrantorDescriptor.h"
  },
  {
   "alignment" : 4,
   "linker_set_key" : "_ZTIPKN4aidl7android8hardware7sensors10SensorInfoE",
   "name" : "const aidl::android::hardware::sensors::SensorInfo *",
   "referenced_type" : "_ZTIKN4aidl7android8hardware7sensors10SensorInfoE",
   "self_type" : "_ZTIPKN4aidl7android8hardware7sensors10SensorInfoE",
   "size" : 4,
   "source_file" : "out/soong/.intermediates/hardware/interfaces/sensors/aidl/android.hardware.sensors-V1-ndk-source/gen/include/aidl/android/hardware/sensors/SensorInfo.h"
  },
  {
   "alignment" : 4,
   "linker_set_key" : "_ZTIPKN4aidl7android8hardware7sensors14AdditionalInfo21AdditionalInfoPayload11FloatValuesE",
   "name" : "const aidl::android::hardware::sensors::AdditionalInfo::AdditionalInfoPayload::FloatValues *",
   "referenced_type" : "_ZTIKN4aidl7android8hardware7sensors14AdditionalInfo21AdditionalInfoPayload11FloatValuesE",
   "self_type" : "_ZTIPKN4aidl7android8hardware7sensors14AdditionalInfo21AdditionalInfoPayload11FloatValuesE",
   "size" : 4,
   "source_file" : "out/soong/.intermediates/hardware/interfaces/sensors/aidl/android.hardware.sensors-V1-ndk-source/gen/include/aidl/android/hardware/sensors/AdditionalInfo.h"
  },
  {
   "alignment" : 4,
   "linker_set_key" : "_ZTIPKN4aidl7android8hardware7sensors14AdditionalInfo21AdditionalInfoPayload11Int32ValuesE",
   "name" : "const aidl::android::hardware::sensors::AdditionalInfo::AdditionalInfoPayload::Int32Values *",
   "referenced_type" : "_ZTIKN4aidl7android8hardware7sensors14AdditionalInfo21AdditionalInfoPayload11Int32ValuesE",
   "self_type" : "_ZTIPKN4aidl7android8hardware7sensors14AdditionalInfo21AdditionalInfoPayload11Int32ValuesE",
   "size" : 4,
   "source_file" : "out/soong/.intermediates/hardware/interfaces/sensors/aidl/android.hardware.sensors-V1-ndk-source/gen/include/aidl/android/hardware/sensors/AdditionalInfo.h"
  },
  {
   "alignment" : 4,
   "linker_set_key" : "_ZTIPKN4aidl7android8hardware7sensors14AdditionalInfo21AdditionalInfoPayloadE",
   "name" : "const aidl::android::hardware::sensors::AdditionalInfo::AdditionalInfoPayload *",
   "referenced_type" : "_ZTIKN4aidl7android8hardware7sensors14AdditionalInfo21AdditionalInfoPayloadE",
   "self_type" : "_ZTIPKN4aidl7android8hardware7sensors14AdditionalInfo21AdditionalInfoPayloadE",
   "size" : 4,
   "source_file" : "out/soong/.intermediates/hardware/interfaces/sensors/aidl/android.hardware.sensors-V1-ndk-source/gen/include/aidl/android/hardware/sensors/AdditionalInfo.h"
  },
  {
   "alignment" : 4,
   "linker_set_key" : "_ZTIPKN4aidl7android8hardware7sensors14AdditionalInfoE",
   "name" : "const aidl::android::hardware::sensors::AdditionalInfo *",
   "referenced_type" : "_ZTIKN4aidl7android8hardware7sensors14AdditionalInfoE",
   "self_type" : "_ZTIPKN4aidl7android8hardware7sensors14AdditionalInfoE",
   "size" : 4,
   "source_file" : "out/soong/.intermediates/hardware/interfaces/sensors/aidl/android.hardware.sensors-V1-ndk-source/gen/include/aidl/android/hardware/sensors/AdditionalInfo.h"
  },
  {
   "alignment" : 4,
   "linker_set_key" : "_ZTIPKN4aidl7android8hardware7sensors17DynamicSensorInfo4UuidE",
   "name" : "const aidl::android::hardware::sensors::DynamicSensorInfo::Uuid *",
   "referenced_type" : "_ZTIKN4aidl7android8hardware7sensors17DynamicSensorInfo4UuidE",
   "self_type" : "_ZTIPKN4aidl7android8hardware7sensors17DynamicSensorInfo4UuidE",
   "size" : 4,
   "source_file" : "out/soong/.intermediates/hardware/interfaces/sensors/aidl/android.hardware.sensors-V1-ndk-source/gen/include/aidl/android/hardware/sensors/DynamicSensorInfo.h"
  },
  {
   "alignment" : 4,
   "linker_set_key" : "_ZTIPKN4aidl7android8hardware7sensors17DynamicSensorInfoE",
   "name" : "const aidl::android::hardware::sensors::DynamicSensorInfo *",
   "referenced_type" : "_ZTIKN4aidl7android8hardware7sensors17DynamicSensorInfoE",
   "self_type" : "_ZTIPKN4aidl7android8hardware7sensors17DynamicSensorInfoE",
   "size" : 4,
   "source_file" : "out/soong/.intermediates/hardware/interfaces/sensors/aidl/android.hardware.sensors-V1-ndk-source/gen/include/aidl/android/hardware/sensors/DynamicSensorInfo.h"
  },
  {
   "alignment" : 4,
   "linker_set_key" : "_ZTIPKN4aidl7android8hardware7sensors5Event12EventPayload11HeadTrackerE",
   "name" : "const aidl::android::hardware::sensors::Event::EventPayload::HeadTracker *",
   "referenced_type" : "_ZTIKN4aidl7android8hardware7sensors5Event12EventPayload11HeadTrackerE",
   "self_type" : "_ZTIPKN4aidl7android8hardware7sensors5Event12EventPayload11HeadTrackerE",
   "size" : 4,
   "source_file" : "out/soong/.intermediates/hardware/interfaces/sensors/aidl/android.hardware.sensors-V1-ndk-source/gen/include/aidl/android/hardware/sensors/Event.h"
  },
  {
   "alignment" : 4,
   "linker_set_key" : "_ZTIPKN4aidl7android8hardware7sensors5Event12EventPayload14LimitedAxesImuE",
   "name" : "const aidl::android::hardware::sensors::Event::EventPayload::LimitedAxesImu *",
   "referenced_type" : "_ZTIKN4aidl7android8hardware7sensors5Event12EventPayload14LimitedAxesImuE",
   "self_type" : "_ZTIPKN4aidl7android8hardware7sensors5Event12EventPayload14LimitedAxesImuE",
   "size" : 4,
   "source_file" : "out/soong/.intermediates/hardware/interfaces/sensors/aidl/android.hardware.sensors-V1-ndk-source/gen/include/aidl/android/hardware/sensors/Event.h"
  },
  {
   "alignment" : 4,
   "linker_set_key" : "_ZTIPKN4aidl7android8hardware7sensors5Event12EventPayload19LimitedAxesImuUncalE",
   "name" : "const aidl::android::hardware::sensors::Event::EventPayload::LimitedAxesImuUncal *",
   "referenced_type" : "_ZTIKN4aidl7android8hardware7sensors5Event12EventPayload19LimitedAxesImuUncalE",
   "self_type" : "_ZTIPKN4aidl7android8hardware7sensors5Event12EventPayload19LimitedAxesImuUncalE",
   "size" : 4,
   "source_file" : "out/soong/.intermediates/hardware/interfaces/sensors/aidl/android.hardware.sensors-V1-ndk-source/gen/include/aidl/android/hardware/sensors/Event.h"
  },
  {
   "alignment" : 4,
   "linker_set_key" : "_ZTIPKN4aidl7android8hardware7sensors5Event12EventPayload4DataE",
   "name" : "const aidl::android::hardware::sensors::Event::EventPayload::Data *",
   "referenced_type" : "_ZTIKN4aidl7android8hardware7sensors5Event12EventPayload4DataE",
   "self_type" : "_ZTIPKN4aidl7android8hardware7sensors5Event12EventPayload4DataE",
   "size" : 4,
   "source_file" : "out/soong/.intermediates/hardware/interfaces/sensors/aidl/android.hardware.sensors-V1-ndk-source/gen/include/aidl/android/hardware/sensors/Event.h"
  },
  {
   "alignment" : 4,
   "linker_set_key" : "_ZTIPKN4aidl7android8hardware7sensors5Event12EventPayload4Vec3E",
   "name" : "const aidl::android::hardware::sensors::Event::EventPayload::Vec3 *",
   "referenced_type" : "_ZTIKN4aidl7android8hardware7sensors5Event12EventPayload4Vec3E",
   "self_type" : "_ZTIPKN4aidl7android8hardware7sensors5Event12EventPayload4Vec3E",
   "size" : 4,
   "source_file" : "out/soong/.intermediates/hardware/interfaces/sensors/aidl/android.hardware.sensors-V1-ndk-source/gen/include/aidl/android/hardware/sensors/Event.h"
  },
  {
   "alignment" : 4,
   "linker_set_key" : "_ZTIPKN4aidl7android8hardware7sensors5Event12EventPayload4Vec4E",
   "name" : "const aidl::android::hardware::sensors::Event::EventPayload::Vec4 *",
   "referenced_type" : "_ZTIKN4aidl7android8hardware7sensors5Event12EventPayload4Vec4E",
   "self_type" : "_ZTIPKN4aidl7android8hardware7sensors5Event12EventPayload4Vec4E",
   "size" : 4,
   "source_file" : "out/soong/.intermediates/hardware/interfaces/sensors/aidl/android.hardware.sensors-V1-ndk-source/gen/include/aidl/android/hardware/sensors/Event.h"
  },
  {
   "alignment" : 4,
   "linker_set_key" : "_ZTIPKN4aidl7android8hardware7sensors5Event12EventPayload5UncalE",
   "name" : "const aidl::android::hardware::sensors::Event::EventPayload::Uncal *",
   "referenced_type" : "_ZTIKN4aidl7android8hardware7sensors5Event12EventPayload5UncalE",
   "self_type" : "_ZTIPKN4aidl7android8hardware7sensors5Event12EventPayload5UncalE",
   "size" : 4,
   "source_file" : "out/soong/.intermediates/hardware/interfaces/sensors/aidl/android.hardware.sensors-V1-ndk-source/gen/include/aidl/android/hardware/sensors/Event.h"
  },
  {
   "alignment" : 4,
   "linker_set_key" : "_ZTIPKN4aidl7android8hardware7sensors5Event12EventPayload7HeadingE",
   "name" : "const aidl::android::hardware::sensors::Event::EventPayload::Heading *",
   "referenced_type" : "_ZTIKN4aidl7android8hardware7sensors5Event12EventPayload7HeadingE",
   "self_type" : "_ZTIPKN4aidl7android8hardware7sensors5Event12EventPayload7HeadingE",
   "size" : 4,
   "source_file" : "out/soong/.intermediates/hardware/interfaces/sensors/aidl/android.hardware.sensors-V1-ndk-source/gen/include/aidl/android/hardware/sensors/Event.h"
  },
  {
   "alignment" : 4,
   "linker_set_key" : "_ZTIPKN4aidl7android8hardware7sensors5Event12EventPayload8MetaDataE",
   "name" : "const aidl::android::hardware::sensors::Event::EventPayload::MetaData *",
   "referenced_type" : "_ZTIKN4aidl7android8hardware7sensors5Event12EventPayload8MetaDataE",
   "self_type" : "_ZTIPKN4aidl7android8hardware7sensors5Event12EventPayload8MetaDataE",
   "size" : 4,
   "source_file" : "out/soong/.intermediates/hardware/interfaces/sensors/aidl/android.hardware.sensors-V1-ndk-source/gen/include/aidl/android/hardware/sensors/Event.h"
  },
  {
   "alignment" : 4,
   "linker_set_key" : "_ZTIPKN4aidl7android8hardware7sensors5Event12EventPayload8Pose6DofE",
   "name" : "const aidl::android::hardware::sensors::Event::EventPayload::Pose6Dof *",
   "referenced_type" : "_ZTIKN4aidl7android8hardware7sensors5Event12EventPayload8Pose6DofE",
   "self_type" : "_ZTIPKN4aidl7android8hardware7sensors5Event12EventPayload8Pose6DofE",
   "size" : 4,
   "source_file" : "out/soong/.intermediates/hardware/interfaces/sensors/aidl/android.hardware.sensors-V1-ndk-source/gen/include/aidl/android/hardware/sensors/Event.h"
  },
  {
   "alignment" : 4,
   "linker_set_key" : "_ZTIPKN4aidl7android8hardware7sensors5Event12EventPayload9HeartRateE",
   "name" : "const aidl::android::hardware::sensors::Event::EventPayload::HeartRate *",
   "referenced_type" : "_ZTIKN4aidl7android8hardware7sensors5Event12EventPayload9HeartRateE",
   "self_type" : "_ZTIPKN4aidl7android8hardware7sensors5Event12EventPayload9HeartRateE",
   "size" : 4,
   "source_file" : "out/soong/.intermediates/hardware/interfaces/sensors/aidl/android.hardware.sensors-V1-ndk-source/gen/include/aidl/android/hardware/sensors/Event.h"
  },
  {
   "alignment" : 4,
   "linker_set_key" : "_ZTIPKN4aidl7android8hardware7sensors5Event12EventPayloadE",
   "name" : "const aidl::android::hardware::sensors::Event::EventPayload *",
   "referenced_type" : "_ZTIKN4aidl7android8hardware7sensors5Event12EventPayloadE",
   "self_type" : "_ZTIPKN4aidl7android8hardware7sensors5Event12EventPayloadE",
   "size" : 4,
   "source_file" : "out/soong/.intermediates/hardware/interfaces/sensors/aidl/android.hardware.sensors-V1-ndk-source/gen/include/aidl/android/hardware/sensors/Event.h"
  },
  {
   "alignment" : 4,
   "linker_set_key" : "_ZTIPKN4aidl7android8hardware7sensors5EventE",
   "name" : "const aidl::android::hardware::sensors::Event *",
   "referenced_type" : "_ZTIKN4aidl7android8hardware7sensors5EventE",
   "self_type" : "_ZTIPKN4aidl7android8hardware7sensors5EventE",
   "size" : 4,
   "source_file" : "out/soong/.intermediates/hardware/interfaces/sensors/aidl/android.hardware.sensors-V1-ndk-source/gen/include/aidl/android/hardware/sensors/Event.h"
  },
  {
   "alignment" : 4,
   "linker_set_key" : "_ZTIPKN4aidl7android8hardware7sensors8ISensors13SharedMemInfoE",
   "name" : "const aidl::android::hardware::sensors::ISensors::SharedMemInfo *",
   "referenced_type" : "_ZTIKN4aidl7android8hardware7sensors8ISensors13SharedMemInfoE",
   "self_type" : "_ZTIPKN4aidl7android8hardware7sensors8ISensors13SharedMemInfoE",
   "size" : 4,
   "source_file" : "out/soong/.intermediates/hardware/interfaces/sensors/aidl/android.hardware.sensors-V1-ndk-source/gen/include/aidl/android/hardware/sensors/ISensors.h"
  },
  {
   "alignment" : 4,
   "linker_set_key" : "_ZTIPKc",
   "name" : "const char *",
   "referenced_type" : "_ZTIKc",
   "self_type" : "_ZTIPKc",
   "size" : 4,
   "source_file" : "frameworks/native/libs/binder/ndk/include_cpp/android/binder_auto_utils.h"
  },
  {
   "alignment" : 4,
   "linker_set_key" : "_ZTIPKv",
   "name" : "const void *",
   "referenced_type" : "_ZTIKv",
   "self_type" : "_ZTIPKv",
   "size" : 4,
   "source_file" : "frameworks/native/libs/binder/ndk/include_cpp/android/binder_parcel_utils.h"
  },
  {
   "alignment" : 4,
   "linker_set_key" : "_ZTIPN3ndk10SpAIBinderE",
   "name" : "ndk::SpAIBinder *",
   "referenced_type" : "_ZTIN3ndk10SpAIBinderE",
   "self_type" : "_ZTIPN3ndk10SpAIBinderE",
   "size" : 4,
   "source_file" : "frameworks/native/libs/binder/ndk/include_cpp/android/binder_auto_utils.h"
  },
  {
   "alignment" : 4,
   "linker_set_key" : "_ZTIPN3ndk11ICInterfaceE",
   "name" : "ndk::ICInterface *",
   "referenced_type" : "_ZTIN3ndk11ICInterfaceE",
   "self_type" : "_ZTIPN3ndk11ICInterfaceE",
   "size" : 4,
   "source_file" : "frameworks/native/libs/binder/ndk/include_cpp/android/binder_interface_utils.h"
  },
  {
   "alignment" : 4,
   "linker_set_key" : "_ZTIPN3ndk12BnCInterfaceIN4aidl7android8hardware7sensors16ISensorsCallbackEEE",
   "name" : "ndk::BnCInterface<aidl::android::hardware::sensors::ISensorsCallback> *",
   "referenced_type" : "_ZTIN3ndk12BnCInterfaceIN4aidl7android8hardware7sensors16ISensorsCallbackEEE",
   "self_type" : "_ZTIPN3ndk12BnCInterfaceIN4aidl7android8hardware7sensors16ISensorsCallbackEEE",
   "size" : 4,
   "source_file" : "frameworks/native/libs/binder/ndk/include_cpp/android/binder_interface_utils.h"
  },
  {
   "alignment" : 4,
   "linker_set_key" : "_ZTIPN3ndk12BnCInterfaceIN4aidl7android8hardware7sensors8ISensorsEEE",
   "name" : "ndk::BnCInterface<aidl::android::hardware::sensors::ISensors> *",
   "referenced_type" : "_ZTIN3ndk12BnCInterfaceIN4aidl7android8hardware7sensors8ISensorsEEE",
   "self_type" : "_ZTIPN3ndk12BnCInterfaceIN4aidl7android8hardware7sensors8ISensorsEEE",
   "size" : 4,
   "source_file" : "frameworks/native/libs/binder/ndk/include_cpp/android/binder_interface_utils.h"
  },
  {
   "alignment" : 4,
   "linker_set_key" : "_ZTIPN3ndk12BpCInterfaceIN4aidl7android8hardware7sensors16ISensorsCallbackEEE",
   "name" : "ndk::BpCInterface<aidl::android::hardware::sensors::ISensorsCallback> *",
   "referenced_type" : "_ZTIN3ndk12BpCInterfaceIN4aidl7android8hardware7sensors16ISensorsCallbackEEE",
   "self_type" : "_ZTIPN3ndk12BpCInterfaceIN4aidl7android8hardware7sensors16ISensorsCallbackEEE",
   "size" : 4,
   "source_file" : "frameworks/native/libs/binder/ndk/include_cpp/android/binder_interface_utils.h"
  },
  {
   "alignment" : 4,
   "linker_set_key" : "_ZTIPN3ndk12BpCInterfaceIN4aidl7android8hardware7sensors8ISensorsEEE",
   "name" : "ndk::BpCInterface<aidl::android::hardware::sensors::ISensors> *",
   "referenced_type" : "_ZTIN3ndk12BpCInterfaceIN4aidl7android8hardware7sensors8ISensorsEEE",
   "self_type" : "_ZTIPN3ndk12BpCInterfaceIN4aidl7android8hardware7sensors8ISensorsEEE",
   "size" : 4,
   "source_file" : "frameworks/native/libs/binder/ndk/include_cpp/android/binder_interface_utils.h"
  },
  {
   "alignment" : 4,
   "linker_set_key" : "_ZTIPN3ndk13ScopedAParcelE",
   "name" : "ndk::ScopedAParcel *",
   "referenced_type" : "_ZTIN3ndk13ScopedAParcelE",
   "self_type" : "_ZTIPN3ndk13ScopedAParcelE",
   "size" : 4,
   "source_file" : "frameworks/native/libs/binder/ndk/include_cpp/android/binder_auto_utils.h"
  },
  {
   "alignment" : 4,
   "linker_set_key" : "_ZTIPN3ndk13ScopedAStatusE",
   "name" : "ndk::ScopedAStatus *",
   "referenced_type" : "_ZTIN3ndk13ScopedAStatusE",
   "self_type" : "_ZTIPN3ndk13ScopedAStatusE",
   "size" : 4,
   "source_file" : "frameworks/native/libs/binder/ndk/include_cpp/android/binder_auto_utils.h"
  },
  {
   "alignment" : 4,
   "linker_set_key" : "_ZTIPN3ndk13SharedRefBaseE",
   "name" : "ndk::SharedRefBase *",
   "referenced_type" : "_ZTIN3ndk13SharedRefBaseE",
   "self_type" : "_ZTIPN3ndk13SharedRefBaseE",
   "size" : 4,
   "source_file" : "frameworks/native/libs/binder/ndk/include_cpp/android/binder_interface_utils.h"
  },
  {
   "alignment" : 4,
   "linker_set_key" : "_ZTIPN3ndk17AParcelableHolderE",
   "name" : "ndk::AParcelableHolder *",
   "referenced_type" : "_ZTIN3ndk17AParcelableHolderE",
   "self_type" : "_ZTIPN3ndk17AParcelableHolderE",
   "size" : 4,
   "source_file" : "frameworks/native/libs/binder/ndk/include_cpp/android/binder_parcelable_utils.h"
  },
  {
   "alignment" : 4,
   "linker_set_key" : "_ZTIPN3ndk19ScopedAIBinder_WeakE",
   "name" : "ndk::ScopedAIBinder_Weak *",
   "referenced_type" : "_ZTIN3ndk19ScopedAIBinder_WeakE",
   "self_type" : "_ZTIPN3ndk19ScopedAIBinder_WeakE",
   "size" : 4,
   "source_file" : "frameworks/native/libs/binder/ndk/include_cpp/android/binder_auto_utils.h"
  },
  {
   "alignment" : 4,
   "linker_set_key" : "_ZTIPN3ndk20ScopedFileDescriptorE",
   "name" : "ndk::ScopedFileDescriptor *",
   "referenced_type" : "_ZTIN3ndk20ScopedFileDescriptorE",
   "self_type" : "_ZTIPN3ndk20ScopedFileDescriptorE",
   "size" : 4,
   "source_file" : "frameworks/native/libs/binder/ndk/include_cpp/android/binder_auto_utils.h"
  },
  {
   "alignment" : 4,
   "linker_set_key" : "_ZTIPN3ndk29ScopedAIBinder_DeathRecipientE",
   "name" : "ndk::ScopedAIBinder_DeathRecipient *",
   "referenced_type" : "_ZTIN3ndk29ScopedAIBinder_DeathRecipientE",
   "self_type" : "_ZTIPN3ndk29ScopedAIBinder_DeathRecipientE",
   "size" : 4,
   "source_file" : "frameworks/native/libs/binder/ndk/include_cpp/android/binder_auto_utils.h"
  },
  {
   "alignment" : 4,
   "linker_set_key" : "_ZTIPN3ndk4impl15ScopedAResourceIP13AIBinder_WeakXadL_Z20AIBinder_Weak_deleteEELS3_0EEE",
   "name" : "ndk::impl::ScopedAResource<AIBinder_Weak *, &AIBinder_Weak_delete, nullptr> *",
   "referenced_type" : "_ZTIN3ndk4impl15ScopedAResourceIP13AIBinder_WeakXadL_Z20AIBinder_Weak_deleteEELS3_0EEE",
   "self_type" : "_ZTIPN3ndk4impl15ScopedAResourceIP13AIBinder_WeakXadL_Z20AIBinder_Weak_deleteEELS3_0EEE",
   "size" : 4,
   "source_file" : "frameworks/native/libs/binder/ndk/include_cpp/android/binder_auto_utils.h"
  },
  {
   "alignment" : 4,
   "linker_set_key" : "_ZTIPN3ndk4impl15ScopedAResourceIP23AIBinder_DeathRecipientXadL_Z30AIBinder_DeathRecipient_deleteEELS3_0EEE",
   "name" : "ndk::impl::ScopedAResource<AIBinder_DeathRecipient *, &AIBinder_DeathRecipient_delete, nullptr> *",
   "referenced_type" : "_ZTIN3ndk4impl15ScopedAResourceIP23AIBinder_DeathRecipientXadL_Z30AIBinder_DeathRecipient_deleteEELS3_0EEE",
   "self_type" : "_ZTIPN3ndk4impl15ScopedAResourceIP23AIBinder_DeathRecipientXadL_Z30AIBinder_DeathRecipient_deleteEELS3_0EEE",
   "size" : 4,
   "source_file" : "frameworks/native/libs/binder/ndk/include_cpp/android/binder_auto_utils.h"
  },
  {
   "alignment" : 4,
   "linker_set_key" : "_ZTIPN3ndk4impl15ScopedAResourceIP7AParcelXadL_Z14AParcel_deleteEELS3_0EEE",
   "name" : "ndk::impl::ScopedAResource<AParcel *, &AParcel_delete, nullptr> *",
   "referenced_type" : "_ZTIN3ndk4impl15ScopedAResourceIP7AParcelXadL_Z14AParcel_deleteEELS3_0EEE",
   "self_type" : "_ZTIPN3ndk4impl15ScopedAResourceIP7AParcelXadL_Z14AParcel_deleteEELS3_0EEE",
   "size" : 4,
   "source_file" : "frameworks/native/libs/binder/ndk/include_cpp/android/binder_auto_utils.h"
  },
  {
   "alignment" : 4,
   "linker_set_key" : "_ZTIPN3ndk4impl15ScopedAResourceIP7AStatusXadL_Z14AStatus_deleteEELS3_0EEE",
   "name" : "ndk::impl::ScopedAResource<AStatus *, &AStatus_delete, nullptr> *",
   "referenced_type" : "_ZTIN3ndk4impl15ScopedAResourceIP7AStatusXadL_Z14AStatus_deleteEELS3_0EEE",
   "self_type" : "_ZTIPN3ndk4impl15ScopedAResourceIP7AStatusXadL_Z14AStatus_deleteEELS3_0EEE",
   "size" : 4,
   "source_file" : "frameworks/native/libs/binder/ndk/include_cpp/android/binder_auto_utils.h"
  },
  {
   "alignment" : 4,
   "linker_set_key" : "_ZTIPN4aidl7android8hardware6common3fmq12MQDescriptorINS1_7sensors5EventENS3_21SynchronizedReadWriteEEE",
   "name" : "aidl::android::hardware::common::fmq::MQDescriptor<aidl::android::hardware::sensors::Event, aidl::android::hardware::common::fmq::SynchronizedReadWrite> *",
   "referenced_type" : "_ZTIN4aidl7android8hardware6common3fmq12MQDescriptorINS1_7sensors5EventENS3_21SynchronizedReadWriteEEE",
   "self_type" : "_ZTIPN4aidl7android8hardware6common3fmq12MQDescriptorINS1_7sensors5EventENS3_21SynchronizedReadWriteEEE",
   "size" : 4,
   "source_file" : "out/soong/.intermediates/hardware/interfaces/common/fmq/aidl/android.hardware.common.fmq-V1-ndk-source/gen/include/aidl/android/hardware/common/fmq/MQDescriptor.h"
  },
  {
   "alignment" : 4,
   "linker_set_key" : "_ZTIPN4aidl7android8hardware6common3fmq12MQDescriptorIiNS3_21SynchronizedReadWriteEEE",
   "name" : "aidl::android::hardware::common::fmq::MQDescriptor<int, aidl::android::hardware::common::fmq::SynchronizedReadWrite> *",
   "referenced_type" : "_ZTIN4aidl7android8hardware6common3fmq12MQDescriptorIiNS3_21SynchronizedReadWriteEEE",
   "self_type" : "_ZTIPN4aidl7android8hardware6common3fmq12MQDescriptorIiNS3_21SynchronizedReadWriteEEE",
   "size" : 4,
   "source_file" : "out/soong/.intermediates/hardware/interfaces/common/fmq/aidl/android.hardware.common.fmq-V1-ndk-source/gen/include/aidl/android/hardware/common/fmq/MQDescriptor.h"
  },
  {
   "alignment" : 4,
   "linker_set_key" : "_ZTIPN4aidl7android8hardware7sensors10SensorInfoE",
   "name" : "aidl::android::hardware::sensors::SensorInfo *",
   "referenced_type" : "_ZTIN4aidl7android8hardware7sensors10SensorInfoE",
   "self_type" : "_ZTIPN4aidl7android8hardware7sensors10SensorInfoE",
   "size" : 4,
   "source_file" : "out/soong/.intermediates/hardware/interfaces/sensors/aidl/android.hardware.sensors-V1-ndk-source/gen/include/aidl/android/hardware/sensors/SensorInfo.h"
  },
  {
   "alignment" : 4,
   "linker_set_key" : "_ZTIPN4aidl7android8hardware7sensors14AdditionalInfo21AdditionalInfoPayload11FloatValuesE",
   "name" : "aidl::android::hardware::sensors::AdditionalInfo::AdditionalInfoPayload::FloatValues *",
   "referenced_type" : "_ZTIN4aidl7android8hardware7sensors14AdditionalInfo21AdditionalInfoPayload11FloatValuesE",
   "self_type" : "_ZTIPN4aidl7android8hardware7sensors14AdditionalInfo21AdditionalInfoPayload11FloatValuesE",
   "size" : 4,
   "source_file" : "out/soong/.intermediates/hardware/interfaces/sensors/aidl/android.hardware.sensors-V1-ndk-source/gen/include/aidl/android/hardware/sensors/AdditionalInfo.h"
  },
  {
   "alignment" : 4,
   "linker_set_key" : "_ZTIPN4aidl7android8hardware7sensors14AdditionalInfo21AdditionalInfoPayload11Int32ValuesE",
   "name" : "aidl::android::hardware::sensors::AdditionalInfo::AdditionalInfoPayload::Int32Values *",
   "referenced_type" : "_ZTIN4aidl7android8hardware7sensors14AdditionalInfo21AdditionalInfoPayload11Int32ValuesE",
   "self_type" : "_ZTIPN4aidl7android8hardware7sensors14AdditionalInfo21AdditionalInfoPayload11Int32ValuesE",
   "size" : 4,
   "source_file" : "out/soong/.intermediates/hardware/interfaces/sensors/aidl/android.hardware.sensors-V1-ndk-source/gen/include/aidl/android/hardware/sensors/AdditionalInfo.h"
  },
  {
   "alignment" : 4,
   "linker_set_key" : "_ZTIPN4aidl7android8hardware7sensors14AdditionalInfo21AdditionalInfoPayload8_value_tE",
   "name" : "aidl::android::hardware::sensors::AdditionalInfo::AdditionalInfoPayload::_value_t *",
   "referenced_type" : "_ZTIN4aidl7android8hardware7sensors14AdditionalInfo21AdditionalInfoPayload8_value_tE",
   "self_type" : "_ZTIPN4aidl7android8hardware7sensors14AdditionalInfo21AdditionalInfoPayload8_value_tE",
   "size" : 4,
   "source_file" : "out/soong/.intermediates/hardware/interfaces/sensors/aidl/android.hardware.sensors-V1-ndk-source/gen/include/aidl/android/hardware/sensors/AdditionalInfo.h"
  },
  {
   "alignment" : 4,
   "linker_set_key" : "_ZTIPN4aidl7android8hardware7sensors14AdditionalInfo21AdditionalInfoPayloadE",
   "name" : "aidl::android::hardware::sensors::AdditionalInfo::AdditionalInfoPayload *",
   "referenced_type" : "_ZTIN4aidl7android8hardware7sensors14AdditionalInfo21AdditionalInfoPayloadE",
   "self_type" : "_ZTIPN4aidl7android8hardware7sensors14AdditionalInfo21AdditionalInfoPayloadE",
   "size" : 4,
   "source_file" : "out/soong/.intermediates/hardware/interfaces/sensors/aidl/android.hardware.sensors-V1-ndk-source/gen/include/aidl/android/hardware/sensors/AdditionalInfo.h"
  },
  {
   "alignment" : 4,
   "linker_set_key" : "_ZTIPN4aidl7android8hardware7sensors14AdditionalInfoE",
   "name" : "aidl::android::hardware::sensors::AdditionalInfo *",
   "referenced_type" : "_ZTIN4aidl7android8hardware7sensors14AdditionalInfoE",
   "self_type" : "_ZTIPN4aidl7android8hardware7sensors14AdditionalInfoE",
   "size" : 4,
   "source_file" : "out/soong/.intermediates/hardware/interfaces/sensors/aidl/android.hardware.sensors-V1-ndk-source/gen/include/aidl/android/hardware/sensors/AdditionalInfo.h"
  },
  {
   "alignment" : 4,
   "linker_set_key" : "_ZTIPN4aidl7android8hardware7sensors15ISensorsDefaultE",
   "name" : "aidl::android::hardware::sensors::ISensorsDefault *",
   "referenced_type" : "_ZTIN4aidl7android8hardware7sensors15ISensorsDefaultE",
   "self_type" : "_ZTIPN4aidl7android8hardware7sensors15ISensorsDefaultE",
   "size" : 4,
   "source_file" : "out/soong/.intermediates/hardware/interfaces/sensors/aidl/android.hardware.sensors-V1-ndk-source/gen/include/aidl/android/hardware/sensors/ISensors.h"
  },
  {
   "alignment" : 4,
   "linker_set_key" : "_ZTIPN4aidl7android8hardware7sensors16ISensorsCallbackE",
   "name" : "aidl::android::hardware::sensors::ISensorsCallback *",
   "referenced_type" : "_ZTIN4aidl7android8hardware7sensors16ISensorsCallbackE",
   "self_type" : "_ZTIPN4aidl7android8hardware7sensors16ISensorsCallbackE",
   "size" : 4,
   "source_file" : "out/soong/.intermediates/hardware/interfaces/sensors/aidl/android.hardware.sensors-V1-ndk-source/gen/include/aidl/android/hardware/sensors/ISensorsCallback.h"
  },
  {
   "alignment" : 4,
   "linker_set_key" : "_ZTIPN4aidl7android8hardware7sensors17BnSensorsCallbackE",
   "name" : "aidl::android::hardware::sensors::BnSensorsCallback *",
   "referenced_type" : "_ZTIN4aidl7android8hardware7sensors17BnSensorsCallbackE",
   "self_type" : "_ZTIPN4aidl7android8hardware7sensors17BnSensorsCallbackE",
   "size" : 4,
   "source_file" : "out/soong/.intermediates/hardware/interfaces/sensors/aidl/android.hardware.sensors-V1-ndk-source/gen/include/aidl/android/hardware/sensors/BnSensorsCallback.h"
  },
  {
   "alignment" : 4,
   "linker_set_key" : "_ZTIPN4aidl7android8hardware7sensors17BpSensorsCallbackE",
   "name" : "aidl::android::hardware::sensors::BpSensorsCallback *",
   "referenced_type" : "_ZTIN4aidl7android8hardware7sensors17BpSensorsCallbackE",
   "self_type" : "_ZTIPN4aidl7android8hardware7sensors17BpSensorsCallbackE",
   "size" : 4,
   "source_file" : "out/soong/.intermediates/hardware/interfaces/sensors/aidl/android.hardware.sensors-V1-ndk-source/gen/include/aidl/android/hardware/sensors/BpSensorsCallback.h"
  },
  {
   "alignment" : 4,
   "linker_set_key" : "_ZTIPN4aidl7android8hardware7sensors17DynamicSensorInfo4UuidE",
   "name" : "aidl::android::hardware::sensors::DynamicSensorInfo::Uuid *",
   "referenced_type" : "_ZTIN4aidl7android8hardware7sensors17DynamicSensorInfo4UuidE",
   "self_type" : "_ZTIPN4aidl7android8hardware7sensors17DynamicSensorInfo4UuidE",
   "size" : 4,
   "source_file" : "out/soong/.intermediates/hardware/interfaces/sensors/aidl/android.hardware.sensors-V1-ndk-source/gen/include/aidl/android/hardware/sensors/DynamicSensorInfo.h"
  },
  {
   "alignment" : 4,
   "linker_set_key" : "_ZTIPN4aidl7android8hardware7sensors17DynamicSensorInfoE",
   "name" : "aidl::android::hardware::sensors::DynamicSensorInfo *",
   "referenced_type" : "_ZTIN4aidl7android8hardware7sensors17DynamicSensorInfoE",
   "self_type" : "_ZTIPN4aidl7android8hardware7sensors17DynamicSensorInfoE",
   "size" : 4,
   "source_file" : "out/soong/.intermediates/hardware/interfaces/sensors/aidl/android.hardware.sensors-V1-ndk-source/gen/include/aidl/android/hardware/sensors/DynamicSensorInfo.h"
  },
  {
   "alignment" : 4,
   "linker_set_key" : "_ZTIPN4aidl7android8hardware7sensors17ISensorsDelegatorE",
   "name" : "aidl::android::hardware::sensors::ISensorsDelegator *",
   "referenced_type" : "_ZTIN4aidl7android8hardware7sensors17ISensorsDelegatorE",
   "self_type" : "_ZTIPN4aidl7android8hardware7sensors17ISensorsDelegatorE",
   "size" : 4,
   "source_file" : "out/soong/.intermediates/hardware/interfaces/sensors/aidl/android.hardware.sensors-V1-ndk-source/gen/include/aidl/android/hardware/sensors/BnSensors.h"
  },
  {
   "alignment" : 4,
   "linker_set_key" : "_ZTIPN4aidl7android8hardware7sensors23ISensorsCallbackDefaultE",
   "name" : "aidl::android::hardware::sensors::ISensorsCallbackDefault *",
   "referenced_type" : "_ZTIN4aidl7android8hardware7sensors23ISensorsCallbackDefaultE",
   "self_type" : "_ZTIPN4aidl7android8hardware7sensors23ISensorsCallbackDefaultE",
   "size" : 4,
   "source_file" : "out/soong/.intermediates/hardware/interfaces/sensors/aidl/android.hardware.sensors-V1-ndk-source/gen/include/aidl/android/hardware/sensors/ISensorsCallback.h"
  },
  {
   "alignment" : 4,
   "linker_set_key" : "_ZTIPN4aidl7android8hardware7sensors25ISensorsCallbackDelegatorE",
   "name" : "aidl::android::hardware::sensors::ISensorsCallbackDelegator *",
   "referenced_type" : "_ZTIN4aidl7android8hardware7sensors25ISensorsCallbackDelegatorE",
   "self_type" : "_ZTIPN4aidl7android8hardware7sensors25ISensorsCallbackDelegatorE",
   "size" : 4,
   "source_file" : "out/soong/.intermediates/hardware/interfaces/sensors/aidl/android.hardware.sensors-V1-ndk-source/gen/include/aidl/android/hardware/sensors/BnSensorsCallback.h"
  },
  {
   "alignment" : 4,
   "linker_set_key" : "_ZTIPN4aidl7android8hardware7sensors5Event12EventPayload11HeadTrackerE",
   "name" : "aidl::android::hardware::sensors::Event::EventPayload::HeadTracker *",
   "referenced_type" : "_ZTIN4aidl7android8hardware7sensors5Event12EventPayload11HeadTrackerE",
   "self_type" : "_ZTIPN4aidl7android8hardware7sensors5Event12EventPayload11HeadTrackerE",
   "size" : 4,
   "source_file" : "out/soong/.intermediates/hardware/interfaces/sensors/aidl/android.hardware.sensors-V1-ndk-source/gen/include/aidl/android/hardware/sensors/Event.h"
  },
  {
   "alignment" : 4,
   "linker_set_key" : "_ZTIPN4aidl7android8hardware7sensors5Event12EventPayload14LimitedAxesImuE",
   "name" : "aidl::android::hardware::sensors::Event::EventPayload::LimitedAxesImu *",
   "referenced_type" : "_ZTIN4aidl7android8hardware7sensors5Event12EventPayload14LimitedAxesImuE",
   "self_type" : "_ZTIPN4aidl7android8hardware7sensors5Event12EventPayload14LimitedAxesImuE",
   "size" : 4,
   "source_file" : "out/soong/.intermediates/hardware/interfaces/sensors/aidl/android.hardware.sensors-V1-ndk-source/gen/include/aidl/android/hardware/sensors/Event.h"
  },
  {
   "alignment" : 4,
   "linker_set_key" : "_ZTIPN4aidl7android8hardware7sensors5Event12EventPayload19LimitedAxesImuUncalE",
   "name" : "aidl::android::hardware::sensors::Event::EventPayload::LimitedAxesImuUncal *",
   "referenced_type" : "_ZTIN4aidl7android8hardware7sensors5Event12EventPayload19LimitedAxesImuUncalE",
   "self_type" : "_ZTIPN4aidl7android8hardware7sensors5Event12EventPayload19LimitedAxesImuUncalE",
   "size" : 4,
   "source_file" : "out/soong/.intermediates/hardware/interfaces/sensors/aidl/android.hardware.sensors-V1-ndk-source/gen/include/aidl/android/hardware/sensors/Event.h"
  },
  {
   "alignment" : 4,
   "linker_set_key" : "_ZTIPN4aidl7android8hardware7sensors5Event12EventPayload4DataE",
   "name" : "aidl::android::hardware::sensors::Event::EventPayload::Data *",
   "referenced_type" : "_ZTIN4aidl7android8hardware7sensors5Event12EventPayload4DataE",
   "self_type" : "_ZTIPN4aidl7android8hardware7sensors5Event12EventPayload4DataE",
   "size" : 4,
   "source_file" : "out/soong/.intermediates/hardware/interfaces/sensors/aidl/android.hardware.sensors-V1-ndk-source/gen/include/aidl/android/hardware/sensors/Event.h"
  },
  {
   "alignment" : 4,
   "linker_set_key" : "_ZTIPN4aidl7android8hardware7sensors5Event12EventPayload4Vec3E",
   "name" : "aidl::android::hardware::sensors::Event::EventPayload::Vec3 *",
   "referenced_type" : "_ZTIN4aidl7android8hardware7sensors5Event12EventPayload4Vec3E",
   "self_type" : "_ZTIPN4aidl7android8hardware7sensors5Event12EventPayload4Vec3E",
   "size" : 4,
   "source_file" : "out/soong/.intermediates/hardware/interfaces/sensors/aidl/android.hardware.sensors-V1-ndk-source/gen/include/aidl/android/hardware/sensors/Event.h"
  },
  {
   "alignment" : 4,
   "linker_set_key" : "_ZTIPN4aidl7android8hardware7sensors5Event12EventPayload4Vec4E",
   "name" : "aidl::android::hardware::sensors::Event::EventPayload::Vec4 *",
   "referenced_type" : "_ZTIN4aidl7android8hardware7sensors5Event12EventPayload4Vec4E",
   "self_type" : "_ZTIPN4aidl7android8hardware7sensors5Event12EventPayload4Vec4E",
   "size" : 4,
   "source_file" : "out/soong/.intermediates/hardware/interfaces/sensors/aidl/android.hardware.sensors-V1-ndk-source/gen/include/aidl/android/hardware/sensors/Event.h"
  },
  {
   "alignment" : 4,
   "linker_set_key" : "_ZTIPN4aidl7android8hardware7sensors5Event12EventPayload5UncalE",
   "name" : "aidl::android::hardware::sensors::Event::EventPayload::Uncal *",
   "referenced_type" : "_ZTIN4aidl7android8hardware7sensors5Event12EventPayload5UncalE",
   "self_type" : "_ZTIPN4aidl7android8hardware7sensors5Event12EventPayload5UncalE",
   "size" : 4,
   "source_file" : "out/soong/.intermediates/hardware/interfaces/sensors/aidl/android.hardware.sensors-V1-ndk-source/gen/include/aidl/android/hardware/sensors/Event.h"
  },
  {
   "alignment" : 4,
   "linker_set_key" : "_ZTIPN4aidl7android8hardware7sensors5Event12EventPayload7HeadingE",
   "name" : "aidl::android::hardware::sensors::Event::EventPayload::Heading *",
   "referenced_type" : "_ZTIN4aidl7android8hardware7sensors5Event12EventPayload7HeadingE",
   "self_type" : "_ZTIPN4aidl7android8hardware7sensors5Event12EventPayload7HeadingE",
   "size" : 4,
   "source_file" : "out/soong/.intermediates/hardware/interfaces/sensors/aidl/android.hardware.sensors-V1-ndk-source/gen/include/aidl/android/hardware/sensors/Event.h"
  },
  {
   "alignment" : 4,
   "linker_set_key" : "_ZTIPN4aidl7android8hardware7sensors5Event12EventPayload8MetaDataE",
   "name" : "aidl::android::hardware::sensors::Event::EventPayload::MetaData *",
   "referenced_type" : "_ZTIN4aidl7android8hardware7sensors5Event12EventPayload8MetaDataE",
   "self_type" : "_ZTIPN4aidl7android8hardware7sensors5Event12EventPayload8MetaDataE",
   "size" : 4,
   "source_file" : "out/soong/.intermediates/hardware/interfaces/sensors/aidl/android.hardware.sensors-V1-ndk-source/gen/include/aidl/android/hardware/sensors/Event.h"
  },
  {
   "alignment" : 4,
   "linker_set_key" : "_ZTIPN4aidl7android8hardware7sensors5Event12EventPayload8Pose6DofE",
   "name" : "aidl::android::hardware::sensors::Event::EventPayload::Pose6Dof *",
   "referenced_type" : "_ZTIN4aidl7android8hardware7sensors5Event12EventPayload8Pose6DofE",
   "self_type" : "_ZTIPN4aidl7android8hardware7sensors5Event12EventPayload8Pose6DofE",
   "size" : 4,
   "source_file" : "out/soong/.intermediates/hardware/interfaces/sensors/aidl/android.hardware.sensors-V1-ndk-source/gen/include/aidl/android/hardware/sensors/Event.h"
  },
  {
   "alignment" : 4,
   "linker_set_key" : "_ZTIPN4aidl7android8hardware7sensors5Event12EventPayload8_value_tE",
   "name" : "aidl::android::hardware::sensors::Event::EventPayload::_value_t *",
   "referenced_type" : "_ZTIN4aidl7android8hardware7sensors5Event12EventPayload8_value_tE",
   "self_type" : "_ZTIPN4aidl7android8hardware7sensors5Event12EventPayload8_value_tE",
   "size" : 4,
   "source_file" : "out/soong/.intermediates/hardware/interfaces/sensors/aidl/android.hardware.sensors-V1-ndk-source/gen/include/aidl/android/hardware/sensors/Event.h"
  },
  {
   "alignment" : 4,
   "linker_set_key" : "_ZTIPN4aidl7android8hardware7sensors5Event12EventPayload9HeartRateE",
   "name" : "aidl::android::hardware::sensors::Event::EventPayload::HeartRate *",
   "referenced_type" : "_ZTIN4aidl7android8hardware7sensors5Event12EventPayload9HeartRateE",
   "self_type" : "_ZTIPN4aidl7android8hardware7sensors5Event12EventPayload9HeartRateE",
   "size" : 4,
   "source_file" : "out/soong/.intermediates/hardware/interfaces/sensors/aidl/android.hardware.sensors-V1-ndk-source/gen/include/aidl/android/hardware/sensors/Event.h"
  },
  {
   "alignment" : 4,
   "linker_set_key" : "_ZTIPN4aidl7android8hardware7sensors5Event12EventPayloadE",
   "name" : "aidl::android::hardware::sensors::Event::EventPayload *",
   "referenced_type" : "_ZTIN4aidl7android8hardware7sensors5Event12EventPayloadE",
   "self_type" : "_ZTIPN4aidl7android8hardware7sensors5Event12EventPayloadE",
   "size" : 4,
   "source_file" : "out/soong/.intermediates/hardware/interfaces/sensors/aidl/android.hardware.sensors-V1-ndk-source/gen/include/aidl/android/hardware/sensors/Event.h"
  },
  {
   "alignment" : 4,
   "linker_set_key" : "_ZTIPN4aidl7android8hardware7sensors5EventE",
   "name" : "aidl::android::hardware::sensors::Event *",
   "referenced_type" : "_ZTIN4aidl7android8hardware7sensors5EventE",
   "self_type" : "_ZTIPN4aidl7android8hardware7sensors5EventE",
   "size" : 4,
   "source_file" : "out/soong/.intermediates/hardware/interfaces/sensors/aidl/android.hardware.sensors-V1-ndk-source/gen/include/aidl/android/hardware/sensors/Event.h"
  },
  {
   "alignment" : 4,
   "linker_set_key" : "_ZTIPN4aidl7android8hardware7sensors8ISensors13SharedMemInfoE",
   "name" : "aidl::android::hardware::sensors::ISensors::SharedMemInfo *",
   "referenced_type" : "_ZTIN4aidl7android8hardware7sensors8ISensors13SharedMemInfoE",
   "self_type" : "_ZTIPN4aidl7android8hardware7sensors8ISensors13SharedMemInfoE",
   "size" : 4,
   "source_file" : "out/soong/.intermediates/hardware/interfaces/sensors/aidl/android.hardware.sensors-V1-ndk-source/gen/include/aidl/android/hardware/sensors/ISensors.h"
  },
  {
   "alignment" : 4,
   "linker_set_key" : "_ZTIPN4aidl7android8hardware7sensors8ISensorsE",
   "name" : "aidl::android::hardware::sensors::ISensors *",
   "referenced_type" : "_ZTIN4aidl7android8hardware7sensors8ISensorsE",
   "self_type" : "_ZTIPN4aidl7android8hardware7sensors8ISensorsE",
   "size" : 4,
   "source_file" : "out/soong/.intermediates/hardware/interfaces/sensors/aidl/android.hardware.sensors-V1-ndk-source/gen/include/aidl/android/hardware/sensors/ISensors.h"
  },
  {
   "alignment" : 4,
   "linker_set_key" : "_ZTIPN4aidl7android8hardware7sensors9BnSensorsE",
   "name" : "aidl::android::hardware::sensors::BnSensors *",
   "referenced_type" : "_ZTIN4aidl7android8hardware7sensors9BnSensorsE",
   "self_type" : "_ZTIPN4aidl7android8hardware7sensors9BnSensorsE",
   "size" : 4,
   "source_file" : "out/soong/.intermediates/hardware/interfaces/sensors/aidl/android.hardware.sensors-V1-ndk-source/gen/include/aidl/android/hardware/sensors/BnSensors.h"
  },
  {
   "alignment" : 4,
   "linker_set_key" : "_ZTIPN4aidl7android8hardware7sensors9BpSensorsE",
   "name" : "aidl::android::hardware::sensors::BpSensors *",
   "referenced_type" : "_ZTIN4aidl7android8hardware7sensors9BpSensorsE",
   "self_type" : "_ZTIPN4aidl7android8hardware7sensors9BpSensorsE",
   "size" : 4,
   "source_file" : "out/soong/.intermediates/hardware/interfaces/sensors/aidl/android.hardware.sensors-V1-ndk-source/gen/include/aidl/android/hardware/sensors/BpSensors.h"
  },
  {
   "alignment" : 4,
   "linker_set_key" : "_ZTIPNSt3__110shared_ptrIN4aidl7android8hardware7sensors16ISensorsCallbackEEE",
   "name" : "std::shared_ptr<aidl::android::hardware::sensors::ISensorsCallback> *",
   "referenced_type" : "_ZTINSt3__110shared_ptrIN4aidl7android8hardware7sensors16ISensorsCallbackEEE",
   "self_type" : "_ZTIPNSt3__110shared_ptrIN4aidl7android8hardware7sensors16ISensorsCallbackEEE",
   "size" : 4,
   "source_file" : "out/soong/.intermediates/hardware/interfaces/sensors/aidl/android.hardware.sensors-V1-ndk-source/gen/include/aidl/android/hardware/sensors/ISensorsCallback.h"
  },
  {
   "alignment" : 4,
   "linker_set_key" : "_ZTIPNSt3__110shared_ptrIN4aidl7android8hardware7sensors8ISensorsEEE",
   "name" : "std::shared_ptr<aidl::android::hardware::sensors::ISensors> *",
   "referenced_type" : "_ZTINSt3__110shared_ptrIN4aidl7android8hardware7sensors8ISensorsEEE",
   "self_type" : "_ZTIPNSt3__110shared_ptrIN4aidl7android8hardware7sensors8ISensorsEEE",
   "size" : 4,
   "source_file" : "out/soong/.intermediates/hardware/interfaces/sensors/aidl/android.hardware.sensors-V1-ndk-source/gen/include/aidl/android/hardware/sensors/ISensors.h"
  },
  {
   "alignment" : 4,
   "linker_set_key" : "_ZTIPNSt3__112basic_stringIcNS_11char_traitsIcEENS_9allocatorIcEEEE",
   "name" : "std::basic_string<char, std::char_traits<char>, std::allocator<char>> *",
   "referenced_type" : "_ZTINSt3__112basic_stringIcNS_11char_traitsIcEENS_9allocatorIcEEEE",
   "self_type" : "_ZTIPNSt3__112basic_stringIcNS_11char_traitsIcEENS_9allocatorIcEEEE",
   "size" : 4,
   "source_file" : "out/soong/.intermediates/hardware/interfaces/sensors/aidl/android.hardware.sensors-V1-ndk-source/gen/include/aidl/android/hardware/sensors/ISensors.h"
  },
  {
   "alignment" : 4,
   "linker_set_key" : "_ZTIPNSt3__16vectorIDsNS_9allocatorIDsEEEE",
   "name" : "std::vector<char16_t, std::allocator<char16_t>> *",
   "referenced_type" : "_ZTINSt3__16vectorIDsNS_9allocatorIDsEEEE",
   "self_type" : "_ZTIPNSt3__16vectorIDsNS_9allocatorIDsEEEE",
   "size" : 4,
   "source_file" : "frameworks/native/libs/binder/ndk/include_cpp/android/binder_parcel_utils.h"
  },
  {
   "alignment" : 4,
   "linker_set_key" : "_ZTIPNSt3__16vectorIN4aidl7android8hardware7sensors10SensorInfoENS_9allocatorIS5_EEEE",
   "name" : "std::vector<aidl::android::hardware::sensors::SensorInfo, std::allocator<aidl::android::hardware::sensors::SensorInfo>> *",
   "referenced_type" : "_ZTINSt3__16vectorIN4aidl7android8hardware7sensors10SensorInfoENS_9allocatorIS5_EEEE",
   "self_type" : "_ZTIPNSt3__16vectorIN4aidl7android8hardware7sensors10SensorInfoENS_9allocatorIS5_EEEE",
   "size" : 4,
   "source_file" : "out/soong/.intermediates/hardware/interfaces/sensors/aidl/android.hardware.sensors-V1-ndk-source/gen/include/aidl/android/hardware/sensors/ISensors.h"
  },
  {
   "alignment" : 4,
   "linker_set_key" : "_ZTIPNSt3__16vectorIbNS_9allocatorIbEEEE",
   "name" : "std::vector<bool, std::allocator<bool>> *",
   "referenced_type" : "_ZTINSt3__16vectorIbNS_9allocatorIbEEEE",
   "self_type" : "_ZTIPNSt3__16vectorIbNS_9allocatorIbEEEE",
   "size" : 4,
   "source_file" : "frameworks/native/libs/binder/ndk/include_cpp/android/binder_parcel_utils.h"
  },
  {
   "alignment" : 4,
   "linker_set_key" : "_ZTIPNSt3__16vectorIdNS_9allocatorIdEEEE",
   "name" : "std::vector<double, std::allocator<double>> *",
   "referenced_type" : "_ZTINSt3__16vectorIdNS_9allocatorIdEEEE",
   "self_type" : "_ZTIPNSt3__16vectorIdNS_9allocatorIdEEEE",
   "size" : 4,
   "source_file" : "frameworks/native/libs/binder/ndk/include_cpp/android/binder_parcel_utils.h"
  },
  {
   "alignment" : 4,
   "linker_set_key" : "_ZTIPNSt3__16vectorIfNS_9allocatorIfEEEE",
   "name" : "std::vector<float, std::allocator<float>> *",
   "referenced_type" : "_ZTINSt3__16vectorIfNS_9allocatorIfEEEE",
   "self_type" : "_ZTIPNSt3__16vectorIfNS_9allocatorIfEEEE",
   "size" : 4,
   "source_file" : "frameworks/native/libs/binder/ndk/include_cpp/android/binder_parcel_utils.h"
  },
  {
   "alignment" : 4,
   "linker_set_key" : "_ZTIPNSt3__16vectorIhNS_9allocatorIhEEEE",
   "name" : "std::vector<unsigned char, std::allocator<unsigned char>> *",
   "referenced_type" : "_ZTINSt3__16vectorIhNS_9allocatorIhEEEE",
   "self_type" : "_ZTIPNSt3__16vectorIhNS_9allocatorIhEEEE",
   "size" : 4,
   "source_file" : "frameworks/native/libs/binder/ndk/include_cpp/android/binder_parcel_utils.h"
  },
  {
   "alignment" : 4,
   "linker_set_key" : "_ZTIPNSt3__16vectorIiNS_9allocatorIiEEEE",
   "name" : "std::vector<int, std::allocator<int>> *",
   "referenced_type" : "_ZTINSt3__16vectorIiNS_9allocatorIiEEEE",
   "self_type" : "_ZTIPNSt3__16vectorIiNS_9allocatorIiEEEE",
   "size" : 4,
   "source_file" : "frameworks/native/libs/binder/ndk/include_cpp/android/binder_parcel_utils.h"
  },
  {
   "alignment" : 4,
   "linker_set_key" : "_ZTIPNSt3__16vectorIjNS_9allocatorIjEEEE",
   "name" : "std::vector<unsigned int, std::allocator<unsigned int>> *",
   "referenced_type" : "_ZTINSt3__16vectorIjNS_9allocatorIjEEEE",
   "self_type" : "_ZTIPNSt3__16vectorIjNS_9allocatorIjEEEE",
   "size" : 4,
   "source_file" : "frameworks/native/libs/binder/ndk/include_cpp/android/binder_parcel_utils.h"
  },
  {
   "alignment" : 4,
   "linker_set_key" : "_ZTIPNSt3__16vectorIxNS_9allocatorIxEEEE",
   "name" : "std::vector<long long, std::allocator<long long>> *",
   "referenced_type" : "_ZTINSt3__16vectorIxNS_9allocatorIxEEEE",
   "self_type" : "_ZTIPNSt3__16vectorIxNS_9allocatorIxEEEE",
   "size" : 4,
   "source_file" : "frameworks/native/libs/binder/ndk/include_cpp/android/binder_parcel_utils.h"
  },
  {
   "alignment" : 4,
   "linker_set_key" : "_ZTIPNSt3__16vectorIyNS_9allocatorIyEEEE",
   "name" : "std::vector<unsigned long long, std::allocator<unsigned long long>> *",
   "referenced_type" : "_ZTINSt3__16vectorIyNS_9allocatorIyEEEE",
   "self_type" : "_ZTIPNSt3__16vectorIyNS_9allocatorIyEEEE",
   "size" : 4,
   "source_file" : "frameworks/native/libs/binder/ndk/include_cpp/android/binder_parcel_utils.h"
  },
  {
   "alignment" : 4,
   "linker_set_key" : "_ZTIPNSt3__18optionalINS_6vectorIDsNS_9allocatorIDsEEEEEE",
   "name" : "std::optional<std::vector<char16_t, std::allocator<char16_t>>> *",
   "referenced_type" : "_ZTINSt3__18optionalINS_6vectorIDsNS_9allocatorIDsEEEEEE",
   "self_type" : "_ZTIPNSt3__18optionalINS_6vectorIDsNS_9allocatorIDsEEEEEE",
   "size" : 4,
   "source_file" : "frameworks/native/libs/binder/ndk/include_cpp/android/binder_parcel_utils.h"
  },
  {
   "alignment" : 4,
   "linker_set_key" : "_ZTIPNSt3__18optionalINS_6vectorIbNS_9allocatorIbEEEEEE",
   "name" : "std::optional<std::vector<bool, std::allocator<bool>>> *",
   "referenced_type" : "_ZTINSt3__18optionalINS_6vectorIbNS_9allocatorIbEEEEEE",
   "self_type" : "_ZTIPNSt3__18optionalINS_6vectorIbNS_9allocatorIbEEEEEE",
   "size" : 4,
   "source_file" : "frameworks/native/libs/binder/ndk/include_cpp/android/binder_parcel_utils.h"
  },
  {
   "alignment" : 4,
   "linker_set_key" : "_ZTIPNSt3__18optionalINS_6vectorIdNS_9allocatorIdEEEEEE",
   "name" : "std::optional<std::vector<double, std::allocator<double>>> *",
   "referenced_type" : "_ZTINSt3__18optionalINS_6vectorIdNS_9allocatorIdEEEEEE",
   "self_type" : "_ZTIPNSt3__18optionalINS_6vectorIdNS_9allocatorIdEEEEEE",
   "size" : 4,
   "source_file" : "frameworks/native/libs/binder/ndk/include_cpp/android/binder_parcel_utils.h"
  },
  {
   "alignment" : 4,
   "linker_set_key" : "_ZTIPNSt3__18optionalINS_6vectorIfNS_9allocatorIfEEEEEE",
   "name" : "std::optional<std::vector<float, std::allocator<float>>> *",
   "referenced_type" : "_ZTINSt3__18optionalINS_6vectorIfNS_9allocatorIfEEEEEE",
   "self_type" : "_ZTIPNSt3__18optionalINS_6vectorIfNS_9allocatorIfEEEEEE",
   "size" : 4,
   "source_file" : "frameworks/native/libs/binder/ndk/include_cpp/android/binder_parcel_utils.h"
  },
  {
   "alignment" : 4,
   "linker_set_key" : "_ZTIPNSt3__18optionalINS_6vectorIhNS_9allocatorIhEEEEEE",
   "name" : "std::optional<std::vector<unsigned char, std::allocator<unsigned char>>> *",
   "referenced_type" : "_ZTINSt3__18optionalINS_6vectorIhNS_9allocatorIhEEEEEE",
   "self_type" : "_ZTIPNSt3__18optionalINS_6vectorIhNS_9allocatorIhEEEEEE",
   "size" : 4,
   "source_file" : "frameworks/native/libs/binder/ndk/include_cpp/android/binder_parcel_utils.h"
  },
  {
   "alignment" : 4,
   "linker_set_key" : "_ZTIPNSt3__18optionalINS_6vectorIiNS_9allocatorIiEEEEEE",
   "name" : "std::optional<std::vector<int, std::allocator<int>>> *",
   "referenced_type" : "_ZTINSt3__18optionalINS_6vectorIiNS_9allocatorIiEEEEEE",
   "self_type" : "_ZTIPNSt3__18optionalINS_6vectorIiNS_9allocatorIiEEEEEE",
   "size" : 4,
   "source_file" : "frameworks/native/libs/binder/ndk/include_cpp/android/binder_parcel_utils.h"
  },
  {
   "alignment" : 4,
   "linker_set_key" : "_ZTIPNSt3__18optionalINS_6vectorIjNS_9allocatorIjEEEEEE",
   "name" : "std::optional<std::vector<unsigned int, std::allocator<unsigned int>>> *",
   "referenced_type" : "_ZTINSt3__18optionalINS_6vectorIjNS_9allocatorIjEEEEEE",
   "self_type" : "_ZTIPNSt3__18optionalINS_6vectorIjNS_9allocatorIjEEEEEE",
   "size" : 4,
   "source_file" : "frameworks/native/libs/binder/ndk/include_cpp/android/binder_parcel_utils.h"
  },
  {
   "alignment" : 4,
   "linker_set_key" : "_ZTIPNSt3__18optionalINS_6vectorIxNS_9allocatorIxEEEEEE",
   "name" : "std::optional<std::vector<long long, std::allocator<long long>>> *",
   "referenced_type" : "_ZTINSt3__18optionalINS_6vectorIxNS_9allocatorIxEEEEEE",
   "self_type" : "_ZTIPNSt3__18optionalINS_6vectorIxNS_9allocatorIxEEEEEE",
   "size" : 4,
   "source_file" : "frameworks/native/libs/binder/ndk/include_cpp/android/binder_parcel_utils.h"
  },
  {
   "alignment" : 4,
   "linker_set_key" : "_ZTIPNSt3__18optionalINS_6vectorIyNS_9allocatorIyEEEEEE",
   "name" : "std::optional<std::vector<unsigned long long, std::allocator<unsigned long long>>> *",
   "referenced_type" : "_ZTINSt3__18optionalINS_6vectorIyNS_9allocatorIyEEEEEE",
   "self_type" : "_ZTIPNSt3__18optionalINS_6vectorIyNS_9allocatorIyEEEEEE",
   "size" : 4,
   "source_file" : "frameworks/native/libs/binder/ndk/include_cpp/android/binder_parcel_utils.h"
  },
  {
   "alignment" : 4,
   "linker_set_key" : "_ZTIPP7AParcel",
   "name" : "AParcel **",
   "referenced_type" : "_ZTIP7AParcel",
   "self_type" : "_ZTIPP7AParcel",
   "size" : 4,
   "source_file" : "frameworks/native/libs/binder/ndk/include_cpp/android/binder_auto_utils.h"
  },
  {
   "alignment" : 4,
   "linker_set_key" : "_ZTIPP7AStatus",
   "name" : "AStatus **",
   "referenced_type" : "_ZTIP7AStatus",
   "self_type" : "_ZTIPP7AStatus",
   "size" : 4,
   "source_file" : "frameworks/native/libs/binder/ndk/include_cpp/android/binder_auto_utils.h"
  },
  {
   "alignment" : 4,
   "linker_set_key" : "_ZTIPP8AIBinder",
   "name" : "AIBinder **",
   "referenced_type" : "_ZTIP8AIBinder",
   "self_type" : "_ZTIPP8AIBinder",
   "size" : 4,
   "source_file" : "frameworks/native/libs/binder/ndk/include_cpp/android/binder_auto_utils.h"
  },
  {
   "alignment" : 4,
   "linker_set_key" : "_ZTIPPKc",
   "name" : "const char **",
   "referenced_type" : "_ZTIPKc",
   "self_type" : "_ZTIPPKc",
   "size" : 4,
   "source_file" : "frameworks/native/libs/binder/ndk/include_cpp/android/binder_interface_utils.h"
  },
  {
   "alignment" : 4,
   "linker_set_key" : "_ZTIPi",
   "name" : "int *",
   "referenced_type" : "_ZTIi",
   "self_type" : "_ZTIPi",
   "size" : 4,
   "source_file" : "out/soong/.intermediates/hardware/interfaces/sensors/aidl/android.hardware.sensors-V1-ndk-source/gen/include/aidl/android/hardware/sensors/ISensors.h"
  },
  {
   "alignment" : 4,
   "linker_set_key" : "_ZTIPv",
   "name" : "void *",
   "referenced_type" : "_ZTIv",
   "self_type" : "_ZTIPv",
   "size" : 4,
   "source_file" : "frameworks/native/libs/binder/ndk/include_cpp/android/binder_interface_utils.h"
  }
 ],
 "qualified_types" :
 [
  {
   "is_const" : true,
   "linker_set_key" : "_ZTIK7AParcel",
   "name" : "const AParcel",
   "referenced_type" : "_ZTI7AParcel",
   "self_type" : "_ZTIK7AParcel",
   "source_file" : "frameworks/native/libs/binder/ndk/include_cpp/android/binder_interface_utils.h"
  },
  {
   "alignment" : 4,
   "is_const" : true,
   "linker_set_key" : "_ZTIKN3ndk10SpAIBinderE",
   "name" : "const ndk::SpAIBinder",
   "referenced_type" : "_ZTIN3ndk10SpAIBinderE",
   "self_type" : "_ZTIKN3ndk10SpAIBinderE",
   "size" : 4,
   "source_file" : "frameworks/native/libs/binder/ndk/include_cpp/android/binder_auto_utils.h"
  },
  {
   "alignment" : 4,
   "is_const" : true,
   "linker_set_key" : "_ZTIKN3ndk13ScopedAParcelE",
   "name" : "const ndk::ScopedAParcel",
   "referenced_type" : "_ZTIN3ndk13ScopedAParcelE",
   "self_type" : "_ZTIKN3ndk13ScopedAParcelE",
   "size" : 4,
   "source_file" : "frameworks/native/libs/binder/ndk/include_cpp/android/binder_auto_utils.h"
  },
  {
   "alignment" : 4,
   "is_const" : true,
   "linker_set_key" : "_ZTIKN3ndk13ScopedAStatusE",
   "name" : "const ndk::ScopedAStatus",
   "referenced_type" : "_ZTIN3ndk13ScopedAStatusE",
   "self_type" : "_ZTIKN3ndk13ScopedAStatusE",
   "size" : 4,
   "source_file" : "frameworks/native/libs/binder/ndk/include_cpp/android/binder_auto_utils.h"
  },
  {
   "alignment" : 4,
   "is_const" : true,
   "linker_set_key" : "_ZTIKN3ndk17AParcelableHolderE",
   "name" : "const ndk::AParcelableHolder",
   "referenced_type" : "_ZTIN3ndk17AParcelableHolderE",
   "self_type" : "_ZTIKN3ndk17AParcelableHolderE",
   "size" : 12,
   "source_file" : "frameworks/native/libs/binder/ndk/include_cpp/android/binder_parcelable_utils.h"
  },
  {
   "alignment" : 4,
   "is_const" : true,
   "linker_set_key" : "_ZTIKN3ndk20ScopedFileDescriptorE",
   "name" : "const ndk::ScopedFileDescriptor",
   "referenced_type" : "_ZTIN3ndk20ScopedFileDescriptorE",
   "self_type" : "_ZTIKN3ndk20ScopedFileDescriptorE",
   "size" : 4,
   "source_file" : "frameworks/native/libs/binder/ndk/include_cpp/android/binder_auto_utils.h"
  },
  {
   "alignment" : 4,
   "is_const" : true,
   "linker_set_key" : "_ZTIKN3ndk4impl15ScopedAResourceIP7AParcelXadL_Z14AParcel_deleteEELS3_0EEE",
   "name" : "const ndk::impl::ScopedAResource<AParcel *, &AParcel_delete, nullptr>",
   "referenced_type" : "_ZTIN3ndk4impl15ScopedAResourceIP7AParcelXadL_Z14AParcel_deleteEELS3_0EEE",
   "self_type" : "_ZTIKN3ndk4impl15ScopedAResourceIP7AParcelXadL_Z14AParcel_deleteEELS3_0EEE",
   "size" : 4,
   "source_file" : "frameworks/native/libs/binder/ndk/include_cpp/android/binder_auto_utils.h"
  },
  {
   "alignment" : 4,
   "is_const" : true,
   "linker_set_key" : "_ZTIKN3ndk4impl15ScopedAResourceIP7AStatusXadL_Z14AStatus_deleteEELS3_0EEE",
   "name" : "const ndk::impl::ScopedAResource<AStatus *, &AStatus_delete, nullptr>",
   "referenced_type" : "_ZTIN3ndk4impl15ScopedAResourceIP7AStatusXadL_Z14AStatus_deleteEELS3_0EEE",
   "self_type" : "_ZTIKN3ndk4impl15ScopedAResourceIP7AStatusXadL_Z14AStatus_deleteEELS3_0EEE",
   "size" : 4,
   "source_file" : "frameworks/native/libs/binder/ndk/include_cpp/android/binder_auto_utils.h"
  },
  {
   "alignment" : 4,
   "is_const" : true,
   "linker_set_key" : "_ZTIKN4aidl7android8hardware6common12NativeHandleE",
   "name" : "const aidl::android::hardware::common::NativeHandle",
   "referenced_type" : "_ZTIN4aidl7android8hardware6common12NativeHandleE",
   "self_type" : "_ZTIKN4aidl7android8hardware6common12NativeHandleE",
   "size" : 24,
   "source_file" : "frameworks/native/libs/binder/ndk/include_cpp/android/binder_to_string.h"
  },
  {
   "alignment" : 4,
   "is_const" : true,
   "linker_set_key" : "_ZTIKN4aidl7android8hardware6common3fmq12MQDescriptorINS1_7sensors5EventENS3_21SynchronizedReadWriteEEE",
   "name" : "const aidl::android::hardware::common::fmq::MQDescriptor<aidl::android::hardware::sensors::Event, aidl::android::hardware::common::fmq::SynchronizedReadWrite>",
   "referenced_type" : "_ZTIN4aidl7android8hardware6common3fmq12MQDescriptorINS1_7sensors5EventENS3_21SynchronizedReadWriteEEE",
   "self_type" : "_ZTIKN4aidl7android8hardware6common3fmq12MQDescriptorINS1_7sensors5EventENS3_21SynchronizedReadWriteEEE",
   "size" : 44,
   "source_file" : "out/soong/.intermediates/hardware/interfaces/common/fmq/aidl/android.hardware.common.fmq-V1-ndk-source/gen/include/aidl/android/hardware/common/fmq/MQDescriptor.h"
  },
  {
   "alignment" : 4,
   "is_const" : true,
   "linker_set_key" : "_ZTIKN4aidl7android8hardware6common3fmq12MQDescriptorIiNS3_21SynchronizedReadWriteEEE",
   "name" : "const aidl::android::hardware::common::fmq::MQDescriptor<int, aidl::android::hardware::common::fmq::SynchronizedReadWrite>",
   "referenced_type" : "_ZTIN4aidl7android8hardware6common3fmq12MQDescriptorIiNS3_21SynchronizedReadWriteEEE",
   "self_type" : "_ZTIKN4aidl7android8hardware6common3fmq12MQDescriptorIiNS3_21SynchronizedReadWriteEEE",
   "size" : 44,
   "source_file" : "out/soong/.intermediates/hardware/interfaces/common/fmq/aidl/android.hardware.common.fmq-V1-ndk-source/gen/include/aidl/android/hardware/common/fmq/MQDescriptor.h"
  },
  {
   "alignment" : 4,
   "is_const" : true,
   "linker_set_key" : "_ZTIKN4aidl7android8hardware6common3fmq17GrantorDescriptorE",
   "name" : "const aidl::android::hardware::common::fmq::GrantorDescriptor",
   "referenced_type" : "_ZTIN4aidl7android8hardware6common3fmq17GrantorDescriptorE",
   "self_type" : "_ZTIKN4aidl7android8hardware6common3fmq17GrantorDescriptorE",
   "size" : 16,
   "source_file" : "out/soong/.intermediates/hardware/interfaces/common/fmq/aidl/android.hardware.common.fmq-V1-ndk-source/gen/include/aidl/android/hardware/common/fmq/GrantorDescriptor.h"
  },
  {
   "alignment" : 4,
   "is_const" : true,
   "linker_set_key" : "_ZTIKN4aidl7android8hardware7sensors10SensorInfoE",
   "name" : "const aidl::android::hardware::sensors::SensorInfo",
   "referenced_type" : "_ZTIN4aidl7android8hardware7sensors10SensorInfoE",
   "self_type" : "_ZTIKN4aidl7android8hardware7sensors10SensorInfoE",
   "size" : 92,
   "source_file" : "out/soong/.intermediates/hardware/interfaces/sensors/aidl/android.hardware.sensors-V1-ndk-source/gen/include/aidl/android/hardware/sensors/SensorInfo.h"
  },
  {
   "alignment" : 4,
   "is_const" : true,
   "linker_set_key" : "_ZTIKN4aidl7android8hardware7sensors10SensorTypeE",
   "name" : "const aidl::android::hardware::sensors::SensorType",
   "referenced_type" : "_ZTIN4aidl7android8hardware7sensors10SensorTypeE",
   "self_type" : "_ZTIKN4aidl7android8hardware7sensors10SensorTypeE",
   "size" : 4,
   "source_file" : "frameworks/native/libs/binder/ndk/include_cpp/android/binder_to_string.h"
  },
  {
   "alignment" : 1,
   "is_const" : true,
   "linker_set_key" : "_ZTIKN4aidl7android8hardware7sensors12SensorStatusE",
   "name" : "const aidl::android::hardware::sensors::SensorStatus",
   "referenced_type" : "_ZTIN4aidl7android8hardware7sensors12SensorStatusE",
   "self_type" : "_ZTIKN4aidl7android8hardware7sensors12SensorStatusE",
   "size" : 1,
   "source_file" : "frameworks/native/libs/binder/ndk/include_cpp/android/binder_to_string.h"
  },
  {
   "alignment" : 4,
   "is_const" : true,
   "linker_set_key" : "_ZTIKN4aidl7android8hardware7sensors14AdditionalInfo18AdditionalInfoTypeE",
   "name" : "const aidl::android::hardware::sensors::AdditionalInfo::AdditionalInfoType",
   "referenced_type" : "_ZTIN4aidl7android8hardware7sensors14AdditionalInfo18AdditionalInfoTypeE",
   "self_type" : "_ZTIKN4aidl7android8hardware7sensors14AdditionalInfo18AdditionalInfoTypeE",
   "size" : 4,
   "source_file" : "frameworks/native/libs/binder/ndk/include_cpp/android/binder_to_string.h"
  },
  {
   "alignment" : 4,
   "is_const" : true,
   "linker_set_key" : "_ZTIKN4aidl7android8hardware7sensors14AdditionalInfo21AdditionalInfoPayload11FloatValuesE",
   "name" : "const aidl::android::hardware::sensors::AdditionalInfo::AdditionalInfoPayload::FloatValues",
   "referenced_type" : "_ZTIN4aidl7android8hardware7sensors14AdditionalInfo21AdditionalInfoPayload11FloatValuesE",
   "self_type" : "_ZTIKN4aidl7android8hardware7sensors14AdditionalInfo21AdditionalInfoPayload11FloatValuesE",
   "size" : 56,
   "source_file" : "frameworks/native/libs/binder/ndk/include_cpp/android/binder_to_string.h"
  },
  {
   "alignment" : 4,
   "is_const" : true,
   "linker_set_key" : "_ZTIKN4aidl7android8hardware7sensors14AdditionalInfo21AdditionalInfoPayload11Int32ValuesE",
   "name" : "const aidl::android::hardware::sensors::AdditionalInfo::AdditionalInfoPayload::Int32Values",
   "referenced_type" : "_ZTIN4aidl7android8hardware7sensors14AdditionalInfo21AdditionalInfoPayload11Int32ValuesE",
   "self_type" : "_ZTIKN4aidl7android8hardware7sensors14AdditionalInfo21AdditionalInfoPayload11Int32ValuesE",
   "size" : 56,
   "source_file" : "frameworks/native/libs/binder/ndk/include_cpp/android/binder_to_string.h"
  },
  {
   "alignment" : 1,
   "is_const" : true,
   "linker_set_key" : "_ZTIKN4aidl7android8hardware7sensors14AdditionalInfo21AdditionalInfoPayload3TagE",
   "name" : "const aidl::android::hardware::sensors::AdditionalInfo::AdditionalInfoPayload::Tag",
   "referenced_type" : "_ZTIN4aidl7android8hardware7sensors14AdditionalInfo21AdditionalInfoPayload3TagE",
   "self_type" : "_ZTIKN4aidl7android8hardware7sensors14AdditionalInfo21AdditionalInfoPayload3TagE",
   "size" : 1,
   "source_file" : "out/soong/.intermediates/hardware/interfaces/sensors/aidl/android.hardware.sensors-V1-ndk-source/gen/include/aidl/android/hardware/sensors/AdditionalInfo.h"
  },
  {
   "alignment" : 4,
   "is_const" : true,
   "linker_set_key" : "_ZTIKN4aidl7android8hardware7sensors14AdditionalInfo21AdditionalInfoPayloadE",
   "name" : "const aidl::android::hardware::sensors::AdditionalInfo::AdditionalInfoPayload",
   "referenced_type" : "_ZTIN4aidl7android8hardware7sensors14AdditionalInfo21AdditionalInfoPayloadE",
   "self_type" : "_ZTIKN4aidl7android8hardware7sensors14AdditionalInfo21AdditionalInfoPayloadE",
   "size" : 60,
   "source_file" : "frameworks/native/libs/binder/ndk/include_cpp/android/binder_to_string.h"
  },
  {
   "alignment" : 4,
   "is_const" : true,
   "linker_set_key" : "_ZTIKN4aidl7android8hardware7sensors14AdditionalInfoE",
   "name" : "const aidl::android::hardware::sensors::AdditionalInfo",
   "referenced_type" : "_ZTIN4aidl7android8hardware7sensors14AdditionalInfoE",
   "self_type" : "_ZTIKN4aidl7android8hardware7sensors14AdditionalInfoE",
   "size" : 68,
   "source_file" : "out/soong/.intermediates/hardware/interfaces/sensors/aidl/android.hardware.sensors-V1-ndk-source/gen/include/aidl/android/hardware/sensors/AdditionalInfo.h"
  },
  {
   "alignment" : 1,
   "is_const" : true,
   "linker_set_key" : "_ZTIKN4aidl7android8hardware7sensors17DynamicSensorInfo4UuidE",
   "name" : "const aidl::android::hardware::sensors::DynamicSensorInfo::Uuid",
   "referenced_type" : "_ZTIN4aidl7android8hardware7sensors17DynamicSensorInfo4UuidE",
   "self_type" : "_ZTIKN4aidl7android8hardware7sensors17DynamicSensorInfo4UuidE",
   "size" : 16,
   "source_file" : "frameworks/native/libs/binder/ndk/include_cpp/android/binder_to_string.h"
  },
  {
   "alignment" : 4,
   "is_const" : true,
   "linker_set_key" : "_ZTIKN4aidl7android8hardware7sensors17DynamicSensorInfoE",
   "name" : "const aidl::android::hardware::sensors::DynamicSensorInfo",
   "referenced_type" : "_ZTIN4aidl7android8hardware7sensors17DynamicSensorInfoE",
   "self_type" : "_ZTIKN4aidl7android8hardware7sensors17DynamicSensorInfoE",
   "size" : 24,
   "source_file" : "out/soong/.intermediates/hardware/interfaces/sensors/aidl/android.hardware.sensors-V1-ndk-source/gen/include/aidl/android/hardware/sensors/DynamicSensorInfo.h"
  },
  {
   "alignment" : 4,
   "is_const" : true,
   "linker_set_key" : "_ZTIKN4aidl7android8hardware7sensors5Event12EventPayload11HeadTrackerE",
   "name" : "const aidl::android::hardware::sensors::Event::EventPayload::HeadTracker",
   "referenced_type" : "_ZTIN4aidl7android8hardware7sensors5Event12EventPayload11HeadTrackerE",
   "self_type" : "_ZTIKN4aidl7android8hardware7sensors5Event12EventPayload11HeadTrackerE",
   "size" : 28,
   "source_file" : "frameworks/native/libs/binder/ndk/include_cpp/android/binder_to_string.h"
  },
  {
   "alignment" : 4,
   "is_const" : true,
   "linker_set_key" : "_ZTIKN4aidl7android8hardware7sensors5Event12EventPayload14LimitedAxesImuE",
   "name" : "const aidl::android::hardware::sensors::Event::EventPayload::LimitedAxesImu",
   "referenced_type" : "_ZTIN4aidl7android8hardware7sensors5Event12EventPayload14LimitedAxesImuE",
   "self_type" : "_ZTIKN4aidl7android8hardware7sensors5Event12EventPayload14LimitedAxesImuE",
   "size" : 24,
   "source_file" : "frameworks/native/libs/binder/ndk/include_cpp/android/binder_to_string.h"
  },
  {
   "alignment" : 4,
   "is_const" : true,
   "linker_set_key" : "_ZTIKN4aidl7android8hardware7sensors5Event12EventPayload19LimitedAxesImuUncalE",
   "name" : "const aidl::android::hardware::sensors::Event::EventPayload::LimitedAxesImuUncal",
   "referenced_type" : "_ZTIN4aidl7android8hardware7sensors5Event12EventPayload19LimitedAxesImuUncalE",
   "self_type" : "_ZTIKN4aidl7android8hardware7sensors5Event12EventPayload19LimitedAxesImuUncalE",
   "size" : 36,
   "source_file" : "frameworks/native/libs/binder/ndk/include_cpp/android/binder_to_string.h"
  },
  {
   "alignment" : 1,
   "is_const" : true,
   "linker_set_key" : "_ZTIKN4aidl7android8hardware7sensors5Event12EventPayload3TagE",
   "name" : "const aidl::android::hardware::sensors::Event::EventPayload::Tag",
   "referenced_type" : "_ZTIN4aidl7android8hardware7sensors5Event12EventPayload3TagE",
   "self_type" : "_ZTIKN4aidl7android8hardware7sensors5Event12EventPayload3TagE",
   "size" : 1,
   "source_file" : "out/soong/.intermediates/hardware/interfaces/sensors/aidl/android.hardware.sensors-V1-ndk-source/gen/include/aidl/android/hardware/sensors/Event.h"
  },
  {
   "alignment" : 4,
   "is_const" : true,
   "linker_set_key" : "_ZTIKN4aidl7android8hardware7sensors5Event12EventPayload4DataE",
   "name" : "const aidl::android::hardware::sensors::Event::EventPayload::Data",
   "referenced_type" : "_ZTIN4aidl7android8hardware7sensors5Event12EventPayload4DataE",
   "self_type" : "_ZTIKN4aidl7android8hardware7sensors5Event12EventPayload4DataE",
   "size" : 64,
   "source_file" : "frameworks/native/libs/binder/ndk/include_cpp/android/binder_to_string.h"
  },
  {
   "alignment" : 4,
   "is_const" : true,
   "linker_set_key" : "_ZTIKN4aidl7android8hardware7sensors5Event12EventPayload4Vec3E",
   "name" : "const aidl::android::hardware::sensors::Event::EventPayload::Vec3",
   "referenced_type" : "_ZTIN4aidl7android8hardware7sensors5Event12EventPayload4Vec3E",
   "self_type" : "_ZTIKN4aidl7android8hardware7sensors5Event12EventPayload4Vec3E",
   "size" : 16,
   "source_file" : "frameworks/native/libs/binder/ndk/include_cpp/android/binder_to_string.h"
  },
  {
   "alignment" : 4,
   "is_const" : true,
   "linker_set_key" : "_ZTIKN4aidl7android8hardware7sensors5Event12EventPayload4Vec4E",
   "name" : "const aidl::android::hardware::sensors::Event::EventPayload::Vec4",
   "referenced_type" : "_ZTIN4aidl7android8hardware7sensors5Event12EventPayload4Vec4E",
   "self_type" : "_ZTIKN4aidl7android8hardware7sensors5Event12EventPayload4Vec4E",
   "size" : 16,
   "source_file" : "frameworks/native/libs/binder/ndk/include_cpp/android/binder_to_string.h"
  },
  {
   "alignment" : 4,
   "is_const" : true,
   "linker_set_key" : "_ZTIKN4aidl7android8hardware7sensors5Event12EventPayload5UncalE",
   "name" : "const aidl::android::hardware::sensors::Event::EventPayload::Uncal",
   "referenced_type" : "_ZTIN4aidl7android8hardware7sensors5Event12EventPayload5UncalE",
   "self_type" : "_ZTIKN4aidl7android8hardware7sensors5Event12EventPayload5UncalE",
   "size" : 24,
   "source_file" : "frameworks/native/libs/binder/ndk/include_cpp/android/binder_to_string.h"
  },
  {
   "alignment" : 4,
   "is_const" : true,
   "linker_set_key" : "_ZTIKN4aidl7android8hardware7sensors5Event12EventPayload7HeadingE",
   "name" : "const aidl::android::hardware::sensors::Event::EventPayload::Heading",
   "referenced_type" : "_ZTIN4aidl7android8hardware7sensors5Event12EventPayload7HeadingE",
   "self_type" : "_ZTIKN4aidl7android8hardware7sensors5Event12EventPayload7HeadingE",
   "size" : 8,
   "source_file" : "frameworks/native/libs/binder/ndk/include_cpp/android/binder_to_string.h"
  },
  {
   "alignment" : 4,
   "is_const" : true,
   "linker_set_key" : "_ZTIKN4aidl7android8hardware7sensors5Event12EventPayload8MetaData17MetaDataEventTypeE",
   "name" : "const aidl::android::hardware::sensors::Event::EventPayload::MetaData::MetaDataEventType",
   "referenced_type" : "_ZTIN4aidl7android8hardware7sensors5Event12EventPayload8MetaData17MetaDataEventTypeE",
   "self_type" : "_ZTIKN4aidl7android8hardware7sensors5Event12EventPayload8MetaData17MetaDataEventTypeE",
   "size" : 4,
   "source_file" : "frameworks/native/libs/binder/ndk/include_cpp/android/binder_to_string.h"
  },
  {
   "alignment" : 4,
   "is_const" : true,
   "linker_set_key" : "_ZTIKN4aidl7android8hardware7sensors5Event12EventPayload8MetaDataE",
   "name" : "const aidl::android::hardware::sensors::Event::EventPayload::MetaData",
   "referenced_type" : "_ZTIN4aidl7android8hardware7sensors5Event12EventPayload8MetaDataE",
   "self_type" : "_ZTIKN4aidl7android8hardware7sensors5Event12EventPayload8MetaDataE",
   "size" : 4,
   "source_file" : "frameworks/native/libs/binder/ndk/include_cpp/android/binder_to_string.h"
  },
  {
   "alignment" : 4,
   "is_const" : true,
   "linker_set_key" : "_ZTIKN4aidl7android8hardware7sensors5Event12EventPayload8Pose6DofE",
   "name" : "const aidl::android::hardware::sensors::Event::EventPayload::Pose6Dof",
   "referenced_type" : "_ZTIN4aidl7android8hardware7sensors5Event12EventPayload8Pose6DofE",
   "self_type" : "_ZTIKN4aidl7android8hardware7sensors5Event12EventPayload8Pose6DofE",
   "size" : 60,
   "source_file" : "frameworks/native/libs/binder/ndk/include_cpp/android/binder_to_string.h"
  },
  {
   "alignment" : 4,
   "is_const" : true,
   "linker_set_key" : "_ZTIKN4aidl7android8hardware7sensors5Event12EventPayload9HeartRateE",
   "name" : "const aidl::android::hardware::sensors::Event::EventPayload::HeartRate",
   "referenced_type" : "_ZTIN4aidl7android8hardware7sensors5Event12EventPayload9HeartRateE",
   "self_type" : "_ZTIKN4aidl7android8hardware7sensors5Event12EventPayload9HeartRateE",
   "size" : 8,
   "source_file" : "frameworks/native/libs/binder/ndk/include_cpp/android/binder_to_string.h"
  },
  {
   "alignment" : 8,
   "is_const" : true,
   "linker_set_key" : "_ZTIKN4aidl7android8hardware7sensors5Event12EventPayloadE",
   "name" : "const aidl::android::hardware::sensors::Event::EventPayload",
   "referenced_type" : "_ZTIN4aidl7android8hardware7sensors5Event12EventPayloadE",
   "self_type" : "_ZTIKN4aidl7android8hardware7sensors5Event12EventPayloadE",
   "size" : 80,
   "source_file" : "frameworks/native/libs/binder/ndk/include_cpp/android/binder_to_string.h"
  },
  {
   "alignment" : 8,
   "is_const" : true,
   "linker_set_key" : "_ZTIKN4aidl7android8hardware7sensors5EventE",
   "name" : "const aidl::android::hardware::sensors::Event",
   "referenced_type" : "_ZTIN4aidl7android8hardware7sensors5EventE",
   "self_type" : "_ZTIKN4aidl7android8hardware7sensors5EventE",
   "size" : 96,
   "source_file" : "out/soong/.intermediates/hardware/interfaces/sensors/aidl/android.hardware.sensors-V1-ndk-source/gen/include/aidl/android/hardware/sensors/Event.h"
  },
  {
   "alignment" : 4,
   "is_const" : true,
   "linker_set_key" : "_ZTIKN4aidl7android8hardware7sensors8ISensors13SharedMemInfo13SharedMemTypeE",
   "name" : "const aidl::android::hardware::sensors::ISensors::SharedMemInfo::SharedMemType",
   "referenced_type" : "_ZTIN4aidl7android8hardware7sensors8ISensors13SharedMemInfo13SharedMemTypeE",
   "self_type" : "_ZTIKN4aidl7android8hardware7sensors8ISensors13SharedMemInfo13SharedMemTypeE",
   "size" : 4,
   "source_file" : "frameworks/native/libs/binder/ndk/include_cpp/android/binder_to_string.h"
  },
  {
   "alignment" : 4,
   "is_const" : true,
   "linker_set_key" : "_ZTIKN4aidl7android8hardware7sensors8ISensors13SharedMemInfo15SharedMemFormatE",
   "name" : "const aidl::android::hardware::sensors::ISensors::SharedMemInfo::SharedMemFormat",
   "referenced_type" : "_ZTIN4aidl7android8hardware7sensors8ISensors13SharedMemInfo15SharedMemFormatE",
   "self_type" : "_ZTIKN4aidl7android8hardware7sensors8ISensors13SharedMemInfo15SharedMemFormatE",
   "size" : 4,
   "source_file" : "frameworks/native/libs/binder/ndk/include_cpp/android/binder_to_string.h"
  },
  {
   "alignment" : 4,
   "is_const" : true,
   "linker_set_key" : "_ZTIKN4aidl7android8hardware7sensors8ISensors13SharedMemInfoE",
   "name" : "const aidl::android::hardware::sensors::ISensors::SharedMemInfo",
   "referenced_type" : "_ZTIN4aidl7android8hardware7sensors8ISensors13SharedMemInfoE",
   "self_type" : "_ZTIKN4aidl7android8hardware7sensors8ISensors13SharedMemInfoE",
   "size" : 36,
   "source_file" : "out/soong/.intermediates/hardware/interfaces/sensors/aidl/android.hardware.sensors-V1-ndk-source/gen/include/aidl/android/hardware/sensors/ISensors.h"
  },
  {
   "alignment" : 4,
   "is_const" : true,
   "linker_set_key" : "_ZTIKNSt3__110shared_ptrIN4aidl7android8hardware7sensors16ISensorsCallbackEEE",
   "name" : "const std::shared_ptr<aidl::android::hardware::sensors::ISensorsCallback>",
   "referenced_type" : "_ZTINSt3__110shared_ptrIN4aidl7android8hardware7sensors16ISensorsCallbackEEE",
   "self_type" : "_ZTIKNSt3__110shared_ptrIN4aidl7android8hardware7sensors16ISensorsCallbackEEE",
   "size" : 8,
   "source_file" : "out/soong/.intermediates/hardware/interfaces/sensors/aidl/android.hardware.sensors-V1-ndk-source/gen/include/aidl/android/hardware/sensors/ISensors.h"
  },
  {
   "alignment" : 4,
   "is_const" : true,
   "linker_set_key" : "_ZTIKNSt3__110shared_ptrIN4aidl7android8hardware7sensors8ISensorsEEE",
   "name" : "const std::shared_ptr<aidl::android::hardware::sensors::ISensors>",
   "referenced_type" : "_ZTINSt3__110shared_ptrIN4aidl7android8hardware7sensors8ISensorsEEE",
   "self_type" : "_ZTIKNSt3__110shared_ptrIN4aidl7android8hardware7sensors8ISensorsEEE",
   "size" : 8,
   "source_file" : "out/soong/.intermediates/hardware/interfaces/sensors/aidl/android.hardware.sensors-V1-ndk-source/gen/include/aidl/android/hardware/sensors/ISensors.h"
  },
  {
   "alignment" : 4,
   "is_const" : true,
   "linker_set_key" : "_ZTIKNSt3__112basic_stringIcNS_11char_traitsIcEENS_9allocatorIcEEEE",
   "name" : "const std::basic_string<char, std::char_traits<char>, std::allocator<char>>",
   "referenced_type" : "_ZTINSt3__112basic_stringIcNS_11char_traitsIcEENS_9allocatorIcEEEE",
   "self_type" : "_ZTIKNSt3__112basic_stringIcNS_11char_traitsIcEENS_9allocatorIcEEEE",
   "size" : 12,
   "source_file" : "frameworks/native/libs/binder/ndk/include_cpp/android/binder_to_string.h"
  },
  {
   "alignment" : 1,
   "is_const" : true,
   "linker_set_key" : "_ZTIKNSt3__15arrayIN4aidl7android8hardware6common3fmq21SynchronizedReadWriteELj1EEE",
   "name" : "const std::array<aidl::android::hardware::common::fmq::SynchronizedReadWrite, 1U>",
   "referenced_type" : "_ZTINSt3__15arrayIN4aidl7android8hardware6common3fmq21SynchronizedReadWriteELj1EEE",
   "self_type" : "_ZTIKNSt3__15arrayIN4aidl7android8hardware6common3fmq21SynchronizedReadWriteELj1EEE",
   "size" : 1,
   "source_file" : "out/soong/.intermediates/hardware/interfaces/common/fmq/aidl/android.hardware.common.fmq-V1-ndk-source/gen/include/aidl/android/hardware/common/fmq/SynchronizedReadWrite.h"
  },
  {
   "alignment" : 4,
   "is_const" : true,
   "linker_set_key" : "_ZTIKNSt3__15arrayIN4aidl7android8hardware7sensors10SensorTypeELj43EEE",
   "name" : "const std::array<aidl::android::hardware::sensors::SensorType, 43U>",
   "referenced_type" : "_ZTINSt3__15arrayIN4aidl7android8hardware7sensors10SensorTypeELj43EEE",
   "self_type" : "_ZTIKNSt3__15arrayIN4aidl7android8hardware7sensors10SensorTypeELj43EEE",
   "size" : 172,
   "source_file" : "out/soong/.intermediates/hardware/interfaces/sensors/aidl/android.hardware.sensors-V1-ndk-source/gen/include/aidl/android/hardware/sensors/SensorType.h"
  },
  {
   "alignment" : 1,
   "is_const" : true,
   "linker_set_key" : "_ZTIKNSt3__15arrayIN4aidl7android8hardware7sensors12SensorStatusELj5EEE",
   "name" : "const std::array<aidl::android::hardware::sensors::SensorStatus, 5U>",
   "referenced_type" : "_ZTINSt3__15arrayIN4aidl7android8hardware7sensors12SensorStatusELj5EEE",
   "self_type" : "_ZTIKNSt3__15arrayIN4aidl7android8hardware7sensors12SensorStatusELj5EEE",
   "size" : 5,
   "source_file" : "out/soong/.intermediates/hardware/interfaces/sensors/aidl/android.hardware.sensors-V1-ndk-source/gen/include/aidl/android/hardware/sensors/SensorStatus.h"
  },
  {
   "alignment" : 4,
   "is_const" : true,
   "linker_set_key" : "_ZTIKNSt3__15arrayIN4aidl7android8hardware7sensors14AdditionalInfo18AdditionalInfoTypeELj20EEE",
   "name" : "const std::array<aidl::android::hardware::sensors::AdditionalInfo::AdditionalInfoType, 20U>",
   "referenced_type" : "_ZTINSt3__15arrayIN4aidl7android8hardware7sensors14AdditionalInfo18AdditionalInfoTypeELj20EEE",
   "self_type" : "_ZTIKNSt3__15arrayIN4aidl7android8hardware7sensors14AdditionalInfo18AdditionalInfoTypeELj20EEE",
   "size" : 80,
   "source_file" : "out/soong/.intermediates/hardware/interfaces/sensors/aidl/android.hardware.sensors-V1-ndk-source/gen/include/aidl/android/hardware/sensors/AdditionalInfo.h"
  },
  {
   "alignment" : 1,
   "is_const" : true,
   "linker_set_key" : "_ZTIKNSt3__15arrayIN4aidl7android8hardware7sensors14AdditionalInfo21AdditionalInfoPayload3TagELj2EEE",
   "name" : "const std::array<aidl::android::hardware::sensors::AdditionalInfo::AdditionalInfoPayload::Tag, 2U>",
   "referenced_type" : "_ZTINSt3__15arrayIN4aidl7android8hardware7sensors14AdditionalInfo21AdditionalInfoPayload3TagELj2EEE",
   "self_type" : "_ZTIKNSt3__15arrayIN4aidl7android8hardware7sensors14AdditionalInfo21AdditionalInfoPayload3TagELj2EEE",
   "size" : 2,
   "source_file" : "out/soong/.intermediates/hardware/interfaces/sensors/aidl/android.hardware.sensors-V1-ndk-source/gen/include/aidl/android/hardware/sensors/AdditionalInfo.h"
  },
  {
   "alignment" : 1,
   "is_const" : true,
   "linker_set_key" : "_ZTIKNSt3__15arrayIN4aidl7android8hardware7sensors5Event12EventPayload3TagELj15EEE",
   "name" : "const std::array<aidl::android::hardware::sensors::Event::EventPayload::Tag, 15U>",
   "referenced_type" : "_ZTINSt3__15arrayIN4aidl7android8hardware7sensors5Event12EventPayload3TagELj15EEE",
   "self_type" : "_ZTIKNSt3__15arrayIN4aidl7android8hardware7sensors5Event12EventPayload3TagELj15EEE",
   "size" : 15,
   "source_file" : "out/soong/.intermediates/hardware/interfaces/sensors/aidl/android.hardware.sensors-V1-ndk-source/gen/include/aidl/android/hardware/sensors/Event.h"
  },
  {
   "alignment" : 4,
   "is_const" : true,
   "linker_set_key" : "_ZTIKNSt3__15arrayIN4aidl7android8hardware7sensors5Event12EventPayload8MetaData17MetaDataEventTypeELj1EEE",
   "name" : "const std::array<aidl::android::hardware::sensors::Event::EventPayload::MetaData::MetaDataEventType, 1U>",
   "referenced_type" : "_ZTINSt3__15arrayIN4aidl7android8hardware7sensors5Event12EventPayload8MetaData17MetaDataEventTypeELj1EEE",
   "self_type" : "_ZTIKNSt3__15arrayIN4aidl7android8hardware7sensors5Event12EventPayload8MetaData17MetaDataEventTypeELj1EEE",
   "size" : 4,
   "source_file" : "out/soong/.intermediates/hardware/interfaces/sensors/aidl/android.hardware.sensors-V1-ndk-source/gen/include/aidl/android/hardware/sensors/Event.h"
  },
  {
   "alignment" : 4,
   "is_const" : true,
   "linker_set_key" : "_ZTIKNSt3__15arrayIN4aidl7android8hardware7sensors8ISensors13OperationModeELj2EEE",
   "name" : "const std::array<aidl::android::hardware::sensors::ISensors::OperationMode, 2U>",
   "referenced_type" : "_ZTINSt3__15arrayIN4aidl7android8hardware7sensors8ISensors13OperationModeELj2EEE",
   "self_type" : "_ZTIKNSt3__15arrayIN4aidl7android8hardware7sensors8ISensors13OperationModeELj2EEE",
   "size" : 8,
   "source_file" : "out/soong/.intermediates/hardware/interfaces/sensors/aidl/android.hardware.sensors-V1-ndk-source/gen/include/aidl/android/hardware/sensors/ISensors.h"
  },
  {
   "alignment" : 4,
   "is_const" : true,
   "linker_set_key" : "_ZTIKNSt3__15arrayIN4aidl7android8hardware7sensors8ISensors13SharedMemInfo13SharedMemTypeELj2EEE",
   "name" : "const std::array<aidl::android::hardware::sensors::ISensors::SharedMemInfo::SharedMemType, 2U>",
   "referenced_type" : "_ZTINSt3__15arrayIN4aidl7android8hardware7sensors8ISensors13SharedMemInfo13SharedMemTypeELj2EEE",
   "self_type" : "_ZTIKNSt3__15arrayIN4aidl7android8hardware7sensors8ISensors13SharedMemInfo13SharedMemTypeELj2EEE",
   "size" : 8,
   "source_file" : "out/soong/.intermediates/hardware/interfaces/sensors/aidl/android.hardware.sensors-V1-ndk-source/gen/include/aidl/android/hardware/sensors/ISensors.h"
  },
  {
   "alignment" : 4,
   "is_const" : true,
   "linker_set_key" : "_ZTIKNSt3__15arrayIN4aidl7android8hardware7sensors8ISensors13SharedMemInfo15SharedMemFormatELj1EEE",
   "name" : "const std::array<aidl::android::hardware::sensors::ISensors::SharedMemInfo::SharedMemFormat, 1U>",
   "referenced_type" : "_ZTINSt3__15arrayIN4aidl7android8hardware7sensors8ISensors13SharedMemInfo15SharedMemFormatELj1EEE",
   "self_type" : "_ZTIKNSt3__15arrayIN4aidl7android8hardware7sensors8ISensors13SharedMemInfo15SharedMemFormatELj1EEE",
   "size" : 4,
   "source_file" : "out/soong/.intermediates/hardware/interfaces/sensors/aidl/android.hardware.sensors-V1-ndk-source/gen/include/aidl/android/hardware/sensors/ISensors.h"
  },
  {
   "alignment" : 4,
   "is_const" : true,
   "linker_set_key" : "_ZTIKNSt3__15arrayIN4aidl7android8hardware7sensors8ISensors9RateLevelELj4EEE",
   "name" : "const std::array<aidl::android::hardware::sensors::ISensors::RateLevel, 4U>",
   "referenced_type" : "_ZTINSt3__15arrayIN4aidl7android8hardware7sensors8ISensors9RateLevelELj4EEE",
   "self_type" : "_ZTIKNSt3__15arrayIN4aidl7android8hardware7sensors8ISensors9RateLevelELj4EEE",
   "size" : 16,
   "source_file" : "out/soong/.intermediates/hardware/interfaces/sensors/aidl/android.hardware.sensors-V1-ndk-source/gen/include/aidl/android/hardware/sensors/ISensors.h"
  },
  {
   "alignment" : 4,
   "is_const" : true,
   "linker_set_key" : "_ZTIKNSt3__15arrayIfLj14EEE",
   "name" : "const std::array<float, 14>",
   "referenced_type" : "_ZTINSt3__15arrayIfLj14EEE",
   "self_type" : "_ZTIKNSt3__15arrayIfLj14EEE",
   "size" : 56,
   "source_file" : "frameworks/native/libs/binder/ndk/include_cpp/android/binder_to_string.h"
  },
  {
   "alignment" : 4,
   "is_const" : true,
   "linker_set_key" : "_ZTIKNSt3__15arrayIfLj15EEE",
   "name" : "const std::array<float, 15>",
   "referenced_type" : "_ZTINSt3__15arrayIfLj15EEE",
   "self_type" : "_ZTIKNSt3__15arrayIfLj15EEE",
   "size" : 60,
   "source_file" : "frameworks/native/libs/binder/ndk/include_cpp/android/binder_to_string.h"
  },
  {
   "alignment" : 4,
   "is_const" : true,
   "linker_set_key" : "_ZTIKNSt3__15arrayIfLj16EEE",
   "name" : "const std::array<float, 16>",
   "referenced_type" : "_ZTINSt3__15arrayIfLj16EEE",
   "self_type" : "_ZTIKNSt3__15arrayIfLj16EEE",
   "size" : 64,
   "source_file" : "frameworks/native/libs/binder/ndk/include_cpp/android/binder_to_string.h"
  },
  {
   "alignment" : 1,
   "is_const" : true,
   "linker_set_key" : "_ZTIKNSt3__15arrayIhLj16EEE",
   "name" : "const std::array<unsigned char, 16>",
   "referenced_type" : "_ZTINSt3__15arrayIhLj16EEE",
   "self_type" : "_ZTIKNSt3__15arrayIhLj16EEE",
   "size" : 16,
   "source_file" : "frameworks/native/libs/binder/ndk/include_cpp/android/binder_to_string.h"
  },
  {
   "alignment" : 4,
   "is_const" : true,
   "linker_set_key" : "_ZTIKNSt3__15arrayIiLj14EEE",
   "name" : "const std::array<int, 14>",
   "referenced_type" : "_ZTINSt3__15arrayIiLj14EEE",
   "self_type" : "_ZTIKNSt3__15arrayIiLj14EEE",
   "size" : 56,
   "source_file" : "frameworks/native/libs/binder/ndk/include_cpp/android/binder_to_string.h"
  },
  {
   "alignment" : 4,
   "is_const" : true,
   "linker_set_key" : "_ZTIKNSt3__16vectorIDsNS_9allocatorIDsEEEE",
   "name" : "const std::vector<char16_t, std::allocator<char16_t>>",
   "referenced_type" : "_ZTINSt3__16vectorIDsNS_9allocatorIDsEEEE",
   "self_type" : "_ZTIKNSt3__16vectorIDsNS_9allocatorIDsEEEE",
   "size" : 12,
   "source_file" : "frameworks/native/libs/binder/ndk/include_cpp/android/binder_parcel_utils.h"
  },
  {
   "alignment" : 4,
   "is_const" : true,
   "linker_set_key" : "_ZTIKNSt3__16vectorIN3ndk20ScopedFileDescriptorENS_9allocatorIS2_EEEE",
   "name" : "const std::vector<ndk::ScopedFileDescriptor, std::allocator<ndk::ScopedFileDescriptor>>",
   "referenced_type" : "_ZTINSt3__16vectorIN3ndk20ScopedFileDescriptorENS_9allocatorIS2_EEEE",
   "self_type" : "_ZTIKNSt3__16vectorIN3ndk20ScopedFileDescriptorENS_9allocatorIS2_EEEE",
   "size" : 12,
   "source_file" : "frameworks/native/libs/binder/ndk/include_cpp/android/binder_to_string.h"
  },
  {
   "alignment" : 4,
   "is_const" : true,
   "linker_set_key" : "_ZTIKNSt3__16vectorIN4aidl7android8hardware7sensors10SensorInfoENS_9allocatorIS5_EEEE",
   "name" : "const std::vector<aidl::android::hardware::sensors::SensorInfo, std::allocator<aidl::android::hardware::sensors::SensorInfo>>",
   "referenced_type" : "_ZTINSt3__16vectorIN4aidl7android8hardware7sensors10SensorInfoENS_9allocatorIS5_EEEE",
   "self_type" : "_ZTIKNSt3__16vectorIN4aidl7android8hardware7sensors10SensorInfoENS_9allocatorIS5_EEEE",
   "size" : 12,
   "source_file" : "out/soong/.intermediates/hardware/interfaces/sensors/aidl/android.hardware.sensors-V1-ndk-source/gen/include/aidl/android/hardware/sensors/BnSensorsCallback.h"
  },
  {
   "alignment" : 4,
   "is_const" : true,
   "linker_set_key" : "_ZTIKNSt3__16vectorIbNS_9allocatorIbEEEE",
   "name" : "const std::vector<bool, std::allocator<bool>>",
   "referenced_type" : "_ZTINSt3__16vectorIbNS_9allocatorIbEEEE",
   "self_type" : "_ZTIKNSt3__16vectorIbNS_9allocatorIbEEEE",
   "size" : 12,
   "source_file" : "frameworks/native/libs/binder/ndk/include_cpp/android/binder_parcel_utils.h"
  },
  {
   "alignment" : 4,
   "is_const" : true,
   "linker_set_key" : "_ZTIKNSt3__16vectorIdNS_9allocatorIdEEEE",
   "name" : "const std::vector<double, std::allocator<double>>",
   "referenced_type" : "_ZTINSt3__16vectorIdNS_9allocatorIdEEEE",
   "self_type" : "_ZTIKNSt3__16vectorIdNS_9allocatorIdEEEE",
   "size" : 12,
   "source_file" : "frameworks/native/libs/binder/ndk/include_cpp/android/binder_parcel_utils.h"
  },
  {
   "alignment" : 4,
   "is_const" : true,
   "linker_set_key" : "_ZTIKNSt3__16vectorIfNS_9allocatorIfEEEE",
   "name" : "const std::vector<float, std::allocator<float>>",
   "referenced_type" : "_ZTINSt3__16vectorIfNS_9allocatorIfEEEE",
   "self_type" : "_ZTIKNSt3__16vectorIfNS_9allocatorIfEEEE",
   "size" : 12,
   "source_file" : "frameworks/native/libs/binder/ndk/include_cpp/android/binder_parcel_utils.h"
  },
  {
   "alignment" : 4,
   "is_const" : true,
   "linker_set_key" : "_ZTIKNSt3__16vectorIhNS_9allocatorIhEEEE",
   "name" : "const std::vector<unsigned char, std::allocator<unsigned char>>",
   "referenced_type" : "_ZTINSt3__16vectorIhNS_9allocatorIhEEEE",
   "self_type" : "_ZTIKNSt3__16vectorIhNS_9allocatorIhEEEE",
   "size" : 12,
   "source_file" : "frameworks/native/libs/binder/ndk/include_cpp/android/binder_parcel_utils.h"
  },
  {
   "alignment" : 4,
   "is_const" : true,
   "linker_set_key" : "_ZTIKNSt3__16vectorIiNS_9allocatorIiEEEE",
   "name" : "const std::vector<int, std::allocator<int>>",
   "referenced_type" : "_ZTINSt3__16vectorIiNS_9allocatorIiEEEE",
   "self_type" : "_ZTIKNSt3__16vectorIiNS_9allocatorIiEEEE",
   "size" : 12,
   "source_file" : "frameworks/native/libs/binder/ndk/include_cpp/android/binder_parcel_utils.h"
  },
  {
   "alignment" : 4,
   "is_const" : true,
   "linker_set_key" : "_ZTIKNSt3__16vectorIjNS_9allocatorIjEEEE",
   "name" : "const std::vector<unsigned int, std::allocator<unsigned int>>",
   "referenced_type" : "_ZTINSt3__16vectorIjNS_9allocatorIjEEEE",
   "self_type" : "_ZTIKNSt3__16vectorIjNS_9allocatorIjEEEE",
   "size" : 12,
   "source_file" : "frameworks/native/libs/binder/ndk/include_cpp/android/binder_parcel_utils.h"
  },
  {
   "alignment" : 4,
   "is_const" : true,
   "linker_set_key" : "_ZTIKNSt3__16vectorIxNS_9allocatorIxEEEE",
   "name" : "const std::vector<long long, std::allocator<long long>>",
   "referenced_type" : "_ZTINSt3__16vectorIxNS_9allocatorIxEEEE",
   "self_type" : "_ZTIKNSt3__16vectorIxNS_9allocatorIxEEEE",
   "size" : 12,
   "source_file" : "frameworks/native/libs/binder/ndk/include_cpp/android/binder_parcel_utils.h"
  },
  {
   "alignment" : 4,
   "is_const" : true,
   "linker_set_key" : "_ZTIKNSt3__16vectorIyNS_9allocatorIyEEEE",
   "name" : "const std::vector<unsigned long long, std::allocator<unsigned long long>>",
   "referenced_type" : "_ZTINSt3__16vectorIyNS_9allocatorIyEEEE",
   "self_type" : "_ZTIKNSt3__16vectorIyNS_9allocatorIyEEEE",
   "size" : 12,
   "source_file" : "frameworks/native/libs/binder/ndk/include_cpp/android/binder_parcel_utils.h"
  },
  {
   "alignment" : 4,
   "is_const" : true,
   "linker_set_key" : "_ZTIKNSt3__18optionalINS_6vectorIDsNS_9allocatorIDsEEEEEE",
   "name" : "const std::optional<std::vector<char16_t, std::allocator<char16_t>>>",
   "referenced_type" : "_ZTINSt3__18optionalINS_6vectorIDsNS_9allocatorIDsEEEEEE",
   "self_type" : "_ZTIKNSt3__18optionalINS_6vectorIDsNS_9allocatorIDsEEEEEE",
   "size" : 16,
   "source_file" : "frameworks/native/libs/binder/ndk/include_cpp/android/binder_parcel_utils.h"
  },
  {
   "alignment" : 4,
   "is_const" : true,
   "linker_set_key" : "_ZTIKNSt3__18optionalINS_6vectorIbNS_9allocatorIbEEEEEE",
   "name" : "const std::optional<std::vector<bool, std::allocator<bool>>>",
   "referenced_type" : "_ZTINSt3__18optionalINS_6vectorIbNS_9allocatorIbEEEEEE",
   "self_type" : "_ZTIKNSt3__18optionalINS_6vectorIbNS_9allocatorIbEEEEEE",
   "size" : 16,
   "source_file" : "frameworks/native/libs/binder/ndk/include_cpp/android/binder_parcel_utils.h"
  },
  {
   "alignment" : 4,
   "is_const" : true,
   "linker_set_key" : "_ZTIKNSt3__18optionalINS_6vectorIdNS_9allocatorIdEEEEEE",
   "name" : "const std::optional<std::vector<double, std::allocator<double>>>",
   "referenced_type" : "_ZTINSt3__18optionalINS_6vectorIdNS_9allocatorIdEEEEEE",
   "self_type" : "_ZTIKNSt3__18optionalINS_6vectorIdNS_9allocatorIdEEEEEE",
   "size" : 16,
   "source_file" : "frameworks/native/libs/binder/ndk/include_cpp/android/binder_parcel_utils.h"
  },
  {
   "alignment" : 4,
   "is_const" : true,
   "linker_set_key" : "_ZTIKNSt3__18optionalINS_6vectorIfNS_9allocatorIfEEEEEE",
   "name" : "const std::optional<std::vector<float, std::allocator<float>>>",
   "referenced_type" : "_ZTINSt3__18optionalINS_6vectorIfNS_9allocatorIfEEEEEE",
   "self_type" : "_ZTIKNSt3__18optionalINS_6vectorIfNS_9allocatorIfEEEEEE",
   "size" : 16,
   "source_file" : "frameworks/native/libs/binder/ndk/include_cpp/android/binder_parcel_utils.h"
  },
  {
   "alignment" : 4,
   "is_const" : true,
   "linker_set_key" : "_ZTIKNSt3__18optionalINS_6vectorIhNS_9allocatorIhEEEEEE",
   "name" : "const std::optional<std::vector<unsigned char, std::allocator<unsigned char>>>",
   "referenced_type" : "_ZTINSt3__18optionalINS_6vectorIhNS_9allocatorIhEEEEEE",
   "self_type" : "_ZTIKNSt3__18optionalINS_6vectorIhNS_9allocatorIhEEEEEE",
   "size" : 16,
   "source_file" : "frameworks/native/libs/binder/ndk/include_cpp/android/binder_parcel_utils.h"
  },
  {
   "alignment" : 4,
   "is_const" : true,
   "linker_set_key" : "_ZTIKNSt3__18optionalINS_6vectorIiNS_9allocatorIiEEEEEE",
   "name" : "const std::optional<std::vector<int, std::allocator<int>>>",
   "referenced_type" : "_ZTINSt3__18optionalINS_6vectorIiNS_9allocatorIiEEEEEE",
   "self_type" : "_ZTIKNSt3__18optionalINS_6vectorIiNS_9allocatorIiEEEEEE",
   "size" : 16,
   "source_file" : "frameworks/native/libs/binder/ndk/include_cpp/android/binder_parcel_utils.h"
  },
  {
   "alignment" : 4,
   "is_const" : true,
   "linker_set_key" : "_ZTIKNSt3__18optionalINS_6vectorIjNS_9allocatorIjEEEEEE",
   "name" : "const std::optional<std::vector<unsigned int, std::allocator<unsigned int>>>",
   "referenced_type" : "_ZTINSt3__18optionalINS_6vectorIjNS_9allocatorIjEEEEEE",
   "self_type" : "_ZTIKNSt3__18optionalINS_6vectorIjNS_9allocatorIjEEEEEE",
   "size" : 16,
   "source_file" : "frameworks/native/libs/binder/ndk/include_cpp/android/binder_parcel_utils.h"
  },
  {
   "alignment" : 4,
   "is_const" : true,
   "linker_set_key" : "_ZTIKNSt3__18optionalINS_6vectorIxNS_9allocatorIxEEEEEE",
   "name" : "const std::optional<std::vector<long long, std::allocator<long long>>>",
   "referenced_type" : "_ZTINSt3__18optionalINS_6vectorIxNS_9allocatorIxEEEEEE",
   "self_type" : "_ZTIKNSt3__18optionalINS_6vectorIxNS_9allocatorIxEEEEEE",
   "size" : 16,
   "source_file" : "frameworks/native/libs/binder/ndk/include_cpp/android/binder_parcel_utils.h"
  },
  {
   "alignment" : 4,
   "is_const" : true,
   "linker_set_key" : "_ZTIKNSt3__18optionalINS_6vectorIyNS_9allocatorIyEEEEEE",
   "name" : "const std::optional<std::vector<unsigned long long, std::allocator<unsigned long long>>>",
   "referenced_type" : "_ZTINSt3__18optionalINS_6vectorIyNS_9allocatorIyEEEEEE",
   "self_type" : "_ZTIKNSt3__18optionalINS_6vectorIyNS_9allocatorIyEEEEEE",
   "size" : 16,
   "source_file" : "frameworks/native/libs/binder/ndk/include_cpp/android/binder_parcel_utils.h"
  },
  {
   "alignment" : 4,
   "is_const" : true,
   "linker_set_key" : "_ZTIKP7AParcel",
   "name" : "AParcel *const",
   "referenced_type" : "_ZTIP7AParcel",
   "self_type" : "_ZTIKP7AParcel",
   "size" : 4,
   "source_file" : "frameworks/native/libs/binder/ndk/include_cpp/android/binder_auto_utils.h"
  },
  {
   "alignment" : 4,
   "is_const" : true,
   "linker_set_key" : "_ZTIKP7AStatus",
   "name" : "AStatus *const",
   "referenced_type" : "_ZTIP7AStatus",
   "self_type" : "_ZTIKP7AStatus",
   "size" : 4,
   "source_file" : "frameworks/native/libs/binder/ndk/include_cpp/android/binder_auto_utils.h"
  },
  {
   "alignment" : 1,
   "is_const" : true,
   "linker_set_key" : "_ZTIKb",
   "name" : "const bool",
   "referenced_type" : "_ZTIb",
   "self_type" : "_ZTIKb",
   "size" : 1,
   "source_file" : "frameworks/native/libs/binder/ndk/include_cpp/android/binder_parcel_utils.h"
  },
  {
   "alignment" : 1,
   "is_const" : true,
   "linker_set_key" : "_ZTIKc",
   "name" : "const char",
   "referenced_type" : "_ZTIc",
   "self_type" : "_ZTIKc",
   "size" : 1,
   "source_file" : "frameworks/native/libs/binder/ndk/include_cpp/android/binder_auto_utils.h"
  },
  {
   "alignment" : 4,
   "is_const" : true,
   "linker_set_key" : "_ZTIKf",
   "name" : "const float",
   "referenced_type" : "_ZTIf",
   "self_type" : "_ZTIKf",
   "size" : 4,
   "source_file" : "frameworks/native/libs/binder/ndk/include_cpp/android/binder_to_string.h"
  },
  {
   "alignment" : 1,
   "is_const" : true,
   "linker_set_key" : "_ZTIKh",
   "name" : "const unsigned char",
   "referenced_type" : "_ZTIh",
   "self_type" : "_ZTIKh",
   "size" : 1,
   "source_file" : "frameworks/native/libs/binder/ndk/include_cpp/android/binder_to_string.h"
  },
  {
   "alignment" : 4,
   "is_const" : true,
   "linker_set_key" : "_ZTIKi",
   "name" : "const int",
   "referenced_type" : "_ZTIi",
   "self_type" : "_ZTIKi",
   "size" : 4,
   "source_file" : "frameworks/native/libs/binder/ndk/include_cpp/android/binder_to_string.h"
  },
  {
   "alignment" : 4,
   "is_const" : true,
   "linker_set_key" : "_ZTIKj",
   "name" : "const unsigned int",
   "referenced_type" : "_ZTIj",
   "self_type" : "_ZTIKj",
   "size" : 4,
   "source_file" : "out/soong/.intermediates/hardware/interfaces/sensors/aidl/android.hardware.sensors-V1-ndk-source/gen/include/aidl/android/hardware/sensors/ISensorsCallback.h"
  },
  {
   "is_const" : true,
   "linker_set_key" : "_ZTIKv",
   "name" : "const void",
   "referenced_type" : "_ZTIv",
   "self_type" : "_ZTIKv",
   "source_file" : "frameworks/native/libs/binder/ndk/include_cpp/android/binder_parcel_utils.h"
  },
  {
   "alignment" : 4,
   "is_const" : true,
   "linker_set_key" : "_ZTIKx",
   "name" : "const long long",
   "referenced_type" : "_ZTIx",
   "self_type" : "_ZTIKx",
   "size" : 8,
   "source_file" : "frameworks/native/libs/binder/ndk/include_cpp/android/binder_to_string.h"
  }
 ],
 "record_types" :
 [
  {
   "alignment" : 4,
   "fields" :
   [
    {
     "access" : "private",
     "field_name" : "mBinder",
     "referenced_type" : "_ZTIP8AIBinder"
    }
   ],
   "linker_set_key" : "_ZTIN3ndk10SpAIBinderE",
   "name" : "ndk::SpAIBinder",
   "record_kind" : "class",
   "referenced_type" : "_ZTIN3ndk10SpAIBinderE",
   "self_type" : "_ZTIN3ndk10SpAIBinderE",
   "size" : 4,
   "source_file" : "frameworks/native/libs/binder/ndk/include_cpp/android/binder_auto_utils.h"
  },
  {
   "access" : "private",
   "alignment" : 4,
   "fields" :
   [
    {
     "field_name" : "interface",
     "referenced_type" : "_ZTINSt3__110shared_ptrIN3ndk11ICInterfaceEEE"
    }
   ],
   "linker_set_key" : "_ZTIN3ndk11ICInterface15ICInterfaceDataE",
   "name" : "ndk::ICInterface::ICInterfaceData",
   "record_kind" : "class",
   "referenced_type" : "_ZTIN3ndk11ICInterface15ICInterfaceDataE",
   "self_type" : "_ZTIN3ndk11ICInterface15ICInterfaceDataE",
   "size" : 8,
   "source_file" : "frameworks/native/libs/binder/ndk/include_cpp/android/binder_interface_utils.h"
  },
  {
   "alignment" : 4,
   "base_specifiers" :
   [
    {
     "referenced_type" : "_ZTIN3ndk13SharedRefBaseE"
    }
   ],
   "linker_set_key" : "_ZTIN3ndk11ICInterfaceE",
   "name" : "ndk::ICInterface",
   "record_kind" : "class",
   "referenced_type" : "_ZTIN3ndk11ICInterfaceE",
   "self_type" : "_ZTIN3ndk11ICInterfaceE",
   "size" : 16,
   "source_file" : "frameworks/native/libs/binder/ndk/include_cpp/android/binder_interface_utils.h",
   "vtable_components" :
   [
    {
     "kind" : "offset_to_top"
    },
    {
     "kind" : "rtti",
     "mangled_component_name" : "_ZTIN3ndk11ICInterfaceE"
    },
    {
     "kind" : "complete_dtor_pointer",
     "mangled_component_name" : "_ZN3ndk11ICInterfaceD1Ev"
    },
    {
     "kind" : "deleting_dtor_pointer",
     "mangled_component_name" : "_ZN3ndk11ICInterfaceD0Ev"
    },
    {
     "is_pure" : true,
     "mangled_component_name" : "_ZN3ndk11ICInterface8asBinderEv"
    },
    {
     "is_pure" : true,
     "mangled_component_name" : "_ZN3ndk11ICInterface8isRemoteEv"
    },
    {
     "mangled_component_name" : "_ZN3ndk11ICInterface4dumpEiPPKcj"
    },
    {
     "mangled_component_name" : "_ZN3ndk11ICInterface18handleShellCommandEiiiPPKcj"
    }
   ]
  },
  {
   "alignment" : 4,
   "base_specifiers" :
   [
    {
     "referenced_type" : "_ZTIN4aidl7android8hardware7sensors16ISensorsCallbackE"
    }
   ],
   "fields" :
   [
    {
     "access" : "private",
     "field_name" : "mMutex",
     "field_offset" : 128,
     "referenced_type" : "_ZTINSt3__15mutexE"
    },
    {
     "access" : "private",
     "field_name" : "mWeakBinder",
     "field_offset" : 160,
     "referenced_type" : "_ZTIN3ndk19ScopedAIBinder_WeakE"
    }
   ],
   "linker_set_key" : "_ZTIN3ndk12BnCInterfaceIN4aidl7android8hardware7sensors16ISensorsCallbackEEE",
   "name" : "ndk::BnCInterface<aidl::android::hardware::sensors::ISensorsCallback>",
   "record_kind" : "class",
   "referenced_type" : "_ZTIN3ndk12BnCInterfaceIN4aidl7android8hardware7sensors16ISensorsCallbackEEE",
   "self_type" : "_ZTIN3ndk12BnCInterfaceIN4aidl7android8hardware7sensors16ISensorsCallbackEEE",
   "size" : 24,
   "source_file" : "frameworks/native/libs/binder/ndk/include_cpp/android/binder_interface_utils.h",
   "template_args" :
   [
    "_ZTIN4aidl7android8hardware7sensors16ISensorsCallbackE"
   ],
   "vtable_components" :
   [
    {
     "kind" : "offset_to_top"
    },
    {
     "kind" : "rtti",
     "mangled_component_name" : "_ZTIN3ndk12BnCInterfaceIN4aidl7android8hardware7sensors16ISensorsCallbackEEE"
    },
    {
     "kind" : "complete_dtor_pointer",
     "mangled_component_name" : "_ZN3ndk12BnCInterfaceIN4aidl7android8hardware7sensors16ISensorsCallbackEED1Ev"
    },
    {
     "kind" : "deleting_dtor_pointer",
     "mangled_component_name" : "_ZN3ndk12BnCInterfaceIN4aidl7android8hardware7sensors16ISensorsCallbackEED0Ev"
    },
    {
     "mangled_component_name" : "_ZN3ndk12BnCInterfaceIN4aidl7android8hardware7sensors16ISensorsCallbackEE8asBinderEv"
    },
    {
     "mangled_component_name" : "_ZN3ndk12BnCInterfaceIN4aidl7android8hardware7sensors16ISensorsCallbackEE8isRemoteEv"
    },
    {
     "mangled_component_name" : "_ZN3ndk11ICInterface4dumpEiPPKcj"
    },
    {
     "mangled_component_name" : "_ZN3ndk11ICInterface18handleShellCommandEiiiPPKcj"
    },
    {
     "is_pure" : true,
     "mangled_component_name" : "_ZN4aidl7android8hardware7sensors16ISensorsCallback25onDynamicSensorsConnectedERKNSt3__16vectorINS2_10SensorInfoENS4_9allocatorIS6_EEEE"
    },
    {
     "is_pure" : true,
     "mangled_component_name" : "_ZN4aidl7android8hardware7sensors16ISensorsCallback28onDynamicSensorsDisconnectedERKNSt3__16vectorIiNS4_9allocatorIiEEEE"
    },
    {
     "is_pure" : true,
     "mangled_component_name" : "_ZN4aidl7android8hardware7sensors16ISensorsCallback19getInterfaceVersionEPi"
    },
    {
     "is_pure" : true,
     "mangled_component_name" : "_ZN4aidl7android8hardware7sensors16ISensorsCallback16getInterfaceHashEPNSt3__112basic_stringIcNS4_11char_traitsIcEENS4_9allocatorIcEEEE"
    },
    {
     "is_pure" : true,
     "mangled_component_name" : "_ZN3ndk12BnCInterfaceIN4aidl7android8hardware7sensors16ISensorsCallbackEE12createBinderEv"
    }
   ]
  },
  {
   "alignment" : 4,
   "base_specifiers" :
   [
    {
     "referenced_type" : "_ZTIN4aidl7android8hardware7sensors8ISensorsE"
    }
   ],
   "fields" :
   [
    {
     "access" : "private",
     "field_name" : "mMutex",
     "field_offset" : 128,
     "referenced_type" : "_ZTINSt3__15mutexE"
    },
    {
     "access" : "private",
     "field_name" : "mWeakBinder",
     "field_offset" : 160,
     "referenced_type" : "_ZTIN3ndk19ScopedAIBinder_WeakE"
    }
   ],
   "linker_set_key" : "_ZTIN3ndk12BnCInterfaceIN4aidl7android8hardware7sensors8ISensorsEEE",
   "name" : "ndk::BnCInterface<aidl::android::hardware::sensors::ISensors>",
   "record_kind" : "class",
   "referenced_type" : "_ZTIN3ndk12BnCInterfaceIN4aidl7android8hardware7sensors8ISensorsEEE",
   "self_type" : "_ZTIN3ndk12BnCInterfaceIN4aidl7android8hardware7sensors8ISensorsEEE",
   "size" : 24,
   "source_file" : "frameworks/native/libs/binder/ndk/include_cpp/android/binder_interface_utils.h",
   "template_args" :
   [
    "_ZTIN4aidl7android8hardware7sensors8ISensorsE"
   ],
   "vtable_components" :
   [
    {
     "kind" : "offset_to_top"
    },
    {
     "kind" : "rtti",
     "mangled_component_name" : "_ZTIN3ndk12BnCInterfaceIN4aidl7android8hardware7sensors8ISensorsEEE"
    },
    {
     "kind" : "complete_dtor_pointer",
     "mangled_component_name" : "_ZN3ndk12BnCInterfaceIN4aidl7android8hardware7sensors8ISensorsEED1Ev"
    },
    {
     "kind" : "deleting_dtor_pointer",
     "mangled_component_name" : "_ZN3ndk12BnCInterfaceIN4aidl7android8hardware7sensors8ISensorsEED0Ev"
    },
    {
     "mangled_component_name" : "_ZN3ndk12BnCInterfaceIN4aidl7android8hardware7sensors8ISensorsEE8asBinderEv"
    },
    {
     "mangled_component_name" : "_ZN3ndk12BnCInterfaceIN4aidl7android8hardware7sensors8ISensorsEE8isRemoteEv"
    },
    {
     "mangled_component_name" : "_ZN3ndk11ICInterface4dumpEiPPKcj"
    },
    {
     "mangled_component_name" : "_ZN3ndk11ICInterface18handleShellCommandEiiiPPKcj"
    },
    {
     "is_pure" : true,
     "mangled_component_name" : "_ZN4aidl7android8hardware7sensors8ISensors8activateEib"
    },
    {
     "is_pure" : true,
     "mangled_component_name" : "_ZN4aidl7android8hardware7sensors8ISensors5batchEixx"
    },
    {
     "is_pure" : true,
     "mangled_component_name" : "_ZN4aidl7android8hardware7sensors8ISensors18configDirectReportEiiNS3_9RateLevelEPi"
    },
    {
     "is_pure" : true,
     "mangled_component_name" : "_ZN4aidl7android8hardware7sensors8ISensors5flushEi"
    },
    {
     "is_pure" : true,
     "mangled_component_name" : "_ZN4aidl7android8hardware7sensors8ISensors14getSensorsListEPNSt3__16vectorINS2_10SensorInfoENS4_9allocatorIS6_EEEE"
    },
    {
     "is_pure" : true,
     "mangled_component_name" : "_ZN4aidl7android8hardware7sensors8ISensors10initializeERKNS1_6common3fmq12MQDescriptorINS2_5EventENS5_21SynchronizedReadWriteEEERKNS6_IiS8_EERKNSt3__110shared_ptrINS2_16ISensorsCallbackEEE"
    },
    {
     "is_pure" : true,
     "mangled_component_name" : "_ZN4aidl7android8hardware7sensors8ISensors16injectSensorDataERKNS2_5EventE"
    },
    {
     "is_pure" : true,
     "mangled_component_name" : "_ZN4aidl7android8hardware7sensors8ISensors21registerDirectChannelERKNS3_13SharedMemInfoEPi"
    },
    {
     "is_pure" : true,
     "mangled_component_name" : "_ZN4aidl7android8hardware7sensors8ISensors16setOperationModeENS3_13OperationModeE"
    },
    {
     "is_pure" : true,
     "mangled_component_name" : "_ZN4aidl7android8hardware7sensors8ISensors23unregisterDirectChannelEi"
    },
    {
     "is_pure" : true,
     "mangled_component_name" : "_ZN4aidl7android8hardware7sensors8ISensors19getInterfaceVersionEPi"
    },
    {
     "is_pure" : true,
     "mangled_component_name" : "_ZN4aidl7android8hardware7sensors8ISensors16getInterfaceHashEPNSt3__112basic_stringIcNS4_11char_traitsIcEENS4_9allocatorIcEEEE"
    },
    {
     "is_pure" : true,
     "mangled_component_name" : "_ZN3ndk12BnCInterfaceIN4aidl7android8hardware7sensors8ISensorsEE12createBinderEv"
    }
   ]
  },
  {
   "alignment" : 4,
   "base_specifiers" :
   [
    {
     "referenced_type" : "_ZTIN4aidl7android8hardware7sensors16ISensorsCallbackE"
    }
   ],
   "fields" :
   [
    {
     "access" : "private",
     "field_name" : "mBinder",
     "field_offset" : 128,
     "referenced_type" : "_ZTIN3ndk10SpAIBinderE"
    }
   ],
   "linker_set_key" : "_ZTIN3ndk12BpCInterfaceIN4aidl7android8hardware7sensors16ISensorsCallbackEEE",
   "name" : "ndk::BpCInterface<aidl::android::hardware::sensors::ISensorsCallback>",
   "record_kind" : "class",
   "referenced_type" : "_ZTIN3ndk12BpCInterfaceIN4aidl7android8hardware7sensors16ISensorsCallbackEEE",
   "self_type" : "_ZTIN3ndk12BpCInterfaceIN4aidl7android8hardware7sensors16ISensorsCallbackEEE",
   "size" : 20,
   "source_file" : "frameworks/native/libs/binder/ndk/include_cpp/android/binder_interface_utils.h",
   "template_args" :
   [
    "_ZTIN4aidl7android8hardware7sensors16ISensorsCallbackE"
   ],
   "vtable_components" :
   [
    {
     "kind" : "offset_to_top"
    },
    {
     "kind" : "rtti",
     "mangled_component_name" : "_ZTIN3ndk12BpCInterfaceIN4aidl7android8hardware7sensors16ISensorsCallbackEEE"
    },
    {
     "kind" : "complete_dtor_pointer",
     "mangled_component_name" : "_ZN3ndk12BpCInterfaceIN4aidl7android8hardware7sensors16ISensorsCallbackEED1Ev"
    },
    {
     "kind" : "deleting_dtor_pointer",
     "mangled_component_name" : "_ZN3ndk12BpCInterfaceIN4aidl7android8hardware7sensors16ISensorsCallbackEED0Ev"
    },
    {
     "mangled_component_name" : "_ZN3ndk12BpCInterfaceIN4aidl7android8hardware7sensors16ISensorsCallbackEE8asBinderEv"
    },
    {
     "mangled_component_name" : "_ZN3ndk12BpCInterfaceIN4aidl7android8hardware7sensors16ISensorsCallbackEE8isRemoteEv"
    },
    {
     "mangled_component_name" : "_ZN3ndk12BpCInterfaceIN4aidl7android8hardware7sensors16ISensorsCallbackEE4dumpEiPPKcj"
    },
    {
     "mangled_component_name" : "_ZN3ndk11ICInterface18handleShellCommandEiiiPPKcj"
    },
    {
     "is_pure" : true,
     "mangled_component_name" : "_ZN4aidl7android8hardware7sensors16ISensorsCallback25onDynamicSensorsConnectedERKNSt3__16vectorINS2_10SensorInfoENS4_9allocatorIS6_EEEE"
    },
    {
     "is_pure" : true,
     "mangled_component_name" : "_ZN4aidl7android8hardware7sensors16ISensorsCallback28onDynamicSensorsDisconnectedERKNSt3__16vectorIiNS4_9allocatorIiEEEE"
    },
    {
     "is_pure" : true,
     "mangled_component_name" : "_ZN4aidl7android8hardware7sensors16ISensorsCallback19getInterfaceVersionEPi"
    },
    {
     "is_pure" : true,
     "mangled_component_name" : "_ZN4aidl7android8hardware7sensors16ISensorsCallback16getInterfaceHashEPNSt3__112basic_stringIcNS4_11char_traitsIcEENS4_9allocatorIcEEEE"
    }
   ]
  },
  {
   "alignment" : 4,
   "base_specifiers" :
   [
    {
     "referenced_type" : "_ZTIN4aidl7android8hardware7sensors8ISensorsE"
    }
   ],
   "fields" :
   [
    {
     "access" : "private",
     "field_name" : "mBinder",
     "field_offset" : 128,
     "referenced_type" : "_ZTIN3ndk10SpAIBinderE"
    }
   ],
   "linker_set_key" : "_ZTIN3ndk12BpCInterfaceIN4aidl7android8hardware7sensors8ISensorsEEE",
   "name" : "ndk::BpCInterface<aidl::android::hardware::sensors::ISensors>",
   "record_kind" : "class",
   "referenced_type" : "_ZTIN3ndk12BpCInterfaceIN4aidl7android8hardware7sensors8ISensorsEEE",
   "self_type" : "_ZTIN3ndk12BpCInterfaceIN4aidl7android8hardware7sensors8ISensorsEEE",
   "size" : 20,
   "source_file" : "frameworks/native/libs/binder/ndk/include_cpp/android/binder_interface_utils.h",
   "template_args" :
   [
    "_ZTIN4aidl7android8hardware7sensors8ISensorsE"
   ],
   "vtable_components" :
   [
    {
     "kind" : "offset_to_top"
    },
    {
     "kind" : "rtti",
     "mangled_component_name" : "_ZTIN3ndk12BpCInterfaceIN4aidl7android8hardware7sensors8ISensorsEEE"
    },
    {
     "kind" : "complete_dtor_pointer",
     "mangled_component_name" : "_ZN3ndk12BpCInterfaceIN4aidl7android8hardware7sensors8ISensorsEED1Ev"
    },
    {
     "kind" : "deleting_dtor_pointer",
     "mangled_component_name" : "_ZN3ndk12BpCInterfaceIN4aidl7android8hardware7sensors8ISensorsEED0Ev"
    },
    {
     "mangled_component_name" : "_ZN3ndk12BpCInterfaceIN4aidl7android8hardware7sensors8ISensorsEE8asBinderEv"
    },
    {
     "mangled_component_name" : "_ZN3ndk12BpCInterfaceIN4aidl7android8hardware7sensors8ISensorsEE8isRemoteEv"
    },
    {
     "mangled_component_name" : "_ZN3ndk12BpCInterfaceIN4aidl7android8hardware7sensors8ISensorsEE4dumpEiPPKcj"
    },
    {
     "mangled_component_name" : "_ZN3ndk11ICInterface18handleShellCommandEiiiPPKcj"
    },
    {
     "is_pure" : true,
     "mangled_component_name" : "_ZN4aidl7android8hardware7sensors8ISensors8activateEib"
    },
    {
     "is_pure" : true,
     "mangled_component_name" : "_ZN4aidl7android8hardware7sensors8ISensors5batchEixx"
    },
    {
     "is_pure" : true,
     "mangled_component_name" : "_ZN4aidl7android8hardware7sensors8ISensors18configDirectReportEiiNS3_9RateLevelEPi"
    },
    {
     "is_pure" : true,
     "mangled_component_name" : "_ZN4aidl7android8hardware7sensors8ISensors5flushEi"
    },
    {
     "is_pure" : true,
     "mangled_component_name" : "_ZN4aidl7android8hardware7sensors8ISensors14getSensorsListEPNSt3__16vectorINS2_10SensorInfoENS4_9allocatorIS6_EEEE"
    },
    {
     "is_pure" : true,
     "mangled_component_name" : "_ZN4aidl7android8hardware7sensors8ISensors10initializeERKNS1_6common3fmq12MQDescriptorINS2_5EventENS5_21SynchronizedReadWriteEEERKNS6_IiS8_EERKNSt3__110shared_ptrINS2_16ISensorsCallbackEEE"
    },
    {
     "is_pure" : true,
     "mangled_component_name" : "_ZN4aidl7android8hardware7sensors8ISensors16injectSensorDataERKNS2_5EventE"
    },
    {
     "is_pure" : true,
     "mangled_component_name" : "_ZN4aidl7android8hardware7sensors8ISensors21registerDirectChannelERKNS3_13SharedMemInfoEPi"
    },
    {
     "is_pure" : true,
     "mangled_component_name" : "_ZN4aidl7android8hardware7sensors8ISensors16setOperationModeENS3_13OperationModeE"
    },
    {
     "is_pure" : true,
     "mangled_component_name" : "_ZN4aidl7android8hardware7sensors8ISensors23unregisterDirectChannelEi"
    },
    {
     "is_pure" : true,
     "mangled_component_name" : "_ZN4aidl7android8hardware7sensors8ISensors19getInterfaceVersionEPi"
    },
    {
     "is_pure" : true,
     "mangled_component_name" : "_ZN4aidl7android8hardware7sensors8ISensors16getInterfaceHashEPNSt3__112basic_stringIcNS4_11char_traitsIcEENS4_9allocatorIcEEEE"
    }
   ]
  },
  {
   "alignment" : 4,
   "base_specifiers" :
   [
    {
     "referenced_type" : "_ZTIN3ndk4impl15ScopedAResourceIP7AParcelXadL_Z14AParcel_deleteEELS3_0EEE"
    }
   ],
   "linker_set_key" : "_ZTIN3ndk13ScopedAParcelE",
   "name" : "ndk::ScopedAParcel",
   "record_kind" : "class",
   "referenced_type" : "_ZTIN3ndk13ScopedAParcelE",
   "self_type" : "_ZTIN3ndk13ScopedAParcelE",
   "size" : 4,
   "source_file" : "frameworks/native/libs/binder/ndk/include_cpp/android/binder_auto_utils.h"
  },
  {
   "alignment" : 4,
   "base_specifiers" :
   [
    {
     "referenced_type" : "_ZTIN3ndk4impl15ScopedAResourceIP7AStatusXadL_Z14AStatus_deleteEELS3_0EEE"
    }
   ],
   "linker_set_key" : "_ZTIN3ndk13ScopedAStatusE",
   "name" : "ndk::ScopedAStatus",
   "record_kind" : "class",
   "referenced_type" : "_ZTIN3ndk13ScopedAStatusE",
   "self_type" : "_ZTIN3ndk13ScopedAStatusE",
   "size" : 4,
   "source_file" : "frameworks/native/libs/binder/ndk/include_cpp/android/binder_auto_utils.h"
  },
  {
   "alignment" : 4,
   "fields" :
   [
    {
     "access" : "private",
     "field_name" : "mFlagThis",
     "field_offset" : 32,
     "referenced_type" : "_ZTINSt3__19once_flagE"
    },
    {
     "access" : "private",
     "field_name" : "mThis",
     "field_offset" : 64,
     "referenced_type" : "_ZTINSt3__18weak_ptrIN3ndk13SharedRefBaseEEE"
    }
   ],
   "linker_set_key" : "_ZTIN3ndk13SharedRefBaseE",
   "name" : "ndk::SharedRefBase",
   "record_kind" : "class",
   "referenced_type" : "_ZTIN3ndk13SharedRefBaseE",
   "self_type" : "_ZTIN3ndk13SharedRefBaseE",
   "size" : 16,
   "source_file" : "frameworks/native/libs/binder/ndk/include_cpp/android/binder_interface_utils.h",
   "vtable_components" :
   [
    {
     "kind" : "offset_to_top"
    },
    {
     "kind" : "rtti",
     "mangled_component_name" : "_ZTIN3ndk13SharedRefBaseE"
    },
    {
     "kind" : "complete_dtor_pointer",
     "mangled_component_name" : "_ZN3ndk13SharedRefBaseD1Ev"
    },
    {
     "kind" : "deleting_dtor_pointer",
     "mangled_component_name" : "_ZN3ndk13SharedRefBaseD0Ev"
    }
   ]
  },
  {
   "alignment" : 4,
   "fields" :
   [
    {
     "access" : "private",
     "field_name" : "mParcel",
     "field_offset" : 32,
     "referenced_type" : "_ZTIN3ndk13ScopedAParcelE"
    },
    {
     "access" : "private",
     "field_name" : "mStability",
     "field_offset" : 64,
     "referenced_type" : "_ZTIi"
    }
   ],
   "linker_set_key" : "_ZTIN3ndk17AParcelableHolderE",
   "name" : "ndk::AParcelableHolder",
   "record_kind" : "class",
   "referenced_type" : "_ZTIN3ndk17AParcelableHolderE",
   "self_type" : "_ZTIN3ndk17AParcelableHolderE",
   "size" : 12,
   "source_file" : "frameworks/native/libs/binder/ndk/include_cpp/android/binder_parcelable_utils.h",
   "vtable_components" :
   [
    {
     "kind" : "offset_to_top"
    },
    {
     "kind" : "rtti",
     "mangled_component_name" : "_ZTIN3ndk17AParcelableHolderE"
    },
    {
     "kind" : "complete_dtor_pointer",
     "mangled_component_name" : "_ZN3ndk17AParcelableHolderD1Ev"
    },
    {
     "kind" : "deleting_dtor_pointer",
     "mangled_component_name" : "_ZN3ndk17AParcelableHolderD0Ev"
    }
   ]
  },
  {
   "alignment" : 4,
   "base_specifiers" :
   [
    {
     "referenced_type" : "_ZTIN3ndk4impl15ScopedAResourceIP13AIBinder_WeakXadL_Z20AIBinder_Weak_deleteEELS3_0EEE"
    }
   ],
   "linker_set_key" : "_ZTIN3ndk19ScopedAIBinder_WeakE",
   "name" : "ndk::ScopedAIBinder_Weak",
   "record_kind" : "class",
   "referenced_type" : "_ZTIN3ndk19ScopedAIBinder_WeakE",
   "self_type" : "_ZTIN3ndk19ScopedAIBinder_WeakE",
   "size" : 4,
   "source_file" : "frameworks/native/libs/binder/ndk/include_cpp/android/binder_auto_utils.h"
  },
  {
   "alignment" : 4,
   "base_specifiers" :
   [
    {
     "referenced_type" : "_ZTIN3ndk4impl15ScopedAResourceIiXadL_ZNS_8internalL14closeWithErrorEiEELin1EEE"
    }
   ],
   "linker_set_key" : "_ZTIN3ndk20ScopedFileDescriptorE",
   "name" : "ndk::ScopedFileDescriptor",
   "record_kind" : "class",
   "referenced_type" : "_ZTIN3ndk20ScopedFileDescriptorE",
   "self_type" : "_ZTIN3ndk20ScopedFileDescriptorE",
   "size" : 4,
   "source_file" : "frameworks/native/libs/binder/ndk/include_cpp/android/binder_auto_utils.h"
  },
  {
   "alignment" : 4,
   "base_specifiers" :
   [
    {
     "referenced_type" : "_ZTIN3ndk4impl15ScopedAResourceIP23AIBinder_DeathRecipientXadL_Z30AIBinder_DeathRecipient_deleteEELS3_0EEE"
    }
   ],
   "linker_set_key" : "_ZTIN3ndk29ScopedAIBinder_DeathRecipientE",
   "name" : "ndk::ScopedAIBinder_DeathRecipient",
   "record_kind" : "class",
   "referenced_type" : "_ZTIN3ndk29ScopedAIBinder_DeathRecipientE",
   "self_type" : "_ZTIN3ndk29ScopedAIBinder_DeathRecipientE",
   "size" : 4,
   "source_file" : "frameworks/native/libs/binder/ndk/include_cpp/android/binder_auto_utils.h"
  },
  {
   "alignment" : 4,
   "fields" :
   [
    {
     "access" : "private",
     "field_name" : "mT",
     "referenced_type" : "_ZTIP13AIBinder_Weak"
    }
   ],
   "linker_set_key" : "_ZTIN3ndk4impl15ScopedAResourceIP13AIBinder_WeakXadL_Z20AIBinder_Weak_deleteEELS3_0EEE",
   "name" : "ndk::impl::ScopedAResource<AIBinder_Weak *, &AIBinder_Weak_delete, nullptr>",
   "record_kind" : "class",
   "referenced_type" : "_ZTIN3ndk4impl15ScopedAResourceIP13AIBinder_WeakXadL_Z20AIBinder_Weak_deleteEELS3_0EEE",
   "self_type" : "_ZTIN3ndk4impl15ScopedAResourceIP13AIBinder_WeakXadL_Z20AIBinder_Weak_deleteEELS3_0EEE",
   "size" : 4,
   "source_file" : "frameworks/native/libs/binder/ndk/include_cpp/android/binder_auto_utils.h",
   "template_args" :
   [
    "_ZTIP13AIBinder_Weak"
   ]
  },
  {
   "alignment" : 4,
   "fields" :
   [
    {
     "access" : "private",
     "field_name" : "mT",
     "referenced_type" : "_ZTIP23AIBinder_DeathRecipient"
    }
   ],
   "linker_set_key" : "_ZTIN3ndk4impl15ScopedAResourceIP23AIBinder_DeathRecipientXadL_Z30AIBinder_DeathRecipient_deleteEELS3_0EEE",
   "name" : "ndk::impl::ScopedAResource<AIBinder_DeathRecipient *, &AIBinder_DeathRecipient_delete, nullptr>",
   "record_kind" : "class",
   "referenced_type" : "_ZTIN3ndk4impl15ScopedAResourceIP23AIBinder_DeathRecipientXadL_Z30AIBinder_DeathRecipient_deleteEELS3_0EEE",
   "self_type" : "_ZTIN3ndk4impl15ScopedAResourceIP23AIBinder_DeathRecipientXadL_Z30AIBinder_DeathRecipient_deleteEELS3_0EEE",
   "size" : 4,
   "source_file" : "frameworks/native/libs/binder/ndk/include_cpp/android/binder_auto_utils.h",
   "template_args" :
   [
    "_ZTIP23AIBinder_DeathRecipient"
   ]
  },
  {
   "alignment" : 4,
   "fields" :
   [
    {
     "access" : "private",
     "field_name" : "mT",
     "referenced_type" : "_ZTIP7AParcel"
    }
   ],
   "linker_set_key" : "_ZTIN3ndk4impl15ScopedAResourceIP7AParcelXadL_Z14AParcel_deleteEELS3_0EEE",
   "name" : "ndk::impl::ScopedAResource<AParcel *, &AParcel_delete, nullptr>",
   "record_kind" : "class",
   "referenced_type" : "_ZTIN3ndk4impl15ScopedAResourceIP7AParcelXadL_Z14AParcel_deleteEELS3_0EEE",
   "self_type" : "_ZTIN3ndk4impl15ScopedAResourceIP7AParcelXadL_Z14AParcel_deleteEELS3_0EEE",
   "size" : 4,
   "source_file" : "frameworks/native/libs/binder/ndk/include_cpp/android/binder_auto_utils.h",
   "template_args" :
   [
    "_ZTIP7AParcel"
   ]
  },
  {
   "alignment" : 4,
   "fields" :
   [
    {
     "access" : "private",
     "field_name" : "mT",
     "referenced_type" : "_ZTIP7AStatus"
    }
   ],
   "linker_set_key" : "_ZTIN3ndk4impl15ScopedAResourceIP7AStatusXadL_Z14AStatus_deleteEELS3_0EEE",
   "name" : "ndk::impl::ScopedAResource<AStatus *, &AStatus_delete, nullptr>",
   "record_kind" : "class",
   "referenced_type" : "_ZTIN3ndk4impl15ScopedAResourceIP7AStatusXadL_Z14AStatus_deleteEELS3_0EEE",
   "self_type" : "_ZTIN3ndk4impl15ScopedAResourceIP7AStatusXadL_Z14AStatus_deleteEELS3_0EEE",
   "size" : 4,
   "source_file" : "frameworks/native/libs/binder/ndk/include_cpp/android/binder_auto_utils.h",
   "template_args" :
   [
    "_ZTIP7AStatus"
   ]
  },
  {
   "alignment" : 4,
   "fields" :
   [
    {
     "field_name" : "fds",
     "referenced_type" : "_ZTINSt3__16vectorIN3ndk20ScopedFileDescriptorENS_9allocatorIS2_EEEE"
    },
    {
     "field_name" : "ints",
     "field_offset" : 96,
     "referenced_type" : "_ZTINSt3__16vectorIiNS_9allocatorIiEEEE"
    }
   ],
   "linker_set_key" : "_ZTIN4aidl7android8hardware6common12NativeHandleE",
   "name" : "aidl::android::hardware::common::NativeHandle",
   "record_kind" : "class",
   "referenced_type" : "_ZTIN4aidl7android8hardware6common12NativeHandleE",
   "self_type" : "_ZTIN4aidl7android8hardware6common12NativeHandleE",
   "size" : 24,
   "source_file" : "out/soong/.intermediates/hardware/interfaces/common/aidl/android.hardware.common-V2-ndk-source/gen/include/aidl/android/hardware/common/NativeHandle.h"
  },
  {
   "alignment" : 4,
   "fields" :
   [
    {
     "field_name" : "grantors",
     "referenced_type" : "_ZTINSt3__16vectorIN4aidl7android8hardware6common3fmq17GrantorDescriptorENS_9allocatorIS6_EEEE"
    },
    {
     "field_name" : "handle",
     "field_offset" : 96,
     "referenced_type" : "_ZTIN4aidl7android8hardware6common12NativeHandleE"
    },
    {
     "field_name" : "quantum",
     "field_offset" : 288,
     "referenced_type" : "_ZTIi"
    },
    {
     "field_name" : "flags",
     "field_offset" : 320,
     "referenced_type" : "_ZTIi"
    }
   ],
   "linker_set_key" : "_ZTIN4aidl7android8hardware6common3fmq12MQDescriptorINS1_7sensors5EventENS3_21SynchronizedReadWriteEEE",
   "name" : "aidl::android::hardware::common::fmq::MQDescriptor<aidl::android::hardware::sensors::Event, aidl::android::hardware::common::fmq::SynchronizedReadWrite>",
   "record_kind" : "class",
   "referenced_type" : "_ZTIN4aidl7android8hardware6common3fmq12MQDescriptorINS1_7sensors5EventENS3_21SynchronizedReadWriteEEE",
   "self_type" : "_ZTIN4aidl7android8hardware6common3fmq12MQDescriptorINS1_7sensors5EventENS3_21SynchronizedReadWriteEEE",
   "size" : 44,
   "source_file" : "out/soong/.intermediates/hardware/interfaces/common/fmq/aidl/android.hardware.common.fmq-V1-ndk-source/gen/include/aidl/android/hardware/common/fmq/MQDescriptor.h",
   "template_args" :
   [
    "_ZTIN4aidl7android8hardware7sensors5EventE",
    "_ZTIN4aidl7android8hardware6common3fmq21SynchronizedReadWriteE"
   ]
  },
  {
   "alignment" : 4,
   "fields" :
   [
    {
     "field_name" : "grantors",
     "referenced_type" : "_ZTINSt3__16vectorIN4aidl7android8hardware6common3fmq17GrantorDescriptorENS_9allocatorIS6_EEEE"
    },
    {
     "field_name" : "handle",
     "field_offset" : 96,
     "referenced_type" : "_ZTIN4aidl7android8hardware6common12NativeHandleE"
    },
    {
     "field_name" : "quantum",
     "field_offset" : 288,
     "referenced_type" : "_ZTIi"
    },
    {
     "field_name" : "flags",
     "field_offset" : 320,
     "referenced_type" : "_ZTIi"
    }
   ],
   "linker_set_key" : "_ZTIN4aidl7android8hardware6common3fmq12MQDescriptorIiNS3_21SynchronizedReadWriteEEE",
   "name" : "aidl::android::hardware::common::fmq::MQDescriptor<int, aidl::android::hardware::common::fmq::SynchronizedReadWrite>",
   "record_kind" : "class",
   "referenced_type" : "_ZTIN4aidl7android8hardware6common3fmq12MQDescriptorIiNS3_21SynchronizedReadWriteEEE",
   "self_type" : "_ZTIN4aidl7android8hardware6common3fmq12MQDescriptorIiNS3_21SynchronizedReadWriteEEE",
   "size" : 44,
   "source_file" : "out/soong/.intermediates/hardware/interfaces/common/fmq/aidl/android.hardware.common.fmq-V1-ndk-source/gen/include/aidl/android/hardware/common/fmq/MQDescriptor.h",
   "template_args" :
   [
    "_ZTIi",
    "_ZTIN4aidl7android8hardware6common3fmq21SynchronizedReadWriteE"
   ]
  },
  {
   "alignment" : 4,
   "fields" :
   [
    {
     "field_name" : "fdIndex",
     "referenced_type" : "_ZTIi"
    },
    {
     "field_name" : "offset",
     "field_offset" : 32,
     "referenced_type" : "_ZTIi"
    },
    {
     "field_name" : "extent",
     "field_offset" : 64,
     "referenced_type" : "_ZTIx"
    }
   ],
   "linker_set_key" : "_ZTIN4aidl7android8hardware6common3fmq17GrantorDescriptorE",
   "name" : "aidl::android::hardware::common::fmq::GrantorDescriptor",
   "record_kind" : "class",
   "referenced_type" : "_ZTIN4aidl7android8hardware6common3fmq17GrantorDescriptorE",
   "self_type" : "_ZTIN4aidl7android8hardware6common3fmq17GrantorDescriptorE",
   "size" : 16,
   "source_file" : "out/soong/.intermediates/hardware/interfaces/common/fmq/aidl/android.hardware.common.fmq-V1-ndk-source/gen/include/aidl/android/hardware/common/fmq/GrantorDescriptor.h"
  },
  {
   "alignment" : 4,
   "fields" :
   [
    {
     "field_name" : "sensorHandle",
     "referenced_type" : "_ZTIi"
    },
    {
     "field_name" : "name",
     "field_offset" : 32,
     "referenced_type" : "_ZTINSt3__112basic_stringIcNS_11char_traitsIcEENS_9allocatorIcEEEE"
    },
    {
     "field_name" : "vendor",
     "field_offset" : 128,
     "referenced_type" : "_ZTINSt3__112basic_stringIcNS_11char_traitsIcEENS_9allocatorIcEEEE"
    },
    {
     "field_name" : "version",
     "field_offset" : 224,
     "referenced_type" : "_ZTIi"
    },
    {
     "field_name" : "type",
     "field_offset" : 256,
     "referenced_type" : "_ZTIN4aidl7android8hardware7sensors10SensorTypeE"
    },
    {
     "field_name" : "typeAsString",
     "field_offset" : 288,
     "referenced_type" : "_ZTINSt3__112basic_stringIcNS_11char_traitsIcEENS_9allocatorIcEEEE"
    },
    {
     "field_name" : "maxRange",
     "field_offset" : 384,
     "referenced_type" : "_ZTIf"
    },
    {
     "field_name" : "resolution",
     "field_offset" : 416,
     "referenced_type" : "_ZTIf"
    },
    {
     "field_name" : "power",
     "field_offset" : 448,
     "referenced_type" : "_ZTIf"
    },
    {
     "field_name" : "minDelayUs",
     "field_offset" : 480,
     "referenced_type" : "_ZTIi"
    },
    {
     "field_name" : "fifoReservedEventCount",
     "field_offset" : 512,
     "referenced_type" : "_ZTIi"
    },
    {
     "field_name" : "fifoMaxEventCount",
     "field_offset" : 544,
     "referenced_type" : "_ZTIi"
    },
    {
     "field_name" : "requiredPermission",
     "field_offset" : 576,
     "referenced_type" : "_ZTINSt3__112basic_stringIcNS_11char_traitsIcEENS_9allocatorIcEEEE"
    },
    {
     "field_name" : "maxDelayUs",
     "field_offset" : 672,
     "referenced_type" : "_ZTIi"
    },
    {
     "field_name" : "flags",
     "field_offset" : 704,
     "referenced_type" : "_ZTIi"
    }
   ],
   "linker_set_key" : "_ZTIN4aidl7android8hardware7sensors10SensorInfoE",
   "name" : "aidl::android::hardware::sensors::SensorInfo",
   "record_kind" : "class",
   "referenced_type" : "_ZTIN4aidl7android8hardware7sensors10SensorInfoE",
   "self_type" : "_ZTIN4aidl7android8hardware7sensors10SensorInfoE",
   "size" : 92,
   "source_file" : "out/soong/.intermediates/hardware/interfaces/sensors/aidl/android.hardware.sensors-V1-ndk-source/gen/include/aidl/android/hardware/sensors/SensorInfo.h"
  },
  {
   "alignment" : 4,
   "fields" :
   [
    {
     "field_name" : "values",
     "referenced_type" : "_ZTINSt3__15arrayIfLj14EEE"
    }
   ],
   "linker_set_key" : "_ZTIN4aidl7android8hardware7sensors14AdditionalInfo21AdditionalInfoPayload11FloatValuesE",
   "name" : "aidl::android::hardware::sensors::AdditionalInfo::AdditionalInfoPayload::FloatValues",
   "record_kind" : "class",
   "referenced_type" : "_ZTIN4aidl7android8hardware7sensors14AdditionalInfo21AdditionalInfoPayload11FloatValuesE",
   "self_type" : "_ZTIN4aidl7android8hardware7sensors14AdditionalInfo21AdditionalInfoPayload11FloatValuesE",
   "size" : 56,
   "source_file" : "out/soong/.intermediates/hardware/interfaces/sensors/aidl/android.hardware.sensors-V1-ndk-source/gen/include/aidl/android/hardware/sensors/AdditionalInfo.h"
  },
  {
   "alignment" : 4,
   "fields" :
   [
    {
     "field_name" : "values",
     "referenced_type" : "_ZTINSt3__15arrayIiLj14EEE"
    }
   ],
   "linker_set_key" : "_ZTIN4aidl7android8hardware7sensors14AdditionalInfo21AdditionalInfoPayload11Int32ValuesE",
   "name" : "aidl::android::hardware::sensors::AdditionalInfo::AdditionalInfoPayload::Int32Values",
   "record_kind" : "class",
   "referenced_type" : "_ZTIN4aidl7android8hardware7sensors14AdditionalInfo21AdditionalInfoPayload11Int32ValuesE",
   "self_type" : "_ZTIN4aidl7android8hardware7sensors14AdditionalInfo21AdditionalInfoPayload11Int32ValuesE",
   "size" : 56,
   "source_file" : "out/soong/.intermediates/hardware/interfaces/sensors/aidl/android.hardware.sensors-V1-ndk-source/gen/include/aidl/android/hardware/sensors/AdditionalInfo.h"
  },
  {
   "access" : "private",
   "alignment" : 4,
   "fields" :
   [
    {
     "field_name" : "dataInt32",
     "referenced_type" : "_ZTIN4aidl7android8hardware7sensors14AdditionalInfo21AdditionalInfoPayload11Int32ValuesE"
    },
    {
     "field_name" : "dataFloat",
     "referenced_type" : "_ZTIN4aidl7android8hardware7sensors14AdditionalInfo21AdditionalInfoPayload11FloatValuesE"
    }
   ],
   "linker_set_key" : "_ZTIN4aidl7android8hardware7sensors14AdditionalInfo21AdditionalInfoPayload8_value_tE",
   "name" : "aidl::android::hardware::sensors::AdditionalInfo::AdditionalInfoPayload::_value_t",
   "record_kind" : "union",
   "referenced_type" : "_ZTIN4aidl7android8hardware7sensors14AdditionalInfo21AdditionalInfoPayload8_value_tE",
   "self_type" : "_ZTIN4aidl7android8hardware7sensors14AdditionalInfo21AdditionalInfoPayload8_value_tE",
   "size" : 56,
   "source_file" : "out/soong/.intermediates/hardware/interfaces/sensors/aidl/android.hardware.sensors-V1-ndk-source/gen/include/aidl/android/hardware/sensors/AdditionalInfo.h"
  },
  {
   "alignment" : 4,
   "fields" :
   [
    {
     "access" : "private",
     "field_name" : "_tag",
     "referenced_type" : "_ZTIN4aidl7android8hardware7sensors14AdditionalInfo21AdditionalInfoPayload3TagE"
    },
    {
     "access" : "private",
     "field_name" : "_value",
     "field_offset" : 32,
     "referenced_type" : "_ZTIN4aidl7android8hardware7sensors14AdditionalInfo21AdditionalInfoPayload8_value_tE"
    }
   ],
   "linker_set_key" : "_ZTIN4aidl7android8hardware7sensors14AdditionalInfo21AdditionalInfoPayloadE",
   "name" : "aidl::android::hardware::sensors::AdditionalInfo::AdditionalInfoPayload",
   "record_kind" : "class",
   "referenced_type" : "_ZTIN4aidl7android8hardware7sensors14AdditionalInfo21AdditionalInfoPayloadE",
   "self_type" : "_ZTIN4aidl7android8hardware7sensors14AdditionalInfo21AdditionalInfoPayloadE",
   "size" : 60,
   "source_file" : "out/soong/.intermediates/hardware/interfaces/sensors/aidl/android.hardware.sensors-V1-ndk-source/gen/include/aidl/android/hardware/sensors/AdditionalInfo.h"
  },
  {
   "alignment" : 4,
   "fields" :
   [
    {
     "field_name" : "type",
     "referenced_type" : "_ZTIN4aidl7android8hardware7sensors14AdditionalInfo18AdditionalInfoTypeE"
    },
    {
     "field_name" : "serial",
     "field_offset" : 32,
     "referenced_type" : "_ZTIi"
    },
    {
     "field_name" : "payload",
     "field_offset" : 64,
     "referenced_type" : "_ZTIN4aidl7android8hardware7sensors14AdditionalInfo21AdditionalInfoPayloadE"
    }
   ],
   "linker_set_key" : "_ZTIN4aidl7android8hardware7sensors14AdditionalInfoE",
   "name" : "aidl::android::hardware::sensors::AdditionalInfo",
   "record_kind" : "class",
   "referenced_type" : "_ZTIN4aidl7android8hardware7sensors14AdditionalInfoE",
   "self_type" : "_ZTIN4aidl7android8hardware7sensors14AdditionalInfoE",
   "size" : 68,
   "source_file" : "out/soong/.intermediates/hardware/interfaces/sensors/aidl/android.hardware.sensors-V1-ndk-source/gen/include/aidl/android/hardware/sensors/AdditionalInfo.h"
  },
  {
   "alignment" : 4,
   "base_specifiers" :
   [
    {
     "referenced_type" : "_ZTIN4aidl7android8hardware7sensors8ISensorsE"
    }
   ],
   "linker_set_key" : "_ZTIN4aidl7android8hardware7sensors15ISensorsDefaultE",
   "name" : "aidl::android::hardware::sensors::ISensorsDefault",
   "record_kind" : "class",
   "referenced_type" : "_ZTIN4aidl7android8hardware7sensors15ISensorsDefaultE",
   "self_type" : "_ZTIN4aidl7android8hardware7sensors15ISensorsDefaultE",
   "size" : 16,
   "source_file" : "out/soong/.intermediates/hardware/interfaces/sensors/aidl/android.hardware.sensors-V1-ndk-source/gen/include/aidl/android/hardware/sensors/ISensors.h",
   "vtable_components" :
   [
    {
     "kind" : "offset_to_top"
    },
    {
     "kind" : "rtti",
     "mangled_component_name" : "_ZTIN4aidl7android8hardware7sensors15ISensorsDefaultE"
    },
    {
     "kind" : "complete_dtor_pointer",
     "mangled_component_name" : "_ZN4aidl7android8hardware7sensors15ISensorsDefaultD1Ev"
    },
    {
     "kind" : "deleting_dtor_pointer",
     "mangled_component_name" : "_ZN4aidl7android8hardware7sensors15ISensorsDefaultD0Ev"
    },
    {
     "mangled_component_name" : "_ZN4aidl7android8hardware7sensors15ISensorsDefault8asBinderEv"
    },
    {
     "mangled_component_name" : "_ZN4aidl7android8hardware7sensors15ISensorsDefault8isRemoteEv"
    },
    {
     "mangled_component_name" : "_ZN3ndk11ICInterface4dumpEiPPKcj"
    },
    {
     "mangled_component_name" : "_ZN3ndk11ICInterface18handleShellCommandEiiiPPKcj"
    },
    {
     "mangled_component_name" : "_ZN4aidl7android8hardware7sensors15ISensorsDefault8activateEib"
    },
    {
     "mangled_component_name" : "_ZN4aidl7android8hardware7sensors15ISensorsDefault5batchEixx"
    },
    {
     "mangled_component_name" : "_ZN4aidl7android8hardware7sensors15ISensorsDefault18configDirectReportEiiNS2_8ISensors9RateLevelEPi"
    },
    {
     "mangled_component_name" : "_ZN4aidl7android8hardware7sensors15ISensorsDefault5flushEi"
    },
    {
     "mangled_component_name" : "_ZN4aidl7android8hardware7sensors15ISensorsDefault14getSensorsListEPNSt3__16vectorINS2_10SensorInfoENS4_9allocatorIS6_EEEE"
    },
    {
     "mangled_component_name" : "_ZN4aidl7android8hardware7sensors15ISensorsDefault10initializeERKNS1_6common3fmq12MQDescriptorINS2_5EventENS5_21SynchronizedReadWriteEEERKNS6_IiS8_EERKNSt3__110shared_ptrINS2_16ISensorsCallbackEEE"
    },
    {
     "mangled_component_name" : "_ZN4aidl7android8hardware7sensors15ISensorsDefault16injectSensorDataERKNS2_5EventE"
    },
    {
     "mangled_component_name" : "_ZN4aidl7android8hardware7sensors15ISensorsDefault21registerDirectChannelERKNS2_8ISensors13SharedMemInfoEPi"
    },
    {
     "mangled_component_name" : "_ZN4aidl7android8hardware7sensors15ISensorsDefault16setOperationModeENS2_8ISensors13OperationModeE"
    },
    {
     "mangled_component_name" : "_ZN4aidl7android8hardware7sensors15ISensorsDefault23unregisterDirectChannelEi"
    },
    {
     "mangled_component_name" : "_ZN4aidl7android8hardware7sensors15ISensorsDefault19getInterfaceVersionEPi"
    },
    {
     "mangled_component_name" : "_ZN4aidl7android8hardware7sensors15ISensorsDefault16getInterfaceHashEPNSt3__112basic_stringIcNS4_11char_traitsIcEENS4_9allocatorIcEEEE"
    }
   ]
  },
  {
   "alignment" : 4,
   "base_specifiers" :
   [
    {
     "referenced_type" : "_ZTIN3ndk11ICInterfaceE"
    }
   ],
   "linker_set_key" : "_ZTIN4aidl7android8hardware7sensors16ISensorsCallbackE",
   "name" : "aidl::android::hardware::sensors::ISensorsCallback",
   "record_kind" : "class",
   "referenced_type" : "_ZTIN4aidl7android8hardware7sensors16ISensorsCallbackE",
   "self_type" : "_ZTIN4aidl7android8hardware7sensors16ISensorsCallbackE",
   "size" : 16,
   "source_file" : "out/soong/.intermediates/hardware/interfaces/sensors/aidl/android.hardware.sensors-V1-ndk-source/gen/include/aidl/android/hardware/sensors/ISensorsCallback.h",
   "vtable_components" :
   [
    {
     "kind" : "offset_to_top"
    },
    {
     "kind" : "rtti",
     "mangled_component_name" : "_ZTIN4aidl7android8hardware7sensors16ISensorsCallbackE"
    },
    {
     "kind" : "complete_dtor_pointer",
     "mangled_component_name" : "_ZN4aidl7android8hardware7sensors16ISensorsCallbackD1Ev"
    },
    {
     "kind" : "deleting_dtor_pointer",
     "mangled_component_name" : "_ZN4aidl7android8hardware7sensors16ISensorsCallbackD0Ev"
    },
    {
     "is_pure" : true,
     "mangled_component_name" : "_ZN3ndk11ICInterface8asBinderEv"
    },
    {
     "is_pure" : true,
     "mangled_component_name" : "_ZN3ndk11ICInterface8isRemoteEv"
    },
    {
     "mangled_component_name" : "_ZN3ndk11ICInterface4dumpEiPPKcj"
    },
    {
     "mangled_component_name" : "_ZN3ndk11ICInterface18handleShellCommandEiiiPPKcj"
    },
    {
     "is_pure" : true,
     "mangled_component_name" : "_ZN4aidl7android8hardware7sensors16ISensorsCallback25onDynamicSensorsConnectedERKNSt3__16vectorINS2_10SensorInfoENS4_9allocatorIS6_EEEE"
    },
    {
     "is_pure" : true,
     "mangled_component_name" : "_ZN4aidl7android8hardware7sensors16ISensorsCallback28onDynamicSensorsDisconnectedERKNSt3__16vectorIiNS4_9allocatorIiEEEE"
    },
    {
     "is_pure" : true,
     "mangled_component_name" : "_ZN4aidl7android8hardware7sensors16ISensorsCallback19getInterfaceVersionEPi"
    },
    {
     "is_pure" : true,
     "mangled_component_name" : "_ZN4aidl7android8hardware7sensors16ISensorsCallback16getInterfaceHashEPNSt3__112basic_stringIcNS4_11char_traitsIcEENS4_9allocatorIcEEEE"
    }
   ]
  },
  {
   "alignment" : 4,
   "base_specifiers" :
   [
    {
     "referenced_type" : "_ZTIN3ndk12BnCInterfaceIN4aidl7android8hardware7sensors16ISensorsCallbackEEE"
    }
   ],
   "linker_set_key" : "_ZTIN4aidl7android8hardware7sensors17BnSensorsCallbackE",
   "name" : "aidl::android::hardware::sensors::BnSensorsCallback",
   "record_kind" : "class",
   "referenced_type" : "_ZTIN4aidl7android8hardware7sensors17BnSensorsCallbackE",
   "self_type" : "_ZTIN4aidl7android8hardware7sensors17BnSensorsCallbackE",
   "size" : 24,
   "source_file" : "out/soong/.intermediates/hardware/interfaces/sensors/aidl/android.hardware.sensors-V1-ndk-source/gen/include/aidl/android/hardware/sensors/BnSensorsCallback.h",
   "vtable_components" :
   [
    {
     "kind" : "offset_to_top"
    },
    {
     "kind" : "rtti",
     "mangled_component_name" : "_ZTIN4aidl7android8hardware7sensors17BnSensorsCallbackE"
    },
    {
     "kind" : "complete_dtor_pointer",
     "mangled_component_name" : "_ZN4aidl7android8hardware7sensors17BnSensorsCallbackD1Ev"
    },
    {
     "kind" : "deleting_dtor_pointer",
     "mangled_component_name" : "_ZN4aidl7android8hardware7sensors17BnSensorsCallbackD0Ev"
    },
    {
     "mangled_component_name" : "_ZN3ndk12BnCInterfaceIN4aidl7android8hardware7sensors16ISensorsCallbackEE8asBinderEv"
    },
    {
     "mangled_component_name" : "_ZN3ndk12BnCInterfaceIN4aidl7android8hardware7sensors16ISensorsCallbackEE8isRemoteEv"
    },
    {
     "mangled_component_name" : "_ZN3ndk11ICInterface4dumpEiPPKcj"
    },
    {
     "mangled_component_name" : "_ZN3ndk11ICInterface18handleShellCommandEiiiPPKcj"
    },
    {
     "is_pure" : true,
     "mangled_component_name" : "_ZN4aidl7android8hardware7sensors16ISensorsCallback25onDynamicSensorsConnectedERKNSt3__16vectorINS2_10SensorInfoENS4_9allocatorIS6_EEEE"
    },
    {
     "is_pure" : true,
     "mangled_component_name" : "_ZN4aidl7android8hardware7sensors16ISensorsCallback28onDynamicSensorsDisconnectedERKNSt3__16vectorIiNS4_9allocatorIiEEEE"
    },
    {
     "mangled_component_name" : "_ZN4aidl7android8hardware7sensors17BnSensorsCallback19getInterfaceVersionEPi"
    },
    {
     "mangled_component_name" : "_ZN4aidl7android8hardware7sensors17BnSensorsCallback16getInterfaceHashEPNSt3__112basic_stringIcNS4_11char_traitsIcEENS4_9allocatorIcEEEE"
    },
    {
     "mangled_component_name" : "_ZN4aidl7android8hardware7sensors17BnSensorsCallback12createBinderEv"
    }
   ]
  },
  {
   "alignment" : 4,
   "base_specifiers" :
   [
    {
     "referenced_type" : "_ZTIN3ndk12BpCInterfaceIN4aidl7android8hardware7sensors16ISensorsCallbackEEE"
    }
   ],
   "fields" :
   [
    {
     "field_name" : "_aidl_cached_version",
     "field_offset" : 160,
     "referenced_type" : "_ZTIi"
    },
    {
     "field_name" : "_aidl_cached_hash",
     "field_offset" : 192,
     "referenced_type" : "_ZTINSt3__112basic_stringIcNS_11char_traitsIcEENS_9allocatorIcEEEE"
    },
    {
     "field_name" : "_aidl_cached_hash_mutex",
     "field_offset" : 288,
     "referenced_type" : "_ZTINSt3__15mutexE"
    }
   ],
   "linker_set_key" : "_ZTIN4aidl7android8hardware7sensors17BpSensorsCallbackE",
   "name" : "aidl::android::hardware::sensors::BpSensorsCallback",
   "record_kind" : "class",
   "referenced_type" : "_ZTIN4aidl7android8hardware7sensors17BpSensorsCallbackE",
   "self_type" : "_ZTIN4aidl7android8hardware7sensors17BpSensorsCallbackE",
   "size" : 40,
   "source_file" : "out/soong/.intermediates/hardware/interfaces/sensors/aidl/android.hardware.sensors-V1-ndk-source/gen/include/aidl/android/hardware/sensors/BpSensorsCallback.h",
   "vtable_components" :
   [
    {
     "kind" : "offset_to_top"
    },
    {
     "kind" : "rtti",
     "mangled_component_name" : "_ZTIN4aidl7android8hardware7sensors17BpSensorsCallbackE"
    },
    {
     "kind" : "complete_dtor_pointer",
     "mangled_component_name" : "_ZN4aidl7android8hardware7sensors17BpSensorsCallbackD1Ev"
    },
    {
     "kind" : "deleting_dtor_pointer",
     "mangled_component_name" : "_ZN4aidl7android8hardware7sensors17BpSensorsCallbackD0Ev"
    },
    {
     "mangled_component_name" : "_ZN3ndk12BpCInterfaceIN4aidl7android8hardware7sensors16ISensorsCallbackEE8asBinderEv"
    },
    {
     "mangled_component_name" : "_ZN3ndk12BpCInterfaceIN4aidl7android8hardware7sensors16ISensorsCallbackEE8isRemoteEv"
    },
    {
     "mangled_component_name" : "_ZN3ndk12BpCInterfaceIN4aidl7android8hardware7sensors16ISensorsCallbackEE4dumpEiPPKcj"
    },
    {
     "mangled_component_name" : "_ZN3ndk11ICInterface18handleShellCommandEiiiPPKcj"
    },
    {
     "mangled_component_name" : "_ZN4aidl7android8hardware7sensors17BpSensorsCallback25onDynamicSensorsConnectedERKNSt3__16vectorINS2_10SensorInfoENS4_9allocatorIS6_EEEE"
    },
    {
     "mangled_component_name" : "_ZN4aidl7android8hardware7sensors17BpSensorsCallback28onDynamicSensorsDisconnectedERKNSt3__16vectorIiNS4_9allocatorIiEEEE"
    },
    {
     "mangled_component_name" : "_ZN4aidl7android8hardware7sensors17BpSensorsCallback19getInterfaceVersionEPi"
    },
    {
     "mangled_component_name" : "_ZN4aidl7android8hardware7sensors17BpSensorsCallback16getInterfaceHashEPNSt3__112basic_stringIcNS4_11char_traitsIcEENS4_9allocatorIcEEEE"
    }
   ]
  },
  {
   "alignment" : 1,
   "fields" :
   [
    {
     "field_name" : "values",
     "referenced_type" : "_ZTINSt3__15arrayIhLj16EEE"
    }
   ],
   "linker_set_key" : "_ZTIN4aidl7android8hardware7sensors17DynamicSensorInfo4UuidE",
   "name" : "aidl::android::hardware::sensors::DynamicSensorInfo::Uuid",
   "record_kind" : "class",
   "referenced_type" : "_ZTIN4aidl7android8hardware7sensors17DynamicSensorInfo4UuidE",
   "self_type" : "_ZTIN4aidl7android8hardware7sensors17DynamicSensorInfo4UuidE",
   "size" : 16,
   "source_file" : "out/soong/.intermediates/hardware/interfaces/sensors/aidl/android.hardware.sensors-V1-ndk-source/gen/include/aidl/android/hardware/sensors/DynamicSensorInfo.h"
  },
  {
   "alignment" : 4,
   "fields" :
   [
    {
     "field_name" : "connected",
     "referenced_type" : "_ZTIb"
    },
    {
     "field_name" : "sensorHandle",
     "field_offset" : 32,
     "referenced_type" : "_ZTIi"
    },
    {
     "field_name" : "uuid",
     "field_offset" : 64,
     "referenced_type" : "_ZTIN4aidl7android8hardware7sensors17DynamicSensorInfo4UuidE"
    }
   ],
   "linker_set_key" : "_ZTIN4aidl7android8hardware7sensors17DynamicSensorInfoE",
   "name" : "aidl::android::hardware::sensors::DynamicSensorInfo",
   "record_kind" : "class",
   "referenced_type" : "_ZTIN4aidl7android8hardware7sensors17DynamicSensorInfoE",
   "self_type" : "_ZTIN4aidl7android8hardware7sensors17DynamicSensorInfoE",
   "size" : 24,
   "source_file" : "out/soong/.intermediates/hardware/interfaces/sensors/aidl/android.hardware.sensors-V1-ndk-source/gen/include/aidl/android/hardware/sensors/DynamicSensorInfo.h"
  },
  {
   "alignment" : 4,
   "base_specifiers" :
   [
    {
     "referenced_type" : "_ZTIN4aidl7android8hardware7sensors9BnSensorsE"
    }
   ],
   "fields" :
   [
    {
     "access" : "private",
     "field_name" : "_impl",
     "field_offset" : 192,
     "referenced_type" : "_ZTINSt3__110shared_ptrIN4aidl7android8hardware7sensors8ISensorsEEE"
    }
   ],
   "linker_set_key" : "_ZTIN4aidl7android8hardware7sensors17ISensorsDelegatorE",
   "name" : "aidl::android::hardware::sensors::ISensorsDelegator",
   "record_kind" : "class",
   "referenced_type" : "_ZTIN4aidl7android8hardware7sensors17ISensorsDelegatorE",
   "self_type" : "_ZTIN4aidl7android8hardware7sensors17ISensorsDelegatorE",
   "size" : 32,
   "source_file" : "out/soong/.intermediates/hardware/interfaces/sensors/aidl/android.hardware.sensors-V1-ndk-source/gen/include/aidl/android/hardware/sensors/BnSensors.h",
   "vtable_components" :
   [
    {
     "kind" : "offset_to_top"
    },
    {
     "kind" : "rtti",
     "mangled_component_name" : "_ZTIN4aidl7android8hardware7sensors17ISensorsDelegatorE"
    },
    {
     "kind" : "complete_dtor_pointer",
     "mangled_component_name" : "_ZN4aidl7android8hardware7sensors17ISensorsDelegatorD1Ev"
    },
    {
     "kind" : "deleting_dtor_pointer",
     "mangled_component_name" : "_ZN4aidl7android8hardware7sensors17ISensorsDelegatorD0Ev"
    },
    {
     "mangled_component_name" : "_ZN3ndk12BnCInterfaceIN4aidl7android8hardware7sensors8ISensorsEE8asBinderEv"
    },
    {
     "mangled_component_name" : "_ZN3ndk12BnCInterfaceIN4aidl7android8hardware7sensors8ISensorsEE8isRemoteEv"
    },
    {
     "mangled_component_name" : "_ZN3ndk11ICInterface4dumpEiPPKcj"
    },
    {
     "mangled_component_name" : "_ZN3ndk11ICInterface18handleShellCommandEiiiPPKcj"
    },
    {
     "mangled_component_name" : "_ZN4aidl7android8hardware7sensors17ISensorsDelegator8activateEib"
    },
    {
     "mangled_component_name" : "_ZN4aidl7android8hardware7sensors17ISensorsDelegator5batchEixx"
    },
    {
     "mangled_component_name" : "_ZN4aidl7android8hardware7sensors17ISensorsDelegator18configDirectReportEiiNS2_8ISensors9RateLevelEPi"
    },
    {
     "mangled_component_name" : "_ZN4aidl7android8hardware7sensors17ISensorsDelegator5flushEi"
    },
    {
     "mangled_component_name" : "_ZN4aidl7android8hardware7sensors17ISensorsDelegator14getSensorsListEPNSt3__16vectorINS2_10SensorInfoENS4_9allocatorIS6_EEEE"
    },
    {
     "mangled_component_name" : "_ZN4aidl7android8hardware7sensors17ISensorsDelegator10initializeERKNS1_6common3fmq12MQDescriptorINS2_5EventENS5_21SynchronizedReadWriteEEERKNS6_IiS8_EERKNSt3__110shared_ptrINS2_16ISensorsCallbackEEE"
    },
    {
     "mangled_component_name" : "_ZN4aidl7android8hardware7sensors17ISensorsDelegator16injectSensorDataERKNS2_5EventE"
    },
    {
     "mangled_component_name" : "_ZN4aidl7android8hardware7sensors17ISensorsDelegator21registerDirectChannelERKNS2_8ISensors13SharedMemInfoEPi"
    },
    {
     "mangled_component_name" : "_ZN4aidl7android8hardware7sensors17ISensorsDelegator16setOperationModeENS2_8ISensors13OperationModeE"
    },
    {
     "mangled_component_name" : "_ZN4aidl7android8hardware7sensors17ISensorsDelegator23unregisterDirectChannelEi"
    },
    {
     "mangled_component_name" : "_ZN4aidl7android8hardware7sensors9BnSensors19getInterfaceVersionEPi"
    },
    {
     "mangled_component_name" : "_ZN4aidl7android8hardware7sensors9BnSensors16getInterfaceHashEPNSt3__112basic_stringIcNS4_11char_traitsIcEENS4_9allocatorIcEEEE"
    },
    {
     "mangled_component_name" : "_ZN4aidl7android8hardware7sensors9BnSensors12createBinderEv"
    }
   ]
  },
  {
   "alignment" : 4,
   "base_specifiers" :
   [
    {
     "referenced_type" : "_ZTIN4aidl7android8hardware7sensors16ISensorsCallbackE"
    }
   ],
   "linker_set_key" : "_ZTIN4aidl7android8hardware7sensors23ISensorsCallbackDefaultE",
   "name" : "aidl::android::hardware::sensors::ISensorsCallbackDefault",
   "record_kind" : "class",
   "referenced_type" : "_ZTIN4aidl7android8hardware7sensors23ISensorsCallbackDefaultE",
   "self_type" : "_ZTIN4aidl7android8hardware7sensors23ISensorsCallbackDefaultE",
   "size" : 16,
   "source_file" : "out/soong/.intermediates/hardware/interfaces/sensors/aidl/android.hardware.sensors-V1-ndk-source/gen/include/aidl/android/hardware/sensors/ISensorsCallback.h",
   "vtable_components" :
   [
    {
     "kind" : "offset_to_top"
    },
    {
     "kind" : "rtti",
     "mangled_component_name" : "_ZTIN4aidl7android8hardware7sensors23ISensorsCallbackDefaultE"
    },
    {
     "kind" : "complete_dtor_pointer",
     "mangled_component_name" : "_ZN4aidl7android8hardware7sensors23ISensorsCallbackDefaultD1Ev"
    },
    {
     "kind" : "deleting_dtor_pointer",
     "mangled_component_name" : "_ZN4aidl7android8hardware7sensors23ISensorsCallbackDefaultD0Ev"
    },
    {
     "mangled_component_name" : "_ZN4aidl7android8hardware7sensors23ISensorsCallbackDefault8asBinderEv"
    },
    {
     "mangled_component_name" : "_ZN4aidl7android8hardware7sensors23ISensorsCallbackDefault8isRemoteEv"
    },
    {
     "mangled_component_name" : "_ZN3ndk11ICInterface4dumpEiPPKcj"
    },
    {
     "mangled_component_name" : "_ZN3ndk11ICInterface18handleShellCommandEiiiPPKcj"
    },
    {
     "mangled_component_name" : "_ZN4aidl7android8hardware7sensors23ISensorsCallbackDefault25onDynamicSensorsConnectedERKNSt3__16vectorINS2_10SensorInfoENS4_9allocatorIS6_EEEE"
    },
    {
     "mangled_component_name" : "_ZN4aidl7android8hardware7sensors23ISensorsCallbackDefault28onDynamicSensorsDisconnectedERKNSt3__16vectorIiNS4_9allocatorIiEEEE"
    },
    {
     "mangled_component_name" : "_ZN4aidl7android8hardware7sensors23ISensorsCallbackDefault19getInterfaceVersionEPi"
    },
    {
     "mangled_component_name" : "_ZN4aidl7android8hardware7sensors23ISensorsCallbackDefault16getInterfaceHashEPNSt3__112basic_stringIcNS4_11char_traitsIcEENS4_9allocatorIcEEEE"
    }
   ]
  },
  {
   "alignment" : 4,
   "base_specifiers" :
   [
    {
     "referenced_type" : "_ZTIN4aidl7android8hardware7sensors17BnSensorsCallbackE"
    }
   ],
   "fields" :
   [
    {
     "access" : "private",
     "field_name" : "_impl",
     "field_offset" : 192,
     "referenced_type" : "_ZTINSt3__110shared_ptrIN4aidl7android8hardware7sensors16ISensorsCallbackEEE"
    }
   ],
   "linker_set_key" : "_ZTIN4aidl7android8hardware7sensors25ISensorsCallbackDelegatorE",
   "name" : "aidl::android::hardware::sensors::ISensorsCallbackDelegator",
   "record_kind" : "class",
   "referenced_type" : "_ZTIN4aidl7android8hardware7sensors25ISensorsCallbackDelegatorE",
   "self_type" : "_ZTIN4aidl7android8hardware7sensors25ISensorsCallbackDelegatorE",
   "size" : 32,
   "source_file" : "out/soong/.intermediates/hardware/interfaces/sensors/aidl/android.hardware.sensors-V1-ndk-source/gen/include/aidl/android/hardware/sensors/BnSensorsCallback.h",
   "vtable_components" :
   [
    {
     "kind" : "offset_to_top"
    },
    {
     "kind" : "rtti",
     "mangled_component_name" : "_ZTIN4aidl7android8hardware7sensors25ISensorsCallbackDelegatorE"
    },
    {
     "kind" : "complete_dtor_pointer",
     "mangled_component_name" : "_ZN4aidl7android8hardware7sensors25ISensorsCallbackDelegatorD1Ev"
    },
    {
     "kind" : "deleting_dtor_pointer",
     "mangled_component_name" : "_ZN4aidl7android8hardware7sensors25ISensorsCallbackDelegatorD0Ev"
    },
    {
     "mangled_component_name" : "_ZN3ndk12BnCInterfaceIN4aidl7android8hardware7sensors16ISensorsCallbackEE8asBinderEv"
    },
    {
     "mangled_component_name" : "_ZN3ndk12BnCInterfaceIN4aidl7android8hardware7sensors16ISensorsCallbackEE8isRemoteEv"
    },
    {
     "mangled_component_name" : "_ZN3ndk11ICInterface4dumpEiPPKcj"
    },
    {
     "mangled_component_name" : "_ZN3ndk11ICInterface18handleShellCommandEiiiPPKcj"
    },
    {
     "mangled_component_name" : "_ZN4aidl7android8hardware7sensors25ISensorsCallbackDelegator25onDynamicSensorsConnectedERKNSt3__16vectorINS2_10SensorInfoENS4_9allocatorIS6_EEEE"
    },
    {
     "mangled_component_name" : "_ZN4aidl7android8hardware7sensors25ISensorsCallbackDelegator28onDynamicSensorsDisconnectedERKNSt3__16vectorIiNS4_9allocatorIiEEEE"
    },
    {
     "mangled_component_name" : "_ZN4aidl7android8hardware7sensors17BnSensorsCallback19getInterfaceVersionEPi"
    },
    {
     "mangled_component_name" : "_ZN4aidl7android8hardware7sensors17BnSensorsCallback16getInterfaceHashEPNSt3__112basic_stringIcNS4_11char_traitsIcEENS4_9allocatorIcEEEE"
    },
    {
     "mangled_component_name" : "_ZN4aidl7android8hardware7sensors17BnSensorsCallback12createBinderEv"
    }
   ]
  },
  {
   "alignment" : 4,
   "fields" :
   [
    {
     "field_name" : "rx",
     "referenced_type" : "_ZTIf"
    },
    {
     "field_name" : "ry",
     "field_offset" : 32,
     "referenced_type" : "_ZTIf"
    },
    {
     "field_name" : "rz",
     "field_offset" : 64,
     "referenced_type" : "_ZTIf"
    },
    {
     "field_name" : "vx",
     "field_offset" : 96,
     "referenced_type" : "_ZTIf"
    },
    {
     "field_name" : "vy",
     "field_offset" : 128,
     "referenced_type" : "_ZTIf"
    },
    {
     "field_name" : "vz",
     "field_offset" : 160,
     "referenced_type" : "_ZTIf"
    },
    {
     "field_name" : "discontinuityCount",
     "field_offset" : 192,
     "referenced_type" : "_ZTIi"
    }
   ],
   "linker_set_key" : "_ZTIN4aidl7android8hardware7sensors5Event12EventPayload11HeadTrackerE",
   "name" : "aidl::android::hardware::sensors::Event::EventPayload::HeadTracker",
   "record_kind" : "class",
   "referenced_type" : "_ZTIN4aidl7android8hardware7sensors5Event12EventPayload11HeadTrackerE",
   "self_type" : "_ZTIN4aidl7android8hardware7sensors5Event12EventPayload11HeadTrackerE",
   "size" : 28,
   "source_file" : "out/soong/.intermediates/hardware/interfaces/sensors/aidl/android.hardware.sensors-V1-ndk-source/gen/include/aidl/android/hardware/sensors/Event.h"
  },
  {
   "alignment" : 4,
   "fields" :
   [
    {
     "field_name" : "x",
     "referenced_type" : "_ZTIf"
    },
    {
     "field_name" : "y",
     "field_offset" : 32,
     "referenced_type" : "_ZTIf"
    },
    {
     "field_name" : "z",
     "field_offset" : 64,
     "referenced_type" : "_ZTIf"
    },
    {
     "field_name" : "xSupported",
