{
 "array_types" : [],
 "builtin_types" :
 [
  {
   "alignment" : 4,
   "linker_set_key" : "_ZTIDn",
   "name" : "std::nullptr_t",
   "referenced_type" : "_ZTIDn",
   "self_type" : "_ZTIDn",
   "size" : 4
  },
  {
   "alignment" : 1,
   "is_integral" : true,
   "linker_set_key" : "_ZTIa",
   "name" : "signed char",
   "referenced_type" : "_ZTIa",
   "self_type" : "_ZTIa",
   "size" : 1
  },
  {
   "alignment" : 1,
   "is_integral" : true,
   "is_unsigned" : true,
   "linker_set_key" : "_ZTIb",
   "name" : "bool",
   "referenced_type" : "_ZTIb",
   "self_type" : "_ZTIb",
   "size" : 1
  },
  {
   "alignment" : 1,
   "is_integral" : true,
   "linker_set_key" : "_ZTIc",
   "name" : "char",
   "referenced_type" : "_ZTIc",
   "self_type" : "_ZTIc",
   "size" : 1
  },
  {
   "alignment" : 4,
   "linker_set_key" : "_ZTIf",
   "name" : "float",
   "referenced_type" : "_ZTIf",
   "self_type" : "_ZTIf",
   "size" : 4
  },
  {
   "alignment" : 1,
   "is_integral" : true,
   "is_unsigned" : true,
   "linker_set_key" : "_ZTIh",
   "name" : "unsigned char",
   "referenced_type" : "_ZTIh",
   "self_type" : "_ZTIh",
   "size" : 1
  },
  {
   "alignment" : 4,
   "is_integral" : true,
   "linker_set_key" : "_ZTIi",
   "name" : "int",
   "referenced_type" : "_ZTIi",
   "self_type" : "_ZTIi",
   "size" : 4
  },
  {
   "alignment" : 4,
   "is_integral" : true,
   "is_unsigned" : true,
   "linker_set_key" : "_ZTIj",
   "name" : "unsigned int",
   "referenced_type" : "_ZTIj",
   "self_type" : "_ZTIj",
   "size" : 4
  },
  {
   "linker_set_key" : "_ZTIv",
   "name" : "void",
   "referenced_type" : "_ZTIv",
   "self_type" : "_ZTIv"
  },
  {
   "alignment" : 4,
   "is_integral" : true,
   "linker_set_key" : "_ZTIx",
   "name" : "long long",
   "referenced_type" : "_ZTIx",
   "self_type" : "_ZTIx",
   "size" : 8
  }
 ],
 "elf_functions" :
 [
  {
   "binding" : "weak",
   "name" : "_ZN3ndk12BnCInterfaceIN4aidl7android8hardware8graphics9composer315IComposerClientEE8asBinderEv"
  },
  {
   "binding" : "weak",
   "name" : "_ZN3ndk12BnCInterfaceIN4aidl7android8hardware8graphics9composer317IComposerCallbackEE8asBinderEv"
  },
  {
   "binding" : "weak",
   "name" : "_ZN3ndk12BnCInterfaceIN4aidl7android8hardware8graphics9composer39IComposerEE8asBinderEv"
  },
  {
   "binding" : "weak",
   "name" : "_ZN3ndk12BpCInterfaceIN4aidl7android8hardware8graphics9composer315IComposerClientEE8asBinderEv"
  },
  {
   "binding" : "weak",
   "name" : "_ZN3ndk12BpCInterfaceIN4aidl7android8hardware8graphics9composer317IComposerCallbackEE8asBinderEv"
  },
  {
   "binding" : "weak",
   "name" : "_ZN3ndk12BpCInterfaceIN4aidl7android8hardware8graphics9composer39IComposerEE8asBinderEv"
  },
  {
   "binding" : "weak",
   "name" : "_ZN3ndk38AParcel_readStdVectorParcelableElementIN4aidl7android8hardware8graphics6common4RectEEEiPK7AParcelPvj"
  },
  {
   "binding" : "weak",
   "name" : "_ZN3ndk38AParcel_readStdVectorParcelableElementIN4aidl7android8hardware8graphics9composer312LayerCommandEEEiPK7AParcelPvj"
  },
  {
   "binding" : "weak",
   "name" : "_ZN3ndk38AParcel_readStdVectorParcelableElementIN4aidl7android8hardware8graphics9composer313ReleaseFences5LayerEEEiPK7AParcelPvj"
  },
  {
   "binding" : "weak",
   "name" : "_ZN3ndk38AParcel_readStdVectorParcelableElementIN4aidl7android8hardware8graphics9composer314DisplayCommandEEEiPK7AParcelPvj"
  },
  {
   "binding" : "weak",
   "name" : "_ZN3ndk38AParcel_readStdVectorParcelableElementIN4aidl7android8hardware8graphics9composer314DisplayRequest12LayerRequestEEEiPK7AParcelPvj"
  },
  {
   "binding" : "weak",
   "name" : "_ZN3ndk38AParcel_readStdVectorParcelableElementIN4aidl7android8hardware8graphics9composer320CommandResultPayloadEEEiPK7AParcelPvj"
  },
  {
   "binding" : "weak",
   "name" : "_ZN3ndk38AParcel_readStdVectorParcelableElementIN4aidl7android8hardware8graphics9composer323ChangedCompositionLayerEEEiPK7AParcelPvj"
  },
  {
   "binding" : "weak",
   "name" : "_ZN3ndk39AParcel_writeStdVectorParcelableElementIN4aidl7android8hardware8graphics6common4RectEEEiP7AParcelPKvj"
  },
  {
   "binding" : "weak",
   "name" : "_ZN3ndk39AParcel_writeStdVectorParcelableElementIN4aidl7android8hardware8graphics9composer312LayerCommandEEEiP7AParcelPKvj"
  },
  {
   "binding" : "weak",
   "name" : "_ZN3ndk39AParcel_writeStdVectorParcelableElementIN4aidl7android8hardware8graphics9composer313ReleaseFences5LayerEEEiP7AParcelPKvj"
  },
  {
   "binding" : "weak",
   "name" : "_ZN3ndk39AParcel_writeStdVectorParcelableElementIN4aidl7android8hardware8graphics9composer314DisplayCommandEEEiP7AParcelPKvj"
  },
  {
   "binding" : "weak",
   "name" : "_ZN3ndk39AParcel_writeStdVectorParcelableElementIN4aidl7android8hardware8graphics9composer314DisplayRequest12LayerRequestEEEiP7AParcelPKvj"
  },
  {
   "binding" : "weak",
   "name" : "_ZN3ndk39AParcel_writeStdVectorParcelableElementIN4aidl7android8hardware8graphics9composer320CommandResultPayloadEEEiP7AParcelPKvj"
  },
  {
   "binding" : "weak",
   "name" : "_ZN3ndk39AParcel_writeStdVectorParcelableElementIN4aidl7android8hardware8graphics9composer323ChangedCompositionLayerEEEiP7AParcelPKvj"
  },
  {
   "binding" : "weak",
   "name" : "_ZN3ndk46AParcel_readNullableStdVectorParcelableElementINSt3__18optionalIN4aidl7android8hardware8graphics6common4RectEEEEEiPK7AParcelPvj"
  },
  {
   "binding" : "weak",
   "name" : "_ZN3ndk46AParcel_readNullableStdVectorParcelableElementINSt3__18optionalIN4aidl7android8hardware8graphics9composer316PerFrameMetadataEEEEEiPK7AParcelPvj"
  },
  {
   "binding" : "weak",
   "name" : "_ZN3ndk46AParcel_readNullableStdVectorParcelableElementINSt3__18optionalIN4aidl7android8hardware8graphics9composer320PerFrameMetadataBlobEEEEEiPK7AParcelPvj"
  },
  {
   "binding" : "weak",
   "name" : "_ZN3ndk47AParcel_writeNullableStdVectorParcelableElementINSt3__18optionalIN4aidl7android8hardware8graphics6common4RectEEEEEiP7AParcelPKvj"
  },
  {
   "binding" : "weak",
   "name" : "_ZN3ndk47AParcel_writeNullableStdVectorParcelableElementINSt3__18optionalIN4aidl7android8hardware8graphics9composer316PerFrameMetadataEEEEEiP7AParcelPKvj"
  },
  {
   "binding" : "weak",
   "name" : "_ZN3ndk47AParcel_writeNullableStdVectorParcelableElementINSt3__18optionalIN4aidl7android8hardware8graphics9composer320PerFrameMetadataBlobEEEEEiP7AParcelPKvj"
  },
  {
   "name" : "_ZN4aidl7android8hardware8graphics9composer310BnComposer12createBinderEv"
  },
  {
   "name" : "_ZN4aidl7android8hardware8graphics9composer310BnComposer16getInterfaceHashEPNSt3__112basic_stringIcNS5_11char_traitsIcEENS5_9allocatorIcEEEE"
  },
  {
   "name" : "_ZN4aidl7android8hardware8graphics9composer310BnComposer19getInterfaceVersionEPi"
  },
  {
   "name" : "_ZN4aidl7android8hardware8graphics9composer310BnComposerC2Ev"
  },
  {
   "name" : "_ZN4aidl7android8hardware8graphics9composer310BnComposerD0Ev"
  },
  {
   "name" : "_ZN4aidl7android8hardware8graphics9composer310BnComposerD1Ev"
  },
  {
   "name" : "_ZN4aidl7android8hardware8graphics9composer310BnComposerD2Ev"
  },
  {
   "name" : "_ZN4aidl7android8hardware8graphics9composer310BpComposer12createClientEPNSt3__110shared_ptrINS3_15IComposerClientEEE"
  },
  {
   "name" : "_ZN4aidl7android8hardware8graphics9composer310BpComposer15getCapabilitiesEPNSt3__16vectorINS3_10CapabilityENS5_9allocatorIS7_EEEE"
  },
  {
   "name" : "_ZN4aidl7android8hardware8graphics9composer310BpComposer16getInterfaceHashEPNSt3__112basic_stringIcNS5_11char_traitsIcEENS5_9allocatorIcEEEE"
  },
  {
   "name" : "_ZN4aidl7android8hardware8graphics9composer310BpComposer19getInterfaceVersionEPi"
  },
  {
   "name" : "_ZN4aidl7android8hardware8graphics9composer310BpComposerC1ERKN3ndk10SpAIBinderE"
  },
  {
   "name" : "_ZN4aidl7android8hardware8graphics9composer310BpComposerC2ERKN3ndk10SpAIBinderE"
  },
  {
   "name" : "_ZN4aidl7android8hardware8graphics9composer310BpComposerD0Ev"
  },
  {
   "name" : "_ZN4aidl7android8hardware8graphics9composer310BpComposerD1Ev"
  },
  {
   "name" : "_ZN4aidl7android8hardware8graphics9composer310BpComposerD2Ev"
  },
  {
   "name" : "_ZN4aidl7android8hardware8graphics9composer310PlaneAlpha14readFromParcelEPK7AParcel"
  },
  {
   "name" : "_ZN4aidl7android8hardware8graphics9composer312ClientTarget14readFromParcelEPK7AParcel"
  },
  {
   "name" : "_ZN4aidl7android8hardware8graphics9composer312CommandError14readFromParcelEPK7AParcel"
  },
  {
   "name" : "_ZN4aidl7android8hardware8graphics9composer312LayerCommand14readFromParcelEPK7AParcel"
  },
  {
   "name" : "_ZN4aidl7android8hardware8graphics9composer312PresentFence14readFromParcelEPK7AParcel"
  },
  {
   "name" : "_ZN4aidl7android8hardware8graphics9composer313ReleaseFences14readFromParcelEPK7AParcel"
  },
  {
   "name" : "_ZN4aidl7android8hardware8graphics9composer313ReleaseFences5Layer14readFromParcelEPK7AParcel"
  },
  {
   "name" : "_ZN4aidl7android8hardware8graphics9composer314DisplayCommand14readFromParcelEPK7AParcel"
  },
  {
   "name" : "_ZN4aidl7android8hardware8graphics9composer314DisplayRequest12LayerRequest14readFromParcelEPK7AParcel"
  },
  {
   "name" : "_ZN4aidl7android8hardware8graphics9composer314DisplayRequest14readFromParcelEPK7AParcel"
  },
  {
   "name" : "_ZN4aidl7android8hardware8graphics9composer314VirtualDisplay14readFromParcelEPK7AParcel"
  },
  {
   "name" : "_ZN4aidl7android8hardware8graphics9composer315HdrCapabilities14readFromParcelEPK7AParcel"
  },
  {
   "name" : "_ZN4aidl7android8hardware8graphics9composer315IComposerClient10fromBinderERKN3ndk10SpAIBinderE"
  },
  {
   "name" : "_ZN4aidl7android8hardware8graphics9composer315IComposerClient13writeToParcelEP7AParcelRKNSt3__110shared_ptrIS4_EE"
  },
  {
   "name" : "_ZN4aidl7android8hardware8graphics9composer315IComposerClient14getDefaultImplEv"
  },
  {
   "name" : "_ZN4aidl7android8hardware8graphics9composer315IComposerClient14readFromParcelEPK7AParcelPNSt3__110shared_ptrIS4_EE"
  },
  {
   "name" : "_ZN4aidl7android8hardware8graphics9composer315IComposerClient14setDefaultImplERKNSt3__110shared_ptrIS4_EE"
  },
  {
   "name" : "_ZN4aidl7android8hardware8graphics9composer315IComposerClientC2Ev"
  },
  {
   "name" : "_ZN4aidl7android8hardware8graphics9composer315IComposerClientD0Ev"
  },
  {
   "name" : "_ZN4aidl7android8hardware8graphics9composer315IComposerClientD1Ev"
  },
  {
   "name" : "_ZN4aidl7android8hardware8graphics9composer315IComposerClientD2Ev"
  },
  {
   "name" : "_ZN4aidl7android8hardware8graphics9composer315LayerBrightness14readFromParcelEPK7AParcel"
  },
  {
   "name" : "_ZN4aidl7android8hardware8graphics9composer316BnComposerClient12createBinderEv"
  },
  {
   "name" : "_ZN4aidl7android8hardware8graphics9composer316BnComposerClient16getInterfaceHashEPNSt3__112basic_stringIcNS5_11char_traitsIcEENS5_9allocatorIcEEEE"
  },
  {
   "name" : "_ZN4aidl7android8hardware8graphics9composer316BnComposerClient19getInterfaceVersionEPi"
  },
  {
   "name" : "_ZN4aidl7android8hardware8graphics9composer316BnComposerClientC2Ev"
  },
  {
   "name" : "_ZN4aidl7android8hardware8graphics9composer316BnComposerClientD0Ev"
  },
  {
   "name" : "_ZN4aidl7android8hardware8graphics9composer316BnComposerClientD1Ev"
  },
  {
   "name" : "_ZN4aidl7android8hardware8graphics9composer316BnComposerClientD2Ev"
  },
  {
   "name" : "_ZN4aidl7android8hardware8graphics9composer316BpComposerClient11createLayerExiPx"
  },
  {
   "name" : "_ZN4aidl7android8hardware8graphics9composer316BpComposerClient12destroyLayerExx"
  },
  {
   "name" : "_ZN4aidl7android8hardware8graphics9composer316BpComposerClient12setColorModeExNS3_9ColorModeENS3_12RenderIntentE"
  },
  {
   "name" : "_ZN4aidl7android8hardware8graphics9composer316BpComposerClient12setPowerModeExNS3_9PowerModeE"
  },
  {
   "name" : "_ZN4aidl7android8hardware8graphics9composer316BpComposerClient13getColorModesExPNSt3__16vectorINS3_9ColorModeENS5_9allocatorIS7_EEEE"
  },
  {
   "name" : "_ZN4aidl7android8hardware8graphics9composer316BpComposerClient14getDisplayNameExPNSt3__112basic_stringIcNS5_11char_traitsIcEENS5_9allocatorIcEEEE"
  },
  {
   "name" : "_ZN4aidl7android8hardware8graphics9composer316BpComposerClient14setContentTypeExNS3_11ContentTypeE"
  },
  {
   "name" : "_ZN4aidl7android8hardware8graphics9composer316BpComposerClient15executeCommandsERKNSt3__16vectorINS3_14DisplayCommandENS5_9allocatorIS7_EEEEPNS6_INS3_20CommandResultPayloadENS8_ISD_EEEE"
  },
  {
   "name" : "_ZN4aidl7android8hardware8graphics9composer316BpComposerClient15getActiveConfigExPi"
  },
  {
   "name" : "_ZN4aidl7android8hardware8graphics9composer316BpComposerClient15setActiveConfigExi"
  },
  {
   "name" : "_ZN4aidl7android8hardware8graphics9composer316BpComposerClient15setVsyncEnabledExb"
  },
  {
   "name" : "_ZN4aidl7android8hardware8graphics9composer316BpComposerClient16getInterfaceHashEPNSt3__112basic_stringIcNS5_11char_traitsIcEENS5_9allocatorIcEEEE"
  },
  {
   "name" : "_ZN4aidl7android8hardware8graphics9composer316BpComposerClient16getRenderIntentsExNS3_9ColorModeEPNSt3__16vectorINS3_12RenderIntentENS6_9allocatorIS8_EEEE"
  },
  {
   "name" : "_ZN4aidl7android8hardware8graphics9composer316BpComposerClient16registerCallbackERKNSt3__110shared_ptrINS3_17IComposerCallbackEEE"
  },
  {
   "name" : "_ZN4aidl7android8hardware8graphics9composer316BpComposerClient17getDisplayConfigsExPNSt3__16vectorIiNS5_9allocatorIiEEEE"
  },
  {
   "name" : "_ZN4aidl7android8hardware8graphics9composer316BpComposerClient17setReadbackBufferExRKNS1_6common12NativeHandleERKN3ndk20ScopedFileDescriptorE"
  },
  {
   "name" : "_ZN4aidl7android8hardware8graphics9composer316BpComposerClient18getHdrCapabilitiesExPNS3_15HdrCapabilitiesE"
  },
  {
   "name" : "_ZN4aidl7android8hardware8graphics9composer316BpComposerClient19getDisplayAttributeExiNS3_16DisplayAttributeEPi"
  },
  {
   "name" : "_ZN4aidl7android8hardware8graphics9composer316BpComposerClient19getInterfaceVersionEPi"
  },
  {
   "name" : "_ZN4aidl7android8hardware8graphics9composer316BpComposerClient19setIdleTimerEnabledExi"
  },
  {
   "name" : "_ZN4aidl7android8hardware8graphics9composer316BpComposerClient20createVirtualDisplayEiiNS2_6common11PixelFormatEiPNS3_14VirtualDisplayE"
  },
  {
   "name" : "_ZN4aidl7android8hardware8graphics9composer316BpComposerClient20setBootDisplayConfigExi"
  },
  {
   "name" : "_ZN4aidl7android8hardware8graphics9composer316BpComposerClient21destroyVirtualDisplayEx"
  },
  {
   "name" : "_ZN4aidl7android8hardware8graphics9composer316BpComposerClient21getDisplayVsyncPeriodExPi"
  },
  {
   "name" : "_ZN4aidl7android8hardware8graphics9composer316BpComposerClient21setAutoLowLatencyModeExb"
  },
  {
   "name" : "_ZN4aidl7android8hardware8graphics9composer316BpComposerClient22clearBootDisplayConfigEx"
  },
  {
   "name" : "_ZN4aidl7android8hardware8graphics9composer316BpComposerClient22getDisplayCapabilitiesExPNSt3__16vectorINS3_17DisplayCapabilityENS5_9allocatorIS7_EEEE"
  },
  {
   "name" : "_ZN4aidl7android8hardware8graphics9composer316BpComposerClient22getReadbackBufferFenceExPN3ndk20ScopedFileDescriptorE"
  },
  {
   "name" : "_ZN4aidl7android8hardware8graphics9composer316BpComposerClient23getPerFrameMetadataKeysExPNSt3__16vectorINS3_19PerFrameMetadataKeyENS5_9allocatorIS7_EEEE"
  },
  {
   "name" : "_ZN4aidl7android8hardware8graphics9composer316BpComposerClient24getDisplayConnectionTypeExPNS3_21DisplayConnectionTypeE"
  },
  {
   "name" : "_ZN4aidl7android8hardware8graphics9composer316BpComposerClient24getSupportedContentTypesExPNSt3__16vectorINS3_11ContentTypeENS5_9allocatorIS7_EEEE"
  },
  {
   "name" : "_ZN4aidl7android8hardware8graphics9composer316BpComposerClient24setClientTargetSlotCountExi"
  },
  {
   "name" : "_ZN4aidl7android8hardware8graphics9composer316BpComposerClient25getDisplayedContentSampleExxxPNS3_20DisplayContentSampleE"
  },
  {
   "name" : "_ZN4aidl7android8hardware8graphics9composer316BpComposerClient25getMaxVirtualDisplayCountEPi"
  },
  {
   "name" : "_ZN4aidl7android8hardware8graphics9composer316BpComposerClient27getDisplayDecorationSupportExPNSt3__18optionalINS2_6common24DisplayDecorationSupportEEE"
  },
  {
   "name" : "_ZN4aidl7android8hardware8graphics9composer316BpComposerClient27getReadbackBufferAttributesExPNS3_24ReadbackBufferAttributesE"
  },
  {
   "name" : "_ZN4aidl7android8hardware8graphics9composer316BpComposerClient28getDataspaceSaturationMatrixENS2_6common9DataspaceEPNSt3__16vectorIfNS7_9allocatorIfEEEE"
  },
  {
   "name" : "_ZN4aidl7android8hardware8graphics9composer316BpComposerClient28getDisplayIdentificationDataExPNS3_21DisplayIdentificationE"
  },
  {
   "name" : "_ZN4aidl7android8hardware8graphics9composer316BpComposerClient29getDisplayPhysicalOrientationExPNS2_6common9TransformE"
  },
  {
   "name" : "_ZN4aidl7android8hardware8graphics9composer316BpComposerClient29getPreferredBootDisplayConfigExPi"
  },
  {
   "name" : "_ZN4aidl7android8hardware8graphics9composer316BpComposerClient30setActiveConfigWithConstraintsExiRKNS3_28VsyncPeriodChangeConstraintsEPNS3_25VsyncPeriodChangeTimelineE"
  },
  {
   "name" : "_ZN4aidl7android8hardware8graphics9composer316BpComposerClient34setDisplayedContentSamplingEnabledExbNS3_20FormatColorComponentEx"
  },
  {
   "name" : "_ZN4aidl7android8hardware8graphics9composer316BpComposerClient37getDisplayedContentSamplingAttributesExPNS3_32DisplayContentSamplingAttributesE"
  },
  {
   "name" : "_ZN4aidl7android8hardware8graphics9composer316BpComposerClientC1ERKN3ndk10SpAIBinderE"
  },
  {
   "name" : "_ZN4aidl7android8hardware8graphics9composer316BpComposerClientC2ERKN3ndk10SpAIBinderE"
  },
  {
   "name" : "_ZN4aidl7android8hardware8graphics9composer316BpComposerClientD0Ev"
  },
  {
   "name" : "_ZN4aidl7android8hardware8graphics9composer316BpComposerClientD1Ev"
  },
  {
   "name" : "_ZN4aidl7android8hardware8graphics9composer316BpComposerClientD2Ev"
  },
  {
   "name" : "_ZN4aidl7android8hardware8graphics9composer316IComposerDefault12createClientEPNSt3__110shared_ptrINS3_15IComposerClientEEE"
  },
  {
   "name" : "_ZN4aidl7android8hardware8graphics9composer316IComposerDefault15getCapabilitiesEPNSt3__16vectorINS3_10CapabilityENS5_9allocatorIS7_EEEE"
  },
  {
   "name" : "_ZN4aidl7android8hardware8graphics9composer316IComposerDefault16getInterfaceHashEPNSt3__112basic_stringIcNS5_11char_traitsIcEENS5_9allocatorIcEEEE"
  },
  {
   "name" : "_ZN4aidl7android8hardware8graphics9composer316IComposerDefault19getInterfaceVersionEPi"
  },
  {
   "name" : "_ZN4aidl7android8hardware8graphics9composer316IComposerDefault8asBinderEv"
  },
  {
   "name" : "_ZN4aidl7android8hardware8graphics9composer316IComposerDefault8isRemoteEv"
  },
  {
   "name" : "_ZN4aidl7android8hardware8graphics9composer316PerFrameMetadata14readFromParcelEPK7AParcel"
  },
  {
   "name" : "_ZN4aidl7android8hardware8graphics9composer317DisplayBrightness14readFromParcelEPK7AParcel"
  },
  {
   "name" : "_ZN4aidl7android8hardware8graphics9composer317IComposerCallback10fromBinderERKN3ndk10SpAIBinderE"
  },
  {
   "name" : "_ZN4aidl7android8hardware8graphics9composer317IComposerCallback13writeToParcelEP7AParcelRKNSt3__110shared_ptrIS4_EE"
  },
  {
   "name" : "_ZN4aidl7android8hardware8graphics9composer317IComposerCallback14getDefaultImplEv"
  },
  {
   "name" : "_ZN4aidl7android8hardware8graphics9composer317IComposerCallback14readFromParcelEPK7AParcelPNSt3__110shared_ptrIS4_EE"
  },
  {
   "name" : "_ZN4aidl7android8hardware8graphics9composer317IComposerCallback14setDefaultImplERKNSt3__110shared_ptrIS4_EE"
  },
  {
   "name" : "_ZN4aidl7android8hardware8graphics9composer317IComposerCallbackC2Ev"
  },
  {
   "name" : "_ZN4aidl7android8hardware8graphics9composer317IComposerCallbackD0Ev"
  },
  {
   "name" : "_ZN4aidl7android8hardware8graphics9composer317IComposerCallbackD1Ev"
  },
  {
   "name" : "_ZN4aidl7android8hardware8graphics9composer317IComposerCallbackD2Ev"
  },
  {
   "name" : "_ZN4aidl7android8hardware8graphics9composer317PresentOrValidate14readFromParcelEPK7AParcel"
  },
  {
   "name" : "_ZN4aidl7android8hardware8graphics9composer318BnComposerCallback12createBinderEv"
  },
  {
   "name" : "_ZN4aidl7android8hardware8graphics9composer318BnComposerCallback16getInterfaceHashEPNSt3__112basic_stringIcNS5_11char_traitsIcEENS5_9allocatorIcEEEE"
  },
  {
   "name" : "_ZN4aidl7android8hardware8graphics9composer318BnComposerCallback19getInterfaceVersionEPi"
  },
  {
   "name" : "_ZN4aidl7android8hardware8graphics9composer318BnComposerCallbackC2Ev"
  },
  {
   "name" : "_ZN4aidl7android8hardware8graphics9composer318BnComposerCallbackD0Ev"
  },
  {
   "name" : "_ZN4aidl7android8hardware8graphics9composer318BnComposerCallbackD1Ev"
  },
  {
   "name" : "_ZN4aidl7android8hardware8graphics9composer318BnComposerCallbackD2Ev"
  },
  {
   "name" : "_ZN4aidl7android8hardware8graphics9composer318BpComposerCallback11onVsyncIdleEx"
  },
  {
   "name" : "_ZN4aidl7android8hardware8graphics9composer318BpComposerCallback16getInterfaceHashEPNSt3__112basic_stringIcNS5_11char_traitsIcEENS5_9allocatorIcEEEE"
  },
  {
   "name" : "_ZN4aidl7android8hardware8graphics9composer318BpComposerCallback18onSeamlessPossibleEx"
  },
  {
   "name" : "_ZN4aidl7android8hardware8graphics9composer318BpComposerCallback19getInterfaceVersionEPi"
  },
  {
   "name" : "_ZN4aidl7android8hardware8graphics9composer318BpComposerCallback26onVsyncPeriodTimingChangedExRKNS3_25VsyncPeriodChangeTimelineE"
  },
  {
   "name" : "_ZN4aidl7android8hardware8graphics9composer318BpComposerCallback7onVsyncExxi"
  },
  {
   "name" : "_ZN4aidl7android8hardware8graphics9composer318BpComposerCallback9onHotplugExb"
  },
  {
   "name" : "_ZN4aidl7android8hardware8graphics9composer318BpComposerCallback9onRefreshEx"
  },
  {
   "name" : "_ZN4aidl7android8hardware8graphics9composer318BpComposerCallbackC1ERKN3ndk10SpAIBinderE"
  },
  {
   "name" : "_ZN4aidl7android8hardware8graphics9composer318BpComposerCallbackC2ERKN3ndk10SpAIBinderE"
  },
  {
   "name" : "_ZN4aidl7android8hardware8graphics9composer318BpComposerCallbackD0Ev"
  },
  {
   "name" : "_ZN4aidl7android8hardware8graphics9composer318BpComposerCallbackD1Ev"
  },
  {
   "name" : "_ZN4aidl7android8hardware8graphics9composer318BpComposerCallbackD2Ev"
  },
  {
   "name" : "_ZN4aidl7android8hardware8graphics9composer319ParcelableBlendMode14readFromParcelEPK7AParcel"
  },
  {
   "name" : "_ZN4aidl7android8hardware8graphics9composer319ParcelableDataspace14readFromParcelEPK7AParcel"
  },
  {
   "name" : "_ZN4aidl7android8hardware8graphics9composer319ParcelableTransform14readFromParcelEPK7AParcel"
  },
  {
   "name" : "_ZN4aidl7android8hardware8graphics9composer320ClientTargetProperty14readFromParcelEPK7AParcel"
  },
  {
   "name" : "_ZN4aidl7android8hardware8graphics9composer320CommandResultPayload14readFromParcelEPK7AParcel"
  },
  {
   "name" : "_ZN4aidl7android8hardware8graphics9composer320DisplayContentSample14readFromParcelEPK7AParcel"
  },
  {
   "name" : "_ZN4aidl7android8hardware8graphics9composer320PerFrameMetadataBlob14readFromParcelEPK7AParcel"
  },
  {
   "name" : "_ZN4aidl7android8hardware8graphics9composer321DisplayIdentification14readFromParcelEPK7AParcel"
  },
  {
   "name" : "_ZN4aidl7android8hardware8graphics9composer321ParcelableComposition14readFromParcelEPK7AParcel"
  },
  {
   "name" : "_ZN4aidl7android8hardware8graphics9composer322IComposerClientDefault11createLayerExiPx"
  },
  {
   "name" : "_ZN4aidl7android8hardware8graphics9composer322IComposerClientDefault12destroyLayerExx"
  },
  {
   "name" : "_ZN4aidl7android8hardware8graphics9composer322IComposerClientDefault12setColorModeExNS3_9ColorModeENS3_12RenderIntentE"
  },
  {
   "name" : "_ZN4aidl7android8hardware8graphics9composer322IComposerClientDefault12setPowerModeExNS3_9PowerModeE"
  },
  {
   "name" : "_ZN4aidl7android8hardware8graphics9composer322IComposerClientDefault13getColorModesExPNSt3__16vectorINS3_9ColorModeENS5_9allocatorIS7_EEEE"
  },
  {
   "name" : "_ZN4aidl7android8hardware8graphics9composer322IComposerClientDefault14getDisplayNameExPNSt3__112basic_stringIcNS5_11char_traitsIcEENS5_9allocatorIcEEEE"
  },
  {
   "name" : "_ZN4aidl7android8hardware8graphics9composer322IComposerClientDefault14setContentTypeExNS3_11ContentTypeE"
  },
  {
   "name" : "_ZN4aidl7android8hardware8graphics9composer322IComposerClientDefault15executeCommandsERKNSt3__16vectorINS3_14DisplayCommandENS5_9allocatorIS7_EEEEPNS6_INS3_20CommandResultPayloadENS8_ISD_EEEE"
  },
  {
   "name" : "_ZN4aidl7android8hardware8graphics9composer322IComposerClientDefault15getActiveConfigExPi"
  },
  {
   "name" : "_ZN4aidl7android8hardware8graphics9composer322IComposerClientDefault15setActiveConfigExi"
  },
  {
   "name" : "_ZN4aidl7android8hardware8graphics9composer322IComposerClientDefault15setVsyncEnabledExb"
  },
  {
   "name" : "_ZN4aidl7android8hardware8graphics9composer322IComposerClientDefault16getInterfaceHashEPNSt3__112basic_stringIcNS5_11char_traitsIcEENS5_9allocatorIcEEEE"
  },
  {
   "name" : "_ZN4aidl7android8hardware8graphics9composer322IComposerClientDefault16getRenderIntentsExNS3_9ColorModeEPNSt3__16vectorINS3_12RenderIntentENS6_9allocatorIS8_EEEE"
  },
  {
   "name" : "_ZN4aidl7android8hardware8graphics9composer322IComposerClientDefault16registerCallbackERKNSt3__110shared_ptrINS3_17IComposerCallbackEEE"
  },
  {
   "name" : "_ZN4aidl7android8hardware8graphics9composer322IComposerClientDefault17getDisplayConfigsExPNSt3__16vectorIiNS5_9allocatorIiEEEE"
  },
  {
   "name" : "_ZN4aidl7android8hardware8graphics9composer322IComposerClientDefault17setReadbackBufferExRKNS1_6common12NativeHandleERKN3ndk20ScopedFileDescriptorE"
  },
  {
   "name" : "_ZN4aidl7android8hardware8graphics9composer322IComposerClientDefault18getHdrCapabilitiesExPNS3_15HdrCapabilitiesE"
  },
  {
   "name" : "_ZN4aidl7android8hardware8graphics9composer322IComposerClientDefault19getDisplayAttributeExiNS3_16DisplayAttributeEPi"
  },
  {
   "name" : "_ZN4aidl7android8hardware8graphics9composer322IComposerClientDefault19getInterfaceVersionEPi"
  },
  {
   "name" : "_ZN4aidl7android8hardware8graphics9composer322IComposerClientDefault19setIdleTimerEnabledExi"
  },
  {
   "name" : "_ZN4aidl7android8hardware8graphics9composer322IComposerClientDefault20createVirtualDisplayEiiNS2_6common11PixelFormatEiPNS3_14VirtualDisplayE"
  },
  {
   "name" : "_ZN4aidl7android8hardware8graphics9composer322IComposerClientDefault20setBootDisplayConfigExi"
  },
  {
   "name" : "_ZN4aidl7android8hardware8graphics9composer322IComposerClientDefault21destroyVirtualDisplayEx"
  },
  {
   "name" : "_ZN4aidl7android8hardware8graphics9composer322IComposerClientDefault21getDisplayVsyncPeriodExPi"
  },
  {
   "name" : "_ZN4aidl7android8hardware8graphics9composer322IComposerClientDefault21setAutoLowLatencyModeExb"
  },
  {
   "name" : "_ZN4aidl7android8hardware8graphics9composer322IComposerClientDefault22clearBootDisplayConfigEx"
  },
  {
   "name" : "_ZN4aidl7android8hardware8graphics9composer322IComposerClientDefault22getDisplayCapabilitiesExPNSt3__16vectorINS3_17DisplayCapabilityENS5_9allocatorIS7_EEEE"
  },
  {
   "name" : "_ZN4aidl7android8hardware8graphics9composer322IComposerClientDefault22getReadbackBufferFenceExPN3ndk20ScopedFileDescriptorE"
  },
  {
   "name" : "_ZN4aidl7android8hardware8graphics9composer322IComposerClientDefault23getPerFrameMetadataKeysExPNSt3__16vectorINS3_19PerFrameMetadataKeyENS5_9allocatorIS7_EEEE"
  },
  {
   "name" : "_ZN4aidl7android8hardware8graphics9composer322IComposerClientDefault24getDisplayConnectionTypeExPNS3_21DisplayConnectionTypeE"
  },
  {
   "name" : "_ZN4aidl7android8hardware8graphics9composer322IComposerClientDefault24getSupportedContentTypesExPNSt3__16vectorINS3_11ContentTypeENS5_9allocatorIS7_EEEE"
  },
  {
   "name" : "_ZN4aidl7android8hardware8graphics9composer322IComposerClientDefault24setClientTargetSlotCountExi"
  },
  {
   "name" : "_ZN4aidl7android8hardware8graphics9composer322IComposerClientDefault25getDisplayedContentSampleExxxPNS3_20DisplayContentSampleE"
  },
  {
   "name" : "_ZN4aidl7android8hardware8graphics9composer322IComposerClientDefault25getMaxVirtualDisplayCountEPi"
  },
  {
   "name" : "_ZN4aidl7android8hardware8graphics9composer322IComposerClientDefault27getDisplayDecorationSupportExPNSt3__18optionalINS2_6common24DisplayDecorationSupportEEE"
  },
  {
   "name" : "_ZN4aidl7android8hardware8graphics9composer322IComposerClientDefault27getReadbackBufferAttributesExPNS3_24ReadbackBufferAttributesE"
  },
  {
   "name" : "_ZN4aidl7android8hardware8graphics9composer322IComposerClientDefault28getDataspaceSaturationMatrixENS2_6common9DataspaceEPNSt3__16vectorIfNS7_9allocatorIfEEEE"
  },
  {
   "name" : "_ZN4aidl7android8hardware8graphics9composer322IComposerClientDefault28getDisplayIdentificationDataExPNS3_21DisplayIdentificationE"
  },
  {
   "name" : "_ZN4aidl7android8hardware8graphics9composer322IComposerClientDefault29getDisplayPhysicalOrientationExPNS2_6common9TransformE"
  },
  {
   "name" : "_ZN4aidl7android8hardware8graphics9composer322IComposerClientDefault29getPreferredBootDisplayConfigExPi"
  },
  {
   "name" : "_ZN4aidl7android8hardware8graphics9composer322IComposerClientDefault30setActiveConfigWithConstraintsExiRKNS3_28VsyncPeriodChangeConstraintsEPNS3_25VsyncPeriodChangeTimelineE"
  },
  {
   "name" : "_ZN4aidl7android8hardware8graphics9composer322IComposerClientDefault34setDisplayedContentSamplingEnabledExbNS3_20FormatColorComponentEx"
  },
  {
   "name" : "_ZN4aidl7android8hardware8graphics9composer322IComposerClientDefault37getDisplayedContentSamplingAttributesExPNS3_32DisplayContentSamplingAttributesE"
  },
  {
   "name" : "_ZN4aidl7android8hardware8graphics9composer322IComposerClientDefault8asBinderEv"
  },
  {
   "name" : "_ZN4aidl7android8hardware8graphics9composer322IComposerClientDefault8isRemoteEv"
  },
  {
   "name" : "_ZN4aidl7android8hardware8graphics9composer323ChangedCompositionLayer14readFromParcelEPK7AParcel"
  },
  {
   "name" : "_ZN4aidl7android8hardware8graphics9composer323ChangedCompositionTypes14readFromParcelEPK7AParcel"
  },
  {
   "name" : "_ZN4aidl7android8hardware8graphics9composer323ClockMonotonicTimestamp14readFromParcelEPK7AParcel"
  },
  {
   "name" : "_ZN4aidl7android8hardware8graphics9composer324IComposerCallbackDefault11onVsyncIdleEx"
  },
  {
   "name" : "_ZN4aidl7android8hardware8graphics9composer324IComposerCallbackDefault16getInterfaceHashEPNSt3__112basic_stringIcNS5_11char_traitsIcEENS5_9allocatorIcEEEE"
  },
  {
   "name" : "_ZN4aidl7android8hardware8graphics9composer324IComposerCallbackDefault18onSeamlessPossibleEx"
  },
  {
   "name" : "_ZN4aidl7android8hardware8graphics9composer324IComposerCallbackDefault19getInterfaceVersionEPi"
  },
  {
   "name" : "_ZN4aidl7android8hardware8graphics9composer324IComposerCallbackDefault26onVsyncPeriodTimingChangedExRKNS3_25VsyncPeriodChangeTimelineE"
  },
  {
   "name" : "_ZN4aidl7android8hardware8graphics9composer324IComposerCallbackDefault7onVsyncExxi"
  },
  {
   "name" : "_ZN4aidl7android8hardware8graphics9composer324IComposerCallbackDefault8asBinderEv"
  },
  {
   "name" : "_ZN4aidl7android8hardware8graphics9composer324IComposerCallbackDefault8isRemoteEv"
  },
  {
   "name" : "_ZN4aidl7android8hardware8graphics9composer324IComposerCallbackDefault9onHotplugExb"
  },
  {
   "name" : "_ZN4aidl7android8hardware8graphics9composer324IComposerCallbackDefault9onRefreshEx"
  },
  {
   "name" : "_ZN4aidl7android8hardware8graphics9composer324ReadbackBufferAttributes14readFromParcelEPK7AParcel"
  },
  {
   "name" : "_ZN4aidl7android8hardware8graphics9composer325VsyncPeriodChangeTimeline14readFromParcelEPK7AParcel"
  },
  {
   "name" : "_ZN4aidl7android8hardware8graphics9composer328VsyncPeriodChangeConstraints14readFromParcelEPK7AParcel"
  },
  {
   "name" : "_ZN4aidl7android8hardware8graphics9composer332DisplayContentSamplingAttributes14readFromParcelEPK7AParcel"
  },
  {
   "name" : "_ZN4aidl7android8hardware8graphics9composer334ClientTargetPropertyWithBrightness14readFromParcelEPK7AParcel"
  },
  {
   "name" : "_ZN4aidl7android8hardware8graphics9composer35Color14readFromParcelEPK7AParcel"
  },
  {
   "name" : "_ZN4aidl7android8hardware8graphics9composer36Buffer14readFromParcelEPK7AParcel"
  },
  {
   "name" : "_ZN4aidl7android8hardware8graphics9composer36ZOrder14readFromParcelEPK7AParcel"
  },
  {
   "name" : "_ZN4aidl7android8hardware8graphics9composer39IComposer10fromBinderERKN3ndk10SpAIBinderE"
  },
  {
   "name" : "_ZN4aidl7android8hardware8graphics9composer39IComposer13writeToParcelEP7AParcelRKNSt3__110shared_ptrIS4_EE"
  },
  {
   "name" : "_ZN4aidl7android8hardware8graphics9composer39IComposer14getDefaultImplEv"
  },
  {
   "name" : "_ZN4aidl7android8hardware8graphics9composer39IComposer14readFromParcelEPK7AParcelPNSt3__110shared_ptrIS4_EE"
  },
  {
   "name" : "_ZN4aidl7android8hardware8graphics9composer39IComposer14setDefaultImplERKNSt3__110shared_ptrIS4_EE"
  },
  {
   "name" : "_ZN4aidl7android8hardware8graphics9composer39IComposerC2Ev"
  },
  {
   "name" : "_ZN4aidl7android8hardware8graphics9composer39IComposerD0Ev"
  },
  {
   "name" : "_ZN4aidl7android8hardware8graphics9composer39IComposerD1Ev"
  },
  {
   "name" : "_ZN4aidl7android8hardware8graphics9composer39IComposerD2Ev"
  },
  {
   "name" : "_ZNK4aidl7android8hardware8graphics9composer310PlaneAlpha13writeToParcelEP7AParcel"
  },
  {
   "name" : "_ZNK4aidl7android8hardware8graphics9composer312ClientTarget13writeToParcelEP7AParcel"
  },
  {
   "name" : "_ZNK4aidl7android8hardware8graphics9composer312CommandError13writeToParcelEP7AParcel"
  },
  {
   "name" : "_ZNK4aidl7android8hardware8graphics9composer312LayerCommand13writeToParcelEP7AParcel"
  },
  {
   "name" : "_ZNK4aidl7android8hardware8graphics9composer312PresentFence13writeToParcelEP7AParcel"
  },
  {
   "name" : "_ZNK4aidl7android8hardware8graphics9composer313ReleaseFences13writeToParcelEP7AParcel"
  },
  {
   "name" : "_ZNK4aidl7android8hardware8graphics9composer313ReleaseFences5Layer13writeToParcelEP7AParcel"
  },
  {
   "name" : "_ZNK4aidl7android8hardware8graphics9composer314DisplayCommand13writeToParcelEP7AParcel"
  },
  {
   "name" : "_ZNK4aidl7android8hardware8graphics9composer314DisplayRequest12LayerRequest13writeToParcelEP7AParcel"
  },
  {
   "name" : "_ZNK4aidl7android8hardware8graphics9composer314DisplayRequest13writeToParcelEP7AParcel"
  },
  {
   "name" : "_ZNK4aidl7android8hardware8graphics9composer314VirtualDisplay13writeToParcelEP7AParcel"
  },
  {
   "name" : "_ZNK4aidl7android8hardware8graphics9composer315HdrCapabilities13writeToParcelEP7AParcel"
  },
  {
   "name" : "_ZNK4aidl7android8hardware8graphics9composer315LayerBrightness13writeToParcelEP7AParcel"
  },
  {
   "name" : "_ZNK4aidl7android8hardware8graphics9composer316PerFrameMetadata13writeToParcelEP7AParcel"
  },
  {
   "name" : "_ZNK4aidl7android8hardware8graphics9composer317DisplayBrightness13writeToParcelEP7AParcel"
  },
  {
   "name" : "_ZNK4aidl7android8hardware8graphics9composer317PresentOrValidate13writeToParcelEP7AParcel"
  },
  {
   "name" : "_ZNK4aidl7android8hardware8graphics9composer319ParcelableBlendMode13writeToParcelEP7AParcel"
  },
  {
   "name" : "_ZNK4aidl7android8hardware8graphics9composer319ParcelableDataspace13writeToParcelEP7AParcel"
  },
  {
   "name" : "_ZNK4aidl7android8hardware8graphics9composer319ParcelableTransform13writeToParcelEP7AParcel"
  },
  {
   "name" : "_ZNK4aidl7android8hardware8graphics9composer320ClientTargetProperty13writeToParcelEP7AParcel"
  },
  {
   "name" : "_ZNK4aidl7android8hardware8graphics9composer320CommandResultPayload13writeToParcelEP7AParcel"
  },
  {
   "name" : "_ZNK4aidl7android8hardware8graphics9composer320DisplayContentSample13writeToParcelEP7AParcel"
  },
  {
   "name" : "_ZNK4aidl7android8hardware8graphics9composer320PerFrameMetadataBlob13writeToParcelEP7AParcel"
  },
  {
   "name" : "_ZNK4aidl7android8hardware8graphics9composer321DisplayIdentification13writeToParcelEP7AParcel"
  },
  {
   "name" : "_ZNK4aidl7android8hardware8graphics9composer321ParcelableComposition13writeToParcelEP7AParcel"
  },
  {
   "name" : "_ZNK4aidl7android8hardware8graphics9composer323ChangedCompositionLayer13writeToParcelEP7AParcel"
  },
  {
   "name" : "_ZNK4aidl7android8hardware8graphics9composer323ChangedCompositionTypes13writeToParcelEP7AParcel"
  },
  {
   "name" : "_ZNK4aidl7android8hardware8graphics9composer323ClockMonotonicTimestamp13writeToParcelEP7AParcel"
  },
  {
   "name" : "_ZNK4aidl7android8hardware8graphics9composer324ReadbackBufferAttributes13writeToParcelEP7AParcel"
  },
  {
   "name" : "_ZNK4aidl7android8hardware8graphics9composer325VsyncPeriodChangeTimeline13writeToParcelEP7AParcel"
  },
  {
   "name" : "_ZNK4aidl7android8hardware8graphics9composer328VsyncPeriodChangeConstraints13writeToParcelEP7AParcel"
  },
  {
   "name" : "_ZNK4aidl7android8hardware8graphics9composer332DisplayContentSamplingAttributes13writeToParcelEP7AParcel"
  },
  {
   "name" : "_ZNK4aidl7android8hardware8graphics9composer334ClientTargetPropertyWithBrightness13writeToParcelEP7AParcel"
  },
  {
   "name" : "_ZNK4aidl7android8hardware8graphics9composer35Color13writeToParcelEP7AParcel"
  },
  {
   "name" : "_ZNK4aidl7android8hardware8graphics9composer36Buffer13writeToParcelEP7AParcel"
  },
  {
   "name" : "_ZNK4aidl7android8hardware8graphics9composer36ZOrder13writeToParcelEP7AParcel"
  },
  {
   "binding" : "weak",
   "name" : "_ZNSt3__110shared_ptrIN4aidl7android8hardware8graphics9composer315IComposerClientEED2Ev"
  },
  {
   "binding" : "weak",
   "name" : "_ZNSt3__110shared_ptrIN4aidl7android8hardware8graphics9composer317IComposerCallbackEED2Ev"
  },
  {
   "binding" : "weak",
   "name" : "_ZNSt3__110shared_ptrIN4aidl7android8hardware8graphics9composer39IComposerEED2Ev"
  },
  {
   "binding" : "weak",
   "name" : "_ZNSt3__120__shared_ptr_pointerIPN3ndk13SharedRefBaseENS_14default_deleteIS2_EENS_9allocatorIS2_EEE16__on_zero_sharedEv"
  },
  {
   "binding" : "weak",
   "name" : "_ZNSt3__120__shared_ptr_pointerIPN3ndk13SharedRefBaseENS_14default_deleteIS2_EENS_9allocatorIS2_EEE21__on_zero_shared_weakEv"
  },
  {
   "binding" : "weak",
   "name" : "_ZNSt3__16vectorIN4aidl7android8hardware8graphics6common4RectENS_9allocatorIS6_EEE8__appendEj"
  },
  {
   "binding" : "weak",
   "name" : "_ZNSt3__16vectorIN4aidl7android8hardware8graphics9composer312LayerCommandENS_9allocatorIS6_EEE8__appendEj"
  },
  {
   "binding" : "weak",
   "name" : "_ZNSt3__16vectorIN4aidl7android8hardware8graphics9composer313ReleaseFences5LayerENS_9allocatorIS7_EEE8__appendEj"
  },
  {
   "binding" : "weak",
   "name" : "_ZNSt3__16vectorIN4aidl7android8hardware8graphics9composer314DisplayCommandENS_9allocatorIS6_EEE8__appendEj"
  },
  {
   "binding" : "weak",
   "name" : "_ZNSt3__16vectorIN4aidl7android8hardware8graphics9composer314DisplayRequest12LayerRequestENS_9allocatorIS7_EEE8__appendEj"
  },
  {
   "binding" : "weak",
   "name" : "_ZNSt3__16vectorIN4aidl7android8hardware8graphics9composer320CommandResultPayloadENS_9allocatorIS6_EEE8__appendEj"
  },
  {
   "binding" : "weak",
   "name" : "_ZNSt3__16vectorIN4aidl7android8hardware8graphics9composer323ChangedCompositionLayerENS_9allocatorIS6_EEE8__appendEj"
  },
  {
   "binding" : "weak",
   "name" : "_ZNSt3__16vectorINS_8optionalIN4aidl7android8hardware8graphics6common4RectEEENS_9allocatorIS8_EEE8__appendEj"
  },
  {
   "binding" : "weak",
   "name" : "_ZNSt3__16vectorINS_8optionalIN4aidl7android8hardware8graphics9composer316PerFrameMetadataEEENS_9allocatorIS8_EEE8__appendEj"
  },
  {
   "binding" : "weak",
   "name" : "_ZNSt3__16vectorINS_8optionalIN4aidl7android8hardware8graphics9composer320PerFrameMetadataBlobEEENS_9allocatorIS8_EEE8__appendEj"
  },
  {
   "binding" : "weak",
   "name" : "_ZNSt3__16vectorIaNS_9allocatorIaEEE8__appendEj"
  },
  {
   "binding" : "weak",
   "name" : "_ZNSt3__16vectorIfNS_9allocatorIfEEE8__appendEj"
  },
  {
   "binding" : "weak",
   "name" : "_ZNSt3__16vectorIiNS_9allocatorIiEEE8__appendEj"
  },
  {
   "binding" : "weak",
   "name" : "_ZNSt3__16vectorIxNS_9allocatorIxEEE8__appendEj"
  }
 ],
 "elf_objects" :
 [
  {
   "binding" : "weak",
   "name" : "_ZGVN4aidl7android8hardware8graphics9composer315IComposerClient4hashE"
  },
  {
   "binding" : "weak",
   "name" : "_ZGVN4aidl7android8hardware8graphics9composer317IComposerCallback4hashE"
  },
  {
   "binding" : "weak",
   "name" : "_ZGVN4aidl7android8hardware8graphics9composer39IComposer4hashE"
  },
  {
   "name" : "_ZN4aidl7android8hardware8graphics9composer310PlaneAlpha10descriptorE"
  },
  {
   "name" : "_ZN4aidl7android8hardware8graphics9composer312ClientTarget10descriptorE"
  },
  {
   "name" : "_ZN4aidl7android8hardware8graphics9composer312CommandError10descriptorE"
  },
  {
   "name" : "_ZN4aidl7android8hardware8graphics9composer312LayerCommand10descriptorE"
  },
  {
   "name" : "_ZN4aidl7android8hardware8graphics9composer312PresentFence10descriptorE"
  },
  {
   "name" : "_ZN4aidl7android8hardware8graphics9composer313ReleaseFences10descriptorE"
  },
  {
   "name" : "_ZN4aidl7android8hardware8graphics9composer313ReleaseFences5Layer10descriptorE"
  },
  {
   "name" : "_ZN4aidl7android8hardware8graphics9composer314DisplayCommand10descriptorE"
  },
  {
   "name" : "_ZN4aidl7android8hardware8graphics9composer314DisplayRequest10descriptorE"
  },
  {
   "name" : "_ZN4aidl7android8hardware8graphics9composer314DisplayRequest12LayerRequest10descriptorE"
  },
  {
   "name" : "_ZN4aidl7android8hardware8graphics9composer314VirtualDisplay10descriptorE"
  },
  {
   "name" : "_ZN4aidl7android8hardware8graphics9composer315HdrCapabilities10descriptorE"
  },
  {
   "name" : "_ZN4aidl7android8hardware8graphics9composer315IComposerClient10descriptorE"
  },
  {
   "name" : "_ZN4aidl7android8hardware8graphics9composer315IComposerClient12default_implE"
  },
  {
   "binding" : "weak",
   "name" : "_ZN4aidl7android8hardware8graphics9composer315IComposerClient4hashE"
  },
  {
   "name" : "_ZN4aidl7android8hardware8graphics9composer315LayerBrightness10descriptorE"
  },
  {
   "name" : "_ZN4aidl7android8hardware8graphics9composer316PerFrameMetadata10descriptorE"
  },
  {
   "name" : "_ZN4aidl7android8hardware8graphics9composer317DisplayBrightness10descriptorE"
  },
  {
   "name" : "_ZN4aidl7android8hardware8graphics9composer317IComposerCallback10descriptorE"
  },
  {
   "name" : "_ZN4aidl7android8hardware8graphics9composer317IComposerCallback12default_implE"
  },
  {
   "binding" : "weak",
   "name" : "_ZN4aidl7android8hardware8graphics9composer317IComposerCallback4hashE"
  },
  {
   "name" : "_ZN4aidl7android8hardware8graphics9composer317PresentOrValidate10descriptorE"
  },
  {
   "name" : "_ZN4aidl7android8hardware8graphics9composer319ParcelableBlendMode10descriptorE"
  },
  {
   "name" : "_ZN4aidl7android8hardware8graphics9composer319ParcelableDataspace10descriptorE"
  },
  {
   "name" : "_ZN4aidl7android8hardware8graphics9composer319ParcelableTransform10descriptorE"
  },
  {
   "name" : "_ZN4aidl7android8hardware8graphics9composer320ClientTargetProperty10descriptorE"
  },
  {
   "name" : "_ZN4aidl7android8hardware8graphics9composer320CommandResultPayload10descriptorE"
  },
  {
   "name" : "_ZN4aidl7android8hardware8graphics9composer320DisplayContentSample10descriptorE"
  },
  {
   "name" : "_ZN4aidl7android8hardware8graphics9composer320PerFrameMetadataBlob10descriptorE"
  },
  {
   "name" : "_ZN4aidl7android8hardware8graphics9composer321DisplayIdentification10descriptorE"
  },
  {
   "name" : "_ZN4aidl7android8hardware8graphics9composer321ParcelableComposition10descriptorE"
  },
  {
   "name" : "_ZN4aidl7android8hardware8graphics9composer323ChangedCompositionLayer10descriptorE"
  },
  {
   "name" : "_ZN4aidl7android8hardware8graphics9composer323ChangedCompositionTypes10descriptorE"
  },
  {
   "name" : "_ZN4aidl7android8hardware8graphics9composer323ClockMonotonicTimestamp10descriptorE"
  },
  {
   "name" : "_ZN4aidl7android8hardware8graphics9composer324ReadbackBufferAttributes10descriptorE"
  },
  {
   "name" : "_ZN4aidl7android8hardware8graphics9composer325VsyncPeriodChangeTimeline10descriptorE"
  },
  {
   "name" : "_ZN4aidl7android8hardware8graphics9composer328VsyncPeriodChangeConstraints10descriptorE"
  },
  {
   "name" : "_ZN4aidl7android8hardware8graphics9composer332DisplayContentSamplingAttributes10descriptorE"
  },
  {
   "name" : "_ZN4aidl7android8hardware8graphics9composer334ClientTargetPropertyWithBrightness10descriptorE"
  },
  {
   "name" : "_ZN4aidl7android8hardware8graphics9composer35Color10descriptorE"
  },
  {
   "name" : "_ZN4aidl7android8hardware8graphics9composer36Buffer10descriptorE"
  },
  {
   "name" : "_ZN4aidl7android8hardware8graphics9composer36ZOrder10descriptorE"
  },
  {
   "name" : "_ZN4aidl7android8hardware8graphics9composer39IComposer10descriptorE"
  },
  {
   "name" : "_ZN4aidl7android8hardware8graphics9composer39IComposer12default_implE"
  },
  {
   "binding" : "weak",
   "name" : "_ZN4aidl7android8hardware8graphics9composer39IComposer4hashE"
  },
  {
   "binding" : "weak",
   "name" : "_ZTVN3ndk12BnCInterfaceIN4aidl7android8hardware8graphics9composer315IComposerClientEEE"
  },
  {
   "binding" : "weak",
   "name" : "_ZTVN3ndk12BnCInterfaceIN4aidl7android8hardware8graphics9composer317IComposerCallbackEEE"
  },
  {
   "binding" : "weak",
   "name" : "_ZTVN3ndk12BnCInterfaceIN4aidl7android8hardware8graphics9composer39IComposerEEE"
  },
  {
   "binding" : "weak",
   "name" : "_ZTVN3ndk12BpCInterfaceIN4aidl7android8hardware8graphics9composer315IComposerClientEEE"
  },
  {
   "binding" : "weak",
   "name" : "_ZTVN3ndk12BpCInterfaceIN4aidl7android8hardware8graphics9composer317IComposerCallbackEEE"
  },
  {
   "binding" : "weak",
   "name" : "_ZTVN3ndk12BpCInterfaceIN4aidl7android8hardware8graphics9composer39IComposerEEE"
  },
  {
   "binding" : "weak",
   "name" : "_ZTVN3ndk13SharedRefBaseE"
  },
  {
   "name" : "_ZTVN4aidl7android8hardware8graphics9composer310BnComposerE"
  },
  {
   "name" : "_ZTVN4aidl7android8hardware8graphics9composer310BpComposerE"
  },
  {
   "name" : "_ZTVN4aidl7android8hardware8graphics9composer315IComposerClientE"
  },
  {
   "name" : "_ZTVN4aidl7android8hardware8graphics9composer316BnComposerClientE"
  },
  {
   "name" : "_ZTVN4aidl7android8hardware8graphics9composer316BpComposerClientE"
  },
  {
   "name" : "_ZTVN4aidl7android8hardware8graphics9composer316IComposerDefaultE"
  },
  {
   "name" : "_ZTVN4aidl7android8hardware8graphics9composer317IComposerCallbackE"
  },
  {
   "name" : "_ZTVN4aidl7android8hardware8graphics9composer318BnComposerCallbackE"
  },
  {
   "name" : "_ZTVN4aidl7android8hardware8graphics9composer318BpComposerCallbackE"
  },
  {
   "name" : "_ZTVN4aidl7android8hardware8graphics9composer322IComposerClientDefaultE"
  },
  {
   "name" : "_ZTVN4aidl7android8hardware8graphics9composer324IComposerCallbackDefaultE"
  },
  {
   "name" : "_ZTVN4aidl7android8hardware8graphics9composer39IComposerE"
  },
  {
   "binding" : "weak",
   "name" : "_ZTVNSt3__120__shared_ptr_pointerIPN3ndk13SharedRefBaseENS_14default_deleteIS2_EENS_9allocatorIS2_EEEE"
  }
 ],
 "enum_types" :
 [
  {
   "alignment" : 4,
   "enum_fields" :
   [
    {
     "enum_field_value" : 1,
     "name" : "FLAG_ONEWAY"
    }
   ],
   "linker_set_key" : "_ZTI12$FLAG_ONEWAY",
   "name" : "(unnamed enum at frameworks/native/libs/binder/ndk/include_ndk/android/binder_ibinder.h:43:1)",
   "referenced_type" : "_ZTI12$FLAG_ONEWAY",
   "self_type" : "_ZTI12$FLAG_ONEWAY",
   "size" : 4,
   "source_file" : "frameworks/native/libs/binder/ndk/include_ndk/android/binder_ibinder.h",
   "underlying_type" : "_ZTIj"
  },
  {
   "alignment" : 4,
   "enum_fields" :
   [
    {
     "enum_field_value" : 0,
     "name" : "EX_NONE"
    },
    {
     "enum_field_value" : -1,
     "name" : "EX_SECURITY"
    },
    {
     "enum_field_value" : -2,
     "name" : "EX_BAD_PARCELABLE"
    },
    {
     "enum_field_value" : -3,
     "name" : "EX_ILLEGAL_ARGUMENT"
    },
    {
     "enum_field_value" : -4,
     "name" : "EX_NULL_POINTER"
    },
    {
     "enum_field_value" : -5,
     "name" : "EX_ILLEGAL_STATE"
    },
    {
     "enum_field_value" : -6,
     "name" : "EX_NETWORK_MAIN_THREAD"
    },
    {
     "enum_field_value" : -7,
     "name" : "EX_UNSUPPORTED_OPERATION"
    },
    {
     "enum_field_value" : -8,
     "name" : "EX_SERVICE_SPECIFIC"
    },
    {
     "enum_field_value" : -9,
     "name" : "EX_PARCELABLE"
    },
    {
     "enum_field_value" : -129,
     "name" : "EX_TRANSACTION_FAILED"
    }
   ],
   "linker_set_key" : "_ZTI18$EX_BAD_PARCELABLE",
   "name" : "(unnamed enum at frameworks/native/libs/binder/ndk/include_ndk/android/binder_status.h:94:1)",
   "referenced_type" : "_ZTI18$EX_BAD_PARCELABLE",
   "self_type" : "_ZTI18$EX_BAD_PARCELABLE",
   "size" : 4,
   "source_file" : "frameworks/native/libs/binder/ndk/include_ndk/android/binder_status.h",
   "underlying_type" : "_ZTIi"
  },
  {
   "alignment" : 4,
   "enum_fields" :
   [
    {
     "enum_field_value" : 268435456,
     "name" : "FLAG_PRIVATE_LOCAL"
    }
   ],
   "linker_set_key" : "_ZTI19$FLAG_PRIVATE_LOCAL",
   "name" : "(unnamed enum at frameworks/native/libs/binder/ndk/include_platform/android/binder_stability.h:35:1)",
   "referenced_type" : "_ZTI19$FLAG_PRIVATE_LOCAL",
   "self_type" : "_ZTI19$FLAG_PRIVATE_LOCAL",
   "size" : 4,
   "source_file" : "frameworks/native/libs/binder/ndk/include_platform/android/binder_stability.h",
   "underlying_type" : "_ZTIj"
  },
  {
   "alignment" : 4,
   "enum_fields" :
   [
    {
     "enum_field_value" : 268435456,
     "name" : "FLAG_PRIVATE_VENDOR"
    }
   ],
   "linker_set_key" : "_ZTI20$FLAG_PRIVATE_VENDOR",
   "name" : "(unnamed enum at frameworks/native/libs/binder/ndk/include_platform/android/binder_stability.h:26:1)",
   "referenced_type" : "_ZTI20$FLAG_PRIVATE_VENDOR",
   "self_type" : "_ZTI20$FLAG_PRIVATE_VENDOR",
   "size" : 4,
   "source_file" : "frameworks/native/libs/binder/ndk/include_platform/android/binder_stability.h",
   "underlying_type" : "_ZTIj"
  },
  {
   "alignment" : 4,
   "enum_fields" :
   [
    {
     "enum_field_value" : 0,
     "name" : "STATUS_OK"
    },
    {
     "enum_field_value" : -2147483648,
     "name" : "STATUS_UNKNOWN_ERROR"
    },
    {
     "enum_field_value" : -12,
     "name" : "STATUS_NO_MEMORY"
    },
    {
     "enum_field_value" : -38,
     "name" : "STATUS_INVALID_OPERATION"
    },
    {
     "enum_field_value" : -22,
     "name" : "STATUS_BAD_VALUE"
    },
    {
     "enum_field_value" : -2147483647,
     "name" : "STATUS_BAD_TYPE"
    },
    {
     "enum_field_value" : -2,
     "name" : "STATUS_NAME_NOT_FOUND"
    },
    {
     "enum_field_value" : -1,
     "name" : "STATUS_PERMISSION_DENIED"
    },
    {
     "enum_field_value" : -19,
     "name" : "STATUS_NO_INIT"
    },
    {
     "enum_field_value" : -17,
     "name" : "STATUS_ALREADY_EXISTS"
    },
    {
     "enum_field_value" : -32,
     "name" : "STATUS_DEAD_OBJECT"
    },
    {
     "enum_field_value" : -2147483646,
     "name" : "STATUS_FAILED_TRANSACTION"
    },
    {
     "enum_field_value" : -75,
     "name" : "STATUS_BAD_INDEX"
    },
    {
     "enum_field_value" : -61,
     "name" : "STATUS_NOT_ENOUGH_DATA"
    },
    {
     "enum_field_value" : -11,
     "name" : "STATUS_WOULD_BLOCK"
    },
    {
     "enum_field_value" : -110,
     "name" : "STATUS_TIMED_OUT"
    },
    {
     "enum_field_value" : -74,
     "name" : "STATUS_UNKNOWN_TRANSACTION"
    },
    {
     "enum_field_value" : -2147483641,
     "name" : "STATUS_FDS_NOT_ALLOWED"
    },
    {
     "enum_field_value" : -2147483640,
     "name" : "STATUS_UNEXPECTED_NULL"
    }
   ],
   "linker_set_key" : "_ZTI22$STATUS_ALREADY_EXISTS",
   "name" : "(unnamed enum at frameworks/native/libs/binder/ndk/include_ndk/android/binder_status.h:60:1)",
   "referenced_type" : "_ZTI22$STATUS_ALREADY_EXISTS",
   "self_type" : "_ZTI22$STATUS_ALREADY_EXISTS",
   "size" : 4,
   "source_file" : "frameworks/native/libs/binder/ndk/include_ndk/android/binder_status.h",
   "underlying_type" : "_ZTIi"
  },
  {
   "alignment" : 4,
   "enum_fields" :
   [
    {
     "enum_field_value" : 1,
     "name" : "FIRST_CALL_TRANSACTION"
    },
    {
     "enum_field_value" : 16777215,
     "name" : "LAST_CALL_TRANSACTION"
    }
   ],
   "linker_set_key" : "_ZTI23$FIRST_CALL_TRANSACTION",
   "name" : "(unnamed enum at frameworks/native/libs/binder/ndk/include_ndk/android/binder_ibinder.h:58:1)",
   "referenced_type" : "_ZTI23$FIRST_CALL_TRANSACTION",
   "self_type" : "_ZTI23$FIRST_CALL_TRANSACTION",
   "size" : 4,
   "source_file" : "frameworks/native/libs/binder/ndk/include_ndk/android/binder_ibinder.h",
   "underlying_type" : "_ZTIj"
  },
  {
   "alignment" : 4,
   "enum_fields" :
   [
    {
     "enum_field_value" : 0,
     "name" : "ndk::STABILITY_LOCAL"
    },
    {
     "enum_field_value" : 1,
     "name" : "ndk::STABILITY_VINTF"
    }
   ],
   "linker_set_key" : "_ZTIN3ndk16$STABILITY_LOCALE",
   "name" : "ndk::(unnamed enum at frameworks/native/libs/binder/ndk/include_cpp/android/binder_parcelable_utils.h:34:1)",
   "referenced_type" : "_ZTIN3ndk16$STABILITY_LOCALE",
   "self_type" : "_ZTIN3ndk16$STABILITY_LOCALE",
   "size" : 4,
   "source_file" : "frameworks/native/libs/binder/ndk/include_cpp/android/binder_parcelable_utils.h",
   "underlying_type" : "_ZTIj"
  },
  {
   "alignment" : 4,
   "enum_fields" :
   [
    {
     "enum_field_value" : 0,
     "name" : "aidl::android::hardware::graphics::common::PixelFormat::UNSPECIFIED"
    },
    {
     "enum_field_value" : 1,
     "name" : "aidl::android::hardware::graphics::common::PixelFormat::RGBA_8888"
    },
    {
     "enum_field_value" : 2,
     "name" : "aidl::android::hardware::graphics::common::PixelFormat::RGBX_8888"
    },
    {
     "enum_field_value" : 3,
     "name" : "aidl::android::hardware::graphics::common::PixelFormat::RGB_888"
    },
    {
     "enum_field_value" : 4,
     "name" : "aidl::android::hardware::graphics::common::PixelFormat::RGB_565"
    },
    {
     "enum_field_value" : 5,
     "name" : "aidl::android::hardware::graphics::common::PixelFormat::BGRA_8888"
    },
    {
     "enum_field_value" : 16,
     "name" : "aidl::android::hardware::graphics::common::PixelFormat::YCBCR_422_SP"
    },
    {
     "enum_field_value" : 17,
     "name" : "aidl::android::hardware::graphics::common::PixelFormat::YCRCB_420_SP"
    },
    {
     "enum_field_value" : 20,
     "name" : "aidl::android::hardware::graphics::common::PixelFormat::YCBCR_422_I"
    },
    {
     "enum_field_value" : 22,
     "name" : "aidl::android::hardware::graphics::common::PixelFormat::RGBA_FP16"
    },
    {
     "enum_field_value" : 32,
     "name" : "aidl::android::hardware::graphics::common::PixelFormat::RAW16"
    },
    {
     "enum_field_value" : 33,
     "name" : "aidl::android::hardware::graphics::common::PixelFormat::BLOB"
    },
    {
     "enum_field_value" : 34,
     "name" : "aidl::android::hardware::graphics::common::PixelFormat::IMPLEMENTATION_DEFINED"
    },
    {
     "enum_field_value" : 35,
     "name" : "aidl::android::hardware::graphics::common::PixelFormat::YCBCR_420_888"
    },
    {
     "enum_field_value" : 36,
     "name" : "aidl::android::hardware::graphics::common::PixelFormat::RAW_OPAQUE"
    },
    {
     "enum_field_value" : 37,
     "name" : "aidl::android::hardware::graphics::common::PixelFormat::RAW10"
    },
    {
     "enum_field_value" : 38,
     "name" : "aidl::android::hardware::graphics::common::PixelFormat::RAW12"
    },
    {
     "enum_field_value" : 43,
     "name" : "aidl::android::hardware::graphics::common::PixelFormat::RGBA_1010102"
    },
    {
     "enum_field_value" : 538982489,
     "name" : "aidl::android::hardware::graphics::common::PixelFormat::Y8"
    },
    {
     "enum_field_value" : 540422489,
     "name" : "aidl::android::hardware::graphics::common::PixelFormat::Y16"
    },
    {
     "enum_field_value" : 842094169,
     "name" : "aidl::android::hardware::graphics::common::PixelFormat::YV12"
    },
    {
     "enum_field_value" : 48,
     "name" : "aidl::android::hardware::graphics::common::PixelFormat::DEPTH_16"
    },
    {
     "enum_field_value" : 49,
     "name" : "aidl::android::hardware::graphics::common::PixelFormat::DEPTH_24"
    },
    {
     "enum_field_value" : 50,
     "name" : "aidl::android::hardware::graphics::common::PixelFormat::DEPTH_24_STENCIL_8"
    },
    {
     "enum_field_value" : 51,
     "name" : "aidl::android::hardware::graphics::common::PixelFormat::DEPTH_32F"
    },
    {
     "enum_field_value" : 52,
     "name" : "aidl::android::hardware::graphics::common::PixelFormat::DEPTH_32F_STENCIL_8"
    },
    {
     "enum_field_value" : 53,
     "name" : "aidl::android::hardware::graphics::common::PixelFormat::STENCIL_8"
    },
    {
     "enum_field_value" : 54,
     "name" : "aidl::android::hardware::graphics::common::PixelFormat::YCBCR_P010"
    },
    {
     "enum_field_value" : 55,
     "name" : "aidl::android::hardware::graphics::common::PixelFormat::HSV_888"
    },
    {
     "enum_field_value" : 56,
     "name" : "aidl::android::hardware::graphics::common::PixelFormat::R_8"
    }
   ],
   "linker_set_key" : "_ZTIN4aidl7android8hardware8graphics6common11PixelFormatE",
   "name" : "aidl::android::hardware::graphics::common::PixelFormat",
   "referenced_type" : "_ZTIN4aidl7android8hardware8graphics6common11PixelFormatE",
   "self_type" : "_ZTIN4aidl7android8hardware8graphics6common11PixelFormatE",
   "size" : 4,
   "source_file" : "out/soong/.intermediates/hardware/interfaces/graphics/common/aidl/android.hardware.graphics.common-V3-ndk-source/gen/include/aidl/android/hardware/graphics/common/PixelFormat.h",
   "underlying_type" : "_ZTIi"
  },
  {
   "alignment" : 4,
   "enum_fields" :
   [
    {
     "enum_field_value" : 0,
     "name" : "aidl::android::hardware::graphics::common::AlphaInterpretation::COVERAGE"
    },
    {
     "enum_field_value" : 1,
     "name" : "aidl::android::hardware::graphics::common::AlphaInterpretation::MASK"
    }
   ],
   "linker_set_key" : "_ZTIN4aidl7android8hardware8graphics6common19AlphaInterpretationE",
   "name" : "aidl::android::hardware::graphics::common::AlphaInterpretation",
   "referenced_type" : "_ZTIN4aidl7android8hardware8graphics6common19AlphaInterpretationE",
   "self_type" : "_ZTIN4aidl7android8hardware8graphics6common19AlphaInterpretationE",
   "size" : 4,
   "source_file" : "out/soong/.intermediates/hardware/interfaces/graphics/common/aidl/android.hardware.graphics.common-V3-ndk-source/gen/include/aidl/android/hardware/graphics/common/AlphaInterpretation.h",
   "underlying_type" : "_ZTIi"
  },
  {
   "alignment" : 4,
   "enum_fields" :
   [
    {
     "enum_field_value" : 1,
     "name" : "aidl::android::hardware::graphics::common::Hdr::DOLBY_VISION"
    },
    {
     "enum_field_value" : 2,
     "name" : "aidl::android::hardware::graphics::common::Hdr::HDR10"
    },
    {
     "enum_field_value" : 3,
     "name" : "aidl::android::hardware::graphics::common::Hdr::HLG"
    },
    {
     "enum_field_value" : 4,
     "name" : "aidl::android::hardware::graphics::common::Hdr::HDR10_PLUS"
    }
   ],
   "linker_set_key" : "_ZTIN4aidl7android8hardware8graphics6common3HdrE",
   "name" : "aidl::android::hardware::graphics::common::Hdr",
   "referenced_type" : "_ZTIN4aidl7android8hardware8graphics6common3HdrE",
   "self_type" : "_ZTIN4aidl7android8hardware8graphics6common3HdrE",
   "size" : 4,
   "source_file" : "out/soong/.intermediates/hardware/interfaces/graphics/common/aidl/android.hardware.graphics.common-V3-ndk-source/gen/include/aidl/android/hardware/graphics/common/Hdr.h",
   "underlying_type" : "_ZTIi"
  },
  {
   "alignment" : 4,
   "enum_fields" :
   [
    {
     "enum_field_value" : 0,
     "name" : "aidl::android::hardware::graphics::common::BlendMode::INVALID"
    },
    {
     "enum_field_value" : 1,
     "name" : "aidl::android::hardware::graphics::common::BlendMode::NONE"
    },
    {
     "enum_field_value" : 2,
     "name" : "aidl::android::hardware::graphics::common::BlendMode::PREMULTIPLIED"
    },
    {
     "enum_field_value" : 3,
     "name" : "aidl::android::hardware::graphics::common::BlendMode::COVERAGE"
    }
   ],
   "linker_set_key" : "_ZTIN4aidl7android8hardware8graphics6common9BlendModeE",
   "name" : "aidl::android::hardware::graphics::common::BlendMode",
   "referenced_type" : "_ZTIN4aidl7android8hardware8graphics6common9BlendModeE",
   "self_type" : "_ZTIN4aidl7android8hardware8graphics6common9BlendModeE",
   "size" : 4,
   "source_file" : "out/soong/.intermediates/hardware/interfaces/graphics/common/aidl/android.hardware.graphics.common-V3-ndk-source/gen/include/aidl/android/hardware/graphics/common/BlendMode.h",
   "underlying_type" : "_ZTIi"
  },
  {
   "alignment" : 4,
   "enum_fields" :
   [
    {
     "enum_field_value" : 0,
     "name" : "aidl::android::hardware::graphics::common::Dataspace::UNKNOWN"
    },
    {
     "enum_field_value" : 1,
     "name" : "aidl::android::hardware::graphics::common::Dataspace::ARBITRARY"
    },
    {
     "enum_field_value" : 16,
     "name" : "aidl::android::hardware::graphics::common::Dataspace::STANDARD_SHIFT"
    },
    {
     "enum_field_value" : 4128768,
     "name" : "aidl::android::hardware::graphics::common::Dataspace::STANDARD_MASK"
    },
    {
     "enum_field_value" : 0,
     "name" : "aidl::android::hardware::graphics::common::Dataspace::STANDARD_UNSPECIFIED"
    },
    {
     "enum_field_value" : 65536,
     "name" : "aidl::android::hardware::graphics::common::Dataspace::STANDARD_BT709"
    },
    {
     "enum_field_value" : 131072,
     "name" : "aidl::android::hardware::graphics::common::Dataspace::STANDARD_BT601_625"
    },
    {
     "enum_field_value" : 196608,
     "name" : "aidl::android::hardware::graphics::common::Dataspace::STANDARD_BT601_625_UNADJUSTED"
    },
    {
     "enum_field_value" : 262144,
     "name" : "aidl::android::hardware::graphics::common::Dataspace::STANDARD_BT601_525"
    },
    {
     "enum_field_value" : 327680,
     "name" : "aidl::android::hardware::graphics::common::Dataspace::STANDARD_BT601_525_UNADJUSTED"
    },
    {
     "enum_field_value" : 393216,
     "name" : "aidl::android::hardware::graphics::common::Dataspace::STANDARD_BT2020"
    },
    {
     "enum_field_value" : 458752,
     "name" : "aidl::android::hardware::graphics::common::Dataspace::STANDARD_BT2020_CONSTANT_LUMINANCE"
    },
    {
     "enum_field_value" : 524288,
     "name" : "aidl::android::hardware::graphics::common::Dataspace::STANDARD_BT470M"
    },
    {
     "enum_field_value" : 589824,
     "name" : "aidl::android::hardware::graphics::common::Dataspace::STANDARD_FILM"
    },
    {
     "enum_field_value" : 655360,
     "name" : "aidl::android::hardware::graphics::common::Dataspace::STANDARD_DCI_P3"
    },
    {
     "enum_field_value" : 720896,
     "name" : "aidl::android::hardware::graphics::common::Dataspace::STANDARD_ADOBE_RGB"
    },
    {
     "enum_field_value" : 22,
     "name" : "aidl::android::hardware::graphics::common::Dataspace::TRANSFER_SHIFT"
    },
    {
     "enum_field_value" : 130023424,
     "name" : "aidl::android::hardware::graphics::common::Dataspace::TRANSFER_MASK"
    },
    {
     "enum_field_value" : 0,
     "name" : "aidl::android::hardware::graphics::common::Dataspace::TRANSFER_UNSPECIFIED"
    },
    {
     "enum_field_value" : 4194304,
     "name" : "aidl::android::hardware::graphics::common::Dataspace::TRANSFER_LINEAR"
    },
    {
     "enum_field_value" : 8388608,
     "name" : "aidl::android::hardware::graphics::common::Dataspace::TRANSFER_SRGB"
    },
    {
     "enum_field_value" : 12582912,
     "name" : "aidl::android::hardware::graphics::common::Dataspace::TRANSFER_SMPTE_170M"
    },
    {
     "enum_field_value" : 16777216,
     "name" : "aidl::android::hardware::graphics::common::Dataspace::TRANSFER_GAMMA2_2"
    },
    {
     "enum_field_value" : 20971520,
     "name" : "aidl::android::hardware::graphics::common::Dataspace::TRANSFER_GAMMA2_6"
    },
    {
     "enum_field_value" : 25165824,
     "name" : "aidl::android::hardware::graphics::common::Dataspace::TRANSFER_GAMMA2_8"
    },
    {
     "enum_field_value" : 29360128,
     "name" : "aidl::android::hardware::graphics::common::Dataspace::TRANSFER_ST2084"
    },
    {
     "enum_field_value" : 33554432,
     "name" : "aidl::android::hardware::graphics::common::Dataspace::TRANSFER_HLG"
    },
    {
     "enum_field_value" : 27,
     "name" : "aidl::android::hardware::graphics::common::Dataspace::RANGE_SHIFT"
    },
    {
     "enum_field_value" : 939524096,
     "name" : "aidl::android::hardware::graphics::common::Dataspace::RANGE_MASK"
    },
    {
     "enum_field_value" : 0,
     "name" : "aidl::android::hardware::graphics::common::Dataspace::RANGE_UNSPECIFIED"
    },
    {
     "enum_field_value" : 134217728,
     "name" : "aidl::android::hardware::graphics::common::Dataspace::RANGE_FULL"
    },
    {
     "enum_field_value" : 268435456,
     "name" : "aidl::android::hardware::graphics::common::Dataspace::RANGE_LIMITED"
    },
    {
     "enum_field_value" : 402653184,
     "name" : "aidl::android::hardware::graphics::common::Dataspace::RANGE_EXTENDED"
    },
    {
     "enum_field_value" : 138477568,
     "name" : "aidl::android::hardware::graphics::common::Dataspace::SRGB_LINEAR"
    },
    {
     "enum_field_value" : 406913024,
     "name" : "aidl::android::hardware::graphics::common::Dataspace::SCRGB_LINEAR"
    },
    {
     "enum_field_value" : 142671872,
     "name" : "aidl::android::hardware::graphics::common::Dataspace::SRGB"
    },
    {
     "enum_field_value" : 411107328,
     "name" : "aidl::android::hardware::graphics::common::Dataspace::SCRGB"
    },
    {
     "enum_field_value" : 146931712,
     "name" : "aidl::android::hardware::graphics::common::Dataspace::JFIF"
    },
    {
     "enum_field_value" : 281149440,
     "name" : "aidl::android::hardware::graphics::common::Dataspace::BT601_625"
    },
    {
     "enum_field_value" : 281280512,
     "name" : "aidl::android::hardware::graphics::common::Dataspace::BT601_525"
    },
    {
     "enum_field_value" : 281083904,
     "name" : "aidl::android::hardware::graphics::common::Dataspace::BT709"
    },
    {
     "enum_field_value" : 139067392,
     "name" : "aidl::android::hardware::graphics::common::Dataspace::DCI_P3_LINEAR"
    },
    {
     "enum_field_value" : 155844608,
     "name" : "aidl::android::hardware::graphics::common::Dataspace::DCI_P3"
    },
    {
     "enum_field_value" : 139067392,
     "name" : "aidl::android::hardware::graphics::common::Dataspace::DISPLAY_P3_LINEAR"
    },
    {
     "enum_field_value" : 143261696,
     "name" : "aidl::android::hardware::graphics::common::Dataspace::DISPLAY_P3"
    },
    {
     "enum_field_value" : 151715840,
     "name" : "aidl::android::hardware::graphics::common::Dataspace::ADOBE_RGB"
    },
    {
     "enum_field_value" : 138805248,
     "name" : "aidl::android::hardware::graphics::common::Dataspace::BT2020_LINEAR"
    },
    {
     "enum_field_value" : 147193856,
     "name" : "aidl::android::hardware::graphics::common::Dataspace::BT2020"
    },
    {
     "enum_field_value" : 163971072,
     "name" : "aidl::android::hardware::graphics::common::Dataspace::BT2020_PQ"
    },
    {
     "enum_field_value" : 4096,
     "name" : "aidl::android::hardware::graphics::common::Dataspace::DEPTH"
    },
    {
     "enum_field_value" : 4097,
     "name" : "aidl::android::hardware::graphics::common::Dataspace::SENSOR"
    },
    {
     "enum_field_value" : 281411584,
     "name" : "aidl::android::hardware::graphics::common::Dataspace::BT2020_ITU"
    },
    {
     "enum_field_value" : 298188800,
     "name" : "aidl::android::hardware::graphics::common::Dataspace::BT2020_ITU_PQ"
    },
    {
     "enum_field_value" : 302383104,
     "name" : "aidl::android::hardware::graphics::common::Dataspace::BT2020_ITU_HLG"
    },
    {
     "enum_field_value" : 168165376,
     "name" : "aidl::android::hardware::graphics::common::Dataspace::BT2020_HLG"
    },
    {
     "enum_field_value" : 142999552,
     "name" : "aidl::android::hardware::graphics::common::Dataspace::DISPLAY_BT2020"
    },
    {
     "enum_field_value" : 4098,
     "name" : "aidl::android::hardware::graphics::common::Dataspace::DYNAMIC_DEPTH"
    },
    {
     "enum_field_value" : 4099,
     "name" : "aidl::android::hardware::graphics::common::Dataspace::JPEG_APP_SEGMENTS"
    },
    {
     "enum_field_value" : 4100,
     "name" : "aidl::android::hardware::graphics::common::Dataspace::HEIF"
    },
    {
     "enum_field_value" : 146866176,
     "name" : "aidl::android::hardware::graphics::common::Dataspace::BT709_FULL_RANGE"
    }
   ],
   "linker_set_key" : "_ZTIN4aidl7android8hardware8graphics6common9DataspaceE",
   "name" : "aidl::android::hardware::graphics::common::Dataspace",
   "referenced_type" : "_ZTIN4aidl7android8hardware8graphics6common9DataspaceE",
   "self_type" : "_ZTIN4aidl7android8hardware8graphics6common9DataspaceE",
   "size" : 4,
   "source_file" : "out/soong/.intermediates/hardware/interfaces/graphics/common/aidl/android.hardware.graphics.common-V3-ndk-source/gen/include/aidl/android/hardware/graphics/common/Dataspace.h",
   "underlying_type" : "_ZTIi"
  },
  {
   "alignment" : 4,
   "enum_fields" :
   [
    {
     "enum_field_value" : 0,
     "name" : "aidl::android::hardware::graphics::common::Transform::NONE"
    },
    {
     "enum_field_value" : 1,
     "name" : "aidl::android::hardware::graphics::common::Transform::FLIP_H"
    },
    {
     "enum_field_value" : 2,
     "name" : "aidl::android::hardware::graphics::common::Transform::FLIP_V"
    },
    {
     "enum_field_value" : 4,
     "name" : "aidl::android::hardware::graphics::common::Transform::ROT_90"
    },
    {
     "enum_field_value" : 3,
     "name" : "aidl::android::hardware::graphics::common::Transform::ROT_180"
    },
    {
     "enum_field_value" : 7,
     "name" : "aidl::android::hardware::graphics::common::Transform::ROT_270"
    }
   ],
   "linker_set_key" : "_ZTIN4aidl7android8hardware8graphics6common9TransformE",
   "name" : "aidl::android::hardware::graphics::common::Transform",
   "referenced_type" : "_ZTIN4aidl7android8hardware8graphics6common9TransformE",
   "self_type" : "_ZTIN4aidl7android8hardware8graphics6common9TransformE",
   "size" : 4,
   "source_file" : "out/soong/.intermediates/hardware/interfaces/graphics/common/aidl/android.hardware.graphics.common-V3-ndk-source/gen/include/aidl/android/hardware/graphics/common/Transform.h",
   "underlying_type" : "_ZTIi"
  },
  {
   "alignment" : 4,
   "enum_fields" :
   [
    {
     "enum_field_value" : 0,
     "name" : "aidl::android::hardware::graphics::composer3::Capability::INVALID"
    },
    {
     "enum_field_value" : 1,
     "name" : "aidl::android::hardware::graphics::composer3::Capability::SIDEBAND_STREAM"
    },
    {
     "enum_field_value" : 2,
     "name" : "aidl::android::hardware::graphics::composer3::Capability::SKIP_CLIENT_COLOR_TRANSFORM"
    },
    {
     "enum_field_value" : 3,
     "name" : "aidl::android::hardware::graphics::composer3::Capability::PRESENT_FENCE_IS_NOT_RELIABLE"
    },
    {
     "enum_field_value" : 4,
     "name" : "aidl::android::hardware::graphics::composer3::Capability::SKIP_VALIDATE"
    },
    {
     "enum_field_value" : 5,
     "name" : "aidl::android::hardware::graphics::composer3::Capability::BOOT_DISPLAY_CONFIG"
    }
   ],
   "linker_set_key" : "_ZTIN4aidl7android8hardware8graphics9composer310CapabilityE",
   "name" : "aidl::android::hardware::graphics::composer3::Capability",
   "referenced_type" : "_ZTIN4aidl7android8hardware8graphics9composer310CapabilityE",
   "self_type" : "_ZTIN4aidl7android8hardware8graphics9composer310CapabilityE",
   "size" : 4,
   "source_file" : "out/soong/.intermediates/hardware/interfaces/graphics/composer/aidl/android.hardware.graphics.composer3-V1-ndk-source/gen/include/aidl/android/hardware/graphics/composer3/Capability.h",
   "underlying_type" : "_ZTIi"
  },
  {
   "alignment" : 4,
   "enum_fields" :
   [
    {
     "enum_field_value" : 0,
     "name" : "aidl::android::hardware::graphics::composer3::Composition::INVALID"
    },
    {
     "enum_field_value" : 1,
     "name" : "aidl::android::hardware::graphics::composer3::Composition::CLIENT"
    },
    {
     "enum_field_value" : 2,
     "name" : "aidl::android::hardware::graphics::composer3::Composition::DEVICE"
    },
    {
     "enum_field_value" : 3,
     "name" : "aidl::android::hardware::graphics::composer3::Composition::SOLID_COLOR"
    },
    {
     "enum_field_value" : 4,
     "name" : "aidl::android::hardware::graphics::composer3::Composition::CURSOR"
    },
    {
     "enum_field_value" : 5,
     "name" : "aidl::android::hardware::graphics::composer3::Composition::SIDEBAND"
    },
    {
     "enum_field_value" : 6,
     "name" : "aidl::android::hardware::graphics::composer3::Composition::DISPLAY_DECORATION"
    }
   ],
   "linker_set_key" : "_ZTIN4aidl7android8hardware8graphics9composer311CompositionE",
   "name" : "aidl::android::hardware::graphics::composer3::Composition",
   "referenced_type" : "_ZTIN4aidl7android8hardware8graphics9composer311CompositionE",
   "self_type" : "_ZTIN4aidl7android8hardware8graphics9composer311CompositionE",
   "size" : 4,
   "source_file" : "out/soong/.intermediates/hardware/interfaces/graphics/composer/aidl/android.hardware.graphics.composer3-V1-ndk-source/gen/include/aidl/android/hardware/graphics/composer3/Composition.h",
   "underlying_type" : "_ZTIi"
  },
  {
   "alignment" : 4,
   "enum_fields" :
   [
    {
     "enum_field_value" : 0,
     "name" : "aidl::android::hardware::graphics::composer3::ContentType::NONE"
    },
    {
     "enum_field_value" : 1,
     "name" : "aidl::android::hardware::graphics::composer3::ContentType::GRAPHICS"
    },
    {
     "enum_field_value" : 2,
     "name" : "aidl::android::hardware::graphics::composer3::ContentType::PHOTO"
    },
    {
     "enum_field_value" : 3,
     "name" : "aidl::android::hardware::graphics::composer3::ContentType::CINEMA"
    },
    {
     "enum_field_value" : 4,
     "name" : "aidl::android::hardware::graphics::composer3::ContentType::GAME"
    }
   ],
   "linker_set_key" : "_ZTIN4aidl7android8hardware8graphics9composer311ContentTypeE",
   "name" : "aidl::android::hardware::graphics::composer3::ContentType",
   "referenced_type" : "_ZTIN4aidl7android8hardware8graphics9composer311ContentTypeE",
   "self_type" : "_ZTIN4aidl7android8hardware8graphics9composer311ContentTypeE",
   "size" : 4,
   "source_file" : "out/soong/.intermediates/hardware/interfaces/graphics/composer/aidl/android.hardware.graphics.composer3-V1-ndk-source/gen/include/aidl/android/hardware/graphics/composer3/ContentType.h",
   "underlying_type" : "_ZTIi"
  },
  {
   "alignment" : 4,
   "enum_fields" :
   [
    {
     "enum_field_value" : 0,
     "name" : "aidl::android::hardware::graphics::composer3::DimmingStage::NONE"
    },
    {
     "enum_field_value" : 1,
     "name" : "aidl::android::hardware::graphics::composer3::DimmingStage::LINEAR"
    },
    {
     "enum_field_value" : 2,
     "name" : "aidl::android::hardware::graphics::composer3::DimmingStage::GAMMA_OETF"
    }
   ],
   "linker_set_key" : "_ZTIN4aidl7android8hardware8graphics9composer312DimmingStageE",
   "name" : "aidl::android::hardware::graphics::composer3::DimmingStage",
   "referenced_type" : "_ZTIN4aidl7android8hardware8graphics9composer312DimmingStageE",
   "self_type" : "_ZTIN4aidl7android8hardware8graphics9composer312DimmingStageE",
   "size" : 4,
   "source_file" : "out/soong/.intermediates/hardware/interfaces/graphics/composer/aidl/android.hardware.graphics.composer3-V1-ndk-source/gen/include/aidl/android/hardware/graphics/composer3/DimmingStage.h",
   "underlying_type" : "_ZTIi"
  },
  {
   "alignment" : 4,
   "enum_fields" :
   [
    {
     "enum_field_value" : 0,
     "name" : "aidl::android::hardware::graphics::composer3::RenderIntent::COLORIMETRIC"
    },
    {
     "enum_field_value" : 1,
     "name" : "aidl::android::hardware::graphics::composer3::RenderIntent::ENHANCE"
    },
    {
     "enum_field_value" : 2,
     "name" : "aidl::android::hardware::graphics::composer3::RenderIntent::TONE_MAP_COLORIMETRIC"
    },
    {
     "enum_field_value" : 3,
     "name" : "aidl::android::hardware::graphics::composer3::RenderIntent::TONE_MAP_ENHANCE"
    }
   ],
   "linker_set_key" : "_ZTIN4aidl7android8hardware8graphics9composer312RenderIntentE",
   "name" : "aidl::android::hardware::graphics::composer3::RenderIntent",
   "referenced_type" : "_ZTIN4aidl7android8hardware8graphics9composer312RenderIntentE",
   "self_type" : "_ZTIN4aidl7android8hardware8graphics9composer312RenderIntentE",
   "size" : 4,
   "source_file" : "out/soong/.intermediates/hardware/interfaces/graphics/composer/aidl/android.hardware.graphics.composer3-V1-ndk-source/gen/include/aidl/android/hardware/graphics/composer3/RenderIntent.h",
   "underlying_type" : "_ZTIi"
  },
  {
   "alignment" : 4,
   "enum_fields" :
   [
    {
     "enum_field_value" : 1,
     "name" : "aidl::android::hardware::graphics::composer3::DisplayRequest::LayerRequest::CLEAR_CLIENT_TARGET"
    }
   ],
   "linker_set_key" : "_ZTIN4aidl7android8hardware8graphics9composer314DisplayRequest12LayerRequest20$CLEAR_CLIENT_TARGETE",
   "name" : "aidl::android::hardware::graphics::composer3::DisplayRequest::LayerRequest::(unnamed enum at out/soong/.intermediates/hardware/interfaces/graphics/composer/aidl/android.hardware.graphics.composer3-V1-ndk-source/gen/include/aidl/android/hardware/graphics/composer3/DisplayRequest.h:57:5)",
   "referenced_type" : "_ZTIN4aidl7android8hardware8graphics9composer314DisplayRequest12LayerRequest20$CLEAR_CLIENT_TARGETE",
   "self_type" : "_ZTIN4aidl7android8hardware8graphics9composer314DisplayRequest12LayerRequest20$CLEAR_CLIENT_TARGETE",
   "size" : 4,
   "source_file" : "out/soong/.intermediates/hardware/interfaces/graphics/composer/aidl/android.hardware.graphics.composer3-V1-ndk-source/gen/include/aidl/android/hardware/graphics/composer3/DisplayRequest.h",
   "underlying_type" : "_ZTIi"
  },
  {
   "alignment" : 4,
   "enum_fields" :
   [
    {
     "enum_field_value" : 1,
     "name" : "aidl::android::hardware::graphics::composer3::DisplayRequest::FLIP_CLIENT_TARGET"
    }
   ],
   "linker_set_key" : "_ZTIN4aidl7android8hardware8graphics9composer314DisplayRequest19$FLIP_CLIENT_TARGETE",
   "name" : "aidl::android::hardware::graphics::composer3::DisplayRequest::(unnamed enum at out/soong/.intermediates/hardware/interfaces/graphics/composer/aidl/android.hardware.graphics.composer3-V1-ndk-source/gen/include/aidl/android/hardware/graphics/composer3/DisplayRequest.h:94:3)",
   "referenced_type" : "_ZTIN4aidl7android8hardware8graphics9composer314DisplayRequest19$FLIP_CLIENT_TARGETE",
   "self_type" : "_ZTIN4aidl7android8hardware8graphics9composer314DisplayRequest19$FLIP_CLIENT_TARGETE",
   "size" : 4,
   "source_file" : "out/soong/.intermediates/hardware/interfaces/graphics/composer/aidl/android.hardware.graphics.composer3-V1-ndk-source/gen/include/aidl/android/hardware/graphics/composer3/DisplayRequest.h",
   "underlying_type" : "_ZTIi"
  },
  {
   "alignment" : 4,
   "enum_fields" :
   [
    {
     "enum_field_value" : 2,
     "name" : "aidl::android::hardware::graphics::composer3::DisplayRequest::WRITE_CLIENT_TARGET_TO_OUTPUT"
    }
   ],
   "linker_set_key" : "_ZTIN4aidl7android8hardware8graphics9composer314DisplayRequest30$WRITE_CLIENT_TARGET_TO_OUTPUTE",
   "name" : "aidl::android::hardware::graphics::composer3::DisplayRequest::(unnamed enum at out/soong/.intermediates/hardware/interfaces/graphics/composer/aidl/android.hardware.graphics.composer3-V1-ndk-source/gen/include/aidl/android/hardware/graphics/composer3/DisplayRequest.h:95:3)",
   "referenced_type" : "_ZTIN4aidl7android8hardware8graphics9composer314DisplayRequest30$WRITE_CLIENT_TARGET_TO_OUTPUTE",
   "self_type" : "_ZTIN4aidl7android8hardware8graphics9composer314DisplayRequest30$WRITE_CLIENT_TARGET_TO_OUTPUTE",
   "size" : 4,
   "source_file" : "out/soong/.intermediates/hardware/interfaces/graphics/composer/aidl/android.hardware.graphics.composer3-V1-ndk-source/gen/include/aidl/android/hardware/graphics/composer3/DisplayRequest.h",
   "underlying_type" : "_ZTIi"
  },
  {
   "alignment" : 4,
   "enum_fields" :
   [
    {
     "enum_field_value" : 5,
     "name" : "aidl::android::hardware::graphics::composer3::IComposerClient::EX_RESERVED"
    }
   ],
   "linker_set_key" : "_ZTIN4aidl7android8hardware8graphics9composer315IComposerClient12$EX_RESERVEDE",
   "name" : "aidl::android::hardware::graphics::composer3::IComposerClient::(unnamed enum at out/soong/.intermediates/hardware/interfaces/graphics/composer/aidl/android.hardware.graphics.composer3-V1-ndk-source/gen/include/aidl/android/hardware/graphics/composer3/IComposerClient.h:53:3)",
   "referenced_type" : "_ZTIN4aidl7android8hardware8graphics9composer315IComposerClient12$EX_RESERVEDE",
   "self_type" : "_ZTIN4aidl7android8hardware8graphics9composer315IComposerClient12$EX_RESERVEDE",
   "size" : 4,
   "source_file" : "out/soong/.intermediates/hardware/interfaces/graphics/composer/aidl/android.hardware.graphics.composer3-V1-ndk-source/gen/include/aidl/android/hardware/graphics/composer3/IComposerClient.h",
   "underlying_type" : "_ZTIi"
  },
  {
   "alignment" : 4,
   "enum_fields" :
   [
    {
     "enum_field_value" : 3,
     "name" : "aidl::android::hardware::graphics::composer3::IComposerClient::EX_BAD_LAYER"
    }
   ],
   "linker_set_key" : "_ZTIN4aidl7android8hardware8graphics9composer315IComposerClient13$EX_BAD_LAYERE",
   "name" : "aidl::android::hardware::graphics::composer3::IComposerClient::(unnamed enum at out/soong/.intermediates/hardware/interfaces/graphics/composer/aidl/android.hardware.graphics.composer3-V1-ndk-source/gen/include/aidl/android/hardware/graphics/composer3/IComposerClient.h:51:3)",
   "referenced_type" : "_ZTIN4aidl7android8hardware8graphics9composer315IComposerClient13$EX_BAD_LAYERE",
   "self_type" : "_ZTIN4aidl7android8hardware8graphics9composer315IComposerClient13$EX_BAD_LAYERE",
   "size" : 4,
   "source_file" : "out/soong/.intermediates/hardware/interfaces/graphics/composer/aidl/android.hardware.graphics.composer3-V1-ndk-source/gen/include/aidl/android/hardware/graphics/composer3/IComposerClient.h",
   "underlying_type" : "_ZTIi"
  },
  {
   "alignment" : 4,
   "enum_fields" :
   [
    {
     "enum_field_value" : 1,
     "name" : "aidl::android::hardware::graphics::composer3::IComposerClient::EX_BAD_CONFIG"
    }
   ],
   "linker_set_key" : "_ZTIN4aidl7android8hardware8graphics9composer315IComposerClient14$EX_BAD_CONFIGE",
   "name" : "aidl::android::hardware::graphics::composer3::IComposerClient::(unnamed enum at out/soong/.intermediates/hardware/interfaces/graphics/composer/aidl/android.hardware.graphics.composer3-V1-ndk-source/gen/include/aidl/android/hardware/graphics/composer3/IComposerClient.h:49:3)",
   "referenced_type" : "_ZTIN4aidl7android8hardware8graphics9composer315IComposerClient14$EX_BAD_CONFIGE",
   "self_type" : "_ZTIN4aidl7android8hardware8graphics9composer315IComposerClient14$EX_BAD_CONFIGE",
   "size" : 4,
   "source_file" : "out/soong/.intermediates/hardware/interfaces/graphics/composer/aidl/android.hardware.graphics.composer3-V1-ndk-source/gen/include/aidl/android/hardware/graphics/composer3/IComposerClient.h",
   "underlying_type" : "_ZTIi"
  },
  {
   "alignment" : 4,
   "enum_fields" :
   [
    {
     "enum_field_value" : 2,
     "name" : "aidl::android::hardware::graphics::composer3::IComposerClient::EX_BAD_DISPLAY"
    }
   ],
   "linker_set_key" : "_ZTIN4aidl7android8hardware8graphics9composer315IComposerClient15$EX_BAD_DISPLAYE",
   "name" : "aidl::android::hardware::graphics::composer3::IComposerClient::(unnamed enum at out/soong/.intermediates/hardware/interfaces/graphics/composer/aidl/android.hardware.graphics.composer3-V1-ndk-source/gen/include/aidl/android/hardware/graphics/composer3/IComposerClient.h:50:3)",
   "referenced_type" : "_ZTIN4aidl7android8hardware8graphics9composer315IComposerClient15$EX_BAD_DISPLAYE",
   "self_type" : "_ZTIN4aidl7android8hardware8graphics9composer315IComposerClient15$EX_BAD_DISPLAYE",
   "size" : 4,
   "source_file" : "out/soong/.intermediates/hardware/interfaces/graphics/composer/aidl/android.hardware.graphics.composer3-V1-ndk-source/gen/include/aidl/android/hardware/graphics/composer3/IComposerClient.h",
   "underlying_type" : "_ZTIi"
  },
  {
   "alignment" : 4,
   "enum_fields" :
   [
    {
     "enum_field_value" : 8,
     "name" : "aidl::android::hardware::graphics::composer3::IComposerClient::EX_UNSUPPORTED"
    }
   ],
   "linker_set_key" : "_ZTIN4aidl7android8hardware8graphics9composer315IComposerClient15$EX_UNSUPPORTEDE",
   "name" : "aidl::android::hardware::graphics::composer3::IComposerClient::(unnamed enum at out/soong/.intermediates/hardware/interfaces/graphics/composer/aidl/android.hardware.graphics.composer3-V1-ndk-source/gen/include/aidl/android/hardware/graphics/composer3/IComposerClient.h:56:3)",
   "referenced_type" : "_ZTIN4aidl7android8hardware8graphics9composer315IComposerClient15$EX_UNSUPPORTEDE",
   "self_type" : "_ZTIN4aidl7android8hardware8graphics9composer315IComposerClient15$EX_UNSUPPORTEDE",
   "size" : 4,
   "source_file" : "out/soong/.intermediates/hardware/interfaces/graphics/composer/aidl/android.hardware.graphics.composer3-V1-ndk-source/gen/include/aidl/android/hardware/graphics/composer3/IComposerClient.h",
   "underlying_type" : "_ZTIi"
  },
  {
   "alignment" : 4,
   "enum_fields" :
   [
    {
     "enum_field_value" : 6,
     "name" : "aidl::android::hardware::graphics::composer3::IComposerClient::EX_NO_RESOURCES"
    }
   ],
   "linker_set_key" : "_ZTIN4aidl7android8hardware8graphics9composer315IComposerClient16$EX_NO_RESOURCESE",
   "name" : "aidl::android::hardware::graphics::composer3::IComposerClient::(unnamed enum at out/soong/.intermediates/hardware/interfaces/graphics/composer/aidl/android.hardware.graphics.composer3-V1-ndk-source/gen/include/aidl/android/hardware/graphics/composer3/IComposerClient.h:54:3)",
   "referenced_type" : "_ZTIN4aidl7android8hardware8graphics9composer315IComposerClient16$EX_NO_RESOURCESE",
   "self_type" : "_ZTIN4aidl7android8hardware8graphics9composer315IComposerClient16$EX_NO_RESOURCESE",
   "size" : 4,
   "source_file" : "out/soong/.intermediates/hardware/interfaces/graphics/composer/aidl/android.hardware.graphics.composer3-V1-ndk-source/gen/include/aidl/android/hardware/graphics/composer3/IComposerClient.h",
   "underlying_type" : "_ZTIi"
  },
  {
   "alignment" : 4,
   "enum_fields" :
   [
    {
     "enum_field_value" : 4,
     "name" : "aidl::android::hardware::graphics::composer3::IComposerClient::EX_BAD_PARAMETER"
    }
   ],
   "linker_set_key" : "_ZTIN4aidl7android8hardware8graphics9composer315IComposerClient17$EX_BAD_PARAMETERE",
   "name" : "aidl::android::hardware::graphics::composer3::IComposerClient::(unnamed enum at out/soong/.intermediates/hardware/interfaces/graphics/composer/aidl/android.hardware.graphics.composer3-V1-ndk-source/gen/include/aidl/android/hardware/graphics/composer3/IComposerClient.h:52:3)",
   "referenced_type" : "_ZTIN4aidl7android8hardware8graphics9composer315IComposerClient17$EX_BAD_PARAMETERE",
   "self_type" : "_ZTIN4aidl7android8hardware8graphics9composer315IComposerClient17$EX_BAD_PARAMETERE",
   "size" : 4,
   "source_file" : "out/soong/.intermediates/hardware/interfaces/graphics/composer/aidl/android.hardware.graphics.composer3-V1-ndk-source/gen/include/aidl/android/hardware/graphics/composer3/IComposerClient.h",
   "underlying_type" : "_ZTIi"
  },
  {
   "alignment" : 4,
   "enum_fields" :
   [
    {
     "enum_field_value" : 7,
     "name" : "aidl::android::hardware::graphics::composer3::IComposerClient::EX_NOT_VALIDATED"
    }
   ],
   "linker_set_key" : "_ZTIN4aidl7android8hardware8graphics9composer315IComposerClient17$EX_NOT_VALIDATEDE",
   "name" : "aidl::android::hardware::graphics::composer3::IComposerClient::(unnamed enum at out/soong/.intermediates/hardware/interfaces/graphics/composer/aidl/android.hardware.graphics.composer3-V1-ndk-source/gen/include/aidl/android/hardware/graphics/composer3/IComposerClient.h:55:3)",
   "referenced_type" : "_ZTIN4aidl7android8hardware8graphics9composer315IComposerClient17$EX_NOT_VALIDATEDE",
   "self_type" : "_ZTIN4aidl7android8hardware8graphics9composer315IComposerClient17$EX_NOT_VALIDATEDE",
   "size" : 4,
   "source_file" : "out/soong/.intermediates/hardware/interfaces/graphics/composer/aidl/android.hardware.graphics.composer3-V1-ndk-source/gen/include/aidl/android/hardware/graphics/composer3/IComposerClient.h",
   "underlying_type" : "_ZTIi"
  },
  {
   "alignment" : 4,
   "enum_fields" :
   [
    {
     "enum_field_value" : 2147483647,
     "name" : "aidl::android::hardware::graphics::composer3::IComposerClient::INVALID_CONFIGURATION"
    }
   ],
   "linker_set_key" : "_ZTIN4aidl7android8hardware8graphics9composer315IComposerClient22$INVALID_CONFIGURATIONE",
   "name" : "aidl::android::hardware::graphics::composer3::IComposerClient::(unnamed enum at out/soong/.intermediates/hardware/interfaces/graphics/composer/aidl/android.hardware.graphics.composer3-V1-ndk-source/gen/include/aidl/android/hardware/graphics/composer3/IComposerClient.h:59:3)",
   "referenced_type" : "_ZTIN4aidl7android8hardware8graphics9composer315IComposerClient22$INVALID_CONFIGURATIONE",
   "self_type" : "_ZTIN4aidl7android8hardware8graphics9composer315IComposerClient22$INVALID_CONFIGURATIONE",
   "size" : 4,
   "source_file" : "out/soong/.intermediates/hardware/interfaces/graphics/composer/aidl/android.hardware.graphics.composer3-V1-ndk-source/gen/include/aidl/android/hardware/graphics/composer3/IComposerClient.h",
   "underlying_type" : "_ZTIi"
  },
  {
   "alignment" : 4,
   "enum_fields" :
   [
    {
     "enum_field_value" : 9,
     "name" : "aidl::android::hardware::graphics::composer3::IComposerClient::EX_SEAMLESS_NOT_ALLOWED"
    }
   ],
   "linker_set_key" : "_ZTIN4aidl7android8hardware8graphics9composer315IComposerClient24$EX_SEAMLESS_NOT_ALLOWEDE",
   "name" : "aidl::android::hardware::graphics::composer3::IComposerClient::(unnamed enum at out/soong/.intermediates/hardware/interfaces/graphics/composer/aidl/android.hardware.graphics.composer3-V1-ndk-source/gen/include/aidl/android/hardware/graphics/composer3/IComposerClient.h:57:3)",
   "referenced_type" : "_ZTIN4aidl7android8hardware8graphics9composer315IComposerClient24$EX_SEAMLESS_NOT_ALLOWEDE",
   "self_type" : "_ZTIN4aidl7android8hardware8graphics9composer315IComposerClient24$EX_SEAMLESS_NOT_ALLOWEDE",
   "size" : 4,
   "source_file" : "out/soong/.intermediates/hardware/interfaces/graphics/composer/aidl/android.hardware.graphics.composer3-V1-ndk-source/gen/include/aidl/android/hardware/graphics/composer3/IComposerClient.h",
   "underlying_type" : "_ZTIi"
  },
  {
   "alignment" : 4,
   "enum_fields" :
   [
    {
     "enum_field_value" : 10,
     "name" : "aidl::android::hardware::graphics::composer3::IComposerClient::EX_SEAMLESS_NOT_POSSIBLE"
    }
   ],
   "linker_set_key" : "_ZTIN4aidl7android8hardware8graphics9composer315IComposerClient25$EX_SEAMLESS_NOT_POSSIBLEE",
   "name" : "aidl::android::hardware::graphics::composer3::IComposerClient::(unnamed enum at out/soong/.intermediates/hardware/interfaces/graphics/composer/aidl/android.hardware.graphics.composer3-V1-ndk-source/gen/include/aidl/android/hardware/graphics/composer3/IComposerClient.h:58:3)",
   "referenced_type" : "_ZTIN4aidl7android8hardware8graphics9composer315IComposerClient25$EX_SEAMLESS_NOT_POSSIBLEE",
   "self_type" : "_ZTIN4aidl7android8hardware8graphics9composer315IComposerClient25$EX_SEAMLESS_NOT_POSSIBLEE",
   "size" : 4,
   "source_file" : "out/soong/.intermediates/hardware/interfaces/graphics/composer/aidl/android.hardware.graphics.composer3-V1-ndk-source/gen/include/aidl/android/hardware/graphics/composer3/IComposerClient.h",
   "underlying_type" : "_ZTIi"
  },
  {
   "alignment" : 4,
   "enum_fields" :
   [
    {
     "enum_field_value" : 0,
     "name" : "aidl::android::hardware::graphics::composer3::DisplayAttribute::INVALID"
    },
    {
     "enum_field_value" : 1,
     "name" : "aidl::android::hardware::graphics::composer3::DisplayAttribute::WIDTH"
    },
    {
     "enum_field_value" : 2,
     "name" : "aidl::android::hardware::graphics::composer3::DisplayAttribute::HEIGHT"
    },
    {
     "enum_field_value" : 3,
     "name" : "aidl::android::hardware::graphics::composer3::DisplayAttribute::VSYNC_PERIOD"
    },
    {
     "enum_field_value" : 4,
     "name" : "aidl::android::hardware::graphics::composer3::DisplayAttribute::DPI_X"
    },
    {
     "enum_field_value" : 5,
     "name" : "aidl::android::hardware::graphics::composer3::DisplayAttribute::DPI_Y"
    },
    {
     "enum_field_value" : 7,
     "name" : "aidl::android::hardware::graphics::composer3::DisplayAttribute::CONFIG_GROUP"
    }
   ],
   "linker_set_key" : "_ZTIN4aidl7android8hardware8graphics9composer316DisplayAttributeE",
   "name" : "aidl::android::hardware::graphics::composer3::DisplayAttribute",
   "referenced_type" : "_ZTIN4aidl7android8hardware8graphics9composer316DisplayAttributeE",
   "self_type" : "_ZTIN4aidl7android8hardware8graphics9composer316DisplayAttributeE",
   "size" : 4,
   "source_file" : "out/soong/.intermediates/hardware/interfaces/graphics/composer/aidl/android.hardware.graphics.composer3-V1-ndk-source/gen/include/aidl/android/hardware/graphics/composer3/DisplayAttribute.h",
   "underlying_type" : "_ZTIi"
  },
  {
   "alignment" : 4,
   "enum_fields" :
   [
    {
     "enum_field_value" : 0,
     "name" : "aidl::android::hardware::graphics::composer3::DisplayCapability::INVALID"
    },
    {
     "enum_field_value" : 1,
     "name" : "aidl::android::hardware::graphics::composer3::DisplayCapability::SKIP_CLIENT_COLOR_TRANSFORM"
    },
    {
     "enum_field_value" : 2,
     "name" : "aidl::android::hardware::graphics::composer3::DisplayCapability::DOZE"
    },
    {
     "enum_field_value" : 3,
     "name" : "aidl::android::hardware::graphics::composer3::DisplayCapability::BRIGHTNESS"
    },
    {
     "enum_field_value" : 4,
     "name" : "aidl::android::hardware::graphics::composer3::DisplayCapability::PROTECTED_CONTENTS"
    },
    {
     "enum_field_value" : 5,
     "name" : "aidl::android::hardware::graphics::composer3::DisplayCapability::AUTO_LOW_LATENCY_MODE"
    },
    {
     "enum_field_value" : 6,
     "name" : "aidl::android::hardware::graphics::composer3::DisplayCapability::SUSPEND"
    },
    {
     "enum_field_value" : 7,
     "name" : "aidl::android::hardware::graphics::composer3::DisplayCapability::DISPLAY_IDLE_TIMER"
    }
   ],
   "linker_set_key" : "_ZTIN4aidl7android8hardware8graphics9composer317DisplayCapabilityE",
   "name" : "aidl::android::hardware::graphics::composer3::DisplayCapability",
   "referenced_type" : "_ZTIN4aidl7android8hardware8graphics9composer317DisplayCapabilityE",
   "self_type" : "_ZTIN4aidl7android8hardware8graphics9composer317DisplayCapabilityE",
   "size" : 4,
   "source_file" : "out/soong/.intermediates/hardware/interfaces/graphics/composer/aidl/android.hardware.graphics.composer3-V1-ndk-source/gen/include/aidl/android/hardware/graphics/composer3/DisplayCapability.h",
   "underlying_type" : "_ZTIi"
  },
  {
   "alignment" : 1,
   "enum_fields" :
   [
    {
     "enum_field_value" : 0,
     "name" : "aidl::android::hardware::graphics::composer3::PresentOrValidate::Result::Validated"
    },
    {
     "enum_field_value" : 1,
     "name" : "aidl::android::hardware::graphics::composer3::PresentOrValidate::Result::Presented"
    }
   ],
   "linker_set_key" : "_ZTIN4aidl7android8hardware8graphics9composer317PresentOrValidate6ResultE",
   "name" : "aidl::android::hardware::graphics::composer3::PresentOrValidate::Result",
   "referenced_type" : "_ZTIN4aidl7android8hardware8graphics9composer317PresentOrValidate6ResultE",
   "self_type" : "_ZTIN4aidl7android8hardware8graphics9composer317PresentOrValidate6ResultE",
   "size" : 1,
   "source_file" : "out/soong/.intermediates/hardware/interfaces/graphics/composer/aidl/android.hardware.graphics.composer3-V1-ndk-source/gen/include/aidl/android/hardware/graphics/composer3/PresentOrValidate.h",
   "underlying_type" : "_ZTIa"
  },
  {
   "alignment" : 4,
   "enum_fields" :
   [
    {
     "enum_field_value" : 0,
     "name" : "aidl::android::hardware::graphics::composer3::PerFrameMetadataKey::DISPLAY_RED_PRIMARY_X"
    },
    {
     "enum_field_value" : 1,
     "name" : "aidl::android::hardware::graphics::composer3::PerFrameMetadataKey::DISPLAY_RED_PRIMARY_Y"
    },
    {
     "enum_field_value" : 2,
     "name" : "aidl::android::hardware::graphics::composer3::PerFrameMetadataKey::DISPLAY_GREEN_PRIMARY_X"
    },
    {
     "enum_field_value" : 3,
     "name" : "aidl::android::hardware::graphics::composer3::PerFrameMetadataKey::DISPLAY_GREEN_PRIMARY_Y"
    },
    {
     "enum_field_value" : 4,
     "name" : "aidl::android::hardware::graphics::composer3::PerFrameMetadataKey::DISPLAY_BLUE_PRIMARY_X"
    },
    {
     "enum_field_value" : 5,
     "name" : "aidl::android::hardware::graphics::composer3::PerFrameMetadataKey::DISPLAY_BLUE_PRIMARY_Y"
    },
    {
     "enum_field_value" : 6,
     "name" : "aidl::android::hardware::graphics::composer3::PerFrameMetadataKey::WHITE_POINT_X"
    },
    {
     "enum_field_value" : 7,
     "name" : "aidl::android::hardware::graphics::composer3::PerFrameMetadataKey::WHITE_POINT_Y"
    },
    {
     "enum_field_value" : 8,
     "name" : "aidl::android::hardware::graphics::composer3::PerFrameMetadataKey::MAX_LUMINANCE"
    },
    {
     "enum_field_value" : 9,
     "name" : "aidl::android::hardware::graphics::composer3::PerFrameMetadataKey::MIN_LUMINANCE"
    },
    {
     "enum_field_value" : 10,
     "name" : "aidl::android::hardware::graphics::composer3::PerFrameMetadataKey::MAX_CONTENT_LIGHT_LEVEL"
    },
    {
     "enum_field_value" : 11,
     "name" : "aidl::android::hardware::graphics::composer3::PerFrameMetadataKey::MAX_FRAME_AVERAGE_LIGHT_LEVEL"
    },
    {
     "enum_field_value" : 12,
     "name" : "aidl::android::hardware::graphics::composer3::PerFrameMetadataKey::HDR10_PLUS_SEI"
    }
   ],
   "linker_set_key" : "_ZTIN4aidl7android8hardware8graphics9composer319PerFrameMetadataKeyE",
   "name" : "aidl::android::hardware::graphics::composer3::PerFrameMetadataKey",
   "referenced_type" : "_ZTIN4aidl7android8hardware8graphics9composer319PerFrameMetadataKeyE",
   "self_type" : "_ZTIN4aidl7android8hardware8graphics9composer319PerFrameMetadataKeyE",
   "size" : 4,
   "source_file" : "out/soong/.intermediates/hardware/interfaces/graphics/composer/aidl/android.hardware.graphics.composer3-V1-ndk-source/gen/include/aidl/android/hardware/graphics/composer3/PerFrameMetadataKey.h",
   "underlying_type" : "_ZTIi"
  },
  {
   "alignment" : 4,
   "enum_fields" :
   [
    {
     "enum_field_value" : 0,
     "name" : "aidl::android::hardware::graphics::composer3::CommandResultPayload::Tag::error"
    },
    {
     "enum_field_value" : 1,
     "name" : "aidl::android::hardware::graphics::composer3::CommandResultPayload::Tag::changedCompositionTypes"
    },
    {
     "enum_field_value" : 2,
     "name" : "aidl::android::hardware::graphics::composer3::CommandResultPayload::Tag::displayRequest"
    },
    {
     "enum_field_value" : 3,
     "name" : "aidl::android::hardware::graphics::composer3::CommandResultPayload::Tag::presentFence"
    },
    {
     "enum_field_value" : 4,
     "name" : "aidl::android::hardware::graphics::composer3::CommandResultPayload::Tag::releaseFences"
    },
    {
     "enum_field_value" : 5,
     "name" : "aidl::android::hardware::graphics::composer3::CommandResultPayload::Tag::presentOrValidateResult"
    },
    {
     "enum_field_value" : 6,
     "name" : "aidl::android::hardware::graphics::composer3::CommandResultPayload::Tag::clientTargetProperty"
    }
   ],
   "linker_set_key" : "_ZTIN4aidl7android8hardware8graphics9composer320CommandResultPayload3TagE",
   "name" : "aidl::android::hardware::graphics::composer3::CommandResultPayload::Tag",
   "referenced_type" : "_ZTIN4aidl7android8hardware8graphics9composer320CommandResultPayload3TagE",
   "self_type" : "_ZTIN4aidl7android8hardware8graphics9composer320CommandResultPayload3TagE",
   "size" : 4,
   "source_file" : "out/soong/.intermediates/hardware/interfaces/graphics/composer/aidl/android.hardware.graphics.composer3-V1-ndk-source/gen/include/aidl/android/hardware/graphics/composer3/CommandResultPayload.h",
   "underlying_type" : "_ZTIi"
  },
  {
   "alignment" : 1,
   "enum_fields" :
   [
    {
     "enum_field_value" : 1,
     "name" : "aidl::android::hardware::graphics::composer3::FormatColorComponent::FORMAT_COMPONENT_0"
    },
    {
     "enum_field_value" : 2,
     "name" : "aidl::android::hardware::graphics::composer3::FormatColorComponent::FORMAT_COMPONENT_1"
    },
    {
     "enum_field_value" : 4,
     "name" : "aidl::android::hardware::graphics::composer3::FormatColorComponent::FORMAT_COMPONENT_2"
    },
    {
     "enum_field_value" : 8,
     "name" : "aidl::android::hardware::graphics::composer3::FormatColorComponent::FORMAT_COMPONENT_3"
    }
   ],
   "linker_set_key" : "_ZTIN4aidl7android8hardware8graphics9composer320FormatColorComponentE",
   "name" : "aidl::android::hardware::graphics::composer3::FormatColorComponent",
   "referenced_type" : "_ZTIN4aidl7android8hardware8graphics9composer320FormatColorComponentE",
   "self_type" : "_ZTIN4aidl7android8hardware8graphics9composer320FormatColorComponentE",
   "size" : 1,
   "source_file" : "out/soong/.intermediates/hardware/interfaces/graphics/composer/aidl/android.hardware.graphics.composer3-V1-ndk-source/gen/include/aidl/android/hardware/graphics/composer3/FormatColorComponent.h",
   "underlying_type" : "_ZTIa"
  },
  {
   "alignment" : 4,
   "enum_fields" :
   [
    {
     "enum_field_value" : 0,
     "name" : "aidl::android::hardware::graphics::composer3::DisplayConnectionType::INTERNAL"
    },
    {
     "enum_field_value" : 1,
     "name" : "aidl::android::hardware::graphics::composer3::DisplayConnectionType::EXTERNAL"
    }
   ],
   "linker_set_key" : "_ZTIN4aidl7android8hardware8graphics9composer321DisplayConnectionTypeE",
   "name" : "aidl::android::hardware::graphics::composer3::DisplayConnectionType",
   "referenced_type" : "_ZTIN4aidl7android8hardware8graphics9composer321DisplayConnectionTypeE",
   "self_type" : "_ZTIN4aidl7android8hardware8graphics9composer321DisplayConnectionTypeE",
   "size" : 4,
   "source_file" : "out/soong/.intermediates/hardware/interfaces/graphics/composer/aidl/android.hardware.graphics.composer3-V1-ndk-source/gen/include/aidl/android/hardware/graphics/composer3/DisplayConnectionType.h",
   "underlying_type" : "_ZTIi"
  },
  {
   "alignment" : 4,
   "enum_fields" :
   [
    {
     "enum_field_value" : 0,
     "name" : "aidl::android::hardware::graphics::composer3::ColorMode::NATIVE"
    },
    {
     "enum_field_value" : 1,
     "name" : "aidl::android::hardware::graphics::composer3::ColorMode::STANDARD_BT601_625"
    },
    {
     "enum_field_value" : 2,
     "name" : "aidl::android::hardware::graphics::composer3::ColorMode::STANDARD_BT601_625_UNADJUSTED"
    },
    {
     "enum_field_value" : 3,
     "name" : "aidl::android::hardware::graphics::composer3::ColorMode::STANDARD_BT601_525"
    },
    {
     "enum_field_value" : 4,
     "name" : "aidl::android::hardware::graphics::composer3::ColorMode::STANDARD_BT601_525_UNADJUSTED"
    },
    {
     "enum_field_value" : 5,
     "name" : "aidl::android::hardware::graphics::composer3::ColorMode::STANDARD_BT709"
    },
    {
     "enum_field_value" : 6,
     "name" : "aidl::android::hardware::graphics::composer3::ColorMode::DCI_P3"
    },
    {
     "enum_field_value" : 7,
     "name" : "aidl::android::hardware::graphics::composer3::ColorMode::SRGB"
    },
    {
     "enum_field_value" : 8,
     "name" : "aidl::android::hardware::graphics::composer3::ColorMode::ADOBE_RGB"
    },
    {
     "enum_field_value" : 9,
     "name" : "aidl::android::hardware::graphics::composer3::ColorMode::DISPLAY_P3"
    },
    {
     "enum_field_value" : 10,
     "name" : "aidl::android::hardware::graphics::composer3::ColorMode::BT2020"
    },
    {
     "enum_field_value" : 11,
     "name" : "aidl::android::hardware::graphics::composer3::ColorMode::BT2100_PQ"
    },
    {
     "enum_field_value" : 12,
     "name" : "aidl::android::hardware::graphics::composer3::ColorMode::BT2100_HLG"
    },
    {
     "enum_field_value" : 13,
     "name" : "aidl::android::hardware::graphics::composer3::ColorMode::DISPLAY_BT2020"
    }
   ],
   "linker_set_key" : "_ZTIN4aidl7android8hardware8graphics9composer39ColorModeE",
   "name" : "aidl::android::hardware::graphics::composer3::ColorMode",
   "referenced_type" : "_ZTIN4aidl7android8hardware8graphics9composer39ColorModeE",
   "self_type" : "_ZTIN4aidl7android8hardware8graphics9composer39ColorModeE",
   "size" : 4,
   "source_file" : "out/soong/.intermediates/hardware/interfaces/graphics/composer/aidl/android.hardware.graphics.composer3-V1-ndk-source/gen/include/aidl/android/hardware/graphics/composer3/ColorMode.h",
   "underlying_type" : "_ZTIi"
  },
  {
   "alignment" : 4,
   "enum_fields" :
   [
    {
     "enum_field_value" : 6,
     "name" : "aidl::android::hardware::graphics::composer3::IComposer::EX_NO_RESOURCES"
    }
   ],
   "linker_set_key" : "_ZTIN4aidl7android8hardware8graphics9composer39IComposer16$EX_NO_RESOURCESE",
   "name" : "aidl::android::hardware::graphics::composer3::IComposer::(unnamed enum at out/soong/.intermediates/hardware/interfaces/graphics/composer/aidl/android.hardware.graphics.composer3-V1-ndk-source/gen/include/aidl/android/hardware/graphics/composer3/IComposer.h:26:3)",
   "referenced_type" : "_ZTIN4aidl7android8hardware8graphics9composer39IComposer16$EX_NO_RESOURCESE",
   "self_type" : "_ZTIN4aidl7android8hardware8graphics9composer39IComposer16$EX_NO_RESOURCESE",
   "size" : 4,
   "source_file" : "out/soong/.intermediates/hardware/interfaces/graphics/composer/aidl/android.hardware.graphics.composer3-V1-ndk-source/gen/include/aidl/android/hardware/graphics/composer3/IComposer.h",
   "underlying_type" : "_ZTIi"
  },
  {
   "alignment" : 4,
   "enum_fields" :
   [
    {
     "enum_field_value" : 0,
     "name" : "aidl::android::hardware::graphics::composer3::PowerMode::OFF"
    },
    {
     "enum_field_value" : 1,
     "name" : "aidl::android::hardware::graphics::composer3::PowerMode::DOZE"
    },
    {
     "enum_field_value" : 3,
     "name" : "aidl::android::hardware::graphics::composer3::PowerMode::DOZE_SUSPEND"
    },
    {
     "enum_field_value" : 2,
     "name" : "aidl::android::hardware::graphics::composer3::PowerMode::ON"
    },
    {
     "enum_field_value" : 4,
     "name" : "aidl::android::hardware::graphics::composer3::PowerMode::ON_SUSPEND"
    }
   ],
   "linker_set_key" : "_ZTIN4aidl7android8hardware8graphics9composer39PowerModeE",
   "name" : "aidl::android::hardware::graphics::composer3::PowerMode",
   "referenced_type" : "_ZTIN4aidl7android8hardware8graphics9composer39PowerModeE",
   "self_type" : "_ZTIN4aidl7android8hardware8graphics9composer39PowerModeE",
   "size" : 4,
   "source_file" : "out/soong/.intermediates/hardware/interfaces/graphics/composer/aidl/android.hardware.graphics.composer3-V1-ndk-source/gen/include/aidl/android/hardware/graphics/composer3/PowerMode.h",
   "underlying_type" : "_ZTIi"
  },
  {
   "alignment" : 4,
   "enum_fields" :
   [
    {
     "enum_field_value" : 1,
     "name" : "android::internal::details::IsIterable<std::vector<ndk::ScopedFileDescriptor>>::value"
    }
   ],
   "linker_set_key" : "_ZTIN7android8internal7details10IsIterableINSt3__16vectorIN3ndk20ScopedFileDescriptorENS3_9allocatorIS6_EEEEE6$valueE",
   "name" : "android::internal::details::IsIterable<std::vector<ndk::ScopedFileDescriptor, std::allocator<ndk::ScopedFileDescriptor>>>::(unnamed enum at frameworks/native/libs/binder/ndk/include_cpp/android/binder_to_string.h:131:5)",
   "referenced_type" : "_ZTIN7android8internal7details10IsIterableINSt3__16vectorIN3ndk20ScopedFileDescriptorENS3_9allocatorIS6_EEEEE6$valueE",
   "self_type" : "_ZTIN7android8internal7details10IsIterableINSt3__16vectorIN3ndk20ScopedFileDescriptorENS3_9allocatorIS6_EEEEE6$valueE",
   "size" : 4,
   "source_file" : "frameworks/native/libs/binder/ndk/include_cpp/android/binder_to_string.h",
   "underlying_type" : "_ZTIj"
  },
  {
   "alignment" : 4,
   "enum_fields" :
   [
    {
     "enum_field_value" : 1,
     "name" : "android::internal::details::IsIterable<std::vector<aidl::android::hardware::graphics::common::Hdr>>::value"
    }
   ],
   "linker_set_key" : "_ZTIN7android8internal7details10IsIterableINSt3__16vectorIN4aidl7android8hardware8graphics6common3HdrENS3_9allocatorISA_EEEEE6$valueE",
   "name" : "android::internal::details::IsIterable<std::vector<aidl::android::hardware::graphics::common::Hdr, std::allocator<aidl::android::hardware::graphics::common::Hdr>>>::(unnamed enum at frameworks/native/libs/binder/ndk/include_cpp/android/binder_to_string.h:131:5)",
   "referenced_type" : "_ZTIN7android8internal7details10IsIterableINSt3__16vectorIN4aidl7android8hardware8graphics6common3HdrENS3_9allocatorISA_EEEEE6$valueE",
   "self_type" : "_ZTIN7android8internal7details10IsIterableINSt3__16vectorIN4aidl7android8hardware8graphics6common3HdrENS3_9allocatorISA_EEEEE6$valueE",
   "size" : 4,
   "source_file" : "frameworks/native/libs/binder/ndk/include_cpp/android/binder_to_string.h",
   "underlying_type" : "_ZTIj"
  },
  {
   "alignment" : 4,
   "enum_fields" :
   [
    {
     "enum_field_value" : 1,
     "name" : "android::internal::details::IsIterable<std::vector<aidl::android::hardware::graphics::common::Rect>>::value"
    }
   ],
   "linker_set_key" : "_ZTIN7android8internal7details10IsIterableINSt3__16vectorIN4aidl7android8hardware8graphics6common4RectENS3_9allocatorISA_EEEEE6$valueE",
   "name" : "android::internal::details::IsIterable<std::vector<aidl::android::hardware::graphics::common::Rect, std::allocator<aidl::android::hardware::graphics::common::Rect>>>::(unnamed enum at frameworks/native/libs/binder/ndk/include_cpp/android/binder_to_string.h:131:5)",
   "referenced_type" : "_ZTIN7android8internal7details10IsIterableINSt3__16vectorIN4aidl7android8hardware8graphics6common4RectENS3_9allocatorISA_EEEEE6$valueE",
   "self_type" : "_ZTIN7android8internal7details10IsIterableINSt3__16vectorIN4aidl7android8hardware8graphics6common4RectENS3_9allocatorISA_EEEEE6$valueE",
   "size" : 4,
   "source_file" : "frameworks/native/libs/binder/ndk/include_cpp/android/binder_to_string.h",
   "underlying_type" : "_ZTIj"
  },
  {
   "alignment" : 4,
   "enum_fields" :
   [
    {
     "enum_field_value" : 1,
     "name" : "android::internal::details::IsIterable<std::vector<aidl::android::hardware::graphics::composer3::LayerCommand>>::value"
    }
   ],
   "linker_set_key" : "_ZTIN7android8internal7details10IsIterableINSt3__16vectorIN4aidl7android8hardware8graphics9composer312LayerCommandENS3_9allocatorISA_EEEEE6$valueE",
   "name" : "android::internal::details::IsIterable<std::vector<aidl::android::hardware::graphics::composer3::LayerCommand, std::allocator<aidl::android::hardware::graphics::composer3::LayerCommand>>>::(unnamed enum at frameworks/native/libs/binder/ndk/include_cpp/android/binder_to_string.h:131:5)",
   "referenced_type" : "_ZTIN7android8internal7details10IsIterableINSt3__16vectorIN4aidl7android8hardware8graphics9composer312LayerCommandENS3_9allocatorISA_EEEEE6$valueE",
   "self_type" : "_ZTIN7android8internal7details10IsIterableINSt3__16vectorIN4aidl7android8hardware8graphics9composer312LayerCommandENS3_9allocatorISA_EEEEE6$valueE",
   "size" : 4,
   "source_file" : "frameworks/native/libs/binder/ndk/include_cpp/android/binder_to_string.h",
   "underlying_type" : "_ZTIj"
  },
  {
   "alignment" : 4,
   "enum_fields" :
   [
    {
     "enum_field_value" : 1,
     "name" : "android::internal::details::IsIterable<std::vector<aidl::android::hardware::graphics::composer3::ReleaseFences::Layer>>::value"
    }
   ],
   "linker_set_key" : "_ZTIN7android8internal7details10IsIterableINSt3__16vectorIN4aidl7android8hardware8graphics9composer313ReleaseFences5LayerENS3_9allocatorISB_EEEEE6$valueE",
   "name" : "android::internal::details::IsIterable<std::vector<aidl::android::hardware::graphics::composer3::ReleaseFences::Layer, std::allocator<aidl::android::hardware::graphics::composer3::ReleaseFences::Layer>>>::(unnamed enum at frameworks/native/libs/binder/ndk/include_cpp/android/binder_to_string.h:131:5)",
   "referenced_type" : "_ZTIN7android8internal7details10IsIterableINSt3__16vectorIN4aidl7android8hardware8graphics9composer313ReleaseFences5LayerENS3_9allocatorISB_EEEEE6$valueE",
   "self_type" : "_ZTIN7android8internal7details10IsIterableINSt3__16vectorIN4aidl7android8hardware8graphics9composer313ReleaseFences5LayerENS3_9allocatorISB_EEEEE6$valueE",
   "size" : 4,
   "source_file" : "frameworks/native/libs/binder/ndk/include_cpp/android/binder_to_string.h",
   "underlying_type" : "_ZTIj"
  },
  {
   "alignment" : 4,
   "enum_fields" :
   [
    {
     "enum_field_value" : 1,
     "name" : "android::internal::details::IsIterable<std::vector<aidl::android::hardware::graphics::composer3::DisplayRequest::LayerRequest>>::value"
    }
   ],
   "linker_set_key" : "_ZTIN7android8internal7details10IsIterableINSt3__16vectorIN4aidl7android8hardware8graphics9composer314DisplayRequest12LayerRequestENS3_9allocatorISB_EEEEE6$valueE",
   "name" : "android::internal::details::IsIterable<std::vector<aidl::android::hardware::graphics::composer3::DisplayRequest::LayerRequest, std::allocator<aidl::android::hardware::graphics::composer3::DisplayRequest::LayerRequest>>>::(unnamed enum at frameworks/native/libs/binder/ndk/include_cpp/android/binder_to_string.h:131:5)",
   "referenced_type" : "_ZTIN7android8internal7details10IsIterableINSt3__16vectorIN4aidl7android8hardware8graphics9composer314DisplayRequest12LayerRequestENS3_9allocatorISB_EEEEE6$valueE",
   "self_type" : "_ZTIN7android8internal7details10IsIterableINSt3__16vectorIN4aidl7android8hardware8graphics9composer314DisplayRequest12LayerRequestENS3_9allocatorISB_EEEEE6$valueE",
   "size" : 4,
   "source_file" : "frameworks/native/libs/binder/ndk/include_cpp/android/binder_to_string.h",
   "underlying_type" : "_ZTIj"
  },
  {
   "alignment" : 4,
   "enum_fields" :
   [
    {
     "enum_field_value" : 1,
     "name" : "android::internal::details::IsIterable<std::vector<aidl::android::hardware::graphics::composer3::ChangedCompositionLayer>>::value"
    }
   ],
   "linker_set_key" : "_ZTIN7android8internal7details10IsIterableINSt3__16vectorIN4aidl7android8hardware8graphics9composer323ChangedCompositionLayerENS3_9allocatorISA_EEEEE6$valueE",
   "name" : "android::internal::details::IsIterable<std::vector<aidl::android::hardware::graphics::composer3::ChangedCompositionLayer, std::allocator<aidl::android::hardware::graphics::composer3::ChangedCompositionLayer>>>::(unnamed enum at frameworks/native/libs/binder/ndk/include_cpp/android/binder_to_string.h:131:5)",
   "referenced_type" : "_ZTIN7android8internal7details10IsIterableINSt3__16vectorIN4aidl7android8hardware8graphics9composer323ChangedCompositionLayerENS3_9allocatorISA_EEEEE6$valueE",
   "self_type" : "_ZTIN7android8internal7details10IsIterableINSt3__16vectorIN4aidl7android8hardware8graphics9composer323ChangedCompositionLayerENS3_9allocatorISA_EEEEE6$valueE",
   "size" : 4,
   "source_file" : "frameworks/native/libs/binder/ndk/include_cpp/android/binder_to_string.h",
   "underlying_type" : "_ZTIj"
  },
  {
   "alignment" : 4,
   "enum_fields" :
   [
    {
     "enum_field_value" : 1,
     "name" : "android::internal::details::IsIterable<std::vector<std::optional<aidl::android::hardware::graphics::common::Rect>>>::value"
    }
   ],
   "linker_set_key" : "_ZTIN7android8internal7details10IsIterableINSt3__16vectorINS3_8optionalIN4aidl7android8hardware8graphics6common4RectEEENS3_9allocatorISC_EEEEE6$valueE",
   "name" : "android::internal::details::IsIterable<std::vector<std::optional<aidl::android::hardware::graphics::common::Rect>, std::allocator<std::optional<aidl::android::hardware::graphics::common::Rect>>>>::(unnamed enum at frameworks/native/libs/binder/ndk/include_cpp/android/binder_to_string.h:131:5)",
   "referenced_type" : "_ZTIN7android8internal7details10IsIterableINSt3__16vectorINS3_8optionalIN4aidl7android8hardware8graphics6common4RectEEENS3_9allocatorISC_EEEEE6$valueE",
   "self_type" : "_ZTIN7android8internal7details10IsIterableINSt3__16vectorINS3_8optionalIN4aidl7android8hardware8graphics6common4RectEEENS3_9allocatorISC_EEEEE6$valueE",
   "size" : 4,
   "source_file" : "frameworks/native/libs/binder/ndk/include_cpp/android/binder_to_string.h",
   "underlying_type" : "_ZTIj"
  },
  {
   "alignment" : 4,
   "enum_fields" :
   [
    {
     "enum_field_value" : 1,
     "name" : "android::internal::details::IsIterable<std::vector<std::optional<aidl::android::hardware::graphics::composer3::PerFrameMetadata>>>::value"
    }
   ],
   "linker_set_key" : "_ZTIN7android8internal7details10IsIterableINSt3__16vectorINS3_8optionalIN4aidl7android8hardware8graphics9composer316PerFrameMetadataEEENS3_9allocatorISC_EEEEE6$valueE",
   "name" : "android::internal::details::IsIterable<std::vector<std::optional<aidl::android::hardware::graphics::composer3::PerFrameMetadata>, std::allocator<std::optional<aidl::android::hardware::graphics::composer3::PerFrameMetadata>>>>::(unnamed enum at frameworks/native/libs/binder/ndk/include_cpp/android/binder_to_string.h:131:5)",
   "referenced_type" : "_ZTIN7android8internal7details10IsIterableINSt3__16vectorINS3_8optionalIN4aidl7android8hardware8graphics9composer316PerFrameMetadataEEENS3_9allocatorISC_EEEEE6$valueE",
   "self_type" : "_ZTIN7android8internal7details10IsIterableINSt3__16vectorINS3_8optionalIN4aidl7android8hardware8graphics9composer316PerFrameMetadataEEENS3_9allocatorISC_EEEEE6$valueE",
   "size" : 4,
   "source_file" : "frameworks/native/libs/binder/ndk/include_cpp/android/binder_to_string.h",
   "underlying_type" : "_ZTIj"
  },
  {
   "alignment" : 4,
   "enum_fields" :
   [
    {
     "enum_field_value" : 1,
     "name" : "android::internal::details::IsIterable<std::vector<std::optional<aidl::android::hardware::graphics::composer3::PerFrameMetadataBlob>>>::value"
    }
   ],
   "linker_set_key" : "_ZTIN7android8internal7details10IsIterableINSt3__16vectorINS3_8optionalIN4aidl7android8hardware8graphics9composer320PerFrameMetadataBlobEEENS3_9allocatorISC_EEEEE6$valueE",
   "name" : "android::internal::details::IsIterable<std::vector<std::optional<aidl::android::hardware::graphics::composer3::PerFrameMetadataBlob>, std::allocator<std::optional<aidl::android::hardware::graphics::composer3::PerFrameMetadataBlob>>>>::(unnamed enum at frameworks/native/libs/binder/ndk/include_cpp/android/binder_to_string.h:131:5)",
   "referenced_type" : "_ZTIN7android8internal7details10IsIterableINSt3__16vectorINS3_8optionalIN4aidl7android8hardware8graphics9composer320PerFrameMetadataBlobEEENS3_9allocatorISC_EEEEE6$valueE",
   "self_type" : "_ZTIN7android8internal7details10IsIterableINSt3__16vectorINS3_8optionalIN4aidl7android8hardware8graphics9composer320PerFrameMetadataBlobEEENS3_9allocatorISC_EEEEE6$valueE",
   "size" : 4,
   "source_file" : "frameworks/native/libs/binder/ndk/include_cpp/android/binder_to_string.h",
   "underlying_type" : "_ZTIj"
  },
  {
   "alignment" : 4,
   "enum_fields" :
   [
    {
     "enum_field_value" : 1,
     "name" : "android::internal::details::IsIterable<std::vector<float>>::value"
    }
   ],
   "linker_set_key" : "_ZTIN7android8internal7details10IsIterableINSt3__16vectorIfNS3_9allocatorIfEEEEE6$valueE",
   "name" : "android::internal::details::IsIterable<std::vector<float, std::allocator<float>>>::(unnamed enum at frameworks/native/libs/binder/ndk/include_cpp/android/binder_to_string.h:131:5)",
   "referenced_type" : "_ZTIN7android8internal7details10IsIterableINSt3__16vectorIfNS3_9allocatorIfEEEEE6$valueE",
   "self_type" : "_ZTIN7android8internal7details10IsIterableINSt3__16vectorIfNS3_9allocatorIfEEEEE6$valueE",
   "size" : 4,
   "source_file" : "frameworks/native/libs/binder/ndk/include_cpp/android/binder_to_string.h",
   "underlying_type" : "_ZTIj"
  },
  {
   "alignment" : 4,
   "enum_fields" :
   [
    {
     "enum_field_value" : 1,
     "name" : "android::internal::details::IsIterable<std::vector<unsigned char>>::value"
    }
   ],
   "linker_set_key" : "_ZTIN7android8internal7details10IsIterableINSt3__16vectorIhNS3_9allocatorIhEEEEE6$valueE",
   "name" : "android::internal::details::IsIterable<std::vector<unsigned char, std::allocator<unsigned char>>>::(unnamed enum at frameworks/native/libs/binder/ndk/include_cpp/android/binder_to_string.h:131:5)",
   "referenced_type" : "_ZTIN7android8internal7details10IsIterableINSt3__16vectorIhNS3_9allocatorIhEEEEE6$valueE",
   "self_type" : "_ZTIN7android8internal7details10IsIterableINSt3__16vectorIhNS3_9allocatorIhEEEEE6$valueE",
   "size" : 4,
   "source_file" : "frameworks/native/libs/binder/ndk/include_cpp/android/binder_to_string.h",
   "underlying_type" : "_ZTIj"
  },
  {
   "alignment" : 4,
   "enum_fields" :
   [
    {
     "enum_field_value" : 1,
     "name" : "android::internal::details::IsIterable<std::vector<int>>::value"
    }
   ],
   "linker_set_key" : "_ZTIN7android8internal7details10IsIterableINSt3__16vectorIiNS3_9allocatorIiEEEEE6$valueE",
   "name" : "android::internal::details::IsIterable<std::vector<int, std::allocator<int>>>::(unnamed enum at frameworks/native/libs/binder/ndk/include_cpp/android/binder_to_string.h:131:5)",
   "referenced_type" : "_ZTIN7android8internal7details10IsIterableINSt3__16vectorIiNS3_9allocatorIiEEEEE6$valueE",
   "self_type" : "_ZTIN7android8internal7details10IsIterableINSt3__16vectorIiNS3_9allocatorIiEEEEE6$valueE",
   "size" : 4,
   "source_file" : "frameworks/native/libs/binder/ndk/include_cpp/android/binder_to_string.h",
   "underlying_type" : "_ZTIj"
  },
  {
   "alignment" : 4,
   "enum_fields" :
   [
    {
     "enum_field_value" : 1,
     "name" : "android::internal::details::IsIterable<std::vector<long long>>::value"
    }
   ],
   "linker_set_key" : "_ZTIN7android8internal7details10IsIterableINSt3__16vectorIxNS3_9allocatorIxEEEEE6$valueE",
   "name" : "android::internal::details::IsIterable<std::vector<long long, std::allocator<long long>>>::(unnamed enum at frameworks/native/libs/binder/ndk/include_cpp/android/binder_to_string.h:131:5)",
   "referenced_type" : "_ZTIN7android8internal7details10IsIterableINSt3__16vectorIxNS3_9allocatorIxEEEEE6$valueE",
   "self_type" : "_ZTIN7android8internal7details10IsIterableINSt3__16vectorIxNS3_9allocatorIxEEEEE6$valueE",
   "size" : 4,
   "source_file" : "frameworks/native/libs/binder/ndk/include_cpp/android/binder_to_string.h",
   "underlying_type" : "_ZTIj"
  },
  {
   "alignment" : 4,
   "enum_fields" :
   [
    {
     "enum_field_value" : 0,
     "name" : "android::internal::details::IsPointerLike<aidl::android::hardware::common::NativeHandle>::value"
    }
   ],
   "linker_set_key" : "_ZTIN7android8internal7details13IsPointerLikeIN4aidl7android8hardware6common12NativeHandleEE6$valueE",
   "name" : "android::internal::details::IsPointerLike<aidl::android::hardware::common::NativeHandle>::(unnamed enum at frameworks/native/libs/binder/ndk/include_cpp/android/binder_to_string.h:118:5)",
   "referenced_type" : "_ZTIN7android8internal7details13IsPointerLikeIN4aidl7android8hardware6common12NativeHandleEE6$valueE",
   "self_type" : "_ZTIN7android8internal7details13IsPointerLikeIN4aidl7android8hardware6common12NativeHandleEE6$valueE",
   "size" : 4,
   "source_file" : "frameworks/native/libs/binder/ndk/include_cpp/android/binder_to_string.h",
   "underlying_type" : "_ZTIj"
  },
  {
   "alignment" : 4,
   "enum_fields" :
   [
    {
     "enum_field_value" : 0,
     "name" : "android::internal::details::IsPointerLike<aidl::android::hardware::graphics::common::PixelFormat>::value"
    }
   ],
   "linker_set_key" : "_ZTIN7android8internal7details13IsPointerLikeIN4aidl7android8hardware8graphics6common11PixelFormatEE6$valueE",
   "name" : "android::internal::details::IsPointerLike<aidl::android::hardware::graphics::common::PixelFormat>::(unnamed enum at frameworks/native/libs/binder/ndk/include_cpp/android/binder_to_string.h:118:5)",
   "referenced_type" : "_ZTIN7android8internal7details13IsPointerLikeIN4aidl7android8hardware8graphics6common11PixelFormatEE6$valueE",
   "self_type" : "_ZTIN7android8internal7details13IsPointerLikeIN4aidl7android8hardware8graphics6common11PixelFormatEE6$valueE",
   "size" : 4,
   "source_file" : "frameworks/native/libs/binder/ndk/include_cpp/android/binder_to_string.h",
   "underlying_type" : "_ZTIj"
  },
  {
   "alignment" : 4,
   "enum_fields" :
   [
    {
     "enum_field_value" : 0,
     "name" : "android::internal::details::IsPointerLike<aidl::android::hardware::graphics::common::AlphaInterpretation>::value"
    }
   ],
   "linker_set_key" : "_ZTIN7android8internal7details13IsPointerLikeIN4aidl7android8hardware8graphics6common19AlphaInterpretationEE6$valueE",
   "name" : "android::internal::details::IsPointerLike<aidl::android::hardware::graphics::common::AlphaInterpretation>::(unnamed enum at frameworks/native/libs/binder/ndk/include_cpp/android/binder_to_string.h:118:5)",
   "referenced_type" : "_ZTIN7android8internal7details13IsPointerLikeIN4aidl7android8hardware8graphics6common19AlphaInterpretationEE6$valueE",
   "self_type" : "_ZTIN7android8internal7details13IsPointerLikeIN4aidl7android8hardware8graphics6common19AlphaInterpretationEE6$valueE",
   "size" : 4,
   "source_file" : "frameworks/native/libs/binder/ndk/include_cpp/android/binder_to_string.h",
   "underlying_type" : "_ZTIj"
  },
  {
   "alignment" : 4,
   "enum_fields" :
   [
    {
     "enum_field_value" : 0,
     "name" : "android::internal::details::IsPointerLike<aidl::android::hardware::graphics::common::Hdr>::value"
    }
   ],
   "linker_set_key" : "_ZTIN7android8internal7details13IsPointerLikeIN4aidl7android8hardware8graphics6common3HdrEE6$valueE",
   "name" : "android::internal::details::IsPointerLike<aidl::android::hardware::graphics::common::Hdr>::(unnamed enum at frameworks/native/libs/binder/ndk/include_cpp/android/binder_to_string.h:118:5)",
   "referenced_type" : "_ZTIN7android8internal7details13IsPointerLikeIN4aidl7android8hardware8graphics6common3HdrEE6$valueE",
   "self_type" : "_ZTIN7android8internal7details13IsPointerLikeIN4aidl7android8hardware8graphics6common3HdrEE6$valueE",
   "size" : 4,
   "source_file" : "frameworks/native/libs/binder/ndk/include_cpp/android/binder_to_string.h",
   "underlying_type" : "_ZTIj"
  },
  {
   "alignment" : 4,
   "enum_fields" :
   [
    {
     "enum_field_value" : 0,
     "name" : "android::internal::details::IsPointerLike<aidl::android::hardware::graphics::common::Rect>::value"
    }
   ],
   "linker_set_key" : "_ZTIN7android8internal7details13IsPointerLikeIN4aidl7android8hardware8graphics6common4RectEE6$valueE",
   "name" : "android::internal::details::IsPointerLike<aidl::android::hardware::graphics::common::Rect>::(unnamed enum at frameworks/native/libs/binder/ndk/include_cpp/android/binder_to_string.h:118:5)",
   "referenced_type" : "_ZTIN7android8internal7details13IsPointerLikeIN4aidl7android8hardware8graphics6common4RectEE6$valueE",
   "self_type" : "_ZTIN7android8internal7details13IsPointerLikeIN4aidl7android8hardware8graphics6common4RectEE6$valueE",
   "size" : 4,
   "source_file" : "frameworks/native/libs/binder/ndk/include_cpp/android/binder_to_string.h",
   "underlying_type" : "_ZTIj"
  },
  {
   "alignment" : 4,
   "enum_fields" :
   [
    {
     "enum_field_value" : 0,
     "name" : "android::internal::details::IsPointerLike<aidl::android::hardware::graphics::common::FRect>::value"
    }
   ],
   "linker_set_key" : "_ZTIN7android8internal7details13IsPointerLikeIN4aidl7android8hardware8graphics6common5FRectEE6$valueE",
   "name" : "android::internal::details::IsPointerLike<aidl::android::hardware::graphics::common::FRect>::(unnamed enum at frameworks/native/libs/binder/ndk/include_cpp/android/binder_to_string.h:118:5)",
   "referenced_type" : "_ZTIN7android8internal7details13IsPointerLikeIN4aidl7android8hardware8graphics6common5FRectEE6$valueE",
   "self_type" : "_ZTIN7android8internal7details13IsPointerLikeIN4aidl7android8hardware8graphics6common5FRectEE6$valueE",
   "size" : 4,
   "source_file" : "frameworks/native/libs/binder/ndk/include_cpp/android/binder_to_string.h",
   "underlying_type" : "_ZTIj"
  },
  {
   "alignment" : 4,
   "enum_fields" :
   [
    {
     "enum_field_value" : 0,
     "name" : "android::internal::details::IsPointerLike<aidl::android::hardware::graphics::common::Point>::value"
    }
   ],
   "linker_set_key" : "_ZTIN7android8internal7details13IsPointerLikeIN4aidl7android8hardware8graphics6common5PointEE6$valueE",
   "name" : "android::internal::details::IsPointerLike<aidl::android::hardware::graphics::common::Point>::(unnamed enum at frameworks/native/libs/binder/ndk/include_cpp/android/binder_to_string.h:118:5)",
   "referenced_type" : "_ZTIN7android8internal7details13IsPointerLikeIN4aidl7android8hardware8graphics6common5PointEE6$valueE",
   "self_type" : "_ZTIN7android8internal7details13IsPointerLikeIN4aidl7android8hardware8graphics6common5PointEE6$valueE",
   "size" : 4,
   "source_file" : "frameworks/native/libs/binder/ndk/include_cpp/android/binder_to_string.h",
   "underlying_type" : "_ZTIj"
  },
  {
   "alignment" : 4,
   "enum_fields" :
   [
    {
     "enum_field_value" : 0,
     "name" : "android::internal::details::IsPointerLike<aidl::android::hardware::graphics::common::BlendMode>::value"
    }
   ],
   "linker_set_key" : "_ZTIN7android8internal7details13IsPointerLikeIN4aidl7android8hardware8graphics6common9BlendModeEE6$valueE",
   "name" : "android::internal::details::IsPointerLike<aidl::android::hardware::graphics::common::BlendMode>::(unnamed enum at frameworks/native/libs/binder/ndk/include_cpp/android/binder_to_string.h:118:5)",
   "referenced_type" : "_ZTIN7android8internal7details13IsPointerLikeIN4aidl7android8hardware8graphics6common9BlendModeEE6$valueE",
   "self_type" : "_ZTIN7android8internal7details13IsPointerLikeIN4aidl7android8hardware8graphics6common9BlendModeEE6$valueE",
   "size" : 4,
   "source_file" : "frameworks/native/libs/binder/ndk/include_cpp/android/binder_to_string.h",
   "underlying_type" : "_ZTIj"
  },
  {
   "alignment" : 4,
   "enum_fields" :
   [
    {
     "enum_field_value" : 0,
     "name" : "android::internal::details::IsPointerLike<aidl::android::hardware::graphics::common::Dataspace>::value"
    }
   ],
   "linker_set_key" : "_ZTIN7android8internal7details13IsPointerLikeIN4aidl7android8hardware8graphics6common9DataspaceEE6$valueE",
   "name" : "android::internal::details::IsPointerLike<aidl::android::hardware::graphics::common::Dataspace>::(unnamed enum at frameworks/native/libs/binder/ndk/include_cpp/android/binder_to_string.h:118:5)",
   "referenced_type" : "_ZTIN7android8internal7details13IsPointerLikeIN4aidl7android8hardware8graphics6common9DataspaceEE6$valueE",
   "self_type" : "_ZTIN7android8internal7details13IsPointerLikeIN4aidl7android8hardware8graphics6common9DataspaceEE6$valueE",
   "size" : 4,
   "source_file" : "frameworks/native/libs/binder/ndk/include_cpp/android/binder_to_string.h",
   "underlying_type" : "_ZTIj"
  },
  {
   "alignment" : 4,
   "enum_fields" :
   [
    {
     "enum_field_value" : 0,
     "name" : "android::internal::details::IsPointerLike<aidl::android::hardware::graphics::common::Transform>::value"
    }
   ],
   "linker_set_key" : "_ZTIN7android8internal7details13IsPointerLikeIN4aidl7android8hardware8graphics6common9TransformEE6$valueE",
   "name" : "android::internal::details::IsPointerLike<aidl::android::hardware::graphics::common::Transform>::(unnamed enum at frameworks/native/libs/binder/ndk/include_cpp/android/binder_to_string.h:118:5)",
   "referenced_type" : "_ZTIN7android8internal7details13IsPointerLikeIN4aidl7android8hardware8graphics6common9TransformEE6$valueE",
   "self_type" : "_ZTIN7android8internal7details13IsPointerLikeIN4aidl7android8hardware8graphics6common9TransformEE6$valueE",
   "size" : 4,
   "source_file" : "frameworks/native/libs/binder/ndk/include_cpp/android/binder_to_string.h",
   "underlying_type" : "_ZTIj"
  },
  {
   "alignment" : 4,
   "enum_fields" :
   [
    {
     "enum_field_value" : 0,
     "name" : "android::internal::details::IsPointerLike<aidl::android::hardware::graphics::composer3::PlaneAlpha>::value"
    }
   ],
   "linker_set_key" : "_ZTIN7android8internal7details13IsPointerLikeIN4aidl7android8hardware8graphics9composer310PlaneAlphaEE6$valueE",
   "name" : "android::internal::details::IsPointerLike<aidl::android::hardware::graphics::composer3::PlaneAlpha>::(unnamed enum at frameworks/native/libs/binder/ndk/include_cpp/android/binder_to_string.h:118:5)",
   "referenced_type" : "_ZTIN7android8internal7details13IsPointerLikeIN4aidl7android8hardware8graphics9composer310PlaneAlphaEE6$valueE",
   "self_type" : "_ZTIN7android8internal7details13IsPointerLikeIN4aidl7android8hardware8graphics9composer310PlaneAlphaEE6$valueE",
   "size" : 4,
   "source_file" : "frameworks/native/libs/binder/ndk/include_cpp/android/binder_to_string.h",
   "underlying_type" : "_ZTIj"
  },
  {
   "alignment" : 4,
   "enum_fields" :
   [
    {
     "enum_field_value" : 0,
     "name" : "android::internal::details::IsPointerLike<aidl::android::hardware::graphics::composer3::Composition>::value"
    }
   ],
   "linker_set_key" : "_ZTIN7android8internal7details13IsPointerLikeIN4aidl7android8hardware8graphics9composer311CompositionEE6$valueE",
   "name" : "android::internal::details::IsPointerLike<aidl::android::hardware::graphics::composer3::Composition>::(unnamed enum at frameworks/native/libs/binder/ndk/include_cpp/android/binder_to_string.h:118:5)",
   "referenced_type" : "_ZTIN7android8internal7details13IsPointerLikeIN4aidl7android8hardware8graphics9composer311CompositionEE6$valueE",
   "self_type" : "_ZTIN7android8internal7details13IsPointerLikeIN4aidl7android8hardware8graphics9composer311CompositionEE6$valueE",
   "size" : 4,
   "source_file" : "frameworks/native/libs/binder/ndk/include_cpp/android/binder_to_string.h",
   "underlying_type" : "_ZTIj"
  },
  {
   "alignment" : 4,
   "enum_fields" :
   [
    {
     "enum_field_value" : 0,
     "name" : "android::internal::details::IsPointerLike<aidl::android::hardware::graphics::composer3::ClientTarget>::value"
    }
   ],
   "linker_set_key" : "_ZTIN7android8internal7details13IsPointerLikeIN4aidl7android8hardware8graphics9composer312ClientTargetEE6$valueE",
   "name" : "android::internal::details::IsPointerLike<aidl::android::hardware::graphics::composer3::ClientTarget>::(unnamed enum at frameworks/native/libs/binder/ndk/include_cpp/android/binder_to_string.h:118:5)",
   "referenced_type" : "_ZTIN7android8internal7details13IsPointerLikeIN4aidl7android8hardware8graphics9composer312ClientTargetEE6$valueE",
   "self_type" : "_ZTIN7android8internal7details13IsPointerLikeIN4aidl7android8hardware8graphics9composer312ClientTargetEE6$valueE",
   "size" : 4,
   "source_file" : "frameworks/native/libs/binder/ndk/include_cpp/android/binder_to_string.h",
   "underlying_type" : "_ZTIj"
  },
  {
   "alignment" : 4,
   "enum_fields" :
   [
    {
     "enum_field_value" : 0,
     "name" : "android::internal::details::IsPointerLike<aidl::android::hardware::graphics::composer3::CommandError>::value"
    }
   ],
   "linker_set_key" : "_ZTIN7android8internal7details13IsPointerLikeIN4aidl7android8hardware8graphics9composer312CommandErrorEE6$valueE",
   "name" : "android::internal::details::IsPointerLike<aidl::android::hardware::graphics::composer3::CommandError>::(unnamed enum at frameworks/native/libs/binder/ndk/include_cpp/android/binder_to_string.h:118:5)",
   "referenced_type" : "_ZTIN7android8internal7details13IsPointerLikeIN4aidl7android8hardware8graphics9composer312CommandErrorEE6$valueE",
   "self_type" : "_ZTIN7android8internal7details13IsPointerLikeIN4aidl7android8hardware8graphics9composer312CommandErrorEE6$valueE",
   "size" : 4,
   "source_file" : "frameworks/native/libs/binder/ndk/include_cpp/android/binder_to_string.h",
   "underlying_type" : "_ZTIj"
  },
  {
   "alignment" : 4,
   "enum_fields" :
   [
    {
     "enum_field_value" : 0,
     "name" : "android::internal::details::IsPointerLike<aidl::android::hardware::graphics::composer3::DimmingStage>::value"
    }
   ],
   "linker_set_key" : "_ZTIN7android8internal7details13IsPointerLikeIN4aidl7android8hardware8graphics9composer312DimmingStageEE6$valueE",
   "name" : "android::internal::details::IsPointerLike<aidl::android::hardware::graphics::composer3::DimmingStage>::(unnamed enum at frameworks/native/libs/binder/ndk/include_cpp/android/binder_to_string.h:118:5)",
   "referenced_type" : "_ZTIN7android8internal7details13IsPointerLikeIN4aidl7android8hardware8graphics9composer312DimmingStageEE6$valueE",
   "self_type" : "_ZTIN7android8internal7details13IsPointerLikeIN4aidl7android8hardware8graphics9composer312DimmingStageEE6$valueE",
   "size" : 4,
   "source_file" : "frameworks/native/libs/binder/ndk/include_cpp/android/binder_to_string.h",
   "underlying_type" : "_ZTIj"
  },
  {
   "alignment" : 4,
   "enum_fields" :
   [
    {
     "enum_field_value" : 0,
     "name" : "android::internal::details::IsPointerLike<aidl::android::hardware::graphics::composer3::LayerCommand>::value"
    }
   ],
   "linker_set_key" : "_ZTIN7android8internal7details13IsPointerLikeIN4aidl7android8hardware8graphics9composer312LayerCommandEE6$valueE",
   "name" : "android::internal::details::IsPointerLike<aidl::android::hardware::graphics::composer3::LayerCommand>::(unnamed enum at frameworks/native/libs/binder/ndk/include_cpp/android/binder_to_string.h:118:5)",
   "referenced_type" : "_ZTIN7android8internal7details13IsPointerLikeIN4aidl7android8hardware8graphics9composer312LayerCommandEE6$valueE",
   "self_type" : "_ZTIN7android8internal7details13IsPointerLikeIN4aidl7android8hardware8graphics9composer312LayerCommandEE6$valueE",
   "size" : 4,
   "source_file" : "frameworks/native/libs/binder/ndk/include_cpp/android/binder_to_string.h",
   "underlying_type" : "_ZTIj"
  },
  {
   "alignment" : 4,
   "enum_fields" :
   [
    {
     "enum_field_value" : 0,
     "name" : "android::internal::details::IsPointerLike<aidl::android::hardware::graphics::composer3::PresentFence>::value"
    }
   ],
   "linker_set_key" : "_ZTIN7android8internal7details13IsPointerLikeIN4aidl7android8hardware8graphics9composer312PresentFenceEE6$valueE",
   "name" : "android::internal::details::IsPointerLike<aidl::android::hardware::graphics::composer3::PresentFence>::(unnamed enum at frameworks/native/libs/binder/ndk/include_cpp/android/binder_to_string.h:118:5)",
   "referenced_type" : "_ZTIN7android8internal7details13IsPointerLikeIN4aidl7android8hardware8graphics9composer312PresentFenceEE6$valueE",
   "self_type" : "_ZTIN7android8internal7details13IsPointerLikeIN4aidl7android8hardware8graphics9composer312PresentFenceEE6$valueE",
   "size" : 4,
   "source_file" : "frameworks/native/libs/binder/ndk/include_cpp/android/binder_to_string.h",
   "underlying_type" : "_ZTIj"
  },
  {
   "alignment" : 4,
   "enum_fields" :
   [
    {
     "enum_field_value" : 0,
     "name" : "android::internal::details::IsPointerLike<aidl::android::hardware::graphics::composer3::ReleaseFences::Layer>::value"
    }
   ],
   "linker_set_key" : "_ZTIN7android8internal7details13IsPointerLikeIN4aidl7android8hardware8graphics9composer313ReleaseFences5LayerEE6$valueE",
   "name" : "android::internal::details::IsPointerLike<aidl::android::hardware::graphics::composer3::ReleaseFences::Layer>::(unnamed enum at frameworks/native/libs/binder/ndk/include_cpp/android/binder_to_string.h:118:5)",
   "referenced_type" : "_ZTIN7android8internal7details13IsPointerLikeIN4aidl7android8hardware8graphics9composer313ReleaseFences5LayerEE6$valueE",
   "self_type" : "_ZTIN7android8internal7details13IsPointerLikeIN4aidl7android8hardware8graphics9composer313ReleaseFences5LayerEE6$valueE",
   "size" : 4,
   "source_file" : "frameworks/native/libs/binder/ndk/include_cpp/android/binder_to_string.h",
   "underlying_type" : "_ZTIj"
  },
  {
   "alignment" : 4,
   "enum_fields" :
   [
    {
     "enum_field_value" : 0,
     "name" : "android::internal::details::IsPointerLike<aidl::android::hardware::graphics::composer3::ReleaseFences>::value"
    }
   ],
   "linker_set_key" : "_ZTIN7android8internal7details13IsPointerLikeIN4aidl7android8hardware8graphics9composer313ReleaseFencesEE6$valueE",
   "name" : "android::internal::details::IsPointerLike<aidl::android::hardware::graphics::composer3::ReleaseFences>::(unnamed enum at frameworks/native/libs/binder/ndk/include_cpp/android/binder_to_string.h:118:5)",
   "referenced_type" : "_ZTIN7android8internal7details13IsPointerLikeIN4aidl7android8hardware8graphics9composer313ReleaseFencesEE6$valueE",
   "self_type" : "_ZTIN7android8internal7details13IsPointerLikeIN4aidl7android8hardware8graphics9composer313ReleaseFencesEE6$valueE",
   "size" : 4,
   "source_file" : "frameworks/native/libs/binder/ndk/include_cpp/android/binder_to_string.h",
   "underlying_type" : "_ZTIj"
  },
  {
   "alignment" : 4,
   "enum_fields" :
   [
    {
     "enum_field_value" : 0,
     "name" : "android::internal::details::IsPointerLike<aidl::android::hardware::graphics::composer3::DisplayRequest::LayerRequest>::value"
    }
   ],
   "linker_set_key" : "_ZTIN7android8internal7details13IsPointerLikeIN4aidl7android8hardware8graphics9composer314DisplayRequest12LayerRequestEE6$valueE",
   "name" : "android::internal::details::IsPointerLike<aidl::android::hardware::graphics::composer3::DisplayRequest::LayerRequest>::(unnamed enum at frameworks/native/libs/binder/ndk/include_cpp/android/binder_to_string.h:118:5)",
   "referenced_type" : "_ZTIN7android8internal7details13IsPointerLikeIN4aidl7android8hardware8graphics9composer314DisplayRequest12LayerRequestEE6$valueE",
   "self_type" : "_ZTIN7android8internal7details13IsPointerLikeIN4aidl7android8hardware8graphics9composer314DisplayRequest12LayerRequestEE6$valueE",
   "size" : 4,
   "source_file" : "frameworks/native/libs/binder/ndk/include_cpp/android/binder_to_string.h",
   "underlying_type" : "_ZTIj"
  },
  {
   "alignment" : 4,
   "enum_fields" :
   [
    {
     "enum_field_value" : 0,
     "name" : "android::internal::details::IsPointerLike<aidl::android::hardware::graphics::composer3::DisplayRequest>::value"
    }
   ],
   "linker_set_key" : "_ZTIN7android8internal7details13IsPointerLikeIN4aidl7android8hardware8graphics9composer314DisplayRequestEE6$valueE",
   "name" : "android::internal::details::IsPointerLike<aidl::android::hardware::graphics::composer3::DisplayRequest>::(unnamed enum at frameworks/native/libs/binder/ndk/include_cpp/android/binder_to_string.h:118:5)",
   "referenced_type" : "_ZTIN7android8internal7details13IsPointerLikeIN4aidl7android8hardware8graphics9composer314DisplayRequestEE6$valueE",
   "self_type" : "_ZTIN7android8internal7details13IsPointerLikeIN4aidl7android8hardware8graphics9composer314DisplayRequestEE6$valueE",
   "size" : 4,
   "source_file" : "frameworks/native/libs/binder/ndk/include_cpp/android/binder_to_string.h",
   "underlying_type" : "_ZTIj"
  },
  {
   "alignment" : 4,
   "enum_fields" :
   [
    {
     "enum_field_value" : 0,
     "name" : "android::internal::details::IsPointerLike<aidl::android::hardware::graphics::composer3::LayerBrightness>::value"
    }
   ],
   "linker_set_key" : "_ZTIN7android8internal7details13IsPointerLikeIN4aidl7android8hardware8graphics9composer315LayerBrightnessEE6$valueE",
   "name" : "android::internal::details::IsPointerLike<aidl::android::hardware::graphics::composer3::LayerBrightness>::(unnamed enum at frameworks/native/libs/binder/ndk/include_cpp/android/binder_to_string.h:118:5)",
   "referenced_type" : "_ZTIN7android8internal7details13IsPointerLikeIN4aidl7android8hardware8graphics9composer315LayerBrightnessEE6$valueE",
   "self_type" : "_ZTIN7android8internal7details13IsPointerLikeIN4aidl7android8hardware8graphics9composer315LayerBrightnessEE6$valueE",
   "size" : 4,
   "source_file" : "frameworks/native/libs/binder/ndk/include_cpp/android/binder_to_string.h",
   "underlying_type" : "_ZTIj"
  },
  {
   "alignment" : 4,
   "enum_fields" :
   [
    {
     "enum_field_value" : 0,
     "name" : "android::internal::details::IsPointerLike<aidl::android::hardware::graphics::composer3::PerFrameMetadata>::value"
    }
   ],
   "linker_set_key" : "_ZTIN7android8internal7details13IsPointerLikeIN4aidl7android8hardware8graphics9composer316PerFrameMetadataEE6$valueE",
   "name" : "android::internal::details::IsPointerLike<aidl::android::hardware::graphics::composer3::PerFrameMetadata>::(unnamed enum at frameworks/native/libs/binder/ndk/include_cpp/android/binder_to_string.h:118:5)",
   "referenced_type" : "_ZTIN7android8internal7details13IsPointerLikeIN4aidl7android8hardware8graphics9composer316PerFrameMetadataEE6$valueE",
   "self_type" : "_ZTIN7android8internal7details13IsPointerLikeIN4aidl7android8hardware8graphics9composer316PerFrameMetadataEE6$valueE",
   "size" : 4,
   "source_file" : "frameworks/native/libs/binder/ndk/include_cpp/android/binder_to_string.h",
   "underlying_type" : "_ZTIj"
  },
  {
   "alignment" : 4,
   "enum_fields" :
   [
    {
     "enum_field_value" : 0,
     "name" : "android::internal::details::IsPointerLike<aidl::android::hardware::graphics::composer3::DisplayBrightness>::value"
    }
   ],
   "linker_set_key" : "_ZTIN7android8internal7details13IsPointerLikeIN4aidl7android8hardware8graphics9composer317DisplayBrightnessEE6$valueE",
   "name" : "android::internal::details::IsPointerLike<aidl::android::hardware::graphics::composer3::DisplayBrightness>::(unnamed enum at frameworks/native/libs/binder/ndk/include_cpp/android/binder_to_string.h:118:5)",
   "referenced_type" : "_ZTIN7android8internal7details13IsPointerLikeIN4aidl7android8hardware8graphics9composer317DisplayBrightnessEE6$valueE",
   "self_type" : "_ZTIN7android8internal7details13IsPointerLikeIN4aidl7android8hardware8graphics9composer317DisplayBrightnessEE6$valueE",
   "size" : 4,
   "source_file" : "frameworks/native/libs/binder/ndk/include_cpp/android/binder_to_string.h",
   "underlying_type" : "_ZTIj"
  },
  {
   "alignment" : 4,
   "enum_fields" :
   [
    {
     "enum_field_value" : 0,
     "name" : "android::internal::details::IsPointerLike<aidl::android::hardware::graphics::composer3::PresentOrValidate::Result>::value"
    }
   ],
   "linker_set_key" : "_ZTIN7android8internal7details13IsPointerLikeIN4aidl7android8hardware8graphics9composer317PresentOrValidate6ResultEE6$valueE",
   "name" : "android::internal::details::IsPointerLike<aidl::android::hardware::graphics::composer3::PresentOrValidate::Result>::(unnamed enum at frameworks/native/libs/binder/ndk/include_cpp/android/binder_to_string.h:118:5)",
   "referenced_type" : "_ZTIN7android8internal7details13IsPointerLikeIN4aidl7android8hardware8graphics9composer317PresentOrValidate6ResultEE6$valueE",
   "self_type" : "_ZTIN7android8internal7details13IsPointerLikeIN4aidl7android8hardware8graphics9composer317PresentOrValidate6ResultEE6$valueE",
   "size" : 4,
   "source_file" : "frameworks/native/libs/binder/ndk/include_cpp/android/binder_to_string.h",
   "underlying_type" : "_ZTIj"
  },
  {
   "alignment" : 4,
   "enum_fields" :
   [
    {
     "enum_field_value" : 0,
     "name" : "android::internal::details::IsPointerLike<aidl::android::hardware::graphics::composer3::PresentOrValidate>::value"
    }
   ],
   "linker_set_key" : "_ZTIN7android8internal7details13IsPointerLikeIN4aidl7android8hardware8graphics9composer317PresentOrValidateEE6$valueE",
   "name" : "android::internal::details::IsPointerLike<aidl::android::hardware::graphics::composer3::PresentOrValidate>::(unnamed enum at frameworks/native/libs/binder/ndk/include_cpp/android/binder_to_string.h:118:5)",
   "referenced_type" : "_ZTIN7android8internal7details13IsPointerLikeIN4aidl7android8hardware8graphics9composer317PresentOrValidateEE6$valueE",
   "self_type" : "_ZTIN7android8internal7details13IsPointerLikeIN4aidl7android8hardware8graphics9composer317PresentOrValidateEE6$valueE",
   "size" : 4,
   "source_file" : "frameworks/native/libs/binder/ndk/include_cpp/android/binder_to_string.h",
   "underlying_type" : "_ZTIj"
  },
  {
   "alignment" : 4,
   "enum_fields" :
   [
    {
     "enum_field_value" : 0,
     "name" : "android::internal::details::IsPointerLike<aidl::android::hardware::graphics::composer3::ParcelableBlendMode>::value"
    }
   ],
   "linker_set_key" : "_ZTIN7android8internal7details13IsPointerLikeIN4aidl7android8hardware8graphics9composer319ParcelableBlendModeEE6$valueE",
   "name" : "android::internal::details::IsPointerLike<aidl::android::hardware::graphics::composer3::ParcelableBlendMode>::(unnamed enum at frameworks/native/libs/binder/ndk/include_cpp/android/binder_to_string.h:118:5)",
   "referenced_type" : "_ZTIN7android8internal7details13IsPointerLikeIN4aidl7android8hardware8graphics9composer319ParcelableBlendModeEE6$valueE",
   "self_type" : "_ZTIN7android8internal7details13IsPointerLikeIN4aidl7android8hardware8graphics9composer319ParcelableBlendModeEE6$valueE",
   "size" : 4,
   "source_file" : "frameworks/native/libs/binder/ndk/include_cpp/android/binder_to_string.h",
   "underlying_type" : "_ZTIj"
  },
  {
   "alignment" : 4,
   "enum_fields" :
   [
    {
     "enum_field_value" : 0,
     "name" : "android::internal::details::IsPointerLike<aidl::android::hardware::graphics::composer3::ParcelableDataspace>::value"
    }
   ],
   "linker_set_key" : "_ZTIN7android8internal7details13IsPointerLikeIN4aidl7android8hardware8graphics9composer319ParcelableDataspaceEE6$valueE",
   "name" : "android::internal::details::IsPointerLike<aidl::android::hardware::graphics::composer3::ParcelableDataspace>::(unnamed enum at frameworks/native/libs/binder/ndk/include_cpp/android/binder_to_string.h:118:5)",
   "referenced_type" : "_ZTIN7android8internal7details13IsPointerLikeIN4aidl7android8hardware8graphics9composer319ParcelableDataspaceEE6$valueE",
   "self_type" : "_ZTIN7android8internal7details13IsPointerLikeIN4aidl7android8hardware8graphics9composer319ParcelableDataspaceEE6$valueE",
   "size" : 4,
   "source_file" : "frameworks/native/libs/binder/ndk/include_cpp/android/binder_to_string.h",
   "underlying_type" : "_ZTIj"
  },
  {
   "alignment" : 4,
   "enum_fields" :
   [
    {
     "enum_field_value" : 0,
     "name" : "android::internal::details::IsPointerLike<aidl::android::hardware::graphics::composer3::ParcelableTransform>::value"
    }
   ],
   "linker_set_key" : "_ZTIN7android8internal7details13IsPointerLikeIN4aidl7android8hardware8graphics9composer319ParcelableTransformEE6$valueE",
   "name" : "android::internal::details::IsPointerLike<aidl::android::hardware::graphics::composer3::ParcelableTransform>::(unnamed enum at frameworks/native/libs/binder/ndk/include_cpp/android/binder_to_string.h:118:5)",
   "referenced_type" : "_ZTIN7android8internal7details13IsPointerLikeIN4aidl7android8hardware8graphics9composer319ParcelableTransformEE6$valueE",
   "self_type" : "_ZTIN7android8internal7details13IsPointerLikeIN4aidl7android8hardware8graphics9composer319ParcelableTransformEE6$valueE",
   "size" : 4,
   "source_file" : "frameworks/native/libs/binder/ndk/include_cpp/android/binder_to_string.h",
   "underlying_type" : "_ZTIj"
  },
  {
   "alignment" : 4,
   "enum_fields" :
   [
    {
     "enum_field_value" : 0,
     "name" : "android::internal::details::IsPointerLike<aidl::android::hardware::graphics::composer3::PerFrameMetadataKey>::value"
    }
   ],
   "linker_set_key" : "_ZTIN7android8internal7details13IsPointerLikeIN4aidl7android8hardware8graphics9composer319PerFrameMetadataKeyEE6$valueE",
   "name" : "android::internal::details::IsPointerLike<aidl::android::hardware::graphics::composer3::PerFrameMetadataKey>::(unnamed enum at frameworks/native/libs/binder/ndk/include_cpp/android/binder_to_string.h:118:5)",
   "referenced_type" : "_ZTIN7android8internal7details13IsPointerLikeIN4aidl7android8hardware8graphics9composer319PerFrameMetadataKeyEE6$valueE",
   "self_type" : "_ZTIN7android8internal7details13IsPointerLikeIN4aidl7android8hardware8graphics9composer319PerFrameMetadataKeyEE6$valueE",
   "size" : 4,
   "source_file" : "frameworks/native/libs/binder/ndk/include_cpp/android/binder_to_string.h",
   "underlying_type" : "_ZTIj"
  },
  {
   "alignment" : 4,
   "enum_fields" :
   [
    {
     "enum_field_value" : 0,
     "name" : "android::internal::details::IsPointerLike<aidl::android::hardware::graphics::composer3::ClientTargetProperty>::value"
    }
   ],
   "linker_set_key" : "_ZTIN7android8internal7details13IsPointerLikeIN4aidl7android8hardware8graphics9composer320ClientTargetPropertyEE6$valueE",
   "name" : "android::internal::details::IsPointerLike<aidl::android::hardware::graphics::composer3::ClientTargetProperty>::(unnamed enum at frameworks/native/libs/binder/ndk/include_cpp/android/binder_to_string.h:118:5)",
   "referenced_type" : "_ZTIN7android8internal7details13IsPointerLikeIN4aidl7android8hardware8graphics9composer320ClientTargetPropertyEE6$valueE",
   "self_type" : "_ZTIN7android8internal7details13IsPointerLikeIN4aidl7android8hardware8graphics9composer320ClientTargetPropertyEE6$valueE",
   "size" : 4,
   "source_file" : "frameworks/native/libs/binder/ndk/include_cpp/android/binder_to_string.h",
   "underlying_type" : "_ZTIj"
  },
  {
   "alignment" : 4,
   "enum_fields" :
   [
    {
     "enum_field_value" : 0,
     "name" : "android::internal::details::IsPointerLike<aidl::android::hardware::graphics::composer3::FormatColorComponent>::value"
    }
   ],
   "linker_set_key" : "_ZTIN7android8internal7details13IsPointerLikeIN4aidl7android8hardware8graphics9composer320FormatColorComponentEE6$valueE",
   "name" : "android::internal::details::IsPointerLike<aidl::android::hardware::graphics::composer3::FormatColorComponent>::(unnamed enum at frameworks/native/libs/binder/ndk/include_cpp/android/binder_to_string.h:118:5)",
   "referenced_type" : "_ZTIN7android8internal7details13IsPointerLikeIN4aidl7android8hardware8graphics9composer320FormatColorComponentEE6$valueE",
   "self_type" : "_ZTIN7android8internal7details13IsPointerLikeIN4aidl7android8hardware8graphics9composer320FormatColorComponentEE6$valueE",
   "size" : 4,
   "source_file" : "frameworks/native/libs/binder/ndk/include_cpp/android/binder_to_string.h",
   "underlying_type" : "_ZTIj"
  },
  {
   "alignment" : 4,
   "enum_fields" :
   [
    {
     "enum_field_value" : 0,
     "name" : "android::internal::details::IsPointerLike<aidl::android::hardware::graphics::composer3::PerFrameMetadataBlob>::value"
    }
   ],
   "linker_set_key" : "_ZTIN7android8internal7details13IsPointerLikeIN4aidl7android8hardware8graphics9composer320PerFrameMetadataBlobEE6$valueE",
   "name" : "android::internal::details::IsPointerLike<aidl::android::hardware::graphics::composer3::PerFrameMetadataBlob>::(unnamed enum at frameworks/native/libs/binder/ndk/include_cpp/android/binder_to_string.h:118:5)",
   "referenced_type" : "_ZTIN7android8internal7details13IsPointerLikeIN4aidl7android8hardware8graphics9composer320PerFrameMetadataBlobEE6$valueE",
   "self_type" : "_ZTIN7android8internal7details13IsPointerLikeIN4aidl7android8hardware8graphics9composer320PerFrameMetadataBlobEE6$valueE",
   "size" : 4,
   "source_file" : "frameworks/native/libs/binder/ndk/include_cpp/android/binder_to_string.h",
   "underlying_type" : "_ZTIj"
  },
  {
   "alignment" : 4,
   "enum_fields" :
   [
    {
     "enum_field_value" : 0,
     "name" : "android::internal::details::IsPointerLike<aidl::android::hardware::graphics::composer3::ParcelableComposition>::value"
    }
   ],
   "linker_set_key" : "_ZTIN7android8internal7details13IsPointerLikeIN4aidl7android8hardware8graphics9composer321ParcelableCompositionEE6$valueE",
   "name" : "android::internal::details::IsPointerLike<aidl::android::hardware::graphics::composer3::ParcelableComposition>::(unnamed enum at frameworks/native/libs/binder/ndk/include_cpp/android/binder_to_string.h:118:5)",
   "referenced_type" : "_ZTIN7android8internal7details13IsPointerLikeIN4aidl7android8hardware8graphics9composer321ParcelableCompositionEE6$valueE",
   "self_type" : "_ZTIN7android8internal7details13IsPointerLikeIN4aidl7android8hardware8graphics9composer321ParcelableCompositionEE6$valueE",
   "size" : 4,
   "source_file" : "frameworks/native/libs/binder/ndk/include_cpp/android/binder_to_string.h",
   "underlying_type" : "_ZTIj"
  },
  {
   "alignment" : 4,
   "enum_fields" :
   [
    {
     "enum_field_value" : 0,
     "name" : "android::internal::details::IsPointerLike<aidl::android::hardware::graphics::composer3::ChangedCompositionLayer>::value"
    }
   ],
   "linker_set_key" : "_ZTIN7android8internal7details13IsPointerLikeIN4aidl7android8hardware8graphics9composer323ChangedCompositionLayerEE6$valueE",
   "name" : "android::internal::details::IsPointerLike<aidl::android::hardware::graphics::composer3::ChangedCompositionLayer>::(unnamed enum at frameworks/native/libs/binder/ndk/include_cpp/android/binder_to_string.h:118:5)",
   "referenced_type" : "_ZTIN7android8internal7details13IsPointerLikeIN4aidl7android8hardware8graphics9composer323ChangedCompositionLayerEE6$valueE",
   "self_type" : "_ZTIN7android8internal7details13IsPointerLikeIN4aidl7android8hardware8graphics9composer323ChangedCompositionLayerEE6$valueE",
   "size" : 4,
   "source_file" : "frameworks/native/libs/binder/ndk/include_cpp/android/binder_to_string.h",
   "underlying_type" : "_ZTIj"
  },
  {
   "alignment" : 4,
   "enum_fields" :
   [
    {
     "enum_field_value" : 0,
     "name" : "android::internal::details::IsPointerLike<aidl::android::hardware::graphics::composer3::ChangedCompositionTypes>::value"
    }
   ],
   "linker_set_key" : "_ZTIN7android8internal7details13IsPointerLikeIN4aidl7android8hardware8graphics9composer323ChangedCompositionTypesEE6$valueE",
   "name" : "android::internal::details::IsPointerLike<aidl::android::hardware::graphics::composer3::ChangedCompositionTypes>::(unnamed enum at frameworks/native/libs/binder/ndk/include_cpp/android/binder_to_string.h:118:5)",
   "referenced_type" : "_ZTIN7android8internal7details13IsPointerLikeIN4aidl7android8hardware8graphics9composer323ChangedCompositionTypesEE6$valueE",
   "self_type" : "_ZTIN7android8internal7details13IsPointerLikeIN4aidl7android8hardware8graphics9composer323ChangedCompositionTypesEE6$valueE",
   "size" : 4,
   "source_file" : "frameworks/native/libs/binder/ndk/include_cpp/android/binder_to_string.h",
   "underlying_type" : "_ZTIj"
  },
  {
   "alignment" : 4,
   "enum_fields" :
   [
    {
     "enum_field_value" : 0,
     "name" : "android::internal::details::IsPointerLike<aidl::android::hardware::graphics::composer3::ClockMonotonicTimestamp>::value"
    }
   ],
   "linker_set_key" : "_ZTIN7android8internal7details13IsPointerLikeIN4aidl7android8hardware8graphics9composer323ClockMonotonicTimestampEE6$valueE",
   "name" : "android::internal::details::IsPointerLike<aidl::android::hardware::graphics::composer3::ClockMonotonicTimestamp>::(unnamed enum at frameworks/native/libs/binder/ndk/include_cpp/android/binder_to_string.h:118:5)",
   "referenced_type" : "_ZTIN7android8internal7details13IsPointerLikeIN4aidl7android8hardware8graphics9composer323ClockMonotonicTimestampEE6$valueE",
   "self_type" : "_ZTIN7android8internal7details13IsPointerLikeIN4aidl7android8hardware8graphics9composer323ClockMonotonicTimestampEE6$valueE",
   "size" : 4,
   "source_file" : "frameworks/native/libs/binder/ndk/include_cpp/android/binder_to_string.h",
   "underlying_type" : "_ZTIj"
  },
  {
   "alignment" : 4,
   "enum_fields" :
   [
    {
     "enum_field_value" : 0,
     "name" : "android::internal::details::IsPointerLike<aidl::android::hardware::graphics::composer3::ClientTargetPropertyWithBrightness>::value"
    }
   ],
   "linker_set_key" : "_ZTIN7android8internal7details13IsPointerLikeIN4aidl7android8hardware8graphics9composer334ClientTargetPropertyWithBrightnessEE6$valueE",
   "name" : "android::internal::details::IsPointerLike<aidl::android::hardware::graphics::composer3::ClientTargetPropertyWithBrightness>::(unnamed enum at frameworks/native/libs/binder/ndk/include_cpp/android/binder_to_string.h:118:5)",
   "referenced_type" : "_ZTIN7android8internal7details13IsPointerLikeIN4aidl7android8hardware8graphics9composer334ClientTargetPropertyWithBrightnessEE6$valueE",
   "self_type" : "_ZTIN7android8internal7details13IsPointerLikeIN4aidl7android8hardware8graphics9composer334ClientTargetPropertyWithBrightnessEE6$valueE",
   "size" : 4,
   "source_file" : "frameworks/native/libs/binder/ndk/include_cpp/android/binder_to_string.h",
   "underlying_type" : "_ZTIj"
  },
  {
   "alignment" : 4,
   "enum_fields" :
   [
    {
     "enum_field_value" : 0,
     "name" : "android::internal::details::IsPointerLike<aidl::android::hardware::graphics::composer3::Color>::value"
    }
   ],
   "linker_set_key" : "_ZTIN7android8internal7details13IsPointerLikeIN4aidl7android8hardware8graphics9composer35ColorEE6$valueE",
   "name" : "android::internal::details::IsPointerLike<aidl::android::hardware::graphics::composer3::Color>::(unnamed enum at frameworks/native/libs/binder/ndk/include_cpp/android/binder_to_string.h:118:5)",
   "referenced_type" : "_ZTIN7android8internal7details13IsPointerLikeIN4aidl7android8hardware8graphics9composer35ColorEE6$valueE",
   "self_type" : "_ZTIN7android8internal7details13IsPointerLikeIN4aidl7android8hardware8graphics9composer35ColorEE6$valueE",
   "size" : 4,
   "source_file" : "frameworks/native/libs/binder/ndk/include_cpp/android/binder_to_string.h",
   "underlying_type" : "_ZTIj"
  },
  {
   "alignment" : 4,
   "enum_fields" :
   [
    {
     "enum_field_value" : 0,
     "name" : "android::internal::details::IsPointerLike<aidl::android::hardware::graphics::composer3::Buffer>::value"
    }
   ],
   "linker_set_key" : "_ZTIN7android8internal7details13IsPointerLikeIN4aidl7android8hardware8graphics9composer36BufferEE6$valueE",
   "name" : "android::internal::details::IsPointerLike<aidl::android::hardware::graphics::composer3::Buffer>::(unnamed enum at frameworks/native/libs/binder/ndk/include_cpp/android/binder_to_string.h:118:5)",
   "referenced_type" : "_ZTIN7android8internal7details13IsPointerLikeIN4aidl7android8hardware8graphics9composer36BufferEE6$valueE",
   "self_type" : "_ZTIN7android8internal7details13IsPointerLikeIN4aidl7android8hardware8graphics9composer36BufferEE6$valueE",
   "size" : 4,
   "source_file" : "frameworks/native/libs/binder/ndk/include_cpp/android/binder_to_string.h",
   "underlying_type" : "_ZTIj"
  },
  {
   "alignment" : 4,
   "enum_fields" :
   [
    {
     "enum_field_value" : 0,
     "name" : "android::internal::details::IsPointerLike<aidl::android::hardware::graphics::composer3::ZOrder>::value"
    }
   ],
   "linker_set_key" : "_ZTIN7android8internal7details13IsPointerLikeIN4aidl7android8hardware8graphics9composer36ZOrderEE6$valueE",
   "name" : "android::internal::details::IsPointerLike<aidl::android::hardware::graphics::composer3::ZOrder>::(unnamed enum at frameworks/native/libs/binder/ndk/include_cpp/android/binder_to_string.h:118:5)",
   "referenced_type" : "_ZTIN7android8internal7details13IsPointerLikeIN4aidl7android8hardware8graphics9composer36ZOrderEE6$valueE",
   "self_type" : "_ZTIN7android8internal7details13IsPointerLikeIN4aidl7android8hardware8graphics9composer36ZOrderEE6$valueE",
   "size" : 4,
   "source_file" : "frameworks/native/libs/binder/ndk/include_cpp/android/binder_to_string.h",
   "underlying_type" : "_ZTIj"
  },
  {
   "alignment" : 4,
   "enum_fields" :
   [
    {
     "enum_field_value" : 0,
     "name" : "android::internal::details::IsPointerLike<std::vector<ndk::ScopedFileDescriptor>>::value"
    }
   ],
   "linker_set_key" : "_ZTIN7android8internal7details13IsPointerLikeINSt3__16vectorIN3ndk20ScopedFileDescriptorENS3_9allocatorIS6_EEEEE6$valueE",
   "name" : "android::internal::details::IsPointerLike<std::vector<ndk::ScopedFileDescriptor, std::allocator<ndk::ScopedFileDescriptor>>>::(unnamed enum at frameworks/native/libs/binder/ndk/include_cpp/android/binder_to_string.h:118:5)",
   "referenced_type" : "_ZTIN7android8internal7details13IsPointerLikeINSt3__16vectorIN3ndk20ScopedFileDescriptorENS3_9allocatorIS6_EEEEE6$valueE",
   "self_type" : "_ZTIN7android8internal7details13IsPointerLikeINSt3__16vectorIN3ndk20ScopedFileDescriptorENS3_9allocatorIS6_EEEEE6$valueE",
   "size" : 4,
   "source_file" : "frameworks/native/libs/binder/ndk/include_cpp/android/binder_to_string.h",
   "underlying_type" : "_ZTIj"
  },
  {
   "alignment" : 4,
   "enum_fields" :
   [
    {
     "enum_field_value" : 0,
     "name" : "android::internal::details::IsPointerLike<std::vector<aidl::android::hardware::graphics::common::Hdr>>::value"
    }
   ],
   "linker_set_key" : "_ZTIN7android8internal7details13IsPointerLikeINSt3__16vectorIN4aidl7android8hardware8graphics6common3HdrENS3_9allocatorISA_EEEEE6$valueE",
   "name" : "android::internal::details::IsPointerLike<std::vector<aidl::android::hardware::graphics::common::Hdr, std::allocator<aidl::android::hardware::graphics::common::Hdr>>>::(unnamed enum at frameworks/native/libs/binder/ndk/include_cpp/android/binder_to_string.h:118:5)",
   "referenced_type" : "_ZTIN7android8internal7details13IsPointerLikeINSt3__16vectorIN4aidl7android8hardware8graphics6common3HdrENS3_9allocatorISA_EEEEE6$valueE",
   "self_type" : "_ZTIN7android8internal7details13IsPointerLikeINSt3__16vectorIN4aidl7android8hardware8graphics6common3HdrENS3_9allocatorISA_EEEEE6$valueE",
   "size" : 4,
   "source_file" : "frameworks/native/libs/binder/ndk/include_cpp/android/binder_to_string.h",
   "underlying_type" : "_ZTIj"
  },
  {
   "alignment" : 4,
   "enum_fields" :
   [
    {
     "enum_field_value" : 0,
     "name" : "android::internal::details::IsPointerLike<std::vector<aidl::android::hardware::graphics::common::Rect>>::value"
    }
   ],
   "linker_set_key" : "_ZTIN7android8internal7details13IsPointerLikeINSt3__16vectorIN4aidl7android8hardware8graphics6common4RectENS3_9allocatorISA_EEEEE6$valueE",
   "name" : "android::internal::details::IsPointerLike<std::vector<aidl::android::hardware::graphics::common::Rect, std::allocator<aidl::android::hardware::graphics::common::Rect>>>::(unnamed enum at frameworks/native/libs/binder/ndk/include_cpp/android/binder_to_string.h:118:5)",
   "referenced_type" : "_ZTIN7android8internal7details13IsPointerLikeINSt3__16vectorIN4aidl7android8hardware8graphics6common4RectENS3_9allocatorISA_EEEEE6$valueE",
   "self_type" : "_ZTIN7android8internal7details13IsPointerLikeINSt3__16vectorIN4aidl7android8hardware8graphics6common4RectENS3_9allocatorISA_EEEEE6$valueE",
   "size" : 4,
   "source_file" : "frameworks/native/libs/binder/ndk/include_cpp/android/binder_to_string.h",
   "underlying_type" : "_ZTIj"
  },
  {
   "alignment" : 4,
   "enum_fields" :
   [
    {
     "enum_field_value" : 0,
     "name" : "android::internal::details::IsPointerLike<std::vector<aidl::android::hardware::graphics::composer3::LayerCommand>>::value"
    }
   ],
   "linker_set_key" : "_ZTIN7android8internal7details13IsPointerLikeINSt3__16vectorIN4aidl7android8hardware8graphics9composer312LayerCommandENS3_9allocatorISA_EEEEE6$valueE",
   "name" : "android::internal::details::IsPointerLike<std::vector<aidl::android::hardware::graphics::composer3::LayerCommand, std::allocator<aidl::android::hardware::graphics::composer3::LayerCommand>>>::(unnamed enum at frameworks/native/libs/binder/ndk/include_cpp/android/binder_to_string.h:118:5)",
   "referenced_type" : "_ZTIN7android8internal7details13IsPointerLikeINSt3__16vectorIN4aidl7android8hardware8graphics9composer312LayerCommandENS3_9allocatorISA_EEEEE6$valueE",
   "self_type" : "_ZTIN7android8internal7details13IsPointerLikeINSt3__16vectorIN4aidl7android8hardware8graphics9composer312LayerCommandENS3_9allocatorISA_EEEEE6$valueE",
   "size" : 4,
   "source_file" : "frameworks/native/libs/binder/ndk/include_cpp/android/binder_to_string.h",
   "underlying_type" : "_ZTIj"
  },
  {
   "alignment" : 4,
   "enum_fields" :
   [
    {
     "enum_field_value" : 0,
     "name" : "android::internal::details::IsPointerLike<std::vector<aidl::android::hardware::graphics::composer3::ReleaseFences::Layer>>::value"
    }
   ],
   "linker_set_key" : "_ZTIN7android8internal7details13IsPointerLikeINSt3__16vectorIN4aidl7android8hardware8graphics9composer313ReleaseFences5LayerENS3_9allocatorISB_EEEEE6$valueE",
   "name" : "android::internal::details::IsPointerLike<std::vector<aidl::android::hardware::graphics::composer3::ReleaseFences::Layer, std::allocator<aidl::android::hardware::graphics::composer3::ReleaseFences::Layer>>>::(unnamed enum at frameworks/native/libs/binder/ndk/include_cpp/android/binder_to_string.h:118:5)",
   "referenced_type" : "_ZTIN7android8internal7details13IsPointerLikeINSt3__16vectorIN4aidl7android8hardware8graphics9composer313ReleaseFences5LayerENS3_9allocatorISB_EEEEE6$valueE",
   "self_type" : "_ZTIN7android8internal7details13IsPointerLikeINSt3__16vectorIN4aidl7android8hardware8graphics9composer313ReleaseFences5LayerENS3_9allocatorISB_EEEEE6$valueE",
   "size" : 4,
   "source_file" : "frameworks/native/libs/binder/ndk/include_cpp/android/binder_to_string.h",
   "underlying_type" : "_ZTIj"
  },
  {
   "alignment" : 4,
   "enum_fields" :
   [
    {
     "enum_field_value" : 0,
     "name" : "android::internal::details::IsPointerLike<std::vector<aidl::android::hardware::graphics::composer3::DisplayRequest::LayerRequest>>::value"
    }
   ],
   "linker_set_key" : "_ZTIN7android8internal7details13IsPointerLikeINSt3__16vectorIN4aidl7android8hardware8graphics9composer314DisplayRequest12LayerRequestENS3_9allocatorISB_EEEEE6$valueE",
   "name" : "android::internal::details::IsPointerLike<std::vector<aidl::android::hardware::graphics::composer3::DisplayRequest::LayerRequest, std::allocator<aidl::android::hardware::graphics::composer3::DisplayRequest::LayerRequest>>>::(unnamed enum at frameworks/native/libs/binder/ndk/include_cpp/android/binder_to_string.h:118:5)",
   "referenced_type" : "_ZTIN7android8internal7details13IsPointerLikeINSt3__16vectorIN4aidl7android8hardware8graphics9composer314DisplayRequest12LayerRequestENS3_9allocatorISB_EEEEE6$valueE",
   "self_type" : "_ZTIN7android8internal7details13IsPointerLikeINSt3__16vectorIN4aidl7android8hardware8graphics9composer314DisplayRequest12LayerRequestENS3_9allocatorISB_EEEEE6$valueE",
   "size" : 4,
   "source_file" : "frameworks/native/libs/binder/ndk/include_cpp/android/binder_to_string.h",
   "underlying_type" : "_ZTIj"
  },
  {
   "alignment" : 4,
   "enum_fields" :
   [
    {
     "enum_field_value" : 0,
     "name" : "android::internal::details::IsPointerLike<std::vector<aidl::android::hardware::graphics::composer3::ChangedCompositionLayer>>::value"
    }
   ],
   "linker_set_key" : "_ZTIN7android8internal7details13IsPointerLikeINSt3__16vectorIN4aidl7android8hardware8graphics9composer323ChangedCompositionLayerENS3_9allocatorISA_EEEEE6$valueE",
   "name" : "android::internal::details::IsPointerLike<std::vector<aidl::android::hardware::graphics::composer3::ChangedCompositionLayer, std::allocator<aidl::android::hardware::graphics::composer3::ChangedCompositionLayer>>>::(unnamed enum at frameworks/native/libs/binder/ndk/include_cpp/android/binder_to_string.h:118:5)",
   "referenced_type" : "_ZTIN7android8internal7details13IsPointerLikeINSt3__16vectorIN4aidl7android8hardware8graphics9composer323ChangedCompositionLayerENS3_9allocatorISA_EEEEE6$valueE",
   "self_type" : "_ZTIN7android8internal7details13IsPointerLikeINSt3__16vectorIN4aidl7android8hardware8graphics9composer323ChangedCompositionLayerENS3_9allocatorISA_EEEEE6$valueE",
   "size" : 4,
   "source_file" : "frameworks/native/libs/binder/ndk/include_cpp/android/binder_to_string.h",
   "underlying_type" : "_ZTIj"
  },
  {
   "alignment" : 4,
   "enum_fields" :
   [
    {
     "enum_field_value" : 0,
     "name" : "android::internal::details::IsPointerLike<std::vector<std::optional<aidl::android::hardware::graphics::common::Rect>>>::value"
    }
   ],
   "linker_set_key" : "_ZTIN7android8internal7details13IsPointerLikeINSt3__16vectorINS3_8optionalIN4aidl7android8hardware8graphics6common4RectEEENS3_9allocatorISC_EEEEE6$valueE",
   "name" : "android::internal::details::IsPointerLike<std::vector<std::optional<aidl::android::hardware::graphics::common::Rect>, std::allocator<std::optional<aidl::android::hardware::graphics::common::Rect>>>>::(unnamed enum at frameworks/native/libs/binder/ndk/include_cpp/android/binder_to_string.h:118:5)",
   "referenced_type" : "_ZTIN7android8internal7details13IsPointerLikeINSt3__16vectorINS3_8optionalIN4aidl7android8hardware8graphics6common4RectEEENS3_9allocatorISC_EEEEE6$valueE",
   "self_type" : "_ZTIN7android8internal7details13IsPointerLikeINSt3__16vectorINS3_8optionalIN4aidl7android8hardware8graphics6common4RectEEENS3_9allocatorISC_EEEEE6$valueE",
   "size" : 4,
   "source_file" : "frameworks/native/libs/binder/ndk/include_cpp/android/binder_to_string.h",
   "underlying_type" : "_ZTIj"
  },
  {
   "alignment" : 4,
   "enum_fields" :
   [
    {
     "enum_field_value" : 0,
     "name" : "android::internal::details::IsPointerLike<std::vector<std::optional<aidl::android::hardware::graphics::composer3::PerFrameMetadata>>>::value"
    }
   ],
   "linker_set_key" : "_ZTIN7android8internal7details13IsPointerLikeINSt3__16vectorINS3_8optionalIN4aidl7android8hardware8graphics9composer316PerFrameMetadataEEENS3_9allocatorISC_EEEEE6$valueE",
   "name" : "android::internal::details::IsPointerLike<std::vector<std::optional<aidl::android::hardware::graphics::composer3::PerFrameMetadata>, std::allocator<std::optional<aidl::android::hardware::graphics::composer3::PerFrameMetadata>>>>::(unnamed enum at frameworks/native/libs/binder/ndk/include_cpp/android/binder_to_string.h:118:5)",
   "referenced_type" : "_ZTIN7android8internal7details13IsPointerLikeINSt3__16vectorINS3_8optionalIN4aidl7android8hardware8graphics9composer316PerFrameMetadataEEENS3_9allocatorISC_EEEEE6$valueE",
   "self_type" : "_ZTIN7android8internal7details13IsPointerLikeINSt3__16vectorINS3_8optionalIN4aidl7android8hardware8graphics9composer316PerFrameMetadataEEENS3_9allocatorISC_EEEEE6$valueE",
   "size" : 4,
   "source_file" : "frameworks/native/libs/binder/ndk/include_cpp/android/binder_to_string.h",
   "underlying_type" : "_ZTIj"
  },
  {
   "alignment" : 4,
   "enum_fields" :
   [
    {
     "enum_field_value" : 0,
     "name" : "android::internal::details::IsPointerLike<std::vector<std::optional<aidl::android::hardware::graphics::composer3::PerFrameMetadataBlob>>>::value"
    }
   ],
   "linker_set_key" : "_ZTIN7android8internal7details13IsPointerLikeINSt3__16vectorINS3_8optionalIN4aidl7android8hardware8graphics9composer320PerFrameMetadataBlobEEENS3_9allocatorISC_EEEEE6$valueE",
   "name" : "android::internal::details::IsPointerLike<std::vector<std::optional<aidl::android::hardware::graphics::composer3::PerFrameMetadataBlob>, std::allocator<std::optional<aidl::android::hardware::graphics::composer3::PerFrameMetadataBlob>>>>::(unnamed enum at frameworks/native/libs/binder/ndk/include_cpp/android/binder_to_string.h:118:5)",
   "referenced_type" : "_ZTIN7android8internal7details13IsPointerLikeINSt3__16vectorINS3_8optionalIN4aidl7android8hardware8graphics9composer320PerFrameMetadataBlobEEENS3_9allocatorISC_EEEEE6$valueE",
   "self_type" : "_ZTIN7android8internal7details13IsPointerLikeINSt3__16vectorINS3_8optionalIN4aidl7android8hardware8graphics9composer320PerFrameMetadataBlobEEENS3_9allocatorISC_EEEEE6$valueE",
   "size" : 4,
   "source_file" : "frameworks/native/libs/binder/ndk/include_cpp/android/binder_to_string.h",
   "underlying_type" : "_ZTIj"
  },
  {
   "alignment" : 4,
   "enum_fields" :
   [
    {
     "enum_field_value" : 0,
     "name" : "android::internal::details::IsPointerLike<std::vector<float>>::value"
    }
   ],
   "linker_set_key" : "_ZTIN7android8internal7details13IsPointerLikeINSt3__16vectorIfNS3_9allocatorIfEEEEE6$valueE",
   "name" : "android::internal::details::IsPointerLike<std::vector<float, std::allocator<float>>>::(unnamed enum at frameworks/native/libs/binder/ndk/include_cpp/android/binder_to_string.h:118:5)",
   "referenced_type" : "_ZTIN7android8internal7details13IsPointerLikeINSt3__16vectorIfNS3_9allocatorIfEEEEE6$valueE",
   "self_type" : "_ZTIN7android8internal7details13IsPointerLikeINSt3__16vectorIfNS3_9allocatorIfEEEEE6$valueE",
   "size" : 4,
   "source_file" : "frameworks/native/libs/binder/ndk/include_cpp/android/binder_to_string.h",
   "underlying_type" : "_ZTIj"
  },
  {
   "alignment" : 4,
   "enum_fields" :
   [
    {
     "enum_field_value" : 0,
     "name" : "android::internal::details::IsPointerLike<std::vector<unsigned char>>::value"
    }
   ],
   "linker_set_key" : "_ZTIN7android8internal7details13IsPointerLikeINSt3__16vectorIhNS3_9allocatorIhEEEEE6$valueE",
   "name" : "android::internal::details::IsPointerLike<std::vector<unsigned char, std::allocator<unsigned char>>>::(unnamed enum at frameworks/native/libs/binder/ndk/include_cpp/android/binder_to_string.h:118:5)",
   "referenced_type" : "_ZTIN7android8internal7details13IsPointerLikeINSt3__16vectorIhNS3_9allocatorIhEEEEE6$valueE",
   "self_type" : "_ZTIN7android8internal7details13IsPointerLikeINSt3__16vectorIhNS3_9allocatorIhEEEEE6$valueE",
   "size" : 4,
   "source_file" : "frameworks/native/libs/binder/ndk/include_cpp/android/binder_to_string.h",
   "underlying_type" : "_ZTIj"
  },
  {
   "alignment" : 4,
   "enum_fields" :
   [
    {
     "enum_field_value" : 0,
     "name" : "android::internal::details::IsPointerLike<std::vector<int>>::value"
    }
   ],
   "linker_set_key" : "_ZTIN7android8internal7details13IsPointerLikeINSt3__16vectorIiNS3_9allocatorIiEEEEE6$valueE",
   "name" : "android::internal::details::IsPointerLike<std::vector<int, std::allocator<int>>>::(unnamed enum at frameworks/native/libs/binder/ndk/include_cpp/android/binder_to_string.h:118:5)",
   "referenced_type" : "_ZTIN7android8internal7details13IsPointerLikeINSt3__16vectorIiNS3_9allocatorIiEEEEE6$valueE",
   "self_type" : "_ZTIN7android8internal7details13IsPointerLikeINSt3__16vectorIiNS3_9allocatorIiEEEEE6$valueE",
   "size" : 4,
   "source_file" : "frameworks/native/libs/binder/ndk/include_cpp/android/binder_to_string.h",
   "underlying_type" : "_ZTIj"
  },
  {
   "alignment" : 4,
   "enum_fields" :
   [
    {
     "enum_field_value" : 0,
     "name" : "android::internal::details::IsPointerLike<std::vector<long long>>::value"
    }
   ],
   "linker_set_key" : "_ZTIN7android8internal7details13IsPointerLikeINSt3__16vectorIxNS3_9allocatorIxEEEEE6$valueE",
   "name" : "android::internal::details::IsPointerLike<std::vector<long long, std::allocator<long long>>>::(unnamed enum at frameworks/native/libs/binder/ndk/include_cpp/android/binder_to_string.h:118:5)",
   "referenced_type" : "_ZTIN7android8internal7details13IsPointerLikeINSt3__16vectorIxNS3_9allocatorIxEEEEE6$valueE",
   "self_type" : "_ZTIN7android8internal7details13IsPointerLikeINSt3__16vectorIxNS3_9allocatorIxEEEEE6$valueE",
   "size" : 4,
   "source_file" : "frameworks/native/libs/binder/ndk/include_cpp/android/binder_to_string.h",
   "underlying_type" : "_ZTIj"
  },
  {
   "alignment" : 4,
   "enum_fields" :
   [
    {
     "enum_field_value" : 1,
     "name" : "android::internal::details::IsPointerLike<std::optional<aidl::android::hardware::common::NativeHandle>>::value"
    }
   ],
   "linker_set_key" : "_ZTIN7android8internal7details13IsPointerLikeINSt3__18optionalIN4aidl7android8hardware6common12NativeHandleEEEE6$valueE",
   "name" : "android::internal::details::IsPointerLike<std::optional<aidl::android::hardware::common::NativeHandle>>::(unnamed enum at frameworks/native/libs/binder/ndk/include_cpp/android/binder_to_string.h:118:5)",
   "referenced_type" : "_ZTIN7android8internal7details13IsPointerLikeINSt3__18optionalIN4aidl7android8hardware6common12NativeHandleEEEE6$valueE",
   "self_type" : "_ZTIN7android8internal7details13IsPointerLikeINSt3__18optionalIN4aidl7android8hardware6common12NativeHandleEEEE6$valueE",
   "size" : 4,
   "source_file" : "frameworks/native/libs/binder/ndk/include_cpp/android/binder_to_string.h",
   "underlying_type" : "_ZTIj"
  },
  {
   "alignment" : 4,
   "enum_fields" :
   [
    {
     "enum_field_value" : 1,
     "name" : "android::internal::details::IsPointerLike<std::optional<aidl::android::hardware::graphics::common::Rect>>::value"
    }
   ],
   "linker_set_key" : "_ZTIN7android8internal7details13IsPointerLikeINSt3__18optionalIN4aidl7android8hardware8graphics6common4RectEEEE6$valueE",
   "name" : "android::internal::details::IsPointerLike<std::optional<aidl::android::hardware::graphics::common::Rect>>::(unnamed enum at frameworks/native/libs/binder/ndk/include_cpp/android/binder_to_string.h:118:5)",
   "referenced_type" : "_ZTIN7android8internal7details13IsPointerLikeINSt3__18optionalIN4aidl7android8hardware8graphics6common4RectEEEE6$valueE",
   "self_type" : "_ZTIN7android8internal7details13IsPointerLikeINSt3__18optionalIN4aidl7android8hardware8graphics6common4RectEEEE6$valueE",
   "size" : 4,
   "source_file" : "frameworks/native/libs/binder/ndk/include_cpp/android/binder_to_string.h",
   "underlying_type" : "_ZTIj"
  },
  {
   "alignment" : 4,
   "enum_fields" :
   [
    {
     "enum_field_value" : 1,
     "name" : "android::internal::details::IsPointerLike<std::optional<aidl::android::hardware::graphics::common::FRect>>::value"
    }
   ],
   "linker_set_key" : "_ZTIN7android8internal7details13IsPointerLikeINSt3__18optionalIN4aidl7android8hardware8graphics6common5FRectEEEE6$valueE",
   "name" : "android::internal::details::IsPointerLike<std::optional<aidl::android::hardware::graphics::common::FRect>>::(unnamed enum at frameworks/native/libs/binder/ndk/include_cpp/android/binder_to_string.h:118:5)",
   "referenced_type" : "_ZTIN7android8internal7details13IsPointerLikeINSt3__18optionalIN4aidl7android8hardware8graphics6common5FRectEEEE6$valueE",
   "self_type" : "_ZTIN7android8internal7details13IsPointerLikeINSt3__18optionalIN4aidl7android8hardware8graphics6common5FRectEEEE6$valueE",
   "size" : 4,
   "source_file" : "frameworks/native/libs/binder/ndk/include_cpp/android/binder_to_string.h",
   "underlying_type" : "_ZTIj"
  },
  {
   "alignment" : 4,
   "enum_fields" :
   [
    {
     "enum_field_value" : 1,
     "name" : "android::internal::details::IsPointerLike<std::optional<aidl::android::hardware::graphics::common::Point>>::value"
    }
   ],
   "linker_set_key" : "_ZTIN7android8internal7details13IsPointerLikeINSt3__18optionalIN4aidl7android8hardware8graphics6common5PointEEEE6$valueE",
   "name" : "android::internal::details::IsPointerLike<std::optional<aidl::android::hardware::graphics::common::Point>>::(unnamed enum at frameworks/native/libs/binder/ndk/include_cpp/android/binder_to_string.h:118:5)",
   "referenced_type" : "_ZTIN7android8internal7details13IsPointerLikeINSt3__18optionalIN4aidl7android8hardware8graphics6common5PointEEEE6$valueE",
   "self_type" : "_ZTIN7android8internal7details13IsPointerLikeINSt3__18optionalIN4aidl7android8hardware8graphics6common5PointEEEE6$valueE",
   "size" : 4,
   "source_file" : "frameworks/native/libs/binder/ndk/include_cpp/android/binder_to_string.h",
   "underlying_type" : "_ZTIj"
  },
  {
   "alignment" : 4,
   "enum_fields" :
   [
    {
     "enum_field_value" : 1,
     "name" : "android::internal::details::IsPointerLike<std::optional<aidl::android::hardware::graphics::composer3::PlaneAlpha>>::value"
    }
   ],
   "linker_set_key" : "_ZTIN7android8internal7details13IsPointerLikeINSt3__18optionalIN4aidl7android8hardware8graphics9composer310PlaneAlphaEEEE6$valueE",
   "name" : "android::internal::details::IsPointerLike<std::optional<aidl::android::hardware::graphics::composer3::PlaneAlpha>>::(unnamed enum at frameworks/native/libs/binder/ndk/include_cpp/android/binder_to_string.h:118:5)",
   "referenced_type" : "_ZTIN7android8internal7details13IsPointerLikeINSt3__18optionalIN4aidl7android8hardware8graphics9composer310PlaneAlphaEEEE6$valueE",
   "self_type" : "_ZTIN7android8internal7details13IsPointerLikeINSt3__18optionalIN4aidl7android8hardware8graphics9composer310PlaneAlphaEEEE6$valueE",
   "size" : 4,
   "source_file" : "frameworks/native/libs/binder/ndk/include_cpp/android/binder_to_string.h",
   "underlying_type" : "_ZTIj"
  },
  {
   "alignment" : 4,
   "enum_fields" :
   [
    {
     "enum_field_value" : 1,
     "name" : "android::internal::details::IsPointerLike<std::optional<aidl::android::hardware::graphics::composer3::ClientTarget>>::value"
    }
   ],
   "linker_set_key" : "_ZTIN7android8internal7details13IsPointerLikeINSt3__18optionalIN4aidl7android8hardware8graphics9composer312ClientTargetEEEE6$valueE",
   "name" : "android::internal::details::IsPointerLike<std::optional<aidl::android::hardware::graphics::composer3::ClientTarget>>::(unnamed enum at frameworks/native/libs/binder/ndk/include_cpp/android/binder_to_string.h:118:5)",
   "referenced_type" : "_ZTIN7android8internal7details13IsPointerLikeINSt3__18optionalIN4aidl7android8hardware8graphics9composer312ClientTargetEEEE6$valueE",
   "self_type" : "_ZTIN7android8internal7details13IsPointerLikeINSt3__18optionalIN4aidl7android8hardware8graphics9composer312ClientTargetEEEE6$valueE",
   "size" : 4,
   "source_file" : "frameworks/native/libs/binder/ndk/include_cpp/android/binder_to_string.h",
   "underlying_type" : "_ZTIj"
  },
  {
   "alignment" : 4,
   "enum_fields" :
   [
    {
     "enum_field_value" : 1,
     "name" : "android::internal::details::IsPointerLike<std::optional<aidl::android::hardware::graphics::composer3::LayerBrightness>>::value"
    }
   ],
   "linker_set_key" : "_ZTIN7android8internal7details13IsPointerLikeINSt3__18optionalIN4aidl7android8hardware8graphics9composer315LayerBrightnessEEEE6$valueE",
   "name" : "android::internal::details::IsPointerLike<std::optional<aidl::android::hardware::graphics::composer3::LayerBrightness>>::(unnamed enum at frameworks/native/libs/binder/ndk/include_cpp/android/binder_to_string.h:118:5)",
   "referenced_type" : "_ZTIN7android8internal7details13IsPointerLikeINSt3__18optionalIN4aidl7android8hardware8graphics9composer315LayerBrightnessEEEE6$valueE",
   "self_type" : "_ZTIN7android8internal7details13IsPointerLikeINSt3__18optionalIN4aidl7android8hardware8graphics9composer315LayerBrightnessEEEE6$valueE",
   "size" : 4,
   "source_file" : "frameworks/native/libs/binder/ndk/include_cpp/android/binder_to_string.h",
   "underlying_type" : "_ZTIj"
  },
  {
   "alignment" : 4,
   "enum_fields" :
   [
    {
     "enum_field_value" : 1,
     "name" : "android::internal::details::IsPointerLike<std::optional<aidl::android::hardware::graphics::composer3::PerFrameMetadata>>::value"
    }
   ],
   "linker_set_key" : "_ZTIN7android8internal7details13IsPointerLikeINSt3__18optionalIN4aidl7android8hardware8graphics9composer316PerFrameMetadataEEEE6$valueE",
   "name" : "android::internal::details::IsPointerLike<std::optional<aidl::android::hardware::graphics::composer3::PerFrameMetadata>>::(unnamed enum at frameworks/native/libs/binder/ndk/include_cpp/android/binder_to_string.h:118:5)",
   "referenced_type" : "_ZTIN7android8internal7details13IsPointerLikeINSt3__18optionalIN4aidl7android8hardware8graphics9composer316PerFrameMetadataEEEE6$valueE",
   "self_type" : "_ZTIN7android8internal7details13IsPointerLikeINSt3__18optionalIN4aidl7android8hardware8graphics9composer316PerFrameMetadataEEEE6$valueE",
   "size" : 4,
   "source_file" : "frameworks/native/libs/binder/ndk/include_cpp/android/binder_to_string.h",
   "underlying_type" : "_ZTIj"
  },
  {
   "alignment" : 4,
   "enum_fields" :
   [
    {
     "enum_field_value" : 1,
     "name" : "android::internal::details::IsPointerLike<std::optional<aidl::android::hardware::graphics::composer3::DisplayBrightness>>::value"
    }
   ],
   "linker_set_key" : "_ZTIN7android8internal7details13IsPointerLikeINSt3__18optionalIN4aidl7android8hardware8graphics9composer317DisplayBrightnessEEEE6$valueE",
   "name" : "android::internal::details::IsPointerLike<std::optional<aidl::android::hardware::graphics::composer3::DisplayBrightness>>::(unnamed enum at frameworks/native/libs/binder/ndk/include_cpp/android/binder_to_string.h:118:5)",
   "referenced_type" : "_ZTIN7android8internal7details13IsPointerLikeINSt3__18optionalIN4aidl7android8hardware8graphics9composer317DisplayBrightnessEEEE6$valueE",
   "self_type" : "_ZTIN7android8internal7details13IsPointerLikeINSt3__18optionalIN4aidl7android8hardware8graphics9composer317DisplayBrightnessEEEE6$valueE",
   "size" : 4,
   "source_file" : "frameworks/native/libs/binder/ndk/include_cpp/android/binder_to_string.h",
   "underlying_type" : "_ZTIj"
  },
  {
   "alignment" : 4,
   "enum_fields" :
   [
    {
     "enum_field_value" : 1,
     "name" : "android::internal::details::IsPointerLike<std::optional<aidl::android::hardware::graphics::composer3::ParcelableBlendMode>>::value"
    }
   ],
   "linker_set_key" : "_ZTIN7android8internal7details13IsPointerLikeINSt3__18optionalIN4aidl7android8hardware8graphics9composer319ParcelableBlendModeEEEE6$valueE",
   "name" : "android::internal::details::IsPointerLike<std::optional<aidl::android::hardware::graphics::composer3::ParcelableBlendMode>>::(unnamed enum at frameworks/native/libs/binder/ndk/include_cpp/android/binder_to_string.h:118:5)",
   "referenced_type" : "_ZTIN7android8internal7details13IsPointerLikeINSt3__18optionalIN4aidl7android8hardware8graphics9composer319ParcelableBlendModeEEEE6$valueE",
   "self_type" : "_ZTIN7android8internal7details13IsPointerLikeINSt3__18optionalIN4aidl7android8hardware8graphics9composer319ParcelableBlendModeEEEE6$valueE",
   "size" : 4,
   "source_file" : "frameworks/native/libs/binder/ndk/include_cpp/android/binder_to_string.h",
   "underlying_type" : "_ZTIj"
  },
  {
   "alignment" : 4,
   "enum_fields" :
   [
    {
     "enum_field_value" : 1,
     "name" : "android::internal::details::IsPointerLike<std::optional<aidl::android::hardware::graphics::composer3::ParcelableDataspace>>::value"
    }
   ],
   "linker_set_key" : "_ZTIN7android8internal7details13IsPointerLikeINSt3__18optionalIN4aidl7android8hardware8graphics9composer319ParcelableDataspaceEEEE6$valueE",
   "name" : "android::internal::details::IsPointerLike<std::optional<aidl::android::hardware::graphics::composer3::ParcelableDataspace>>::(unnamed enum at frameworks/native/libs/binder/ndk/include_cpp/android/binder_to_string.h:118:5)",
   "referenced_type" : "_ZTIN7android8internal7details13IsPointerLikeINSt3__18optionalIN4aidl7android8hardware8graphics9composer319ParcelableDataspaceEEEE6$valueE",
   "self_type" : "_ZTIN7android8internal7details13IsPointerLikeINSt3__18optionalIN4aidl7android8hardware8graphics9composer319ParcelableDataspaceEEEE6$valueE",
   "size" : 4,
   "source_file" : "frameworks/native/libs/binder/ndk/include_cpp/android/binder_to_string.h",
   "underlying_type" : "_ZTIj"
  },
  {
   "alignment" : 4,
   "enum_fields" :
   [
    {
     "enum_field_value" : 1,
     "name" : "android::internal::details::IsPointerLike<std::optional<aidl::android::hardware::graphics::composer3::ParcelableTransform>>::value"
    }
   ],
   "linker_set_key" : "_ZTIN7android8internal7details13IsPointerLikeINSt3__18optionalIN4aidl7android8hardware8graphics9composer319ParcelableTransformEEEE6$valueE",
   "name" : "android::internal::details::IsPointerLike<std::optional<aidl::android::hardware::graphics::composer3::ParcelableTransform>>::(unnamed enum at frameworks/native/libs/binder/ndk/include_cpp/android/binder_to_string.h:118:5)",
   "referenced_type" : "_ZTIN7android8internal7details13IsPointerLikeINSt3__18optionalIN4aidl7android8hardware8graphics9composer319ParcelableTransformEEEE6$valueE",
   "self_type" : "_ZTIN7android8internal7details13IsPointerLikeINSt3__18optionalIN4aidl7android8hardware8graphics9composer319ParcelableTransformEEEE6$valueE",
   "size" : 4,
   "source_file" : "frameworks/native/libs/binder/ndk/include_cpp/android/binder_to_string.h",
   "underlying_type" : "_ZTIj"
  },
  {
   "alignment" : 4,
   "enum_fields" :
   [
    {
     "enum_field_value" : 1,
     "name" : "android::internal::details::IsPointerLike<std::optional<aidl::android::hardware::graphics::composer3::PerFrameMetadataBlob>>::value"
    }
   ],
   "linker_set_key" : "_ZTIN7android8internal7details13IsPointerLikeINSt3__18optionalIN4aidl7android8hardware8graphics9composer320PerFrameMetadataBlobEEEE6$valueE",
   "name" : "android::internal::details::IsPointerLike<std::optional<aidl::android::hardware::graphics::composer3::PerFrameMetadataBlob>>::(unnamed enum at frameworks/native/libs/binder/ndk/include_cpp/android/binder_to_string.h:118:5)",
   "referenced_type" : "_ZTIN7android8internal7details13IsPointerLikeINSt3__18optionalIN4aidl7android8hardware8graphics9composer320PerFrameMetadataBlobEEEE6$valueE",
   "self_type" : "_ZTIN7android8internal7details13IsPointerLikeINSt3__18optionalIN4aidl7android8hardware8graphics9composer320PerFrameMetadataBlobEEEE6$valueE",
   "size" : 4,
   "source_file" : "frameworks/native/libs/binder/ndk/include_cpp/android/binder_to_string.h",
   "underlying_type" : "_ZTIj"
  },
  {
   "alignment" : 4,
   "enum_fields" :
   [
    {
     "enum_field_value" : 1,
     "name" : "android::internal::details::IsPointerLike<std::optional<aidl::android::hardware::graphics::composer3::ParcelableComposition>>::value"
    }
   ],
   "linker_set_key" : "_ZTIN7android8internal7details13IsPointerLikeINSt3__18optionalIN4aidl7android8hardware8graphics9composer321ParcelableCompositionEEEE6$valueE",
   "name" : "android::internal::details::IsPointerLike<std::optional<aidl::android::hardware::graphics::composer3::ParcelableComposition>>::(unnamed enum at frameworks/native/libs/binder/ndk/include_cpp/android/binder_to_string.h:118:5)",
   "referenced_type" : "_ZTIN7android8internal7details13IsPointerLikeINSt3__18optionalIN4aidl7android8hardware8graphics9composer321ParcelableCompositionEEEE6$valueE",
   "self_type" : "_ZTIN7android8internal7details13IsPointerLikeINSt3__18optionalIN4aidl7android8hardware8graphics9composer321ParcelableCompositionEEEE6$valueE",
   "size" : 4,
   "source_file" : "frameworks/native/libs/binder/ndk/include_cpp/android/binder_to_string.h",
   "underlying_type" : "_ZTIj"
  },
  {
   "alignment" : 4,
   "enum_fields" :
   [
    {
     "enum_field_value" : 1,
     "name" : "android::internal::details::IsPointerLike<std::optional<aidl::android::hardware::graphics::composer3::ClockMonotonicTimestamp>>::value"
    }
   ],
   "linker_set_key" : "_ZTIN7android8internal7details13IsPointerLikeINSt3__18optionalIN4aidl7android8hardware8graphics9composer323ClockMonotonicTimestampEEEE6$valueE",
   "name" : "android::internal::details::IsPointerLike<std::optional<aidl::android::hardware::graphics::composer3::ClockMonotonicTimestamp>>::(unnamed enum at frameworks/native/libs/binder/ndk/include_cpp/android/binder_to_string.h:118:5)",
   "referenced_type" : "_ZTIN7android8internal7details13IsPointerLikeINSt3__18optionalIN4aidl7android8hardware8graphics9composer323ClockMonotonicTimestampEEEE6$valueE",
   "self_type" : "_ZTIN7android8internal7details13IsPointerLikeINSt3__18optionalIN4aidl7android8hardware8graphics9composer323ClockMonotonicTimestampEEEE6$valueE",
   "size" : 4,
   "source_file" : "frameworks/native/libs/binder/ndk/include_cpp/android/binder_to_string.h",
   "underlying_type" : "_ZTIj"
  },
  {
   "alignment" : 4,
   "enum_fields" :
   [
    {
     "enum_field_value" : 1,
     "name" : "android::internal::details::IsPointerLike<std::optional<aidl::android::hardware::graphics::composer3::Color>>::value"
    }
   ],
   "linker_set_key" : "_ZTIN7android8internal7details13IsPointerLikeINSt3__18optionalIN4aidl7android8hardware8graphics9composer35ColorEEEE6$valueE",
   "name" : "android::internal::details::IsPointerLike<std::optional<aidl::android::hardware::graphics::composer3::Color>>::(unnamed enum at frameworks/native/libs/binder/ndk/include_cpp/android/binder_to_string.h:118:5)",
   "referenced_type" : "_ZTIN7android8internal7details13IsPointerLikeINSt3__18optionalIN4aidl7android8hardware8graphics9composer35ColorEEEE6$valueE",
   "self_type" : "_ZTIN7android8internal7details13IsPointerLikeINSt3__18optionalIN4aidl7android8hardware8graphics9composer35ColorEEEE6$valueE",
   "size" : 4,
   "source_file" : "frameworks/native/libs/binder/ndk/include_cpp/android/binder_to_string.h",
   "underlying_type" : "_ZTIj"
  },
  {
   "alignment" : 4,
   "enum_fields" :
   [
    {
     "enum_field_value" : 1,
     "name" : "android::internal::details::IsPointerLike<std::optional<aidl::android::hardware::graphics::composer3::Buffer>>::value"
    }
   ],
   "linker_set_key" : "_ZTIN7android8internal7details13IsPointerLikeINSt3__18optionalIN4aidl7android8hardware8graphics9composer36BufferEEEE6$valueE",
   "name" : "android::internal::details::IsPointerLike<std::optional<aidl::android::hardware::graphics::composer3::Buffer>>::(unnamed enum at frameworks/native/libs/binder/ndk/include_cpp/android/binder_to_string.h:118:5)",
   "referenced_type" : "_ZTIN7android8internal7details13IsPointerLikeINSt3__18optionalIN4aidl7android8hardware8graphics9composer36BufferEEEE6$valueE",
   "self_type" : "_ZTIN7android8internal7details13IsPointerLikeINSt3__18optionalIN4aidl7android8hardware8graphics9composer36BufferEEEE6$valueE",
   "size" : 4,
   "source_file" : "frameworks/native/libs/binder/ndk/include_cpp/android/binder_to_string.h",
   "underlying_type" : "_ZTIj"
  },
  {
   "alignment" : 4,
   "enum_fields" :
   [
    {
     "enum_field_value" : 1,
     "name" : "android::internal::details::IsPointerLike<std::optional<aidl::android::hardware::graphics::composer3::ZOrder>>::value"
    }
   ],
   "linker_set_key" : "_ZTIN7android8internal7details13IsPointerLikeINSt3__18optionalIN4aidl7android8hardware8graphics9composer36ZOrderEEEE6$valueE",
   "name" : "android::internal::details::IsPointerLike<std::optional<aidl::android::hardware::graphics::composer3::ZOrder>>::(unnamed enum at frameworks/native/libs/binder/ndk/include_cpp/android/binder_to_string.h:118:5)",
   "referenced_type" : "_ZTIN7android8internal7details13IsPointerLikeINSt3__18optionalIN4aidl7android8hardware8graphics9composer36ZOrderEEEE6$valueE",
   "self_type" : "_ZTIN7android8internal7details13IsPointerLikeINSt3__18optionalIN4aidl7android8hardware8graphics9composer36ZOrderEEEE6$valueE",
   "size" : 4,
   "source_file" : "frameworks/native/libs/binder/ndk/include_cpp/android/binder_to_string.h",
   "underlying_type" : "_ZTIj"
  },
  {
   "alignment" : 4,
   "enum_fields" :
   [
    {
     "enum_field_value" : 1,
     "name" : "android::internal::details::IsPointerLike<std::optional<std::vector<std::optional<aidl::android::hardware::graphics::common::Rect>>>>::value"
    }
   ],
   "linker_set_key" : "_ZTIN7android8internal7details13IsPointerLikeINSt3__18optionalINS3_6vectorINS4_IN4aidl7android8hardware8graphics6common4RectEEENS3_9allocatorISC_EEEEEEE6$valueE",
   "name" : "android::internal::details::IsPointerLike<std::optional<std::vector<std::optional<aidl::android::hardware::graphics::common::Rect>, std::allocator<std::optional<aidl::android::hardware::graphics::common::Rect>>>>>::(unnamed enum at frameworks/native/libs/binder/ndk/include_cpp/android/binder_to_string.h:118:5)",
   "referenced_type" : "_ZTIN7android8internal7details13IsPointerLikeINSt3__18optionalINS3_6vectorINS4_IN4aidl7android8hardware8graphics6common4RectEEENS3_9allocatorISC_EEEEEEE6$valueE",
   "self_type" : "_ZTIN7android8internal7details13IsPointerLikeINSt3__18optionalINS3_6vectorINS4_IN4aidl7android8hardware8graphics6common4RectEEENS3_9allocatorISC_EEEEEEE6$valueE",
   "size" : 4,
   "source_file" : "frameworks/native/libs/binder/ndk/include_cpp/android/binder_to_string.h",
   "underlying_type" : "_ZTIj"
  },
  {
   "alignment" : 4,
   "enum_fields" :
   [
    {
     "enum_field_value" : 1,
     "name" : "android::internal::details::IsPointerLike<std::optional<std::vector<std::optional<aidl::android::hardware::graphics::composer3::PerFrameMetadata>>>>::value"
    }
   ],
   "linker_set_key" : "_ZTIN7android8internal7details13IsPointerLikeINSt3__18optionalINS3_6vectorINS4_IN4aidl7android8hardware8graphics9composer316PerFrameMetadataEEENS3_9allocatorISC_EEEEEEE6$valueE",
   "name" : "android::internal::details::IsPointerLike<std::optional<std::vector<std::optional<aidl::android::hardware::graphics::composer3::PerFrameMetadata>, std::allocator<std::optional<aidl::android::hardware::graphics::composer3::PerFrameMetadata>>>>>::(unnamed enum at frameworks/native/libs/binder/ndk/include_cpp/android/binder_to_string.h:118:5)",
   "referenced_type" : "_ZTIN7android8internal7details13IsPointerLikeINSt3__18optionalINS3_6vectorINS4_IN4aidl7android8hardware8graphics9composer316PerFrameMetadataEEENS3_9allocatorISC_EEEEEEE6$valueE",
   "self_type" : "_ZTIN7android8internal7details13IsPointerLikeINSt3__18optionalINS3_6vectorINS4_IN4aidl7android8hardware8graphics9composer316PerFrameMetadataEEENS3_9allocatorISC_EEEEEEE6$valueE",
   "size" : 4,
   "source_file" : "frameworks/native/libs/binder/ndk/include_cpp/android/binder_to_string.h",
   "underlying_type" : "_ZTIj"
  },
  {
   "alignment" : 4,
   "enum_fields" :
   [
    {
     "enum_field_value" : 1,
     "name" : "android::internal::details::IsPointerLike<std::optional<std::vector<std::optional<aidl::android::hardware::graphics::composer3::PerFrameMetadataBlob>>>>::value"
    }
   ],
   "linker_set_key" : "_ZTIN7android8internal7details13IsPointerLikeINSt3__18optionalINS3_6vectorINS4_IN4aidl7android8hardware8graphics9composer320PerFrameMetadataBlobEEENS3_9allocatorISC_EEEEEEE6$valueE",
   "name" : "android::internal::details::IsPointerLike<std::optional<std::vector<std::optional<aidl::android::hardware::graphics::composer3::PerFrameMetadataBlob>, std::allocator<std::optional<aidl::android::hardware::graphics::composer3::PerFrameMetadataBlob>>>>>::(unnamed enum at frameworks/native/libs/binder/ndk/include_cpp/android/binder_to_string.h:118:5)",
   "referenced_type" : "_ZTIN7android8internal7details13IsPointerLikeINSt3__18optionalINS3_6vectorINS4_IN4aidl7android8hardware8graphics9composer320PerFrameMetadataBlobEEENS3_9allocatorISC_EEEEEEE6$valueE",
   "self_type" : "_ZTIN7android8internal7details13IsPointerLikeINSt3__18optionalINS3_6vectorINS4_IN4aidl7android8hardware8graphics9composer320PerFrameMetadataBlobEEENS3_9allocatorISC_EEEEEEE6$valueE",
   "size" : 4,
   "source_file" : "frameworks/native/libs/binder/ndk/include_cpp/android/binder_to_string.h",
   "underlying_type" : "_ZTIj"
  },
  {
   "alignment" : 4,
   "enum_fields" :
   [
    {
     "enum_field_value" : 1,
     "name" : "android::internal::details::IsPointerLike<std::optional<std::vector<float>>>::value"
    }
   ],
   "linker_set_key" : "_ZTIN7android8internal7details13IsPointerLikeINSt3__18optionalINS3_6vectorIfNS3_9allocatorIfEEEEEEE6$valueE",
   "name" : "android::internal::details::IsPointerLike<std::optional<std::vector<float, std::allocator<float>>>>::(unnamed enum at frameworks/native/libs/binder/ndk/include_cpp/android/binder_to_string.h:118:5)",
   "referenced_type" : "_ZTIN7android8internal7details13IsPointerLikeINSt3__18optionalINS3_6vectorIfNS3_9allocatorIfEEEEEEE6$valueE",
   "self_type" : "_ZTIN7android8internal7details13IsPointerLikeINSt3__18optionalINS3_6vectorIfNS3_9allocatorIfEEEEEEE6$valueE",
   "size" : 4,
   "source_file" : "frameworks/native/libs/binder/ndk/include_cpp/android/binder_to_string.h",
   "underlying_type" : "_ZTIj"
  },
  {
   "alignment" : 4,
   "enum_fields" :
   [
    {
     "enum_field_value" : 0,
     "name" : "android::internal::details::ToEmptyString<ndk::ScopedFileDescriptor>::value"
    }
   ],
   "linker_set_key" : "_ZTIN7android8internal7details13ToEmptyStringIN3ndk20ScopedFileDescriptorEE6$valueE",
   "name" : "android::internal::details::ToEmptyString<ndk::ScopedFileDescriptor>::(unnamed enum at frameworks/native/libs/binder/ndk/include_cpp/android/binder_to_string.h:153:5)",
   "referenced_type" : "_ZTIN7android8internal7details13ToEmptyStringIN3ndk20ScopedFileDescriptorEE6$valueE",
   "self_type" : "_ZTIN7android8internal7details13ToEmptyStringIN3ndk20ScopedFileDescriptorEE6$valueE",
   "size" : 4,
   "source_file" : "frameworks/native/libs/binder/ndk/include_cpp/android/binder_to_string.h",
   "underlying_type" : "_ZTIj"
  },
  {
   "alignment" : 4,
   "enum_fields" :
   [
    {
     "enum_field_value" : 0,
     "name" : "android::internal::details::ToEmptyString<aidl::android::hardware::common::NativeHandle>::value"
    }
   ],
   "linker_set_key" : "_ZTIN7android8internal7details13ToEmptyStringIN4aidl7android8hardware6common12NativeHandleEE6$valueE",
   "name" : "android::internal::details::ToEmptyString<aidl::android::hardware::common::NativeHandle>::(unnamed enum at frameworks/native/libs/binder/ndk/include_cpp/android/binder_to_string.h:153:5)",
   "referenced_type" : "_ZTIN7android8internal7details13ToEmptyStringIN4aidl7android8hardware6common12NativeHandleEE6$valueE",
   "self_type" : "_ZTIN7android8internal7details13ToEmptyStringIN4aidl7android8hardware6common12NativeHandleEE6$valueE",
   "size" : 4,
   "source_file" : "frameworks/native/libs/binder/ndk/include_cpp/android/binder_to_string.h",
   "underlying_type" : "_ZTIj"
  },
  {
   "alignment" : 4,
   "enum_fields" :
   [
    {
     "enum_field_value" : 0,
     "name" : "android::internal::details::ToEmptyString<aidl::android::hardware::graphics::common::PixelFormat>::value"
    }
   ],
   "linker_set_key" : "_ZTIN7android8internal7details13ToEmptyStringIN4aidl7android8hardware8graphics6common11PixelFormatEE6$valueE",
   "name" : "android::internal::details::ToEmptyString<aidl::android::hardware::graphics::common::PixelFormat>::(unnamed enum at frameworks/native/libs/binder/ndk/include_cpp/android/binder_to_string.h:153:5)",
   "referenced_type" : "_ZTIN7android8internal7details13ToEmptyStringIN4aidl7android8hardware8graphics6common11PixelFormatEE6$valueE",
   "self_type" : "_ZTIN7android8internal7details13ToEmptyStringIN4aidl7android8hardware8graphics6common11PixelFormatEE6$valueE",
   "size" : 4,
   "source_file" : "frameworks/native/libs/binder/ndk/include_cpp/android/binder_to_string.h",
   "underlying_type" : "_ZTIj"
  },
  {
   "alignment" : 4,
   "enum_fields" :
   [
    {
     "enum_field_value" : 0,
     "name" : "android::internal::details::ToEmptyString<aidl::android::hardware::graphics::common::AlphaInterpretation>::value"
    }
   ],
   "linker_set_key" : "_ZTIN7android8internal7details13ToEmptyStringIN4aidl7android8hardware8graphics6common19AlphaInterpretationEE6$valueE",
   "name" : "android::internal::details::ToEmptyString<aidl::android::hardware::graphics::common::AlphaInterpretation>::(unnamed enum at frameworks/native/libs/binder/ndk/include_cpp/android/binder_to_string.h:153:5)",
   "referenced_type" : "_ZTIN7android8internal7details13ToEmptyStringIN4aidl7android8hardware8graphics6common19AlphaInterpretationEE6$valueE",
   "self_type" : "_ZTIN7android8internal7details13ToEmptyStringIN4aidl7android8hardware8graphics6common19AlphaInterpretationEE6$valueE",
   "size" : 4,
   "source_file" : "frameworks/native/libs/binder/ndk/include_cpp/android/binder_to_string.h",
   "underlying_type" : "_ZTIj"
  },
  {
   "alignment" : 4,
   "enum_fields" :
   [
    {
     "enum_field_value" : 0,
     "name" : "android::internal::details::ToEmptyString<aidl::android::hardware::graphics::common::Hdr>::value"
    }
   ],
   "linker_set_key" : "_ZTIN7android8internal7details13ToEmptyStringIN4aidl7android8hardware8graphics6common3HdrEE6$valueE",
   "name" : "android::internal::details::ToEmptyString<aidl::android::hardware::graphics::common::Hdr>::(unnamed enum at frameworks/native/libs/binder/ndk/include_cpp/android/binder_to_string.h:153:5)",
   "referenced_type" : "_ZTIN7android8internal7details13ToEmptyStringIN4aidl7android8hardware8graphics6common3HdrEE6$valueE",
   "self_type" : "_ZTIN7android8internal7details13ToEmptyStringIN4aidl7android8hardware8graphics6common3HdrEE6$valueE",
   "size" : 4,
   "source_file" : "frameworks/native/libs/binder/ndk/include_cpp/android/binder_to_string.h",
   "underlying_type" : "_ZTIj"
  },
  {
   "alignment" : 4,
   "enum_fields" :
   [
    {
     "enum_field_value" : 0,
     "name" : "android::internal::details::ToEmptyString<aidl::android::hardware::graphics::common::Rect>::value"
    }
   ],
   "linker_set_key" : "_ZTIN7android8internal7details13ToEmptyStringIN4aidl7android8hardware8graphics6common4RectEE6$valueE",
   "name" : "android::internal::details::ToEmptyString<aidl::android::hardware::graphics::common::Rect>::(unnamed enum at frameworks/native/libs/binder/ndk/include_cpp/android/binder_to_string.h:153:5)",
   "referenced_type" : "_ZTIN7android8internal7details13ToEmptyStringIN4aidl7android8hardware8graphics6common4RectEE6$valueE",
   "self_type" : "_ZTIN7android8internal7details13ToEmptyStringIN4aidl7android8hardware8graphics6common4RectEE6$valueE",
   "size" : 4,
   "source_file" : "frameworks/native/libs/binder/ndk/include_cpp/android/binder_to_string.h",
   "underlying_type" : "_ZTIj"
  },
  {
   "alignment" : 4,
   "enum_fields" :
   [
    {
     "enum_field_value" : 0,
     "name" : "android::internal::details::ToEmptyString<aidl::android::hardware::graphics::common::FRect>::value"
    }
   ],
   "linker_set_key" : "_ZTIN7android8internal7details13ToEmptyStringIN4aidl7android8hardware8graphics6common5FRectEE6$valueE",
   "name" : "android::internal::details::ToEmptyString<aidl::android::hardware::graphics::common::FRect>::(unnamed enum at frameworks/native/libs/binder/ndk/include_cpp/android/binder_to_string.h:153:5)",
   "referenced_type" : "_ZTIN7android8internal7details13ToEmptyStringIN4aidl7android8hardware8graphics6common5FRectEE6$valueE",
   "self_type" : "_ZTIN7android8internal7details13ToEmptyStringIN4aidl7android8hardware8graphics6common5FRectEE6$valueE",
   "size" : 4,
   "source_file" : "frameworks/native/libs/binder/ndk/include_cpp/android/binder_to_string.h",
   "underlying_type" : "_ZTIj"
  },
  {
   "alignment" : 4,
   "enum_fields" :
   [
    {
     "enum_field_value" : 0,
     "name" : "android::internal::details::ToEmptyString<aidl::android::hardware::graphics::common::Point>::value"
    }
   ],
   "linker_set_key" : "_ZTIN7android8internal7details13ToEmptyStringIN4aidl7android8hardware8graphics6common5PointEE6$valueE",
   "name" : "android::internal::details::ToEmptyString<aidl::android::hardware::graphics::common::Point>::(unnamed enum at frameworks/native/libs/binder/ndk/include_cpp/android/binder_to_string.h:153:5)",
   "referenced_type" : "_ZTIN7android8internal7details13ToEmptyStringIN4aidl7android8hardware8graphics6common5PointEE6$valueE",
   "self_type" : "_ZTIN7android8internal7details13ToEmptyStringIN4aidl7android8hardware8graphics6common5PointEE6$valueE",
   "size" : 4,
   "source_file" : "frameworks/native/libs/binder/ndk/include_cpp/android/binder_to_string.h",
   "underlying_type" : "_ZTIj"
  },
  {
   "alignment" : 4,
   "enum_fields" :
   [
    {
     "enum_field_value" : 0,
     "name" : "android::internal::details::ToEmptyString<aidl::android::hardware::graphics::common::BlendMode>::value"
    }
   ],
   "linker_set_key" : "_ZTIN7android8internal7details13ToEmptyStringIN4aidl7android8hardware8graphics6common9BlendModeEE6$valueE",
   "name" : "android::internal::details::ToEmptyString<aidl::android::hardware::graphics::common::BlendMode>::(unnamed enum at frameworks/native/libs/binder/ndk/include_cpp/android/binder_to_string.h:153:5)",
   "referenced_type" : "_ZTIN7android8internal7details13ToEmptyStringIN4aidl7android8hardware8graphics6common9BlendModeEE6$valueE",
   "self_type" : "_ZTIN7android8internal7details13ToEmptyStringIN4aidl7android8hardware8graphics6common9BlendModeEE6$valueE",
   "size" : 4,
   "source_file" : "frameworks/native/libs/binder/ndk/include_cpp/android/binder_to_string.h",
   "underlying_type" : "_ZTIj"
  },
  {
   "alignment" : 4,
   "enum_fields" :
   [
    {
     "enum_field_value" : 0,
     "name" : "android::internal::details::ToEmptyString<aidl::android::hardware::graphics::common::Dataspace>::value"
    }
   ],
   "linker_set_key" : "_ZTIN7android8internal7details13ToEmptyStringIN4aidl7android8hardware8graphics6common9DataspaceEE6$valueE",
   "name" : "android::internal::details::ToEmptyString<aidl::android::hardware::graphics::common::Dataspace>::(unnamed enum at frameworks/native/libs/binder/ndk/include_cpp/android/binder_to_string.h:153:5)",
   "referenced_type" : "_ZTIN7android8internal7details13ToEmptyStringIN4aidl7android8hardware8graphics6common9DataspaceEE6$valueE",
   "self_type" : "_ZTIN7android8internal7details13ToEmptyStringIN4aidl7android8hardware8graphics6common9DataspaceEE6$valueE",
   "size" : 4,
   "source_file" : "frameworks/native/libs/binder/ndk/include_cpp/android/binder_to_string.h",
   "underlying_type" : "_ZTIj"
  },
  {
   "alignment" : 4,
   "enum_fields" :
   [
    {
     "enum_field_value" : 0,
     "name" : "android::internal::details::ToEmptyString<aidl::android::hardware::graphics::common::Transform>::value"
    }
   ],
   "linker_set_key" : "_ZTIN7android8internal7details13ToEmptyStringIN4aidl7android8hardware8graphics6common9TransformEE6$valueE",
   "name" : "android::internal::details::ToEmptyString<aidl::android::hardware::graphics::common::Transform>::(unnamed enum at frameworks/native/libs/binder/ndk/include_cpp/android/binder_to_string.h:153:5)",
   "referenced_type" : "_ZTIN7android8internal7details13ToEmptyStringIN4aidl7android8hardware8graphics6common9TransformEE6$valueE",
   "self_type" : "_ZTIN7android8internal7details13ToEmptyStringIN4aidl7android8hardware8graphics6common9TransformEE6$valueE",
   "size" : 4,
   "source_file" : "frameworks/native/libs/binder/ndk/include_cpp/android/binder_to_string.h",
   "underlying_type" : "_ZTIj"
  },
  {
   "alignment" : 4,
   "enum_fields" :
   [
    {
     "enum_field_value" : 0,
     "name" : "android::internal::details::ToEmptyString<aidl::android::hardware::graphics::composer3::PlaneAlpha>::value"
    }
   ],
   "linker_set_key" : "_ZTIN7android8internal7details13ToEmptyStringIN4aidl7android8hardware8graphics9composer310PlaneAlphaEE6$valueE",
   "name" : "android::internal::details::ToEmptyString<aidl::android::hardware::graphics::composer3::PlaneAlpha>::(unnamed enum at frameworks/native/libs/binder/ndk/include_cpp/android/binder_to_string.h:153:5)",
   "referenced_type" : "_ZTIN7android8internal7details13ToEmptyStringIN4aidl7android8hardware8graphics9composer310PlaneAlphaEE6$valueE",
   "self_type" : "_ZTIN7android8internal7details13ToEmptyStringIN4aidl7android8hardware8graphics9composer310PlaneAlphaEE6$valueE",
   "size" : 4,
   "source_file" : "frameworks/native/libs/binder/ndk/include_cpp/android/binder_to_string.h",
   "underlying_type" : "_ZTIj"
  },
  {
   "alignment" : 4,
   "enum_fields" :
   [
    {
     "enum_field_value" : 0,
     "name" : "android::internal::details::ToEmptyString<aidl::android::hardware::graphics::composer3::Composition>::value"
    }
   ],
   "linker_set_key" : "_ZTIN7android8internal7details13ToEmptyStringIN4aidl7android8hardware8graphics9composer311CompositionEE6$valueE",
   "name" : "android::internal::details::ToEmptyString<aidl::android::hardware::graphics::composer3::Composition>::(unnamed enum at frameworks/native/libs/binder/ndk/include_cpp/android/binder_to_string.h:153:5)",
   "referenced_type" : "_ZTIN7android8internal7details13ToEmptyStringIN4aidl7android8hardware8graphics9composer311CompositionEE6$valueE",
   "self_type" : "_ZTIN7android8internal7details13ToEmptyStringIN4aidl7android8hardware8graphics9composer311CompositionEE6$valueE",
   "size" : 4,
   "source_file" : "frameworks/native/libs/binder/ndk/include_cpp/android/binder_to_string.h",
   "underlying_type" : "_ZTIj"
  },
  {
   "alignment" : 4,
   "enum_fields" :
   [
    {
     "enum_field_value" : 0,
     "name" : "android::internal::details::ToEmptyString<aidl::android::hardware::graphics::composer3::ClientTarget>::value"
    }
   ],
   "linker_set_key" : "_ZTIN7android8internal7details13ToEmptyStringIN4aidl7android8hardware8graphics9composer312ClientTargetEE6$valueE",
   "name" : "android::internal::details::ToEmptyString<aidl::android::hardware::graphics::composer3::ClientTarget>::(unnamed enum at frameworks/native/libs/binder/ndk/include_cpp/android/binder_to_string.h:153:5)",
   "referenced_type" : "_ZTIN7android8internal7details13ToEmptyStringIN4aidl7android8hardware8graphics9composer312ClientTargetEE6$valueE",
   "self_type" : "_ZTIN7android8internal7details13ToEmptyStringIN4aidl7android8hardware8graphics9composer312ClientTargetEE6$valueE",
   "size" : 4,
   "source_file" : "frameworks/native/libs/binder/ndk/include_cpp/android/binder_to_string.h",
   "underlying_type" : "_ZTIj"
  },
  {
   "alignment" : 4,
   "enum_fields" :
   [
    {
     "enum_field_value" : 0,
     "name" : "android::internal::details::ToEmptyString<aidl::android::hardware::graphics::composer3::CommandError>::value"
    }
   ],
   "linker_set_key" : "_ZTIN7android8internal7details13ToEmptyStringIN4aidl7android8hardware8graphics9composer312CommandErrorEE6$valueE",
   "name" : "android::internal::details::ToEmptyString<aidl::android::hardware::graphics::composer3::CommandError>::(unnamed enum at frameworks/native/libs/binder/ndk/include_cpp/android/binder_to_string.h:153:5)",
   "referenced_type" : "_ZTIN7android8internal7details13ToEmptyStringIN4aidl7android8hardware8graphics9composer312CommandErrorEE6$valueE",
   "self_type" : "_ZTIN7android8internal7details13ToEmptyStringIN4aidl7android8hardware8graphics9composer312CommandErrorEE6$valueE",
   "size" : 4,
   "source_file" : "frameworks/native/libs/binder/ndk/include_cpp/android/binder_to_string.h",
   "underlying_type" : "_ZTIj"
  },
  {
   "alignment" : 4,
   "enum_fields" :
   [
    {
     "enum_field_value" : 0,
     "name" : "android::internal::details::ToEmptyString<aidl::android::hardware::graphics::composer3::DimmingStage>::value"
    }
   ],
   "linker_set_key" : "_ZTIN7android8internal7details13ToEmptyStringIN4aidl7android8hardware8graphics9composer312DimmingStageEE6$valueE",
   "name" : "android::internal::details::ToEmptyString<aidl::android::hardware::graphics::composer3::DimmingStage>::(unnamed enum at frameworks/native/libs/binder/ndk/include_cpp/android/binder_to_string.h:153:5)",
   "referenced_type" : "_ZTIN7android8internal7details13ToEmptyStringIN4aidl7android8hardware8graphics9composer312DimmingStageEE6$valueE",
   "self_type" : "_ZTIN7android8internal7details13ToEmptyStringIN4aidl7android8hardware8graphics9composer312DimmingStageEE6$valueE",
   "size" : 4,
   "source_file" : "frameworks/native/libs/binder/ndk/include_cpp/android/binder_to_string.h",
   "underlying_type" : "_ZTIj"
  },
  {
   "alignment" : 4,
   "enum_fields" :
   [
    {
     "enum_field_value" : 0,
     "name" : "android::internal::details::ToEmptyString<aidl::android::hardware::graphics::composer3::LayerCommand>::value"
    }
   ],
   "linker_set_key" : "_ZTIN7android8internal7details13ToEmptyStringIN4aidl7android8hardware8graphics9composer312LayerCommandEE6$valueE",
   "name" : "android::internal::details::ToEmptyString<aidl::android::hardware::graphics::composer3::LayerCommand>::(unnamed enum at frameworks/native/libs/binder/ndk/include_cpp/android/binder_to_string.h:153:5)",
   "referenced_type" : "_ZTIN7android8internal7details13ToEmptyStringIN4aidl7android8hardware8graphics9composer312LayerCommandEE6$valueE",
   "self_type" : "_ZTIN7android8internal7details13ToEmptyStringIN4aidl7android8hardware8graphics9composer312LayerCommandEE6$valueE",
   "size" : 4,
   "source_file" : "frameworks/native/libs/binder/ndk/include_cpp/android/binder_to_string.h",
   "underlying_type" : "_ZTIj"
  },
  {
   "alignment" : 4,
   "enum_fields" :
   [
    {
     "enum_field_value" : 0,
     "name" : "android::internal::details::ToEmptyString<aidl::android::hardware::graphics::composer3::PresentFence>::value"
    }
   ],
   "linker_set_key" : "_ZTIN7android8internal7details13ToEmptyStringIN4aidl7android8hardware8graphics9composer312PresentFenceEE6$valueE",
   "name" : "android::internal::details::ToEmptyString<aidl::android::hardware::graphics::composer3::PresentFence>::(unnamed enum at frameworks/native/libs/binder/ndk/include_cpp/android/binder_to_string.h:153:5)",
   "referenced_type" : "_ZTIN7android8internal7details13ToEmptyStringIN4aidl7android8hardware8graphics9composer312PresentFenceEE6$valueE",
   "self_type" : "_ZTIN7android8internal7details13ToEmptyStringIN4aidl7android8hardware8graphics9composer312PresentFenceEE6$valueE",
   "size" : 4,
   "source_file" : "frameworks/native/libs/binder/ndk/include_cpp/android/binder_to_string.h",
   "underlying_type" : "_ZTIj"
  },
  {
   "alignment" : 4,
   "enum_fields" :
   [
    {
     "enum_field_value" : 0,
     "name" : "android::internal::details::ToEmptyString<aidl::android::hardware::graphics::composer3::ReleaseFences::Layer>::value"
    }
   ],
   "linker_set_key" : "_ZTIN7android8internal7details13ToEmptyStringIN4aidl7android8hardware8graphics9composer313ReleaseFences5LayerEE6$valueE",
   "name" : "android::internal::details::ToEmptyString<aidl::android::hardware::graphics::composer3::ReleaseFences::Layer>::(unnamed enum at frameworks/native/libs/binder/ndk/include_cpp/android/binder_to_string.h:153:5)",
   "referenced_type" : "_ZTIN7android8internal7details13ToEmptyStringIN4aidl7android8hardware8graphics9composer313ReleaseFences5LayerEE6$valueE",
   "self_type" : "_ZTIN7android8internal7details13ToEmptyStringIN4aidl7android8hardware8graphics9composer313ReleaseFences5LayerEE6$valueE",
   "size" : 4,
   "source_file" : "frameworks/native/libs/binder/ndk/include_cpp/android/binder_to_string.h",
   "underlying_type" : "_ZTIj"
  },
  {
   "alignment" : 4,
   "enum_fields" :
   [
    {
     "enum_field_value" : 0,
     "name" : "android::internal::details::ToEmptyString<aidl::android::hardware::graphics::composer3::ReleaseFences>::value"
    }
   ],
   "linker_set_key" : "_ZTIN7android8internal7details13ToEmptyStringIN4aidl7android8hardware8graphics9composer313ReleaseFencesEE6$valueE",
   "name" : "android::internal::details::ToEmptyString<aidl::android::hardware::graphics::composer3::ReleaseFences>::(unnamed enum at frameworks/native/libs/binder/ndk/include_cpp/android/binder_to_string.h:153:5)",
   "referenced_type" : "_ZTIN7android8internal7details13ToEmptyStringIN4aidl7android8hardware8graphics9composer313ReleaseFencesEE6$valueE",
   "self_type" : "_ZTIN7android8internal7details13ToEmptyStringIN4aidl7android8hardware8graphics9composer313ReleaseFencesEE6$valueE",
   "size" : 4,
   "source_file" : "frameworks/native/libs/binder/ndk/include_cpp/android/binder_to_string.h",
   "underlying_type" : "_ZTIj"
  },
  {
   "alignment" : 4,
   "enum_fields" :
   [
    {
     "enum_field_value" : 0,
     "name" : "android::internal::details::ToEmptyString<aidl::android::hardware::graphics::composer3::DisplayRequest::LayerRequest>::value"
    }
   ],
   "linker_set_key" : "_ZTIN7android8internal7details13ToEmptyStringIN4aidl7android8hardware8graphics9composer314DisplayRequest12LayerRequestEE6$valueE",
   "name" : "android::internal::details::ToEmptyString<aidl::android::hardware::graphics::composer3::DisplayRequest::LayerRequest>::(unnamed enum at frameworks/native/libs/binder/ndk/include_cpp/android/binder_to_string.h:153:5)",
   "referenced_type" : "_ZTIN7android8internal7details13ToEmptyStringIN4aidl7android8hardware8graphics9composer314DisplayRequest12LayerRequestEE6$valueE",
   "self_type" : "_ZTIN7android8internal7details13ToEmptyStringIN4aidl7android8hardware8graphics9composer314DisplayRequest12LayerRequestEE6$valueE",
   "size" : 4,
   "source_file" : "frameworks/native/libs/binder/ndk/include_cpp/android/binder_to_string.h",
   "underlying_type" : "_ZTIj"
  },
  {
   "alignment" : 4,
   "enum_fields" :
   [
    {
     "enum_field_value" : 0,
     "name" : "android::internal::details::ToEmptyString<aidl::android::hardware::graphics::composer3::DisplayRequest>::value"
    }
   ],
   "linker_set_key" : "_ZTIN7android8internal7details13ToEmptyStringIN4aidl7android8hardware8graphics9composer314DisplayRequestEE6$valueE",
   "name" : "android::internal::details::ToEmptyString<aidl::android::hardware::graphics::composer3::DisplayRequest>::(unnamed enum at frameworks/native/libs/binder/ndk/include_cpp/android/binder_to_string.h:153:5)",
   "referenced_type" : "_ZTIN7android8internal7details13ToEmptyStringIN4aidl7android8hardware8graphics9composer314DisplayRequestEE6$valueE",
   "self_type" : "_ZTIN7android8internal7details13ToEmptyStringIN4aidl7android8hardware8graphics9composer314DisplayRequestEE6$valueE",
   "size" : 4,
   "source_file" : "frameworks/native/libs/binder/ndk/include_cpp/android/binder_to_string.h",
   "underlying_type" : "_ZTIj"
  },
  {
   "alignment" : 4,
   "enum_fields" :
   [
    {
     "enum_field_value" : 0,
     "name" : "android::internal::details::ToEmptyString<aidl::android::hardware::graphics::composer3::LayerBrightness>::value"
    }
   ],
   "linker_set_key" : "_ZTIN7android8internal7details13ToEmptyStringIN4aidl7android8hardware8graphics9composer315LayerBrightnessEE6$valueE",
   "name" : "android::internal::details::ToEmptyString<aidl::android::hardware::graphics::composer3::LayerBrightness>::(unnamed enum at frameworks/native/libs/binder/ndk/include_cpp/android/binder_to_string.h:153:5)",
   "referenced_type" : "_ZTIN7android8internal7details13ToEmptyStringIN4aidl7android8hardware8graphics9composer315LayerBrightnessEE6$valueE",
   "self_type" : "_ZTIN7android8internal7details13ToEmptyStringIN4aidl7android8hardware8graphics9composer315LayerBrightnessEE6$valueE",
   "size" : 4,
   "source_file" : "frameworks/native/libs/binder/ndk/include_cpp/android/binder_to_string.h",
   "underlying_type" : "_ZTIj"
  },
  {
   "alignment" : 4,
   "enum_fields" :
   [
    {
     "enum_field_value" : 0,
     "name" : "android::internal::details::ToEmptyString<aidl::android::hardware::graphics::composer3::PerFrameMetadata>::value"
    }
   ],
   "linker_set_key" : "_ZTIN7android8internal7details13ToEmptyStringIN4aidl7android8hardware8graphics9composer316PerFrameMetadataEE6$valueE",
   "name" : "android::internal::details::ToEmptyString<aidl::android::hardware::graphics::composer3::PerFrameMetadata>::(unnamed enum at frameworks/native/libs/binder/ndk/include_cpp/android/binder_to_string.h:153:5)",
   "referenced_type" : "_ZTIN7android8internal7details13ToEmptyStringIN4aidl7android8hardware8graphics9composer316PerFrameMetadataEE6$valueE",
   "self_type" : "_ZTIN7android8internal7details13ToEmptyStringIN4aidl7android8hardware8graphics9composer316PerFrameMetadataEE6$valueE",
   "size" : 4,
   "source_file" : "frameworks/native/libs/binder/ndk/include_cpp/android/binder_to_string.h",
   "underlying_type" : "_ZTIj"
  },
  {
   "alignment" : 4,
   "enum_fields" :
   [
    {
     "enum_field_value" : 0,
     "name" : "android::internal::details::ToEmptyString<aidl::android::hardware::graphics::composer3::DisplayBrightness>::value"
    }
   ],
   "linker_set_key" : "_ZTIN7android8internal7details13ToEmptyStringIN4aidl7android8hardware8graphics9composer317DisplayBrightnessEE6$valueE",
   "name" : "android::internal::details::ToEmptyString<aidl::android::hardware::graphics::composer3::DisplayBrightness>::(unnamed enum at frameworks/native/libs/binder/ndk/include_cpp/android/binder_to_string.h:153:5)",
   "referenced_type" : "_ZTIN7android8internal7details13ToEmptyStringIN4aidl7android8hardware8graphics9composer317DisplayBrightnessEE6$valueE",
   "self_type" : "_ZTIN7android8internal7details13ToEmptyStringIN4aidl7android8hardware8graphics9composer317DisplayBrightnessEE6$valueE",
   "size" : 4,
   "source_file" : "frameworks/native/libs/binder/ndk/include_cpp/android/binder_to_string.h",
   "underlying_type" : "_ZTIj"
  },
  {
   "alignment" : 4,
   "enum_fields" :
   [
    {
     "enum_field_value" : 0,
     "name" : "android::internal::details::ToEmptyString<aidl::android::hardware::graphics::composer3::PresentOrValidate::Result>::value"
    }
   ],
   "linker_set_key" : "_ZTIN7android8internal7details13ToEmptyStringIN4aidl7android8hardware8graphics9composer317PresentOrValidate6ResultEE6$valueE",
   "name" : "android::internal::details::ToEmptyString<aidl::android::hardware::graphics::composer3::PresentOrValidate::Result>::(unnamed enum at frameworks/native/libs/binder/ndk/include_cpp/android/binder_to_string.h:153:5)",
   "referenced_type" : "_ZTIN7android8internal7details13ToEmptyStringIN4aidl7android8hardware8graphics9composer317PresentOrValidate6ResultEE6$valueE",
   "self_type" : "_ZTIN7android8internal7details13ToEmptyStringIN4aidl7android8hardware8graphics9composer317PresentOrValidate6ResultEE6$valueE",
   "size" : 4,
   "source_file" : "frameworks/native/libs/binder/ndk/include_cpp/android/binder_to_string.h",
   "underlying_type" : "_ZTIj"
  },
  {
   "alignment" : 4,
   "enum_fields" :
   [
    {
     "enum_field_value" : 0,
     "name" : "android::internal::details::ToEmptyString<aidl::android::hardware::graphics::composer3::PresentOrValidate>::value"
    }
   ],
   "linker_set_key" : "_ZTIN7android8internal7details13ToEmptyStringIN4aidl7android8hardware8graphics9composer317PresentOrValidateEE6$valueE",
   "name" : "android::internal::details::ToEmptyString<aidl::android::hardware::graphics::composer3::PresentOrValidate>::(unnamed enum at frameworks/native/libs/binder/ndk/include_cpp/android/binder_to_string.h:153:5)",
   "referenced_type" : "_ZTIN7android8internal7details13ToEmptyStringIN4aidl7android8hardware8graphics9composer317PresentOrValidateEE6$valueE",
   "self_type" : "_ZTIN7android8internal7details13ToEmptyStringIN4aidl7android8hardware8graphics9composer317PresentOrValidateEE6$valueE",
   "size" : 4,
   "source_file" : "frameworks/native/libs/binder/ndk/include_cpp/android/binder_to_string.h",
   "underlying_type" : "_ZTIj"
  },
  {
   "alignment" : 4,
   "enum_fields" :
   [
    {
     "enum_field_value" : 0,
     "name" : "android::internal::details::ToEmptyString<aidl::android::hardware::graphics::composer3::ParcelableBlendMode>::value"
    }
   ],
   "linker_set_key" : "_ZTIN7android8internal7details13ToEmptyStringIN4aidl7android8hardware8graphics9composer319ParcelableBlendModeEE6$valueE",
   "name" : "android::internal::details::ToEmptyString<aidl::android::hardware::graphics::composer3::ParcelableBlendMode>::(unnamed enum at frameworks/native/libs/binder/ndk/include_cpp/android/binder_to_string.h:153:5)",
   "referenced_type" : "_ZTIN7android8internal7details13ToEmptyStringIN4aidl7android8hardware8graphics9composer319ParcelableBlendModeEE6$valueE",
   "self_type" : "_ZTIN7android8internal7details13ToEmptyStringIN4aidl7android8hardware8graphics9composer319ParcelableBlendModeEE6$valueE",
   "size" : 4,
   "source_file" : "frameworks/native/libs/binder/ndk/include_cpp/android/binder_to_string.h",
   "underlying_type" : "_ZTIj"
  },
  {
   "alignment" : 4,
   "enum_fields" :
   [
    {
     "enum_field_value" : 0,
     "name" : "android::internal::details::ToEmptyString<aidl::android::hardware::graphics::composer3::ParcelableDataspace>::value"
    }
   ],
   "linker_set_key" : "_ZTIN7android8internal7details13ToEmptyStringIN4aidl7android8hardware8graphics9composer319ParcelableDataspaceEE6$valueE",
   "name" : "android::internal::details::ToEmptyString<aidl::android::hardware::graphics::composer3::ParcelableDataspace>::(unnamed enum at frameworks/native/libs/binder/ndk/include_cpp/android/binder_to_string.h:153:5)",
   "referenced_type" : "_ZTIN7android8internal7details13ToEmptyStringIN4aidl7android8hardware8graphics9composer319ParcelableDataspaceEE6$valueE",
   "self_type" : "_ZTIN7android8internal7details13ToEmptyStringIN4aidl7android8hardware8graphics9composer319ParcelableDataspaceEE6$valueE",
   "size" : 4,
   "source_file" : "frameworks/native/libs/binder/ndk/include_cpp/android/binder_to_string.h",
   "underlying_type" : "_ZTIj"
  },
  {
   "alignment" : 4,
   "enum_fields" :
   [
    {
     "enum_field_value" : 0,
     "name" : "android::internal::details::ToEmptyString<aidl::android::hardware::graphics::composer3::ParcelableTransform>::value"
    }
   ],
   "linker_set_key" : "_ZTIN7android8internal7details13ToEmptyStringIN4aidl7android8hardware8graphics9composer319ParcelableTransformEE6$valueE",
   "name" : "android::internal::details::ToEmptyString<aidl::android::hardware::graphics::composer3::ParcelableTransform>::(unnamed enum at frameworks/native/libs/binder/ndk/include_cpp/android/binder_to_string.h:153:5)",
   "referenced_type" : "_ZTIN7android8internal7details13ToEmptyStringIN4aidl7android8hardware8graphics9composer319ParcelableTransformEE6$valueE",
   "self_type" : "_ZTIN7android8internal7details13ToEmptyStringIN4aidl7android8hardware8graphics9composer319ParcelableTransformEE6$valueE",
   "size" : 4,
   "source_file" : "frameworks/native/libs/binder/ndk/include_cpp/android/binder_to_string.h",
   "underlying_type" : "_ZTIj"
  },
  {
   "alignment" : 4,
   "enum_fields" :
   [
    {
     "enum_field_value" : 0,
     "name" : "android::internal::details::ToEmptyString<aidl::android::hardware::graphics::composer3::PerFrameMetadataKey>::value"
    }
   ],
   "linker_set_key" : "_ZTIN7android8internal7details13ToEmptyStringIN4aidl7android8hardware8graphics9composer319PerFrameMetadataKeyEE6$valueE",
   "name" : "android::internal::details::ToEmptyString<aidl::android::hardware::graphics::composer3::PerFrameMetadataKey>::(unnamed enum at frameworks/native/libs/binder/ndk/include_cpp/android/binder_to_string.h:153:5)",
   "referenced_type" : "_ZTIN7android8internal7details13ToEmptyStringIN4aidl7android8hardware8graphics9composer319PerFrameMetadataKeyEE6$valueE",
   "self_type" : "_ZTIN7android8internal7details13ToEmptyStringIN4aidl7android8hardware8graphics9composer319PerFrameMetadataKeyEE6$valueE",
   "size" : 4,
   "source_file" : "frameworks/native/libs/binder/ndk/include_cpp/android/binder_to_string.h",
   "underlying_type" : "_ZTIj"
  },
  {
   "alignment" : 4,
   "enum_fields" :
   [
    {
     "enum_field_value" : 0,
     "name" : "android::internal::details::ToEmptyString<aidl::android::hardware::graphics::composer3::ClientTargetProperty>::value"
    }
   ],
   "linker_set_key" : "_ZTIN7android8internal7details13ToEmptyStringIN4aidl7android8hardware8graphics9composer320ClientTargetPropertyEE6$valueE",
   "name" : "android::internal::details::ToEmptyString<aidl::android::hardware::graphics::composer3::ClientTargetProperty>::(unnamed enum at frameworks/native/libs/binder/ndk/include_cpp/android/binder_to_string.h:153:5)",
   "referenced_type" : "_ZTIN7android8internal7details13ToEmptyStringIN4aidl7android8hardware8graphics9composer320ClientTargetPropertyEE6$valueE",
   "self_type" : "_ZTIN7android8internal7details13ToEmptyStringIN4aidl7android8hardware8graphics9composer320ClientTargetPropertyEE6$valueE",
   "size" : 4,
   "source_file" : "frameworks/native/libs/binder/ndk/include_cpp/android/binder_to_string.h",
   "underlying_type" : "_ZTIj"
  },
  {
   "alignment" : 4,
   "enum_fields" :
   [
    {
     "enum_field_value" : 0,
     "name" : "android::internal::details::ToEmptyString<aidl::android::hardware::graphics::composer3::FormatColorComponent>::value"
    }
   ],
   "linker_set_key" : "_ZTIN7android8internal7details13ToEmptyStringIN4aidl7android8hardware8graphics9composer320FormatColorComponentEE6$valueE",
   "name" : "android::internal::details::ToEmptyString<aidl::android::hardware::graphics::composer3::FormatColorComponent>::(unnamed enum at frameworks/native/libs/binder/ndk/include_cpp/android/binder_to_string.h:153:5)",
   "referenced_type" : "_ZTIN7android8internal7details13ToEmptyStringIN4aidl7android8hardware8graphics9composer320FormatColorComponentEE6$valueE",
   "self_type" : "_ZTIN7android8internal7details13ToEmptyStringIN4aidl7android8hardware8graphics9composer320FormatColorComponentEE6$valueE",
   "size" : 4,
   "source_file" : "frameworks/native/libs/binder/ndk/include_cpp/android/binder_to_string.h",
   "underlying_type" : "_ZTIj"
  },
  {
   "alignment" : 4,
   "enum_fields" :
   [
    {
     "enum_field_value" : 0,
     "name" : "android::internal::details::ToEmptyString<aidl::android::hardware::graphics::composer3::PerFrameMetadataBlob>::value"
    }
   ],
   "linker_set_key" : "_ZTIN7android8internal7details13ToEmptyStringIN4aidl7android8hardware8graphics9composer320PerFrameMetadataBlobEE6$valueE",
   "name" : "android::internal::details::ToEmptyString<aidl::android::hardware::graphics::composer3::PerFrameMetadataBlob>::(unnamed enum at frameworks/native/libs/binder/ndk/include_cpp/android/binder_to_string.h:153:5)",
   "referenced_type" : "_ZTIN7android8internal7details13ToEmptyStringIN4aidl7android8hardware8graphics9composer320PerFrameMetadataBlobEE6$valueE",
   "self_type" : "_ZTIN7android8internal7details13ToEmptyStringIN4aidl7android8hardware8graphics9composer320PerFrameMetadataBlobEE6$valueE",
   "size" : 4,
   "source_file" : "frameworks/native/libs/binder/ndk/include_cpp/android/binder_to_string.h",
   "underlying_type" : "_ZTIj"
  },
  {
   "alignment" : 4,
   "enum_fields" :
   [
    {
     "enum_field_value" : 0,
     "name" : "android::internal::details::ToEmptyString<aidl::android::hardware::graphics::composer3::ParcelableComposition>::value"
    }
   ],
   "linker_set_key" : "_ZTIN7android8internal7details13ToEmptyStringIN4aidl7android8hardware8graphics9composer321ParcelableCompositionEE6$valueE",
   "name" : "android::internal::details::ToEmptyString<aidl::android::hardware::graphics::composer3::ParcelableComposition>::(unnamed enum at frameworks/native/libs/binder/ndk/include_cpp/android/binder_to_string.h:153:5)",
   "referenced_type" : "_ZTIN7android8internal7details13ToEmptyStringIN4aidl7android8hardware8graphics9composer321ParcelableCompositionEE6$valueE",
   "self_type" : "_ZTIN7android8internal7details13ToEmptyStringIN4aidl7android8hardware8graphics9composer321ParcelableCompositionEE6$valueE",
   "size" : 4,
   "source_file" : "frameworks/native/libs/binder/ndk/include_cpp/android/binder_to_string.h",
   "underlying_type" : "_ZTIj"
  },
  {
   "alignment" : 4,
   "enum_fields" :
   [
    {
     "enum_field_value" : 0,
     "name" : "android::internal::details::ToEmptyString<aidl::android::hardware::graphics::composer3::ChangedCompositionLayer>::value"
    }
   ],
   "linker_set_key" : "_ZTIN7android8internal7details13ToEmptyStringIN4aidl7android8hardware8graphics9composer323ChangedCompositionLayerEE6$valueE",
   "name" : "android::internal::details::ToEmptyString<aidl::android::hardware::graphics::composer3::ChangedCompositionLayer>::(unnamed enum at frameworks/native/libs/binder/ndk/include_cpp/android/binder_to_string.h:153:5)",
   "referenced_type" : "_ZTIN7android8internal7details13ToEmptyStringIN4aidl7android8hardware8graphics9composer323ChangedCompositionLayerEE6$valueE",
   "self_type" : "_ZTIN7android8internal7details13ToEmptyStringIN4aidl7android8hardware8graphics9composer323ChangedCompositionLayerEE6$valueE",
   "size" : 4,
   "source_file" : "frameworks/native/libs/binder/ndk/include_cpp/android/binder_to_string.h",
   "underlying_type" : "_ZTIj"
  },
  {
   "alignment" : 4,
   "enum_fields" :
   [
    {
     "enum_field_value" : 0,
     "name" : "android::internal::details::ToEmptyString<aidl::android::hardware::graphics::composer3::ChangedCompositionTypes>::value"
    }
   ],
   "linker_set_key" : "_ZTIN7android8internal7details13ToEmptyStringIN4aidl7android8hardware8graphics9composer323ChangedCompositionTypesEE6$valueE",
   "name" : "android::internal::details::ToEmptyString<aidl::android::hardware::graphics::composer3::ChangedCompositionTypes>::(unnamed enum at frameworks/native/libs/binder/ndk/include_cpp/android/binder_to_string.h:153:5)",
   "referenced_type" : "_ZTIN7android8internal7details13ToEmptyStringIN4aidl7android8hardware8graphics9composer323ChangedCompositionTypesEE6$valueE",
   "self_type" : "_ZTIN7android8internal7details13ToEmptyStringIN4aidl7android8hardware8graphics9composer323ChangedCompositionTypesEE6$valueE",
   "size" : 4,
   "source_file" : "frameworks/native/libs/binder/ndk/include_cpp/android/binder_to_string.h",
   "underlying_type" : "_ZTIj"
  },
  {
   "alignment" : 4,
   "enum_fields" :
   [
    {
     "enum_field_value" : 0,
     "name" : "android::internal::details::ToEmptyString<aidl::android::hardware::graphics::composer3::ClockMonotonicTimestamp>::value"
    }
   ],
   "linker_set_key" : "_ZTIN7android8internal7details13ToEmptyStringIN4aidl7android8hardware8graphics9composer323ClockMonotonicTimestampEE6$valueE",
   "name" : "android::internal::details::ToEmptyString<aidl::android::hardware::graphics::composer3::ClockMonotonicTimestamp>::(unnamed enum at frameworks/native/libs/binder/ndk/include_cpp/android/binder_to_string.h:153:5)",
   "referenced_type" : "_ZTIN7android8internal7details13ToEmptyStringIN4aidl7android8hardware8graphics9composer323ClockMonotonicTimestampEE6$valueE",
   "self_type" : "_ZTIN7android8internal7details13ToEmptyStringIN4aidl7android8hardware8graphics9composer323ClockMonotonicTimestampEE6$valueE",
   "size" : 4,
   "source_file" : "frameworks/native/libs/binder/ndk/include_cpp/android/binder_to_string.h",
   "underlying_type" : "_ZTIj"
  },
  {
   "alignment" : 4,
   "enum_fields" :
   [
    {
     "enum_field_value" : 0,
     "name" : "android::internal::details::ToEmptyString<aidl::android::hardware::graphics::composer3::ClientTargetPropertyWithBrightness>::value"
    }
   ],
   "linker_set_key" : "_ZTIN7android8internal7details13ToEmptyStringIN4aidl7android8hardware8graphics9composer334ClientTargetPropertyWithBrightnessEE6$valueE",
   "name" : "android::internal::details::ToEmptyString<aidl::android::hardware::graphics::composer3::ClientTargetPropertyWithBrightness>::(unnamed enum at frameworks/native/libs/binder/ndk/include_cpp/android/binder_to_string.h:153:5)",
   "referenced_type" : "_ZTIN7android8internal7details13ToEmptyStringIN4aidl7android8hardware8graphics9composer334ClientTargetPropertyWithBrightnessEE6$valueE",
   "self_type" : "_ZTIN7android8internal7details13ToEmptyStringIN4aidl7android8hardware8graphics9composer334ClientTargetPropertyWithBrightnessEE6$valueE",
   "size" : 4,
   "source_file" : "frameworks/native/libs/binder/ndk/include_cpp/android/binder_to_string.h",
   "underlying_type" : "_ZTIj"
  },
  {
   "alignment" : 4,
   "enum_fields" :
   [
    {
     "enum_field_value" : 0,
     "name" : "android::internal::details::ToEmptyString<aidl::android::hardware::graphics::composer3::Color>::value"
    }
   ],
   "linker_set_key" : "_ZTIN7android8internal7details13ToEmptyStringIN4aidl7android8hardware8graphics9composer35ColorEE6$valueE",
   "name" : "android::internal::details::ToEmptyString<aidl::android::hardware::graphics::composer3::Color>::(unnamed enum at frameworks/native/libs/binder/ndk/include_cpp/android/binder_to_string.h:153:5)",
   "referenced_type" : "_ZTIN7android8internal7details13ToEmptyStringIN4aidl7android8hardware8graphics9composer35ColorEE6$valueE",
   "self_type" : "_ZTIN7android8internal7details13ToEmptyStringIN4aidl7android8hardware8graphics9composer35ColorEE6$valueE",
   "size" : 4,
   "source_file" : "frameworks/native/libs/binder/ndk/include_cpp/android/binder_to_string.h",
   "underlying_type" : "_ZTIj"
  },
  {
   "alignment" : 4,
   "enum_fields" :
   [
    {
     "enum_field_value" : 0,
     "name" : "android::internal::details::ToEmptyString<aidl::android::hardware::graphics::composer3::Buffer>::value"
    }
   ],
   "linker_set_key" : "_ZTIN7android8internal7details13ToEmptyStringIN4aidl7android8hardware8graphics9composer36BufferEE6$valueE",
   "name" : "android::internal::details::ToEmptyString<aidl::android::hardware::graphics::composer3::Buffer>::(unnamed enum at frameworks/native/libs/binder/ndk/include_cpp/android/binder_to_string.h:153:5)",
   "referenced_type" : "_ZTIN7android8internal7details13ToEmptyStringIN4aidl7android8hardware8graphics9composer36BufferEE6$valueE",
   "self_type" : "_ZTIN7android8internal7details13ToEmptyStringIN4aidl7android8hardware8graphics9composer36BufferEE6$valueE",
   "size" : 4,
   "source_file" : "frameworks/native/libs/binder/ndk/include_cpp/android/binder_to_string.h",
   "underlying_type" : "_ZTIj"
  },
  {
   "alignment" : 4,
   "enum_fields" :
   [
    {
     "enum_field_value" : 0,
     "name" : "android::internal::details::ToEmptyString<aidl::android::hardware::graphics::composer3::ZOrder>::value"
    }
   ],
   "linker_set_key" : "_ZTIN7android8internal7details13ToEmptyStringIN4aidl7android8hardware8graphics9composer36ZOrderEE6$valueE",
   "name" : "android::internal::details::ToEmptyString<aidl::android::hardware::graphics::composer3::ZOrder>::(unnamed enum at frameworks/native/libs/binder/ndk/include_cpp/android/binder_to_string.h:153:5)",
   "referenced_type" : "_ZTIN7android8internal7details13ToEmptyStringIN4aidl7android8hardware8graphics9composer36ZOrderEE6$valueE",
   "self_type" : "_ZTIN7android8internal7details13ToEmptyStringIN4aidl7android8hardware8graphics9composer36ZOrderEE6$valueE",
   "size" : 4,
   "source_file" : "frameworks/native/libs/binder/ndk/include_cpp/android/binder_to_string.h",
   "underlying_type" : "_ZTIj"
  },
  {
   "alignment" : 4,
   "enum_fields" :
   [
    {
     "enum_field_value" : 0,
     "name" : "android::internal::details::ToEmptyString<std::vector<ndk::ScopedFileDescriptor>>::value"
    }
   ],
   "linker_set_key" : "_ZTIN7android8internal7details13ToEmptyStringINSt3__16vectorIN3ndk20ScopedFileDescriptorENS3_9allocatorIS6_EEEEE6$valueE",
   "name" : "android::internal::details::ToEmptyString<std::vector<ndk::ScopedFileDescriptor, std::allocator<ndk::ScopedFileDescriptor>>>::(unnamed enum at frameworks/native/libs/binder/ndk/include_cpp/android/binder_to_string.h:153:5)",
   "referenced_type" : "_ZTIN7android8internal7details13ToEmptyStringINSt3__16vectorIN3ndk20ScopedFileDescriptorENS3_9allocatorIS6_EEEEE6$valueE",
   "self_type" : "_ZTIN7android8internal7details13ToEmptyStringINSt3__16vectorIN3ndk20ScopedFileDescriptorENS3_9allocatorIS6_EEEEE6$valueE",
   "size" : 4,
   "source_file" : "frameworks/native/libs/binder/ndk/include_cpp/android/binder_to_string.h",
   "underlying_type" : "_ZTIj"
  },
  {
   "alignment" : 4,
   "enum_fields" :
   [
    {
     "enum_field_value" : 0,
     "name" : "android::internal::details::ToEmptyString<std::vector<aidl::android::hardware::graphics::common::Hdr>>::value"
    }
   ],
   "linker_set_key" : "_ZTIN7android8internal7details13ToEmptyStringINSt3__16vectorIN4aidl7android8hardware8graphics6common3HdrENS3_9allocatorISA_EEEEE6$valueE",
   "name" : "android::internal::details::ToEmptyString<std::vector<aidl::android::hardware::graphics::common::Hdr, std::allocator<aidl::android::hardware::graphics::common::Hdr>>>::(unnamed enum at frameworks/native/libs/binder/ndk/include_cpp/android/binder_to_string.h:153:5)",
   "referenced_type" : "_ZTIN7android8internal7details13ToEmptyStringINSt3__16vectorIN4aidl7android8hardware8graphics6common3HdrENS3_9allocatorISA_EEEEE6$valueE",
   "self_type" : "_ZTIN7android8internal7details13ToEmptyStringINSt3__16vectorIN4aidl7android8hardware8graphics6common3HdrENS3_9allocatorISA_EEEEE6$valueE",
   "size" : 4,
   "source_file" : "frameworks/native/libs/binder/ndk/include_cpp/android/binder_to_string.h",
   "underlying_type" : "_ZTIj"
  },
  {
   "alignment" : 4,
   "enum_fields" :
   [
    {
     "enum_field_value" : 0,
     "name" : "android::internal::details::ToEmptyString<std::vector<aidl::android::hardware::graphics::common::Rect>>::value"
    }
   ],
   "linker_set_key" : "_ZTIN7android8internal7details13ToEmptyStringINSt3__16vectorIN4aidl7android8hardware8graphics6common4RectENS3_9allocatorISA_EEEEE6$valueE",
   "name" : "android::internal::details::ToEmptyString<std::vector<aidl::android::hardware::graphics::common::Rect, std::allocator<aidl::android::hardware::graphics::common::Rect>>>::(unnamed enum at frameworks/native/libs/binder/ndk/include_cpp/android/binder_to_string.h:153:5)",
   "referenced_type" : "_ZTIN7android8internal7details13ToEmptyStringINSt3__16vectorIN4aidl7android8hardware8graphics6common4RectENS3_9allocatorISA_EEEEE6$valueE",
   "self_type" : "_ZTIN7android8internal7details13ToEmptyStringINSt3__16vectorIN4aidl7android8hardware8graphics6common4RectENS3_9allocatorISA_EEEEE6$valueE",
   "size" : 4,
   "source_file" : "frameworks/native/libs/binder/ndk/include_cpp/android/binder_to_string.h",
   "underlying_type" : "_ZTIj"
  },
  {
   "alignment" : 4,
   "enum_fields" :
   [
    {
     "enum_field_value" : 0,
     "name" : "android::internal::details::ToEmptyString<std::vector<aidl::android::hardware::graphics::composer3::LayerCommand>>::value"
    }
   ],
   "linker_set_key" : "_ZTIN7android8internal7details13ToEmptyStringINSt3__16vectorIN4aidl7android8hardware8graphics9composer312LayerCommandENS3_9allocatorISA_EEEEE6$valueE",
   "name" : "android::internal::details::ToEmptyString<std::vector<aidl::android::hardware::graphics::composer3::LayerCommand, std::allocator<aidl::android::hardware::graphics::composer3::LayerCommand>>>::(unnamed enum at frameworks/native/libs/binder/ndk/include_cpp/android/binder_to_string.h:153:5)",
   "referenced_type" : "_ZTIN7android8internal7details13ToEmptyStringINSt3__16vectorIN4aidl7android8hardware8graphics9composer312LayerCommandENS3_9allocatorISA_EEEEE6$valueE",
   "self_type" : "_ZTIN7android8internal7details13ToEmptyStringINSt3__16vectorIN4aidl7android8hardware8graphics9composer312LayerCommandENS3_9allocatorISA_EEEEE6$valueE",
   "size" : 4,
   "source_file" : "frameworks/native/libs/binder/ndk/include_cpp/android/binder_to_string.h",
   "underlying_type" : "_ZTIj"
  },
  {
   "alignment" : 4,
   "enum_fields" :
   [
    {
     "enum_field_value" : 0,
     "name" : "android::internal::details::ToEmptyString<std::vector<aidl::android::hardware::graphics::composer3::ReleaseFences::Layer>>::value"
    }
   ],
   "linker_set_key" : "_ZTIN7android8internal7details13ToEmptyStringINSt3__16vectorIN4aidl7android8hardware8graphics9composer313ReleaseFences5LayerENS3_9allocatorISB_EEEEE6$valueE",
   "name" : "android::internal::details::ToEmptyString<std::vector<aidl::android::hardware::graphics::composer3::ReleaseFences::Layer, std::allocator<aidl::android::hardware::graphics::composer3::ReleaseFences::Layer>>>::(unnamed enum at frameworks/native/libs/binder/ndk/include_cpp/android/binder_to_string.h:153:5)",
   "referenced_type" : "_ZTIN7android8internal7details13ToEmptyStringINSt3__16vectorIN4aidl7android8hardware8graphics9composer313ReleaseFences5LayerENS3_9allocatorISB_EEEEE6$valueE",
   "self_type" : "_ZTIN7android8internal7details13ToEmptyStringINSt3__16vectorIN4aidl7android8hardware8graphics9composer313ReleaseFences5LayerENS3_9allocatorISB_EEEEE6$valueE",
   "size" : 4,
   "source_file" : "frameworks/native/libs/binder/ndk/include_cpp/android/binder_to_string.h",
   "underlying_type" : "_ZTIj"
  },
  {
   "alignment" : 4,
   "enum_fields" :
   [
    {
     "enum_field_value" : 0,
     "name" : "android::internal::details::ToEmptyString<std::vector<aidl::android::hardware::graphics::composer3::DisplayRequest::LayerRequest>>::value"
    }
   ],
   "linker_set_key" : "_ZTIN7android8internal7details13ToEmptyStringINSt3__16vectorIN4aidl7android8hardware8graphics9composer314DisplayRequest12LayerRequestENS3_9allocatorISB_EEEEE6$valueE",
   "name" : "android::internal::details::ToEmptyString<std::vector<aidl::android::hardware::graphics::composer3::DisplayRequest::LayerRequest, std::allocator<aidl::android::hardware::graphics::composer3::DisplayRequest::LayerRequest>>>::(unnamed enum at frameworks/native/libs/binder/ndk/include_cpp/android/binder_to_string.h:153:5)",
   "referenced_type" : "_ZTIN7android8internal7details13ToEmptyStringINSt3__16vectorIN4aidl7android8hardware8graphics9composer314DisplayRequest12LayerRequestENS3_9allocatorISB_EEEEE6$valueE",
   "self_type" : "_ZTIN7android8internal7details13ToEmptyStringINSt3__16vectorIN4aidl7android8hardware8graphics9composer314DisplayRequest12LayerRequestENS3_9allocatorISB_EEEEE6$valueE",
   "size" : 4,
   "source_file" : "frameworks/native/libs/binder/ndk/include_cpp/android/binder_to_string.h",
   "underlying_type" : "_ZTIj"
  },
  {
   "alignment" : 4,
   "enum_fields" :
   [
    {
     "enum_field_value" : 0,
     "name" : "android::internal::details::ToEmptyString<std::vector<aidl::android::hardware::graphics::composer3::ChangedCompositionLayer>>::value"
    }
   ],
   "linker_set_key" : "_ZTIN7android8internal7details13ToEmptyStringINSt3__16vectorIN4aidl7android8hardware8graphics9composer323ChangedCompositionLayerENS3_9allocatorISA_EEEEE6$valueE",
   "name" : "android::internal::details::ToEmptyString<std::vector<aidl::android::hardware::graphics::composer3::ChangedCompositionLayer, std::allocator<aidl::android::hardware::graphics::composer3::ChangedCompositionLayer>>>::(unnamed enum at frameworks/native/libs/binder/ndk/include_cpp/android/binder_to_string.h:153:5)",
   "referenced_type" : "_ZTIN7android8internal7details13ToEmptyStringINSt3__16vectorIN4aidl7android8hardware8graphics9composer323ChangedCompositionLayerENS3_9allocatorISA_EEEEE6$valueE",
   "self_type" : "_ZTIN7android8internal7details13ToEmptyStringINSt3__16vectorIN4aidl7android8hardware8graphics9composer323ChangedCompositionLayerENS3_9allocatorISA_EEEEE6$valueE",
   "size" : 4,
   "source_file" : "frameworks/native/libs/binder/ndk/include_cpp/android/binder_to_string.h",
   "underlying_type" : "_ZTIj"
  },
  {
   "alignment" : 4,
   "enum_fields" :
   [
    {
     "enum_field_value" : 0,
     "name" : "android::internal::details::ToEmptyString<std::vector<std::optional<aidl::android::hardware::graphics::common::Rect>>>::value"
    }
   ],
   "linker_set_key" : "_ZTIN7android8internal7details13ToEmptyStringINSt3__16vectorINS3_8optionalIN4aidl7android8hardware8graphics6common4RectEEENS3_9allocatorISC_EEEEE6$valueE",
   "name" : "android::internal::details::ToEmptyString<std::vector<std::optional<aidl::android::hardware::graphics::common::Rect>, std::allocator<std::optional<aidl::android::hardware::graphics::common::Rect>>>>::(unnamed enum at frameworks/native/libs/binder/ndk/include_cpp/android/binder_to_string.h:153:5)",
   "referenced_type" : "_ZTIN7android8internal7details13ToEmptyStringINSt3__16vectorINS3_8optionalIN4aidl7android8hardware8graphics6common4RectEEENS3_9allocatorISC_EEEEE6$valueE",
   "self_type" : "_ZTIN7android8internal7details13ToEmptyStringINSt3__16vectorINS3_8optionalIN4aidl7android8hardware8graphics6common4RectEEENS3_9allocatorISC_EEEEE6$valueE",
   "size" : 4,
   "source_file" : "frameworks/native/libs/binder/ndk/include_cpp/android/binder_to_string.h",
   "underlying_type" : "_ZTIj"
  },
  {
   "alignment" : 4,
   "enum_fields" :
   [
    {
     "enum_field_value" : 0,
     "name" : "android::internal::details::ToEmptyString<std::vector<std::optional<aidl::android::hardware::graphics::composer3::PerFrameMetadata>>>::value"
    }
   ],
   "linker_set_key" : "_ZTIN7android8internal7details13ToEmptyStringINSt3__16vectorINS3_8optionalIN4aidl7android8hardware8graphics9composer316PerFrameMetadataEEENS3_9allocatorISC_EEEEE6$valueE",
   "name" : "android::internal::details::ToEmptyString<std::vector<std::optional<aidl::android::hardware::graphics::composer3::PerFrameMetadata>, std::allocator<std::optional<aidl::android::hardware::graphics::composer3::PerFrameMetadata>>>>::(unnamed enum at frameworks/native/libs/binder/ndk/include_cpp/android/binder_to_string.h:153:5)",
   "referenced_type" : "_ZTIN7android8internal7details13ToEmptyStringINSt3__16vectorINS3_8optionalIN4aidl7android8hardware8graphics9composer316PerFrameMetadataEEENS3_9allocatorISC_EEEEE6$valueE",
   "self_type" : "_ZTIN7android8internal7details13ToEmptyStringINSt3__16vectorINS3_8optionalIN4aidl7android8hardware8graphics9composer316PerFrameMetadataEEENS3_9allocatorISC_EEEEE6$valueE",
   "size" : 4,
   "source_file" : "frameworks/native/libs/binder/ndk/include_cpp/android/binder_to_string.h",
   "underlying_type" : "_ZTIj"
  },
  {
   "alignment" : 4,
   "enum_fields" :
   [
    {
     "enum_field_value" : 0,
     "name" : "android::internal::details::ToEmptyString<std::vector<std::optional<aidl::android::hardware::graphics::composer3::PerFrameMetadataBlob>>>::value"
    }
   ],
   "linker_set_key" : "_ZTIN7android8internal7details13ToEmptyStringINSt3__16vectorINS3_8optionalIN4aidl7android8hardware8graphics9composer320PerFrameMetadataBlobEEENS3_9allocatorISC_EEEEE6$valueE",
   "name" : "android::internal::details::ToEmptyString<std::vector<std::optional<aidl::android::hardware::graphics::composer3::PerFrameMetadataBlob>, std::allocator<std::optional<aidl::android::hardware::graphics::composer3::PerFrameMetadataBlob>>>>::(unnamed enum at frameworks/native/libs/binder/ndk/include_cpp/android/binder_to_string.h:153:5)",
   "referenced_type" : "_ZTIN7android8internal7details13ToEmptyStringINSt3__16vectorINS3_8optionalIN4aidl7android8hardware8graphics9composer320PerFrameMetadataBlobEEENS3_9allocatorISC_EEEEE6$valueE",
   "self_type" : "_ZTIN7android8internal7details13ToEmptyStringINSt3__16vectorINS3_8optionalIN4aidl7android8hardware8graphics9composer320PerFrameMetadataBlobEEENS3_9allocatorISC_EEEEE6$valueE",
   "size" : 4,
   "source_file" : "frameworks/native/libs/binder/ndk/include_cpp/android/binder_to_string.h",
   "underlying_type" : "_ZTIj"
  },
  {
   "alignment" : 4,
   "enum_fields" :
   [
    {
     "enum_field_value" : 0,
     "name" : "android::internal::details::ToEmptyString<std::vector<float>>::value"
    }
   ],
   "linker_set_key" : "_ZTIN7android8internal7details13ToEmptyStringINSt3__16vectorIfNS3_9allocatorIfEEEEE6$valueE",
   "name" : "android::internal::details::ToEmptyString<std::vector<float, std::allocator<float>>>::(unnamed enum at frameworks/native/libs/binder/ndk/include_cpp/android/binder_to_string.h:153:5)",
   "referenced_type" : "_ZTIN7android8internal7details13ToEmptyStringINSt3__16vectorIfNS3_9allocatorIfEEEEE6$valueE",
   "self_type" : "_ZTIN7android8internal7details13ToEmptyStringINSt3__16vectorIfNS3_9allocatorIfEEEEE6$valueE",
   "size" : 4,
   "source_file" : "frameworks/native/libs/binder/ndk/include_cpp/android/binder_to_string.h",
   "underlying_type" : "_ZTIj"
  },
  {
   "alignment" : 4,
   "enum_fields" :
   [
    {
     "enum_field_value" : 0,
     "name" : "android::internal::details::ToEmptyString<std::vector<unsigned char>>::value"
    }
   ],
   "linker_set_key" : "_ZTIN7android8internal7details13ToEmptyStringINSt3__16vectorIhNS3_9allocatorIhEEEEE6$valueE",
   "name" : "android::internal::details::ToEmptyString<std::vector<unsigned char, std::allocator<unsigned char>>>::(unnamed enum at frameworks/native/libs/binder/ndk/include_cpp/android/binder_to_string.h:153:5)",
   "referenced_type" : "_ZTIN7android8internal7details13ToEmptyStringINSt3__16vectorIhNS3_9allocatorIhEEEEE6$valueE",
   "self_type" : "_ZTIN7android8internal7details13ToEmptyStringINSt3__16vectorIhNS3_9allocatorIhEEEEE6$valueE",
   "size" : 4,
   "source_file" : "frameworks/native/libs/binder/ndk/include_cpp/android/binder_to_string.h",
   "underlying_type" : "_ZTIj"
  },
  {
   "alignment" : 4,
   "enum_fields" :
   [
    {
     "enum_field_value" : 0,
     "name" : "android::internal::details::ToEmptyString<std::vector<int>>::value"
    }
   ],
   "linker_set_key" : "_ZTIN7android8internal7details13ToEmptyStringINSt3__16vectorIiNS3_9allocatorIiEEEEE6$valueE",
   "name" : "android::internal::details::ToEmptyString<std::vector<int, std::allocator<int>>>::(unnamed enum at frameworks/native/libs/binder/ndk/include_cpp/android/binder_to_string.h:153:5)",
   "referenced_type" : "_ZTIN7android8internal7details13ToEmptyStringINSt3__16vectorIiNS3_9allocatorIiEEEEE6$valueE",
   "self_type" : "_ZTIN7android8internal7details13ToEmptyStringINSt3__16vectorIiNS3_9allocatorIiEEEEE6$valueE",
   "size" : 4,
   "source_file" : "frameworks/native/libs/binder/ndk/include_cpp/android/binder_to_string.h",
   "underlying_type" : "_ZTIj"
  },
  {
   "alignment" : 4,
   "enum_fields" :
   [
    {
     "enum_field_value" : 0,
     "name" : "android::internal::details::ToEmptyString<std::vector<long long>>::value"
    }
   ],
   "linker_set_key" : "_ZTIN7android8internal7details13ToEmptyStringINSt3__16vectorIxNS3_9allocatorIxEEEEE6$valueE",
   "name" : "android::internal::details::ToEmptyString<std::vector<long long, std::allocator<long long>>>::(unnamed enum at frameworks/native/libs/binder/ndk/include_cpp/android/binder_to_string.h:153:5)",
   "referenced_type" : "_ZTIN7android8internal7details13ToEmptyStringINSt3__16vectorIxNS3_9allocatorIxEEEEE6$valueE",
   "self_type" : "_ZTIN7android8internal7details13ToEmptyStringINSt3__16vectorIxNS3_9allocatorIxEEEEE6$valueE",
   "size" : 4,
   "source_file" : "frameworks/native/libs/binder/ndk/include_cpp/android/binder_to_string.h",
   "underlying_type" : "_ZTIj"
  },
  {
   "alignment" : 4,
   "enum_fields" :
   [
    {
     "enum_field_value" : 0,
     "name" : "android::internal::details::ToEmptyString<std::optional<aidl::android::hardware::common::NativeHandle>>::value"
    }
   ],
   "linker_set_key" : "_ZTIN7android8internal7details13ToEmptyStringINSt3__18optionalIN4aidl7android8hardware6common12NativeHandleEEEE6$valueE",
   "name" : "android::internal::details::ToEmptyString<std::optional<aidl::android::hardware::common::NativeHandle>>::(unnamed enum at frameworks/native/libs/binder/ndk/include_cpp/android/binder_to_string.h:153:5)",
   "referenced_type" : "_ZTIN7android8internal7details13ToEmptyStringINSt3__18optionalIN4aidl7android8hardware6common12NativeHandleEEEE6$valueE",
   "self_type" : "_ZTIN7android8internal7details13ToEmptyStringINSt3__18optionalIN4aidl7android8hardware6common12NativeHandleEEEE6$valueE",
   "size" : 4,
   "source_file" : "frameworks/native/libs/binder/ndk/include_cpp/android/binder_to_string.h",
   "underlying_type" : "_ZTIj"
  },
  {
   "alignment" : 4,
   "enum_fields" :
   [
    {
     "enum_field_value" : 0,
     "name" : "android::internal::details::ToEmptyString<std::optional<aidl::android::hardware::graphics::common::Rect>>::value"
    }
   ],
   "linker_set_key" : "_ZTIN7android8internal7details13ToEmptyStringINSt3__18optionalIN4aidl7android8hardware8graphics6common4RectEEEE6$valueE",
   "name" : "android::internal::details::ToEmptyString<std::optional<aidl::android::hardware::graphics::common::Rect>>::(unnamed enum at frameworks/native/libs/binder/ndk/include_cpp/android/binder_to_string.h:153:5)",
   "referenced_type" : "_ZTIN7android8internal7details13ToEmptyStringINSt3__18optionalIN4aidl7android8hardware8graphics6common4RectEEEE6$valueE",
   "self_type" : "_ZTIN7android8internal7details13ToEmptyStringINSt3__18optionalIN4aidl7android8hardware8graphics6common4RectEEEE6$valueE",
   "size" : 4,
   "source_file" : "frameworks/native/libs/binder/ndk/include_cpp/android/binder_to_string.h",
   "underlying_type" : "_ZTIj"
  },
  {
   "alignment" : 4,
   "enum_fields" :
   [
    {
     "enum_field_value" : 0,
     "name" : "android::internal::details::ToEmptyString<std::optional<aidl::android::hardware::graphics::common::FRect>>::value"
    }
   ],
   "linker_set_key" : "_ZTIN7android8internal7details13ToEmptyStringINSt3__18optionalIN4aidl7android8hardware8graphics6common5FRectEEEE6$valueE",
   "name" : "android::internal::details::ToEmptyString<std::optional<aidl::android::hardware::graphics::common::FRect>>::(unnamed enum at frameworks/native/libs/binder/ndk/include_cpp/android/binder_to_string.h:153:5)",
   "referenced_type" : "_ZTIN7android8internal7details13ToEmptyStringINSt3__18optionalIN4aidl7android8hardware8graphics6common5FRectEEEE6$valueE",
   "self_type" : "_ZTIN7android8internal7details13ToEmptyStringINSt3__18optionalIN4aidl7android8hardware8graphics6common5FRectEEEE6$valueE",
   "size" : 4,
   "source_file" : "frameworks/native/libs/binder/ndk/include_cpp/android/binder_to_string.h",
   "underlying_type" : "_ZTIj"
  },
  {
   "alignment" : 4,
   "enum_fields" :
   [
    {
     "enum_field_value" : 0,
     "name" : "android::internal::details::ToEmptyString<std::optional<aidl::android::hardware::graphics::common::Point>>::value"
    }
   ],
   "linker_set_key" : "_ZTIN7android8internal7details13ToEmptyStringINSt3__18optionalIN4aidl7android8hardware8graphics6common5PointEEEE6$valueE",
   "name" : "android::internal::details::ToEmptyString<std::optional<aidl::android::hardware::graphics::common::Point>>::(unnamed enum at frameworks/native/libs/binder/ndk/include_cpp/android/binder_to_string.h:153:5)",
   "referenced_type" : "_ZTIN7android8internal7details13ToEmptyStringINSt3__18optionalIN4aidl7android8hardware8graphics6common5PointEEEE6$valueE",
   "self_type" : "_ZTIN7android8internal7details13ToEmptyStringINSt3__18optionalIN4aidl7android8hardware8graphics6common5PointEEEE6$valueE",
   "size" : 4,
   "source_file" : "frameworks/native/libs/binder/ndk/include_cpp/android/binder_to_string.h",
   "underlying_type" : "_ZTIj"
  },
  {
   "alignment" : 4,
   "enum_fields" :
   [
    {
     "enum_field_value" : 0,
     "name" : "android::internal::details::ToEmptyString<std::optional<aidl::android::hardware::graphics::composer3::PlaneAlpha>>::value"
    }
   ],
   "linker_set_key" : "_ZTIN7android8internal7details13ToEmptyStringINSt3__18optionalIN4aidl7android8hardware8graphics9composer310PlaneAlphaEEEE6$valueE",
   "name" : "android::internal::details::ToEmptyString<std::optional<aidl::android::hardware::graphics::composer3::PlaneAlpha>>::(unnamed enum at frameworks/native/libs/binder/ndk/include_cpp/android/binder_to_string.h:153:5)",
   "referenced_type" : "_ZTIN7android8internal7details13ToEmptyStringINSt3__18optionalIN4aidl7android8hardware8graphics9composer310PlaneAlphaEEEE6$valueE",
   "self_type" : "_ZTIN7android8internal7details13ToEmptyStringINSt3__18optionalIN4aidl7android8hardware8graphics9composer310PlaneAlphaEEEE6$valueE",
   "size" : 4,
   "source_file" : "frameworks/native/libs/binder/ndk/include_cpp/android/binder_to_string.h",
   "underlying_type" : "_ZTIj"
  },
  {
   "alignment" : 4,
   "enum_fields" :
   [
    {
     "enum_field_value" : 0,
     "name" : "android::internal::details::ToEmptyString<std::optional<aidl::android::hardware::graphics::composer3::ClientTarget>>::value"
    }
   ],
   "linker_set_key" : "_ZTIN7android8internal7details13ToEmptyStringINSt3__18optionalIN4aidl7android8hardware8graphics9composer312ClientTargetEEEE6$valueE",
   "name" : "android::internal::details::ToEmptyString<std::optional<aidl::android::hardware::graphics::composer3::ClientTarget>>::(unnamed enum at frameworks/native/libs/binder/ndk/include_cpp/android/binder_to_string.h:153:5)",
   "referenced_type" : "_ZTIN7android8internal7details13ToEmptyStringINSt3__18optionalIN4aidl7android8hardware8graphics9composer312ClientTargetEEEE6$valueE",
   "self_type" : "_ZTIN7android8internal7details13ToEmptyStringINSt3__18optionalIN4aidl7android8hardware8graphics9composer312ClientTargetEEEE6$valueE",
   "size" : 4,
   "source_file" : "frameworks/native/libs/binder/ndk/include_cpp/android/binder_to_string.h",
   "underlying_type" : "_ZTIj"
  },
  {
   "alignment" : 4,
   "enum_fields" :
   [
    {
     "enum_field_value" : 0,
     "name" : "android::internal::details::ToEmptyString<std::optional<aidl::android::hardware::graphics::composer3::LayerBrightness>>::value"
    }
   ],
   "linker_set_key" : "_ZTIN7android8internal7details13ToEmptyStringINSt3__18optionalIN4aidl7android8hardware8graphics9composer315LayerBrightnessEEEE6$valueE",
   "name" : "android::internal::details::ToEmptyString<std::optional<aidl::android::hardware::graphics::composer3::LayerBrightness>>::(unnamed enum at frameworks/native/libs/binder/ndk/include_cpp/android/binder_to_string.h:153:5)",
   "referenced_type" : "_ZTIN7android8internal7details13ToEmptyStringINSt3__18optionalIN4aidl7android8hardware8graphics9composer315LayerBrightnessEEEE6$valueE",
   "self_type" : "_ZTIN7android8internal7details13ToEmptyStringINSt3__18optionalIN4aidl7android8hardware8graphics9composer315LayerBrightnessEEEE6$valueE",
   "size" : 4,
   "source_file" : "frameworks/native/libs/binder/ndk/include_cpp/android/binder_to_string.h",
   "underlying_type" : "_ZTIj"
  },
  {
   "alignment" : 4,
   "enum_fields" :
   [
    {
     "enum_field_value" : 0,
     "name" : "android::internal::details::ToEmptyString<std::optional<aidl::android::hardware::graphics::composer3::PerFrameMetadata>>::value"
    }
   ],
   "linker_set_key" : "_ZTIN7android8internal7details13ToEmptyStringINSt3__18optionalIN4aidl7android8hardware8graphics9composer316PerFrameMetadataEEEE6$valueE",
   "name" : "android::internal::details::ToEmptyString<std::optional<aidl::android::hardware::graphics::composer3::PerFrameMetadata>>::(unnamed enum at frameworks/native/libs/binder/ndk/include_cpp/android/binder_to_string.h:153:5)",
   "referenced_type" : "_ZTIN7android8internal7details13ToEmptyStringINSt3__18optionalIN4aidl7android8hardware8graphics9composer316PerFrameMetadataEEEE6$valueE",
   "self_type" : "_ZTIN7android8internal7details13ToEmptyStringINSt3__18optionalIN4aidl7android8hardware8graphics9composer316PerFrameMetadataEEEE6$valueE",
   "size" : 4,
   "source_file" : "frameworks/native/libs/binder/ndk/include_cpp/android/binder_to_string.h",
   "underlying_type" : "_ZTIj"
  },
  {
   "alignment" : 4,
   "enum_fields" :
   [
    {
     "enum_field_value" : 0,
     "name" : "android::internal::details::ToEmptyString<std::optional<aidl::android::hardware::graphics::composer3::DisplayBrightness>>::value"
    }
   ],
   "linker_set_key" : "_ZTIN7android8internal7details13ToEmptyStringINSt3__18optionalIN4aidl7android8hardware8graphics9composer317DisplayBrightnessEEEE6$valueE",
   "name" : "android::internal::details::ToEmptyString<std::optional<aidl::android::hardware::graphics::composer3::DisplayBrightness>>::(unnamed enum at frameworks/native/libs/binder/ndk/include_cpp/android/binder_to_string.h:153:5)",
   "referenced_type" : "_ZTIN7android8internal7details13ToEmptyStringINSt3__18optionalIN4aidl7android8hardware8graphics9composer317DisplayBrightnessEEEE6$valueE",
   "self_type" : "_ZTIN7android8internal7details13ToEmptyStringINSt3__18optionalIN4aidl7android8hardware8graphics9composer317DisplayBrightnessEEEE6$valueE",
   "size" : 4,
   "source_file" : "frameworks/native/libs/binder/ndk/include_cpp/android/binder_to_string.h",
   "underlying_type" : "_ZTIj"
  },
  {
   "alignment" : 4,
   "enum_fields" :
   [
    {
     "enum_field_value" : 0,
     "name" : "android::internal::details::ToEmptyString<std::optional<aidl::android::hardware::graphics::composer3::ParcelableBlendMode>>::value"
    }
   ],
   "linker_set_key" : "_ZTIN7android8internal7details13ToEmptyStringINSt3__18optionalIN4aidl7android8hardware8graphics9composer319ParcelableBlendModeEEEE6$valueE",
   "name" : "android::internal::details::ToEmptyString<std::optional<aidl::android::hardware::graphics::composer3::ParcelableBlendMode>>::(unnamed enum at frameworks/native/libs/binder/ndk/include_cpp/android/binder_to_string.h:153:5)",
   "referenced_type" : "_ZTIN7android8internal7details13ToEmptyStringINSt3__18optionalIN4aidl7android8hardware8graphics9composer319ParcelableBlendModeEEEE6$valueE",
   "self_type" : "_ZTIN7android8internal7details13ToEmptyStringINSt3__18optionalIN4aidl7android8hardware8graphics9composer319ParcelableBlendModeEEEE6$valueE",
   "size" : 4,
   "source_file" : "frameworks/native/libs/binder/ndk/include_cpp/android/binder_to_string.h",
   "underlying_type" : "_ZTIj"
  },
  {
   "alignment" : 4,
   "enum_fields" :
   [
    {
     "enum_field_value" : 0,
     "name" : "android::internal::details::ToEmptyString<std::optional<aidl::android::hardware::graphics::composer3::ParcelableDataspace>>::value"
    }
   ],
   "linker_set_key" : "_ZTIN7android8internal7details13ToEmptyStringINSt3__18optionalIN4aidl7android8hardware8graphics9composer319ParcelableDataspaceEEEE6$valueE",
   "name" : "android::internal::details::ToEmptyString<std::optional<aidl::android::hardware::graphics::composer3::ParcelableDataspace>>::(unnamed enum at frameworks/native/libs/binder/ndk/include_cpp/android/binder_to_string.h:153:5)",
   "referenced_type" : "_ZTIN7android8internal7details13ToEmptyStringINSt3__18optionalIN4aidl7android8hardware8graphics9composer319ParcelableDataspaceEEEE6$valueE",
   "self_type" : "_ZTIN7android8internal7details13ToEmptyStringINSt3__18optionalIN4aidl7android8hardware8graphics9composer319ParcelableDataspaceEEEE6$valueE",
   "size" : 4,
   "source_file" : "frameworks/native/libs/binder/ndk/include_cpp/android/binder_to_string.h",
   "underlying_type" : "_ZTIj"
  },
  {
   "alignment" : 4,
   "enum_fields" :
   [
    {
     "enum_field_value" : 0,
     "name" : "android::internal::details::ToEmptyString<std::optional<aidl::android::hardware::graphics::composer3::ParcelableTransform>>::value"
    }
   ],
   "linker_set_key" : "_ZTIN7android8internal7details13ToEmptyStringINSt3__18optionalIN4aidl7android8hardware8graphics9composer319ParcelableTransformEEEE6$valueE",
   "name" : "android::internal::details::ToEmptyString<std::optional<aidl::android::hardware::graphics::composer3::ParcelableTransform>>::(unnamed enum at frameworks/native/libs/binder/ndk/include_cpp/android/binder_to_string.h:153:5)",
   "referenced_type" : "_ZTIN7android8internal7details13ToEmptyStringINSt3__18optionalIN4aidl7android8hardware8graphics9composer319ParcelableTransformEEEE6$valueE",
   "self_type" : "_ZTIN7android8internal7details13ToEmptyStringINSt3__18optionalIN4aidl7android8hardware8graphics9composer319ParcelableTransformEEEE6$valueE",
   "size" : 4,
   "source_file" : "frameworks/native/libs/binder/ndk/include_cpp/android/binder_to_string.h",
   "underlying_type" : "_ZTIj"
  },
  {
   "alignment" : 4,
   "enum_fields" :
   [
    {
     "enum_field_value" : 0,
     "name" : "android::internal::details::ToEmptyString<std::optional<aidl::android::hardware::graphics::composer3::PerFrameMetadataBlob>>::value"
    }
   ],
   "linker_set_key" : "_ZTIN7android8internal7details13ToEmptyStringINSt3__18optionalIN4aidl7android8hardware8graphics9composer320PerFrameMetadataBlobEEEE6$valueE",
   "name" : "android::internal::details::ToEmptyString<std::optional<aidl::android::hardware::graphics::composer3::PerFrameMetadataBlob>>::(unnamed enum at frameworks/native/libs/binder/ndk/include_cpp/android/binder_to_string.h:153:5)",
   "referenced_type" : "_ZTIN7android8internal7details13ToEmptyStringINSt3__18optionalIN4aidl7android8hardware8graphics9composer320PerFrameMetadataBlobEEEE6$valueE",
   "self_type" : "_ZTIN7android8internal7details13ToEmptyStringINSt3__18optionalIN4aidl7android8hardware8graphics9composer320PerFrameMetadataBlobEEEE6$valueE",
   "size" : 4,
   "source_file" : "frameworks/native/libs/binder/ndk/include_cpp/android/binder_to_string.h",
   "underlying_type" : "_ZTIj"
  },
  {
   "alignment" : 4,
   "enum_fields" :
   [
    {
     "enum_field_value" : 0,
     "name" : "android::internal::details::ToEmptyString<std::optional<aidl::android::hardware::graphics::composer3::ParcelableComposition>>::value"
    }
   ],
   "linker_set_key" : "_ZTIN7android8internal7details13ToEmptyStringINSt3__18optionalIN4aidl7android8hardware8graphics9composer321ParcelableCompositionEEEE6$valueE",
   "name" : "android::internal::details::ToEmptyString<std::optional<aidl::android::hardware::graphics::composer3::ParcelableComposition>>::(unnamed enum at frameworks/native/libs/binder/ndk/include_cpp/android/binder_to_string.h:153:5)",
   "referenced_type" : "_ZTIN7android8internal7details13ToEmptyStringINSt3__18optionalIN4aidl7android8hardware8graphics9composer321ParcelableCompositionEEEE6$valueE",
   "self_type" : "_ZTIN7android8internal7details13ToEmptyStringINSt3__18optionalIN4aidl7android8hardware8graphics9composer321ParcelableCompositionEEEE6$valueE",
   "size" : 4,
   "source_file" : "frameworks/native/libs/binder/ndk/include_cpp/android/binder_to_string.h",
   "underlying_type" : "_ZTIj"
  },
  {
   "alignment" : 4,
   "enum_fields" :
   [
    {
     "enum_field_value" : 0,
     "name" : "android::internal::details::ToEmptyString<std::optional<aidl::android::hardware::graphics::composer3::ClockMonotonicTimestamp>>::value"
    }
   ],
   "linker_set_key" : "_ZTIN7android8internal7details13ToEmptyStringINSt3__18optionalIN4aidl7android8hardware8graphics9composer323ClockMonotonicTimestampEEEE6$valueE",
   "name" : "android::internal::details::ToEmptyString<std::optional<aidl::android::hardware::graphics::composer3::ClockMonotonicTimestamp>>::(unnamed enum at frameworks/native/libs/binder/ndk/include_cpp/android/binder_to_string.h:153:5)",
   "referenced_type" : "_ZTIN7android8internal7details13ToEmptyStringINSt3__18optionalIN4aidl7android8hardware8graphics9composer323ClockMonotonicTimestampEEEE6$valueE",
   "self_type" : "_ZTIN7android8internal7details13ToEmptyStringINSt3__18optionalIN4aidl7android8hardware8graphics9composer323ClockMonotonicTimestampEEEE6$valueE",
   "size" : 4,
   "source_file" : "frameworks/native/libs/binder/ndk/include_cpp/android/binder_to_string.h",
   "underlying_type" : "_ZTIj"
  },
  {
   "alignment" : 4,
   "enum_fields" :
   [
    {
     "enum_field_value" : 0,
     "name" : "android::internal::details::ToEmptyString<std::optional<aidl::android::hardware::graphics::composer3::Color>>::value"
    }
   ],
   "linker_set_key" : "_ZTIN7android8internal7details13ToEmptyStringINSt3__18optionalIN4aidl7android8hardware8graphics9composer35ColorEEEE6$valueE",
   "name" : "android::internal::details::ToEmptyString<std::optional<aidl::android::hardware::graphics::composer3::Color>>::(unnamed enum at frameworks/native/libs/binder/ndk/include_cpp/android/binder_to_string.h:153:5)",
   "referenced_type" : "_ZTIN7android8internal7details13ToEmptyStringINSt3__18optionalIN4aidl7android8hardware8graphics9composer35ColorEEEE6$valueE",
   "self_type" : "_ZTIN7android8internal7details13ToEmptyStringINSt3__18optionalIN4aidl7android8hardware8graphics9composer35ColorEEEE6$valueE",
   "size" : 4,
   "source_file" : "frameworks/native/libs/binder/ndk/include_cpp/android/binder_to_string.h",
   "underlying_type" : "_ZTIj"
  },
  {
   "alignment" : 4,
   "enum_fields" :
   [
    {
     "enum_field_value" : 0,
     "name" : "android::internal::details::ToEmptyString<std::optional<aidl::android::hardware::graphics::composer3::Buffer>>::value"
    }
   ],
   "linker_set_key" : "_ZTIN7android8internal7details13ToEmptyStringINSt3__18optionalIN4aidl7android8hardware8graphics9composer36BufferEEEE6$valueE",
   "name" : "android::internal::details::ToEmptyString<std::optional<aidl::android::hardware::graphics::composer3::Buffer>>::(unnamed enum at frameworks/native/libs/binder/ndk/include_cpp/android/binder_to_string.h:153:5)",
   "referenced_type" : "_ZTIN7android8internal7details13ToEmptyStringINSt3__18optionalIN4aidl7android8hardware8graphics9composer36BufferEEEE6$valueE",
   "self_type" : "_ZTIN7android8internal7details13ToEmptyStringINSt3__18optionalIN4aidl7android8hardware8graphics9composer36BufferEEEE6$valueE",
   "size" : 4,
   "source_file" : "frameworks/native/libs/binder/ndk/include_cpp/android/binder_to_string.h",
   "underlying_type" : "_ZTIj"
  },
  {
   "alignment" : 4,
   "enum_fields" :
   [
    {
     "enum_field_value" : 0,
     "name" : "android::internal::details::ToEmptyString<std::optional<aidl::android::hardware::graphics::composer3::ZOrder>>::value"
    }
   ],
   "linker_set_key" : "_ZTIN7android8internal7details13ToEmptyStringINSt3__18optionalIN4aidl7android8hardware8graphics9composer36ZOrderEEEE6$valueE",
   "name" : "android::internal::details::ToEmptyString<std::optional<aidl::android::hardware::graphics::composer3::ZOrder>>::(unnamed enum at frameworks/native/libs/binder/ndk/include_cpp/android/binder_to_string.h:153:5)",
   "referenced_type" : "_ZTIN7android8internal7details13ToEmptyStringINSt3__18optionalIN4aidl7android8hardware8graphics9composer36ZOrderEEEE6$valueE",
   "self_type" : "_ZTIN7android8internal7details13ToEmptyStringINSt3__18optionalIN4aidl7android8hardware8graphics9composer36ZOrderEEEE6$valueE",
   "size" : 4,
   "source_file" : "frameworks/native/libs/binder/ndk/include_cpp/android/binder_to_string.h",
   "underlying_type" : "_ZTIj"
  },
  {
   "alignment" : 4,
   "enum_fields" :
   [
    {
     "enum_field_value" : 0,
     "name" : "android::internal::details::ToEmptyString<std::optional<std::vector<std::optional<aidl::android::hardware::graphics::common::Rect>>>>::value"
    }
   ],
   "linker_set_key" : "_ZTIN7android8internal7details13ToEmptyStringINSt3__18optionalINS3_6vectorINS4_IN4aidl7android8hardware8graphics6common4RectEEENS3_9allocatorISC_EEEEEEE6$valueE",
   "name" : "android::internal::details::ToEmptyString<std::optional<std::vector<std::optional<aidl::android::hardware::graphics::common::Rect>, std::allocator<std::optional<aidl::android::hardware::graphics::common::Rect>>>>>::(unnamed enum at frameworks/native/libs/binder/ndk/include_cpp/android/binder_to_string.h:153:5)",
   "referenced_type" : "_ZTIN7android8internal7details13ToEmptyStringINSt3__18optionalINS3_6vectorINS4_IN4aidl7android8hardware8graphics6common4RectEEENS3_9allocatorISC_EEEEEEE6$valueE",
   "self_type" : "_ZTIN7android8internal7details13ToEmptyStringINSt3__18optionalINS3_6vectorINS4_IN4aidl7android8hardware8graphics6common4RectEEENS3_9allocatorISC_EEEEEEE6$valueE",
   "size" : 4,
   "source_file" : "frameworks/native/libs/binder/ndk/include_cpp/android/binder_to_string.h",
   "underlying_type" : "_ZTIj"
  },
  {
   "alignment" : 4,
   "enum_fields" :
   [
    {
     "enum_field_value" : 0,
     "name" : "android::internal::details::ToEmptyString<std::optional<std::vector<std::optional<aidl::android::hardware::graphics::composer3::PerFrameMetadata>>>>::value"
    }
   ],
   "linker_set_key" : "_ZTIN7android8internal7details13ToEmptyStringINSt3__18optionalINS3_6vectorINS4_IN4aidl7android8hardware8graphics9composer316PerFrameMetadataEEENS3_9allocatorISC_EEEEEEE6$valueE",
   "name" : "android::internal::details::ToEmptyString<std::optional<std::vector<std::optional<aidl::android::hardware::graphics::composer3::PerFrameMetadata>, std::allocator<std::optional<aidl::android::hardware::graphics::composer3::PerFrameMetadata>>>>>::(unnamed enum at frameworks/native/libs/binder/ndk/include_cpp/android/binder_to_string.h:153:5)",
   "referenced_type" : "_ZTIN7android8internal7details13ToEmptyStringINSt3__18optionalINS3_6vectorINS4_IN4aidl7android8hardware8graphics9composer316PerFrameMetadataEEENS3_9allocatorISC_EEEEEEE6$valueE",
   "self_type" : "_ZTIN7android8internal7details13ToEmptyStringINSt3__18optionalINS3_6vectorINS4_IN4aidl7android8hardware8graphics9composer316PerFrameMetadataEEENS3_9allocatorISC_EEEEEEE6$valueE",
   "size" : 4,
   "source_file" : "frameworks/native/libs/binder/ndk/include_cpp/android/binder_to_string.h",
   "underlying_type" : "_ZTIj"
  },
  {
   "alignment" : 4,
   "enum_fields" :
   [
    {
     "enum_field_value" : 0,
     "name" : "android::internal::details::ToEmptyString<std::optional<std::vector<std::optional<aidl::android::hardware::graphics::composer3::PerFrameMetadataBlob>>>>::value"
    }
   ],
   "linker_set_key" : "_ZTIN7android8internal7details13ToEmptyStringINSt3__18optionalINS3_6vectorINS4_IN4aidl7android8hardware8graphics9composer320PerFrameMetadataBlobEEENS3_9allocatorISC_EEEEEEE6$valueE",
   "name" : "android::internal::details::ToEmptyString<std::optional<std::vector<std::optional<aidl::android::hardware::graphics::composer3::PerFrameMetadataBlob>, std::allocator<std::optional<aidl::android::hardware::graphics::composer3::PerFrameMetadataBlob>>>>>::(unnamed enum at frameworks/native/libs/binder/ndk/include_cpp/android/binder_to_string.h:153:5)",
   "referenced_type" : "_ZTIN7android8internal7details13ToEmptyStringINSt3__18optionalINS3_6vectorINS4_IN4aidl7android8hardware8graphics9composer320PerFrameMetadataBlobEEENS3_9allocatorISC_EEEEEEE6$valueE",
   "self_type" : "_ZTIN7android8internal7details13ToEmptyStringINSt3__18optionalINS3_6vectorINS4_IN4aidl7android8hardware8graphics9composer320PerFrameMetadataBlobEEENS3_9allocatorISC_EEEEEEE6$valueE",
   "size" : 4,
   "source_file" : "frameworks/native/libs/binder/ndk/include_cpp/android/binder_to_string.h",
   "underlying_type" : "_ZTIj"
  },
  {
   "alignment" : 4,
   "enum_fields" :
   [
    {
     "enum_field_value" : 0,
     "name" : "android::internal::details::ToEmptyString<std::optional<std::vector<float>>>::value"
    }
   ],
   "linker_set_key" : "_ZTIN7android8internal7details13ToEmptyStringINSt3__18optionalINS3_6vectorIfNS3_9allocatorIfEEEEEEE6$valueE",
   "name" : "android::internal::details::ToEmptyString<std::optional<std::vector<float, std::allocator<float>>>>::(unnamed enum at frameworks/native/libs/binder/ndk/include_cpp/android/binder_to_string.h:153:5)",
   "referenced_type" : "_ZTIN7android8internal7details13ToEmptyStringINSt3__18optionalINS3_6vectorIfNS3_9allocatorIfEEEEEEE6$valueE",
   "self_type" : "_ZTIN7android8internal7details13ToEmptyStringINSt3__18optionalINS3_6vectorIfNS3_9allocatorIfEEEEEEE6$valueE",
   "size" : 4,
   "source_file" : "frameworks/native/libs/binder/ndk/include_cpp/android/binder_to_string.h",
   "underlying_type" : "_ZTIj"
  },
  {
   "alignment" : 4,
   "enum_fields" :
   [
    {
     "enum_field_value" : 0,
     "name" : "android::internal::details::ToEmptyString<signed char>::value"
    }
   ],
   "linker_set_key" : "_ZTIN7android8internal7details13ToEmptyStringIaE6$valueE",
   "name" : "android::internal::details::ToEmptyString<signed char>::(unnamed enum at frameworks/native/libs/binder/ndk/include_cpp/android/binder_to_string.h:153:5)",
   "referenced_type" : "_ZTIN7android8internal7details13ToEmptyStringIaE6$valueE",
   "self_type" : "_ZTIN7android8internal7details13ToEmptyStringIaE6$valueE",
   "size" : 4,
   "source_file" : "frameworks/native/libs/binder/ndk/include_cpp/android/binder_to_string.h",
   "underlying_type" : "_ZTIj"
  },
  {
   "alignment" : 4,
   "enum_fields" :
   [
    {
     "enum_field_value" : 0,
     "name" : "android::internal::details::ToEmptyString<bool>::value"
    }
   ],
   "linker_set_key" : "_ZTIN7android8internal7details13ToEmptyStringIbE6$valueE",
   "name" : "android::internal::details::ToEmptyString<bool>::(unnamed enum at frameworks/native/libs/binder/ndk/include_cpp/android/binder_to_string.h:153:5)",
   "referenced_type" : "_ZTIN7android8internal7details13ToEmptyStringIbE6$valueE",
   "self_type" : "_ZTIN7android8internal7details13ToEmptyStringIbE6$valueE",
   "size" : 4,
   "source_file" : "frameworks/native/libs/binder/ndk/include_cpp/android/binder_to_string.h",
   "underlying_type" : "_ZTIj"
  },
  {
   "alignment" : 4,
   "enum_fields" :
   [
    {
     "enum_field_value" : 0,
     "name" : "android::internal::details::ToEmptyString<float>::value"
    }
   ],
   "linker_set_key" : "_ZTIN7android8internal7details13ToEmptyStringIfE6$valueE",
   "name" : "android::internal::details::ToEmptyString<float>::(unnamed enum at frameworks/native/libs/binder/ndk/include_cpp/android/binder_to_string.h:153:5)",
   "referenced_type" : "_ZTIN7android8internal7details13ToEmptyStringIfE6$valueE",
   "self_type" : "_ZTIN7android8internal7details13ToEmptyStringIfE6$valueE",
   "size" : 4,
   "source_file" : "frameworks/native/libs/binder/ndk/include_cpp/android/binder_to_string.h",
   "underlying_type" : "_ZTIj"
  },
  {
   "alignment" : 4,
   "enum_fields" :
   [
    {
     "enum_field_value" : 0,
     "name" : "android::internal::details::ToEmptyString<unsigned char>::value"
    }
   ],
   "linker_set_key" : "_ZTIN7android8internal7details13ToEmptyStringIhE6$valueE",
   "name" : "android::internal::details::ToEmptyString<unsigned char>::(unnamed enum at frameworks/native/libs/binder/ndk/include_cpp/android/binder_to_string.h:153:5)",
   "referenced_type" : "_ZTIN7android8internal7details13ToEmptyStringIhE6$valueE",
   "self_type" : "_ZTIN7android8internal7details13ToEmptyStringIhE6$valueE",
   "size" : 4,
   "source_file" : "frameworks/native/libs/binder/ndk/include_cpp/android/binder_to_string.h",
   "underlying_type" : "_ZTIj"
  },
  {
   "alignment" : 4,
   "enum_fields" :
   [
    {
     "enum_field_value" : 0,
     "name" : "android::internal::details::ToEmptyString<int>::value"
    }
   ],
   "linker_set_key" : "_ZTIN7android8internal7details13ToEmptyStringIiE6$valueE",
   "name" : "android::internal::details::ToEmptyString<int>::(unnamed enum at frameworks/native/libs/binder/ndk/include_cpp/android/binder_to_string.h:153:5)",
   "referenced_type" : "_ZTIN7android8internal7details13ToEmptyStringIiE6$valueE",
   "self_type" : "_ZTIN7android8internal7details13ToEmptyStringIiE6$valueE",
   "size" : 4,
   "source_file" : "frameworks/native/libs/binder/ndk/include_cpp/android/binder_to_string.h",
   "underlying_type" : "_ZTIj"
  },
  {
   "alignment" : 4,
   "enum_fields" :
   [
    {
     "enum_field_value" : 0,
     "name" : "android::internal::details::ToEmptyString<long long>::value"
    }
   ],
   "linker_set_key" : "_ZTIN7android8internal7details13ToEmptyStringIxE6$valueE",
   "name" : "android::internal::details::ToEmptyString<long long>::(unnamed enum at frameworks/native/libs/binder/ndk/include_cpp/android/binder_to_string.h:153:5)",
   "referenced_type" : "_ZTIN7android8internal7details13ToEmptyStringIxE6$valueE",
   "self_type" : "_ZTIN7android8internal7details13ToEmptyStringIxE6$valueE",
   "size" : 4,
   "source_file" : "frameworks/native/libs/binder/ndk/include_cpp/android/binder_to_string.h",
   "underlying_type" : "_ZTIj"
  },
  {
   "alignment" : 4,
   "enum_fields" :
   [
    {
     "enum_field_value" : 1,
     "name" : "android::internal::details::HasToStringMethod<aidl::android::hardware::common::NativeHandle>::value"
    }
   ],
   "linker_set_key" : "_ZTIN7android8internal7details17HasToStringMethodIN4aidl7android8hardware6common12NativeHandleEE6$valueE",
   "name" : "android::internal::details::HasToStringMethod<aidl::android::hardware::common::NativeHandle>::(unnamed enum at frameworks/native/libs/binder/ndk/include_cpp/android/binder_to_string.h:77:5)",
   "referenced_type" : "_ZTIN7android8internal7details17HasToStringMethodIN4aidl7android8hardware6common12NativeHandleEE6$valueE",
   "self_type" : "_ZTIN7android8internal7details17HasToStringMethodIN4aidl7android8hardware6common12NativeHandleEE6$valueE",
   "size" : 4,
   "source_file" : "frameworks/native/libs/binder/ndk/include_cpp/android/binder_to_string.h",
   "underlying_type" : "_ZTIj"
  },
  {
   "alignment" : 4,
   "enum_fields" :
   [
    {
     "enum_field_value" : 0,
     "name" : "android::internal::details::HasToStringMethod<aidl::android::hardware::graphics::common::PixelFormat>::value"
    }
   ],
   "linker_set_key" : "_ZTIN7android8internal7details17HasToStringMethodIN4aidl7android8hardware8graphics6common11PixelFormatEE6$valueE",
   "name" : "android::internal::details::HasToStringMethod<aidl::android::hardware::graphics::common::PixelFormat>::(unnamed enum at frameworks/native/libs/binder/ndk/include_cpp/android/binder_to_string.h:77:5)",
   "referenced_type" : "_ZTIN7android8internal7details17HasToStringMethodIN4aidl7android8hardware8graphics6common11PixelFormatEE6$valueE",
   "self_type" : "_ZTIN7android8internal7details17HasToStringMethodIN4aidl7android8hardware8graphics6common11PixelFormatEE6$valueE",
   "size" : 4,
   "source_file" : "frameworks/native/libs/binder/ndk/include_cpp/android/binder_to_string.h",
   "underlying_type" : "_ZTIj"
  },
  {
   "alignment" : 4,
   "enum_fields" :
   [
    {
     "enum_field_value" : 0,
     "name" : "android::internal::details::HasToStringMethod<aidl::android::hardware::graphics::common::AlphaInterpretation>::value"
    }
   ],
   "linker_set_key" : "_ZTIN7android8internal7details17HasToStringMethodIN4aidl7android8hardware8graphics6common19AlphaInterpretationEE6$valueE",
   "name" : "android::internal::details::HasToStringMethod<aidl::android::hardware::graphics::common::AlphaInterpretation>::(unnamed enum at frameworks/native/libs/binder/ndk/include_cpp/android/binder_to_string.h:77:5)",
   "referenced_type" : "_ZTIN7android8internal7details17HasToStringMethodIN4aidl7android8hardware8graphics6common19AlphaInterpretationEE6$valueE",
   "self_type" : "_ZTIN7android8internal7details17HasToStringMethodIN4aidl7android8hardware8graphics6common19AlphaInterpretationEE6$valueE",
   "size" : 4,
   "source_file" : "frameworks/native/libs/binder/ndk/include_cpp/android/binder_to_string.h",
   "underlying_type" : "_ZTIj"
  },
  {
   "alignment" : 4,
   "enum_fields" :
   [
    {
     "enum_field_value" : 0,
     "name" : "android::internal::details::HasToStringMethod<aidl::android::hardware::graphics::common::Hdr>::value"
    }
   ],
   "linker_set_key" : "_ZTIN7android8internal7details17HasToStringMethodIN4aidl7android8hardware8graphics6common3HdrEE6$valueE",
   "name" : "android::internal::details::HasToStringMethod<aidl::android::hardware::graphics::common::Hdr>::(unnamed enum at frameworks/native/libs/binder/ndk/include_cpp/android/binder_to_string.h:77:5)",
   "referenced_type" : "_ZTIN7android8internal7details17HasToStringMethodIN4aidl7android8hardware8graphics6common3HdrEE6$valueE",
   "self_type" : "_ZTIN7android8internal7details17HasToStringMethodIN4aidl7android8hardware8graphics6common3HdrEE6$valueE",
   "size" : 4,
   "source_file" : "frameworks/native/libs/binder/ndk/include_cpp/android/binder_to_string.h",
   "underlying_type" : "_ZTIj"
  },
  {
   "alignment" : 4,
   "enum_fields" :
   [
    {
     "enum_field_value" : 1,
     "name" : "android::internal::details::HasToStringMethod<aidl::android::hardware::graphics::common::Rect>::value"
    }
   ],
   "linker_set_key" : "_ZTIN7android8internal7details17HasToStringMethodIN4aidl7android8hardware8graphics6common4RectEE6$valueE",
   "name" : "android::internal::details::HasToStringMethod<aidl::android::hardware::graphics::common::Rect>::(unnamed enum at frameworks/native/libs/binder/ndk/include_cpp/android/binder_to_string.h:77:5)",
   "referenced_type" : "_ZTIN7android8internal7details17HasToStringMethodIN4aidl7android8hardware8graphics6common4RectEE6$valueE",
   "self_type" : "_ZTIN7android8internal7details17HasToStringMethodIN4aidl7android8hardware8graphics6common4RectEE6$valueE",
   "size" : 4,
   "source_file" : "frameworks/native/libs/binder/ndk/include_cpp/android/binder_to_string.h",
   "underlying_type" : "_ZTIj"
  },
  {
   "alignment" : 4,
   "enum_fields" :
   [
    {
     "enum_field_value" : 1,
     "name" : "android::internal::details::HasToStringMethod<aidl::android::hardware::graphics::common::FRect>::value"
    }
   ],
   "linker_set_key" : "_ZTIN7android8internal7details17HasToStringMethodIN4aidl7android8hardware8graphics6common5FRectEE6$valueE",
   "name" : "android::internal::details::HasToStringMethod<aidl::android::hardware::graphics::common::FRect>::(unnamed enum at frameworks/native/libs/binder/ndk/include_cpp/android/binder_to_string.h:77:5)",
   "referenced_type" : "_ZTIN7android8internal7details17HasToStringMethodIN4aidl7android8hardware8graphics6common5FRectEE6$valueE",
   "self_type" : "_ZTIN7android8internal7details17HasToStringMethodIN4aidl7android8hardware8graphics6common5FRectEE6$valueE",
   "size" : 4,
   "source_file" : "frameworks/native/libs/binder/ndk/include_cpp/android/binder_to_string.h",
   "underlying_type" : "_ZTIj"
  },
  {
   "alignment" : 4,
   "enum_fields" :
   [
    {
     "enum_field_value" : 1,
     "name" : "android::internal::details::HasToStringMethod<aidl::android::hardware::graphics::common::Point>::value"
    }
   ],
   "linker_set_key" : "_ZTIN7android8internal7details17HasToStringMethodIN4aidl7android8hardware8graphics6common5PointEE6$valueE",
   "name" : "android::internal::details::HasToStringMethod<aidl::android::hardware::graphics::common::Point>::(unnamed enum at frameworks/native/libs/binder/ndk/include_cpp/android/binder_to_string.h:77:5)",
   "referenced_type" : "_ZTIN7android8internal7details17HasToStringMethodIN4aidl7android8hardware8graphics6common5PointEE6$valueE",
   "self_type" : "_ZTIN7android8internal7details17HasToStringMethodIN4aidl7android8hardware8graphics6common5PointEE6$valueE",
   "size" : 4,
   "source_file" : "frameworks/native/libs/binder/ndk/include_cpp/android/binder_to_string.h",
   "underlying_type" : "_ZTIj"
  },
  {
   "alignment" : 4,
   "enum_fields" :
   [
    {
     "enum_field_value" : 0,
     "name" : "android::internal::details::HasToStringMethod<aidl::android::hardware::graphics::common::BlendMode>::value"
    }
   ],
   "linker_set_key" : "_ZTIN7android8internal7details17HasToStringMethodIN4aidl7android8hardware8graphics6common9BlendModeEE6$valueE",
   "name" : "android::internal::details::HasToStringMethod<aidl::android::hardware::graphics::common::BlendMode>::(unnamed enum at frameworks/native/libs/binder/ndk/include_cpp/android/binder_to_string.h:77:5)",
   "referenced_type" : "_ZTIN7android8internal7details17HasToStringMethodIN4aidl7android8hardware8graphics6common9BlendModeEE6$valueE",
   "self_type" : "_ZTIN7android8internal7details17HasToStringMethodIN4aidl7android8hardware8graphics6common9BlendModeEE6$valueE",
   "size" : 4,
   "source_file" : "frameworks/native/libs/binder/ndk/include_cpp/android/binder_to_string.h",
   "underlying_type" : "_ZTIj"
  },
  {
   "alignment" : 4,
   "enum_fields" :
   [
    {
     "enum_field_value" : 0,
     "name" : "android::internal::details::HasToStringMethod<aidl::android::hardware::graphics::common::Dataspace>::value"
    }
   ],
   "linker_set_key" : "_ZTIN7android8internal7details17HasToStringMethodIN4aidl7android8hardware8graphics6common9DataspaceEE6$valueE",
   "name" : "android::internal::details::HasToStringMethod<aidl::android::hardware::graphics::common::Dataspace>::(unnamed enum at frameworks/native/libs/binder/ndk/include_cpp/android/binder_to_string.h:77:5)",
   "referenced_type" : "_ZTIN7android8internal7details17HasToStringMethodIN4aidl7android8hardware8graphics6common9DataspaceEE6$valueE",
   "self_type" : "_ZTIN7android8internal7details17HasToStringMethodIN4aidl7android8hardware8graphics6common9DataspaceEE6$valueE",
   "size" : 4,
   "source_file" : "frameworks/native/libs/binder/ndk/include_cpp/android/binder_to_string.h",
   "underlying_type" : "_ZTIj"
  },
  {
   "alignment" : 4,
   "enum_fields" :
   [
    {
     "enum_field_value" : 0,
     "name" : "android::internal::details::HasToStringMethod<aidl::android::hardware::graphics::common::Transform>::value"
    }
   ],
   "linker_set_key" : "_ZTIN7android8internal7details17HasToStringMethodIN4aidl7android8hardware8graphics6common9TransformEE6$valueE",
   "name" : "android::internal::details::HasToStringMethod<aidl::android::hardware::graphics::common::Transform>::(unnamed enum at frameworks/native/libs/binder/ndk/include_cpp/android/binder_to_string.h:77:5)",
   "referenced_type" : "_ZTIN7android8internal7details17HasToStringMethodIN4aidl7android8hardware8graphics6common9TransformEE6$valueE",
   "self_type" : "_ZTIN7android8internal7details17HasToStringMethodIN4aidl7android8hardware8graphics6common9TransformEE6$valueE",
   "size" : 4,
   "source_file" : "frameworks/native/libs/binder/ndk/include_cpp/android/binder_to_string.h",
   "underlying_type" : "_ZTIj"
  },
  {
   "alignment" : 4,
   "enum_fields" :
   [
    {
     "enum_field_value" : 1,
     "name" : "android::internal::details::HasToStringMethod<aidl::android::hardware::graphics::composer3::PlaneAlpha>::value"
    }
   ],
   "linker_set_key" : "_ZTIN7android8internal7details17HasToStringMethodIN4aidl7android8hardware8graphics9composer310PlaneAlphaEE6$valueE",
   "name" : "android::internal::details::HasToStringMethod<aidl::android::hardware::graphics::composer3::PlaneAlpha>::(unnamed enum at frameworks/native/libs/binder/ndk/include_cpp/android/binder_to_string.h:77:5)",
   "referenced_type" : "_ZTIN7android8internal7details17HasToStringMethodIN4aidl7android8hardware8graphics9composer310PlaneAlphaEE6$valueE",
   "self_type" : "_ZTIN7android8internal7details17HasToStringMethodIN4aidl7android8hardware8graphics9composer310PlaneAlphaEE6$valueE",
   "size" : 4,
   "source_file" : "frameworks/native/libs/binder/ndk/include_cpp/android/binder_to_string.h",
   "underlying_type" : "_ZTIj"
  },
  {
   "alignment" : 4,
   "enum_fields" :
   [
    {
     "enum_field_value" : 0,
     "name" : "android::internal::details::HasToStringMethod<aidl::android::hardware::graphics::composer3::Composition>::value"
    }
   ],
   "linker_set_key" : "_ZTIN7android8internal7details17HasToStringMethodIN4aidl7android8hardware8graphics9composer311CompositionEE6$valueE",
   "name" : "android::internal::details::HasToStringMethod<aidl::android::hardware::graphics::composer3::Composition>::(unnamed enum at frameworks/native/libs/binder/ndk/include_cpp/android/binder_to_string.h:77:5)",
   "referenced_type" : "_ZTIN7android8internal7details17HasToStringMethodIN4aidl7android8hardware8graphics9composer311CompositionEE6$valueE",
   "self_type" : "_ZTIN7android8internal7details17HasToStringMethodIN4aidl7android8hardware8graphics9composer311CompositionEE6$valueE",
   "size" : 4,
   "source_file" : "frameworks/native/libs/binder/ndk/include_cpp/android/binder_to_string.h",
   "underlying_type" : "_ZTIj"
  },
  {
   "alignment" : 4,
   "enum_fields" :
   [
    {
     "enum_field_value" : 1,
     "name" : "android::internal::details::HasToStringMethod<aidl::android::hardware::graphics::composer3::ClientTarget>::value"
    }
   ],
   "linker_set_key" : "_ZTIN7android8internal7details17HasToStringMethodIN4aidl7android8hardware8graphics9composer312ClientTargetEE6$valueE",
   "name" : "android::internal::details::HasToStringMethod<aidl::android::hardware::graphics::composer3::ClientTarget>::(unnamed enum at frameworks/native/libs/binder/ndk/include_cpp/android/binder_to_string.h:77:5)",
   "referenced_type" : "_ZTIN7android8internal7details17HasToStringMethodIN4aidl7android8hardware8graphics9composer312ClientTargetEE6$valueE",
   "self_type" : "_ZTIN7android8internal7details17HasToStringMethodIN4aidl7android8hardware8graphics9composer312ClientTargetEE6$valueE",
   "size" : 4,
   "source_file" : "frameworks/native/libs/binder/ndk/include_cpp/android/binder_to_string.h",
   "underlying_type" : "_ZTIj"
  },
  {
   "alignment" : 4,
   "enum_fields" :
   [
    {
     "enum_field_value" : 1,
     "name" : "android::internal::details::HasToStringMethod<aidl::android::hardware::graphics::composer3::CommandError>::value"
    }
   ],
   "linker_set_key" : "_ZTIN7android8internal7details17HasToStringMethodIN4aidl7android8hardware8graphics9composer312CommandErrorEE6$valueE",
   "name" : "android::internal::details::HasToStringMethod<aidl::android::hardware::graphics::composer3::CommandError>::(unnamed enum at frameworks/native/libs/binder/ndk/include_cpp/android/binder_to_string.h:77:5)",
   "referenced_type" : "_ZTIN7android8internal7details17HasToStringMethodIN4aidl7android8hardware8graphics9composer312CommandErrorEE6$valueE",
   "self_type" : "_ZTIN7android8internal7details17HasToStringMethodIN4aidl7android8hardware8graphics9composer312CommandErrorEE6$valueE",
   "size" : 4,
   "source_file" : "frameworks/native/libs/binder/ndk/include_cpp/android/binder_to_string.h",
   "underlying_type" : "_ZTIj"
  },
  {
   "alignment" : 4,
   "enum_fields" :
   [
    {
     "enum_field_value" : 0,
     "name" : "android::internal::details::HasToStringMethod<aidl::android::hardware::graphics::composer3::DimmingStage>::value"
    }
   ],
   "linker_set_key" : "_ZTIN7android8internal7details17HasToStringMethodIN4aidl7android8hardware8graphics9composer312DimmingStageEE6$valueE",
   "name" : "android::internal::details::HasToStringMethod<aidl::android::hardware::graphics::composer3::DimmingStage>::(unnamed enum at frameworks/native/libs/binder/ndk/include_cpp/android/binder_to_string.h:77:5)",
   "referenced_type" : "_ZTIN7android8internal7details17HasToStringMethodIN4aidl7android8hardware8graphics9composer312DimmingStageEE6$valueE",
   "self_type" : "_ZTIN7android8internal7details17HasToStringMethodIN4aidl7android8hardware8graphics9composer312DimmingStageEE6$valueE",
   "size" : 4,
   "source_file" : "frameworks/native/libs/binder/ndk/include_cpp/android/binder_to_string.h",
   "underlying_type" : "_ZTIj"
  },
  {
   "alignment" : 4,
   "enum_fields" :
   [
    {
     "enum_field_value" : 1,
     "name" : "android::internal::details::HasToStringMethod<aidl::android::hardware::graphics::composer3::LayerCommand>::value"
    }
   ],
   "linker_set_key" : "_ZTIN7android8internal7details17HasToStringMethodIN4aidl7android8hardware8graphics9composer312LayerCommandEE6$valueE",
   "name" : "android::internal::details::HasToStringMethod<aidl::android::hardware::graphics::composer3::LayerCommand>::(unnamed enum at frameworks/native/libs/binder/ndk/include_cpp/android/binder_to_string.h:77:5)",
   "referenced_type" : "_ZTIN7android8internal7details17HasToStringMethodIN4aidl7android8hardware8graphics9composer312LayerCommandEE6$valueE",
   "self_type" : "_ZTIN7android8internal7details17HasToStringMethodIN4aidl7android8hardware8graphics9composer312LayerCommandEE6$valueE",
   "size" : 4,
   "source_file" : "frameworks/native/libs/binder/ndk/include_cpp/android/binder_to_string.h",
   "underlying_type" : "_ZTIj"
  },
  {
   "alignment" : 4,
   "enum_fields" :
   [
    {
     "enum_field_value" : 1,
     "name" : "android::internal::details::HasToStringMethod<aidl::android::hardware::graphics::composer3::PresentFence>::value"
    }
   ],
   "linker_set_key" : "_ZTIN7android8internal7details17HasToStringMethodIN4aidl7android8hardware8graphics9composer312PresentFenceEE6$valueE",
   "name" : "android::internal::details::HasToStringMethod<aidl::android::hardware::graphics::composer3::PresentFence>::(unnamed enum at frameworks/native/libs/binder/ndk/include_cpp/android/binder_to_string.h:77:5)",
   "referenced_type" : "_ZTIN7android8internal7details17HasToStringMethodIN4aidl7android8hardware8graphics9composer312PresentFenceEE6$valueE",
   "self_type" : "_ZTIN7android8internal7details17HasToStringMethodIN4aidl7android8hardware8graphics9composer312PresentFenceEE6$valueE",
   "size" : 4,
   "source_file" : "frameworks/native/libs/binder/ndk/include_cpp/android/binder_to_string.h",
   "underlying_type" : "_ZTIj"
  },
  {
   "alignment" : 4,
   "enum_fields" :
   [
    {
     "enum_field_value" : 1,
     "name" : "android::internal::details::HasToStringMethod<aidl::android::hardware::graphics::composer3::ReleaseFences::Layer>::value"
    }
   ],
   "linker_set_key" : "_ZTIN7android8internal7details17HasToStringMethodIN4aidl7android8hardware8graphics9composer313ReleaseFences5LayerEE6$valueE",
   "name" : "android::internal::details::HasToStringMethod<aidl::android::hardware::graphics::composer3::ReleaseFences::Layer>::(unnamed enum at frameworks/native/libs/binder/ndk/include_cpp/android/binder_to_string.h:77:5)",
   "referenced_type" : "_ZTIN7android8internal7details17HasToStringMethodIN4aidl7android8hardware8graphics9composer313ReleaseFences5LayerEE6$valueE",
   "self_type" : "_ZTIN7android8internal7details17HasToStringMethodIN4aidl7android8hardware8graphics9composer313ReleaseFences5LayerEE6$valueE",
   "size" : 4,
   "source_file" : "frameworks/native/libs/binder/ndk/include_cpp/android/binder_to_string.h",
   "underlying_type" : "_ZTIj"
  },
  {
   "alignment" : 4,
   "enum_fields" :
   [
    {
     "enum_field_value" : 1,
     "name" : "android::internal::details::HasToStringMethod<aidl::android::hardware::graphics::composer3::ReleaseFences>::value"
    }
   ],
   "linker_set_key" : "_ZTIN7android8internal7details17HasToStringMethodIN4aidl7android8hardware8graphics9composer313ReleaseFencesEE6$valueE",
   "name" : "android::internal::details::HasToStringMethod<aidl::android::hardware::graphics::composer3::ReleaseFences>::(unnamed enum at frameworks/native/libs/binder/ndk/include_cpp/android/binder_to_string.h:77:5)",
   "referenced_type" : "_ZTIN7android8internal7details17HasToStringMethodIN4aidl7android8hardware8graphics9composer313ReleaseFencesEE6$valueE",
   "self_type" : "_ZTIN7android8internal7details17HasToStringMethodIN4aidl7android8hardware8graphics9composer313ReleaseFencesEE6$valueE",
   "size" : 4,
   "source_file" : "frameworks/native/libs/binder/ndk/include_cpp/android/binder_to_string.h",
   "underlying_type" : "_ZTIj"
  },
  {
   "alignment" : 4,
   "enum_fields" :
   [
    {
     "enum_field_value" : 1,
     "name" : "android::internal::details::HasToStringMethod<aidl::android::hardware::graphics::composer3::DisplayRequest::LayerRequest>::value"
    }
   ],
   "linker_set_key" : "_ZTIN7android8internal7details17HasToStringMethodIN4aidl7android8hardware8graphics9composer314DisplayRequest12LayerRequestEE6$valueE",
   "name" : "android::internal::details::HasToStringMethod<aidl::android::hardware::graphics::composer3::DisplayRequest::LayerRequest>::(unnamed enum at frameworks/native/libs/binder/ndk/include_cpp/android/binder_to_string.h:77:5)",
   "referenced_type" : "_ZTIN7android8internal7details17HasToStringMethodIN4aidl7android8hardware8graphics9composer314DisplayRequest12LayerRequestEE6$valueE",
   "self_type" : "_ZTIN7android8internal7details17HasToStringMethodIN4aidl7android8hardware8graphics9composer314DisplayRequest12LayerRequestEE6$valueE",
   "size" : 4,
   "source_file" : "frameworks/native/libs/binder/ndk/include_cpp/android/binder_to_string.h",
   "underlying_type" : "_ZTIj"
  },
  {
   "alignment" : 4,
   "enum_fields" :
   [
    {
     "enum_field_value" : 1,
     "name" : "android::internal::details::HasToStringMethod<aidl::android::hardware::graphics::composer3::DisplayRequest>::value"
    }
   ],
   "linker_set_key" : "_ZTIN7android8internal7details17HasToStringMethodIN4aidl7android8hardware8graphics9composer314DisplayRequestEE6$valueE",
   "name" : "android::internal::details::HasToStringMethod<aidl::android::hardware::graphics::composer3::DisplayRequest>::(unnamed enum at frameworks/native/libs/binder/ndk/include_cpp/android/binder_to_string.h:77:5)",
   "referenced_type" : "_ZTIN7android8internal7details17HasToStringMethodIN4aidl7android8hardware8graphics9composer314DisplayRequestEE6$valueE",
   "self_type" : "_ZTIN7android8internal7details17HasToStringMethodIN4aidl7android8hardware8graphics9composer314DisplayRequestEE6$valueE",
   "size" : 4,
   "source_file" : "frameworks/native/libs/binder/ndk/include_cpp/android/binder_to_string.h",
   "underlying_type" : "_ZTIj"
  },
  {
   "alignment" : 4,
   "enum_fields" :
   [
    {
     "enum_field_value" : 1,
     "name" : "android::internal::details::HasToStringMethod<aidl::android::hardware::graphics::composer3::LayerBrightness>::value"
    }
   ],
   "linker_set_key" : "_ZTIN7android8internal7details17HasToStringMethodIN4aidl7android8hardware8graphics9composer315LayerBrightnessEE6$valueE",
   "name" : "android::internal::details::HasToStringMethod<aidl::android::hardware::graphics::composer3::LayerBrightness>::(unnamed enum at frameworks/native/libs/binder/ndk/include_cpp/android/binder_to_string.h:77:5)",
   "referenced_type" : "_ZTIN7android8internal7details17HasToStringMethodIN4aidl7android8hardware8graphics9composer315LayerBrightnessEE6$valueE",
   "self_type" : "_ZTIN7android8internal7details17HasToStringMethodIN4aidl7android8hardware8graphics9composer315LayerBrightnessEE6$valueE",
   "size" : 4,
   "source_file" : "frameworks/native/libs/binder/ndk/include_cpp/android/binder_to_string.h",
   "underlying_type" : "_ZTIj"
  },
  {
   "alignment" : 4,
   "enum_fields" :
   [
    {
     "enum_field_value" : 1,
     "name" : "android::internal::details::HasToStringMethod<aidl::android::hardware::graphics::composer3::PerFrameMetadata>::value"
    }
   ],
   "linker_set_key" : "_ZTIN7android8internal7details17HasToStringMethodIN4aidl7android8hardware8graphics9composer316PerFrameMetadataEE6$valueE",
   "name" : "android::internal::details::HasToStringMethod<aidl::android::hardware::graphics::composer3::PerFrameMetadata>::(unnamed enum at frameworks/native/libs/binder/ndk/include_cpp/android/binder_to_string.h:77:5)",
   "referenced_type" : "_ZTIN7android8internal7details17HasToStringMethodIN4aidl7android8hardware8graphics9composer316PerFrameMetadataEE6$valueE",
   "self_type" : "_ZTIN7android8internal7details17HasToStringMethodIN4aidl7android8hardware8graphics9composer316PerFrameMetadataEE6$valueE",
   "size" : 4,
   "source_file" : "frameworks/native/libs/binder/ndk/include_cpp/android/binder_to_string.h",
   "underlying_type" : "_ZTIj"
  },
  {
   "alignment" : 4,
   "enum_fields" :
   [
    {
     "enum_field_value" : 1,
     "name" : "android::internal::details::HasToStringMethod<aidl::android::hardware::graphics::composer3::DisplayBrightness>::value"
    }
   ],
   "linker_set_key" : "_ZTIN7android8internal7details17HasToStringMethodIN4aidl7android8hardware8graphics9composer317DisplayBrightnessEE6$valueE",
   "name" : "android::internal::details::HasToStringMethod<aidl::android::hardware::graphics::composer3::DisplayBrightness>::(unnamed enum at frameworks/native/libs/binder/ndk/include_cpp/android/binder_to_string.h:77:5)",
   "referenced_type" : "_ZTIN7android8internal7details17HasToStringMethodIN4aidl7android8hardware8graphics9composer317DisplayBrightnessEE6$valueE",
   "self_type" : "_ZTIN7android8internal7details17HasToStringMethodIN4aidl7android8hardware8graphics9composer317DisplayBrightnessEE6$valueE",
   "size" : 4,
   "source_file" : "frameworks/native/libs/binder/ndk/include_cpp/android/binder_to_string.h",
   "underlying_type" : "_ZTIj"
  },
  {
   "alignment" : 4,
   "enum_fields" :
   [
    {
     "enum_field_value" : 0,
     "name" : "android::internal::details::HasToStringMethod<aidl::android::hardware::graphics::composer3::PresentOrValidate::Result>::value"
    }
   ],
   "linker_set_key" : "_ZTIN7android8internal7details17HasToStringMethodIN4aidl7android8hardware8graphics9composer317PresentOrValidate6ResultEE6$valueE",
   "name" : "android::internal::details::HasToStringMethod<aidl::android::hardware::graphics::composer3::PresentOrValidate::Result>::(unnamed enum at frameworks/native/libs/binder/ndk/include_cpp/android/binder_to_string.h:77:5)",
   "referenced_type" : "_ZTIN7android8internal7details17HasToStringMethodIN4aidl7android8hardware8graphics9composer317PresentOrValidate6ResultEE6$valueE",
   "self_type" : "_ZTIN7android8internal7details17HasToStringMethodIN4aidl7android8hardware8graphics9composer317PresentOrValidate6ResultEE6$valueE",
   "size" : 4,
   "source_file" : "frameworks/native/libs/binder/ndk/include_cpp/android/binder_to_string.h",
   "underlying_type" : "_ZTIj"
  },
  {
   "alignment" : 4,
   "enum_fields" :
   [
    {
     "enum_field_value" : 1,
     "name" : "android::internal::details::HasToStringMethod<aidl::android::hardware::graphics::composer3::PresentOrValidate>::value"
    }
   ],
   "linker_set_key" : "_ZTIN7android8internal7details17HasToStringMethodIN4aidl7android8hardware8graphics9composer317PresentOrValidateEE6$valueE",
   "name" : "android::internal::details::HasToStringMethod<aidl::android::hardware::graphics::composer3::PresentOrValidate>::(unnamed enum at frameworks/native/libs/binder/ndk/include_cpp/android/binder_to_string.h:77:5)",
   "referenced_type" : "_ZTIN7android8internal7details17HasToStringMethodIN4aidl7android8hardware8graphics9composer317PresentOrValidateEE6$valueE",
   "self_type" : "_ZTIN7android8internal7details17HasToStringMethodIN4aidl7android8hardware8graphics9composer317PresentOrValidateEE6$valueE",
   "size" : 4,
   "source_file" : "frameworks/native/libs/binder/ndk/include_cpp/android/binder_to_string.h",
   "underlying_type" : "_ZTIj"
  },
  {
   "alignment" : 4,
   "enum_fields" :
   [
    {
     "enum_field_value" : 1,
     "name" : "android::internal::details::HasToStringMethod<aidl::android::hardware::graphics::composer3::ParcelableBlendMode>::value"
    }
   ],
   "linker_set_key" : "_ZTIN7android8internal7details17HasToStringMethodIN4aidl7android8hardware8graphics9composer319ParcelableBlendModeEE6$valueE",
   "name" : "android::internal::details::HasToStringMethod<aidl::android::hardware::graphics::composer3::ParcelableBlendMode>::(unnamed enum at frameworks/native/libs/binder/ndk/include_cpp/android/binder_to_string.h:77:5)",
   "referenced_type" : "_ZTIN7android8internal7details17HasToStringMethodIN4aidl7android8hardware8graphics9composer319ParcelableBlendModeEE6$valueE",
   "self_type" : "_ZTIN7android8internal7details17HasToStringMethodIN4aidl7android8hardware8graphics9composer319ParcelableBlendModeEE6$valueE",
   "size" : 4,
   "source_file" : "frameworks/native/libs/binder/ndk/include_cpp/android/binder_to_string.h",
   "underlying_type" : "_ZTIj"
  },
  {
   "alignment" : 4,
   "enum_fields" :
   [
    {
     "enum_field_value" : 1,
     "name" : "android::internal::details::HasToStringMethod<aidl::android::hardware::graphics::composer3::ParcelableDataspace>::value"
    }
   ],
   "linker_set_key" : "_ZTIN7android8internal7details17HasToStringMethodIN4aidl7android8hardware8graphics9composer319ParcelableDataspaceEE6$valueE",
   "name" : "android::internal::details::HasToStringMethod<aidl::android::hardware::graphics::composer3::ParcelableDataspace>::(unnamed enum at frameworks/native/libs/binder/ndk/include_cpp/android/binder_to_string.h:77:5)",
   "referenced_type" : "_ZTIN7android8internal7details17HasToStringMethodIN4aidl7android8hardware8graphics9composer319ParcelableDataspaceEE6$valueE",
   "self_type" : "_ZTIN7android8internal7details17HasToStringMethodIN4aidl7android8hardware8graphics9composer319ParcelableDataspaceEE6$valueE",
   "size" : 4,
   "source_file" : "frameworks/native/libs/binder/ndk/include_cpp/android/binder_to_string.h",
   "underlying_type" : "_ZTIj"
  },
  {
   "alignment" : 4,
   "enum_fields" :
   [
    {
     "enum_field_value" : 1,
     "name" : "android::internal::details::HasToStringMethod<aidl::android::hardware::graphics::composer3::ParcelableTransform>::value"
    }
   ],
   "linker_set_key" : "_ZTIN7android8internal7details17HasToStringMethodIN4aidl7android8hardware8graphics9composer319ParcelableTransformEE6$valueE",
   "name" : "android::internal::details::HasToStringMethod<aidl::android::hardware::graphics::composer3::ParcelableTransform>::(unnamed enum at frameworks/native/libs/binder/ndk/include_cpp/android/binder_to_string.h:77:5)",
   "referenced_type" : "_ZTIN7android8internal7details17HasToStringMethodIN4aidl7android8hardware8graphics9composer319ParcelableTransformEE6$valueE",
   "self_type" : "_ZTIN7android8internal7details17HasToStringMethodIN4aidl7android8hardware8graphics9composer319ParcelableTransformEE6$valueE",
   "size" : 4,
   "source_file" : "frameworks/native/libs/binder/ndk/include_cpp/android/binder_to_string.h",
   "underlying_type" : "_ZTIj"
  },
  {
   "alignment" : 4,
   "enum_fields" :
   [
    {
     "enum_field_value" : 0,
     "name" : "android::internal::details::HasToStringMethod<aidl::android::hardware::graphics::composer3::PerFrameMetadataKey>::value"
    }
   ],
   "linker_set_key" : "_ZTIN7android8internal7details17HasToStringMethodIN4aidl7android8hardware8graphics9composer319PerFrameMetadataKeyEE6$valueE",
   "name" : "android::internal::details::HasToStringMethod<aidl::android::hardware::graphics::composer3::PerFrameMetadataKey>::(unnamed enum at frameworks/native/libs/binder/ndk/include_cpp/android/binder_to_string.h:77:5)",
   "referenced_type" : "_ZTIN7android8internal7details17HasToStringMethodIN4aidl7android8hardware8graphics9composer319PerFrameMetadataKeyEE6$valueE",
   "self_type" : "_ZTIN7android8internal7details17HasToStringMethodIN4aidl7android8hardware8graphics9composer319PerFrameMetadataKeyEE6$valueE",
   "size" : 4,
   "source_file" : "frameworks/native/libs/binder/ndk/include_cpp/android/binder_to_string.h",
   "underlying_type" : "_ZTIj"
  },
  {
   "alignment" : 4,
   "enum_fields" :
   [
    {
     "enum_field_value" : 1,
     "name" : "android::internal::details::HasToStringMethod<aidl::android::hardware::graphics::composer3::ClientTargetProperty>::value"
    }
   ],
   "linker_set_key" : "_ZTIN7android8internal7details17HasToStringMethodIN4aidl7android8hardware8graphics9composer320ClientTargetPropertyEE6$valueE",
   "name" : "android::internal::details::HasToStringMethod<aidl::android::hardware::graphics::composer3::ClientTargetProperty>::(unnamed enum at frameworks/native/libs/binder/ndk/include_cpp/android/binder_to_string.h:77:5)",
   "referenced_type" : "_ZTIN7android8internal7details17HasToStringMethodIN4aidl7android8hardware8graphics9composer320ClientTargetPropertyEE6$valueE",
   "self_type" : "_ZTIN7android8internal7details17HasToStringMethodIN4aidl7android8hardware8graphics9composer320ClientTargetPropertyEE6$valueE",
   "size" : 4,
   "source_file" : "frameworks/native/libs/binder/ndk/include_cpp/android/binder_to_string.h",
   "underlying_type" : "_ZTIj"
  },
  {
   "alignment" : 4,
   "enum_fields" :
   [
    {
     "enum_field_value" : 0,
     "name" : "android::internal::details::HasToStringMethod<aidl::android::hardware::graphics::composer3::FormatColorComponent>::value"
    }
   ],
   "linker_set_key" : "_ZTIN7android8internal7details17HasToStringMethodIN4aidl7android8hardware8graphics9composer320FormatColorComponentEE6$valueE",
   "name" : "android::internal::details::HasToStringMethod<aidl::android::hardware::graphics::composer3::FormatColorComponent>::(unnamed enum at frameworks/native/libs/binder/ndk/include_cpp/android/binder_to_string.h:77:5)",
   "referenced_type" : "_ZTIN7android8internal7details17HasToStringMethodIN4aidl7android8hardware8graphics9composer320FormatColorComponentEE6$valueE",
   "self_type" : "_ZTIN7android8internal7details17HasToStringMethodIN4aidl7android8hardware8graphics9composer320FormatColorComponentEE6$valueE",
   "size" : 4,
   "source_file" : "frameworks/native/libs/binder/ndk/include_cpp/android/binder_to_string.h",
   "underlying_type" : "_ZTIj"
  },
  {
   "alignment" : 4,
   "enum_fields" :
   [
    {
     "enum_field_value" : 1,
     "name" : "android::internal::details::HasToStringMethod<aidl::android::hardware::graphics::composer3::PerFrameMetadataBlob>::value"
    }
   ],
   "linker_set_key" : "_ZTIN7android8internal7details17HasToStringMethodIN4aidl7android8hardware8graphics9composer320PerFrameMetadataBlobEE6$valueE",
   "name" : "android::internal::details::HasToStringMethod<aidl::android::hardware::graphics::composer3::PerFrameMetadataBlob>::(unnamed enum at frameworks/native/libs/binder/ndk/include_cpp/android/binder_to_string.h:77:5)",
   "referenced_type" : "_ZTIN7android8internal7details17HasToStringMethodIN4aidl7android8hardware8graphics9composer320PerFrameMetadataBlobEE6$valueE",
   "self_type" : "_ZTIN7android8internal7details17HasToStringMethodIN4aidl7android8hardware8graphics9composer320PerFrameMetadataBlobEE6$valueE",
   "size" : 4,
   "source_file" : "frameworks/native/libs/binder/ndk/include_cpp/android/binder_to_string.h",
   "underlying_type" : "_ZTIj"
  },
  {
   "alignment" : 4,
   "enum_fields" :
   [
    {
     "enum_field_value" : 1,
     "name" : "android::internal::details::HasToStringMethod<aidl::android::hardware::graphics::composer3::ParcelableComposition>::value"
    }
   ],
   "linker_set_key" : "_ZTIN7android8internal7details17HasToStringMethodIN4aidl7android8hardware8graphics9composer321ParcelableCompositionEE6$valueE",
   "name" : "android::internal::details::HasToStringMethod<aidl::android::hardware::graphics::composer3::ParcelableComposition>::(unnamed enum at frameworks/native/libs/binder/ndk/include_cpp/android/binder_to_string.h:77:5)",
   "referenced_type" : "_ZTIN7android8internal7details17HasToStringMethodIN4aidl7android8hardware8graphics9composer321ParcelableCompositionEE6$valueE",
   "self_type" : "_ZTIN7android8internal7details17HasToStringMethodIN4aidl7android8hardware8graphics9composer321ParcelableCompositionEE6$valueE",
   "size" : 4,
   "source_file" : "frameworks/native/libs/binder/ndk/include_cpp/android/binder_to_string.h",
   "underlying_type" : "_ZTIj"
  },
  {
   "alignment" : 4,
   "enum_fields" :
   [
    {
     "enum_field_value" : 1,
     "name" : "android::internal::details::HasToStringMethod<aidl::android::hardware::graphics::composer3::ChangedCompositionLayer>::value"
    }
   ],
   "linker_set_key" : "_ZTIN7android8internal7details17HasToStringMethodIN4aidl7android8hardware8graphics9composer323ChangedCompositionLayerEE6$valueE",
   "name" : "android::internal::details::HasToStringMethod<aidl::android::hardware::graphics::composer3::ChangedCompositionLayer>::(unnamed enum at frameworks/native/libs/binder/ndk/include_cpp/android/binder_to_string.h:77:5)",
   "referenced_type" : "_ZTIN7android8internal7details17HasToStringMethodIN4aidl7android8hardware8graphics9composer323ChangedCompositionLayerEE6$valueE",
   "self_type" : "_ZTIN7android8internal7details17HasToStringMethodIN4aidl7android8hardware8graphics9composer323ChangedCompositionLayerEE6$valueE",
   "size" : 4,
   "source_file" : "frameworks/native/libs/binder/ndk/include_cpp/android/binder_to_string.h",
   "underlying_type" : "_ZTIj"
  },
  {
   "alignment" : 4,
   "enum_fields" :
   [
    {
     "enum_field_value" : 1,
     "name" : "android::internal::details::HasToStringMethod<aidl::android::hardware::graphics::composer3::ChangedCompositionTypes>::value"
    }
   ],
   "linker_set_key" : "_ZTIN7android8internal7details17HasToStringMethodIN4aidl7android8hardware8graphics9composer323ChangedCompositionTypesEE6$valueE",
   "name" : "android::internal::details::HasToStringMethod<aidl::android::hardware::graphics::composer3::ChangedCompositionTypes>::(unnamed enum at frameworks/native/libs/binder/ndk/include_cpp/android/binder_to_string.h:77:5)",
   "referenced_type" : "_ZTIN7android8internal7details17HasToStringMethodIN4aidl7android8hardware8graphics9composer323ChangedCompositionTypesEE6$valueE",
   "self_type" : "_ZTIN7android8internal7details17HasToStringMethodIN4aidl7android8hardware8graphics9composer323ChangedCompositionTypesEE6$valueE",
   "size" : 4,
   "source_file" : "frameworks/native/libs/binder/ndk/include_cpp/android/binder_to_string.h",
   "underlying_type" : "_ZTIj"
  },
  {
   "alignment" : 4,
   "enum_fields" :
   [
    {
     "enum_field_value" : 1,
     "name" : "android::internal::details::HasToStringMethod<aidl::android::hardware::graphics::composer3::ClockMonotonicTimestamp>::value"
    }
   ],
   "linker_set_key" : "_ZTIN7android8internal7details17HasToStringMethodIN4aidl7android8hardware8graphics9composer323ClockMonotonicTimestampEE6$valueE",
   "name" : "android::internal::details::HasToStringMethod<aidl::android::hardware::graphics::composer3::ClockMonotonicTimestamp>::(unnamed enum at frameworks/native/libs/binder/ndk/include_cpp/android/binder_to_string.h:77:5)",
   "referenced_type" : "_ZTIN7android8internal7details17HasToStringMethodIN4aidl7android8hardware8graphics9composer323ClockMonotonicTimestampEE6$valueE",
   "self_type" : "_ZTIN7android8internal7details17HasToStringMethodIN4aidl7android8hardware8graphics9composer323ClockMonotonicTimestampEE6$valueE",
   "size" : 4,
   "source_file" : "frameworks/native/libs/binder/ndk/include_cpp/android/binder_to_string.h",
   "underlying_type" : "_ZTIj"
  },
  {
   "alignment" : 4,
   "enum_fields" :
   [
    {
     "enum_field_value" : 1,
     "name" : "android::internal::details::HasToStringMethod<aidl::android::hardware::graphics::composer3::ClientTargetPropertyWithBrightness>::value"
    }
   ],
   "linker_set_key" : "_ZTIN7android8internal7details17HasToStringMethodIN4aidl7android8hardware8graphics9composer334ClientTargetPropertyWithBrightnessEE6$valueE",
   "name" : "android::internal::details::HasToStringMethod<aidl::android::hardware::graphics::composer3::ClientTargetPropertyWithBrightness>::(unnamed enum at frameworks/native/libs/binder/ndk/include_cpp/android/binder_to_string.h:77:5)",
   "referenced_type" : "_ZTIN7android8internal7details17HasToStringMethodIN4aidl7android8hardware8graphics9composer334ClientTargetPropertyWithBrightnessEE6$valueE",
   "self_type" : "_ZTIN7android8internal7details17HasToStringMethodIN4aidl7android8hardware8graphics9composer334ClientTargetPropertyWithBrightnessEE6$valueE",
   "size" : 4,
   "source_file" : "frameworks/native/libs/binder/ndk/include_cpp/android/binder_to_string.h",
   "underlying_type" : "_ZTIj"
  },
  {
   "alignment" : 4,
   "enum_fields" :
   [
    {
     "enum_field_value" : 1,
     "name" : "android::internal::details::HasToStringMethod<aidl::android::hardware::graphics::composer3::Color>::value"
    }
   ],
   "linker_set_key" : "_ZTIN7android8internal7details17HasToStringMethodIN4aidl7android8hardware8graphics9composer35ColorEE6$valueE",
   "name" : "android::internal::details::HasToStringMethod<aidl::android::hardware::graphics::composer3::Color>::(unnamed enum at frameworks/native/libs/binder/ndk/include_cpp/android/binder_to_string.h:77:5)",
   "referenced_type" : "_ZTIN7android8internal7details17HasToStringMethodIN4aidl7android8hardware8graphics9composer35ColorEE6$valueE",
   "self_type" : "_ZTIN7android8internal7details17HasToStringMethodIN4aidl7android8hardware8graphics9composer35ColorEE6$valueE",
   "size" : 4,
   "source_file" : "frameworks/native/libs/binder/ndk/include_cpp/android/binder_to_string.h",
   "underlying_type" : "_ZTIj"
  },
  {
   "alignment" : 4,
   "enum_fields" :
   [
    {
     "enum_field_value" : 1,
     "name" : "android::internal::details::HasToStringMethod<aidl::android::hardware::graphics::composer3::Buffer>::value"
    }
   ],
   "linker_set_key" : "_ZTIN7android8internal7details17HasToStringMethodIN4aidl7android8hardware8graphics9composer36BufferEE6$valueE",
   "name" : "android::internal::details::HasToStringMethod<aidl::android::hardware::graphics::composer3::Buffer>::(unnamed enum at frameworks/native/libs/binder/ndk/include_cpp/android/binder_to_string.h:77:5)",
   "referenced_type" : "_ZTIN7android8internal7details17HasToStringMethodIN4aidl7android8hardware8graphics9composer36BufferEE6$valueE",
   "self_type" : "_ZTIN7android8internal7details17HasToStringMethodIN4aidl7android8hardware8graphics9composer36BufferEE6$valueE",
   "size" : 4,
   "source_file" : "frameworks/native/libs/binder/ndk/include_cpp/android/binder_to_string.h",
   "underlying_type" : "_ZTIj"
  },
  {
   "alignment" : 4,
   "enum_fields" :
   [
    {
     "enum_field_value" : 1,
     "name" : "android::internal::details::HasToStringMethod<aidl::android::hardware::graphics::composer3::ZOrder>::value"
    }
   ],
   "linker_set_key" : "_ZTIN7android8internal7details17HasToStringMethodIN4aidl7android8hardware8graphics9composer36ZOrderEE6$valueE",
   "name" : "android::internal::details::HasToStringMethod<aidl::android::hardware::graphics::composer3::ZOrder>::(unnamed enum at frameworks/native/libs/binder/ndk/include_cpp/android/binder_to_string.h:77:5)",
   "referenced_type" : "_ZTIN7android8internal7details17HasToStringMethodIN4aidl7android8hardware8graphics9composer36ZOrderEE6$valueE",
   "self_type" : "_ZTIN7android8internal7details17HasToStringMethodIN4aidl7android8hardware8graphics9composer36ZOrderEE6$valueE",
   "size" : 4,
   "source_file" : "frameworks/native/libs/binder/ndk/include_cpp/android/binder_to_string.h",
   "underlying_type" : "_ZTIj"
  },
  {
   "alignment" : 4,
   "enum_fields" :
   [
    {
     "enum_field_value" : 0,
     "name" : "android::internal::details::HasToStringMethod<std::vector<ndk::ScopedFileDescriptor>>::value"
    }
   ],
   "linker_set_key" : "_ZTIN7android8internal7details17HasToStringMethodINSt3__16vectorIN3ndk20ScopedFileDescriptorENS3_9allocatorIS6_EEEEE6$valueE",
   "name" : "android::internal::details::HasToStringMethod<std::vector<ndk::ScopedFileDescriptor, std::allocator<ndk::ScopedFileDescriptor>>>::(unnamed enum at frameworks/native/libs/binder/ndk/include_cpp/android/binder_to_string.h:77:5)",
   "referenced_type" : "_ZTIN7android8internal7details17HasToStringMethodINSt3__16vectorIN3ndk20ScopedFileDescriptorENS3_9allocatorIS6_EEEEE6$valueE",
   "self_type" : "_ZTIN7android8internal7details17HasToStringMethodINSt3__16vectorIN3ndk20ScopedFileDescriptorENS3_9allocatorIS6_EEEEE6$valueE",
   "size" : 4,
   "source_file" : "frameworks/native/libs/binder/ndk/include_cpp/android/binder_to_string.h",
   "underlying_type" : "_ZTIj"
  },
  {
   "alignment" : 4,
   "enum_fields" :
   [
    {
     "enum_field_value" : 0,
     "name" : "android::internal::details::HasToStringMethod<std::vector<aidl::android::hardware::graphics::common::Hdr>>::value"
    }
   ],
   "linker_set_key" : "_ZTIN7android8internal7details17HasToStringMethodINSt3__16vectorIN4aidl7android8hardware8graphics6common3HdrENS3_9allocatorISA_EEEEE6$valueE",
   "name" : "android::internal::details::HasToStringMethod<std::vector<aidl::android::hardware::graphics::common::Hdr, std::allocator<aidl::android::hardware::graphics::common::Hdr>>>::(unnamed enum at frameworks/native/libs/binder/ndk/include_cpp/android/binder_to_string.h:77:5)",
   "referenced_type" : "_ZTIN7android8internal7details17HasToStringMethodINSt3__16vectorIN4aidl7android8hardware8graphics6common3HdrENS3_9allocatorISA_EEEEE6$valueE",
   "self_type" : "_ZTIN7android8internal7details17HasToStringMethodINSt3__16vectorIN4aidl7android8hardware8graphics6common3HdrENS3_9allocatorISA_EEEEE6$valueE",
   "size" : 4,
   "source_file" : "frameworks/native/libs/binder/ndk/include_cpp/android/binder_to_string.h",
   "underlying_type" : "_ZTIj"
  },
  {
   "alignment" : 4,
   "enum_fields" :
   [
    {
     "enum_field_value" : 0,
     "name" : "android::internal::details::HasToStringMethod<std::vector<aidl::android::hardware::graphics::common::Rect>>::value"
    }
   ],
   "linker_set_key" : "_ZTIN7android8internal7details17HasToStringMethodINSt3__16vectorIN4aidl7android8hardware8graphics6common4RectENS3_9allocatorISA_EEEEE6$valueE",
   "name" : "android::internal::details::HasToStringMethod<std::vector<aidl::android::hardware::graphics::common::Rect, std::allocator<aidl::android::hardware::graphics::common::Rect>>>::(unnamed enum at frameworks/native/libs/binder/ndk/include_cpp/android/binder_to_string.h:77:5)",
   "referenced_type" : "_ZTIN7android8internal7details17HasToStringMethodINSt3__16vectorIN4aidl7android8hardware8graphics6common4RectENS3_9allocatorISA_EEEEE6$valueE",
   "self_type" : "_ZTIN7android8internal7details17HasToStringMethodINSt3__16vectorIN4aidl7android8hardware8graphics6common4RectENS3_9allocatorISA_EEEEE6$valueE",
   "size" : 4,
   "source_file" : "frameworks/native/libs/binder/ndk/include_cpp/android/binder_to_string.h",
   "underlying_type" : "_ZTIj"
  },
  {
   "alignment" : 4,
   "enum_fields" :
   [
    {
     "enum_field_value" : 0,
     "name" : "android::internal::details::HasToStringMethod<std::vector<aidl::android::hardware::graphics::composer3::LayerCommand>>::value"
    }
   ],
   "linker_set_key" : "_ZTIN7android8internal7details17HasToStringMethodINSt3__16vectorIN4aidl7android8hardware8graphics9composer312LayerCommandENS3_9allocatorISA_EEEEE6$valueE",
   "name" : "android::internal::details::HasToStringMethod<std::vector<aidl::android::hardware::graphics::composer3::LayerCommand, std::allocator<aidl::android::hardware::graphics::composer3::LayerCommand>>>::(unnamed enum at frameworks/native/libs/binder/ndk/include_cpp/android/binder_to_string.h:77:5)",
   "referenced_type" : "_ZTIN7android8internal7details17HasToStringMethodINSt3__16vectorIN4aidl7android8hardware8graphics9composer312LayerCommandENS3_9allocatorISA_EEEEE6$valueE",
   "self_type" : "_ZTIN7android8internal7details17HasToStringMethodINSt3__16vectorIN4aidl7android8hardware8graphics9composer312LayerCommandENS3_9allocatorISA_EEEEE6$valueE",
   "size" : 4,
   "source_file" : "frameworks/native/libs/binder/ndk/include_cpp/android/binder_to_string.h",
   "underlying_type" : "_ZTIj"
  },
  {
   "alignment" : 4,
   "enum_fields" :
   [
    {
     "enum_field_value" : 0,
     "name" : "android::internal::details::HasToStringMethod<std::vector<aidl::android::hardware::graphics::composer3::ReleaseFences::Layer>>::value"
    }
   ],
   "linker_set_key" : "_ZTIN7android8internal7details17HasToStringMethodINSt3__16vectorIN4aidl7android8hardware8graphics9composer313ReleaseFences5LayerENS3_9allocatorISB_EEEEE6$valueE",
   "name" : "android::internal::details::HasToStringMethod<std::vector<aidl::android::hardware::graphics::composer3::ReleaseFences::Layer, std::allocator<aidl::android::hardware::graphics::composer3::ReleaseFences::Layer>>>::(unnamed enum at frameworks/native/libs/binder/ndk/include_cpp/android/binder_to_string.h:77:5)",
   "referenced_type" : "_ZTIN7android8internal7details17HasToStringMethodINSt3__16vectorIN4aidl7android8hardware8graphics9composer313ReleaseFences5LayerENS3_9allocatorISB_EEEEE6$valueE",
   "self_type" : "_ZTIN7android8internal7details17HasToStringMethodINSt3__16vectorIN4aidl7android8hardware8graphics9composer313ReleaseFences5LayerENS3_9allocatorISB_EEEEE6$valueE",
   "size" : 4,
   "source_file" : "frameworks/native/libs/binder/ndk/include_cpp/android/binder_to_string.h",
   "underlying_type" : "_ZTIj"
  },
  {
   "alignment" : 4,
   "enum_fields" :
   [
    {
     "enum_field_value" : 0,
     "name" : "android::internal::details::HasToStringMethod<std::vector<aidl::android::hardware::graphics::composer3::DisplayRequest::LayerRequest>>::value"
    }
   ],
   "linker_set_key" : "_ZTIN7android8internal7details17HasToStringMethodINSt3__16vectorIN4aidl7android8hardware8graphics9composer314DisplayRequest12LayerRequestENS3_9allocatorISB_EEEEE6$valueE",
   "name" : "android::internal::details::HasToStringMethod<std::vector<aidl::android::hardware::graphics::composer3::DisplayRequest::LayerRequest, std::allocator<aidl::android::hardware::graphics::composer3::DisplayRequest::LayerRequest>>>::(unnamed enum at frameworks/native/libs/binder/ndk/include_cpp/android/binder_to_string.h:77:5)",
   "referenced_type" : "_ZTIN7android8internal7details17HasToStringMethodINSt3__16vectorIN4aidl7android8hardware8graphics9composer314DisplayRequest12LayerRequestENS3_9allocatorISB_EEEEE6$valueE",
   "self_type" : "_ZTIN7android8internal7details17HasToStringMethodINSt3__16vectorIN4aidl7android8hardware8graphics9composer314DisplayRequest12LayerRequestENS3_9allocatorISB_EEEEE6$valueE",
   "size" : 4,
   "source_file" : "frameworks/native/libs/binder/ndk/include_cpp/android/binder_to_string.h",
   "underlying_type" : "_ZTIj"
  },
  {
   "alignment" : 4,
   "enum_fields" :
   [
    {
     "enum_field_value" : 0,
     "name" : "android::internal::details::HasToStringMethod<std::vector<aidl::android::hardware::graphics::composer3::ChangedCompositionLayer>>::value"
    }
   ],
   "linker_set_key" : "_ZTIN7android8internal7details17HasToStringMethodINSt3__16vectorIN4aidl7android8hardware8graphics9composer323ChangedCompositionLayerENS3_9allocatorISA_EEEEE6$valueE",
   "name" : "android::internal::details::HasToStringMethod<std::vector<aidl::android::hardware::graphics::composer3::ChangedCompositionLayer, std::allocator<aidl::android::hardware::graphics::composer3::ChangedCompositionLayer>>>::(unnamed enum at frameworks/native/libs/binder/ndk/include_cpp/android/binder_to_string.h:77:5)",
   "referenced_type" : "_ZTIN7android8internal7details17HasToStringMethodINSt3__16vectorIN4aidl7android8hardware8graphics9composer323ChangedCompositionLayerENS3_9allocatorISA_EEEEE6$valueE",
   "self_type" : "_ZTIN7android8internal7details17HasToStringMethodINSt3__16vectorIN4aidl7android8hardware8graphics9composer323ChangedCompositionLayerENS3_9allocatorISA_EEEEE6$valueE",
   "size" : 4,
   "source_file" : "frameworks/native/libs/binder/ndk/include_cpp/android/binder_to_string.h",
   "underlying_type" : "_ZTIj"
  },
  {
   "alignment" : 4,
   "enum_fields" :
   [
    {
     "enum_field_value" : 0,
     "name" : "android::internal::details::HasToStringMethod<std::vector<std::optional<aidl::android::hardware::graphics::common::Rect>>>::value"
    }
   ],
   "linker_set_key" : "_ZTIN7android8internal7details17HasToStringMethodINSt3__16vectorINS3_8optionalIN4aidl7android8hardware8graphics6common4RectEEENS3_9allocatorISC_EEEEE6$valueE",
   "name" : "android::internal::details::HasToStringMethod<std::vector<std::optional<aidl::android::hardware::graphics::common::Rect>, std::allocator<std::optional<aidl::android::hardware::graphics::common::Rect>>>>::(unnamed enum at frameworks/native/libs/binder/ndk/include_cpp/android/binder_to_string.h:77:5)",
   "referenced_type" : "_ZTIN7android8internal7details17HasToStringMethodINSt3__16vectorINS3_8optionalIN4aidl7android8hardware8graphics6common4RectEEENS3_9allocatorISC_EEEEE6$valueE",
   "self_type" : "_ZTIN7android8internal7details17HasToStringMethodINSt3__16vectorINS3_8optionalIN4aidl7android8hardware8graphics6common4RectEEENS3_9allocatorISC_EEEEE6$valueE",
   "size" : 4,
   "source_file" : "frameworks/native/libs/binder/ndk/include_cpp/android/binder_to_string.h",
   "underlying_type" : "_ZTIj"
  },
  {
   "alignment" : 4,
   "enum_fields" :
   [
    {
     "enum_field_value" : 0,
     "name" : "android::internal::details::HasToStringMethod<std::vector<std::optional<aidl::android::hardware::graphics::composer3::PerFrameMetadata>>>::value"
    }
   ],
   "linker_set_key" : "_ZTIN7android8internal7details17HasToStringMethodINSt3__16vectorINS3_8optionalIN4aidl7android8hardware8graphics9composer316PerFrameMetadataEEENS3_9allocatorISC_EEEEE6$valueE",
   "name" : "android::internal::details::HasToStringMethod<std::vector<std::optional<aidl::android::hardware::graphics::composer3::PerFrameMetadata>, std::allocator<std::optional<aidl::android::hardware::graphics::composer3::PerFrameMetadata>>>>::(unnamed enum at frameworks/native/libs/binder/ndk/include_cpp/android/binder_to_string.h:77:5)",
   "referenced_type" : "_ZTIN7android8internal7details17HasToStringMethodINSt3__16vectorINS3_8optionalIN4aidl7android8hardware8graphics9composer316PerFrameMetadataEEENS3_9allocatorISC_EEEEE6$valueE",
   "self_type" : "_ZTIN7android8internal7details17HasToStringMethodINSt3__16vectorINS3_8optionalIN4aidl7android8hardware8graphics9composer316PerFrameMetadataEEENS3_9allocatorISC_EEEEE6$valueE",
   "size" : 4,
   "source_file" : "frameworks/native/libs/binder/ndk/include_cpp/android/binder_to_string.h",
   "underlying_type" : "_ZTIj"
  },
  {
   "alignment" : 4,
   "enum_fields" :
   [
    {
     "enum_field_value" : 0,
     "name" : "android::internal::details::HasToStringMethod<std::vector<std::optional<aidl::android::hardware::graphics::composer3::PerFrameMetadataBlob>>>::value"
    }
   ],
   "linker_set_key" : "_ZTIN7android8internal7details17HasToStringMethodINSt3__16vectorINS3_8optionalIN4aidl7android8hardware8graphics9composer320PerFrameMetadataBlobEEENS3_9allocatorISC_EEEEE6$valueE",
   "name" : "android::internal::details::HasToStringMethod<std::vector<std::optional<aidl::android::hardware::graphics::composer3::PerFrameMetadataBlob>, std::allocator<std::optional<aidl::android::hardware::graphics::composer3::PerFrameMetadataBlob>>>>::(unnamed enum at frameworks/native/libs/binder/ndk/include_cpp/android/binder_to_string.h:77:5)",
   "referenced_type" : "_ZTIN7android8internal7details17HasToStringMethodINSt3__16vectorINS3_8optionalIN4aidl7android8hardware8graphics9composer320PerFrameMetadataBlobEEENS3_9allocatorISC_EEEEE6$valueE",
   "self_type" : "_ZTIN7android8internal7details17HasToStringMethodINSt3__16vectorINS3_8optionalIN4aidl7android8hardware8graphics9composer320PerFrameMetadataBlobEEENS3_9allocatorISC_EEEEE6$valueE",
   "size" : 4,
   "source_file" : "frameworks/native/libs/binder/ndk/include_cpp/android/binder_to_string.h",
   "underlying_type" : "_ZTIj"
  },
  {
   "alignment" : 4,
   "enum_fields" :
   [
    {
     "enum_field_value" : 0,
     "name" : "android::internal::details::HasToStringMethod<std::vector<float>>::value"
    }
   ],
   "linker_set_key" : "_ZTIN7android8internal7details17HasToStringMethodINSt3__16vectorIfNS3_9allocatorIfEEEEE6$valueE",
   "name" : "android::internal::details::HasToStringMethod<std::vector<float, std::allocator<float>>>::(unnamed enum at frameworks/native/libs/binder/ndk/include_cpp/android/binder_to_string.h:77:5)",
   "referenced_type" : "_ZTIN7android8internal7details17HasToStringMethodINSt3__16vectorIfNS3_9allocatorIfEEEEE6$valueE",
   "self_type" : "_ZTIN7android8internal7details17HasToStringMethodINSt3__16vectorIfNS3_9allocatorIfEEEEE6$valueE",
   "size" : 4,
   "source_file" : "frameworks/native/libs/binder/ndk/include_cpp/android/binder_to_string.h",
   "underlying_type" : "_ZTIj"
  },
  {
   "alignment" : 4,
   "enum_fields" :
   [
    {
     "enum_field_value" : 0,
     "name" : "android::internal::details::HasToStringMethod<std::vector<unsigned char>>::value"
    }
   ],
   "linker_set_key" : "_ZTIN7android8internal7details17HasToStringMethodINSt3__16vectorIhNS3_9allocatorIhEEEEE6$valueE",
   "name" : "android::internal::details::HasToStringMethod<std::vector<unsigned char, std::allocator<unsigned char>>>::(unnamed enum at frameworks/native/libs/binder/ndk/include_cpp/android/binder_to_string.h:77:5)",
   "referenced_type" : "_ZTIN7android8internal7details17HasToStringMethodINSt3__16vectorIhNS3_9allocatorIhEEEEE6$valueE",
   "self_type" : "_ZTIN7android8internal7details17HasToStringMethodINSt3__16vectorIhNS3_9allocatorIhEEEEE6$valueE",
   "size" : 4,
   "source_file" : "frameworks/native/libs/binder/ndk/include_cpp/android/binder_to_string.h",
   "underlying_type" : "_ZTIj"
  },
  {
   "alignment" : 4,
   "enum_fields" :
   [
    {
     "enum_field_value" : 0,
     "name" : "android::internal::details::HasToStringMethod<std::vector<int>>::value"
    }
   ],
   "linker_set_key" : "_ZTIN7android8internal7details17HasToStringMethodINSt3__16vectorIiNS3_9allocatorIiEEEEE6$valueE",
   "name" : "android::internal::details::HasToStringMethod<std::vector<int, std::allocator<int>>>::(unnamed enum at frameworks/native/libs/binder/ndk/include_cpp/android/binder_to_string.h:77:5)",
   "referenced_type" : "_ZTIN7android8internal7details17HasToStringMethodINSt3__16vectorIiNS3_9allocatorIiEEEEE6$valueE",
   "self_type" : "_ZTIN7android8internal7details17HasToStringMethodINSt3__16vectorIiNS3_9allocatorIiEEEEE6$valueE",
   "size" : 4,
   "source_file" : "frameworks/native/libs/binder/ndk/include_cpp/android/binder_to_string.h",
   "underlying_type" : "_ZTIj"
  },
  {
   "alignment" : 4,
   "enum_fields" :
   [
    {
     "enum_field_value" : 0,
     "name" : "android::internal::details::HasToStringMethod<std::vector<long long>>::value"
    }
   ],
   "linker_set_key" : "_ZTIN7android8internal7details17HasToStringMethodINSt3__16vectorIxNS3_9allocatorIxEEEEE6$valueE",
   "name" : "android::internal::details::HasToStringMethod<std::vector<long long, std::allocator<long long>>>::(unnamed enum at frameworks/native/libs/binder/ndk/include_cpp/android/binder_to_string.h:77:5)",
   "referenced_type" : "_ZTIN7android8internal7details17HasToStringMethodINSt3__16vectorIxNS3_9allocatorIxEEEEE6$valueE",
   "self_type" : "_ZTIN7android8internal7details17HasToStringMethodINSt3__16vectorIxNS3_9allocatorIxEEEEE6$valueE",
   "size" : 4,
   "source_file" : "frameworks/native/libs/binder/ndk/include_cpp/android/binder_to_string.h",
   "underlying_type" : "_ZTIj"
  },
  {
   "alignment" : 4,
   "enum_fields" :
   [
    {
     "enum_field_value" : 1,
     "name" : "android::internal::details::HasToStringFunction<aidl::android::hardware::graphics::common::PixelFormat>::value"
    }
   ],
   "linker_set_key" : "_ZTIN7android8internal7details19HasToStringFunctionIN4aidl7android8hardware8graphics6common11PixelFormatEE6$valueE",
   "name" : "android::internal::details::HasToStringFunction<aidl::android::hardware::graphics::common::PixelFormat>::(unnamed enum at frameworks/native/libs/binder/ndk/include_cpp/android/binder_to_string.h:89:5)",
   "referenced_type" : "_ZTIN7android8internal7details19HasToStringFunctionIN4aidl7android8hardware8graphics6common11PixelFormatEE6$valueE",
   "self_type" : "_ZTIN7android8internal7details19HasToStringFunctionIN4aidl7android8hardware8graphics6common11PixelFormatEE6$valueE",
   "size" : 4,
   "source_file" : "frameworks/native/libs/binder/ndk/include_cpp/android/binder_to_string.h",
   "underlying_type" : "_ZTIj"
  },
  {
   "alignment" : 4,
   "enum_fields" :
   [
    {
     "enum_field_value" : 1,
     "name" : "android::internal::details::HasToStringFunction<aidl::android::hardware::graphics::common::AlphaInterpretation>::value"
    }
   ],
   "linker_set_key" : "_ZTIN7android8internal7details19HasToStringFunctionIN4aidl7android8hardware8graphics6common19AlphaInterpretationEE6$valueE",
   "name" : "android::internal::details::HasToStringFunction<aidl::android::hardware::graphics::common::AlphaInterpretation>::(unnamed enum at frameworks/native/libs/binder/ndk/include_cpp/android/binder_to_string.h:89:5)",
   "referenced_type" : "_ZTIN7android8internal7details19HasToStringFunctionIN4aidl7android8hardware8graphics6common19AlphaInterpretationEE6$valueE",
   "self_type" : "_ZTIN7android8internal7details19HasToStringFunctionIN4aidl7android8hardware8graphics6common19AlphaInterpretationEE6$valueE",
   "size" : 4,
   "source_file" : "frameworks/native/libs/binder/ndk/include_cpp/android/binder_to_string.h",
   "underlying_type" : "_ZTIj"
  },
  {
   "alignment" : 4,
   "enum_fields" :
   [
    {
     "enum_field_value" : 1,
     "name" : "android::internal::details::HasToStringFunction<aidl::android::hardware::graphics::common::Hdr>::value"
    }
   ],
   "linker_set_key" : "_ZTIN7android8internal7details19HasToStringFunctionIN4aidl7android8hardware8graphics6common3HdrEE6$valueE",
   "name" : "android::internal::details::HasToStringFunction<aidl::android::hardware::graphics::common::Hdr>::(unnamed enum at frameworks/native/libs/binder/ndk/include_cpp/android/binder_to_string.h:89:5)",
   "referenced_type" : "_ZTIN7android8internal7details19HasToStringFunctionIN4aidl7android8hardware8graphics6common3HdrEE6$valueE",
   "self_type" : "_ZTIN7android8internal7details19HasToStringFunctionIN4aidl7android8hardware8graphics6common3HdrEE6$valueE",
   "size" : 4,
   "source_file" : "frameworks/native/libs/binder/ndk/include_cpp/android/binder_to_string.h",
   "underlying_type" : "_ZTIj"
  },
  {
   "alignment" : 4,
   "enum_fields" :
   [
    {
     "enum_field_value" : 1,
     "name" : "android::internal::details::HasToStringFunction<aidl::android::hardware::graphics::common::BlendMode>::value"
    }
   ],
   "linker_set_key" : "_ZTIN7android8internal7details19HasToStringFunctionIN4aidl7android8hardware8graphics6common9BlendModeEE6$valueE",
   "name" : "android::internal::details::HasToStringFunction<aidl::android::hardware::graphics::common::BlendMode>::(unnamed enum at frameworks/native/libs/binder/ndk/include_cpp/android/binder_to_string.h:89:5)",
   "referenced_type" : "_ZTIN7android8internal7details19HasToStringFunctionIN4aidl7android8hardware8graphics6common9BlendModeEE6$valueE",
   "self_type" : "_ZTIN7android8internal7details19HasToStringFunctionIN4aidl7android8hardware8graphics6common9BlendModeEE6$valueE",
   "size" : 4,
   "source_file" : "frameworks/native/libs/binder/ndk/include_cpp/android/binder_to_string.h",
   "underlying_type" : "_ZTIj"
  },
  {
   "alignment" : 4,
   "enum_fields" :
   [
    {
     "enum_field_value" : 1,
     "name" : "android::internal::details::HasToStringFunction<aidl::android::hardware::graphics::common::Dataspace>::value"
    }
   ],
   "linker_set_key" : "_ZTIN7android8internal7details19HasToStringFunctionIN4aidl7android8hardware8graphics6common9DataspaceEE6$valueE",
   "name" : "android::internal::details::HasToStringFunction<aidl::android::hardware::graphics::common::Dataspace>::(unnamed enum at frameworks/native/libs/binder/ndk/include_cpp/android/binder_to_string.h:89:5)",
   "referenced_type" : "_ZTIN7android8internal7details19HasToStringFunctionIN4aidl7android8hardware8graphics6common9DataspaceEE6$valueE",
   "self_type" : "_ZTIN7android8internal7details19HasToStringFunctionIN4aidl7android8hardware8graphics6common9DataspaceEE6$valueE",
   "size" : 4,
   "source_file" : "frameworks/native/libs/binder/ndk/include_cpp/android/binder_to_string.h",
   "underlying_type" : "_ZTIj"
  },
  {
   "alignment" : 4,
   "enum_fields" :
   [
    {
     "enum_field_value" : 1,
     "name" : "android::internal::details::HasToStringFunction<aidl::android::hardware::graphics::common::Transform>::value"
    }
   ],
   "linker_set_key" : "_ZTIN7android8internal7details19HasToStringFunctionIN4aidl7android8hardware8graphics6common9TransformEE6$valueE",
   "name" : "android::internal::details::HasToStringFunction<aidl::android::hardware::graphics::common::Transform>::(unnamed enum at frameworks/native/libs/binder/ndk/include_cpp/android/binder_to_string.h:89:5)",
   "referenced_type" : "_ZTIN7android8internal7details19HasToStringFunctionIN4aidl7android8hardware8graphics6common9TransformEE6$valueE",
   "self_type" : "_ZTIN7android8internal7details19HasToStringFunctionIN4aidl7android8hardware8graphics6common9TransformEE6$valueE",
   "size" : 4,
   "source_file" : "frameworks/native/libs/binder/ndk/include_cpp/android/binder_to_string.h",
   "underlying_type" : "_ZTIj"
  },
  {
   "alignment" : 4,
   "enum_fields" :
   [
    {
     "enum_field_value" : 1,
     "name" : "android::internal::details::HasToStringFunction<aidl::android::hardware::graphics::composer3::Composition>::value"
    }
   ],
   "linker_set_key" : "_ZTIN7android8internal7details19HasToStringFunctionIN4aidl7android8hardware8graphics9composer311CompositionEE6$valueE",
   "name" : "android::internal::details::HasToStringFunction<aidl::android::hardware::graphics::composer3::Composition>::(unnamed enum at frameworks/native/libs/binder/ndk/include_cpp/android/binder_to_string.h:89:5)",
   "referenced_type" : "_ZTIN7android8internal7details19HasToStringFunctionIN4aidl7android8hardware8graphics9composer311CompositionEE6$valueE",
   "self_type" : "_ZTIN7android8internal7details19HasToStringFunctionIN4aidl7android8hardware8graphics9composer311CompositionEE6$valueE",
   "size" : 4,
   "source_file" : "frameworks/native/libs/binder/ndk/include_cpp/android/binder_to_string.h",
   "underlying_type" : "_ZTIj"
  },
  {
   "alignment" : 4,
   "enum_fields" :
   [
    {
     "enum_field_value" : 1,
     "name" : "android::internal::details::HasToStringFunction<aidl::android::hardware::graphics::composer3::DimmingStage>::value"
    }
   ],
   "linker_set_key" : "_ZTIN7android8internal7details19HasToStringFunctionIN4aidl7android8hardware8graphics9composer312DimmingStageEE6$valueE",
   "name" : "android::internal::details::HasToStringFunction<aidl::android::hardware::graphics::composer3::DimmingStage>::(unnamed enum at frameworks/native/libs/binder/ndk/include_cpp/android/binder_to_string.h:89:5)",
   "referenced_type" : "_ZTIN7android8internal7details19HasToStringFunctionIN4aidl7android8hardware8graphics9composer312DimmingStageEE6$valueE",
   "self_type" : "_ZTIN7android8internal7details19HasToStringFunctionIN4aidl7android8hardware8graphics9composer312DimmingStageEE6$valueE",
   "size" : 4,
   "source_file" : "frameworks/native/libs/binder/ndk/include_cpp/android/binder_to_string.h",
   "underlying_type" : "_ZTIj"
  },
  {
   "alignment" : 4,
   "enum_fields" :
   [
    {
     "enum_field_value" : 1,
     "name" : "android::internal::details::HasToStringFunction<aidl::android::hardware::graphics::composer3::PresentOrValidate::Result>::value"
    }
   ],
   "linker_set_key" : "_ZTIN7android8internal7details19HasToStringFunctionIN4aidl7android8hardware8graphics9composer317PresentOrValidate6ResultEE6$valueE",
   "name" : "android::internal::details::HasToStringFunction<aidl::android::hardware::graphics::composer3::PresentOrValidate::Result>::(unnamed enum at frameworks/native/libs/binder/ndk/include_cpp/android/binder_to_string.h:89:5)",
   "referenced_type" : "_ZTIN7android8internal7details19HasToStringFunctionIN4aidl7android8hardware8graphics9composer317PresentOrValidate6ResultEE6$valueE",
   "self_type" : "_ZTIN7android8internal7details19HasToStringFunctionIN4aidl7android8hardware8graphics9composer317PresentOrValidate6ResultEE6$valueE",
   "size" : 4,
   "source_file" : "frameworks/native/libs/binder/ndk/include_cpp/android/binder_to_string.h",
   "underlying_type" : "_ZTIj"
  },
  {
   "alignment" : 4,
   "enum_fields" :
   [
    {
     "enum_field_value" : 1,
     "name" : "android::internal::details::HasToStringFunction<aidl::android::hardware::graphics::composer3::PerFrameMetadataKey>::value"
    }
   ],
   "linker_set_key" : "_ZTIN7android8internal7details19HasToStringFunctionIN4aidl7android8hardware8graphics9composer319PerFrameMetadataKeyEE6$valueE",
   "name" : "android::internal::details::HasToStringFunction<aidl::android::hardware::graphics::composer3::PerFrameMetadataKey>::(unnamed enum at frameworks/native/libs/binder/ndk/include_cpp/android/binder_to_string.h:89:5)",
   "referenced_type" : "_ZTIN7android8internal7details19HasToStringFunctionIN4aidl7android8hardware8graphics9composer319PerFrameMetadataKeyEE6$valueE",
   "self_type" : "_ZTIN7android8internal7details19HasToStringFunctionIN4aidl7android8hardware8graphics9composer319PerFrameMetadataKeyEE6$valueE",
   "size" : 4,
   "source_file" : "frameworks/native/libs/binder/ndk/include_cpp/android/binder_to_string.h",
   "underlying_type" : "_ZTIj"
  },
  {
   "alignment" : 4,
   "enum_fields" :
   [
    {
     "enum_field_value" : 1,
     "name" : "android::internal::details::HasToStringFunction<aidl::android::hardware::graphics::composer3::FormatColorComponent>::value"
    }
   ],
   "linker_set_key" : "_ZTIN7android8internal7details19HasToStringFunctionIN4aidl7android8hardware8graphics9composer320FormatColorComponentEE6$valueE",
   "name" : "android::internal::details::HasToStringFunction<aidl::android::hardware::graphics::composer3::FormatColorComponent>::(unnamed enum at frameworks/native/libs/binder/ndk/include_cpp/android/binder_to_string.h:89:5)",
   "referenced_type" : "_ZTIN7android8internal7details19HasToStringFunctionIN4aidl7android8hardware8graphics9composer320FormatColorComponentEE6$valueE",
   "self_type" : "_ZTIN7android8internal7details19HasToStringFunctionIN4aidl7android8hardware8graphics9composer320FormatColorComponentEE6$valueE",
   "size" : 4,
   "source_file" : "frameworks/native/libs/binder/ndk/include_cpp/android/binder_to_string.h",
   "underlying_type" : "_ZTIj"
  },
  {
   "alignment" : 4,
   "enum_fields" :
   [
    {
     "enum_field_value" : 0,
     "name" : "android::internal::details::HasToStringFunction<std::vector<ndk::ScopedFileDescriptor>>::value"
    }
   ],
   "linker_set_key" : "_ZTIN7android8internal7details19HasToStringFunctionINSt3__16vectorIN3ndk20ScopedFileDescriptorENS3_9allocatorIS6_EEEEE6$valueE",
   "name" : "android::internal::details::HasToStringFunction<std::vector<ndk::ScopedFileDescriptor, std::allocator<ndk::ScopedFileDescriptor>>>::(unnamed enum at frameworks/native/libs/binder/ndk/include_cpp/android/binder_to_string.h:89:5)",
   "referenced_type" : "_ZTIN7android8internal7details19HasToStringFunctionINSt3__16vectorIN3ndk20ScopedFileDescriptorENS3_9allocatorIS6_EEEEE6$valueE",
   "self_type" : "_ZTIN7android8internal7details19HasToStringFunctionINSt3__16vectorIN3ndk20ScopedFileDescriptorENS3_9allocatorIS6_EEEEE6$valueE",
   "size" : 4,
   "source_file" : "frameworks/native/libs/binder/ndk/include_cpp/android/binder_to_string.h",
   "underlying_type" : "_ZTIj"
  },
  {
   "alignment" : 4,
   "enum_fields" :
   [
    {
     "enum_field_value" : 0,
     "name" : "android::internal::details::HasToStringFunction<std::vector<aidl::android::hardware::graphics::common::Hdr>>::value"
    }
   ],
   "linker_set_key" : "_ZTIN7android8internal7details19HasToStringFunctionINSt3__16vectorIN4aidl7android8hardware8graphics6common3HdrENS3_9allocatorISA_EEEEE6$valueE",
   "name" : "android::internal::details::HasToStringFunction<std::vector<aidl::android::hardware::graphics::common::Hdr, std::allocator<aidl::android::hardware::graphics::common::Hdr>>>::(unnamed enum at frameworks/native/libs/binder/ndk/include_cpp/android/binder_to_string.h:89:5)",
   "referenced_type" : "_ZTIN7android8internal7details19HasToStringFunctionINSt3__16vectorIN4aidl7android8hardware8graphics6common3HdrENS3_9allocatorISA_EEEEE6$valueE",
   "self_type" : "_ZTIN7android8internal7details19HasToStringFunctionINSt3__16vectorIN4aidl7android8hardware8graphics6common3HdrENS3_9allocatorISA_EEEEE6$valueE",
   "size" : 4,
   "source_file" : "frameworks/native/libs/binder/ndk/include_cpp/android/binder_to_string.h",
   "underlying_type" : "_ZTIj"
  },
  {
   "alignment" : 4,
   "enum_fields" :
   [
    {
     "enum_field_value" : 0,
     "name" : "android::internal::details::HasToStringFunction<std::vector<aidl::android::hardware::graphics::common::Rect>>::value"
    }
   ],
   "linker_set_key" : "_ZTIN7android8internal7details19HasToStringFunctionINSt3__16vectorIN4aidl7android8hardware8graphics6common4RectENS3_9allocatorISA_EEEEE6$valueE",
   "name" : "android::internal::details::HasToStringFunction<std::vector<aidl::android::hardware::graphics::common::Rect, std::allocator<aidl::android::hardware::graphics::common::Rect>>>::(unnamed enum at frameworks/native/libs/binder/ndk/include_cpp/android/binder_to_string.h:89:5)",
   "referenced_type" : "_ZTIN7android8internal7details19HasToStringFunctionINSt3__16vectorIN4aidl7android8hardware8graphics6common4RectENS3_9allocatorISA_EEEEE6$valueE",
   "self_type" : "_ZTIN7android8internal7details19HasToStringFunctionINSt3__16vectorIN4aidl7android8hardware8graphics6common4RectENS3_9allocatorISA_EEEEE6$valueE",
   "size" : 4,
   "source_file" : "frameworks/native/libs/binder/ndk/include_cpp/android/binder_to_string.h",
   "underlying_type" : "_ZTIj"
  },
  {
   "alignment" : 4,
   "enum_fields" :
   [
    {
     "enum_field_value" : 0,
     "name" : "android::internal::details::HasToStringFunction<std::vector<aidl::android::hardware::graphics::composer3::LayerCommand>>::value"
    }
   ],
   "linker_set_key" : "_ZTIN7android8internal7details19HasToStringFunctionINSt3__16vectorIN4aidl7android8hardware8graphics9composer312LayerCommandENS3_9allocatorISA_EEEEE6$valueE",
   "name" : "android::internal::details::HasToStringFunction<std::vector<aidl::android::hardware::graphics::composer3::LayerCommand, std::allocator<aidl::android::hardware::graphics::composer3::LayerCommand>>>::(unnamed enum at frameworks/native/libs/binder/ndk/include_cpp/android/binder_to_string.h:89:5)",
   "referenced_type" : "_ZTIN7android8internal7details19HasToStringFunctionINSt3__16vectorIN4aidl7android8hardware8graphics9composer312LayerCommandENS3_9allocatorISA_EEEEE6$valueE",
   "self_type" : "_ZTIN7android8internal7details19HasToStringFunctionINSt3__16vectorIN4aidl7android8hardware8graphics9composer312LayerCommandENS3_9allocatorISA_EEEEE6$valueE",
   "size" : 4,
   "source_file" : "frameworks/native/libs/binder/ndk/include_cpp/android/binder_to_string.h",
   "underlying_type" : "_ZTIj"
  },
  {
   "alignment" : 4,
   "enum_fields" :
   [
    {
     "enum_field_value" : 0,
     "name" : "android::internal::details::HasToStringFunction<std::vector<aidl::android::hardware::graphics::composer3::ReleaseFences::Layer>>::value"
    }
   ],
   "linker_set_key" : "_ZTIN7android8internal7details19HasToStringFunctionINSt3__16vectorIN4aidl7android8hardware8graphics9composer313ReleaseFences5LayerENS3_9allocatorISB_EEEEE6$valueE",
   "name" : "android::internal::details::HasToStringFunction<std::vector<aidl::android::hardware::graphics::composer3::ReleaseFences::Layer, std::allocator<aidl::android::hardware::graphics::composer3::ReleaseFences::Layer>>>::(unnamed enum at frameworks/native/libs/binder/ndk/include_cpp/android/binder_to_string.h:89:5)",
   "referenced_type" : "_ZTIN7android8internal7details19HasToStringFunctionINSt3__16vectorIN4aidl7android8hardware8graphics9composer313ReleaseFences5LayerENS3_9allocatorISB_EEEEE6$valueE",
   "self_type" : "_ZTIN7android8internal7details19HasToStringFunctionINSt3__16vectorIN4aidl7android8hardware8graphics9composer313ReleaseFences5LayerENS3_9allocatorISB_EEEEE6$valueE",
   "size" : 4,
   "source_file" : "frameworks/native/libs/binder/ndk/include_cpp/android/binder_to_string.h",
   "underlying_type" : "_ZTIj"
  },
  {
   "alignment" : 4,
   "enum_fields" :
   [
    {
     "enum_field_value" : 0,
     "name" : "android::internal::details::HasToStringFunction<std::vector<aidl::android::hardware::graphics::composer3::DisplayRequest::LayerRequest>>::value"
    }
   ],
   "linker_set_key" : "_ZTIN7android8internal7details19HasToStringFunctionINSt3__16vectorIN4aidl7android8hardware8graphics9composer314DisplayRequest12LayerRequestENS3_9allocatorISB_EEEEE6$valueE",
   "name" : "android::internal::details::HasToStringFunction<std::vector<aidl::android::hardware::graphics::composer3::DisplayRequest::LayerRequest, std::allocator<aidl::android::hardware::graphics::composer3::DisplayRequest::LayerRequest>>>::(unnamed enum at frameworks/native/libs/binder/ndk/include_cpp/android/binder_to_string.h:89:5)",
   "referenced_type" : "_ZTIN7android8internal7details19HasToStringFunctionINSt3__16vectorIN4aidl7android8hardware8graphics9composer314DisplayRequest12LayerRequestENS3_9allocatorISB_EEEEE6$valueE",
   "self_type" : "_ZTIN7android8internal7details19HasToStringFunctionINSt3__16vectorIN4aidl7android8hardware8graphics9composer314DisplayRequest12LayerRequestENS3_9allocatorISB_EEEEE6$valueE",
   "size" : 4,
   "source_file" : "frameworks/native/libs/binder/ndk/include_cpp/android/binder_to_string.h",
   "underlying_type" : "_ZTIj"
  },
  {
   "alignment" : 4,
   "enum_fields" :
   [
    {
     "enum_field_value" : 0,
     "name" : "android::internal::details::HasToStringFunction<std::vector<aidl::android::hardware::graphics::composer3::ChangedCompositionLayer>>::value"
    }
   ],
   "linker_set_key" : "_ZTIN7android8internal7details19HasToStringFunctionINSt3__16vectorIN4aidl7android8hardware8graphics9composer323ChangedCompositionLayerENS3_9allocatorISA_EEEEE6$valueE",
   "name" : "android::internal::details::HasToStringFunction<std::vector<aidl::android::hardware::graphics::composer3::ChangedCompositionLayer, std::allocator<aidl::android::hardware::graphics::composer3::ChangedCompositionLayer>>>::(unnamed enum at frameworks/native/libs/binder/ndk/include_cpp/android/binder_to_string.h:89:5)",
   "referenced_type" : "_ZTIN7android8internal7details19HasToStringFunctionINSt3__16vectorIN4aidl7android8hardware8graphics9composer323ChangedCompositionLayerENS3_9allocatorISA_EEEEE6$valueE",
   "self_type" : "_ZTIN7android8internal7details19HasToStringFunctionINSt3__16vectorIN4aidl7android8hardware8graphics9composer323ChangedCompositionLayerENS3_9allocatorISA_EEEEE6$valueE",
   "size" : 4,
   "source_file" : "frameworks/native/libs/binder/ndk/include_cpp/android/binder_to_string.h",
   "underlying_type" : "_ZTIj"
  },
  {
   "alignment" : 4,
   "enum_fields" :
   [
    {
     "enum_field_value" : 0,
     "name" : "android::internal::details::HasToStringFunction<std::vector<std::optional<aidl::android::hardware::graphics::common::Rect>>>::value"
    }
   ],
   "linker_set_key" : "_ZTIN7android8internal7details19HasToStringFunctionINSt3__16vectorINS3_8optionalIN4aidl7android8hardware8graphics6common4RectEEENS3_9allocatorISC_EEEEE6$valueE",
   "name" : "android::internal::details::HasToStringFunction<std::vector<std::optional<aidl::android::hardware::graphics::common::Rect>, std::allocator<std::optional<aidl::android::hardware::graphics::common::Rect>>>>::(unnamed enum at frameworks/native/libs/binder/ndk/include_cpp/android/binder_to_string.h:89:5)",
   "referenced_type" : "_ZTIN7android8internal7details19HasToStringFunctionINSt3__16vectorINS3_8optionalIN4aidl7android8hardware8graphics6common4RectEEENS3_9allocatorISC_EEEEE6$valueE",
   "self_type" : "_ZTIN7android8internal7details19HasToStringFunctionINSt3__16vectorINS3_8optionalIN4aidl7android8hardware8graphics6common4RectEEENS3_9allocatorISC_EEEEE6$valueE",
   "size" : 4,
   "source_file" : "frameworks/native/libs/binder/ndk/include_cpp/android/binder_to_string.h",
   "underlying_type" : "_ZTIj"
  },
  {
   "alignment" : 4,
   "enum_fields" :
   [
    {
     "enum_field_value" : 0,
     "name" : "android::internal::details::HasToStringFunction<std::vector<std::optional<aidl::android::hardware::graphics::composer3::PerFrameMetadata>>>::value"
    }
   ],
   "linker_set_key" : "_ZTIN7android8internal7details19HasToStringFunctionINSt3__16vectorINS3_8optionalIN4aidl7android8hardware8graphics9composer316PerFrameMetadataEEENS3_9allocatorISC_EEEEE6$valueE",
   "name" : "android::internal::details::HasToStringFunction<std::vector<std::optional<aidl::android::hardware::graphics::composer3::PerFrameMetadata>, std::allocator<std::optional<aidl::android::hardware::graphics::composer3::PerFrameMetadata>>>>::(unnamed enum at frameworks/native/libs/binder/ndk/include_cpp/android/binder_to_string.h:89:5)",
   "referenced_type" : "_ZTIN7android8internal7details19HasToStringFunctionINSt3__16vectorINS3_8optionalIN4aidl7android8hardware8graphics9composer316PerFrameMetadataEEENS3_9allocatorISC_EEEEE6$valueE",
   "self_type" : "_ZTIN7android8internal7details19HasToStringFunctionINSt3__16vectorINS3_8optionalIN4aidl7android8hardware8graphics9composer316PerFrameMetadataEEENS3_9allocatorISC_EEEEE6$valueE",
   "size" : 4,
   "source_file" : "frameworks/native/libs/binder/ndk/include_cpp/android/binder_to_string.h",
   "underlying_type" : "_ZTIj"
  },
  {
   "alignment" : 4,
   "enum_fields" :
   [
    {
     "enum_field_value" : 0,
     "name" : "android::internal::details::HasToStringFunction<std::vector<std::optional<aidl::android::hardware::graphics::composer3::PerFrameMetadataBlob>>>::value"
    }
   ],
   "linker_set_key" : "_ZTIN7android8internal7details19HasToStringFunctionINSt3__16vectorINS3_8optionalIN4aidl7android8hardware8graphics9composer320PerFrameMetadataBlobEEENS3_9allocatorISC_EEEEE6$valueE",
   "name" : "android::internal::details::HasToStringFunction<std::vector<std::optional<aidl::android::hardware::graphics::composer3::PerFrameMetadataBlob>, std::allocator<std::optional<aidl::android::hardware::graphics::composer3::PerFrameMetadataBlob>>>>::(unnamed enum at frameworks/native/libs/binder/ndk/include_cpp/android/binder_to_string.h:89:5)",
   "referenced_type" : "_ZTIN7android8internal7details19HasToStringFunctionINSt3__16vectorINS3_8optionalIN4aidl7android8hardware8graphics9composer320PerFrameMetadataBlobEEENS3_9allocatorISC_EEEEE6$valueE",
   "self_type" : "_ZTIN7android8internal7details19HasToStringFunctionINSt3__16vectorINS3_8optionalIN4aidl7android8hardware8graphics9composer320PerFrameMetadataBlobEEENS3_9allocatorISC_EEEEE6$valueE",
   "size" : 4,
   "source_file" : "frameworks/native/libs/binder/ndk/include_cpp/android/binder_to_string.h",
   "underlying_type" : "_ZTIj"
  },
  {
   "alignment" : 4,
   "enum_fields" :
   [
    {
     "enum_field_value" : 0,
     "name" : "android::internal::details::HasToStringFunction<std::vector<float>>::value"
    }
   ],
   "linker_set_key" : "_ZTIN7android8internal7details19HasToStringFunctionINSt3__16vectorIfNS3_9allocatorIfEEEEE6$valueE",
   "name" : "android::internal::details::HasToStringFunction<std::vector<float, std::allocator<float>>>::(unnamed enum at frameworks/native/libs/binder/ndk/include_cpp/android/binder_to_string.h:89:5)",
   "referenced_type" : "_ZTIN7android8internal7details19HasToStringFunctionINSt3__16vectorIfNS3_9allocatorIfEEEEE6$valueE",
   "self_type" : "_ZTIN7android8internal7details19HasToStringFunctionINSt3__16vectorIfNS3_9allocatorIfEEEEE6$valueE",
   "size" : 4,
   "source_file" : "frameworks/native/libs/binder/ndk/include_cpp/android/binder_to_string.h",
   "underlying_type" : "_ZTIj"
  },
  {
   "alignment" : 4,
   "enum_fields" :
   [
    {
     "enum_field_value" : 0,
     "name" : "android::internal::details::HasToStringFunction<std::vector<unsigned char>>::value"
    }
   ],
   "linker_set_key" : "_ZTIN7android8internal7details19HasToStringFunctionINSt3__16vectorIhNS3_9allocatorIhEEEEE6$valueE",
   "name" : "android::internal::details::HasToStringFunction<std::vector<unsigned char, std::allocator<unsigned char>>>::(unnamed enum at frameworks/native/libs/binder/ndk/include_cpp/android/binder_to_string.h:89:5)",
   "referenced_type" : "_ZTIN7android8internal7details19HasToStringFunctionINSt3__16vectorIhNS3_9allocatorIhEEEEE6$valueE",
   "self_type" : "_ZTIN7android8internal7details19HasToStringFunctionINSt3__16vectorIhNS3_9allocatorIhEEEEE6$valueE",
   "size" : 4,
   "source_file" : "frameworks/native/libs/binder/ndk/include_cpp/android/binder_to_string.h",
   "underlying_type" : "_ZTIj"
  },
  {
   "alignment" : 4,
   "enum_fields" :
   [
    {
     "enum_field_value" : 0,
     "name" : "android::internal::details::HasToStringFunction<std::vector<int>>::value"
    }
   ],
   "linker_set_key" : "_ZTIN7android8internal7details19HasToStringFunctionINSt3__16vectorIiNS3_9allocatorIiEEEEE6$valueE",
   "name" : "android::internal::details::HasToStringFunction<std::vector<int, std::allocator<int>>>::(unnamed enum at frameworks/native/libs/binder/ndk/include_cpp/android/binder_to_string.h:89:5)",
   "referenced_type" : "_ZTIN7android8internal7details19HasToStringFunctionINSt3__16vectorIiNS3_9allocatorIiEEEEE6$valueE",
   "self_type" : "_ZTIN7android8internal7details19HasToStringFunctionINSt3__16vectorIiNS3_9allocatorIiEEEEE6$valueE",
   "size" : 4,
   "source_file" : "frameworks/native/libs/binder/ndk/include_cpp/android/binder_to_string.h",
   "underlying_type" : "_ZTIj"
  },
  {
   "alignment" : 4,
   "enum_fields" :
   [
    {
     "enum_field_value" : 0,
     "name" : "android::internal::details::HasToStringFunction<std::vector<long long>>::value"
    }
   ],
   "linker_set_key" : "_ZTIN7android8internal7details19HasToStringFunctionINSt3__16vectorIxNS3_9allocatorIxEEEEE6$valueE",
   "name" : "android::internal::details::HasToStringFunction<std::vector<long long, std::allocator<long long>>>::(unnamed enum at frameworks/native/libs/binder/ndk/include_cpp/android/binder_to_string.h:89:5)",
   "referenced_type" : "_ZTIN7android8internal7details19HasToStringFunctionINSt3__16vectorIxNS3_9allocatorIxEEEEE6$valueE",
   "self_type" : "_ZTIN7android8internal7details19HasToStringFunctionINSt3__16vectorIxNS3_9allocatorIxEEEEE6$valueE",
   "size" : 4,
   "source_file" : "frameworks/native/libs/binder/ndk/include_cpp/android/binder_to_string.h",
   "underlying_type" : "_ZTIj"
  }
 ],
 "function_types" :
 [
  {
   "alignment" : 4,
   "linker_set_key" : "_ZTIFiP8AIBinderjPK7AParcelPS1_E",
   "name" : "int (AIBinder *, unsigned int, const AParcel *, AParcel *)",
   "parameters" :
   [
    {
     "referenced_type" : "_ZTIP8AIBinder"
    },
    {
     "referenced_type" : "_ZTIj"
    },
    {
     "referenced_type" : "_ZTIPK7AParcel"
    },
    {
     "referenced_type" : "_ZTIP7AParcel"
    }
   ],
   "referenced_type" : "_ZTIFiP8AIBinderjPK7AParcelPS1_E",
   "return_type" : "_ZTIi",
   "self_type" : "_ZTIFiP8AIBinderjPK7AParcelPS1_E",
   "source_file" : "frameworks/native/libs/binder/ndk/include_cpp/android/binder_interface_utils.h"
  }
 ],
 "functions" :
 [
  {
   "function_name" : "ndk::BnCInterface<aidl::android::hardware::graphics::composer3::IComposerClient>::asBinder",
   "linker_set_key" : "_ZN3ndk12BnCInterfaceIN4aidl7android8hardware8graphics9composer315IComposerClientEE8asBinderEv",
   "parameters" :
   [
    {
     "is_this_ptr" : true,
     "referenced_type" : "_ZTIPN3ndk12BnCInterfaceIN4aidl7android8hardware8graphics9composer315IComposerClientEEE"
    }
   ],
   "return_type" : "_ZTIN3ndk10SpAIBinderE",
   "source_file" : "frameworks/native/libs/binder/ndk/include_cpp/android/binder_interface_utils.h"
  },
  {
   "function_name" : "ndk::BnCInterface<aidl::android::hardware::graphics::composer3::IComposerCallback>::asBinder",
   "linker_set_key" : "_ZN3ndk12BnCInterfaceIN4aidl7android8hardware8graphics9composer317IComposerCallbackEE8asBinderEv",
   "parameters" :
   [
    {
     "is_this_ptr" : true,
     "referenced_type" : "_ZTIPN3ndk12BnCInterfaceIN4aidl7android8hardware8graphics9composer317IComposerCallbackEEE"
    }
   ],
   "return_type" : "_ZTIN3ndk10SpAIBinderE",
   "source_file" : "frameworks/native/libs/binder/ndk/include_cpp/android/binder_interface_utils.h"
  },
  {
   "function_name" : "ndk::BnCInterface<aidl::android::hardware::graphics::composer3::IComposer>::asBinder",
   "linker_set_key" : "_ZN3ndk12BnCInterfaceIN4aidl7android8hardware8graphics9composer39IComposerEE8asBinderEv",
   "parameters" :
   [
    {
     "is_this_ptr" : true,
     "referenced_type" : "_ZTIPN3ndk12BnCInterfaceIN4aidl7android8hardware8graphics9composer39IComposerEEE"
    }
   ],
   "return_type" : "_ZTIN3ndk10SpAIBinderE",
   "source_file" : "frameworks/native/libs/binder/ndk/include_cpp/android/binder_interface_utils.h"
  },
  {
   "function_name" : "ndk::BpCInterface<aidl::android::hardware::graphics::composer3::IComposerClient>::asBinder",
   "linker_set_key" : "_ZN3ndk12BpCInterfaceIN4aidl7android8hardware8graphics9composer315IComposerClientEE8asBinderEv",
   "parameters" :
   [
    {
     "is_this_ptr" : true,
     "referenced_type" : "_ZTIPN3ndk12BpCInterfaceIN4aidl7android8hardware8graphics9composer315IComposerClientEEE"
    }
   ],
   "return_type" : "_ZTIN3ndk10SpAIBinderE",
   "source_file" : "frameworks/native/libs/binder/ndk/include_cpp/android/binder_interface_utils.h"
  },
  {
   "function_name" : "ndk::BpCInterface<aidl::android::hardware::graphics::composer3::IComposerCallback>::asBinder",
   "linker_set_key" : "_ZN3ndk12BpCInterfaceIN4aidl7android8hardware8graphics9composer317IComposerCallbackEE8asBinderEv",
   "parameters" :
   [
    {
     "is_this_ptr" : true,
     "referenced_type" : "_ZTIPN3ndk12BpCInterfaceIN4aidl7android8hardware8graphics9composer317IComposerCallbackEEE"
    }
   ],
   "return_type" : "_ZTIN3ndk10SpAIBinderE",
   "source_file" : "frameworks/native/libs/binder/ndk/include_cpp/android/binder_interface_utils.h"
  },
  {
   "function_name" : "ndk::BpCInterface<aidl::android::hardware::graphics::composer3::IComposer>::asBinder",
   "linker_set_key" : "_ZN3ndk12BpCInterfaceIN4aidl7android8hardware8graphics9composer39IComposerEE8asBinderEv",
   "parameters" :
   [
    {
     "is_this_ptr" : true,
     "referenced_type" : "_ZTIPN3ndk12BpCInterfaceIN4aidl7android8hardware8graphics9composer39IComposerEEE"
    }
   ],
   "return_type" : "_ZTIN3ndk10SpAIBinderE",
   "source_file" : "frameworks/native/libs/binder/ndk/include_cpp/android/binder_interface_utils.h"
  },
  {
   "function_name" : "ndk::AParcel_readStdVectorParcelableElement",
   "linker_set_key" : "_ZN3ndk38AParcel_readStdVectorParcelableElementIN4aidl7android8hardware8graphics6common4RectEEEiPK7AParcelPvj",
   "parameters" :
   [
    {
     "referenced_type" : "_ZTIPK7AParcel"
    },
    {
     "referenced_type" : "_ZTIPv"
    },
    {
     "referenced_type" : "_ZTIj"
    }
   ],
   "return_type" : "_ZTIi",
   "source_file" : "frameworks/native/libs/binder/ndk/include_cpp/android/binder_parcel_utils.h",
   "template_args" :
   [
    "_ZTIN4aidl7android8hardware8graphics6common4RectE"
   ]
  },
  {
   "function_name" : "ndk::AParcel_readStdVectorParcelableElement",
   "linker_set_key" : "_ZN3ndk38AParcel_readStdVectorParcelableElementIN4aidl7android8hardware8graphics9composer312LayerCommandEEEiPK7AParcelPvj",
   "parameters" :
   [
    {
     "referenced_type" : "_ZTIPK7AParcel"
    },
    {
     "referenced_type" : "_ZTIPv"
    },
    {
     "referenced_type" : "_ZTIj"
    }
   ],
   "return_type" : "_ZTIi",
   "source_file" : "frameworks/native/libs/binder/ndk/include_cpp/android/binder_parcel_utils.h",
   "template_args" :
   [
    "_ZTIN4aidl7android8hardware8graphics9composer312LayerCommandE"
   ]
  },
  {
   "function_name" : "ndk::AParcel_readStdVectorParcelableElement",
   "linker_set_key" : "_ZN3ndk38AParcel_readStdVectorParcelableElementIN4aidl7android8hardware8graphics9composer313ReleaseFences5LayerEEEiPK7AParcelPvj",
   "parameters" :
   [
    {
     "referenced_type" : "_ZTIPK7AParcel"
    },
    {
     "referenced_type" : "_ZTIPv"
    },
    {
     "referenced_type" : "_ZTIj"
    }
   ],
   "return_type" : "_ZTIi",
   "source_file" : "frameworks/native/libs/binder/ndk/include_cpp/android/binder_parcel_utils.h",
   "template_args" :
   [
    "_ZTIN4aidl7android8hardware8graphics9composer313ReleaseFences5LayerE"
   ]
  },
  {
   "function_name" : "ndk::AParcel_readStdVectorParcelableElement",
   "linker_set_key" : "_ZN3ndk38AParcel_readStdVectorParcelableElementIN4aidl7android8hardware8graphics9composer314DisplayCommandEEEiPK7AParcelPvj",
   "parameters" :
   [
    {
     "referenced_type" : "_ZTIPK7AParcel"
    },
    {
     "referenced_type" : "_ZTIPv"
    },
    {
     "referenced_type" : "_ZTIj"
    }
   ],
   "return_type" : "_ZTIi",
   "source_file" : "frameworks/native/libs/binder/ndk/include_cpp/android/binder_parcel_utils.h",
   "template_args" :
   [
    "_ZTIN4aidl7android8hardware8graphics9composer314DisplayCommandE"
   ]
  },
  {
   "function_name" : "ndk::AParcel_readStdVectorParcelableElement",
   "linker_set_key" : "_ZN3ndk38AParcel_readStdVectorParcelableElementIN4aidl7android8hardware8graphics9composer314DisplayRequest12LayerRequestEEEiPK7AParcelPvj",
   "parameters" :
   [
    {
     "referenced_type" : "_ZTIPK7AParcel"
    },
    {
     "referenced_type" : "_ZTIPv"
    },
    {
     "referenced_type" : "_ZTIj"
    }
   ],
   "return_type" : "_ZTIi",
   "source_file" : "frameworks/native/libs/binder/ndk/include_cpp/android/binder_parcel_utils.h",
   "template_args" :
   [
    "_ZTIN4aidl7android8hardware8graphics9composer314DisplayRequest12LayerRequestE"
   ]
  },
  {
   "function_name" : "ndk::AParcel_readStdVectorParcelableElement",
   "linker_set_key" : "_ZN3ndk38AParcel_readStdVectorParcelableElementIN4aidl7android8hardware8graphics9composer320CommandResultPayloadEEEiPK7AParcelPvj",
   "parameters" :
   [
    {
     "referenced_type" : "_ZTIPK7AParcel"
    },
    {
     "referenced_type" : "_ZTIPv"
    },
    {
     "referenced_type" : "_ZTIj"
    }
   ],
   "return_type" : "_ZTIi",
   "source_file" : "frameworks/native/libs/binder/ndk/include_cpp/android/binder_parcel_utils.h",
   "template_args" :
   [
    "_ZTIN4aidl7android8hardware8graphics9composer320CommandResultPayloadE"
   ]
  },
  {
   "function_name" : "ndk::AParcel_readStdVectorParcelableElement",
   "linker_set_key" : "_ZN3ndk38AParcel_readStdVectorParcelableElementIN4aidl7android8hardware8graphics9composer323ChangedCompositionLayerEEEiPK7AParcelPvj",
   "parameters" :
   [
    {
     "referenced_type" : "_ZTIPK7AParcel"
    },
    {
     "referenced_type" : "_ZTIPv"
    },
    {
     "referenced_type" : "_ZTIj"
    }
   ],
   "return_type" : "_ZTIi",
   "source_file" : "frameworks/native/libs/binder/ndk/include_cpp/android/binder_parcel_utils.h",
   "template_args" :
   [
    "_ZTIN4aidl7android8hardware8graphics9composer323ChangedCompositionLayerE"
   ]
  },
  {
   "function_name" : "ndk::AParcel_writeStdVectorParcelableElement",
   "linker_set_key" : "_ZN3ndk39AParcel_writeStdVectorParcelableElementIN4aidl7android8hardware8graphics6common4RectEEEiP7AParcelPKvj",
   "parameters" :
   [
    {
     "referenced_type" : "_ZTIP7AParcel"
    },
    {
     "referenced_type" : "_ZTIPKv"
    },
    {
     "referenced_type" : "_ZTIj"
    }
   ],
   "return_type" : "_ZTIi",
   "source_file" : "frameworks/native/libs/binder/ndk/include_cpp/android/binder_parcel_utils.h",
   "template_args" :
   [
    "_ZTIN4aidl7android8hardware8graphics6common4RectE"
   ]
  },
  {
   "function_name" : "ndk::AParcel_writeStdVectorParcelableElement",
   "linker_set_key" : "_ZN3ndk39AParcel_writeStdVectorParcelableElementIN4aidl7android8hardware8graphics9composer312LayerCommandEEEiP7AParcelPKvj",
   "parameters" :
   [
    {
     "referenced_type" : "_ZTIP7AParcel"
    },
    {
     "referenced_type" : "_ZTIPKv"
    },
    {
     "referenced_type" : "_ZTIj"
    }
   ],
   "return_type" : "_ZTIi",
   "source_file" : "frameworks/native/libs/binder/ndk/include_cpp/android/binder_parcel_utils.h",
   "template_args" :
   [
    "_ZTIN4aidl7android8hardware8graphics9composer312LayerCommandE"
   ]
  },
  {
   "function_name" : "ndk::AParcel_writeStdVectorParcelableElement",
   "linker_set_key" : "_ZN3ndk39AParcel_writeStdVectorParcelableElementIN4aidl7android8hardware8graphics9composer313ReleaseFences5LayerEEEiP7AParcelPKvj",
   "parameters" :
   [
    {
     "referenced_type" : "_ZTIP7AParcel"
    },
    {
     "referenced_type" : "_ZTIPKv"
    },
    {
     "referenced_type" : "_ZTIj"
    }
   ],
   "return_type" : "_ZTIi",
   "source_file" : "frameworks/native/libs/binder/ndk/include_cpp/android/binder_parcel_utils.h",
   "template_args" :
   [
    "_ZTIN4aidl7android8hardware8graphics9composer313ReleaseFences5LayerE"
   ]
  },
  {
   "function_name" : "ndk::AParcel_writeStdVectorParcelableElement",
   "linker_set_key" : "_ZN3ndk39AParcel_writeStdVectorParcelableElementIN4aidl7android8hardware8graphics9composer314DisplayCommandEEEiP7AParcelPKvj",
   "parameters" :
   [
    {
     "referenced_type" : "_ZTIP7AParcel"
    },
    {
     "referenced_type" : "_ZTIPKv"
    },
    {
     "referenced_type" : "_ZTIj"
    }
   ],
   "return_type" : "_ZTIi",
   "source_file" : "frameworks/native/libs/binder/ndk/include_cpp/android/binder_parcel_utils.h",
   "template_args" :
   [
    "_ZTIN4aidl7android8hardware8graphics9composer314DisplayCommandE"
   ]
  },
  {
   "function_name" : "ndk::AParcel_writeStdVectorParcelableElement",
   "linker_set_key" : "_ZN3ndk39AParcel_writeStdVectorParcelableElementIN4aidl7android8hardware8graphics9composer314DisplayRequest12LayerRequestEEEiP7AParcelPKvj",
   "parameters" :
   [
    {
     "referenced_type" : "_ZTIP7AParcel"
    },
    {
     "referenced_type" : "_ZTIPKv"
    },
    {
     "referenced_type" : "_ZTIj"
    }
   ],
   "return_type" : "_ZTIi",
   "source_file" : "frameworks/native/libs/binder/ndk/include_cpp/android/binder_parcel_utils.h",
   "template_args" :
   [
    "_ZTIN4aidl7android8hardware8graphics9composer314DisplayRequest12LayerRequestE"
   ]
  },
  {
   "function_name" : "ndk::AParcel_writeStdVectorParcelableElement",
   "linker_set_key" : "_ZN3ndk39AParcel_writeStdVectorParcelableElementIN4aidl7android8hardware8graphics9composer320CommandResultPayloadEEEiP7AParcelPKvj",
   "parameters" :
   [
    {
     "referenced_type" : "_ZTIP7AParcel"
    },
    {
     "referenced_type" : "_ZTIPKv"
    },
    {
     "referenced_type" : "_ZTIj"
    }
   ],
   "return_type" : "_ZTIi",
   "source_file" : "frameworks/native/libs/binder/ndk/include_cpp/android/binder_parcel_utils.h",
   "template_args" :
   [
    "_ZTIN4aidl7android8hardware8graphics9composer320CommandResultPayloadE"
   ]
  },
  {
   "function_name" : "ndk::AParcel_writeStdVectorParcelableElement",
   "linker_set_key" : "_ZN3ndk39AParcel_writeStdVectorParcelableElementIN4aidl7android8hardware8graphics9composer323ChangedCompositionLayerEEEiP7AParcelPKvj",
   "parameters" :
   [
    {
     "referenced_type" : "_ZTIP7AParcel"
    },
    {
     "referenced_type" : "_ZTIPKv"
    },
    {
     "referenced_type" : "_ZTIj"
    }
   ],
   "return_type" : "_ZTIi",
   "source_file" : "frameworks/native/libs/binder/ndk/include_cpp/android/binder_parcel_utils.h",
   "template_args" :
   [
    "_ZTIN4aidl7android8hardware8graphics9composer323ChangedCompositionLayerE"
   ]
  },
  {
   "function_name" : "ndk::AParcel_readNullableStdVectorParcelableElement",
   "linker_set_key" : "_ZN3ndk46AParcel_readNullableStdVectorParcelableElementINSt3__18optionalIN4aidl7android8hardware8graphics6common4RectEEEEEiPK7AParcelPvj",
   "parameters" :
   [
    {
     "referenced_type" : "_ZTIPK7AParcel"
    },
    {
     "referenced_type" : "_ZTIPv"
    },
    {
     "referenced_type" : "_ZTIj"
    }
   ],
   "return_type" : "_ZTIi",
   "source_file" : "frameworks/native/libs/binder/ndk/include_cpp/android/binder_parcel_utils.h",
   "template_args" :
   [
    "_ZTINSt3__18optionalIN4aidl7android8hardware8graphics6common4RectEEE"
   ]
  },
  {
   "function_name" : "ndk::AParcel_readNullableStdVectorParcelableElement",
   "linker_set_key" : "_ZN3ndk46AParcel_readNullableStdVectorParcelableElementINSt3__18optionalIN4aidl7android8hardware8graphics9composer316PerFrameMetadataEEEEEiPK7AParcelPvj",
   "parameters" :
   [
    {
     "referenced_type" : "_ZTIPK7AParcel"
    },
    {
     "referenced_type" : "_ZTIPv"
    },
    {
     "referenced_type" : "_ZTIj"
    }
   ],
   "return_type" : "_ZTIi",
   "source_file" : "frameworks/native/libs/binder/ndk/include_cpp/android/binder_parcel_utils.h",
   "template_args" :
   [
    "_ZTINSt3__18optionalIN4aidl7android8hardware8graphics9composer316PerFrameMetadataEEE"
   ]
  },
  {
   "function_name" : "ndk::AParcel_readNullableStdVectorParcelableElement",
   "linker_set_key" : "_ZN3ndk46AParcel_readNullableStdVectorParcelableElementINSt3__18optionalIN4aidl7android8hardware8graphics9composer320PerFrameMetadataBlobEEEEEiPK7AParcelPvj",
   "parameters" :
   [
    {
     "referenced_type" : "_ZTIPK7AParcel"
    },
    {
     "referenced_type" : "_ZTIPv"
    },
    {
     "referenced_type" : "_ZTIj"
    }
   ],
   "return_type" : "_ZTIi",
   "source_file" : "frameworks/native/libs/binder/ndk/include_cpp/android/binder_parcel_utils.h",
   "template_args" :
   [
    "_ZTINSt3__18optionalIN4aidl7android8hardware8graphics9composer320PerFrameMetadataBlobEEE"
   ]
  },
  {
   "function_name" : "ndk::AParcel_writeNullableStdVectorParcelableElement",
   "linker_set_key" : "_ZN3ndk47AParcel_writeNullableStdVectorParcelableElementINSt3__18optionalIN4aidl7android8hardware8graphics6common4RectEEEEEiP7AParcelPKvj",
   "parameters" :
   [
    {
     "referenced_type" : "_ZTIP7AParcel"
    },
    {
     "referenced_type" : "_ZTIPKv"
    },
    {
     "referenced_type" : "_ZTIj"
    }
   ],
   "return_type" : "_ZTIi",
   "source_file" : "frameworks/native/libs/binder/ndk/include_cpp/android/binder_parcel_utils.h",
   "template_args" :
   [
    "_ZTINSt3__18optionalIN4aidl7android8hardware8graphics6common4RectEEE"
   ]
  },
  {
   "function_name" : "ndk::AParcel_writeNullableStdVectorParcelableElement",
   "linker_set_key" : "_ZN3ndk47AParcel_writeNullableStdVectorParcelableElementINSt3__18optionalIN4aidl7android8hardware8graphics9composer316PerFrameMetadataEEEEEiP7AParcelPKvj",
   "parameters" :
   [
    {
     "referenced_type" : "_ZTIP7AParcel"
    },
    {
     "referenced_type" : "_ZTIPKv"
    },
    {
     "referenced_type" : "_ZTIj"
    }
   ],
   "return_type" : "_ZTIi",
   "source_file" : "frameworks/native/libs/binder/ndk/include_cpp/android/binder_parcel_utils.h",
   "template_args" :
   [
    "_ZTINSt3__18optionalIN4aidl7android8hardware8graphics9composer316PerFrameMetadataEEE"
   ]
  },
  {
   "function_name" : "ndk::AParcel_writeNullableStdVectorParcelableElement",
   "linker_set_key" : "_ZN3ndk47AParcel_writeNullableStdVectorParcelableElementINSt3__18optionalIN4aidl7android8hardware8graphics9composer320PerFrameMetadataBlobEEEEEiP7AParcelPKvj",
   "parameters" :
   [
    {
     "referenced_type" : "_ZTIP7AParcel"
    },
    {
     "referenced_type" : "_ZTIPKv"
    },
    {
     "referenced_type" : "_ZTIj"
    }
   ],
   "return_type" : "_ZTIi",
   "source_file" : "frameworks/native/libs/binder/ndk/include_cpp/android/binder_parcel_utils.h",
   "template_args" :
   [
    "_ZTINSt3__18optionalIN4aidl7android8hardware8graphics9composer320PerFrameMetadataBlobEEE"
   ]
  },
  {
   "access" : "protected",
   "function_name" : "aidl::android::hardware::graphics::composer3::BnComposer::createBinder",
   "linker_set_key" : "_ZN4aidl7android8hardware8graphics9composer310BnComposer12createBinderEv",
   "parameters" :
   [
    {
     "is_this_ptr" : true,
     "referenced_type" : "_ZTIPN4aidl7android8hardware8graphics9composer310BnComposerE"
    }
   ],
   "return_type" : "_ZTIN3ndk10SpAIBinderE",
   "source_file" : "out/soong/.intermediates/hardware/interfaces/graphics/composer/aidl/android.hardware.graphics.composer3-V1-ndk-source/gen/include/aidl/android/hardware/graphics/composer3/BnComposer.h"
  },
  {
   "function_name" : "aidl::android::hardware::graphics::composer3::BnComposer::getInterfaceHash",
   "linker_set_key" : "_ZN4aidl7android8hardware8graphics9composer310BnComposer16getInterfaceHashEPNSt3__112basic_stringIcNS5_11char_traitsIcEENS5_9allocatorIcEEEE",
   "parameters" :
   [
    {
     "is_this_ptr" : true,
     "referenced_type" : "_ZTIPN4aidl7android8hardware8graphics9composer310BnComposerE"
    },
    {
     "referenced_type" : "_ZTIPNSt3__112basic_stringIcNS_11char_traitsIcEENS_9allocatorIcEEEE"
    }
   ],
   "return_type" : "_ZTIN3ndk13ScopedAStatusE",
   "source_file" : "out/soong/.intermediates/hardware/interfaces/graphics/composer/aidl/android.hardware.graphics.composer3-V1-ndk-source/gen/include/aidl/android/hardware/graphics/composer3/BnComposer.h"
  },
  {
   "function_name" : "aidl::android::hardware::graphics::composer3::BnComposer::getInterfaceVersion",
   "linker_set_key" : "_ZN4aidl7android8hardware8graphics9composer310BnComposer19getInterfaceVersionEPi",
   "parameters" :
   [
    {
     "is_this_ptr" : true,
     "referenced_type" : "_ZTIPN4aidl7android8hardware8graphics9composer310BnComposerE"
    },
    {
     "referenced_type" : "_ZTIPi"
    }
   ],
   "return_type" : "_ZTIN3ndk13ScopedAStatusE",
   "source_file" : "out/soong/.intermediates/hardware/interfaces/graphics/composer/aidl/android.hardware.graphics.composer3-V1-ndk-source/gen/include/aidl/android/hardware/graphics/composer3/BnComposer.h"
  },
  {
   "function_name" : "aidl::android::hardware::graphics::composer3::BnComposer::BnComposer",
   "linker_set_key" : "_ZN4aidl7android8hardware8graphics9composer310BnComposerC2Ev",
   "parameters" :
   [
    {
     "is_this_ptr" : true,
     "referenced_type" : "_ZTIPN4aidl7android8hardware8graphics9composer310BnComposerE"
    }
   ],
   "return_type" : "_ZTIv",
   "source_file" : "out/soong/.intermediates/hardware/interfaces/graphics/composer/aidl/android.hardware.graphics.composer3-V1-ndk-source/gen/include/aidl/android/hardware/graphics/composer3/BnComposer.h"
  },
  {
   "function_name" : "aidl::android::hardware::graphics::composer3::BnComposer::~BnComposer",
   "linker_set_key" : "_ZN4aidl7android8hardware8graphics9composer310BnComposerD0Ev",
   "parameters" :
   [
    {
     "is_this_ptr" : true,
     "referenced_type" : "_ZTIPN4aidl7android8hardware8graphics9composer310BnComposerE"
    }
   ],
   "return_type" : "_ZTIv",
   "source_file" : "out/soong/.intermediates/hardware/interfaces/graphics/composer/aidl/android.hardware.graphics.composer3-V1-ndk-source/gen/include/aidl/android/hardware/graphics/composer3/BnComposer.h"
  },
  {
   "function_name" : "aidl::android::hardware::graphics::composer3::BnComposer::~BnComposer",
   "linker_set_key" : "_ZN4aidl7android8hardware8graphics9composer310BnComposerD1Ev",
   "parameters" :
   [
    {
     "is_this_ptr" : true,
     "referenced_type" : "_ZTIPN4aidl7android8hardware8graphics9composer310BnComposerE"
    }
   ],
   "return_type" : "_ZTIv",
   "source_file" : "out/soong/.intermediates/hardware/interfaces/graphics/composer/aidl/android.hardware.graphics.composer3-V1-ndk-source/gen/include/aidl/android/hardware/graphics/composer3/BnComposer.h"
  },
  {
   "function_name" : "aidl::android::hardware::graphics::composer3::BnComposer::~BnComposer",
   "linker_set_key" : "_ZN4aidl7android8hardware8graphics9composer310BnComposerD2Ev",
   "parameters" :
   [
    {
     "is_this_ptr" : true,
     "referenced_type" : "_ZTIPN4aidl7android8hardware8graphics9composer310BnComposerE"
    }
   ],
   "return_type" : "_ZTIv",
   "source_file" : "out/soong/.intermediates/hardware/interfaces/graphics/composer/aidl/android.hardware.graphics.composer3-V1-ndk-source/gen/include/aidl/android/hardware/graphics/composer3/BnComposer.h"
  },
  {
   "function_name" : "aidl::android::hardware::graphics::composer3::BpComposer::createClient",
   "linker_set_key" : "_ZN4aidl7android8hardware8graphics9composer310BpComposer12createClientEPNSt3__110shared_ptrINS3_15IComposerClientEEE",
   "parameters" :
   [
    {
     "is_this_ptr" : true,
     "referenced_type" : "_ZTIPN4aidl7android8hardware8graphics9composer310BpComposerE"
    },
    {
     "referenced_type" : "_ZTIPNSt3__110shared_ptrIN4aidl7android8hardware8graphics9composer315IComposerClientEEE"
    }
   ],
   "return_type" : "_ZTIN3ndk13ScopedAStatusE",
   "source_file" : "out/soong/.intermediates/hardware/interfaces/graphics/composer/aidl/android.hardware.graphics.composer3-V1-ndk-source/gen/include/aidl/android/hardware/graphics/composer3/BpComposer.h"
  },
  {
   "function_name" : "aidl::android::hardware::graphics::composer3::BpComposer::getCapabilities",
   "linker_set_key" : "_ZN4aidl7android8hardware8graphics9composer310BpComposer15getCapabilitiesEPNSt3__16vectorINS3_10CapabilityENS5_9allocatorIS7_EEEE",
   "parameters" :
   [
    {
     "is_this_ptr" : true,
     "referenced_type" : "_ZTIPN4aidl7android8hardware8graphics9composer310BpComposerE"
    },
    {
     "referenced_type" : "_ZTIPNSt3__16vectorIN4aidl7android8hardware8graphics9composer310CapabilityENS_9allocatorIS6_EEEE"
    }
   ],
   "return_type" : "_ZTIN3ndk13ScopedAStatusE",
   "source_file" : "out/soong/.intermediates/hardware/interfaces/graphics/composer/aidl/android.hardware.graphics.composer3-V1-ndk-source/gen/include/aidl/android/hardware/graphics/composer3/BpComposer.h"
  },
  {
   "function_name" : "aidl::android::hardware::graphics::composer3::BpComposer::getInterfaceHash",
   "linker_set_key" : "_ZN4aidl7android8hardware8graphics9composer310BpComposer16getInterfaceHashEPNSt3__112basic_stringIcNS5_11char_traitsIcEENS5_9allocatorIcEEEE",
   "parameters" :
   [
    {
     "is_this_ptr" : true,
     "referenced_type" : "_ZTIPN4aidl7android8hardware8graphics9composer310BpComposerE"
    },
    {
     "referenced_type" : "_ZTIPNSt3__112basic_stringIcNS_11char_traitsIcEENS_9allocatorIcEEEE"
    }
   ],
   "return_type" : "_ZTIN3ndk13ScopedAStatusE",
   "source_file" : "out/soong/.intermediates/hardware/interfaces/graphics/composer/aidl/android.hardware.graphics.composer3-V1-ndk-source/gen/include/aidl/android/hardware/graphics/composer3/BpComposer.h"
  },
  {
   "function_name" : "aidl::android::hardware::graphics::composer3::BpComposer::getInterfaceVersion",
   "linker_set_key" : "_ZN4aidl7android8hardware8graphics9composer310BpComposer19getInterfaceVersionEPi",
   "parameters" :
   [
    {
     "is_this_ptr" : true,
     "referenced_type" : "_ZTIPN4aidl7android8hardware8graphics9composer310BpComposerE"
    },
    {
     "referenced_type" : "_ZTIPi"
    }
   ],
   "return_type" : "_ZTIN3ndk13ScopedAStatusE",
   "source_file" : "out/soong/.intermediates/hardware/interfaces/graphics/composer/aidl/android.hardware.graphics.composer3-V1-ndk-source/gen/include/aidl/android/hardware/graphics/composer3/BpComposer.h"
  },
  {
   "function_name" : "aidl::android::hardware::graphics::composer3::BpComposer::BpComposer",
   "linker_set_key" : "_ZN4aidl7android8hardware8graphics9composer310BpComposerC1ERKN3ndk10SpAIBinderE",
   "parameters" :
   [
    {
     "is_this_ptr" : true,
     "referenced_type" : "_ZTIPN4aidl7android8hardware8graphics9composer310BpComposerE"
    },
    {
     "referenced_type" : "_ZTIRKN3ndk10SpAIBinderE"
    }
   ],
   "return_type" : "_ZTIv",
   "source_file" : "out/soong/.intermediates/hardware/interfaces/graphics/composer/aidl/android.hardware.graphics.composer3-V1-ndk-source/gen/include/aidl/android/hardware/graphics/composer3/BpComposer.h"
  },
  {
   "function_name" : "aidl::android::hardware::graphics::composer3::BpComposer::BpComposer",
   "linker_set_key" : "_ZN4aidl7android8hardware8graphics9composer310BpComposerC2ERKN3ndk10SpAIBinderE",
   "parameters" :
   [
    {
     "is_this_ptr" : true,
     "referenced_type" : "_ZTIPN4aidl7android8hardware8graphics9composer310BpComposerE"
    },
    {
     "referenced_type" : "_ZTIRKN3ndk10SpAIBinderE"
    }
   ],
   "return_type" : "_ZTIv",
   "source_file" : "out/soong/.intermediates/hardware/interfaces/graphics/composer/aidl/android.hardware.graphics.composer3-V1-ndk-source/gen/include/aidl/android/hardware/graphics/composer3/BpComposer.h"
  },
  {
   "function_name" : "aidl::android::hardware::graphics::composer3::BpComposer::~BpComposer",
   "linker_set_key" : "_ZN4aidl7android8hardware8graphics9composer310BpComposerD0Ev",
   "parameters" :
   [
    {
     "is_this_ptr" : true,
     "referenced_type" : "_ZTIPN4aidl7android8hardware8graphics9composer310BpComposerE"
    }
   ],
   "return_type" : "_ZTIv",
   "source_file" : "out/soong/.intermediates/hardware/interfaces/graphics/composer/aidl/android.hardware.graphics.composer3-V1-ndk-source/gen/include/aidl/android/hardware/graphics/composer3/BpComposer.h"
  },
  {
   "function_name" : "aidl::android::hardware::graphics::composer3::BpComposer::~BpComposer",
   "linker_set_key" : "_ZN4aidl7android8hardware8graphics9composer310BpComposerD1Ev",
   "parameters" :
   [
    {
     "is_this_ptr" : true,
     "referenced_type" : "_ZTIPN4aidl7android8hardware8graphics9composer310BpComposerE"
    }
   ],
   "return_type" : "_ZTIv",
   "source_file" : "out/soong/.intermediates/hardware/interfaces/graphics/composer/aidl/android.hardware.graphics.composer3-V1-ndk-source/gen/include/aidl/android/hardware/graphics/composer3/BpComposer.h"
  },
  {
   "function_name" : "aidl::android::hardware::graphics::composer3::BpComposer::~BpComposer",
   "linker_set_key" : "_ZN4aidl7android8hardware8graphics9composer310BpComposerD2Ev",
   "parameters" :
   [
    {
     "is_this_ptr" : true,
     "referenced_type" : "_ZTIPN4aidl7android8hardware8graphics9composer310BpComposerE"
    }
   ],
   "return_type" : "_ZTIv",
   "source_file" : "out/soong/.intermediates/hardware/interfaces/graphics/composer/aidl/android.hardware.graphics.composer3-V1-ndk-source/gen/include/aidl/android/hardware/graphics/composer3/BpComposer.h"
  },
  {
   "function_name" : "aidl::android::hardware::graphics::composer3::PlaneAlpha::readFromParcel",
   "linker_set_key" : "_ZN4aidl7android8hardware8graphics9composer310PlaneAlpha14readFromParcelEPK7AParcel",
   "parameters" :
   [
    {
     "is_this_ptr" : true,
     "referenced_type" : "_ZTIPN4aidl7android8hardware8graphics9composer310PlaneAlphaE"
    },
    {
     "referenced_type" : "_ZTIPK7AParcel"
    }
   ],
   "return_type" : "_ZTIi",
   "source_file" : "out/soong/.intermediates/hardware/interfaces/graphics/composer/aidl/android.hardware.graphics.composer3-V1-ndk-source/gen/include/aidl/android/hardware/graphics/composer3/PlaneAlpha.h"
  },
  {
   "function_name" : "aidl::android::hardware::graphics::composer3::ClientTarget::readFromParcel",
   "linker_set_key" : "_ZN4aidl7android8hardware8graphics9composer312ClientTarget14readFromParcelEPK7AParcel",
   "parameters" :
   [
    {
     "is_this_ptr" : true,
     "referenced_type" : "_ZTIPN4aidl7android8hardware8graphics9composer312ClientTargetE"
    },
    {
     "referenced_type" : "_ZTIPK7AParcel"
    }
   ],
   "return_type" : "_ZTIi",
   "source_file" : "out/soong/.intermediates/hardware/interfaces/graphics/composer/aidl/android.hardware.graphics.composer3-V1-ndk-source/gen/include/aidl/android/hardware/graphics/composer3/ClientTarget.h"
  },
  {
   "function_name" : "aidl::android::hardware::graphics::composer3::CommandError::readFromParcel",
   "linker_set_key" : "_ZN4aidl7android8hardware8graphics9composer312CommandError14readFromParcelEPK7AParcel",
   "parameters" :
   [
    {
     "is_this_ptr" : true,
     "referenced_type" : "_ZTIPN4aidl7android8hardware8graphics9composer312CommandErrorE"
    },
    {
     "referenced_type" : "_ZTIPK7AParcel"
    }
   ],
   "return_type" : "_ZTIi",
   "source_file" : "out/soong/.intermediates/hardware/interfaces/graphics/composer/aidl/android.hardware.graphics.composer3-V1-ndk-source/gen/include/aidl/android/hardware/graphics/composer3/CommandError.h"
  },
  {
   "function_name" : "aidl::android::hardware::graphics::composer3::LayerCommand::readFromParcel",
   "linker_set_key" : "_ZN4aidl7android8hardware8graphics9composer312LayerCommand14readFromParcelEPK7AParcel",
   "parameters" :
   [
    {
     "is_this_ptr" : true,
     "referenced_type" : "_ZTIPN4aidl7android8hardware8graphics9composer312LayerCommandE"
    },
    {
     "referenced_type" : "_ZTIPK7AParcel"
    }
   ],
   "return_type" : "_ZTIi",
   "source_file" : "out/soong/.intermediates/hardware/interfaces/graphics/composer/aidl/android.hardware.graphics.composer3-V1-ndk-source/gen/include/aidl/android/hardware/graphics/composer3/LayerCommand.h"
  },
  {
   "function_name" : "aidl::android::hardware::graphics::composer3::PresentFence::readFromParcel",
   "linker_set_key" : "_ZN4aidl7android8hardware8graphics9composer312PresentFence14readFromParcelEPK7AParcel",
   "parameters" :
   [
    {
     "is_this_ptr" : true,
     "referenced_type" : "_ZTIPN4aidl7android8hardware8graphics9composer312PresentFenceE"
    },
    {
     "referenced_type" : "_ZTIPK7AParcel"
    }
   ],
   "return_type" : "_ZTIi",
   "source_file" : "out/soong/.intermediates/hardware/interfaces/graphics/composer/aidl/android.hardware.graphics.composer3-V1-ndk-source/gen/include/aidl/android/hardware/graphics/composer3/PresentFence.h"
  },
  {
   "function_name" : "aidl::android::hardware::graphics::composer3::ReleaseFences::readFromParcel",
   "linker_set_key" : "_ZN4aidl7android8hardware8graphics9composer313ReleaseFences14readFromParcelEPK7AParcel",
   "parameters" :
   [
    {
     "is_this_ptr" : true,
     "referenced_type" : "_ZTIPN4aidl7android8hardware8graphics9composer313ReleaseFencesE"
    },
    {
     "referenced_type" : "_ZTIPK7AParcel"
    }
   ],
   "return_type" : "_ZTIi",
   "source_file" : "out/soong/.intermediates/hardware/interfaces/graphics/composer/aidl/android.hardware.graphics.composer3-V1-ndk-source/gen/include/aidl/android/hardware/graphics/composer3/ReleaseFences.h"
  },
  {
   "function_name" : "aidl::android::hardware::graphics::composer3::ReleaseFences::Layer::readFromParcel",
   "linker_set_key" : "_ZN4aidl7android8hardware8graphics9composer313ReleaseFences5Layer14readFromParcelEPK7AParcel",
   "parameters" :
   [
    {
     "is_this_ptr" : true,
     "referenced_type" : "_ZTIPN4aidl7android8hardware8graphics9composer313ReleaseFences5LayerE"
    },
    {
     "referenced_type" : "_ZTIPK7AParcel"
    }
   ],
   "return_type" : "_ZTIi",
   "source_file" : "out/soong/.intermediates/hardware/interfaces/graphics/composer/aidl/android.hardware.graphics.composer3-V1-ndk-source/gen/include/aidl/android/hardware/graphics/composer3/ReleaseFences.h"
  },
  {
   "function_name" : "aidl::android::hardware::graphics::composer3::DisplayCommand::readFromParcel",
   "linker_set_key" : "_ZN4aidl7android8hardware8graphics9composer314DisplayCommand14readFromParcelEPK7AParcel",
   "parameters" :
   [
    {
     "is_this_ptr" : true,
     "referenced_type" : "_ZTIPN4aidl7android8hardware8graphics9composer314DisplayCommandE"
    },
    {
     "referenced_type" : "_ZTIPK7AParcel"
    }
   ],
   "return_type" : "_ZTIi",
   "source_file" : "out/soong/.intermediates/hardware/interfaces/graphics/composer/aidl/android.hardware.graphics.composer3-V1-ndk-source/gen/include/aidl/android/hardware/graphics/composer3/DisplayCommand.h"
  },
  {
   "function_name" : "aidl::android::hardware::graphics::composer3::DisplayRequest::LayerRequest::readFromParcel",
   "linker_set_key" : "_ZN4aidl7android8hardware8graphics9composer314DisplayRequest12LayerRequest14readFromParcelEPK7AParcel",
   "parameters" :
   [
    {
     "is_this_ptr" : true,
     "referenced_type" : "_ZTIPN4aidl7android8hardware8graphics9composer314DisplayRequest12LayerRequestE"
    },
    {
     "referenced_type" : "_ZTIPK7AParcel"
    }
   ],
   "return_type" : "_ZTIi",
   "source_file" : "out/soong/.intermediates/hardware/interfaces/graphics/composer/aidl/android.hardware.graphics.composer3-V1-ndk-source/gen/include/aidl/android/hardware/graphics/composer3/DisplayRequest.h"
  },
  {
   "function_name" : "aidl::android::hardware::graphics::composer3::DisplayRequest::readFromParcel",
   "linker_set_key" : "_ZN4aidl7android8hardware8graphics9composer314DisplayRequest14readFromParcelEPK7AParcel",
   "parameters" :
   [
    {
     "is_this_ptr" : true,
     "referenced_type" : "_ZTIPN4aidl7android8hardware8graphics9composer314DisplayRequestE"
    },
    {
     "referenced_type" : "_ZTIPK7AParcel"
    }
   ],
   "return_type" : "_ZTIi",
   "source_file" : "out/soong/.intermediates/hardware/interfaces/graphics/composer/aidl/android.hardware.graphics.composer3-V1-ndk-source/gen/include/aidl/android/hardware/graphics/composer3/DisplayRequest.h"
  },
  {
   "function_name" : "aidl::android::hardware::graphics::composer3::VirtualDisplay::readFromParcel",
   "linker_set_key" : "_ZN4aidl7android8hardware8graphics9composer314VirtualDisplay14readFromParcelEPK7AParcel",
   "parameters" :
   [
    {
     "is_this_ptr" : true,
     "referenced_type" : "_ZTIPN4aidl7android8hardware8graphics9composer314VirtualDisplayE"
    },
    {
     "referenced_type" : "_ZTIPK7AParcel"
    }
   ],
   "return_type" : "_ZTIi",
   "source_file" : "out/soong/.intermediates/hardware/interfaces/graphics/composer/aidl/android.hardware.graphics.composer3-V1-ndk-source/gen/include/aidl/android/hardware/graphics/composer3/VirtualDisplay.h"
  },
  {
   "function_name" : "aidl::android::hardware::graphics::composer3::HdrCapabilities::readFromParcel",
   "linker_set_key" : "_ZN4aidl7android8hardware8graphics9composer315HdrCapabilities14readFromParcelEPK7AParcel",
   "parameters" :
   [
    {
     "is_this_ptr" : true,
     "referenced_type" : "_ZTIPN4aidl7android8hardware8graphics9composer315HdrCapabilitiesE"
    },
    {
     "referenced_type" : "_ZTIPK7AParcel"
    }
   ],
   "return_type" : "_ZTIi",
   "source_file" : "out/soong/.intermediates/hardware/interfaces/graphics/composer/aidl/android.hardware.graphics.composer3-V1-ndk-source/gen/include/aidl/android/hardware/graphics/composer3/HdrCapabilities.h"
  },
  {
   "function_name" : "aidl::android::hardware::graphics::composer3::IComposerClient::fromBinder",
   "linker_set_key" : "_ZN4aidl7android8hardware8graphics9composer315IComposerClient10fromBinderERKN3ndk10SpAIBinderE",
   "parameters" :
   [
    {
     "referenced_type" : "_ZTIRKN3ndk10SpAIBinderE"
    }
   ],
   "return_type" : "_ZTINSt3__110shared_ptrIN4aidl7android8hardware8graphics9composer315IComposerClientEEE",
   "source_file" : "out/soong/.intermediates/hardware/interfaces/graphics/composer/aidl/android.hardware.graphics.composer3-V1-ndk-source/gen/include/aidl/android/hardware/graphics/composer3/IComposerClient.h"
  },
  {
   "function_name" : "aidl::android::hardware::graphics::composer3::IComposerClient::writeToParcel",
   "linker_set_key" : "_ZN4aidl7android8hardware8graphics9composer315IComposerClient13writeToParcelEP7AParcelRKNSt3__110shared_ptrIS4_EE",
   "parameters" :
   [
    {
     "referenced_type" : "_ZTIP7AParcel"
    },
    {
     "referenced_type" : "_ZTIRKNSt3__110shared_ptrIN4aidl7android8hardware8graphics9composer315IComposerClientEEE"
    }
   ],
   "return_type" : "_ZTIi",
   "source_file" : "out/soong/.intermediates/hardware/interfaces/graphics/composer/aidl/android.hardware.graphics.composer3-V1-ndk-source/gen/include/aidl/android/hardware/graphics/composer3/IComposerClient.h"
  },
  {
   "function_name" : "aidl::android::hardware::graphics::composer3::IComposerClient::getDefaultImpl",
   "linker_set_key" : "_ZN4aidl7android8hardware8graphics9composer315IComposerClient14getDefaultImplEv",
   "return_type" : "_ZTIRKNSt3__110shared_ptrIN4aidl7android8hardware8graphics9composer315IComposerClientEEE",
   "source_file" : "out/soong/.intermediates/hardware/interfaces/graphics/composer/aidl/android.hardware.graphics.composer3-V1-ndk-source/gen/include/aidl/android/hardware/graphics/composer3/IComposerClient.h"
  },
  {
   "function_name" : "aidl::android::hardware::graphics::composer3::IComposerClient::readFromParcel",
   "linker_set_key" : "_ZN4aidl7android8hardware8graphics9composer315IComposerClient14readFromParcelEPK7AParcelPNSt3__110shared_ptrIS4_EE",
   "parameters" :
   [
    {
     "referenced_type" : "_ZTIPK7AParcel"
    },
    {
     "referenced_type" : "_ZTIPNSt3__110shared_ptrIN4aidl7android8hardware8graphics9composer315IComposerClientEEE"
    }
   ],
   "return_type" : "_ZTIi",
   "source_file" : "out/soong/.intermediates/hardware/interfaces/graphics/composer/aidl/android.hardware.graphics.composer3-V1-ndk-source/gen/include/aidl/android/hardware/graphics/composer3/IComposerClient.h"
  },
  {
   "function_name" : "aidl::android::hardware::graphics::composer3::IComposerClient::setDefaultImpl",
   "linker_set_key" : "_ZN4aidl7android8hardware8graphics9composer315IComposerClient14setDefaultImplERKNSt3__110shared_ptrIS4_EE",
   "parameters" :
   [
    {
     "referenced_type" : "_ZTIRKNSt3__110shared_ptrIN4aidl7android8hardware8graphics9composer315IComposerClientEEE"
    }
   ],
   "return_type" : "_ZTIb",
   "source_file" : "out/soong/.intermediates/hardware/interfaces/graphics/composer/aidl/android.hardware.graphics.composer3-V1-ndk-source/gen/include/aidl/android/hardware/graphics/composer3/IComposerClient.h"
  },
  {
   "function_name" : "aidl::android::hardware::graphics::composer3::IComposerClient::IComposerClient",
   "linker_set_key" : "_ZN4aidl7android8hardware8graphics9composer315IComposerClientC2Ev",
   "parameters" :
   [
    {
     "is_this_ptr" : true,
     "referenced_type" : "_ZTIPN4aidl7android8hardware8graphics9composer315IComposerClientE"
    }
   ],
   "return_type" : "_ZTIv",
   "source_file" : "out/soong/.intermediates/hardware/interfaces/graphics/composer/aidl/android.hardware.graphics.composer3-V1-ndk-source/gen/include/aidl/android/hardware/graphics/composer3/IComposerClient.h"
  },
  {
   "function_name" : "aidl::android::hardware::graphics::composer3::IComposerClient::~IComposerClient",
   "linker_set_key" : "_ZN4aidl7android8hardware8graphics9composer315IComposerClientD0Ev",
   "parameters" :
   [
    {
     "is_this_ptr" : true,
     "referenced_type" : "_ZTIPN4aidl7android8hardware8graphics9composer315IComposerClientE"
    }
   ],
   "return_type" : "_ZTIv",
   "source_file" : "out/soong/.intermediates/hardware/interfaces/graphics/composer/aidl/android.hardware.graphics.composer3-V1-ndk-source/gen/include/aidl/android/hardware/graphics/composer3/IComposerClient.h"
  },
  {
   "function_name" : "aidl::android::hardware::graphics::composer3::IComposerClient::~IComposerClient",
   "linker_set_key" : "_ZN4aidl7android8hardware8graphics9composer315IComposerClientD1Ev",
   "parameters" :
   [
    {
     "is_this_ptr" : true,
     "referenced_type" : "_ZTIPN4aidl7android8hardware8graphics9composer315IComposerClientE"
    }
   ],
   "return_type" : "_ZTIv",
   "source_file" : "out/soong/.intermediates/hardware/interfaces/graphics/composer/aidl/android.hardware.graphics.composer3-V1-ndk-source/gen/include/aidl/android/hardware/graphics/composer3/IComposerClient.h"
  },
  {
   "function_name" : "aidl::android::hardware::graphics::composer3::IComposerClient::~IComposerClient",
   "linker_set_key" : "_ZN4aidl7android8hardware8graphics9composer315IComposerClientD2Ev",
   "parameters" :
   [
    {
     "is_this_ptr" : true,
     "referenced_type" : "_ZTIPN4aidl7android8hardware8graphics9composer315IComposerClientE"
    }
   ],
   "return_type" : "_ZTIv",
   "source_file" : "out/soong/.intermediates/hardware/interfaces/graphics/composer/aidl/android.hardware.graphics.composer3-V1-ndk-source/gen/include/aidl/android/hardware/graphics/composer3/IComposerClient.h"
  },
  {
   "function_name" : "aidl::android::hardware::graphics::composer3::LayerBrightness::readFromParcel",
   "linker_set_key" : "_ZN4aidl7android8hardware8graphics9composer315LayerBrightness14readFromParcelEPK7AParcel",
   "parameters" :
   [
    {
     "is_this_ptr" : true,
     "referenced_type" : "_ZTIPN4aidl7android8hardware8graphics9composer315LayerBrightnessE"
    },
    {
     "referenced_type" : "_ZTIPK7AParcel"
    }
   ],
   "return_type" : "_ZTIi",
   "source_file" : "out/soong/.intermediates/hardware/interfaces/graphics/composer/aidl/android.hardware.graphics.composer3-V1-ndk-source/gen/include/aidl/android/hardware/graphics/composer3/LayerBrightness.h"
  },
  {
   "access" : "protected",
   "function_name" : "aidl::android::hardware::graphics::composer3::BnComposerClient::createBinder",
   "linker_set_key" : "_ZN4aidl7android8hardware8graphics9composer316BnComposerClient12createBinderEv",
   "parameters" :
   [
    {
     "is_this_ptr" : true,
     "referenced_type" : "_ZTIPN4aidl7android8hardware8graphics9composer316BnComposerClientE"
    }
   ],
   "return_type" : "_ZTIN3ndk10SpAIBinderE",
   "source_file" : "out/soong/.intermediates/hardware/interfaces/graphics/composer/aidl/android.hardware.graphics.composer3-V1-ndk-source/gen/include/aidl/android/hardware/graphics/composer3/BnComposerClient.h"
  },
  {
   "function_name" : "aidl::android::hardware::graphics::composer3::BnComposerClient::getInterfaceHash",
   "linker_set_key" : "_ZN4aidl7android8hardware8graphics9composer316BnComposerClient16getInterfaceHashEPNSt3__112basic_stringIcNS5_11char_traitsIcEENS5_9allocatorIcEEEE",
   "parameters" :
   [
    {
     "is_this_ptr" : true,
     "referenced_type" : "_ZTIPN4aidl7android8hardware8graphics9composer316BnComposerClientE"
    },
    {
     "referenced_type" : "_ZTIPNSt3__112basic_stringIcNS_11char_traitsIcEENS_9allocatorIcEEEE"
    }
   ],
   "return_type" : "_ZTIN3ndk13ScopedAStatusE",
   "source_file" : "out/soong/.intermediates/hardware/interfaces/graphics/composer/aidl/android.hardware.graphics.composer3-V1-ndk-source/gen/include/aidl/android/hardware/graphics/composer3/BnComposerClient.h"
  },
  {
   "function_name" : "aidl::android::hardware::graphics::composer3::BnComposerClient::getInterfaceVersion",
   "linker_set_key" : "_ZN4aidl7android8hardware8graphics9composer316BnComposerClient19getInterfaceVersionEPi",
   "parameters" :
   [
    {
     "is_this_ptr" : true,
     "referenced_type" : "_ZTIPN4aidl7android8hardware8graphics9composer316BnComposerClientE"
    },
    {
     "referenced_type" : "_ZTIPi"
    }
   ],
   "return_type" : "_ZTIN3ndk13ScopedAStatusE",
   "source_file" : "out/soong/.intermediates/hardware/interfaces/graphics/composer/aidl/android.hardware.graphics.composer3-V1-ndk-source/gen/include/aidl/android/hardware/graphics/composer3/BnComposerClient.h"
  },
  {
   "function_name" : "aidl::android::hardware::graphics::composer3::BnComposerClient::BnComposerClient",
   "linker_set_key" : "_ZN4aidl7android8hardware8graphics9composer316BnComposerClientC2Ev",
   "parameters" :
   [
    {
     "is_this_ptr" : true,
     "referenced_type" : "_ZTIPN4aidl7android8hardware8graphics9composer316BnComposerClientE"
    }
   ],
   "return_type" : "_ZTIv",
   "source_file" : "out/soong/.intermediates/hardware/interfaces/graphics/composer/aidl/android.hardware.graphics.composer3-V1-ndk-source/gen/include/aidl/android/hardware/graphics/composer3/BnComposerClient.h"
  },
  {
   "function_name" : "aidl::android::hardware::graphics::composer3::BnComposerClient::~BnComposerClient",
   "linker_set_key" : "_ZN4aidl7android8hardware8graphics9composer316BnComposerClientD0Ev",
   "parameters" :
   [
    {
     "is_this_ptr" : true,
     "referenced_type" : "_ZTIPN4aidl7android8hardware8graphics9composer316BnComposerClientE"
    }
   ],
   "return_type" : "_ZTIv",
   "source_file" : "out/soong/.intermediates/hardware/interfaces/graphics/composer/aidl/android.hardware.graphics.composer3-V1-ndk-source/gen/include/aidl/android/hardware/graphics/composer3/BnComposerClient.h"
  },
  {
   "function_name" : "aidl::android::hardware::graphics::composer3::BnComposerClient::~BnComposerClient",
   "linker_set_key" : "_ZN4aidl7android8hardware8graphics9composer316BnComposerClientD1Ev",
   "parameters" :
   [
    {
     "is_this_ptr" : true,
     "referenced_type" : "_ZTIPN4aidl7android8hardware8graphics9composer316BnComposerClientE"
    }
   ],
   "return_type" : "_ZTIv",
   "source_file" : "out/soong/.intermediates/hardware/interfaces/graphics/composer/aidl/android.hardware.graphics.composer3-V1-ndk-source/gen/include/aidl/android/hardware/graphics/composer3/BnComposerClient.h"
  },
  {
   "function_name" : "aidl::android::hardware::graphics::composer3::BnComposerClient::~BnComposerClient",
   "linker_set_key" : "_ZN4aidl7android8hardware8graphics9composer316BnComposerClientD2Ev",
   "parameters" :
   [
    {
     "is_this_ptr" : true,
     "referenced_type" : "_ZTIPN4aidl7android8hardware8graphics9composer316BnComposerClientE"
    }
   ],
   "return_type" : "_ZTIv",
   "source_file" : "out/soong/.intermediates/hardware/interfaces/graphics/composer/aidl/android.hardware.graphics.composer3-V1-ndk-source/gen/include/aidl/android/hardware/graphics/composer3/BnComposerClient.h"
  },
  {
   "function_name" : "aidl::android::hardware::graphics::composer3::BpComposerClient::createLayer",
   "linker_set_key" : "_ZN4aidl7android8hardware8graphics9composer316BpComposerClient11createLayerExiPx",
   "parameters" :
   [
    {
     "is_this_ptr" : true,
     "referenced_type" : "_ZTIPN4aidl7android8hardware8graphics9composer316BpComposerClientE"
    },
    {
     "referenced_type" : "_ZTIx"
    },
    {
     "referenced_type" : "_ZTIi"
    },
    {
     "referenced_type" : "_ZTIPx"
    }
   ],
   "return_type" : "_ZTIN3ndk13ScopedAStatusE",
   "source_file" : "out/soong/.intermediates/hardware/interfaces/graphics/composer/aidl/android.hardware.graphics.composer3-V1-ndk-source/gen/include/aidl/android/hardware/graphics/composer3/BpComposerClient.h"
  },
  {
   "function_name" : "aidl::android::hardware::graphics::composer3::BpComposerClient::destroyLayer",
   "linker_set_key" : "_ZN4aidl7android8hardware8graphics9composer316BpComposerClient12destroyLayerExx",
   "parameters" :
   [
    {
     "is_this_ptr" : true,
     "referenced_type" : "_ZTIPN4aidl7android8hardware8graphics9composer316BpComposerClientE"
    },
    {
     "referenced_type" : "_ZTIx"
    },
    {
     "referenced_type" : "_ZTIx"
    }
   ],
   "return_type" : "_ZTIN3ndk13ScopedAStatusE",
   "source_file" : "out/soong/.intermediates/hardware/interfaces/graphics/composer/aidl/android.hardware.graphics.composer3-V1-ndk-source/gen/include/aidl/android/hardware/graphics/composer3/BpComposerClient.h"
  },
  {
   "function_name" : "aidl::android::hardware::graphics::composer3::BpComposerClient::setColorMode",
   "linker_set_key" : "_ZN4aidl7android8hardware8graphics9composer316BpComposerClient12setColorModeExNS3_9ColorModeENS3_12RenderIntentE",
   "parameters" :
   [
    {
     "is_this_ptr" : true,
     "referenced_type" : "_ZTIPN4aidl7android8hardware8graphics9composer316BpComposerClientE"
    },
    {
     "referenced_type" : "_ZTIx"
    },
    {
     "referenced_type" : "_ZTIN4aidl7android8hardware8graphics9composer39ColorModeE"
    },
    {
     "referenced_type" : "_ZTIN4aidl7android8hardware8graphics9composer312RenderIntentE"
    }
   ],
   "return_type" : "_ZTIN3ndk13ScopedAStatusE",
   "source_file" : "out/soong/.intermediates/hardware/interfaces/graphics/composer/aidl/android.hardware.graphics.composer3-V1-ndk-source/gen/include/aidl/android/hardware/graphics/composer3/BpComposerClient.h"
  },
  {
   "function_name" : "aidl::android::hardware::graphics::composer3::BpComposerClient::setPowerMode",
   "linker_set_key" : "_ZN4aidl7android8hardware8graphics9composer316BpComposerClient12setPowerModeExNS3_9PowerModeE",
   "parameters" :
   [
    {
     "is_this_ptr" : true,
     "referenced_type" : "_ZTIPN4aidl7android8hardware8graphics9composer316BpComposerClientE"
    },
    {
     "referenced_type" : "_ZTIx"
    },
    {
     "referenced_type" : "_ZTIN4aidl7android8hardware8graphics9composer39PowerModeE"
    }
   ],
   "return_type" : "_ZTIN3ndk13ScopedAStatusE",
   "source_file" : "out/soong/.intermediates/hardware/interfaces/graphics/composer/aidl/android.hardware.graphics.composer3-V1-ndk-source/gen/include/aidl/android/hardware/graphics/composer3/BpComposerClient.h"
  },
  {
   "function_name" : "aidl::android::hardware::graphics::composer3::BpComposerClient::getColorModes",
   "linker_set_key" : "_ZN4aidl7android8hardware8graphics9composer316BpComposerClient13getColorModesExPNSt3__16vectorINS3_9ColorModeENS5_9allocatorIS7_EEEE",
   "parameters" :
   [
    {
     "is_this_ptr" : true,
     "referenced_type" : "_ZTIPN4aidl7android8hardware8graphics9composer316BpComposerClientE"
    },
    {
     "referenced_type" : "_ZTIx"
    },
    {
     "referenced_type" : "_ZTIPNSt3__16vectorIN4aidl7android8hardware8graphics9composer39ColorModeENS_9allocatorIS6_EEEE"
    }
   ],
   "return_type" : "_ZTIN3ndk13ScopedAStatusE",
   "source_file" : "out/soong/.intermediates/hardware/interfaces/graphics/composer/aidl/android.hardware.graphics.composer3-V1-ndk-source/gen/include/aidl/android/hardware/graphics/composer3/BpComposerClient.h"
  },
  {
   "function_name" : "aidl::android::hardware::graphics::composer3::BpComposerClient::getDisplayName",
   "linker_set_key" : "_ZN4aidl7android8hardware8graphics9composer316BpComposerClient14getDisplayNameExPNSt3__112basic_stringIcNS5_11char_traitsIcEENS5_9allocatorIcEEEE",
   "parameters" :
   [
    {
     "is_this_ptr" : true,
     "referenced_type" : "_ZTIPN4aidl7android8hardware8graphics9composer316BpComposerClientE"
    },
    {
     "referenced_type" : "_ZTIx"
    },
    {
     "referenced_type" : "_ZTIPNSt3__112basic_stringIcNS_11char_traitsIcEENS_9allocatorIcEEEE"
    }
   ],
   "return_type" : "_ZTIN3ndk13ScopedAStatusE",
   "source_file" : "out/soong/.intermediates/hardware/interfaces/graphics/composer/aidl/android.hardware.graphics.composer3-V1-ndk-source/gen/include/aidl/android/hardware/graphics/composer3/BpComposerClient.h"
  },
  {
   "function_name" : "aidl::android::hardware::graphics::composer3::BpComposerClient::setContentType",
   "linker_set_key" : "_ZN4aidl7android8hardware8graphics9composer316BpComposerClient14setContentTypeExNS3_11ContentTypeE",
   "parameters" :
   [
    {
     "is_this_ptr" : true,
     "referenced_type" : "_ZTIPN4aidl7android8hardware8graphics9composer316BpComposerClientE"
    },
    {
     "referenced_type" : "_ZTIx"
    },
    {
     "referenced_type" : "_ZTIN4aidl7android8hardware8graphics9composer311ContentTypeE"
    }
   ],
   "return_type" : "_ZTIN3ndk13ScopedAStatusE",
   "source_file" : "out/soong/.intermediates/hardware/interfaces/graphics/composer/aidl/android.hardware.graphics.composer3-V1-ndk-source/gen/include/aidl/android/hardware/graphics/composer3/BpComposerClient.h"
  },
  {
   "function_name" : "aidl::android::hardware::graphics::composer3::BpComposerClient::executeCommands",
   "linker_set_key" : "_ZN4aidl7android8hardware8graphics9composer316BpComposerClient15executeCommandsERKNSt3__16vectorINS3_14DisplayCommandENS5_9allocatorIS7_EEEEPNS6_INS3_20CommandResultPayloadENS8_ISD_EEEE",
   "parameters" :
   [
    {
     "is_this_ptr" : true,
     "referenced_type" : "_ZTIPN4aidl7android8hardware8graphics9composer316BpComposerClientE"
    },
    {
     "referenced_type" : "_ZTIRKNSt3__16vectorIN4aidl7android8hardware8graphics9composer314DisplayCommandENS_9allocatorIS6_EEEE"
    },
    {
     "referenced_type" : "_ZTIPNSt3__16vectorIN4aidl7android8hardware8graphics9composer320CommandResultPayloadENS_9allocatorIS6_EEEE"
    }
   ],
   "return_type" : "_ZTIN3ndk13ScopedAStatusE",
   "source_file" : "out/soong/.intermediates/hardware/interfaces/graphics/composer/aidl/android.hardware.graphics.composer3-V1-ndk-source/gen/include/aidl/android/hardware/graphics/composer3/BpComposerClient.h"
  },
  {
   "function_name" : "aidl::android::hardware::graphics::composer3::BpComposerClient::getActiveConfig",
   "linker_set_key" : "_ZN4aidl7android8hardware8graphics9composer316BpComposerClient15getActiveConfigExPi",
   "parameters" :
   [
    {
     "is_this_ptr" : true,
     "referenced_type" : "_ZTIPN4aidl7android8hardware8graphics9composer316BpComposerClientE"
    },
    {
     "referenced_type" : "_ZTIx"
    },
    {
     "referenced_type" : "_ZTIPi"
    }
   ],
   "return_type" : "_ZTIN3ndk13ScopedAStatusE",
   "source_file" : "out/soong/.intermediates/hardware/interfaces/graphics/composer/aidl/android.hardware.graphics.composer3-V1-ndk-source/gen/include/aidl/android/hardware/graphics/composer3/BpComposerClient.h"
  },
  {
   "function_name" : "aidl::android::hardware::graphics::composer3::BpComposerClient::setActiveConfig",
   "linker_set_key" : "_ZN4aidl7android8hardware8graphics9composer316BpComposerClient15setActiveConfigExi",
   "parameters" :
   [
    {
     "is_this_ptr" : true,
     "referenced_type" : "_ZTIPN4aidl7android8hardware8graphics9composer316BpComposerClientE"
    },
    {
     "referenced_type" : "_ZTIx"
    },
    {
     "referenced_type" : "_ZTIi"
    }
   ],
   "return_type" : "_ZTIN3ndk13ScopedAStatusE",
   "source_file" : "out/soong/.intermediates/hardware/interfaces/graphics/composer/aidl/android.hardware.graphics.composer3-V1-ndk-source/gen/include/aidl/android/hardware/graphics/composer3/BpComposerClient.h"
  },
  {
   "function_name" : "aidl::android::hardware::graphics::composer3::BpComposerClient::setVsyncEnabled",
   "linker_set_key" : "_ZN4aidl7android8hardware8graphics9composer316BpComposerClient15setVsyncEnabledExb",
   "parameters" :
   [
    {
     "is_this_ptr" : true,
     "referenced_type" : "_ZTIPN4aidl7android8hardware8graphics9composer316BpComposerClientE"
    },
    {
     "referenced_type" : "_ZTIx"
    },
    {
     "referenced_type" : "_ZTIb"
    }
   ],
   "return_type" : "_ZTIN3ndk13ScopedAStatusE",
   "source_file" : "out/soong/.intermediates/hardware/interfaces/graphics/composer/aidl/android.hardware.graphics.composer3-V1-ndk-source/gen/include/aidl/android/hardware/graphics/composer3/BpComposerClient.h"
  },
  {
   "function_name" : "aidl::android::hardware::graphics::composer3::BpComposerClient::getInterfaceHash",
   "linker_set_key" : "_ZN4aidl7android8hardware8graphics9composer316BpComposerClient16getInterfaceHashEPNSt3__112basic_stringIcNS5_11char_traitsIcEENS5_9allocatorIcEEEE",
   "parameters" :
   [
    {
     "is_this_ptr" : true,
     "referenced_type" : "_ZTIPN4aidl7android8hardware8graphics9composer316BpComposerClientE"
    },
    {
     "referenced_type" : "_ZTIPNSt3__112basic_stringIcNS_11char_traitsIcEENS_9allocatorIcEEEE"
    }
   ],
   "return_type" : "_ZTIN3ndk13ScopedAStatusE",
   "source_file" : "out/soong/.intermediates/hardware/interfaces/graphics/composer/aidl/android.hardware.graphics.composer3-V1-ndk-source/gen/include/aidl/android/hardware/graphics/composer3/BpComposerClient.h"
  },
  {
   "function_name" : "aidl::android::hardware::graphics::composer3::BpComposerClient::getRenderIntents",
   "linker_set_key" : "_ZN4aidl7android8hardware8graphics9composer316BpComposerClient16getRenderIntentsExNS3_9ColorModeEPNSt3__16vectorINS3_12RenderIntentENS6_9allocatorIS8_EEEE",
   "parameters" :
   [
    {
     "is_this_ptr" : true,
     "referenced_type" : "_ZTIPN4aidl7android8hardware8graphics9composer316BpComposerClientE"
    },
    {
     "referenced_type" : "_ZTIx"
    },
    {
     "referenced_type" : "_ZTIN4aidl7android8hardware8graphics9composer39ColorModeE"
    },
    {
     "referenced_type" : "_ZTIPNSt3__16vectorIN4aidl7android8hardware8graphics9composer312RenderIntentENS_9allocatorIS6_EEEE"
    }
   ],
   "return_type" : "_ZTIN3ndk13ScopedAStatusE",
   "source_file" : "out/soong/.intermediates/hardware/interfaces/graphics/composer/aidl/android.hardware.graphics.composer3-V1-ndk-source/gen/include/aidl/android/hardware/graphics/composer3/BpComposerClient.h"
  },
  {
   "function_name" : "aidl::android::hardware::graphics::composer3::BpComposerClient::registerCallback",
   "linker_set_key" : "_ZN4aidl7android8hardware8graphics9composer316BpComposerClient16registerCallbackERKNSt3__110shared_ptrINS3_17IComposerCallbackEEE",
   "parameters" :
   [
    {
     "is_this_ptr" : true,
     "referenced_type" : "_ZTIPN4aidl7android8hardware8graphics9composer316BpComposerClientE"
    },
    {
     "referenced_type" : "_ZTIRKNSt3__110shared_ptrIN4aidl7android8hardware8graphics9composer317IComposerCallbackEEE"
    }
   ],
   "return_type" : "_ZTIN3ndk13ScopedAStatusE",
   "source_file" : "out/soong/.intermediates/hardware/interfaces/graphics/composer/aidl/android.hardware.graphics.composer3-V1-ndk-source/gen/include/aidl/android/hardware/graphics/composer3/BpComposerClient.h"
  },
  {
   "function_name" : "aidl::android::hardware::graphics::composer3::BpComposerClient::getDisplayConfigs",
   "linker_set_key" : "_ZN4aidl7android8hardware8graphics9composer316BpComposerClient17getDisplayConfigsExPNSt3__16vectorIiNS5_9allocatorIiEEEE",
   "parameters" :
   [
    {
     "is_this_ptr" : true,
     "referenced_type" : "_ZTIPN4aidl7android8hardware8graphics9composer316BpComposerClientE"
    },
    {
     "referenced_type" : "_ZTIx"
    },
    {
     "referenced_type" : "_ZTIPNSt3__16vectorIiNS_9allocatorIiEEEE"
    }
   ],
   "return_type" : "_ZTIN3ndk13ScopedAStatusE",
   "source_file" : "out/soong/.intermediates/hardware/interfaces/graphics/composer/aidl/android.hardware.graphics.composer3-V1-ndk-source/gen/include/aidl/android/hardware/graphics/composer3/BpComposerClient.h"
  },
  {
   "function_name" : "aidl::android::hardware::graphics::composer3::BpComposerClient::setReadbackBuffer",
   "linker_set_key" : "_ZN4aidl7android8hardware8graphics9composer316BpComposerClient17setReadbackBufferExRKNS1_6common12NativeHandleERKN3ndk20ScopedFileDescriptorE",
   "parameters" :
   [
    {
     "is_this_ptr" : true,
     "referenced_type" : "_ZTIPN4aidl7android8hardware8graphics9composer316BpComposerClientE"
    },
    {
     "referenced_type" : "_ZTIx"
    },
    {
     "referenced_type" : "_ZTIRKN4aidl7android8hardware6common12NativeHandleE"
    },
    {
     "referenced_type" : "_ZTIRKN3ndk20ScopedFileDescriptorE"
    }
   ],
   "return_type" : "_ZTIN3ndk13ScopedAStatusE",
   "source_file" : "out/soong/.intermediates/hardware/interfaces/graphics/composer/aidl/android.hardware.graphics.composer3-V1-ndk-source/gen/include/aidl/android/hardware/graphics/composer3/BpComposerClient.h"
  },
  {
   "function_name" : "aidl::android::hardware::graphics::composer3::BpComposerClient::getHdrCapabilities",
   "linker_set_key" : "_ZN4aidl7android8hardware8graphics9composer316BpComposerClient18getHdrCapabilitiesExPNS3_15HdrCapabilitiesE",
   "parameters" :
   [
    {
     "is_this_ptr" : true,
     "referenced_type" : "_ZTIPN4aidl7android8hardware8graphics9composer316BpComposerClientE"
    },
    {
     "referenced_type" : "_ZTIx"
    },
    {
     "referenced_type" : "_ZTIPN4aidl7android8hardware8graphics9composer315HdrCapabilitiesE"
    }
   ],
   "return_type" : "_ZTIN3ndk13ScopedAStatusE",
   "source_file" : "out/soong/.intermediates/hardware/interfaces/graphics/composer/aidl/android.hardware.graphics.composer3-V1-ndk-source/gen/include/aidl/android/hardware/graphics/composer3/BpComposerClient.h"
  },
  {
   "function_name" : "aidl::android::hardware::graphics::composer3::BpComposerClient::getDisplayAttribute",
   "linker_set_key" : "_ZN4aidl7android8hardware8graphics9composer316BpComposerClient19getDisplayAttributeExiNS3_16DisplayAttributeEPi",
   "parameters" :
   [
    {
     "is_this_ptr" : true,
     "referenced_type" : "_ZTIPN4aidl7android8hardware8graphics9composer316BpComposerClientE"
    },
    {
     "referenced_type" : "_ZTIx"
    },
    {
     "referenced_type" : "_ZTIi"
    },
    {
     "referenced_type" : "_ZTIN4aidl7android8hardware8graphics9composer316DisplayAttributeE"
    },
    {
     "referenced_type" : "_ZTIPi"
    }
   ],
   "return_type" : "_ZTIN3ndk13ScopedAStatusE",
   "source_file" : "out/soong/.intermediates/hardware/interfaces/graphics/composer/aidl/android.hardware.graphics.composer3-V1-ndk-source/gen/include/aidl/android/hardware/graphics/composer3/BpComposerClient.h"
  },
  {
   "function_name" : "aidl::android::hardware::graphics::composer3::BpComposerClient::getInterfaceVersion",
   "linker_set_key" : "_ZN4aidl7android8hardware8graphics9composer316BpComposerClient19getInterfaceVersionEPi",
   "parameters" :
   [
    {
     "is_this_ptr" : true,
     "referenced_type" : "_ZTIPN4aidl7android8hardware8graphics9composer316BpComposerClientE"
    },
    {
     "referenced_type" : "_ZTIPi"
    }
   ],
   "return_type" : "_ZTIN3ndk13ScopedAStatusE",
   "source_file" : "out/soong/.intermediates/hardware/interfaces/graphics/composer/aidl/android.hardware.graphics.composer3-V1-ndk-source/gen/include/aidl/android/hardware/graphics/composer3/BpComposerClient.h"
  },
  {
   "function_name" : "aidl::android::hardware::graphics::composer3::BpComposerClient::setIdleTimerEnabled",
   "linker_set_key" : "_ZN4aidl7android8hardware8graphics9composer316BpComposerClient19setIdleTimerEnabledExi",
   "parameters" :
   [
    {
     "is_this_ptr" : true,
     "referenced_type" : "_ZTIPN4aidl7android8hardware8graphics9composer316BpComposerClientE"
    },
    {
     "referenced_type" : "_ZTIx"
    },
    {
     "referenced_type" : "_ZTIi"
    }
   ],
   "return_type" : "_ZTIN3ndk13ScopedAStatusE",
   "source_file" : "out/soong/.intermediates/hardware/interfaces/graphics/composer/aidl/android.hardware.graphics.composer3-V1-ndk-source/gen/include/aidl/android/hardware/graphics/composer3/BpComposerClient.h"
  },
  {
   "function_name" : "aidl::android::hardware::graphics::composer3::BpComposerClient::createVirtualDisplay",
   "linker_set_key" : "_ZN4aidl7android8hardware8graphics9composer316BpComposerClient20createVirtualDisplayEiiNS2_6common11PixelFormatEiPNS3_14VirtualDisplayE",
   "parameters" :
   [
    {
     "is_this_ptr" : true,
     "referenced_type" : "_ZTIPN4aidl7android8hardware8graphics9composer316BpComposerClientE"
    },
    {
     "referenced_type" : "_ZTIi"
    },
    {
     "referenced_type" : "_ZTIi"
    },
    {
     "referenced_type" : "_ZTIN4aidl7android8hardware8graphics6common11PixelFormatE"
    },
    {
     "referenced_type" : "_ZTIi"
    },
    {
     "referenced_type" : "_ZTIPN4aidl7android8hardware8graphics9composer314VirtualDisplayE"
    }
   ],
   "return_type" : "_ZTIN3ndk13ScopedAStatusE",
   "source_file" : "out/soong/.intermediates/hardware/interfaces/graphics/composer/aidl/android.hardware.graphics.composer3-V1-ndk-source/gen/include/aidl/android/hardware/graphics/composer3/BpComposerClient.h"
  },
  {
   "function_name" : "aidl::android::hardware::graphics::composer3::BpComposerClient::setBootDisplayConfig",
   "linker_set_key" : "_ZN4aidl7android8hardware8graphics9composer316BpComposerClient20setBootDisplayConfigExi",
   "parameters" :
   [
    {
     "is_this_ptr" : true,
     "referenced_type" : "_ZTIPN4aidl7android8hardware8graphics9composer316BpComposerClientE"
    },
    {
     "referenced_type" : "_ZTIx"
    },
    {
     "referenced_type" : "_ZTIi"
    }
   ],
   "return_type" : "_ZTIN3ndk13ScopedAStatusE",
   "source_file" : "out/soong/.intermediates/hardware/interfaces/graphics/composer/aidl/android.hardware.graphics.composer3-V1-ndk-source/gen/include/aidl/android/hardware/graphics/composer3/BpComposerClient.h"
  },
  {
   "function_name" : "aidl::android::hardware::graphics::composer3::BpComposerClient::destroyVirtualDisplay",
   "linker_set_key" : "_ZN4aidl7android8hardware8graphics9composer316BpComposerClient21destroyVirtualDisplayEx",
   "parameters" :
   [
    {
     "is_this_ptr" : true,
     "referenced_type" : "_ZTIPN4aidl7android8hardware8graphics9composer316BpComposerClientE"
    },
    {
     "referenced_type" : "_ZTIx"
    }
   ],
   "return_type" : "_ZTIN3ndk13ScopedAStatusE",
   "source_file" : "out/soong/.intermediates/hardware/interfaces/graphics/composer/aidl/android.hardware.graphics.composer3-V1-ndk-source/gen/include/aidl/android/hardware/graphics/composer3/BpComposerClient.h"
  },
  {
   "function_name" : "aidl::android::hardware::graphics::composer3::BpComposerClient::getDisplayVsyncPeriod",
   "linker_set_key" : "_ZN4aidl7android8hardware8graphics9composer316BpComposerClient21getDisplayVsyncPeriodExPi",
   "parameters" :
   [
    {
     "is_this_ptr" : true,
     "referenced_type" : "_ZTIPN4aidl7android8hardware8graphics9composer316BpComposerClientE"
    },
    {
     "referenced_type" : "_ZTIx"
    },
    {
     "referenced_type" : "_ZTIPi"
    }
   ],
   "return_type" : "_ZTIN3ndk13ScopedAStatusE",
   "source_file" : "out/soong/.intermediates/hardware/interfaces/graphics/composer/aidl/android.hardware.graphics.composer3-V1-ndk-source/gen/include/aidl/android/hardware/graphics/composer3/BpComposerClient.h"
  },
  {
   "function_name" : "aidl::android::hardware::graphics::composer3::BpComposerClient::setAutoLowLatencyMode",
   "linker_set_key" : "_ZN4aidl7android8hardware8graphics9composer316BpComposerClient21setAutoLowLatencyModeExb",
   "parameters" :
   [
    {
     "is_this_ptr" : true,
     "referenced_type" : "_ZTIPN4aidl7android8hardware8graphics9composer316BpComposerClientE"
    },
    {
     "referenced_type" : "_ZTIx"
    },
    {
     "referenced_type" : "_ZTIb"
    }
   ],
   "return_type" : "_ZTIN3ndk13ScopedAStatusE",
   "source_file" : "out/soong/.intermediates/hardware/interfaces/graphics/composer/aidl/android.hardware.graphics.composer3-V1-ndk-source/gen/include/aidl/android/hardware/graphics/composer3/BpComposerClient.h"
  },
  {
   "function_name" : "aidl::android::hardware::graphics::composer3::BpComposerClient::clearBootDisplayConfig",
   "linker_set_key" : "_ZN4aidl7android8hardware8graphics9composer316BpComposerClient22clearBootDisplayConfigEx",
   "parameters" :
   [
    {
     "is_this_ptr" : true,
     "referenced_type" : "_ZTIPN4aidl7android8hardware8graphics9composer316BpComposerClientE"
    },
    {
     "referenced_type" : "_ZTIx"
    }
   ],
   "return_type" : "_ZTIN3ndk13ScopedAStatusE",
   "source_file" : "out/soong/.intermediates/hardware/interfaces/graphics/composer/aidl/android.hardware.graphics.composer3-V1-ndk-source/gen/include/aidl/android/hardware/graphics/composer3/BpComposerClient.h"
  },
  {
   "function_name" : "aidl::android::hardware::graphics::composer3::BpComposerClient::getDisplayCapabilities",
   "linker_set_key" : "_ZN4aidl7android8hardware8graphics9composer316BpComposerClient22getDisplayCapabilitiesExPNSt3__16vectorINS3_17DisplayCapabilityENS5_9allocatorIS7_EEEE",
   "parameters" :
   [
    {
     "is_this_ptr" : true,
     "referenced_type" : "_ZTIPN4aidl7android8hardware8graphics9composer316BpComposerClientE"
    },
    {
     "referenced_type" : "_ZTIx"
    },
    {
     "referenced_type" : "_ZTIPNSt3__16vectorIN4aidl7android8hardware8graphics9composer317DisplayCapabilityENS_9allocatorIS6_EEEE"
    }
   ],
   "return_type" : "_ZTIN3ndk13ScopedAStatusE",
   "source_file" : "out/soong/.intermediates/hardware/interfaces/graphics/composer/aidl/android.hardware.graphics.composer3-V1-ndk-source/gen/include/aidl/android/hardware/graphics/composer3/BpComposerClient.h"
  },
  {
   "function_name" : "aidl::android::hardware::graphics::composer3::BpComposerClient::getReadbackBufferFence",
   "linker_set_key" : "_ZN4aidl7android8hardware8graphics9composer316BpComposerClient22getReadbackBufferFenceExPN3ndk20ScopedFileDescriptorE",
   "parameters" :
   [
    {
     "is_this_ptr" : true,
     "referenced_type" : "_ZTIPN4aidl7android8hardware8graphics9composer316BpComposerClientE"
    },
    {
     "referenced_type" : "_ZTIx"
    },
    {
     "referenced_type" : "_ZTIPN3ndk20ScopedFileDescriptorE"
    }
   ],
   "return_type" : "_ZTIN3ndk13ScopedAStatusE",
   "source_file" : "out/soong/.intermediates/hardware/interfaces/graphics/composer/aidl/android.hardware.graphics.composer3-V1-ndk-source/gen/include/aidl/android/hardware/graphics/composer3/BpComposerClient.h"
  },
  {
   "function_name" : "aidl::android::hardware::graphics::composer3::BpComposerClient::getPerFrameMetadataKeys",
   "linker_set_key" : "_ZN4aidl7android8hardware8graphics9composer316BpComposerClient23getPerFrameMetadataKeysExPNSt3__16vectorINS3_19PerFrameMetadataKeyENS5_9allocatorIS7_EEEE",
   "parameters" :
   [
    {
     "is_this_ptr" : true,
     "referenced_type" : "_ZTIPN4aidl7android8hardware8graphics9composer316BpComposerClientE"
    },
    {
     "referenced_type" : "_ZTIx"
    },
    {
     "referenced_type" : "_ZTIPNSt3__16vectorIN4aidl7android8hardware8graphics9composer319PerFrameMetadataKeyENS_9allocatorIS6_EEEE"
    }
   ],
   "return_type" : "_ZTIN3ndk13ScopedAStatusE",
   "source_file" : "out/soong/.intermediates/hardware/interfaces/graphics/composer/aidl/android.hardware.graphics.composer3-V1-ndk-source/gen/include/aidl/android/hardware/graphics/composer3/BpComposerClient.h"
  },
  {
   "function_name" : "aidl::android::hardware::graphics::composer3::BpComposerClient::getDisplayConnectionType",
   "linker_set_key" : "_ZN4aidl7android8hardware8graphics9composer316BpComposerClient24getDisplayConnectionTypeExPNS3_21DisplayConnectionTypeE",
   "parameters" :
   [
    {
     "is_this_ptr" : true,
     "referenced_type" : "_ZTIPN4aidl7android8hardware8graphics9composer316BpComposerClientE"
    },
    {
     "referenced_type" : "_ZTIx"
    },
    {
     "referenced_type" : "_ZTIPN4aidl7android8hardware8graphics9composer321DisplayConnectionTypeE"
    }
   ],
   "return_type" : "_ZTIN3ndk13ScopedAStatusE",
   "source_file" : "out/soong/.intermediates/hardware/interfaces/graphics/composer/aidl/android.hardware.graphics.composer3-V1-ndk-source/gen/include/aidl/android/hardware/graphics/composer3/BpComposerClient.h"
  },
  {
   "function_name" : "aidl::android::hardware::graphics::composer3::BpComposerClient::getSupportedContentTypes",
   "linker_set_key" : "_ZN4aidl7android8hardware8graphics9composer316BpComposerClient24getSupportedContentTypesExPNSt3__16vectorINS3_11ContentTypeENS5_9allocatorIS7_EEEE",
   "parameters" :
   [
    {
     "is_this_ptr" : true,
     "referenced_type" : "_ZTIPN4aidl7android8hardware8graphics9composer316BpComposerClientE"
    },
    {
     "referenced_type" : "_ZTIx"
    },
    {
     "referenced_type" : "_ZTIPNSt3__16vectorIN4aidl7android8hardware8graphics9composer311ContentTypeENS_9allocatorIS6_EEEE"
    }
   ],
   "return_type" : "_ZTIN3ndk13ScopedAStatusE",
   "source_file" : "out/soong/.intermediates/hardware/interfaces/graphics/composer/aidl/android.hardware.graphics.composer3-V1-ndk-source/gen/include/aidl/android/hardware/graphics/composer3/BpComposerClient.h"
  },
  {
   "function_name" : "aidl::android::hardware::graphics::composer3::BpComposerClient::setClientTargetSlotCount",
   "linker_set_key" : "_ZN4aidl7android8hardware8graphics9composer316BpComposerClient24setClientTargetSlotCountExi",
   "parameters" :
   [
    {
     "is_this_ptr" : true,
     "referenced_type" : "_ZTIPN4aidl7android8hardware8graphics9composer316BpComposerClientE"
    },
    {
     "referenced_type" : "_ZTIx"
    },
    {
     "referenced_type" : "_ZTIi"
    }
   ],
   "return_type" : "_ZTIN3ndk13ScopedAStatusE",
   "source_file" : "out/soong/.intermediates/hardware/interfaces/graphics/composer/aidl/android.hardware.graphics.composer3-V1-ndk-source/gen/include/aidl/android/hardware/graphics/composer3/BpComposerClient.h"
  },
  {
   "function_name" : "aidl::android::hardware::graphics::composer3::BpComposerClient::getDisplayedContentSample",
   "linker_set_key" : "_ZN4aidl7android8hardware8graphics9composer316BpComposerClient25getDisplayedContentSampleExxxPNS3_20DisplayContentSampleE",
   "parameters" :
   [
    {
     "is_this_ptr" : true,
     "referenced_type" : "_ZTIPN4aidl7android8hardware8graphics9composer316BpComposerClientE"
    },
    {
     "referenced_type" : "_ZTIx"
    },
    {
     "referenced_type" : "_ZTIx"
    },
    {
     "referenced_type" : "_ZTIx"
    },
    {
     "referenced_type" : "_ZTIPN4aidl7android8hardware8graphics9composer320DisplayContentSampleE"
    }
   ],
   "return_type" : "_ZTIN3ndk13ScopedAStatusE",
   "source_file" : "out/soong/.intermediates/hardware/interfaces/graphics/composer/aidl/android.hardware.graphics.composer3-V1-ndk-source/gen/include/aidl/android/hardware/graphics/composer3/BpComposerClient.h"
  },
  {
   "function_name" : "aidl::android::hardware::graphics::composer3::BpComposerClient::getMaxVirtualDisplayCount",
   "linker_set_key" : "_ZN4aidl7android8hardware8graphics9composer316BpComposerClient25getMaxVirtualDisplayCountEPi",
   "parameters" :
   [
    {
     "is_this_ptr" : true,
     "referenced_type" : "_ZTIPN4aidl7android8hardware8graphics9composer316BpComposerClientE"
    },
    {
     "referenced_type" : "_ZTIPi"
    }
   ],
   "return_type" : "_ZTIN3ndk13ScopedAStatusE",
   "source_file" : "out/soong/.intermediates/hardware/interfaces/graphics/composer/aidl/android.hardware.graphics.composer3-V1-ndk-source/gen/include/aidl/android/hardware/graphics/composer3/BpComposerClient.h"
  },
  {
   "function_name" : "aidl::android::hardware::graphics::composer3::BpComposerClient::getDisplayDecorationSupport",
   "linker_set_key" : "_ZN4aidl7android8hardware8graphics9composer316BpComposerClient27getDisplayDecorationSupportExPNSt3__18optionalINS2_6common24DisplayDecorationSupportEEE",
   "parameters" :
   [
    {
     "is_this_ptr" : true,
     "referenced_type" : "_ZTIPN4aidl7android8hardware8graphics9composer316BpComposerClientE"
    },
    {
     "referenced_type" : "_ZTIx"
    },
    {
     "referenced_type" : "_ZTIPNSt3__18optionalIN4aidl7android8hardware8graphics6common24DisplayDecorationSupportEEE"
    }
   ],
   "return_type" : "_ZTIN3ndk13ScopedAStatusE",
   "source_file" : "out/soong/.intermediates/hardware/interfaces/graphics/composer/aidl/android.hardware.graphics.composer3-V1-ndk-source/gen/include/aidl/android/hardware/graphics/composer3/BpComposerClient.h"
  },
  {
   "function_name" : "aidl::android::hardware::graphics::composer3::BpComposerClient::getReadbackBufferAttributes",
   "linker_set_key" : "_ZN4aidl7android8hardware8graphics9composer316BpComposerClient27getReadbackBufferAttributesExPNS3_24ReadbackBufferAttributesE",
   "parameters" :
   [
    {
     "is_this_ptr" : true,
     "referenced_type" : "_ZTIPN4aidl7android8hardware8graphics9composer316BpComposerClientE"
    },
    {
     "referenced_type" : "_ZTIx"
    },
    {
     "referenced_type" : "_ZTIPN4aidl7android8hardware8graphics9composer324ReadbackBufferAttributesE"
    }
   ],
   "return_type" : "_ZTIN3ndk13ScopedAStatusE",
   "source_file" : "out/soong/.intermediates/hardware/interfaces/graphics/composer/aidl/android.hardware.graphics.composer3-V1-ndk-source/gen/include/aidl/android/hardware/graphics/composer3/BpComposerClient.h"
  },
  {
   "function_name" : "aidl::android::hardware::graphics::composer3::BpComposerClient::getDataspaceSaturationMatrix",
   "linker_set_key" : "_ZN4aidl7android8hardware8graphics9composer316BpComposerClient28getDataspaceSaturationMatrixENS2_6common9DataspaceEPNSt3__16vectorIfNS7_9allocatorIfEEEE",
   "parameters" :
   [
    {
     "is_this_ptr" : true,
     "referenced_type" : "_ZTIPN4aidl7android8hardware8graphics9composer316BpComposerClientE"
    },
    {
     "referenced_type" : "_ZTIN4aidl7android8hardware8graphics6common9DataspaceE"
    },
    {
     "referenced_type" : "_ZTIPNSt3__16vectorIfNS_9allocatorIfEEEE"
    }
   ],
   "return_type" : "_ZTIN3ndk13ScopedAStatusE",
   "source_file" : "out/soong/.intermediates/hardware/interfaces/graphics/composer/aidl/android.hardware.graphics.composer3-V1-ndk-source/gen/include/aidl/android/hardware/graphics/composer3/BpComposerClient.h"
  },
  {
   "function_name" : "aidl::android::hardware::graphics::composer3::BpComposerClient::getDisplayIdentificationData",
   "linker_set_key" : "_ZN4aidl7android8hardware8graphics9composer316BpComposerClient28getDisplayIdentificationDataExPNS3_21DisplayIdentificationE",
   "parameters" :
   [
    {
     "is_this_ptr" : true,
     "referenced_type" : "_ZTIPN4aidl7android8hardware8graphics9composer316BpComposerClientE"
    },
    {
     "referenced_type" : "_ZTIx"
    },
    {
     "referenced_type" : "_ZTIPN4aidl7android8hardware8graphics9composer321DisplayIdentificationE"
    }
   ],
   "return_type" : "_ZTIN3ndk13ScopedAStatusE",
   "source_file" : "out/soong/.intermediates/hardware/interfaces/graphics/composer/aidl/android.hardware.graphics.composer3-V1-ndk-source/gen/include/aidl/android/hardware/graphics/composer3/BpComposerClient.h"
  },
  {
   "function_name" : "aidl::android::hardware::graphics::composer3::BpComposerClient::getDisplayPhysicalOrientation",
   "linker_set_key" : "_ZN4aidl7android8hardware8graphics9composer316BpComposerClient29getDisplayPhysicalOrientationExPNS2_6common9TransformE",
   "parameters" :
   [
    {
     "is_this_ptr" : true,
     "referenced_type" : "_ZTIPN4aidl7android8hardware8graphics9composer316BpComposerClientE"
    },
    {
     "referenced_type" : "_ZTIx"
    },
    {
     "referenced_type" : "_ZTIPN4aidl7android8hardware8graphics6common9TransformE"
    }
   ],
   "return_type" : "_ZTIN3ndk13ScopedAStatusE",
   "source_file" : "out/soong/.intermediates/hardware/interfaces/graphics/composer/aidl/android.hardware.graphics.composer3-V1-ndk-source/gen/include/aidl/android/hardware/graphics/composer3/BpComposerClient.h"
  },
  {
   "function_name" : "aidl::android::hardware::graphics::composer3::BpComposerClient::getPreferredBootDisplayConfig",
   "linker_set_key" : "_ZN4aidl7android8hardware8graphics9composer316BpComposerClient29getPreferredBootDisplayConfigExPi",
   "parameters" :
   [
    {
     "is_this_ptr" : true,
     "referenced_type" : "_ZTIPN4aidl7android8hardware8graphics9composer316BpComposerClientE"
    },
    {
     "referenced_type" : "_ZTIx"
    },
    {
     "referenced_type" : "_ZTIPi"
    }
   ],
   "return_type" : "_ZTIN3ndk13ScopedAStatusE",
   "source_file" : "out/soong/.intermediates/hardware/interfaces/graphics/composer/aidl/android.hardware.graphics.composer3-V1-ndk-source/gen/include/aidl/android/hardware/graphics/composer3/BpComposerClient.h"
  },
  {
   "function_name" : "aidl::android::hardware::graphics::composer3::BpComposerClient::setActiveConfigWithConstraints",
   "linker_set_key" : "_ZN4aidl7android8hardware8graphics9composer316BpComposerClient30setActiveConfigWithConstraintsExiRKNS3_28VsyncPeriodChangeConstraintsEPNS3_25VsyncPeriodChangeTimelineE",
   "parameters" :
   [
    {
     "is_this_ptr" : true,
     "referenced_type" : "_ZTIPN4aidl7android8hardware8graphics9composer316BpComposerClientE"
    },
    {
     "referenced_type" : "_ZTIx"
    },
    {
     "referenced_type" : "_ZTIi"
    },
    {
     "referenced_type" : "_ZTIRKN4aidl7android8hardware8graphics9composer328VsyncPeriodChangeConstraintsE"
    },
    {
     "referenced_type" : "_ZTIPN4aidl7android8hardware8graphics9composer325VsyncPeriodChangeTimelineE"
    }
   ],
   "return_type" : "_ZTIN3ndk13ScopedAStatusE",
   "source_file" : "out/soong/.intermediates/hardware/interfaces/graphics/composer/aidl/android.hardware.graphics.composer3-V1-ndk-source/gen/include/aidl/android/hardware/graphics/composer3/BpComposerClient.h"
  },
  {
   "function_name" : "aidl::android::hardware::graphics::composer3::BpComposerClient::setDisplayedContentSamplingEnabled",
   "linker_set_key" : "_ZN4aidl7android8hardware8graphics9composer316BpComposerClient34setDisplayedContentSamplingEnabledExbNS3_20FormatColorComponentEx",
   "parameters" :
   [
    {
     "is_this_ptr" : true,
     "referenced_type" : "_ZTIPN4aidl7android8hardware8graphics9composer316BpComposerClientE"
    },
    {
     "referenced_type" : "_ZTIx"
    },
    {
     "referenced_type" : "_ZTIb"
    },
    {
     "referenced_type" : "_ZTIN4aidl7android8hardware8graphics9composer320FormatColorComponentE"
    },
    {
     "referenced_type" : "_ZTIx"
    }
   ],
   "return_type" : "_ZTIN3ndk13ScopedAStatusE",
   "source_file" : "out/soong/.intermediates/hardware/interfaces/graphics/composer/aidl/android.hardware.graphics.composer3-V1-ndk-source/gen/include/aidl/android/hardware/graphics/composer3/BpComposerClient.h"
  },
  {
   "function_name" : "aidl::android::hardware::graphics::composer3::BpComposerClient::getDisplayedContentSamplingAttributes",
   "linker_set_key" : "_ZN4aidl7android8hardware8graphics9composer316BpComposerClient37getDisplayedContentSamplingAttributesExPNS3_32DisplayContentSamplingAttributesE",
   "parameters" :
   [
    {
     "is_this_ptr" : true,
     "referenced_type" : "_ZTIPN4aidl7android8hardware8graphics9composer316BpComposerClientE"
    },
    {
     "referenced_type" : "_ZTIx"
    },
    {
     "referenced_type" : "_ZTIPN4aidl7android8hardware8graphics9composer332DisplayContentSamplingAttributesE"
    }
   ],
   "return_type" : "_ZTIN3ndk13ScopedAStatusE",
   "source_file" : "out/soong/.intermediates/hardware/interfaces/graphics/composer/aidl/android.hardware.graphics.composer3-V1-ndk-source/gen/include/aidl/android/hardware/graphics/composer3/BpComposerClient.h"
  },
  {
   "function_name" : "aidl::android::hardware::graphics::composer3::BpComposerClient::BpComposerClient",
   "linker_set_key" : "_ZN4aidl7android8hardware8graphics9composer316BpComposerClientC1ERKN3ndk10SpAIBinderE",
   "parameters" :
   [
    {
     "is_this_ptr" : true,
     "referenced_type" : "_ZTIPN4aidl7android8hardware8graphics9composer316BpComposerClientE"
    },
    {
     "referenced_type" : "_ZTIRKN3ndk10SpAIBinderE"
    }
   ],
   "return_type" : "_ZTIv",
   "source_file" : "out/soong/.intermediates/hardware/interfaces/graphics/composer/aidl/android.hardware.graphics.composer3-V1-ndk-source/gen/include/aidl/android/hardware/graphics/composer3/BpComposerClient.h"
  },
  {
   "function_name" : "aidl::android::hardware::graphics::composer3::BpComposerClient::BpComposerClient",
   "linker_set_key" : "_ZN4aidl7android8hardware8graphics9composer316BpComposerClientC2ERKN3ndk10SpAIBinderE",
   "parameters" :
   [
    {
     "is_this_ptr" : true,
     "referenced_type" : "_ZTIPN4aidl7android8hardware8graphics9composer316BpComposerClientE"
    },
    {
     "referenced_type" : "_ZTIRKN3ndk10SpAIBinderE"
    }
   ],
   "return_type" : "_ZTIv",
   "source_file" : "out/soong/.intermediates/hardware/interfaces/graphics/composer/aidl/android.hardware.graphics.composer3-V1-ndk-source/gen/include/aidl/android/hardware/graphics/composer3/BpComposerClient.h"
  },
  {
   "function_name" : "aidl::android::hardware::graphics::composer3::BpComposerClient::~BpComposerClient",
   "linker_set_key" : "_ZN4aidl7android8hardware8graphics9composer316BpComposerClientD0Ev",
   "parameters" :
   [
    {
     "is_this_ptr" : true,
     "referenced_type" : "_ZTIPN4aidl7android8hardware8graphics9composer316BpComposerClientE"
    }
   ],
   "return_type" : "_ZTIv",
   "source_file" : "out/soong/.intermediates/hardware/interfaces/graphics/composer/aidl/android.hardware.graphics.composer3-V1-ndk-source/gen/include/aidl/android/hardware/graphics/composer3/BpComposerClient.h"
  },
  {
   "function_name" : "aidl::android::hardware::graphics::composer3::BpComposerClient::~BpComposerClient",
   "linker_set_key" : "_ZN4aidl7android8hardware8graphics9composer316BpComposerClientD1Ev",
   "parameters" :
   [
    {
     "is_this_ptr" : true,
     "referenced_type" : "_ZTIPN4aidl7android8hardware8graphics9composer316BpComposerClientE"
    }
   ],
   "return_type" : "_ZTIv",
   "source_file" : "out/soong/.intermediates/hardware/interfaces/graphics/composer/aidl/android.hardware.graphics.composer3-V1-ndk-source/gen/include/aidl/android/hardware/graphics/composer3/BpComposerClient.h"
  },
  {
   "function_name" : "aidl::android::hardware::graphics::composer3::BpComposerClient::~BpComposerClient",
   "linker_set_key" : "_ZN4aidl7android8hardware8graphics9composer316BpComposerClientD2Ev",
   "parameters" :
   [
    {
     "is_this_ptr" : true,
     "referenced_type" : "_ZTIPN4aidl7android8hardware8graphics9composer316BpComposerClientE"
    }
   ],
   "return_type" : "_ZTIv",
   "source_file" : "out/soong/.intermediates/hardware/interfaces/graphics/composer/aidl/android.hardware.graphics.composer3-V1-ndk-source/gen/include/aidl/android/hardware/graphics/composer3/BpComposerClient.h"
  },
  {
   "function_name" : "aidl::android::hardware::graphics::composer3::IComposerDefault::createClient",
   "linker_set_key" : "_ZN4aidl7android8hardware8graphics9composer316IComposerDefault12createClientEPNSt3__110shared_ptrINS3_15IComposerClientEEE",
   "parameters" :
   [
    {
     "is_this_ptr" : true,
     "referenced_type" : "_ZTIPN4aidl7android8hardware8graphics9composer316IComposerDefaultE"
    },
    {
     "referenced_type" : "_ZTIPNSt3__110shared_ptrIN4aidl7android8hardware8graphics9composer315IComposerClientEEE"
    }
   ],
   "return_type" : "_ZTIN3ndk13ScopedAStatusE",
   "source_file" : "out/soong/.intermediates/hardware/interfaces/graphics/composer/aidl/android.hardware.graphics.composer3-V1-ndk-source/gen/include/aidl/android/hardware/graphics/composer3/IComposer.h"
  },
  {
   "function_name" : "aidl::android::hardware::graphics::composer3::IComposerDefault::getCapabilities",
   "linker_set_key" : "_ZN4aidl7android8hardware8graphics9composer316IComposerDefault15getCapabilitiesEPNSt3__16vectorINS3_10CapabilityENS5_9allocatorIS7_EEEE",
   "parameters" :
   [
    {
     "is_this_ptr" : true,
     "referenced_type" : "_ZTIPN4aidl7android8hardware8graphics9composer316IComposerDefaultE"
    },
    {
     "referenced_type" : "_ZTIPNSt3__16vectorIN4aidl7android8hardware8graphics9composer310CapabilityENS_9allocatorIS6_EEEE"
    }
   ],
   "return_type" : "_ZTIN3ndk13ScopedAStatusE",
   "source_file" : "out/soong/.intermediates/hardware/interfaces/graphics/composer/aidl/android.hardware.graphics.composer3-V1-ndk-source/gen/include/aidl/android/hardware/graphics/composer3/IComposer.h"
  },
  {
   "function_name" : "aidl::android::hardware::graphics::composer3::IComposerDefault::getInterfaceHash",
   "linker_set_key" : "_ZN4aidl7android8hardware8graphics9composer316IComposerDefault16getInterfaceHashEPNSt3__112basic_stringIcNS5_11char_traitsIcEENS5_9allocatorIcEEEE",
   "parameters" :
   [
    {
     "is_this_ptr" : true,
     "referenced_type" : "_ZTIPN4aidl7android8hardware8graphics9composer316IComposerDefaultE"
    },
    {
     "referenced_type" : "_ZTIPNSt3__112basic_stringIcNS_11char_traitsIcEENS_9allocatorIcEEEE"
    }
   ],
   "return_type" : "_ZTIN3ndk13ScopedAStatusE",
   "source_file" : "out/soong/.intermediates/hardware/interfaces/graphics/composer/aidl/android.hardware.graphics.composer3-V1-ndk-source/gen/include/aidl/android/hardware/graphics/composer3/IComposer.h"
  },
  {
   "function_name" : "aidl::android::hardware::graphics::composer3::IComposerDefault::getInterfaceVersion",
   "linker_set_key" : "_ZN4aidl7android8hardware8graphics9composer316IComposerDefault19getInterfaceVersionEPi",
   "parameters" :
   [
    {
     "is_this_ptr" : true,
     "referenced_type" : "_ZTIPN4aidl7android8hardware8graphics9composer316IComposerDefaultE"
    },
    {
     "referenced_type" : "_ZTIPi"
    }
   ],
   "return_type" : "_ZTIN3ndk13ScopedAStatusE",
   "source_file" : "out/soong/.intermediates/hardware/interfaces/graphics/composer/aidl/android.hardware.graphics.composer3-V1-ndk-source/gen/include/aidl/android/hardware/graphics/composer3/IComposer.h"
  },
  {
   "function_name" : "aidl::android::hardware::graphics::composer3::IComposerDefault::asBinder",
   "linker_set_key" : "_ZN4aidl7android8hardware8graphics9composer316IComposerDefault8asBinderEv",
   "parameters" :
   [
    {
     "is_this_ptr" : true,
     "referenced_type" : "_ZTIPN4aidl7android8hardware8graphics9composer316IComposerDefaultE"
    }
   ],
   "return_type" : "_ZTIN3ndk10SpAIBinderE",
   "source_file" : "out/soong/.intermediates/hardware/interfaces/graphics/composer/aidl/android.hardware.graphics.composer3-V1-ndk-source/gen/include/aidl/android/hardware/graphics/composer3/IComposer.h"
  },
  {
   "function_name" : "aidl::android::hardware::graphics::composer3::IComposerDefault::isRemote",
   "linker_set_key" : "_ZN4aidl7android8hardware8graphics9composer316IComposerDefault8isRemoteEv",
   "parameters" :
   [
    {
     "is_this_ptr" : true,
     "referenced_type" : "_ZTIPN4aidl7android8hardware8graphics9composer316IComposerDefaultE"
    }
   ],
   "return_type" : "_ZTIb",
   "source_file" : "out/soong/.intermediates/hardware/interfaces/graphics/composer/aidl/android.hardware.graphics.composer3-V1-ndk-source/gen/include/aidl/android/hardware/graphics/composer3/IComposer.h"
  },
  {
   "function_name" : "aidl::android::hardware::graphics::composer3::PerFrameMetadata::readFromParcel",
   "linker_set_key" : "_ZN4aidl7android8hardware8graphics9composer316PerFrameMetadata14readFromParcelEPK7AParcel",
   "parameters" :
   [
    {
     "is_this_ptr" : true,
     "referenced_type" : "_ZTIPN4aidl7android8hardware8graphics9composer316PerFrameMetadataE"
    },
    {
     "referenced_type" : "_ZTIPK7AParcel"
    }
   ],
   "return_type" : "_ZTIi",
   "source_file" : "out/soong/.intermediates/hardware/interfaces/graphics/composer/aidl/android.hardware.graphics.composer3-V1-ndk-source/gen/include/aidl/android/hardware/graphics/composer3/PerFrameMetadata.h"
  },
  {
   "function_name" : "aidl::android::hardware::graphics::composer3::DisplayBrightness::readFromParcel",
   "linker_set_key" : "_ZN4aidl7android8hardware8graphics9composer317DisplayBrightness14readFromParcelEPK7AParcel",
   "parameters" :
   [
    {
     "is_this_ptr" : true,
     "referenced_type" : "_ZTIPN4aidl7android8hardware8graphics9composer317DisplayBrightnessE"
    },
    {
     "referenced_type" : "_ZTIPK7AParcel"
    }
   ],
   "return_type" : "_ZTIi",
   "source_file" : "out/soong/.intermediates/hardware/interfaces/graphics/composer/aidl/android.hardware.graphics.composer3-V1-ndk-source/gen/include/aidl/android/hardware/graphics/composer3/DisplayBrightness.h"
  },
  {
   "function_name" : "aidl::android::hardware::graphics::composer3::IComposerCallback::fromBinder",
   "linker_set_key" : "_ZN4aidl7android8hardware8graphics9composer317IComposerCallback10fromBinderERKN3ndk10SpAIBinderE",
   "parameters" :
   [
    {
     "referenced_type" : "_ZTIRKN3ndk10SpAIBinderE"
    }
   ],
   "return_type" : "_ZTINSt3__110shared_ptrIN4aidl7android8hardware8graphics9composer317IComposerCallbackEEE",
   "source_file" : "out/soong/.intermediates/hardware/interfaces/graphics/composer/aidl/android.hardware.graphics.composer3-V1-ndk-source/gen/include/aidl/android/hardware/graphics/composer3/IComposerCallback.h"
  },
  {
   "function_name" : "aidl::android::hardware::graphics::composer3::IComposerCallback::writeToParcel",
   "linker_set_key" : "_ZN4aidl7android8hardware8graphics9composer317IComposerCallback13writeToParcelEP7AParcelRKNSt3__110shared_ptrIS4_EE",
   "parameters" :
   [
    {
     "referenced_type" : "_ZTIP7AParcel"
    },
    {
     "referenced_type" : "_ZTIRKNSt3__110shared_ptrIN4aidl7android8hardware8graphics9composer317IComposerCallbackEEE"
    }
   ],
   "return_type" : "_ZTIi",
   "source_file" : "out/soong/.intermediates/hardware/interfaces/graphics/composer/aidl/android.hardware.graphics.composer3-V1-ndk-source/gen/include/aidl/android/hardware/graphics/composer3/IComposerCallback.h"
  },
  {
   "function_name" : "aidl::android::hardware::graphics::composer3::IComposerCallback::getDefaultImpl",
   "linker_set_key" : "_ZN4aidl7android8hardware8graphics9composer317IComposerCallback14getDefaultImplEv",
   "return_type" : "_ZTIRKNSt3__110shared_ptrIN4aidl7android8hardware8graphics9composer317IComposerCallbackEEE",
   "source_file" : "out/soong/.intermediates/hardware/interfaces/graphics/composer/aidl/android.hardware.graphics.composer3-V1-ndk-source/gen/include/aidl/android/hardware/graphics/composer3/IComposerCallback.h"
  },
  {
   "function_name" : "aidl::android::hardware::graphics::composer3::IComposerCallback::readFromParcel",
   "linker_set_key" : "_ZN4aidl7android8hardware8graphics9composer317IComposerCallback14readFromParcelEPK7AParcelPNSt3__110shared_ptrIS4_EE",
   "parameters" :
   [
    {
     "referenced_type" : "_ZTIPK7AParcel"
    },
    {
     "referenced_type" : "_ZTIPNSt3__110shared_ptrIN4aidl7android8hardware8graphics9composer317IComposerCallbackEEE"
    }
   ],
   "return_type" : "_ZTIi",
   "source_file" : "out/soong/.intermediates/hardware/interfaces/graphics/composer/aidl/android.hardware.graphics.composer3-V1-ndk-source/gen/include/aidl/android/hardware/graphics/composer3/IComposerCallback.h"
  },
  {
   "function_name" : "aidl::android::hardware::graphics::composer3::IComposerCallback::setDefaultImpl",
   "linker_set_key" : "_ZN4aidl7android8hardware8graphics9composer317IComposerCallback14setDefaultImplERKNSt3__110shared_ptrIS4_EE",
   "parameters" :
   [
    {
     "referenced_type" : "_ZTIRKNSt3__110shared_ptrIN4aidl7android8hardware8graphics9composer317IComposerCallbackEEE"
    }
   ],
   "return_type" : "_ZTIb",
   "source_file" : "out/soong/.intermediates/hardware/interfaces/graphics/composer/aidl/android.hardware.graphics.composer3-V1-ndk-source/gen/include/aidl/android/hardware/graphics/composer3/IComposerCallback.h"
  },
  {
   "function_name" : "aidl::android::hardware::graphics::composer3::IComposerCallback::IComposerCallback",
   "linker_set_key" : "_ZN4aidl7android8hardware8graphics9composer317IComposerCallbackC2Ev",
   "parameters" :
   [
    {
     "is_this_ptr" : true,
     "referenced_type" : "_ZTIPN4aidl7android8hardware8graphics9composer317IComposerCallbackE"
    }
   ],
   "return_type" : "_ZTIv",
   "source_file" : "out/soong/.intermediates/hardware/interfaces/graphics/composer/aidl/android.hardware.graphics.composer3-V1-ndk-source/gen/include/aidl/android/hardware/graphics/composer3/IComposerCallback.h"
  },
  {
   "function_name" : "aidl::android::hardware::graphics::composer3::IComposerCallback::~IComposerCallback",
   "linker_set_key" : "_ZN4aidl7android8hardware8graphics9composer317IComposerCallbackD0Ev",
   "parameters" :
   [
    {
     "is_this_ptr" : true,
     "referenced_type" : "_ZTIPN4aidl7android8hardware8graphics9composer317IComposerCallbackE"
    }
   ],
   "return_type" : "_ZTIv",
   "source_file" : "out/soong/.intermediates/hardware/interfaces/graphics/composer/aidl/android.hardware.graphics.composer3-V1-ndk-source/gen/include/aidl/android/hardware/graphics/composer3/IComposerCallback.h"
  },
  {
   "function_name" : "aidl::android::hardware::graphics::composer3::IComposerCallback::~IComposerCallback",
   "linker_set_key" : "_ZN4aidl7android8hardware8graphics9composer317IComposerCallbackD1Ev",
   "parameters" :
   [
    {
     "is_this_ptr" : true,
     "referenced_type" : "_ZTIPN4aidl7android8hardware8graphics9composer317IComposerCallbackE"
    }
   ],
   "return_type" : "_ZTIv",
   "source_file" : "out/soong/.intermediates/hardware/interfaces/graphics/composer/aidl/android.hardware.graphics.composer3-V1-ndk-source/gen/include/aidl/android/hardware/graphics/composer3/IComposerCallback.h"
  },
  {
   "function_name" : "aidl::android::hardware::graphics::composer3::IComposerCallback::~IComposerCallback",
   "linker_set_key" : "_ZN4aidl7android8hardware8graphics9composer317IComposerCallbackD2Ev",
   "parameters" :
   [
    {
     "is_this_ptr" : true,
     "referenced_type" : "_ZTIPN4aidl7android8hardware8graphics9composer317IComposerCallbackE"
    }
   ],
   "return_type" : "_ZTIv",
   "source_file" : "out/soong/.intermediates/hardware/interfaces/graphics/composer/aidl/android.hardware.graphics.composer3-V1-ndk-source/gen/include/aidl/android/hardware/graphics/composer3/IComposerCallback.h"
  },
  {
   "function_name" : "aidl::android::hardware::graphics::composer3::PresentOrValidate::readFromParcel",
   "linker_set_key" : "_ZN4aidl7android8hardware8graphics9composer317PresentOrValidate14readFromParcelEPK7AParcel",
   "parameters" :
   [
    {
     "is_this_ptr" : true,
     "referenced_type" : "_ZTIPN4aidl7android8hardware8graphics9composer317PresentOrValidateE"
    },
    {
     "referenced_type" : "_ZTIPK7AParcel"
    }
   ],
   "return_type" : "_ZTIi",
   "source_file" : "out/soong/.intermediates/hardware/interfaces/graphics/composer/aidl/android.hardware.graphics.composer3-V1-ndk-source/gen/include/aidl/android/hardware/graphics/composer3/PresentOrValidate.h"
  },
  {
   "access" : "protected",
   "function_name" : "aidl::android::hardware::graphics::composer3::BnComposerCallback::createBinder",
   "linker_set_key" : "_ZN4aidl7android8hardware8graphics9composer318BnComposerCallback12createBinderEv",
   "parameters" :
   [
    {
     "is_this_ptr" : true,
     "referenced_type" : "_ZTIPN4aidl7android8hardware8graphics9composer318BnComposerCallbackE"
    }
   ],
   "return_type" : "_ZTIN3ndk10SpAIBinderE",
   "source_file" : "out/soong/.intermediates/hardware/interfaces/graphics/composer/aidl/android.hardware.graphics.composer3-V1-ndk-source/gen/include/aidl/android/hardware/graphics/composer3/BnComposerCallback.h"
  },
  {
   "function_name" : "aidl::android::hardware::graphics::composer3::BnComposerCallback::getInterfaceHash",
   "linker_set_key" : "_ZN4aidl7android8hardware8graphics9composer318BnComposerCallback16getInterfaceHashEPNSt3__112basic_stringIcNS5_11char_traitsIcEENS5_9allocatorIcEEEE",
   "parameters" :
   [
    {
     "is_this_ptr" : true,
     "referenced_type" : "_ZTIPN4aidl7android8hardware8graphics9composer318BnComposerCallbackE"
    },
    {
     "referenced_type" : "_ZTIPNSt3__112basic_stringIcNS_11char_traitsIcEENS_9allocatorIcEEEE"
    }
   ],
   "return_type" : "_ZTIN3ndk13ScopedAStatusE",
   "source_file" : "out/soong/.intermediates/hardware/interfaces/graphics/composer/aidl/android.hardware.graphics.composer3-V1-ndk-source/gen/include/aidl/android/hardware/graphics/composer3/BnComposerCallback.h"
  },
  {
   "function_name" : "aidl::android::hardware::graphics::composer3::BnComposerCallback::getInterfaceVersion",
   "linker_set_key" : "_ZN4aidl7android8hardware8graphics9composer318BnComposerCallback19getInterfaceVersionEPi",
   "parameters" :
   [
    {
     "is_this_ptr" : true,
     "referenced_type" : "_ZTIPN4aidl7android8hardware8graphics9composer318BnComposerCallbackE"
    },
    {
     "referenced_type" : "_ZTIPi"
    }
   ],
   "return_type" : "_ZTIN3ndk13ScopedAStatusE",
   "source_file" : "out/soong/.intermediates/hardware/interfaces/graphics/composer/aidl/android.hardware.graphics.composer3-V1-ndk-source/gen/include/aidl/android/hardware/graphics/composer3/BnComposerCallback.h"
  },
  {
   "function_name" : "aidl::android::hardware::graphics::composer3::BnComposerCallback::BnComposerCallback",
   "linker_set_key" : "_ZN4aidl7android8hardware8graphics9composer318BnComposerCallbackC2Ev",
   "parameters" :
   [
    {
     "is_this_ptr" : true,
     "referenced_type" : "_ZTIPN4aidl7android8hardware8graphics9composer318BnComposerCallbackE"
    }
   ],
   "return_type" : "_ZTIv",
   "source_file" : "out/soong/.intermediates/hardware/interfaces/graphics/composer/aidl/android.hardware.graphics.composer3-V1-ndk-source/gen/include/aidl/android/hardware/graphics/composer3/BnComposerCallback.h"
  },
  {
   "function_name" : "aidl::android::hardware::graphics::composer3::BnComposerCallback::~BnComposerCallback",
   "linker_set_key" : "_ZN4aidl7android8hardware8graphics9composer318BnComposerCallbackD0Ev",
   "parameters" :
   [
    {
     "is_this_ptr" : true,
     "referenced_type" : "_ZTIPN4aidl7android8hardware8graphics9composer318BnComposerCallbackE"
    }
   ],
   "return_type" : "_ZTIv",
   "source_file" : "out/soong/.intermediates/hardware/interfaces/graphics/composer/aidl/android.hardware.graphics.composer3-V1-ndk-source/gen/include/aidl/android/hardware/graphics/composer3/BnComposerCallback.h"
  },
  {
   "function_name" : "aidl::android::hardware::graphics::composer3::BnComposerCallback::~BnComposerCallback",
   "linker_set_key" : "_ZN4aidl7android8hardware8graphics9composer318BnComposerCallbackD1Ev",
   "parameters" :
   [
    {
     "is_this_ptr" : true,
     "referenced_type" : "_ZTIPN4aidl7android8hardware8graphics9composer318BnComposerCallbackE"
    }
   ],
   "return_type" : "_ZTIv",
   "source_file" : "out/soong/.intermediates/hardware/interfaces/graphics/composer/aidl/android.hardware.graphics.composer3-V1-ndk-source/gen/include/aidl/android/hardware/graphics/composer3/BnComposerCallback.h"
  },
  {
   "function_name" : "aidl::android::hardware::graphics::composer3::BnComposerCallback::~BnComposerCallback",
   "linker_set_key" : "_ZN4aidl7android8hardware8graphics9composer318BnComposerCallbackD2Ev",
   "parameters" :
   [
    {
     "is_this_ptr" : true,
     "referenced_type" : "_ZTIPN4aidl7android8hardware8graphics9composer318BnComposerCallbackE"
    }
   ],
   "return_type" : "_ZTIv",
   "source_file" : "out/soong/.intermediates/hardware/interfaces/graphics/composer/aidl/android.hardware.graphics.composer3-V1-ndk-source/gen/include/aidl/android/hardware/graphics/composer3/BnComposerCallback.h"
  },
  {
   "function_name" : "aidl::android::hardware::graphics::composer3::BpComposerCallback::onVsyncIdle",
   "linker_set_key" : "_ZN4aidl7android8hardware8graphics9composer318BpComposerCallback11onVsyncIdleEx",
   "parameters" :
   [
    {
     "is_this_ptr" : true,
     "referenced_type" : "_ZTIPN4aidl7android8hardware8graphics9composer318BpComposerCallbackE"
    },
    {
     "referenced_type" : "_ZTIx"
    }
   ],
   "return_type" : "_ZTIN3ndk13ScopedAStatusE",
   "source_file" : "out/soong/.intermediates/hardware/interfaces/graphics/composer/aidl/android.hardware.graphics.composer3-V1-ndk-source/gen/include/aidl/android/hardware/graphics/composer3/BpComposerCallback.h"
  },
  {
   "function_name" : "aidl::android::hardware::graphics::composer3::BpComposerCallback::getInterfaceHash",
   "linker_set_key" : "_ZN4aidl7android8hardware8graphics9composer318BpComposerCallback16getInterfaceHashEPNSt3__112basic_stringIcNS5_11char_traitsIcEENS5_9allocatorIcEEEE",
   "parameters" :
   [
    {
     "is_this_ptr" : true,
     "referenced_type" : "_ZTIPN4aidl7android8hardware8graphics9composer318BpComposerCallbackE"
    },
    {
     "referenced_type" : "_ZTIPNSt3__112basic_stringIcNS_11char_traitsIcEENS_9allocatorIcEEEE"
    }
   ],
   "return_type" : "_ZTIN3ndk13ScopedAStatusE",
   "source_file" : "out/soong/.intermediates/hardware/interfaces/graphics/composer/aidl/android.hardware.graphics.composer3-V1-ndk-source/gen/include/aidl/android/hardware/graphics/composer3/BpComposerCallback.h"
  },
  {
   "function_name" : "aidl::android::hardware::graphics::composer3::BpComposerCallback::onSeamlessPossible",
   "linker_set_key" : "_ZN4aidl7android8hardware8graphics9composer318BpComposerCallback18onSeamlessPossibleEx",
   "parameters" :
   [
    {
     "is_this_ptr" : true,
     "referenced_type" : "_ZTIPN4aidl7android8hardware8graphics9composer318BpComposerCallbackE"
    },
    {
     "referenced_type" : "_ZTIx"
    }
   ],
   "return_type" : "_ZTIN3ndk13ScopedAStatusE",
   "source_file" : "out/soong/.intermediates/hardware/interfaces/graphics/composer/aidl/android.hardware.graphics.composer3-V1-ndk-source/gen/include/aidl/android/hardware/graphics/composer3/BpComposerCallback.h"
  },
  {
   "function_name" : "aidl::android::hardware::graphics::composer3::BpComposerCallback::getInterfaceVersion",
   "linker_set_key" : "_ZN4aidl7android8hardware8graphics9composer318BpComposerCallback19getInterfaceVersionEPi",
   "parameters" :
   [
    {
     "is_this_ptr" : true,
     "referenced_type" : "_ZTIPN4aidl7android8hardware8graphics9composer318BpComposerCallbackE"
    },
    {
     "referenced_type" : "_ZTIPi"
    }
   ],
   "return_type" : "_ZTIN3ndk13ScopedAStatusE",
   "source_file" : "out/soong/.intermediates/hardware/interfaces/graphics/composer/aidl/android.hardware.graphics.composer3-V1-ndk-source/gen/include/aidl/android/hardware/graphics/composer3/BpComposerCallback.h"
  },
  {
   "function_name" : "aidl::android::hardware::graphics::composer3::BpComposerCallback::onVsyncPeriodTimingChanged",
   "linker_set_key" : "_ZN4aidl7android8hardware8graphics9composer318BpComposerCallback26onVsyncPeriodTimingChangedExRKNS3_25VsyncPeriodChangeTimelineE",
   "parameters" :
   [
    {
     "is_this_ptr" : true,
     "referenced_type" : "_ZTIPN4aidl7android8hardware8graphics9composer318BpComposerCallbackE"
    },
    {
     "referenced_type" : "_ZTIx"
    },
    {
     "referenced_type" : "_ZTIRKN4aidl7android8hardware8graphics9composer325VsyncPeriodChangeTimelineE"
    }
   ],
   "return_type" : "_ZTIN3ndk13ScopedAStatusE",
   "source_file" : "out/soong/.intermediates/hardware/interfaces/graphics/composer/aidl/android.hardware.graphics.composer3-V1-ndk-source/gen/include/aidl/android/hardware/graphics/composer3/BpComposerCallback.h"
  },
  {
   "function_name" : "aidl::android::hardware::graphics::composer3::BpComposerCallback::onVsync",
   "linker_set_key" : "_ZN4aidl7android8hardware8graphics9composer318BpComposerCallback7onVsyncExxi",
   "parameters" :
   [
    {
     "is_this_ptr" : true,
     "referenced_type" : "_ZTIPN4aidl7android8hardware8graphics9composer318BpComposerCallbackE"
    },
    {
     "referenced_type" : "_ZTIx"
    },
    {
     "referenced_type" : "_ZTIx"
    },
    {
     "referenced_type" : "_ZTIi"
    }
   ],
   "return_type" : "_ZTIN3ndk13ScopedAStatusE",
   "source_file" : "out/soong/.intermediates/hardware/interfaces/graphics/composer/aidl/android.hardware.graphics.composer3-V1-ndk-source/gen/include/aidl/android/hardware/graphics/composer3/BpComposerCallback.h"
  },
  {
   "function_name" : "aidl::android::hardware::graphics::composer3::BpComposerCallback::onHotplug",
   "linker_set_key" : "_ZN4aidl7android8hardware8graphics9composer318BpComposerCallback9onHotplugExb",
   "parameters" :
   [
    {
     "is_this_ptr" : true,
     "referenced_type" : "_ZTIPN4aidl7android8hardware8graphics9composer318BpComposerCallbackE"
    },
    {
     "referenced_type" : "_ZTIx"
    },
    {
     "referenced_type" : "_ZTIb"
    }
   ],
   "return_type" : "_ZTIN3ndk13ScopedAStatusE",
   "source_file" : "out/soong/.intermediates/hardware/interfaces/graphics/composer/aidl/android.hardware.graphics.composer3-V1-ndk-source/gen/include/aidl/android/hardware/graphics/composer3/BpComposerCallback.h"
  },
  {
   "function_name" : "aidl::android::hardware::graphics::composer3::BpComposerCallback::onRefresh",
   "linker_set_key" : "_ZN4aidl7android8hardware8graphics9composer318BpComposerCallback9onRefreshEx",
   "parameters" :
   [
    {
     "is_this_ptr" : true,
     "referenced_type" : "_ZTIPN4aidl7android8hardware8graphics9composer318BpComposerCallbackE"
    },
    {
     "referenced_type" : "_ZTIx"
    }
   ],
   "return_type" : "_ZTIN3ndk13ScopedAStatusE",
   "source_file" : "out/soong/.intermediates/hardware/interfaces/graphics/composer/aidl/android.hardware.graphics.composer3-V1-ndk-source/gen/include/aidl/android/hardware/graphics/composer3/BpComposerCallback.h"
  },
  {
   "function_name" : "aidl::android::hardware::graphics::composer3::BpComposerCallback::BpComposerCallback",
   "linker_set_key" : "_ZN4aidl7android8hardware8graphics9composer318BpComposerCallbackC1ERKN3ndk10SpAIBinderE",
   "parameters" :
   [
    {
     "is_this_ptr" : true,
     "referenced_type" : "_ZTIPN4aidl7android8hardware8graphics9composer318BpComposerCallbackE"
    },
    {
     "referenced_type" : "_ZTIRKN3ndk10SpAIBinderE"
    }
   ],
   "return_type" : "_ZTIv",
   "source_file" : "out/soong/.intermediates/hardware/interfaces/graphics/composer/aidl/android.hardware.graphics.composer3-V1-ndk-source/gen/include/aidl/android/hardware/graphics/composer3/BpComposerCallback.h"
  },
  {
   "function_name" : "aidl::android::hardware::graphics::composer3::BpComposerCallback::BpComposerCallback",
   "linker_set_key" : "_ZN4aidl7android8hardware8graphics9composer318BpComposerCallbackC2ERKN3ndk10SpAIBinderE",
   "parameters" :
   [
    {
     "is_this_ptr" : true,
     "referenced_type" : "_ZTIPN4aidl7android8hardware8graphics9composer318BpComposerCallbackE"
    },
    {
     "referenced_type" : "_ZTIRKN3ndk10SpAIBinderE"
    }
   ],
   "return_type" : "_ZTIv",
   "source_file" : "out/soong/.intermediates/hardware/interfaces/graphics/composer/aidl/android.hardware.graphics.composer3-V1-ndk-source/gen/include/aidl/android/hardware/graphics/composer3/BpComposerCallback.h"
  },
  {
   "function_name" : "aidl::android::hardware::graphics::composer3::BpComposerCallback::~BpComposerCallback",
   "linker_set_key" : "_ZN4aidl7android8hardware8graphics9composer318BpComposerCallbackD0Ev",
   "parameters" :
   [
    {
     "is_this_ptr" : true,
     "referenced_type" : "_ZTIPN4aidl7android8hardware8graphics9composer318BpComposerCallbackE"
    }
   ],
   "return_type" : "_ZTIv",
   "source_file" : "out/soong/.intermediates/hardware/interfaces/graphics/composer/aidl/android.hardware.graphics.composer3-V1-ndk-source/gen/include/aidl/android/hardware/graphics/composer3/BpComposerCallback.h"
  },
  {
   "function_name" : "aidl::android::hardware::graphics::composer3::BpComposerCallback::~BpComposerCallback",
   "linker_set_key" : "_ZN4aidl7android8hardware8graphics9composer318BpComposerCallbackD1Ev",
   "parameters" :
   [
    {
     "is_this_ptr" : true,
     "referenced_type" : "_ZTIPN4aidl7android8hardware8graphics9composer318BpComposerCallbackE"
    }
   ],
   "return_type" : "_ZTIv",
   "source_file" : "out/soong/.intermediates/hardware/interfaces/graphics/composer/aidl/android.hardware.graphics.composer3-V1-ndk-source/gen/include/aidl/android/hardware/graphics/composer3/BpComposerCallback.h"
  },
  {
   "function_name" : "aidl::android::hardware::graphics::composer3::BpComposerCallback::~BpComposerCallback",
   "linker_set_key" : "_ZN4aidl7android8hardware8graphics9composer318BpComposerCallbackD2Ev",
   "parameters" :
   [
    {
     "is_this_ptr" : true,
     "referenced_type" : "_ZTIPN4aidl7android8hardware8graphics9composer318BpComposerCallbackE"
    }
   ],
   "return_type" : "_ZTIv",
   "source_file" : "out/soong/.intermediates/hardware/interfaces/graphics/composer/aidl/android.hardware.graphics.composer3-V1-ndk-source/gen/include/aidl/android/hardware/graphics/composer3/BpComposerCallback.h"
  },
  {
   "function_name" : "aidl::android::hardware::graphics::composer3::ParcelableBlendMode::readFromParcel",
   "linker_set_key" : "_ZN4aidl7android8hardware8graphics9composer319ParcelableBlendMode14readFromParcelEPK7AParcel",
   "parameters" :
   [
    {
     "is_this_ptr" : true,
     "referenced_type" : "_ZTIPN4aidl7android8hardware8graphics9composer319ParcelableBlendModeE"
    },
    {
     "referenced_type" : "_ZTIPK7AParcel"
    }
   ],
   "return_type" : "_ZTIi",
   "source_file" : "out/soong/.intermediates/hardware/interfaces/graphics/composer/aidl/android.hardware.graphics.composer3-V1-ndk-source/gen/include/aidl/android/hardware/graphics/composer3/ParcelableBlendMode.h"
  },
  {
   "function_name" : "aidl::android::hardware::graphics::composer3::ParcelableDataspace::readFromParcel",
   "linker_set_key" : "_ZN4aidl7android8hardware8graphics9composer319ParcelableDataspace14readFromParcelEPK7AParcel",
   "parameters" :
   [
    {
     "is_this_ptr" : true,
     "referenced_type" : "_ZTIPN4aidl7android8hardware8graphics9composer319ParcelableDataspaceE"
    },
    {
     "referenced_type" : "_ZTIPK7AParcel"
    }
   ],
   "return_type" : "_ZTIi",
   "source_file" : "out/soong/.intermediates/hardware/interfaces/graphics/composer/aidl/android.hardware.graphics.composer3-V1-ndk-source/gen/include/aidl/android/hardware/graphics/composer3/ParcelableDataspace.h"
  },
  {
   "function_name" : "aidl::android::hardware::graphics::composer3::ParcelableTransform::readFromParcel",
   "linker_set_key" : "_ZN4aidl7android8hardware8graphics9composer319ParcelableTransform14readFromParcelEPK7AParcel",
   "parameters" :
   [
    {
     "is_this_ptr" : true,
     "referenced_type" : "_ZTIPN4aidl7android8hardware8graphics9composer319ParcelableTransformE"
    },
    {
     "referenced_type" : "_ZTIPK7AParcel"
    }
   ],
   "return_type" : "_ZTIi",
   "source_file" : "out/soong/.intermediates/hardware/interfaces/graphics/composer/aidl/android.hardware.graphics.composer3-V1-ndk-source/gen/include/aidl/android/hardware/graphics/composer3/ParcelableTransform.h"
  },
  {
   "function_name" : "aidl::android::hardware::graphics::composer3::ClientTargetProperty::readFromParcel",
   "linker_set_key" : "_ZN4aidl7android8hardware8graphics9composer320ClientTargetProperty14readFromParcelEPK7AParcel",
   "parameters" :
   [
    {
     "is_this_ptr" : true,
     "referenced_type" : "_ZTIPN4aidl7android8hardware8graphics9composer320ClientTargetPropertyE"
    },
    {
     "referenced_type" : "_ZTIPK7AParcel"
    }
   ],
   "return_type" : "_ZTIi",
   "source_file" : "out/soong/.intermediates/hardware/interfaces/graphics/composer/aidl/android.hardware.graphics.composer3-V1-ndk-source/gen/include/aidl/android/hardware/graphics/composer3/ClientTargetProperty.h"
  },
  {
   "function_name" : "aidl::android::hardware::graphics::composer3::CommandResultPayload::readFromParcel",
   "linker_set_key" : "_ZN4aidl7android8hardware8graphics9composer320CommandResultPayload14readFromParcelEPK7AParcel",
   "parameters" :
   [
    {
     "is_this_ptr" : true,
     "referenced_type" : "_ZTIPN4aidl7android8hardware8graphics9composer320CommandResultPayloadE"
    },
    {
     "referenced_type" : "_ZTIPK7AParcel"
    }
   ],
   "return_type" : "_ZTIi",
   "source_file" : "out/soong/.intermediates/hardware/interfaces/graphics/composer/aidl/android.hardware.graphics.composer3-V1-ndk-source/gen/include/aidl/android/hardware/graphics/composer3/CommandResultPayload.h"
  },
  {
   "function_name" : "aidl::android::hardware::graphics::composer3::DisplayContentSample::readFromParcel",
   "linker_set_key" : "_ZN4aidl7android8hardware8graphics9composer320DisplayContentSample14readFromParcelEPK7AParcel",
   "parameters" :
   [
    {
     "is_this_ptr" : true,
     "referenced_type" : "_ZTIPN4aidl7android8hardware8graphics9composer320DisplayContentSampleE"
    },
    {
     "referenced_type" : "_ZTIPK7AParcel"
    }
   ],
   "return_type" : "_ZTIi",
   "source_file" : "out/soong/.intermediates/hardware/interfaces/graphics/composer/aidl/android.hardware.graphics.composer3-V1-ndk-source/gen/include/aidl/android/hardware/graphics/composer3/DisplayContentSample.h"
  },
  {
   "function_name" : "aidl::android::hardware::graphics::composer3::PerFrameMetadataBlob::readFromParcel",
   "linker_set_key" : "_ZN4aidl7android8hardware8graphics9composer320PerFrameMetadataBlob14readFromParcelEPK7AParcel",
   "parameters" :
   [
    {
     "is_this_ptr" : true,
     "referenced_type" : "_ZTIPN4aidl7android8hardware8graphics9composer320PerFrameMetadataBlobE"
    },
    {
     "referenced_type" : "_ZTIPK7AParcel"
    }
   ],
   "return_type" : "_ZTIi",
   "source_file" : "out/soong/.intermediates/hardware/interfaces/graphics/composer/aidl/android.hardware.graphics.composer3-V1-ndk-source/gen/include/aidl/android/hardware/graphics/composer3/PerFrameMetadataBlob.h"
  },
  {
   "function_name" : "aidl::android::hardware::graphics::composer3::DisplayIdentification::readFromParcel",
   "linker_set_key" : "_ZN4aidl7android8hardware8graphics9composer321DisplayIdentification14readFromParcelEPK7AParcel",
   "parameters" :
   [
    {
     "is_this_ptr" : true,
     "referenced_type" : "_ZTIPN4aidl7android8hardware8graphics9composer321DisplayIdentificationE"
    },
    {
     "referenced_type" : "_ZTIPK7AParcel"
    }
   ],
   "return_type" : "_ZTIi",
   "source_file" : "out/soong/.intermediates/hardware/interfaces/graphics/composer/aidl/android.hardware.graphics.composer3-V1-ndk-source/gen/include/aidl/android/hardware/graphics/composer3/DisplayIdentification.h"
  },
  {
   "function_name" : "aidl::android::hardware::graphics::composer3::ParcelableComposition::readFromParcel",
   "linker_set_key" : "_ZN4aidl7android8hardware8graphics9composer321ParcelableComposition14readFromParcelEPK7AParcel",
   "parameters" :
   [
    {
     "is_this_ptr" : true,
     "referenced_type" : "_ZTIPN4aidl7android8hardware8graphics9composer321ParcelableCompositionE"
    },
    {
     "referenced_type" : "_ZTIPK7AParcel"
    }
   ],
   "return_type" : "_ZTIi",
   "source_file" : "out/soong/.intermediates/hardware/interfaces/graphics/composer/aidl/android.hardware.graphics.composer3-V1-ndk-source/gen/include/aidl/android/hardware/graphics/composer3/ParcelableComposition.h"
  },
  {
   "function_name" : "aidl::android::hardware::graphics::composer3::IComposerClientDefault::createLayer",
   "linker_set_key" : "_ZN4aidl7android8hardware8graphics9composer322IComposerClientDefault11createLayerExiPx",
   "parameters" :
   [
    {
     "is_this_ptr" : true,
     "referenced_type" : "_ZTIPN4aidl7android8hardware8graphics9composer322IComposerClientDefaultE"
    },
    {
     "referenced_type" : "_ZTIx"
    },
    {
     "referenced_type" : "_ZTIi"
    },
    {
     "referenced_type" : "_ZTIPx"
    }
   ],
   "return_type" : "_ZTIN3ndk13ScopedAStatusE",
   "source_file" : "out/soong/.intermediates/hardware/interfaces/graphics/composer/aidl/android.hardware.graphics.composer3-V1-ndk-source/gen/include/aidl/android/hardware/graphics/composer3/IComposerClient.h"
  },
  {
   "function_name" : "aidl::android::hardware::graphics::composer3::IComposerClientDefault::destroyLayer",
   "linker_set_key" : "_ZN4aidl7android8hardware8graphics9composer322IComposerClientDefault12destroyLayerExx",
   "parameters" :
   [
    {
     "is_this_ptr" : true,
     "referenced_type" : "_ZTIPN4aidl7android8hardware8graphics9composer322IComposerClientDefaultE"
    },
    {
     "referenced_type" : "_ZTIx"
    },
    {
     "referenced_type" : "_ZTIx"
    }
   ],
   "return_type" : "_ZTIN3ndk13ScopedAStatusE",
   "source_file" : "out/soong/.intermediates/hardware/interfaces/graphics/composer/aidl/android.hardware.graphics.composer3-V1-ndk-source/gen/include/aidl/android/hardware/graphics/composer3/IComposerClient.h"
  },
  {
   "function_name" : "aidl::android::hardware::graphics::composer3::IComposerClientDefault::setColorMode",
   "linker_set_key" : "_ZN4aidl7android8hardware8graphics9composer322IComposerClientDefault12setColorModeExNS3_9ColorModeENS3_12RenderIntentE",
   "parameters" :
   [
    {
     "is_this_ptr" : true,
     "referenced_type" : "_ZTIPN4aidl7android8hardware8graphics9composer322IComposerClientDefaultE"
    },
    {
     "referenced_type" : "_ZTIx"
    },
    {
     "referenced_type" : "_ZTIN4aidl7android8hardware8graphics9composer39ColorModeE"
    },
    {
     "referenced_type" : "_ZTIN4aidl7android8hardware8graphics9composer312RenderIntentE"
    }
   ],
   "return_type" : "_ZTIN3ndk13ScopedAStatusE",
   "source_file" : "out/soong/.intermediates/hardware/interfaces/graphics/composer/aidl/android.hardware.graphics.composer3-V1-ndk-source/gen/include/aidl/android/hardware/graphics/composer3/IComposerClient.h"
  },
  {
   "function_name" : "aidl::android::hardware::graphics::composer3::IComposerClientDefault::setPowerMode",
   "linker_set_key" : "_ZN4aidl7android8hardware8graphics9composer322IComposerClientDefault12setPowerModeExNS3_9PowerModeE",
   "parameters" :
   [
    {
     "is_this_ptr" : true,
     "referenced_type" : "_ZTIPN4aidl7android8hardware8graphics9composer322IComposerClientDefaultE"
    },
    {
     "referenced_type" : "_ZTIx"
    },
    {
     "referenced_type" : "_ZTIN4aidl7android8hardware8graphics9composer39PowerModeE"
    }
   ],
   "return_type" : "_ZTIN3ndk13ScopedAStatusE",
   "source_file" : "out/soong/.intermediates/hardware/interfaces/graphics/composer/aidl/android.hardware.graphics.composer3-V1-ndk-source/gen/include/aidl/android/hardware/graphics/composer3/IComposerClient.h"
  },
  {
   "function_name" : "aidl::android::hardware::graphics::composer3::IComposerClientDefault::getColorModes",
   "linker_set_key" : "_ZN4aidl7android8hardware8graphics9composer322IComposerClientDefault13getColorModesExPNSt3__16vectorINS3_9ColorModeENS5_9allocatorIS7_EEEE",
   "parameters" :
   [
    {
     "is_this_ptr" : true,
     "referenced_type" : "_ZTIPN4aidl7android8hardware8graphics9composer322IComposerClientDefaultE"
    },
    {
     "referenced_type" : "_ZTIx"
    },
    {
     "referenced_type" : "_ZTIPNSt3__16vectorIN4aidl7android8hardware8graphics9composer39ColorModeENS_9allocatorIS6_EEEE"
    }
   ],
   "return_type" : "_ZTIN3ndk13ScopedAStatusE",
   "source_file" : "out/soong/.intermediates/hardware/interfaces/graphics/composer/aidl/android.hardware.graphics.composer3-V1-ndk-source/gen/include/aidl/android/hardware/graphics/composer3/IComposerClient.h"
  },
  {
   "function_name" : "aidl::android::hardware::graphics::composer3::IComposerClientDefault::getDisplayName",
   "linker_set_key" : "_ZN4aidl7android8hardware8graphics9composer322IComposerClientDefault14getDisplayNameExPNSt3__112basic_stringIcNS5_11char_traitsIcEENS5_9allocatorIcEEEE",
   "parameters" :
   [
    {
     "is_this_ptr" : true,
     "referenced_type" : "_ZTIPN4aidl7android8hardware8graphics9composer322IComposerClientDefaultE"
    },
    {
     "referenced_type" : "_ZTIx"
    },
    {
     "referenced_type" : "_ZTIPNSt3__112basic_stringIcNS_11char_traitsIcEENS_9allocatorIcEEEE"
    }
   ],
   "return_type" : "_ZTIN3ndk13ScopedAStatusE",
   "source_file" : "out/soong/.intermediates/hardware/interfaces/graphics/composer/aidl/android.hardware.graphics.composer3-V1-ndk-source/gen/include/aidl/android/hardware/graphics/composer3/IComposerClient.h"
  },
  {
   "function_name" : "aidl::android::hardware::graphics::composer3::IComposerClientDefault::setContentType",
   "linker_set_key" : "_ZN4aidl7android8hardware8graphics9composer322IComposerClientDefault14setContentTypeExNS3_11ContentTypeE",
   "parameters" :
   [
    {
     "is_this_ptr" : true,
     "referenced_type" : "_ZTIPN4aidl7android8hardware8graphics9composer322IComposerClientDefaultE"
    },
    {
     "referenced_type" : "_ZTIx"
    },
    {
     "referenced_type" : "_ZTIN4aidl7android8hardware8graphics9composer311ContentTypeE"
    }
   ],
   "return_type" : "_ZTIN3ndk13ScopedAStatusE",
   "source_file" : "out/soong/.intermediates/hardware/interfaces/graphics/composer/aidl/android.hardware.graphics.composer3-V1-ndk-source/gen/include/aidl/android/hardware/graphics/composer3/IComposerClient.h"
  },
  {
   "function_name" : "aidl::android::hardware::graphics::composer3::IComposerClientDefault::executeCommands",
   "linker_set_key" : "_ZN4aidl7android8hardware8graphics9composer322IComposerClientDefault15executeCommandsERKNSt3__16vectorINS3_14DisplayCommandENS5_9allocatorIS7_EEEEPNS6_INS3_20CommandResultPayloadENS8_ISD_EEEE",
   "parameters" :
   [
    {
     "is_this_ptr" : true,
     "referenced_type" : "_ZTIPN4aidl7android8hardware8graphics9composer322IComposerClientDefaultE"
    },
    {
     "referenced_type" : "_ZTIRKNSt3__16vectorIN4aidl7android8hardware8graphics9composer314DisplayCommandENS_9allocatorIS6_EEEE"
    },
    {
     "referenced_type" : "_ZTIPNSt3__16vectorIN4aidl7android8hardware8graphics9composer320CommandResultPayloadENS_9allocatorIS6_EEEE"
    }
   ],
   "return_type" : "_ZTIN3ndk13ScopedAStatusE",
