{
 "array_types" : [],
 "builtin_types" :
 [
  {
   "alignment" : 4,
   "linker_set_key" : "_ZTIDn",
   "name" : "std::nullptr_t",
   "referenced_type" : "_ZTIDn",
   "self_type" : "_ZTIDn",
   "size" : 4
  },
  {
   "alignment" : 1,
   "is_integral" : true,
   "is_unsigned" : true,
   "linker_set_key" : "_ZTIb",
   "name" : "bool",
   "referenced_type" : "_ZTIb",
   "self_type" : "_ZTIb",
   "size" : 1
  },
  {
   "alignment" : 1,
   "is_integral" : true,
   "linker_set_key" : "_ZTIc",
   "name" : "char",
   "referenced_type" : "_ZTIc",
   "self_type" : "_ZTIc",
   "size" : 1
  },
  {
   "alignment" : 4,
   "is_integral" : true,
   "linker_set_key" : "_ZTIi",
   "name" : "int",
   "referenced_type" : "_ZTIi",
   "self_type" : "_ZTIi",
   "size" : 4
  },
  {
   "alignment" : 4,
   "is_integral" : true,
   "is_unsigned" : true,
   "linker_set_key" : "_ZTIj",
   "name" : "unsigned int",
   "referenced_type" : "_ZTIj",
   "self_type" : "_ZTIj",
   "size" : 4
  },
  {
   "linker_set_key" : "_ZTIv",
   "name" : "void",
   "referenced_type" : "_ZTIv",
   "self_type" : "_ZTIv"
  }
 ],
 "elf_functions" :
 [
  {
   "binding" : "weak",
   "name" : "_ZN3ndk12BnCInterfaceIN4aidl7android8hardware5radio5modem11IRadioModemEE8asBinderEv"
  },
  {
   "binding" : "weak",
   "name" : "_ZN3ndk12BnCInterfaceIN4aidl7android8hardware5radio5modem19IRadioModemResponseEE8asBinderEv"
  },
  {
   "binding" : "weak",
   "name" : "_ZN3ndk12BnCInterfaceIN4aidl7android8hardware5radio5modem21IRadioModemIndicationEE8asBinderEv"
  },
  {
   "binding" : "weak",
   "name" : "_ZN3ndk12BpCInterfaceIN4aidl7android8hardware5radio5modem11IRadioModemEE8asBinderEv"
  },
  {
   "binding" : "weak",
   "name" : "_ZN3ndk12BpCInterfaceIN4aidl7android8hardware5radio5modem19IRadioModemResponseEE8asBinderEv"
  },
  {
   "binding" : "weak",
   "name" : "_ZN3ndk12BpCInterfaceIN4aidl7android8hardware5radio5modem21IRadioModemIndicationEE8asBinderEv"
  },
  {
   "binding" : "weak",
   "name" : "_ZN3ndk38AParcel_readStdVectorParcelableElementIN4aidl7android8hardware5radio5modem14HardwareConfigEEEiPK7AParcelPvj"
  },
  {
   "binding" : "weak",
   "name" : "_ZN3ndk38AParcel_readStdVectorParcelableElementIN4aidl7android8hardware5radio5modem17HardwareConfigSimEEEiPK7AParcelPvj"
  },
  {
   "binding" : "weak",
   "name" : "_ZN3ndk38AParcel_readStdVectorParcelableElementIN4aidl7android8hardware5radio5modem19HardwareConfigModemEEEiPK7AParcelPvj"
  },
  {
   "binding" : "weak",
   "name" : "_ZN3ndk38AParcel_readStdVectorParcelableElementIN4aidl7android8hardware5radio5modem29ActivityStatsTechSpecificInfoEEEiPK7AParcelPvj"
  },
  {
   "binding" : "weak",
   "name" : "_ZN3ndk39AParcel_writeStdVectorParcelableElementIN4aidl7android8hardware5radio5modem14HardwareConfigEEEiP7AParcelPKvj"
  },
  {
   "binding" : "weak",
   "name" : "_ZN3ndk39AParcel_writeStdVectorParcelableElementIN4aidl7android8hardware5radio5modem17HardwareConfigSimEEEiP7AParcelPKvj"
  },
  {
   "binding" : "weak",
   "name" : "_ZN3ndk39AParcel_writeStdVectorParcelableElementIN4aidl7android8hardware5radio5modem19HardwareConfigModemEEEiP7AParcelPKvj"
  },
  {
   "binding" : "weak",
   "name" : "_ZN3ndk39AParcel_writeStdVectorParcelableElementIN4aidl7android8hardware5radio5modem29ActivityStatsTechSpecificInfoEEEiP7AParcelPKvj"
  },
  {
   "name" : "_ZN4aidl7android8hardware5radio5modem11IRadioModem10fromBinderERKN3ndk10SpAIBinderE"
  },
  {
   "name" : "_ZN4aidl7android8hardware5radio5modem11IRadioModem13writeToParcelEP7AParcelRKNSt3__110shared_ptrIS4_EE"
  },
  {
   "name" : "_ZN4aidl7android8hardware5radio5modem11IRadioModem14getDefaultImplEv"
  },
  {
   "name" : "_ZN4aidl7android8hardware5radio5modem11IRadioModem14readFromParcelEPK7AParcelPNSt3__110shared_ptrIS4_EE"
  },
  {
   "name" : "_ZN4aidl7android8hardware5radio5modem11IRadioModem14setDefaultImplERKNSt3__110shared_ptrIS4_EE"
  },
  {
   "name" : "_ZN4aidl7android8hardware5radio5modem11IRadioModemC2Ev"
  },
  {
   "name" : "_ZN4aidl7android8hardware5radio5modem11IRadioModemD0Ev"
  },
  {
   "name" : "_ZN4aidl7android8hardware5radio5modem11IRadioModemD1Ev"
  },
  {
   "name" : "_ZN4aidl7android8hardware5radio5modem11IRadioModemD2Ev"
  },
  {
   "name" : "_ZN4aidl7android8hardware5radio5modem11NvWriteItem14readFromParcelEPK7AParcel"
  },
  {
   "name" : "_ZN4aidl7android8hardware5radio5modem12BnRadioModem12createBinderEv"
  },
  {
   "name" : "_ZN4aidl7android8hardware5radio5modem12BnRadioModem16getInterfaceHashEPNSt3__112basic_stringIcNS5_11char_traitsIcEENS5_9allocatorIcEEEE"
  },
  {
   "name" : "_ZN4aidl7android8hardware5radio5modem12BnRadioModem19getInterfaceVersionEPi"
  },
  {
   "name" : "_ZN4aidl7android8hardware5radio5modem12BnRadioModemC2Ev"
  },
  {
   "name" : "_ZN4aidl7android8hardware5radio5modem12BnRadioModemD0Ev"
  },
  {
   "name" : "_ZN4aidl7android8hardware5radio5modem12BnRadioModemD1Ev"
  },
  {
   "name" : "_ZN4aidl7android8hardware5radio5modem12BnRadioModemD2Ev"
  },
  {
   "name" : "_ZN4aidl7android8hardware5radio5modem12BpRadioModem10nvReadItemEiNS3_6NvItemE"
  },
  {
   "name" : "_ZN4aidl7android8hardware5radio5modem12BpRadioModem11enableModemEib"
  },
  {
   "name" : "_ZN4aidl7android8hardware5radio5modem12BpRadioModem11nvWriteItemEiRKNS3_11NvWriteItemE"
  },
  {
   "name" : "_ZN4aidl7android8hardware5radio5modem12BpRadioModem13nvResetConfigEiNS3_11ResetNvTypeE"
  },
  {
   "name" : "_ZN4aidl7android8hardware5radio5modem12BpRadioModem13setRadioPowerEibbb"
  },
  {
   "name" : "_ZN4aidl7android8hardware5radio5modem12BpRadioModem14nvWriteCdmaPrlEiRKNSt3__16vectorIhNS5_9allocatorIhEEEE"
  },
  {
   "name" : "_ZN4aidl7android8hardware5radio5modem12BpRadioModem15requestShutdownEi"
  },
  {
   "name" : "_ZN4aidl7android8hardware5radio5modem12BpRadioModem15sendDeviceStateEiNS3_15DeviceStateTypeEb"
  },
  {
   "name" : "_ZN4aidl7android8hardware5radio5modem12BpRadioModem16getInterfaceHashEPNSt3__112basic_stringIcNS5_11char_traitsIcEENS5_9allocatorIcEEEE"
  },
  {
   "name" : "_ZN4aidl7android8hardware5radio5modem12BpRadioModem17getDeviceIdentityEi"
  },
  {
   "name" : "_ZN4aidl7android8hardware5radio5modem12BpRadioModem17getHardwareConfigEi"
  },
  {
   "name" : "_ZN4aidl7android8hardware5radio5modem12BpRadioModem18getBasebandVersionEi"
  },
  {
   "name" : "_ZN4aidl7android8hardware5radio5modem12BpRadioModem18getRadioCapabilityEi"
  },
  {
   "name" : "_ZN4aidl7android8hardware5radio5modem12BpRadioModem18setRadioCapabilityEiRKNS3_15RadioCapabilityE"
  },
  {
   "name" : "_ZN4aidl7android8hardware5radio5modem12BpRadioModem19getInterfaceVersionEPi"
  },
  {
   "name" : "_ZN4aidl7android8hardware5radio5modem12BpRadioModem19getModemStackStatusEi"
  },
  {
   "name" : "_ZN4aidl7android8hardware5radio5modem12BpRadioModem20getModemActivityInfoEi"
  },
  {
   "name" : "_ZN4aidl7android8hardware5radio5modem12BpRadioModem20setResponseFunctionsERKNSt3__110shared_ptrINS3_19IRadioModemResponseEEERKNS6_INS3_21IRadioModemIndicationEEE"
  },
  {
   "name" : "_ZN4aidl7android8hardware5radio5modem12BpRadioModem23responseAcknowledgementEv"
  },
  {
   "name" : "_ZN4aidl7android8hardware5radio5modem12BpRadioModemC1ERKN3ndk10SpAIBinderE"
  },
  {
   "name" : "_ZN4aidl7android8hardware5radio5modem12BpRadioModemC2ERKN3ndk10SpAIBinderE"
  },
  {
   "name" : "_ZN4aidl7android8hardware5radio5modem12BpRadioModemD0Ev"
  },
  {
   "name" : "_ZN4aidl7android8hardware5radio5modem12BpRadioModemD1Ev"
  },
  {
   "name" : "_ZN4aidl7android8hardware5radio5modem12BpRadioModemD2Ev"
  },
  {
   "name" : "_ZN4aidl7android8hardware5radio5modem14HardwareConfig14readFromParcelEPK7AParcel"
  },
  {
   "name" : "_ZN4aidl7android8hardware5radio5modem15RadioCapability14readFromParcelEPK7AParcel"
  },
  {
   "name" : "_ZN4aidl7android8hardware5radio5modem17ActivityStatsInfo14readFromParcelEPK7AParcel"
  },
  {
   "name" : "_ZN4aidl7android8hardware5radio5modem17HardwareConfigSim14readFromParcelEPK7AParcel"
  },
  {
   "name" : "_ZN4aidl7android8hardware5radio5modem18IRadioModemDefault10nvReadItemEiNS3_6NvItemE"
  },
  {
   "name" : "_ZN4aidl7android8hardware5radio5modem18IRadioModemDefault11enableModemEib"
  },
  {
   "name" : "_ZN4aidl7android8hardware5radio5modem18IRadioModemDefault11nvWriteItemEiRKNS3_11NvWriteItemE"
  },
  {
   "name" : "_ZN4aidl7android8hardware5radio5modem18IRadioModemDefault13nvResetConfigEiNS3_11ResetNvTypeE"
  },
  {
   "name" : "_ZN4aidl7android8hardware5radio5modem18IRadioModemDefault13setRadioPowerEibbb"
  },
  {
   "name" : "_ZN4aidl7android8hardware5radio5modem18IRadioModemDefault14nvWriteCdmaPrlEiRKNSt3__16vectorIhNS5_9allocatorIhEEEE"
  },
  {
   "name" : "_ZN4aidl7android8hardware5radio5modem18IRadioModemDefault15requestShutdownEi"
  },
  {
   "name" : "_ZN4aidl7android8hardware5radio5modem18IRadioModemDefault15sendDeviceStateEiNS3_15DeviceStateTypeEb"
  },
  {
   "name" : "_ZN4aidl7android8hardware5radio5modem18IRadioModemDefault16getInterfaceHashEPNSt3__112basic_stringIcNS5_11char_traitsIcEENS5_9allocatorIcEEEE"
  },
  {
   "name" : "_ZN4aidl7android8hardware5radio5modem18IRadioModemDefault17getDeviceIdentityEi"
  },
  {
   "name" : "_ZN4aidl7android8hardware5radio5modem18IRadioModemDefault17getHardwareConfigEi"
  },
  {
   "name" : "_ZN4aidl7android8hardware5radio5modem18IRadioModemDefault18getBasebandVersionEi"
  },
  {
   "name" : "_ZN4aidl7android8hardware5radio5modem18IRadioModemDefault18getRadioCapabilityEi"
  },
  {
   "name" : "_ZN4aidl7android8hardware5radio5modem18IRadioModemDefault18setRadioCapabilityEiRKNS3_15RadioCapabilityE"
  },
  {
   "name" : "_ZN4aidl7android8hardware5radio5modem18IRadioModemDefault19getInterfaceVersionEPi"
  },
  {
   "name" : "_ZN4aidl7android8hardware5radio5modem18IRadioModemDefault19getModemStackStatusEi"
  },
  {
   "name" : "_ZN4aidl7android8hardware5radio5modem18IRadioModemDefault20getModemActivityInfoEi"
  },
  {
   "name" : "_ZN4aidl7android8hardware5radio5modem18IRadioModemDefault20setResponseFunctionsERKNSt3__110shared_ptrINS3_19IRadioModemResponseEEERKNS6_INS3_21IRadioModemIndicationEEE"
  },
  {
   "name" : "_ZN4aidl7android8hardware5radio5modem18IRadioModemDefault23responseAcknowledgementEv"
  },
  {
   "name" : "_ZN4aidl7android8hardware5radio5modem18IRadioModemDefault8asBinderEv"
  },
  {
   "name" : "_ZN4aidl7android8hardware5radio5modem18IRadioModemDefault8isRemoteEv"
  },
  {
   "name" : "_ZN4aidl7android8hardware5radio5modem19HardwareConfigModem14readFromParcelEPK7AParcel"
  },
  {
   "name" : "_ZN4aidl7android8hardware5radio5modem19IRadioModemResponse10fromBinderERKN3ndk10SpAIBinderE"
  },
  {
   "name" : "_ZN4aidl7android8hardware5radio5modem19IRadioModemResponse13writeToParcelEP7AParcelRKNSt3__110shared_ptrIS4_EE"
  },
  {
   "name" : "_ZN4aidl7android8hardware5radio5modem19IRadioModemResponse14getDefaultImplEv"
  },
  {
   "name" : "_ZN4aidl7android8hardware5radio5modem19IRadioModemResponse14readFromParcelEPK7AParcelPNSt3__110shared_ptrIS4_EE"
  },
  {
   "name" : "_ZN4aidl7android8hardware5radio5modem19IRadioModemResponse14setDefaultImplERKNSt3__110shared_ptrIS4_EE"
  },
  {
   "name" : "_ZN4aidl7android8hardware5radio5modem19IRadioModemResponseC2Ev"
  },
  {
   "name" : "_ZN4aidl7android8hardware5radio5modem19IRadioModemResponseD0Ev"
  },
  {
   "name" : "_ZN4aidl7android8hardware5radio5modem19IRadioModemResponseD1Ev"
  },
  {
   "name" : "_ZN4aidl7android8hardware5radio5modem19IRadioModemResponseD2Ev"
  },
  {
   "name" : "_ZN4aidl7android8hardware5radio5modem20BnRadioModemResponse12createBinderEv"
  },
  {
   "name" : "_ZN4aidl7android8hardware5radio5modem20BnRadioModemResponse16getInterfaceHashEPNSt3__112basic_stringIcNS5_11char_traitsIcEENS5_9allocatorIcEEEE"
  },
  {
   "name" : "_ZN4aidl7android8hardware5radio5modem20BnRadioModemResponse19getInterfaceVersionEPi"
  },
  {
   "name" : "_ZN4aidl7android8hardware5radio5modem20BnRadioModemResponseC2Ev"
  },
  {
   "name" : "_ZN4aidl7android8hardware5radio5modem20BnRadioModemResponseD0Ev"
  },
  {
   "name" : "_ZN4aidl7android8hardware5radio5modem20BnRadioModemResponseD1Ev"
  },
  {
   "name" : "_ZN4aidl7android8hardware5radio5modem20BnRadioModemResponseD2Ev"
  },
  {
   "name" : "_ZN4aidl7android8hardware5radio5modem20BpRadioModemResponse16getInterfaceHashEPNSt3__112basic_stringIcNS5_11char_traitsIcEENS5_9allocatorIcEEEE"
  },
  {
   "name" : "_ZN4aidl7android8hardware5radio5modem20BpRadioModemResponse18acknowledgeRequestEi"
  },
  {
   "name" : "_ZN4aidl7android8hardware5radio5modem20BpRadioModemResponse18nvReadItemResponseERKNS2_17RadioResponseInfoERKNSt3__112basic_stringIcNS8_11char_traitsIcEENS8_9allocatorIcEEEE"
  },
  {
   "name" : "_ZN4aidl7android8hardware5radio5modem20BpRadioModemResponse19enableModemResponseERKNS2_17RadioResponseInfoE"
  },
  {
   "name" : "_ZN4aidl7android8hardware5radio5modem20BpRadioModemResponse19getInterfaceVersionEPi"
  },
  {
   "name" : "_ZN4aidl7android8hardware5radio5modem20BpRadioModemResponse19nvWriteItemResponseERKNS2_17RadioResponseInfoE"
  },
  {
   "name" : "_ZN4aidl7android8hardware5radio5modem20BpRadioModemResponse21nvResetConfigResponseERKNS2_17RadioResponseInfoE"
  },
  {
   "name" : "_ZN4aidl7android8hardware5radio5modem20BpRadioModemResponse21setRadioPowerResponseERKNS2_17RadioResponseInfoE"
  },
  {
   "name" : "_ZN4aidl7android8hardware5radio5modem20BpRadioModemResponse22nvWriteCdmaPrlResponseERKNS2_17RadioResponseInfoE"
  },
  {
   "name" : "_ZN4aidl7android8hardware5radio5modem20BpRadioModemResponse23requestShutdownResponseERKNS2_17RadioResponseInfoE"
  },
  {
   "name" : "_ZN4aidl7android8hardware5radio5modem20BpRadioModemResponse23sendDeviceStateResponseERKNS2_17RadioResponseInfoE"
  },
  {
   "name" : "_ZN4aidl7android8hardware5radio5modem20BpRadioModemResponse25getDeviceIdentityResponseERKNS2_17RadioResponseInfoERKNSt3__112basic_stringIcNS8_11char_traitsIcEENS8_9allocatorIcEEEESG_SG_SG_"
  },
  {
   "name" : "_ZN4aidl7android8hardware5radio5modem20BpRadioModemResponse25getHardwareConfigResponseERKNS2_17RadioResponseInfoERKNSt3__16vectorINS3_14HardwareConfigENS8_9allocatorISA_EEEE"
  },
  {
   "name" : "_ZN4aidl7android8hardware5radio5modem20BpRadioModemResponse26getBasebandVersionResponseERKNS2_17RadioResponseInfoERKNSt3__112basic_stringIcNS8_11char_traitsIcEENS8_9allocatorIcEEEE"
  },
  {
   "name" : "_ZN4aidl7android8hardware5radio5modem20BpRadioModemResponse26getRadioCapabilityResponseERKNS2_17RadioResponseInfoERKNS3_15RadioCapabilityE"
  },
  {
   "name" : "_ZN4aidl7android8hardware5radio5modem20BpRadioModemResponse26setRadioCapabilityResponseERKNS2_17RadioResponseInfoERKNS3_15RadioCapabilityE"
  },
  {
   "name" : "_ZN4aidl7android8hardware5radio5modem20BpRadioModemResponse27getModemStackStatusResponseERKNS2_17RadioResponseInfoEb"
  },
  {
   "name" : "_ZN4aidl7android8hardware5radio5modem20BpRadioModemResponse28getModemActivityInfoResponseERKNS2_17RadioResponseInfoERKNS3_17ActivityStatsInfoE"
  },
  {
   "name" : "_ZN4aidl7android8hardware5radio5modem20BpRadioModemResponseC1ERKN3ndk10SpAIBinderE"
  },
  {
   "name" : "_ZN4aidl7android8hardware5radio5modem20BpRadioModemResponseC2ERKN3ndk10SpAIBinderE"
  },
  {
   "name" : "_ZN4aidl7android8hardware5radio5modem20BpRadioModemResponseD0Ev"
  },
  {
   "name" : "_ZN4aidl7android8hardware5radio5modem20BpRadioModemResponseD1Ev"
  },
  {
   "name" : "_ZN4aidl7android8hardware5radio5modem20BpRadioModemResponseD2Ev"
  },
  {
   "name" : "_ZN4aidl7android8hardware5radio5modem21IRadioModemIndication10fromBinderERKN3ndk10SpAIBinderE"
  },
  {
   "name" : "_ZN4aidl7android8hardware5radio5modem21IRadioModemIndication13writeToParcelEP7AParcelRKNSt3__110shared_ptrIS4_EE"
  },
  {
   "name" : "_ZN4aidl7android8hardware5radio5modem21IRadioModemIndication14getDefaultImplEv"
  },
  {
   "name" : "_ZN4aidl7android8hardware5radio5modem21IRadioModemIndication14readFromParcelEPK7AParcelPNSt3__110shared_ptrIS4_EE"
  },
  {
   "name" : "_ZN4aidl7android8hardware5radio5modem21IRadioModemIndication14setDefaultImplERKNSt3__110shared_ptrIS4_EE"
  },
  {
   "name" : "_ZN4aidl7android8hardware5radio5modem21IRadioModemIndicationC2Ev"
  },
  {
   "name" : "_ZN4aidl7android8hardware5radio5modem21IRadioModemIndicationD0Ev"
  },
  {
   "name" : "_ZN4aidl7android8hardware5radio5modem21IRadioModemIndicationD1Ev"
  },
  {
   "name" : "_ZN4aidl7android8hardware5radio5modem21IRadioModemIndicationD2Ev"
  },
  {
   "name" : "_ZN4aidl7android8hardware5radio5modem22BnRadioModemIndication12createBinderEv"
  },
  {
   "name" : "_ZN4aidl7android8hardware5radio5modem22BnRadioModemIndication16getInterfaceHashEPNSt3__112basic_stringIcNS5_11char_traitsIcEENS5_9allocatorIcEEEE"
  },
  {
   "name" : "_ZN4aidl7android8hardware5radio5modem22BnRadioModemIndication19getInterfaceVersionEPi"
  },
  {
   "name" : "_ZN4aidl7android8hardware5radio5modem22BnRadioModemIndicationC2Ev"
  },
  {
   "name" : "_ZN4aidl7android8hardware5radio5modem22BnRadioModemIndicationD0Ev"
  },
  {
   "name" : "_ZN4aidl7android8hardware5radio5modem22BnRadioModemIndicationD1Ev"
  },
  {
   "name" : "_ZN4aidl7android8hardware5radio5modem22BnRadioModemIndicationD2Ev"
  },
  {
   "name" : "_ZN4aidl7android8hardware5radio5modem22BpRadioModemIndication10modemResetENS2_19RadioIndicationTypeERKNSt3__112basic_stringIcNS6_11char_traitsIcEENS6_9allocatorIcEEEE"
  },
  {
   "name" : "_ZN4aidl7android8hardware5radio5modem22BpRadioModemIndication12rilConnectedENS2_19RadioIndicationTypeE"
  },
  {
   "name" : "_ZN4aidl7android8hardware5radio5modem22BpRadioModemIndication16getInterfaceHashEPNSt3__112basic_stringIcNS5_11char_traitsIcEENS5_9allocatorIcEEEE"
  },
  {
   "name" : "_ZN4aidl7android8hardware5radio5modem22BpRadioModemIndication17radioStateChangedENS2_19RadioIndicationTypeENS3_10RadioStateE"
  },
  {
   "name" : "_ZN4aidl7android8hardware5radio5modem22BpRadioModemIndication19getInterfaceVersionEPi"
  },
  {
   "name" : "_ZN4aidl7android8hardware5radio5modem22BpRadioModemIndication21hardwareConfigChangedENS2_19RadioIndicationTypeERKNSt3__16vectorINS3_14HardwareConfigENS6_9allocatorIS8_EEEE"
  },
  {
   "name" : "_ZN4aidl7android8hardware5radio5modem22BpRadioModemIndication25radioCapabilityIndicationENS2_19RadioIndicationTypeERKNS3_15RadioCapabilityE"
  },
  {
   "name" : "_ZN4aidl7android8hardware5radio5modem22BpRadioModemIndicationC1ERKN3ndk10SpAIBinderE"
  },
  {
   "name" : "_ZN4aidl7android8hardware5radio5modem22BpRadioModemIndicationC2ERKN3ndk10SpAIBinderE"
  },
  {
   "name" : "_ZN4aidl7android8hardware5radio5modem22BpRadioModemIndicationD0Ev"
  },
  {
   "name" : "_ZN4aidl7android8hardware5radio5modem22BpRadioModemIndicationD1Ev"
  },
  {
   "name" : "_ZN4aidl7android8hardware5radio5modem22BpRadioModemIndicationD2Ev"
  },
  {
   "name" : "_ZN4aidl7android8hardware5radio5modem26IRadioModemResponseDefault16getInterfaceHashEPNSt3__112basic_stringIcNS5_11char_traitsIcEENS5_9allocatorIcEEEE"
  },
  {
   "name" : "_ZN4aidl7android8hardware5radio5modem26IRadioModemResponseDefault18acknowledgeRequestEi"
  },
  {
   "name" : "_ZN4aidl7android8hardware5radio5modem26IRadioModemResponseDefault18nvReadItemResponseERKNS2_17RadioResponseInfoERKNSt3__112basic_stringIcNS8_11char_traitsIcEENS8_9allocatorIcEEEE"
  },
  {
   "name" : "_ZN4aidl7android8hardware5radio5modem26IRadioModemResponseDefault19enableModemResponseERKNS2_17RadioResponseInfoE"
  },
  {
   "name" : "_ZN4aidl7android8hardware5radio5modem26IRadioModemResponseDefault19getInterfaceVersionEPi"
  },
  {
   "name" : "_ZN4aidl7android8hardware5radio5modem26IRadioModemResponseDefault19nvWriteItemResponseERKNS2_17RadioResponseInfoE"
  },
  {
   "name" : "_ZN4aidl7android8hardware5radio5modem26IRadioModemResponseDefault21nvResetConfigResponseERKNS2_17RadioResponseInfoE"
  },
  {
   "name" : "_ZN4aidl7android8hardware5radio5modem26IRadioModemResponseDefault21setRadioPowerResponseERKNS2_17RadioResponseInfoE"
  },
  {
   "name" : "_ZN4aidl7android8hardware5radio5modem26IRadioModemResponseDefault22nvWriteCdmaPrlResponseERKNS2_17RadioResponseInfoE"
  },
  {
   "name" : "_ZN4aidl7android8hardware5radio5modem26IRadioModemResponseDefault23requestShutdownResponseERKNS2_17RadioResponseInfoE"
  },
  {
   "name" : "_ZN4aidl7android8hardware5radio5modem26IRadioModemResponseDefault23sendDeviceStateResponseERKNS2_17RadioResponseInfoE"
  },
  {
   "name" : "_ZN4aidl7android8hardware5radio5modem26IRadioModemResponseDefault25getDeviceIdentityResponseERKNS2_17RadioResponseInfoERKNSt3__112basic_stringIcNS8_11char_traitsIcEENS8_9allocatorIcEEEESG_SG_SG_"
  },
  {
   "name" : "_ZN4aidl7android8hardware5radio5modem26IRadioModemResponseDefault25getHardwareConfigResponseERKNS2_17RadioResponseInfoERKNSt3__16vectorINS3_14HardwareConfigENS8_9allocatorISA_EEEE"
  },
  {
   "name" : "_ZN4aidl7android8hardware5radio5modem26IRadioModemResponseDefault26getBasebandVersionResponseERKNS2_17RadioResponseInfoERKNSt3__112basic_stringIcNS8_11char_traitsIcEENS8_9allocatorIcEEEE"
  },
  {
   "name" : "_ZN4aidl7android8hardware5radio5modem26IRadioModemResponseDefault26getRadioCapabilityResponseERKNS2_17RadioResponseInfoERKNS3_15RadioCapabilityE"
  },
  {
   "name" : "_ZN4aidl7android8hardware5radio5modem26IRadioModemResponseDefault26setRadioCapabilityResponseERKNS2_17RadioResponseInfoERKNS3_15RadioCapabilityE"
  },
  {
   "name" : "_ZN4aidl7android8hardware5radio5modem26IRadioModemResponseDefault27getModemStackStatusResponseERKNS2_17RadioResponseInfoEb"
  },
  {
   "name" : "_ZN4aidl7android8hardware5radio5modem26IRadioModemResponseDefault28getModemActivityInfoResponseERKNS2_17RadioResponseInfoERKNS3_17ActivityStatsInfoE"
  },
  {
   "name" : "_ZN4aidl7android8hardware5radio5modem26IRadioModemResponseDefault8asBinderEv"
  },
  {
   "name" : "_ZN4aidl7android8hardware5radio5modem26IRadioModemResponseDefault8isRemoteEv"
  },
  {
   "name" : "_ZN4aidl7android8hardware5radio5modem28IRadioModemIndicationDefault10modemResetENS2_19RadioIndicationTypeERKNSt3__112basic_stringIcNS6_11char_traitsIcEENS6_9allocatorIcEEEE"
  },
  {
   "name" : "_ZN4aidl7android8hardware5radio5modem28IRadioModemIndicationDefault12rilConnectedENS2_19RadioIndicationTypeE"
  },
  {
   "name" : "_ZN4aidl7android8hardware5radio5modem28IRadioModemIndicationDefault16getInterfaceHashEPNSt3__112basic_stringIcNS5_11char_traitsIcEENS5_9allocatorIcEEEE"
  },
  {
   "name" : "_ZN4aidl7android8hardware5radio5modem28IRadioModemIndicationDefault17radioStateChangedENS2_19RadioIndicationTypeENS3_10RadioStateE"
  },
  {
   "name" : "_ZN4aidl7android8hardware5radio5modem28IRadioModemIndicationDefault19getInterfaceVersionEPi"
  },
  {
   "name" : "_ZN4aidl7android8hardware5radio5modem28IRadioModemIndicationDefault21hardwareConfigChangedENS2_19RadioIndicationTypeERKNSt3__16vectorINS3_14HardwareConfigENS6_9allocatorIS8_EEEE"
  },
  {
   "name" : "_ZN4aidl7android8hardware5radio5modem28IRadioModemIndicationDefault25radioCapabilityIndicationENS2_19RadioIndicationTypeERKNS3_15RadioCapabilityE"
  },
  {
   "name" : "_ZN4aidl7android8hardware5radio5modem28IRadioModemIndicationDefault8asBinderEv"
  },
  {
   "name" : "_ZN4aidl7android8hardware5radio5modem28IRadioModemIndicationDefault8isRemoteEv"
  },
  {
   "name" : "_ZN4aidl7android8hardware5radio5modem29ActivityStatsTechSpecificInfo14readFromParcelEPK7AParcel"
  },
  {
   "name" : "_ZNK4aidl7android8hardware5radio5modem11NvWriteItem13writeToParcelEP7AParcel"
  },
  {
   "name" : "_ZNK4aidl7android8hardware5radio5modem14HardwareConfig13writeToParcelEP7AParcel"
  },
  {
   "name" : "_ZNK4aidl7android8hardware5radio5modem15RadioCapability13writeToParcelEP7AParcel"
  },
  {
   "name" : "_ZNK4aidl7android8hardware5radio5modem17ActivityStatsInfo13writeToParcelEP7AParcel"
  },
  {
   "name" : "_ZNK4aidl7android8hardware5radio5modem17HardwareConfigSim13writeToParcelEP7AParcel"
  },
  {
   "name" : "_ZNK4aidl7android8hardware5radio5modem19HardwareConfigModem13writeToParcelEP7AParcel"
  },
  {
   "name" : "_ZNK4aidl7android8hardware5radio5modem29ActivityStatsTechSpecificInfo13writeToParcelEP7AParcel"
  },
  {
   "binding" : "weak",
   "name" : "_ZNSt3__110shared_ptrIN4aidl7android8hardware5radio5modem11IRadioModemEED2Ev"
  },
  {
   "binding" : "weak",
   "name" : "_ZNSt3__110shared_ptrIN4aidl7android8hardware5radio5modem19IRadioModemResponseEED2Ev"
  },
  {
   "binding" : "weak",
   "name" : "_ZNSt3__110shared_ptrIN4aidl7android8hardware5radio5modem21IRadioModemIndicationEED2Ev"
  },
  {
   "binding" : "weak",
   "name" : "_ZNSt3__120__shared_ptr_pointerIPN3ndk13SharedRefBaseENS_14default_deleteIS2_EENS_9allocatorIS2_EEE16__on_zero_sharedEv"
  },
  {
   "binding" : "weak",
   "name" : "_ZNSt3__120__shared_ptr_pointerIPN3ndk13SharedRefBaseENS_14default_deleteIS2_EENS_9allocatorIS2_EEE21__on_zero_shared_weakEv"
  },
  {
   "binding" : "weak",
   "name" : "_ZNSt3__16vectorIN4aidl7android8hardware5radio5modem14HardwareConfigENS_9allocatorIS6_EEE8__appendEj"
  },
  {
   "binding" : "weak",
   "name" : "_ZNSt3__16vectorIN4aidl7android8hardware5radio5modem17HardwareConfigSimENS_9allocatorIS6_EEE8__appendEj"
  },
  {
   "binding" : "weak",
   "name" : "_ZNSt3__16vectorIN4aidl7android8hardware5radio5modem19HardwareConfigModemENS_9allocatorIS6_EEE8__appendEj"
  },
  {
   "binding" : "weak",
   "name" : "_ZNSt3__16vectorIN4aidl7android8hardware5radio5modem29ActivityStatsTechSpecificInfoENS_9allocatorIS6_EEE8__appendEj"
  },
  {
   "binding" : "weak",
   "name" : "_ZNSt3__16vectorIaNS_9allocatorIaEEE8__appendEj"
  },
  {
   "binding" : "weak",
   "name" : "_ZNSt3__16vectorIiNS_9allocatorIiEEE8__appendEj"
  }
 ],
 "elf_objects" :
 [
  {
   "binding" : "weak",
   "name" : "_ZGVN4aidl7android8hardware5radio5modem11IRadioModem4hashE"
  },
  {
   "binding" : "weak",
   "name" : "_ZGVN4aidl7android8hardware5radio5modem19IRadioModemResponse4hashE"
  },
  {
   "binding" : "weak",
   "name" : "_ZGVN4aidl7android8hardware5radio5modem21IRadioModemIndication4hashE"
  },
  {
   "name" : "_ZN4aidl7android8hardware5radio5modem11IRadioModem10descriptorE"
  },
  {
   "name" : "_ZN4aidl7android8hardware5radio5modem11IRadioModem12default_implE"
  },
  {
   "binding" : "weak",
   "name" : "_ZN4aidl7android8hardware5radio5modem11IRadioModem4hashE"
  },
  {
   "name" : "_ZN4aidl7android8hardware5radio5modem11NvWriteItem10descriptorE"
  },
  {
   "name" : "_ZN4aidl7android8hardware5radio5modem14HardwareConfig10descriptorE"
  },
  {
   "name" : "_ZN4aidl7android8hardware5radio5modem15RadioCapability10descriptorE"
  },
  {
   "name" : "_ZN4aidl7android8hardware5radio5modem17ActivityStatsInfo10descriptorE"
  },
  {
   "name" : "_ZN4aidl7android8hardware5radio5modem17HardwareConfigSim10descriptorE"
  },
  {
   "name" : "_ZN4aidl7android8hardware5radio5modem19HardwareConfigModem10descriptorE"
  },
  {
   "name" : "_ZN4aidl7android8hardware5radio5modem19IRadioModemResponse10descriptorE"
  },
  {
   "name" : "_ZN4aidl7android8hardware5radio5modem19IRadioModemResponse12default_implE"
  },
  {
   "binding" : "weak",
   "name" : "_ZN4aidl7android8hardware5radio5modem19IRadioModemResponse4hashE"
  },
  {
   "name" : "_ZN4aidl7android8hardware5radio5modem21IRadioModemIndication10descriptorE"
  },
  {
   "name" : "_ZN4aidl7android8hardware5radio5modem21IRadioModemIndication12default_implE"
  },
  {
   "binding" : "weak",
   "name" : "_ZN4aidl7android8hardware5radio5modem21IRadioModemIndication4hashE"
  },
  {
   "name" : "_ZN4aidl7android8hardware5radio5modem29ActivityStatsTechSpecificInfo10descriptorE"
  },
  {
   "binding" : "weak",
   "name" : "_ZTVN3ndk12BnCInterfaceIN4aidl7android8hardware5radio5modem11IRadioModemEEE"
  },
  {
   "binding" : "weak",
   "name" : "_ZTVN3ndk12BnCInterfaceIN4aidl7android8hardware5radio5modem19IRadioModemResponseEEE"
  },
  {
   "binding" : "weak",
   "name" : "_ZTVN3ndk12BnCInterfaceIN4aidl7android8hardware5radio5modem21IRadioModemIndicationEEE"
  },
  {
   "binding" : "weak",
   "name" : "_ZTVN3ndk12BpCInterfaceIN4aidl7android8hardware5radio5modem11IRadioModemEEE"
  },
  {
   "binding" : "weak",
   "name" : "_ZTVN3ndk12BpCInterfaceIN4aidl7android8hardware5radio5modem19IRadioModemResponseEEE"
  },
  {
   "binding" : "weak",
   "name" : "_ZTVN3ndk12BpCInterfaceIN4aidl7android8hardware5radio5modem21IRadioModemIndicationEEE"
  },
  {
   "binding" : "weak",
   "name" : "_ZTVN3ndk13SharedRefBaseE"
  },
  {
   "name" : "_ZTVN4aidl7android8hardware5radio5modem11IRadioModemE"
  },
  {
   "name" : "_ZTVN4aidl7android8hardware5radio5modem12BnRadioModemE"
  },
  {
   "name" : "_ZTVN4aidl7android8hardware5radio5modem12BpRadioModemE"
  },
  {
   "name" : "_ZTVN4aidl7android8hardware5radio5modem18IRadioModemDefaultE"
  },
  {
   "name" : "_ZTVN4aidl7android8hardware5radio5modem19IRadioModemResponseE"
  },
  {
   "name" : "_ZTVN4aidl7android8hardware5radio5modem20BnRadioModemResponseE"
  },
  {
   "name" : "_ZTVN4aidl7android8hardware5radio5modem20BpRadioModemResponseE"
  },
  {
   "name" : "_ZTVN4aidl7android8hardware5radio5modem21IRadioModemIndicationE"
  },
  {
   "name" : "_ZTVN4aidl7android8hardware5radio5modem22BnRadioModemIndicationE"
  },
  {
   "name" : "_ZTVN4aidl7android8hardware5radio5modem22BpRadioModemIndicationE"
  },
  {
   "name" : "_ZTVN4aidl7android8hardware5radio5modem26IRadioModemResponseDefaultE"
  },
  {
   "name" : "_ZTVN4aidl7android8hardware5radio5modem28IRadioModemIndicationDefaultE"
  },
  {
   "binding" : "weak",
   "name" : "_ZTVNSt3__120__shared_ptr_pointerIPN3ndk13SharedRefBaseENS_14default_deleteIS2_EENS_9allocatorIS2_EEEE"
  }
 ],
 "enum_types" :
 [
  {
   "alignment" : 4,
   "enum_fields" :
   [
    {
     "enum_field_value" : 1,
     "name" : "FLAG_ONEWAY"
    }
   ],
   "linker_set_key" : "_ZTI12$FLAG_ONEWAY",
   "name" : "(unnamed enum at frameworks/native/libs/binder/ndk/include_ndk/android/binder_ibinder.h:43:1)",
   "referenced_type" : "_ZTI12$FLAG_ONEWAY",
   "self_type" : "_ZTI12$FLAG_ONEWAY",
   "size" : 4,
   "source_file" : "frameworks/native/libs/binder/ndk/include_ndk/android/binder_ibinder.h",
   "underlying_type" : "_ZTIj"
  },
  {
   "alignment" : 4,
   "enum_fields" :
   [
    {
     "enum_field_value" : 0,
     "name" : "EX_NONE"
    },
    {
     "enum_field_value" : -1,
     "name" : "EX_SECURITY"
    },
    {
     "enum_field_value" : -2,
     "name" : "EX_BAD_PARCELABLE"
    },
    {
     "enum_field_value" : -3,
     "name" : "EX_ILLEGAL_ARGUMENT"
    },
    {
     "enum_field_value" : -4,
     "name" : "EX_NULL_POINTER"
    },
    {
     "enum_field_value" : -5,
     "name" : "EX_ILLEGAL_STATE"
    },
    {
     "enum_field_value" : -6,
     "name" : "EX_NETWORK_MAIN_THREAD"
    },
    {
     "enum_field_value" : -7,
     "name" : "EX_UNSUPPORTED_OPERATION"
    },
    {
     "enum_field_value" : -8,
     "name" : "EX_SERVICE_SPECIFIC"
    },
    {
     "enum_field_value" : -9,
     "name" : "EX_PARCELABLE"
    },
    {
     "enum_field_value" : -129,
     "name" : "EX_TRANSACTION_FAILED"
    }
   ],
   "linker_set_key" : "_ZTI18$EX_BAD_PARCELABLE",
   "name" : "(unnamed enum at frameworks/native/libs/binder/ndk/include_ndk/android/binder_status.h:94:1)",
   "referenced_type" : "_ZTI18$EX_BAD_PARCELABLE",
   "self_type" : "_ZTI18$EX_BAD_PARCELABLE",
   "size" : 4,
   "source_file" : "frameworks/native/libs/binder/ndk/include_ndk/android/binder_status.h",
   "underlying_type" : "_ZTIi"
  },
  {
   "alignment" : 4,
   "enum_fields" :
   [
    {
     "enum_field_value" : 268435456,
     "name" : "FLAG_PRIVATE_LOCAL"
    }
   ],
   "linker_set_key" : "_ZTI19$FLAG_PRIVATE_LOCAL",
   "name" : "(unnamed enum at frameworks/native/libs/binder/ndk/include_platform/android/binder_stability.h:35:1)",
   "referenced_type" : "_ZTI19$FLAG_PRIVATE_LOCAL",
   "self_type" : "_ZTI19$FLAG_PRIVATE_LOCAL",
   "size" : 4,
   "source_file" : "frameworks/native/libs/binder/ndk/include_platform/android/binder_stability.h",
   "underlying_type" : "_ZTIj"
  },
  {
   "alignment" : 4,
   "enum_fields" :
   [
    {
     "enum_field_value" : 268435456,
     "name" : "FLAG_PRIVATE_VENDOR"
    }
   ],
   "linker_set_key" : "_ZTI20$FLAG_PRIVATE_VENDOR",
   "name" : "(unnamed enum at frameworks/native/libs/binder/ndk/include_platform/android/binder_stability.h:26:1)",
   "referenced_type" : "_ZTI20$FLAG_PRIVATE_VENDOR",
   "self_type" : "_ZTI20$FLAG_PRIVATE_VENDOR",
   "size" : 4,
   "source_file" : "frameworks/native/libs/binder/ndk/include_platform/android/binder_stability.h",
   "underlying_type" : "_ZTIj"
  },
  {
   "alignment" : 4,
   "enum_fields" :
   [
    {
     "enum_field_value" : 0,
     "name" : "STATUS_OK"
    },
    {
     "enum_field_value" : -2147483648,
     "name" : "STATUS_UNKNOWN_ERROR"
    },
    {
     "enum_field_value" : -12,
     "name" : "STATUS_NO_MEMORY"
    },
    {
     "enum_field_value" : -38,
     "name" : "STATUS_INVALID_OPERATION"
    },
    {
     "enum_field_value" : -22,
     "name" : "STATUS_BAD_VALUE"
    },
    {
     "enum_field_value" : -2147483647,
     "name" : "STATUS_BAD_TYPE"
    },
    {
     "enum_field_value" : -2,
     "name" : "STATUS_NAME_NOT_FOUND"
    },
    {
     "enum_field_value" : -1,
     "name" : "STATUS_PERMISSION_DENIED"
    },
    {
     "enum_field_value" : -19,
     "name" : "STATUS_NO_INIT"
    },
    {
     "enum_field_value" : -17,
     "name" : "STATUS_ALREADY_EXISTS"
    },
    {
     "enum_field_value" : -32,
     "name" : "STATUS_DEAD_OBJECT"
    },
    {
     "enum_field_value" : -2147483646,
     "name" : "STATUS_FAILED_TRANSACTION"
    },
    {
     "enum_field_value" : -75,
     "name" : "STATUS_BAD_INDEX"
    },
    {
     "enum_field_value" : -61,
     "name" : "STATUS_NOT_ENOUGH_DATA"
    },
    {
     "enum_field_value" : -11,
     "name" : "STATUS_WOULD_BLOCK"
    },
    {
     "enum_field_value" : -110,
     "name" : "STATUS_TIMED_OUT"
    },
    {
     "enum_field_value" : -74,
     "name" : "STATUS_UNKNOWN_TRANSACTION"
    },
    {
     "enum_field_value" : -2147483641,
     "name" : "STATUS_FDS_NOT_ALLOWED"
    },
    {
     "enum_field_value" : -2147483640,
     "name" : "STATUS_UNEXPECTED_NULL"
    }
   ],
   "linker_set_key" : "_ZTI22$STATUS_ALREADY_EXISTS",
   "name" : "(unnamed enum at frameworks/native/libs/binder/ndk/include_ndk/android/binder_status.h:60:1)",
   "referenced_type" : "_ZTI22$STATUS_ALREADY_EXISTS",
   "self_type" : "_ZTI22$STATUS_ALREADY_EXISTS",
   "size" : 4,
   "source_file" : "frameworks/native/libs/binder/ndk/include_ndk/android/binder_status.h",
   "underlying_type" : "_ZTIi"
  },
  {
   "alignment" : 4,
   "enum_fields" :
   [
    {
     "enum_field_value" : 1,
     "name" : "FIRST_CALL_TRANSACTION"
    },
    {
     "enum_field_value" : 16777215,
     "name" : "LAST_CALL_TRANSACTION"
    }
   ],
   "linker_set_key" : "_ZTI23$FIRST_CALL_TRANSACTION",
   "name" : "(unnamed enum at frameworks/native/libs/binder/ndk/include_ndk/android/binder_ibinder.h:58:1)",
   "referenced_type" : "_ZTI23$FIRST_CALL_TRANSACTION",
   "self_type" : "_ZTI23$FIRST_CALL_TRANSACTION",
   "size" : 4,
   "source_file" : "frameworks/native/libs/binder/ndk/include_ndk/android/binder_ibinder.h",
   "underlying_type" : "_ZTIj"
  },
  {
   "alignment" : 4,
   "enum_fields" :
   [
    {
     "enum_field_value" : 0,
     "name" : "ndk::STABILITY_LOCAL"
    },
    {
     "enum_field_value" : 1,
     "name" : "ndk::STABILITY_VINTF"
    }
   ],
   "linker_set_key" : "_ZTIN3ndk16$STABILITY_LOCALE",
   "name" : "ndk::(unnamed enum at frameworks/native/libs/binder/ndk/include_cpp/android/binder_parcelable_utils.h:34:1)",
   "referenced_type" : "_ZTIN3ndk16$STABILITY_LOCALE",
   "self_type" : "_ZTIN3ndk16$STABILITY_LOCALE",
   "size" : 4,
   "source_file" : "frameworks/native/libs/binder/ndk/include_cpp/android/binder_parcelable_utils.h",
   "underlying_type" : "_ZTIj"
  },
  {
   "alignment" : 4,
   "enum_fields" :
   [
    {
     "enum_field_value" : 0,
     "name" : "aidl::android::hardware::radio::RadioError::NONE"
    },
    {
     "enum_field_value" : 1,
     "name" : "aidl::android::hardware::radio::RadioError::RADIO_NOT_AVAILABLE"
    },
    {
     "enum_field_value" : 2,
     "name" : "aidl::android::hardware::radio::RadioError::GENERIC_FAILURE"
    },
    {
     "enum_field_value" : 3,
     "name" : "aidl::android::hardware::radio::RadioError::PASSWORD_INCORRECT"
    },
    {
     "enum_field_value" : 4,
     "name" : "aidl::android::hardware::radio::RadioError::SIM_PIN2"
    },
    {
     "enum_field_value" : 5,
     "name" : "aidl::android::hardware::radio::RadioError::SIM_PUK2"
    },
    {
     "enum_field_value" : 6,
     "name" : "aidl::android::hardware::radio::RadioError::REQUEST_NOT_SUPPORTED"
    },
    {
     "enum_field_value" : 7,
     "name" : "aidl::android::hardware::radio::RadioError::CANCELLED"
    },
    {
     "enum_field_value" : 8,
     "name" : "aidl::android::hardware::radio::RadioError::OP_NOT_ALLOWED_DURING_VOICE_CALL"
    },
    {
     "enum_field_value" : 9,
     "name" : "aidl::android::hardware::radio::RadioError::OP_NOT_ALLOWED_BEFORE_REG_TO_NW"
    },
    {
     "enum_field_value" : 10,
     "name" : "aidl::android::hardware::radio::RadioError::SMS_SEND_FAIL_RETRY"
    },
    {
     "enum_field_value" : 11,
     "name" : "aidl::android::hardware::radio::RadioError::SIM_ABSENT"
    },
    {
     "enum_field_value" : 12,
     "name" : "aidl::android::hardware::radio::RadioError::SUBSCRIPTION_NOT_AVAILABLE"
    },
    {
     "enum_field_value" : 13,
     "name" : "aidl::android::hardware::radio::RadioError::MODE_NOT_SUPPORTED"
    },
    {
     "enum_field_value" : 14,
     "name" : "aidl::android::hardware::radio::RadioError::FDN_CHECK_FAILURE"
    },
    {
     "enum_field_value" : 15,
     "name" : "aidl::android::hardware::radio::RadioError::ILLEGAL_SIM_OR_ME"
    },
    {
     "enum_field_value" : 16,
     "name" : "aidl::android::hardware::radio::RadioError::MISSING_RESOURCE"
    },
    {
     "enum_field_value" : 17,
     "name" : "aidl::android::hardware::radio::RadioError::NO_SUCH_ELEMENT"
    },
    {
     "enum_field_value" : 18,
     "name" : "aidl::android::hardware::radio::RadioError::DIAL_MODIFIED_TO_USSD"
    },
    {
     "enum_field_value" : 19,
     "name" : "aidl::android::hardware::radio::RadioError::DIAL_MODIFIED_TO_SS"
    },
    {
     "enum_field_value" : 20,
     "name" : "aidl::android::hardware::radio::RadioError::DIAL_MODIFIED_TO_DIAL"
    },
    {
     "enum_field_value" : 21,
     "name" : "aidl::android::hardware::radio::RadioError::USSD_MODIFIED_TO_DIAL"
    },
    {
     "enum_field_value" : 22,
     "name" : "aidl::android::hardware::radio::RadioError::USSD_MODIFIED_TO_SS"
    },
    {
     "enum_field_value" : 23,
     "name" : "aidl::android::hardware::radio::RadioError::USSD_MODIFIED_TO_USSD"
    },
    {
     "enum_field_value" : 24,
     "name" : "aidl::android::hardware::radio::RadioError::SS_MODIFIED_TO_DIAL"
    },
    {
     "enum_field_value" : 25,
     "name" : "aidl::android::hardware::radio::RadioError::SS_MODIFIED_TO_USSD"
    },
    {
     "enum_field_value" : 26,
     "name" : "aidl::android::hardware::radio::RadioError::SUBSCRIPTION_NOT_SUPPORTED"
    },
    {
     "enum_field_value" : 27,
     "name" : "aidl::android::hardware::radio::RadioError::SS_MODIFIED_TO_SS"
    },
    {
     "enum_field_value" : 36,
     "name" : "aidl::android::hardware::radio::RadioError::LCE_NOT_SUPPORTED"
    },
    {
     "enum_field_value" : 37,
     "name" : "aidl::android::hardware::radio::RadioError::NO_MEMORY"
    },
    {
     "enum_field_value" : 38,
     "name" : "aidl::android::hardware::radio::RadioError::INTERNAL_ERR"
    },
    {
     "enum_field_value" : 39,
     "name" : "aidl::android::hardware::radio::RadioError::SYSTEM_ERR"
    },
    {
     "enum_field_value" : 40,
     "name" : "aidl::android::hardware::radio::RadioError::MODEM_ERR"
    },
    {
     "enum_field_value" : 41,
     "name" : "aidl::android::hardware::radio::RadioError::INVALID_STATE"
    },
    {
     "enum_field_value" : 42,
     "name" : "aidl::android::hardware::radio::RadioError::NO_RESOURCES"
    },
    {
     "enum_field_value" : 43,
     "name" : "aidl::android::hardware::radio::RadioError::SIM_ERR"
    },
    {
     "enum_field_value" : 44,
     "name" : "aidl::android::hardware::radio::RadioError::INVALID_ARGUMENTS"
    },
    {
     "enum_field_value" : 45,
     "name" : "aidl::android::hardware::radio::RadioError::INVALID_SIM_STATE"
    },
    {
     "enum_field_value" : 46,
     "name" : "aidl::android::hardware::radio::RadioError::INVALID_MODEM_STATE"
    },
    {
     "enum_field_value" : 47,
     "name" : "aidl::android::hardware::radio::RadioError::INVALID_CALL_ID"
    },
    {
     "enum_field_value" : 48,
     "name" : "aidl::android::hardware::radio::RadioError::NO_SMS_TO_ACK"
    },
    {
     "enum_field_value" : 49,
     "name" : "aidl::android::hardware::radio::RadioError::NETWORK_ERR"
    },
    {
     "enum_field_value" : 50,
     "name" : "aidl::android::hardware::radio::RadioError::REQUEST_RATE_LIMITED"
    },
    {
     "enum_field_value" : 51,
     "name" : "aidl::android::hardware::radio::RadioError::SIM_BUSY"
    },
    {
     "enum_field_value" : 52,
     "name" : "aidl::android::hardware::radio::RadioError::SIM_FULL"
    },
    {
     "enum_field_value" : 53,
     "name" : "aidl::android::hardware::radio::RadioError::NETWORK_REJECT"
    },
    {
     "enum_field_value" : 54,
     "name" : "aidl::android::hardware::radio::RadioError::OPERATION_NOT_ALLOWED"
    },
    {
     "enum_field_value" : 55,
     "name" : "aidl::android::hardware::radio::RadioError::EMPTY_RECORD"
    },
    {
     "enum_field_value" : 56,
     "name" : "aidl::android::hardware::radio::RadioError::INVALID_SMS_FORMAT"
    },
    {
     "enum_field_value" : 57,
     "name" : "aidl::android::hardware::radio::RadioError::ENCODING_ERR"
    },
    {
     "enum_field_value" : 58,
     "name" : "aidl::android::hardware::radio::RadioError::INVALID_SMSC_ADDRESS"
    },
    {
     "enum_field_value" : 59,
     "name" : "aidl::android::hardware::radio::RadioError::NO_SUCH_ENTRY"
    },
    {
     "enum_field_value" : 60,
     "name" : "aidl::android::hardware::radio::RadioError::NETWORK_NOT_READY"
    },
    {
     "enum_field_value" : 61,
     "name" : "aidl::android::hardware::radio::RadioError::NOT_PROVISIONED"
    },
    {
     "enum_field_value" : 62,
     "name" : "aidl::android::hardware::radio::RadioError::NO_SUBSCRIPTION"
    },
    {
     "enum_field_value" : 63,
     "name" : "aidl::android::hardware::radio::RadioError::NO_NETWORK_FOUND"
    },
    {
     "enum_field_value" : 64,
     "name" : "aidl::android::hardware::radio::RadioError::DEVICE_IN_USE"
    },
    {
     "enum_field_value" : 65,
     "name" : "aidl::android::hardware::radio::RadioError::ABORTED"
    },
    {
     "enum_field_value" : 66,
     "name" : "aidl::android::hardware::radio::RadioError::INVALID_RESPONSE"
    },
    {
     "enum_field_value" : 501,
     "name" : "aidl::android::hardware::radio::RadioError::OEM_ERROR_1"
    },
    {
     "enum_field_value" : 502,
     "name" : "aidl::android::hardware::radio::RadioError::OEM_ERROR_2"
    },
    {
     "enum_field_value" : 503,
     "name" : "aidl::android::hardware::radio::RadioError::OEM_ERROR_3"
    },
    {
     "enum_field_value" : 504,
     "name" : "aidl::android::hardware::radio::RadioError::OEM_ERROR_4"
    },
    {
     "enum_field_value" : 505,
     "name" : "aidl::android::hardware::radio::RadioError::OEM_ERROR_5"
    },
    {
     "enum_field_value" : 506,
     "name" : "aidl::android::hardware::radio::RadioError::OEM_ERROR_6"
    },
    {
     "enum_field_value" : 507,
     "name" : "aidl::android::hardware::radio::RadioError::OEM_ERROR_7"
    },
    {
     "enum_field_value" : 508,
     "name" : "aidl::android::hardware::radio::RadioError::OEM_ERROR_8"
    },
    {
     "enum_field_value" : 509,
     "name" : "aidl::android::hardware::radio::RadioError::OEM_ERROR_9"
    },
    {
     "enum_field_value" : 510,
     "name" : "aidl::android::hardware::radio::RadioError::OEM_ERROR_10"
    },
    {
     "enum_field_value" : 511,
     "name" : "aidl::android::hardware::radio::RadioError::OEM_ERROR_11"
    },
    {
     "enum_field_value" : 512,
     "name" : "aidl::android::hardware::radio::RadioError::OEM_ERROR_12"
    },
    {
     "enum_field_value" : 513,
     "name" : "aidl::android::hardware::radio::RadioError::OEM_ERROR_13"
    },
    {
     "enum_field_value" : 514,
     "name" : "aidl::android::hardware::radio::RadioError::OEM_ERROR_14"
    },
    {
     "enum_field_value" : 515,
     "name" : "aidl::android::hardware::radio::RadioError::OEM_ERROR_15"
    },
    {
     "enum_field_value" : 516,
     "name" : "aidl::android::hardware::radio::RadioError::OEM_ERROR_16"
    },
    {
     "enum_field_value" : 517,
     "name" : "aidl::android::hardware::radio::RadioError::OEM_ERROR_17"
    },
    {
     "enum_field_value" : 518,
     "name" : "aidl::android::hardware::radio::RadioError::OEM_ERROR_18"
    },
    {
     "enum_field_value" : 519,
     "name" : "aidl::android::hardware::radio::RadioError::OEM_ERROR_19"
    },
    {
     "enum_field_value" : 520,
     "name" : "aidl::android::hardware::radio::RadioError::OEM_ERROR_20"
    },
    {
     "enum_field_value" : 521,
     "name" : "aidl::android::hardware::radio::RadioError::OEM_ERROR_21"
    },
    {
     "enum_field_value" : 522,
     "name" : "aidl::android::hardware::radio::RadioError::OEM_ERROR_22"
    },
    {
     "enum_field_value" : 523,
     "name" : "aidl::android::hardware::radio::RadioError::OEM_ERROR_23"
    },
    {
     "enum_field_value" : 524,
     "name" : "aidl::android::hardware::radio::RadioError::OEM_ERROR_24"
    },
    {
     "enum_field_value" : 525,
     "name" : "aidl::android::hardware::radio::RadioError::OEM_ERROR_25"
    },
    {
     "enum_field_value" : 67,
     "name" : "aidl::android::hardware::radio::RadioError::SIMULTANEOUS_SMS_AND_CALL_NOT_ALLOWED"
    },
    {
     "enum_field_value" : 68,
     "name" : "aidl::android::hardware::radio::RadioError::ACCESS_BARRED"
    },
    {
     "enum_field_value" : 69,
     "name" : "aidl::android::hardware::radio::RadioError::BLOCKED_DUE_TO_CALL"
    },
    {
     "enum_field_value" : 70,
     "name" : "aidl::android::hardware::radio::RadioError::RF_HARDWARE_ISSUE"
    },
    {
     "enum_field_value" : 71,
     "name" : "aidl::android::hardware::radio::RadioError::NO_RF_CALIBRATION_INFO"
    }
   ],
   "linker_set_key" : "_ZTIN4aidl7android8hardware5radio10RadioErrorE",
   "name" : "aidl::android::hardware::radio::RadioError",
   "referenced_type" : "_ZTIN4aidl7android8hardware5radio10RadioErrorE",
   "self_type" : "_ZTIN4aidl7android8hardware5radio10RadioErrorE",
   "size" : 4,
   "source_file" : "out/soong/.intermediates/hardware/interfaces/radio/aidl/android.hardware.radio-V1-ndk-source/gen/include/aidl/android/hardware/radio/RadioError.h",
   "underlying_type" : "_ZTIi"
  },
  {
   "alignment" : 4,
   "enum_fields" :
   [
    {
     "enum_field_value" : 0,
     "name" : "aidl::android::hardware::radio::AccessNetwork::UNKNOWN"
    },
    {
     "enum_field_value" : 1,
     "name" : "aidl::android::hardware::radio::AccessNetwork::GERAN"
    },
    {
     "enum_field_value" : 2,
     "name" : "aidl::android::hardware::radio::AccessNetwork::UTRAN"
    },
    {
     "enum_field_value" : 3,
     "name" : "aidl::android::hardware::radio::AccessNetwork::EUTRAN"
    },
    {
     "enum_field_value" : 4,
     "name" : "aidl::android::hardware::radio::AccessNetwork::CDMA2000"
    },
    {
     "enum_field_value" : 5,
     "name" : "aidl::android::hardware::radio::AccessNetwork::IWLAN"
    },
    {
     "enum_field_value" : 6,
     "name" : "aidl::android::hardware::radio::AccessNetwork::NGRAN"
    }
   ],
   "linker_set_key" : "_ZTIN4aidl7android8hardware5radio13AccessNetworkE",
   "name" : "aidl::android::hardware::radio::AccessNetwork",
   "referenced_type" : "_ZTIN4aidl7android8hardware5radio13AccessNetworkE",
   "self_type" : "_ZTIN4aidl7android8hardware5radio13AccessNetworkE",
   "size" : 4,
   "source_file" : "out/soong/.intermediates/hardware/interfaces/radio/aidl/android.hardware.radio-V1-ndk-source/gen/include/aidl/android/hardware/radio/AccessNetwork.h",
   "underlying_type" : "_ZTIi"
  },
  {
   "alignment" : 4,
   "enum_fields" :
   [
    {
     "enum_field_value" : 0,
     "name" : "aidl::android::hardware::radio::RadioTechnology::UNKNOWN"
    },
    {
     "enum_field_value" : 1,
     "name" : "aidl::android::hardware::radio::RadioTechnology::GPRS"
    },
    {
     "enum_field_value" : 2,
     "name" : "aidl::android::hardware::radio::RadioTechnology::EDGE"
    },
    {
     "enum_field_value" : 3,
     "name" : "aidl::android::hardware::radio::RadioTechnology::UMTS"
    },
    {
     "enum_field_value" : 4,
     "name" : "aidl::android::hardware::radio::RadioTechnology::IS95A"
    },
    {
     "enum_field_value" : 5,
     "name" : "aidl::android::hardware::radio::RadioTechnology::IS95B"
    },
    {
     "enum_field_value" : 6,
     "name" : "aidl::android::hardware::radio::RadioTechnology::ONE_X_RTT"
    },
    {
     "enum_field_value" : 7,
     "name" : "aidl::android::hardware::radio::RadioTechnology::EVDO_0"
    },
    {
     "enum_field_value" : 8,
     "name" : "aidl::android::hardware::radio::RadioTechnology::EVDO_A"
    },
    {
     "enum_field_value" : 9,
     "name" : "aidl::android::hardware::radio::RadioTechnology::HSDPA"
    },
    {
     "enum_field_value" : 10,
     "name" : "aidl::android::hardware::radio::RadioTechnology::HSUPA"
    },
    {
     "enum_field_value" : 11,
     "name" : "aidl::android::hardware::radio::RadioTechnology::HSPA"
    },
    {
     "enum_field_value" : 12,
     "name" : "aidl::android::hardware::radio::RadioTechnology::EVDO_B"
    },
    {
     "enum_field_value" : 13,
     "name" : "aidl::android::hardware::radio::RadioTechnology::EHRPD"
    },
    {
     "enum_field_value" : 14,
     "name" : "aidl::android::hardware::radio::RadioTechnology::LTE"
    },
    {
     "enum_field_value" : 15,
     "name" : "aidl::android::hardware::radio::RadioTechnology::HSPAP"
    },
    {
     "enum_field_value" : 16,
     "name" : "aidl::android::hardware::radio::RadioTechnology::GSM"
    },
    {
     "enum_field_value" : 17,
     "name" : "aidl::android::hardware::radio::RadioTechnology::TD_SCDMA"
    },
    {
     "enum_field_value" : 18,
     "name" : "aidl::android::hardware::radio::RadioTechnology::IWLAN"
    },
    {
     "enum_field_value" : 19,
     "name" : "aidl::android::hardware::radio::RadioTechnology::LTE_CA"
    },
    {
     "enum_field_value" : 20,
     "name" : "aidl::android::hardware::radio::RadioTechnology::NR"
    }
   ],
   "linker_set_key" : "_ZTIN4aidl7android8hardware5radio15RadioTechnologyE",
   "name" : "aidl::android::hardware::radio::RadioTechnology",
   "referenced_type" : "_ZTIN4aidl7android8hardware5radio15RadioTechnologyE",
   "self_type" : "_ZTIN4aidl7android8hardware5radio15RadioTechnologyE",
   "size" : 4,
   "source_file" : "out/soong/.intermediates/hardware/interfaces/radio/aidl/android.hardware.radio-V1-ndk-source/gen/include/aidl/android/hardware/radio/RadioTechnology.h",
   "underlying_type" : "_ZTIi"
  },
  {
   "alignment" : 4,
   "enum_fields" :
   [
    {
     "enum_field_value" : 0,
     "name" : "aidl::android::hardware::radio::RadioResponseType::SOLICITED"
    },
    {
     "enum_field_value" : 1,
     "name" : "aidl::android::hardware::radio::RadioResponseType::SOLICITED_ACK"
    },
    {
     "enum_field_value" : 2,
     "name" : "aidl::android::hardware::radio::RadioResponseType::SOLICITED_ACK_EXP"
    }
   ],
   "linker_set_key" : "_ZTIN4aidl7android8hardware5radio17RadioResponseTypeE",
   "name" : "aidl::android::hardware::radio::RadioResponseType",
   "referenced_type" : "_ZTIN4aidl7android8hardware5radio17RadioResponseTypeE",
   "self_type" : "_ZTIN4aidl7android8hardware5radio17RadioResponseTypeE",
   "size" : 4,
   "source_file" : "out/soong/.intermediates/hardware/interfaces/radio/aidl/android.hardware.radio-V1-ndk-source/gen/include/aidl/android/hardware/radio/RadioResponseType.h",
   "underlying_type" : "_ZTIi"
  },
  {
   "alignment" : 4,
   "enum_fields" :
   [
    {
     "enum_field_value" : 0,
     "name" : "aidl::android::hardware::radio::RadioIndicationType::UNSOLICITED"
    },
    {
     "enum_field_value" : 1,
     "name" : "aidl::android::hardware::radio::RadioIndicationType::UNSOLICITED_ACK_EXP"
    }
   ],
   "linker_set_key" : "_ZTIN4aidl7android8hardware5radio19RadioIndicationTypeE",
   "name" : "aidl::android::hardware::radio::RadioIndicationType",
   "referenced_type" : "_ZTIN4aidl7android8hardware5radio19RadioIndicationTypeE",
   "self_type" : "_ZTIN4aidl7android8hardware5radio19RadioIndicationTypeE",
   "size" : 4,
   "source_file" : "out/soong/.intermediates/hardware/interfaces/radio/aidl/android.hardware.radio-V1-ndk-source/gen/include/aidl/android/hardware/radio/RadioIndicationType.h",
   "underlying_type" : "_ZTIi"
  },
  {
   "alignment" : 4,
   "enum_fields" :
   [
    {
     "enum_field_value" : 0,
     "name" : "aidl::android::hardware::radio::modem::RadioState::OFF"
    },
    {
     "enum_field_value" : 1,
     "name" : "aidl::android::hardware::radio::modem::RadioState::UNAVAILABLE"
    },
    {
     "enum_field_value" : 10,
     "name" : "aidl::android::hardware::radio::modem::RadioState::ON"
    }
   ],
   "linker_set_key" : "_ZTIN4aidl7android8hardware5radio5modem10RadioStateE",
   "name" : "aidl::android::hardware::radio::modem::RadioState",
   "referenced_type" : "_ZTIN4aidl7android8hardware5radio5modem10RadioStateE",
   "self_type" : "_ZTIN4aidl7android8hardware5radio5modem10RadioStateE",
   "size" : 4,
   "source_file" : "out/soong/.intermediates/hardware/interfaces/radio/aidl/android.hardware.radio.modem-V1-ndk-source/gen/include/aidl/android/hardware/radio/modem/RadioState.h",
   "underlying_type" : "_ZTIi"
  },
  {
   "alignment" : 4,
   "enum_fields" :
   [
    {
     "enum_field_value" : 0,
     "name" : "aidl::android::hardware::radio::modem::ResetNvType::RELOAD"
    },
    {
     "enum_field_value" : 1,
     "name" : "aidl::android::hardware::radio::modem::ResetNvType::ERASE"
    },
    {
     "enum_field_value" : 2,
     "name" : "aidl::android::hardware::radio::modem::ResetNvType::FACTORY_RESET"
    }
   ],
   "linker_set_key" : "_ZTIN4aidl7android8hardware5radio5modem11ResetNvTypeE",
   "name" : "aidl::android::hardware::radio::modem::ResetNvType",
   "referenced_type" : "_ZTIN4aidl7android8hardware5radio5modem11ResetNvTypeE",
   "self_type" : "_ZTIN4aidl7android8hardware5radio5modem11ResetNvTypeE",
   "size" : 4,
   "source_file" : "out/soong/.intermediates/hardware/interfaces/radio/aidl/android.hardware.radio.modem-V1-ndk-source/gen/include/aidl/android/hardware/radio/modem/ResetNvType.h",
   "underlying_type" : "_ZTIi"
  },
  {
   "alignment" : 4,
   "enum_fields" :
   [
    {
     "enum_field_value" : 0,
     "name" : "aidl::android::hardware::radio::modem::HardwareConfig::TYPE_MODEM"
    }
   ],
   "linker_set_key" : "_ZTIN4aidl7android8hardware5radio5modem14HardwareConfig11$TYPE_MODEME",
   "name" : "aidl::android::hardware::radio::modem::HardwareConfig::(unnamed enum at out/soong/.intermediates/hardware/interfaces/radio/aidl/android.hardware.radio.modem-V1-ndk-source/gen/include/aidl/android/hardware/radio/modem/HardwareConfig.h:59:3)",
   "referenced_type" : "_ZTIN4aidl7android8hardware5radio5modem14HardwareConfig11$TYPE_MODEME",
   "self_type" : "_ZTIN4aidl7android8hardware5radio5modem14HardwareConfig11$TYPE_MODEME",
   "size" : 4,
   "source_file" : "out/soong/.intermediates/hardware/interfaces/radio/aidl/android.hardware.radio.modem-V1-ndk-source/gen/include/aidl/android/hardware/radio/modem/HardwareConfig.h",
   "underlying_type" : "_ZTIi"
  },
  {
   "alignment" : 4,
   "enum_fields" :
   [
    {
     "enum_field_value" : 0,
     "name" : "aidl::android::hardware::radio::modem::HardwareConfig::STATE_ENABLED"
    }
   ],
   "linker_set_key" : "_ZTIN4aidl7android8hardware5radio5modem14HardwareConfig14$STATE_ENABLEDE",
   "name" : "aidl::android::hardware::radio::modem::HardwareConfig::(unnamed enum at out/soong/.intermediates/hardware/interfaces/radio/aidl/android.hardware.radio.modem-V1-ndk-source/gen/include/aidl/android/hardware/radio/modem/HardwareConfig.h:56:3)",
   "referenced_type" : "_ZTIN4aidl7android8hardware5radio5modem14HardwareConfig14$STATE_ENABLEDE",
   "self_type" : "_ZTIN4aidl7android8hardware5radio5modem14HardwareConfig14$STATE_ENABLEDE",
   "size" : 4,
   "source_file" : "out/soong/.intermediates/hardware/interfaces/radio/aidl/android.hardware.radio.modem-V1-ndk-source/gen/include/aidl/android/hardware/radio/modem/HardwareConfig.h",
   "underlying_type" : "_ZTIi"
  },
  {
   "alignment" : 4,
   "enum_fields" :
   [
    {
     "enum_field_value" : 1,
     "name" : "aidl::android::hardware::radio::modem::HardwareConfig::STATE_STANDBY"
    }
   ],
   "linker_set_key" : "_ZTIN4aidl7android8hardware5radio5modem14HardwareConfig14$STATE_STANDBYE",
   "name" : "aidl::android::hardware::radio::modem::HardwareConfig::(unnamed enum at out/soong/.intermediates/hardware/interfaces/radio/aidl/android.hardware.radio.modem-V1-ndk-source/gen/include/aidl/android/hardware/radio/modem/HardwareConfig.h:57:3)",
   "referenced_type" : "_ZTIN4aidl7android8hardware5radio5modem14HardwareConfig14$STATE_STANDBYE",
   "self_type" : "_ZTIN4aidl7android8hardware5radio5modem14HardwareConfig14$STATE_STANDBYE",
   "size" : 4,
   "source_file" : "out/soong/.intermediates/hardware/interfaces/radio/aidl/android.hardware.radio.modem-V1-ndk-source/gen/include/aidl/android/hardware/radio/modem/HardwareConfig.h",
   "underlying_type" : "_ZTIi"
  },
  {
   "alignment" : 4,
   "enum_fields" :
   [
    {
     "enum_field_value" : 2,
     "name" : "aidl::android::hardware::radio::modem::HardwareConfig::STATE_DISABLED"
    }
   ],
   "linker_set_key" : "_ZTIN4aidl7android8hardware5radio5modem14HardwareConfig15$STATE_DISABLEDE",
   "name" : "aidl::android::hardware::radio::modem::HardwareConfig::(unnamed enum at out/soong/.intermediates/hardware/interfaces/radio/aidl/android.hardware.radio.modem-V1-ndk-source/gen/include/aidl/android/hardware/radio/modem/HardwareConfig.h:58:3)",
   "referenced_type" : "_ZTIN4aidl7android8hardware5radio5modem14HardwareConfig15$STATE_DISABLEDE",
   "self_type" : "_ZTIN4aidl7android8hardware5radio5modem14HardwareConfig15$STATE_DISABLEDE",
   "size" : 4,
   "source_file" : "out/soong/.intermediates/hardware/interfaces/radio/aidl/android.hardware.radio.modem-V1-ndk-source/gen/include/aidl/android/hardware/radio/modem/HardwareConfig.h",
   "underlying_type" : "_ZTIi"
  },
  {
   "alignment" : 4,
   "enum_fields" :
   [
    {
     "enum_field_value" : 1,
     "name" : "aidl::android::hardware::radio::modem::HardwareConfig::TYPE_SIM"
    }
   ],
   "linker_set_key" : "_ZTIN4aidl7android8hardware5radio5modem14HardwareConfig9$TYPE_SIME",
   "name" : "aidl::android::hardware::radio::modem::HardwareConfig::(unnamed enum at out/soong/.intermediates/hardware/interfaces/radio/aidl/android.hardware.radio.modem-V1-ndk-source/gen/include/aidl/android/hardware/radio/modem/HardwareConfig.h:60:3)",
   "referenced_type" : "_ZTIN4aidl7android8hardware5radio5modem14HardwareConfig9$TYPE_SIME",
   "self_type" : "_ZTIN4aidl7android8hardware5radio5modem14HardwareConfig9$TYPE_SIME",
   "size" : 4,
   "source_file" : "out/soong/.intermediates/hardware/interfaces/radio/aidl/android.hardware.radio.modem-V1-ndk-source/gen/include/aidl/android/hardware/radio/modem/HardwareConfig.h",
   "underlying_type" : "_ZTIi"
  },
  {
   "alignment" : 4,
   "enum_fields" :
   [
    {
     "enum_field_value" : 0,
     "name" : "aidl::android::hardware::radio::modem::DeviceStateType::POWER_SAVE_MODE"
    },
    {
     "enum_field_value" : 1,
     "name" : "aidl::android::hardware::radio::modem::DeviceStateType::CHARGING_STATE"
    },
    {
     "enum_field_value" : 2,
     "name" : "aidl::android::hardware::radio::modem::DeviceStateType::LOW_DATA_EXPECTED"
    }
   ],
   "linker_set_key" : "_ZTIN4aidl7android8hardware5radio5modem15DeviceStateTypeE",
   "name" : "aidl::android::hardware::radio::modem::DeviceStateType",
   "referenced_type" : "_ZTIN4aidl7android8hardware5radio5modem15DeviceStateTypeE",
   "self_type" : "_ZTIN4aidl7android8hardware5radio5modem15DeviceStateTypeE",
   "size" : 4,
   "source_file" : "out/soong/.intermediates/hardware/interfaces/radio/aidl/android.hardware.radio.modem-V1-ndk-source/gen/include/aidl/android/hardware/radio/modem/DeviceStateType.h",
   "underlying_type" : "_ZTIi"
  },
  {
   "alignment" : 4,
   "enum_fields" :
   [
    {
     "enum_field_value" : 2,
     "name" : "aidl::android::hardware::radio::modem::RadioCapability::PHASE_APPLY"
    }
   ],
   "linker_set_key" : "_ZTIN4aidl7android8hardware5radio5modem15RadioCapability12$PHASE_APPLYE",
   "name" : "aidl::android::hardware::radio::modem::RadioCapability::(unnamed enum at out/soong/.intermediates/hardware/interfaces/radio/aidl/android.hardware.radio.modem-V1-ndk-source/gen/include/aidl/android/hardware/radio/modem/RadioCapability.h:56:3)",
   "referenced_type" : "_ZTIN4aidl7android8hardware5radio5modem15RadioCapability12$PHASE_APPLYE",
   "self_type" : "_ZTIN4aidl7android8hardware5radio5modem15RadioCapability12$PHASE_APPLYE",
   "size" : 4,
   "source_file" : "out/soong/.intermediates/hardware/interfaces/radio/aidl/android.hardware.radio.modem-V1-ndk-source/gen/include/aidl/android/hardware/radio/modem/RadioCapability.h",
   "underlying_type" : "_ZTIi"
  },
  {
   "alignment" : 4,
   "enum_fields" :
   [
    {
     "enum_field_value" : 1,
     "name" : "aidl::android::hardware::radio::modem::RadioCapability::PHASE_START"
    }
   ],
   "linker_set_key" : "_ZTIN4aidl7android8hardware5radio5modem15RadioCapability12$PHASE_STARTE",
   "name" : "aidl::android::hardware::radio::modem::RadioCapability::(unnamed enum at out/soong/.intermediates/hardware/interfaces/radio/aidl/android.hardware.radio.modem-V1-ndk-source/gen/include/aidl/android/hardware/radio/modem/RadioCapability.h:55:3)",
   "referenced_type" : "_ZTIN4aidl7android8hardware5radio5modem15RadioCapability12$PHASE_STARTE",
   "self_type" : "_ZTIN4aidl7android8hardware5radio5modem15RadioCapability12$PHASE_STARTE",
   "size" : 4,
   "source_file" : "out/soong/.intermediates/hardware/interfaces/radio/aidl/android.hardware.radio.modem-V1-ndk-source/gen/include/aidl/android/hardware/radio/modem/RadioCapability.h",
   "underlying_type" : "_ZTIi"
  },
  {
   "alignment" : 4,
   "enum_fields" :
   [
    {
     "enum_field_value" : 2,
     "name" : "aidl::android::hardware::radio::modem::RadioCapability::STATUS_FAIL"
    }
   ],
   "linker_set_key" : "_ZTIN4aidl7android8hardware5radio5modem15RadioCapability12$STATUS_FAILE",
   "name" : "aidl::android::hardware::radio::modem::RadioCapability::(unnamed enum at out/soong/.intermediates/hardware/interfaces/radio/aidl/android.hardware.radio.modem-V1-ndk-source/gen/include/aidl/android/hardware/radio/modem/RadioCapability.h:61:3)",
   "referenced_type" : "_ZTIN4aidl7android8hardware5radio5modem15RadioCapability12$STATUS_FAILE",
   "self_type" : "_ZTIN4aidl7android8hardware5radio5modem15RadioCapability12$STATUS_FAILE",
   "size" : 4,
   "source_file" : "out/soong/.intermediates/hardware/interfaces/radio/aidl/android.hardware.radio.modem-V1-ndk-source/gen/include/aidl/android/hardware/radio/modem/RadioCapability.h",
   "underlying_type" : "_ZTIi"
  },
  {
   "alignment" : 4,
   "enum_fields" :
   [
    {
     "enum_field_value" : 0,
     "name" : "aidl::android::hardware::radio::modem::RadioCapability::STATUS_NONE"
    }
   ],
   "linker_set_key" : "_ZTIN4aidl7android8hardware5radio5modem15RadioCapability12$STATUS_NONEE",
   "name" : "aidl::android::hardware::radio::modem::RadioCapability::(unnamed enum at out/soong/.intermediates/hardware/interfaces/radio/aidl/android.hardware.radio.modem-V1-ndk-source/gen/include/aidl/android/hardware/radio/modem/RadioCapability.h:59:3)",
   "referenced_type" : "_ZTIN4aidl7android8hardware5radio5modem15RadioCapability12$STATUS_NONEE",
   "self_type" : "_ZTIN4aidl7android8hardware5radio5modem15RadioCapability12$STATUS_NONEE",
   "size" : 4,
   "source_file" : "out/soong/.intermediates/hardware/interfaces/radio/aidl/android.hardware.radio.modem-V1-ndk-source/gen/include/aidl/android/hardware/radio/modem/RadioCapability.h",
   "underlying_type" : "_ZTIi"
  },
  {
   "alignment" : 4,
   "enum_fields" :
   [
    {
     "enum_field_value" : 4,
     "name" : "aidl::android::hardware::radio::modem::RadioCapability::PHASE_FINISH"
    }
   ],
   "linker_set_key" : "_ZTIN4aidl7android8hardware5radio5modem15RadioCapability13$PHASE_FINISHE",
   "name" : "aidl::android::hardware::radio::modem::RadioCapability::(unnamed enum at out/soong/.intermediates/hardware/interfaces/radio/aidl/android.hardware.radio.modem-V1-ndk-source/gen/include/aidl/android/hardware/radio/modem/RadioCapability.h:58:3)",
   "referenced_type" : "_ZTIN4aidl7android8hardware5radio5modem15RadioCapability13$PHASE_FINISHE",
   "self_type" : "_ZTIN4aidl7android8hardware5radio5modem15RadioCapability13$PHASE_FINISHE",
   "size" : 4,
   "source_file" : "out/soong/.intermediates/hardware/interfaces/radio/aidl/android.hardware.radio.modem-V1-ndk-source/gen/include/aidl/android/hardware/radio/modem/RadioCapability.h",
   "underlying_type" : "_ZTIi"
  },
  {
   "alignment" : 4,
   "enum_fields" :
   [
    {
     "enum_field_value" : 1,
     "name" : "aidl::android::hardware::radio::modem::RadioCapability::STATUS_SUCCESS"
    }
   ],
   "linker_set_key" : "_ZTIN4aidl7android8hardware5radio5modem15RadioCapability15$STATUS_SUCCESSE",
   "name" : "aidl::android::hardware::radio::modem::RadioCapability::(unnamed enum at out/soong/.intermediates/hardware/interfaces/radio/aidl/android.hardware.radio.modem-V1-ndk-source/gen/include/aidl/android/hardware/radio/modem/RadioCapability.h:60:3)",
   "referenced_type" : "_ZTIN4aidl7android8hardware5radio5modem15RadioCapability15$STATUS_SUCCESSE",
   "self_type" : "_ZTIN4aidl7android8hardware5radio5modem15RadioCapability15$STATUS_SUCCESSE",
   "size" : 4,
   "source_file" : "out/soong/.intermediates/hardware/interfaces/radio/aidl/android.hardware.radio.modem-V1-ndk-source/gen/include/aidl/android/hardware/radio/modem/RadioCapability.h",
   "underlying_type" : "_ZTIi"
  },
  {
   "alignment" : 4,
   "enum_fields" :
   [
    {
     "enum_field_value" : 3,
     "name" : "aidl::android::hardware::radio::modem::RadioCapability::PHASE_UNSOL_RSP"
    }
   ],
   "linker_set_key" : "_ZTIN4aidl7android8hardware5radio5modem15RadioCapability16$PHASE_UNSOL_RSPE",
   "name" : "aidl::android::hardware::radio::modem::RadioCapability::(unnamed enum at out/soong/.intermediates/hardware/interfaces/radio/aidl/android.hardware.radio.modem-V1-ndk-source/gen/include/aidl/android/hardware/radio/modem/RadioCapability.h:57:3)",
   "referenced_type" : "_ZTIN4aidl7android8hardware5radio5modem15RadioCapability16$PHASE_UNSOL_RSPE",
   "self_type" : "_ZTIN4aidl7android8hardware5radio5modem15RadioCapability16$PHASE_UNSOL_RSPE",
   "size" : 4,
   "source_file" : "out/soong/.intermediates/hardware/interfaces/radio/aidl/android.hardware.radio.modem-V1-ndk-source/gen/include/aidl/android/hardware/radio/modem/RadioCapability.h",
   "underlying_type" : "_ZTIi"
  },
  {
   "alignment" : 4,
   "enum_fields" :
   [
    {
     "enum_field_value" : 0,
     "name" : "aidl::android::hardware::radio::modem::RadioCapability::PHASE_CONFIGURED"
    }
   ],
   "linker_set_key" : "_ZTIN4aidl7android8hardware5radio5modem15RadioCapability17$PHASE_CONFIGUREDE",
   "name" : "aidl::android::hardware::radio::modem::RadioCapability::(unnamed enum at out/soong/.intermediates/hardware/interfaces/radio/aidl/android.hardware.radio.modem-V1-ndk-source/gen/include/aidl/android/hardware/radio/modem/RadioCapability.h:54:3)",
   "referenced_type" : "_ZTIN4aidl7android8hardware5radio5modem15RadioCapability17$PHASE_CONFIGUREDE",
   "self_type" : "_ZTIN4aidl7android8hardware5radio5modem15RadioCapability17$PHASE_CONFIGUREDE",
   "size" : 4,
   "source_file" : "out/soong/.intermediates/hardware/interfaces/radio/aidl/android.hardware.radio.modem-V1-ndk-source/gen/include/aidl/android/hardware/radio/modem/RadioCapability.h",
   "underlying_type" : "_ZTIi"
  },
  {
   "alignment" : 4,
   "enum_fields" :
   [
    {
     "enum_field_value" : 1,
     "name" : "aidl::android::hardware::radio::modem::ActivityStatsTechSpecificInfo::FREQUENCY_RANGE_LOW"
    }
   ],
   "linker_set_key" : "_ZTIN4aidl7android8hardware5radio5modem29ActivityStatsTechSpecificInfo20$FREQUENCY_RANGE_LOWE",
   "name" : "aidl::android::hardware::radio::modem::ActivityStatsTechSpecificInfo::(unnamed enum at out/soong/.intermediates/hardware/interfaces/radio/aidl/android.hardware.radio.modem-V1-ndk-source/gen/include/aidl/android/hardware/radio/modem/ActivityStatsTechSpecificInfo.h:55:3)",
   "referenced_type" : "_ZTIN4aidl7android8hardware5radio5modem29ActivityStatsTechSpecificInfo20$FREQUENCY_RANGE_LOWE",
   "self_type" : "_ZTIN4aidl7android8hardware5radio5modem29ActivityStatsTechSpecificInfo20$FREQUENCY_RANGE_LOWE",
   "size" : 4,
   "source_file" : "out/soong/.intermediates/hardware/interfaces/radio/aidl/android.hardware.radio.modem-V1-ndk-source/gen/include/aidl/android/hardware/radio/modem/ActivityStatsTechSpecificInfo.h",
   "underlying_type" : "_ZTIi"
  },
  {
   "alignment" : 4,
   "enum_fields" :
   [
    {
     "enum_field_value" : 2,
     "name" : "aidl::android::hardware::radio::modem::ActivityStatsTechSpecificInfo::FREQUENCY_RANGE_MID"
    }
   ],
   "linker_set_key" : "_ZTIN4aidl7android8hardware5radio5modem29ActivityStatsTechSpecificInfo20$FREQUENCY_RANGE_MIDE",
   "name" : "aidl::android::hardware::radio::modem::ActivityStatsTechSpecificInfo::(unnamed enum at out/soong/.intermediates/hardware/interfaces/radio/aidl/android.hardware.radio.modem-V1-ndk-source/gen/include/aidl/android/hardware/radio/modem/ActivityStatsTechSpecificInfo.h:56:3)",
   "referenced_type" : "_ZTIN4aidl7android8hardware5radio5modem29ActivityStatsTechSpecificInfo20$FREQUENCY_RANGE_MIDE",
   "self_type" : "_ZTIN4aidl7android8hardware5radio5modem29ActivityStatsTechSpecificInfo20$FREQUENCY_RANGE_MIDE",
   "size" : 4,
   "source_file" : "out/soong/.intermediates/hardware/interfaces/radio/aidl/android.hardware.radio.modem-V1-ndk-source/gen/include/aidl/android/hardware/radio/modem/ActivityStatsTechSpecificInfo.h",
   "underlying_type" : "_ZTIi"
  },
  {
   "alignment" : 4,
   "enum_fields" :
   [
    {
     "enum_field_value" : 3,
     "name" : "aidl::android::hardware::radio::modem::ActivityStatsTechSpecificInfo::FREQUENCY_RANGE_HIGH"
    }
   ],
   "linker_set_key" : "_ZTIN4aidl7android8hardware5radio5modem29ActivityStatsTechSpecificInfo21$FREQUENCY_RANGE_HIGHE",
   "name" : "aidl::android::hardware::radio::modem::ActivityStatsTechSpecificInfo::(unnamed enum at out/soong/.intermediates/hardware/interfaces/radio/aidl/android.hardware.radio.modem-V1-ndk-source/gen/include/aidl/android/hardware/radio/modem/ActivityStatsTechSpecificInfo.h:57:3)",
   "referenced_type" : "_ZTIN4aidl7android8hardware5radio5modem29ActivityStatsTechSpecificInfo21$FREQUENCY_RANGE_HIGHE",
   "self_type" : "_ZTIN4aidl7android8hardware5radio5modem29ActivityStatsTechSpecificInfo21$FREQUENCY_RANGE_HIGHE",
   "size" : 4,
   "source_file" : "out/soong/.intermediates/hardware/interfaces/radio/aidl/android.hardware.radio.modem-V1-ndk-source/gen/include/aidl/android/hardware/radio/modem/ActivityStatsTechSpecificInfo.h",
   "underlying_type" : "_ZTIi"
  },
  {
   "alignment" : 4,
   "enum_fields" :
   [
    {
     "enum_field_value" : 4,
     "name" : "aidl::android::hardware::radio::modem::ActivityStatsTechSpecificInfo::FREQUENCY_RANGE_MMWAVE"
    }
   ],
   "linker_set_key" : "_ZTIN4aidl7android8hardware5radio5modem29ActivityStatsTechSpecificInfo23$FREQUENCY_RANGE_MMWAVEE",
   "name" : "aidl::android::hardware::radio::modem::ActivityStatsTechSpecificInfo::(unnamed enum at out/soong/.intermediates/hardware/interfaces/radio/aidl/android.hardware.radio.modem-V1-ndk-source/gen/include/aidl/android/hardware/radio/modem/ActivityStatsTechSpecificInfo.h:58:3)",
   "referenced_type" : "_ZTIN4aidl7android8hardware5radio5modem29ActivityStatsTechSpecificInfo23$FREQUENCY_RANGE_MMWAVEE",
   "self_type" : "_ZTIN4aidl7android8hardware5radio5modem29ActivityStatsTechSpecificInfo23$FREQUENCY_RANGE_MMWAVEE",
   "size" : 4,
   "source_file" : "out/soong/.intermediates/hardware/interfaces/radio/aidl/android.hardware.radio.modem-V1-ndk-source/gen/include/aidl/android/hardware/radio/modem/ActivityStatsTechSpecificInfo.h",
   "underlying_type" : "_ZTIi"
  },
  {
   "alignment" : 4,
   "enum_fields" :
   [
    {
     "enum_field_value" : 0,
     "name" : "aidl::android::hardware::radio::modem::ActivityStatsTechSpecificInfo::FREQUENCY_RANGE_UNKNOWN"
    }
   ],
   "linker_set_key" : "_ZTIN4aidl7android8hardware5radio5modem29ActivityStatsTechSpecificInfo24$FREQUENCY_RANGE_UNKNOWNE",
   "name" : "aidl::android::hardware::radio::modem::ActivityStatsTechSpecificInfo::(unnamed enum at out/soong/.intermediates/hardware/interfaces/radio/aidl/android.hardware.radio.modem-V1-ndk-source/gen/include/aidl/android/hardware/radio/modem/ActivityStatsTechSpecificInfo.h:54:3)",
   "referenced_type" : "_ZTIN4aidl7android8hardware5radio5modem29ActivityStatsTechSpecificInfo24$FREQUENCY_RANGE_UNKNOWNE",
   "self_type" : "_ZTIN4aidl7android8hardware5radio5modem29ActivityStatsTechSpecificInfo24$FREQUENCY_RANGE_UNKNOWNE",
   "size" : 4,
   "source_file" : "out/soong/.intermediates/hardware/interfaces/radio/aidl/android.hardware.radio.modem-V1-ndk-source/gen/include/aidl/android/hardware/radio/modem/ActivityStatsTechSpecificInfo.h",
   "underlying_type" : "_ZTIi"
  },
  {
   "alignment" : 4,
   "enum_fields" :
   [
    {
     "enum_field_value" : 1,
     "name" : "aidl::android::hardware::radio::modem::NvItem::CDMA_MEID"
    },
    {
     "enum_field_value" : 2,
     "name" : "aidl::android::hardware::radio::modem::NvItem::CDMA_MIN"
    },
    {
     "enum_field_value" : 3,
     "name" : "aidl::android::hardware::radio::modem::NvItem::CDMA_MDN"
    },
    {
     "enum_field_value" : 4,
     "name" : "aidl::android::hardware::radio::modem::NvItem::CDMA_ACCOLC"
    },
    {
     "enum_field_value" : 11,
     "name" : "aidl::android::hardware::radio::modem::NvItem::DEVICE_MSL"
    },
    {
     "enum_field_value" : 12,
     "name" : "aidl::android::hardware::radio::modem::NvItem::RTN_RECONDITIONED_STATUS"
    },
    {
     "enum_field_value" : 13,
     "name" : "aidl::android::hardware::radio::modem::NvItem::RTN_ACTIVATION_DATE"
    },
    {
     "enum_field_value" : 14,
     "name" : "aidl::android::hardware::radio::modem::NvItem::RTN_LIFE_TIMER"
    },
    {
     "enum_field_value" : 15,
     "name" : "aidl::android::hardware::radio::modem::NvItem::RTN_LIFE_CALLS"
    },
    {
     "enum_field_value" : 16,
     "name" : "aidl::android::hardware::radio::modem::NvItem::RTN_LIFE_DATA_TX"
    },
    {
     "enum_field_value" : 17,
     "name" : "aidl::android::hardware::radio::modem::NvItem::RTN_LIFE_DATA_RX"
    },
    {
     "enum_field_value" : 18,
     "name" : "aidl::android::hardware::radio::modem::NvItem::OMADM_HFA_LEVEL"
    },
    {
     "enum_field_value" : 31,
     "name" : "aidl::android::hardware::radio::modem::NvItem::MIP_PROFILE_NAI"
    },
    {
     "enum_field_value" : 32,
     "name" : "aidl::android::hardware::radio::modem::NvItem::MIP_PROFILE_HOME_ADDRESS"
    },
    {
     "enum_field_value" : 33,
     "name" : "aidl::android::hardware::radio::modem::NvItem::MIP_PROFILE_AAA_AUTH"
    },
    {
     "enum_field_value" : 34,
     "name" : "aidl::android::hardware::radio::modem::NvItem::MIP_PROFILE_HA_AUTH"
    },
    {
     "enum_field_value" : 35,
     "name" : "aidl::android::hardware::radio::modem::NvItem::MIP_PROFILE_PRI_HA_ADDR"
    },
    {
     "enum_field_value" : 36,
     "name" : "aidl::android::hardware::radio::modem::NvItem::MIP_PROFILE_SEC_HA_ADDR"
    },
    {
     "enum_field_value" : 37,
     "name" : "aidl::android::hardware::radio::modem::NvItem::MIP_PROFILE_REV_TUN_PREF"
    },
    {
     "enum_field_value" : 38,
     "name" : "aidl::android::hardware::radio::modem::NvItem::MIP_PROFILE_HA_SPI"
    },
    {
     "enum_field_value" : 39,
     "name" : "aidl::android::hardware::radio::modem::NvItem::MIP_PROFILE_AAA_SPI"
    },
    {
     "enum_field_value" : 40,
     "name" : "aidl::android::hardware::radio::modem::NvItem::MIP_PROFILE_MN_HA_SS"
    },
    {
     "enum_field_value" : 41,
     "name" : "aidl::android::hardware::radio::modem::NvItem::MIP_PROFILE_MN_AAA_SS"
    },
    {
     "enum_field_value" : 51,
     "name" : "aidl::android::hardware::radio::modem::NvItem::CDMA_PRL_VERSION"
    },
    {
     "enum_field_value" : 52,
     "name" : "aidl::android::hardware::radio::modem::NvItem::CDMA_BC10"
    },
    {
     "enum_field_value" : 53,
     "name" : "aidl::android::hardware::radio::modem::NvItem::CDMA_BC14"
    },
    {
     "enum_field_value" : 54,
     "name" : "aidl::android::hardware::radio::modem::NvItem::CDMA_SO68"
    },
    {
     "enum_field_value" : 55,
     "name" : "aidl::android::hardware::radio::modem::NvItem::CDMA_SO73_COP0"
    },
    {
     "enum_field_value" : 56,
     "name" : "aidl::android::hardware::radio::modem::NvItem::CDMA_SO73_COP1TO7"
    },
    {
     "enum_field_value" : 57,
     "name" : "aidl::android::hardware::radio::modem::NvItem::CDMA_1X_ADVANCED_ENABLED"
    },
    {
     "enum_field_value" : 58,
     "name" : "aidl::android::hardware::radio::modem::NvItem::CDMA_EHRPD_ENABLED"
    },
    {
     "enum_field_value" : 59,
     "name" : "aidl::android::hardware::radio::modem::NvItem::CDMA_EHRPD_FORCED"
    },
    {
     "enum_field_value" : 71,
     "name" : "aidl::android::hardware::radio::modem::NvItem::LTE_BAND_ENABLE_25"
    },
    {
     "enum_field_value" : 72,
     "name" : "aidl::android::hardware::radio::modem::NvItem::LTE_BAND_ENABLE_26"
    },
    {
     "enum_field_value" : 73,
     "name" : "aidl::android::hardware::radio::modem::NvItem::LTE_BAND_ENABLE_41"
    },
    {
     "enum_field_value" : 74,
     "name" : "aidl::android::hardware::radio::modem::NvItem::LTE_SCAN_PRIORITY_25"
    },
    {
     "enum_field_value" : 75,
     "name" : "aidl::android::hardware::radio::modem::NvItem::LTE_SCAN_PRIORITY_26"
    },
    {
     "enum_field_value" : 76,
     "name" : "aidl::android::hardware::radio::modem::NvItem::LTE_SCAN_PRIORITY_41"
    },
    {
     "enum_field_value" : 77,
     "name" : "aidl::android::hardware::radio::modem::NvItem::LTE_HIDDEN_BAND_PRIORITY_25"
    },
    {
     "enum_field_value" : 78,
     "name" : "aidl::android::hardware::radio::modem::NvItem::LTE_HIDDEN_BAND_PRIORITY_26"
    },
    {
     "enum_field_value" : 79,
     "name" : "aidl::android::hardware::radio::modem::NvItem::LTE_HIDDEN_BAND_PRIORITY_41"
    }
   ],
   "linker_set_key" : "_ZTIN4aidl7android8hardware5radio5modem6NvItemE",
   "name" : "aidl::android::hardware::radio::modem::NvItem",
   "referenced_type" : "_ZTIN4aidl7android8hardware5radio5modem6NvItemE",
   "self_type" : "_ZTIN4aidl7android8hardware5radio5modem6NvItemE",
   "size" : 4,
   "source_file" : "out/soong/.intermediates/hardware/interfaces/radio/aidl/android.hardware.radio.modem-V1-ndk-source/gen/include/aidl/android/hardware/radio/modem/NvItem.h",
   "underlying_type" : "_ZTIi"
  },
  {
   "alignment" : 4,
   "enum_fields" :
   [
    {
     "enum_field_value" : 1,
     "name" : "android::internal::details::IsIterable<std::vector<aidl::android::hardware::radio::modem::HardwareConfigSim>>::value"
    }
   ],
   "linker_set_key" : "_ZTIN7android8internal7details10IsIterableINSt3__16vectorIN4aidl7android8hardware5radio5modem17HardwareConfigSimENS3_9allocatorISA_EEEEE6$valueE",
   "name" : "android::internal::details::IsIterable<std::vector<aidl::android::hardware::radio::modem::HardwareConfigSim, std::allocator<aidl::android::hardware::radio::modem::HardwareConfigSim>>>::(unnamed enum at frameworks/native/libs/binder/ndk/include_cpp/android/binder_to_string.h:131:5)",
   "referenced_type" : "_ZTIN7android8internal7details10IsIterableINSt3__16vectorIN4aidl7android8hardware5radio5modem17HardwareConfigSimENS3_9allocatorISA_EEEEE6$valueE",
   "self_type" : "_ZTIN7android8internal7details10IsIterableINSt3__16vectorIN4aidl7android8hardware5radio5modem17HardwareConfigSimENS3_9allocatorISA_EEEEE6$valueE",
   "size" : 4,
   "source_file" : "frameworks/native/libs/binder/ndk/include_cpp/android/binder_to_string.h",
   "underlying_type" : "_ZTIj"
  },
  {
   "alignment" : 4,
   "enum_fields" :
   [
    {
     "enum_field_value" : 1,
     "name" : "android::internal::details::IsIterable<std::vector<aidl::android::hardware::radio::modem::HardwareConfigModem>>::value"
    }
   ],
   "linker_set_key" : "_ZTIN7android8internal7details10IsIterableINSt3__16vectorIN4aidl7android8hardware5radio5modem19HardwareConfigModemENS3_9allocatorISA_EEEEE6$valueE",
   "name" : "android::internal::details::IsIterable<std::vector<aidl::android::hardware::radio::modem::HardwareConfigModem, std::allocator<aidl::android::hardware::radio::modem::HardwareConfigModem>>>::(unnamed enum at frameworks/native/libs/binder/ndk/include_cpp/android/binder_to_string.h:131:5)",
   "referenced_type" : "_ZTIN7android8internal7details10IsIterableINSt3__16vectorIN4aidl7android8hardware5radio5modem19HardwareConfigModemENS3_9allocatorISA_EEEEE6$valueE",
   "self_type" : "_ZTIN7android8internal7details10IsIterableINSt3__16vectorIN4aidl7android8hardware5radio5modem19HardwareConfigModemENS3_9allocatorISA_EEEEE6$valueE",
   "size" : 4,
   "source_file" : "frameworks/native/libs/binder/ndk/include_cpp/android/binder_to_string.h",
   "underlying_type" : "_ZTIj"
  },
  {
   "alignment" : 4,
   "enum_fields" :
   [
    {
     "enum_field_value" : 1,
     "name" : "android::internal::details::IsIterable<std::vector<aidl::android::hardware::radio::modem::ActivityStatsTechSpecificInfo>>::value"
    }
   ],
   "linker_set_key" : "_ZTIN7android8internal7details10IsIterableINSt3__16vectorIN4aidl7android8hardware5radio5modem29ActivityStatsTechSpecificInfoENS3_9allocatorISA_EEEEE6$valueE",
   "name" : "android::internal::details::IsIterable<std::vector<aidl::android::hardware::radio::modem::ActivityStatsTechSpecificInfo, std::allocator<aidl::android::hardware::radio::modem::ActivityStatsTechSpecificInfo>>>::(unnamed enum at frameworks/native/libs/binder/ndk/include_cpp/android/binder_to_string.h:131:5)",
   "referenced_type" : "_ZTIN7android8internal7details10IsIterableINSt3__16vectorIN4aidl7android8hardware5radio5modem29ActivityStatsTechSpecificInfoENS3_9allocatorISA_EEEEE6$valueE",
   "self_type" : "_ZTIN7android8internal7details10IsIterableINSt3__16vectorIN4aidl7android8hardware5radio5modem29ActivityStatsTechSpecificInfoENS3_9allocatorISA_EEEEE6$valueE",
   "size" : 4,
   "source_file" : "frameworks/native/libs/binder/ndk/include_cpp/android/binder_to_string.h",
   "underlying_type" : "_ZTIj"
  },
  {
   "alignment" : 4,
   "enum_fields" :
   [
    {
     "enum_field_value" : 1,
     "name" : "android::internal::details::IsIterable<std::vector<int>>::value"
    }
   ],
   "linker_set_key" : "_ZTIN7android8internal7details10IsIterableINSt3__16vectorIiNS3_9allocatorIiEEEEE6$valueE",
   "name" : "android::internal::details::IsIterable<std::vector<int, std::allocator<int>>>::(unnamed enum at frameworks/native/libs/binder/ndk/include_cpp/android/binder_to_string.h:131:5)",
   "referenced_type" : "_ZTIN7android8internal7details10IsIterableINSt3__16vectorIiNS3_9allocatorIiEEEEE6$valueE",
   "self_type" : "_ZTIN7android8internal7details10IsIterableINSt3__16vectorIiNS3_9allocatorIiEEEEE6$valueE",
   "size" : 4,
   "source_file" : "frameworks/native/libs/binder/ndk/include_cpp/android/binder_to_string.h",
   "underlying_type" : "_ZTIj"
  },
  {
   "alignment" : 4,
   "enum_fields" :
   [
    {
     "enum_field_value" : 0,
     "name" : "android::internal::details::IsPointerLike<aidl::android::hardware::radio::RadioError>::value"
    }
   ],
   "linker_set_key" : "_ZTIN7android8internal7details13IsPointerLikeIN4aidl7android8hardware5radio10RadioErrorEE6$valueE",
   "name" : "android::internal::details::IsPointerLike<aidl::android::hardware::radio::RadioError>::(unnamed enum at frameworks/native/libs/binder/ndk/include_cpp/android/binder_to_string.h:118:5)",
   "referenced_type" : "_ZTIN7android8internal7details13IsPointerLikeIN4aidl7android8hardware5radio10RadioErrorEE6$valueE",
   "self_type" : "_ZTIN7android8internal7details13IsPointerLikeIN4aidl7android8hardware5radio10RadioErrorEE6$valueE",
   "size" : 4,
   "source_file" : "frameworks/native/libs/binder/ndk/include_cpp/android/binder_to_string.h",
   "underlying_type" : "_ZTIj"
  },
  {
   "alignment" : 4,
   "enum_fields" :
   [
    {
     "enum_field_value" : 0,
     "name" : "android::internal::details::IsPointerLike<aidl::android::hardware::radio::AccessNetwork>::value"
    }
   ],
   "linker_set_key" : "_ZTIN7android8internal7details13IsPointerLikeIN4aidl7android8hardware5radio13AccessNetworkEE6$valueE",
   "name" : "android::internal::details::IsPointerLike<aidl::android::hardware::radio::AccessNetwork>::(unnamed enum at frameworks/native/libs/binder/ndk/include_cpp/android/binder_to_string.h:118:5)",
   "referenced_type" : "_ZTIN7android8internal7details13IsPointerLikeIN4aidl7android8hardware5radio13AccessNetworkEE6$valueE",
   "self_type" : "_ZTIN7android8internal7details13IsPointerLikeIN4aidl7android8hardware5radio13AccessNetworkEE6$valueE",
   "size" : 4,
   "source_file" : "frameworks/native/libs/binder/ndk/include_cpp/android/binder_to_string.h",
   "underlying_type" : "_ZTIj"
  },
  {
   "alignment" : 4,
   "enum_fields" :
   [
    {
     "enum_field_value" : 0,
     "name" : "android::internal::details::IsPointerLike<aidl::android::hardware::radio::RadioTechnology>::value"
    }
   ],
   "linker_set_key" : "_ZTIN7android8internal7details13IsPointerLikeIN4aidl7android8hardware5radio15RadioTechnologyEE6$valueE",
   "name" : "android::internal::details::IsPointerLike<aidl::android::hardware::radio::RadioTechnology>::(unnamed enum at frameworks/native/libs/binder/ndk/include_cpp/android/binder_to_string.h:118:5)",
   "referenced_type" : "_ZTIN7android8internal7details13IsPointerLikeIN4aidl7android8hardware5radio15RadioTechnologyEE6$valueE",
   "self_type" : "_ZTIN7android8internal7details13IsPointerLikeIN4aidl7android8hardware5radio15RadioTechnologyEE6$valueE",
   "size" : 4,
   "source_file" : "frameworks/native/libs/binder/ndk/include_cpp/android/binder_to_string.h",
   "underlying_type" : "_ZTIj"
  },
  {
   "alignment" : 4,
   "enum_fields" :
   [
    {
     "enum_field_value" : 0,
     "name" : "android::internal::details::IsPointerLike<aidl::android::hardware::radio::RadioResponseType>::value"
    }
   ],
   "linker_set_key" : "_ZTIN7android8internal7details13IsPointerLikeIN4aidl7android8hardware5radio17RadioResponseTypeEE6$valueE",
   "name" : "android::internal::details::IsPointerLike<aidl::android::hardware::radio::RadioResponseType>::(unnamed enum at frameworks/native/libs/binder/ndk/include_cpp/android/binder_to_string.h:118:5)",
   "referenced_type" : "_ZTIN7android8internal7details13IsPointerLikeIN4aidl7android8hardware5radio17RadioResponseTypeEE6$valueE",
   "self_type" : "_ZTIN7android8internal7details13IsPointerLikeIN4aidl7android8hardware5radio17RadioResponseTypeEE6$valueE",
   "size" : 4,
   "source_file" : "frameworks/native/libs/binder/ndk/include_cpp/android/binder_to_string.h",
   "underlying_type" : "_ZTIj"
  },
  {
   "alignment" : 4,
   "enum_fields" :
   [
    {
     "enum_field_value" : 0,
     "name" : "android::internal::details::IsPointerLike<aidl::android::hardware::radio::modem::HardwareConfigSim>::value"
    }
   ],
   "linker_set_key" : "_ZTIN7android8internal7details13IsPointerLikeIN4aidl7android8hardware5radio5modem17HardwareConfigSimEE6$valueE",
   "name" : "android::internal::details::IsPointerLike<aidl::android::hardware::radio::modem::HardwareConfigSim>::(unnamed enum at frameworks/native/libs/binder/ndk/include_cpp/android/binder_to_string.h:118:5)",
   "referenced_type" : "_ZTIN7android8internal7details13IsPointerLikeIN4aidl7android8hardware5radio5modem17HardwareConfigSimEE6$valueE",
   "self_type" : "_ZTIN7android8internal7details13IsPointerLikeIN4aidl7android8hardware5radio5modem17HardwareConfigSimEE6$valueE",
   "size" : 4,
   "source_file" : "frameworks/native/libs/binder/ndk/include_cpp/android/binder_to_string.h",
   "underlying_type" : "_ZTIj"
  },
  {
   "alignment" : 4,
   "enum_fields" :
   [
    {
     "enum_field_value" : 0,
     "name" : "android::internal::details::IsPointerLike<aidl::android::hardware::radio::modem::HardwareConfigModem>::value"
    }
   ],
   "linker_set_key" : "_ZTIN7android8internal7details13IsPointerLikeIN4aidl7android8hardware5radio5modem19HardwareConfigModemEE6$valueE",
   "name" : "android::internal::details::IsPointerLike<aidl::android::hardware::radio::modem::HardwareConfigModem>::(unnamed enum at frameworks/native/libs/binder/ndk/include_cpp/android/binder_to_string.h:118:5)",
   "referenced_type" : "_ZTIN7android8internal7details13IsPointerLikeIN4aidl7android8hardware5radio5modem19HardwareConfigModemEE6$valueE",
   "self_type" : "_ZTIN7android8internal7details13IsPointerLikeIN4aidl7android8hardware5radio5modem19HardwareConfigModemEE6$valueE",
   "size" : 4,
   "source_file" : "frameworks/native/libs/binder/ndk/include_cpp/android/binder_to_string.h",
   "underlying_type" : "_ZTIj"
  },
  {
   "alignment" : 4,
   "enum_fields" :
   [
    {
     "enum_field_value" : 0,
     "name" : "android::internal::details::IsPointerLike<aidl::android::hardware::radio::modem::ActivityStatsTechSpecificInfo>::value"
    }
   ],
   "linker_set_key" : "_ZTIN7android8internal7details13IsPointerLikeIN4aidl7android8hardware5radio5modem29ActivityStatsTechSpecificInfoEE6$valueE",
   "name" : "android::internal::details::IsPointerLike<aidl::android::hardware::radio::modem::ActivityStatsTechSpecificInfo>::(unnamed enum at frameworks/native/libs/binder/ndk/include_cpp/android/binder_to_string.h:118:5)",
   "referenced_type" : "_ZTIN7android8internal7details13IsPointerLikeIN4aidl7android8hardware5radio5modem29ActivityStatsTechSpecificInfoEE6$valueE",
   "self_type" : "_ZTIN7android8internal7details13IsPointerLikeIN4aidl7android8hardware5radio5modem29ActivityStatsTechSpecificInfoEE6$valueE",
   "size" : 4,
   "source_file" : "frameworks/native/libs/binder/ndk/include_cpp/android/binder_to_string.h",
   "underlying_type" : "_ZTIj"
  },
  {
   "alignment" : 4,
   "enum_fields" :
   [
    {
     "enum_field_value" : 0,
     "name" : "android::internal::details::IsPointerLike<aidl::android::hardware::radio::modem::NvItem>::value"
    }
   ],
   "linker_set_key" : "_ZTIN7android8internal7details13IsPointerLikeIN4aidl7android8hardware5radio5modem6NvItemEE6$valueE",
   "name" : "android::internal::details::IsPointerLike<aidl::android::hardware::radio::modem::NvItem>::(unnamed enum at frameworks/native/libs/binder/ndk/include_cpp/android/binder_to_string.h:118:5)",
   "referenced_type" : "_ZTIN7android8internal7details13IsPointerLikeIN4aidl7android8hardware5radio5modem6NvItemEE6$valueE",
   "self_type" : "_ZTIN7android8internal7details13IsPointerLikeIN4aidl7android8hardware5radio5modem6NvItemEE6$valueE",
   "size" : 4,
   "source_file" : "frameworks/native/libs/binder/ndk/include_cpp/android/binder_to_string.h",
   "underlying_type" : "_ZTIj"
  },
  {
   "alignment" : 4,
   "enum_fields" :
   [
    {
     "enum_field_value" : 0,
     "name" : "android::internal::details::IsPointerLike<std::vector<aidl::android::hardware::radio::modem::HardwareConfigSim>>::value"
    }
   ],
   "linker_set_key" : "_ZTIN7android8internal7details13IsPointerLikeINSt3__16vectorIN4aidl7android8hardware5radio5modem17HardwareConfigSimENS3_9allocatorISA_EEEEE6$valueE",
   "name" : "android::internal::details::IsPointerLike<std::vector<aidl::android::hardware::radio::modem::HardwareConfigSim, std::allocator<aidl::android::hardware::radio::modem::HardwareConfigSim>>>::(unnamed enum at frameworks/native/libs/binder/ndk/include_cpp/android/binder_to_string.h:118:5)",
   "referenced_type" : "_ZTIN7android8internal7details13IsPointerLikeINSt3__16vectorIN4aidl7android8hardware5radio5modem17HardwareConfigSimENS3_9allocatorISA_EEEEE6$valueE",
   "self_type" : "_ZTIN7android8internal7details13IsPointerLikeINSt3__16vectorIN4aidl7android8hardware5radio5modem17HardwareConfigSimENS3_9allocatorISA_EEEEE6$valueE",
   "size" : 4,
   "source_file" : "frameworks/native/libs/binder/ndk/include_cpp/android/binder_to_string.h",
   "underlying_type" : "_ZTIj"
  },
  {
   "alignment" : 4,
   "enum_fields" :
   [
    {
     "enum_field_value" : 0,
     "name" : "android::internal::details::IsPointerLike<std::vector<aidl::android::hardware::radio::modem::HardwareConfigModem>>::value"
    }
   ],
   "linker_set_key" : "_ZTIN7android8internal7details13IsPointerLikeINSt3__16vectorIN4aidl7android8hardware5radio5modem19HardwareConfigModemENS3_9allocatorISA_EEEEE6$valueE",
   "name" : "android::internal::details::IsPointerLike<std::vector<aidl::android::hardware::radio::modem::HardwareConfigModem, std::allocator<aidl::android::hardware::radio::modem::HardwareConfigModem>>>::(unnamed enum at frameworks/native/libs/binder/ndk/include_cpp/android/binder_to_string.h:118:5)",
   "referenced_type" : "_ZTIN7android8internal7details13IsPointerLikeINSt3__16vectorIN4aidl7android8hardware5radio5modem19HardwareConfigModemENS3_9allocatorISA_EEEEE6$valueE",
   "self_type" : "_ZTIN7android8internal7details13IsPointerLikeINSt3__16vectorIN4aidl7android8hardware5radio5modem19HardwareConfigModemENS3_9allocatorISA_EEEEE6$valueE",
   "size" : 4,
   "source_file" : "frameworks/native/libs/binder/ndk/include_cpp/android/binder_to_string.h",
   "underlying_type" : "_ZTIj"
  },
  {
   "alignment" : 4,
   "enum_fields" :
   [
    {
     "enum_field_value" : 0,
     "name" : "android::internal::details::IsPointerLike<std::vector<aidl::android::hardware::radio::modem::ActivityStatsTechSpecificInfo>>::value"
    }
   ],
   "linker_set_key" : "_ZTIN7android8internal7details13IsPointerLikeINSt3__16vectorIN4aidl7android8hardware5radio5modem29ActivityStatsTechSpecificInfoENS3_9allocatorISA_EEEEE6$valueE",
   "name" : "android::internal::details::IsPointerLike<std::vector<aidl::android::hardware::radio::modem::ActivityStatsTechSpecificInfo, std::allocator<aidl::android::hardware::radio::modem::ActivityStatsTechSpecificInfo>>>::(unnamed enum at frameworks/native/libs/binder/ndk/include_cpp/android/binder_to_string.h:118:5)",
   "referenced_type" : "_ZTIN7android8internal7details13IsPointerLikeINSt3__16vectorIN4aidl7android8hardware5radio5modem29ActivityStatsTechSpecificInfoENS3_9allocatorISA_EEEEE6$valueE",
   "self_type" : "_ZTIN7android8internal7details13IsPointerLikeINSt3__16vectorIN4aidl7android8hardware5radio5modem29ActivityStatsTechSpecificInfoENS3_9allocatorISA_EEEEE6$valueE",
   "size" : 4,
   "source_file" : "frameworks/native/libs/binder/ndk/include_cpp/android/binder_to_string.h",
   "underlying_type" : "_ZTIj"
  },
  {
   "alignment" : 4,
   "enum_fields" :
   [
    {
     "enum_field_value" : 0,
     "name" : "android::internal::details::IsPointerLike<std::vector<int>>::value"
    }
   ],
   "linker_set_key" : "_ZTIN7android8internal7details13IsPointerLikeINSt3__16vectorIiNS3_9allocatorIiEEEEE6$valueE",
   "name" : "android::internal::details::IsPointerLike<std::vector<int, std::allocator<int>>>::(unnamed enum at frameworks/native/libs/binder/ndk/include_cpp/android/binder_to_string.h:118:5)",
   "referenced_type" : "_ZTIN7android8internal7details13IsPointerLikeINSt3__16vectorIiNS3_9allocatorIiEEEEE6$valueE",
   "self_type" : "_ZTIN7android8internal7details13IsPointerLikeINSt3__16vectorIiNS3_9allocatorIiEEEEE6$valueE",
   "size" : 4,
   "source_file" : "frameworks/native/libs/binder/ndk/include_cpp/android/binder_to_string.h",
   "underlying_type" : "_ZTIj"
  },
  {
   "alignment" : 4,
   "enum_fields" :
   [
    {
     "enum_field_value" : 0,
     "name" : "android::internal::details::ToEmptyString<aidl::android::hardware::radio::RadioError>::value"
    }
   ],
   "linker_set_key" : "_ZTIN7android8internal7details13ToEmptyStringIN4aidl7android8hardware5radio10RadioErrorEE6$valueE",
   "name" : "android::internal::details::ToEmptyString<aidl::android::hardware::radio::RadioError>::(unnamed enum at frameworks/native/libs/binder/ndk/include_cpp/android/binder_to_string.h:153:5)",
   "referenced_type" : "_ZTIN7android8internal7details13ToEmptyStringIN4aidl7android8hardware5radio10RadioErrorEE6$valueE",
   "self_type" : "_ZTIN7android8internal7details13ToEmptyStringIN4aidl7android8hardware5radio10RadioErrorEE6$valueE",
   "size" : 4,
   "source_file" : "frameworks/native/libs/binder/ndk/include_cpp/android/binder_to_string.h",
   "underlying_type" : "_ZTIj"
  },
  {
   "alignment" : 4,
   "enum_fields" :
   [
    {
     "enum_field_value" : 0,
     "name" : "android::internal::details::ToEmptyString<aidl::android::hardware::radio::AccessNetwork>::value"
    }
   ],
   "linker_set_key" : "_ZTIN7android8internal7details13ToEmptyStringIN4aidl7android8hardware5radio13AccessNetworkEE6$valueE",
   "name" : "android::internal::details::ToEmptyString<aidl::android::hardware::radio::AccessNetwork>::(unnamed enum at frameworks/native/libs/binder/ndk/include_cpp/android/binder_to_string.h:153:5)",
   "referenced_type" : "_ZTIN7android8internal7details13ToEmptyStringIN4aidl7android8hardware5radio13AccessNetworkEE6$valueE",
   "self_type" : "_ZTIN7android8internal7details13ToEmptyStringIN4aidl7android8hardware5radio13AccessNetworkEE6$valueE",
   "size" : 4,
   "source_file" : "frameworks/native/libs/binder/ndk/include_cpp/android/binder_to_string.h",
   "underlying_type" : "_ZTIj"
  },
  {
   "alignment" : 4,
   "enum_fields" :
   [
    {
     "enum_field_value" : 0,
     "name" : "android::internal::details::ToEmptyString<aidl::android::hardware::radio::RadioTechnology>::value"
    }
   ],
   "linker_set_key" : "_ZTIN7android8internal7details13ToEmptyStringIN4aidl7android8hardware5radio15RadioTechnologyEE6$valueE",
   "name" : "android::internal::details::ToEmptyString<aidl::android::hardware::radio::RadioTechnology>::(unnamed enum at frameworks/native/libs/binder/ndk/include_cpp/android/binder_to_string.h:153:5)",
   "referenced_type" : "_ZTIN7android8internal7details13ToEmptyStringIN4aidl7android8hardware5radio15RadioTechnologyEE6$valueE",
   "self_type" : "_ZTIN7android8internal7details13ToEmptyStringIN4aidl7android8hardware5radio15RadioTechnologyEE6$valueE",
   "size" : 4,
   "source_file" : "frameworks/native/libs/binder/ndk/include_cpp/android/binder_to_string.h",
   "underlying_type" : "_ZTIj"
  },
  {
   "alignment" : 4,
   "enum_fields" :
   [
    {
     "enum_field_value" : 0,
     "name" : "android::internal::details::ToEmptyString<aidl::android::hardware::radio::RadioResponseType>::value"
    }
   ],
   "linker_set_key" : "_ZTIN7android8internal7details13ToEmptyStringIN4aidl7android8hardware5radio17RadioResponseTypeEE6$valueE",
   "name" : "android::internal::details::ToEmptyString<aidl::android::hardware::radio::RadioResponseType>::(unnamed enum at frameworks/native/libs/binder/ndk/include_cpp/android/binder_to_string.h:153:5)",
   "referenced_type" : "_ZTIN7android8internal7details13ToEmptyStringIN4aidl7android8hardware5radio17RadioResponseTypeEE6$valueE",
   "self_type" : "_ZTIN7android8internal7details13ToEmptyStringIN4aidl7android8hardware5radio17RadioResponseTypeEE6$valueE",
   "size" : 4,
   "source_file" : "frameworks/native/libs/binder/ndk/include_cpp/android/binder_to_string.h",
   "underlying_type" : "_ZTIj"
  },
  {
   "alignment" : 4,
   "enum_fields" :
   [
    {
     "enum_field_value" : 0,
     "name" : "android::internal::details::ToEmptyString<aidl::android::hardware::radio::modem::HardwareConfigSim>::value"
    }
   ],
   "linker_set_key" : "_ZTIN7android8internal7details13ToEmptyStringIN4aidl7android8hardware5radio5modem17HardwareConfigSimEE6$valueE",
   "name" : "android::internal::details::ToEmptyString<aidl::android::hardware::radio::modem::HardwareConfigSim>::(unnamed enum at frameworks/native/libs/binder/ndk/include_cpp/android/binder_to_string.h:153:5)",
   "referenced_type" : "_ZTIN7android8internal7details13ToEmptyStringIN4aidl7android8hardware5radio5modem17HardwareConfigSimEE6$valueE",
   "self_type" : "_ZTIN7android8internal7details13ToEmptyStringIN4aidl7android8hardware5radio5modem17HardwareConfigSimEE6$valueE",
   "size" : 4,
   "source_file" : "frameworks/native/libs/binder/ndk/include_cpp/android/binder_to_string.h",
   "underlying_type" : "_ZTIj"
  },
  {
   "alignment" : 4,
   "enum_fields" :
   [
    {
     "enum_field_value" : 0,
     "name" : "android::internal::details::ToEmptyString<aidl::android::hardware::radio::modem::HardwareConfigModem>::value"
    }
   ],
   "linker_set_key" : "_ZTIN7android8internal7details13ToEmptyStringIN4aidl7android8hardware5radio5modem19HardwareConfigModemEE6$valueE",
   "name" : "android::internal::details::ToEmptyString<aidl::android::hardware::radio::modem::HardwareConfigModem>::(unnamed enum at frameworks/native/libs/binder/ndk/include_cpp/android/binder_to_string.h:153:5)",
   "referenced_type" : "_ZTIN7android8internal7details13ToEmptyStringIN4aidl7android8hardware5radio5modem19HardwareConfigModemEE6$valueE",
   "self_type" : "_ZTIN7android8internal7details13ToEmptyStringIN4aidl7android8hardware5radio5modem19HardwareConfigModemEE6$valueE",
   "size" : 4,
   "source_file" : "frameworks/native/libs/binder/ndk/include_cpp/android/binder_to_string.h",
   "underlying_type" : "_ZTIj"
  },
  {
   "alignment" : 4,
   "enum_fields" :
   [
    {
     "enum_field_value" : 0,
     "name" : "android::internal::details::ToEmptyString<aidl::android::hardware::radio::modem::ActivityStatsTechSpecificInfo>::value"
    }
   ],
   "linker_set_key" : "_ZTIN7android8internal7details13ToEmptyStringIN4aidl7android8hardware5radio5modem29ActivityStatsTechSpecificInfoEE6$valueE",
   "name" : "android::internal::details::ToEmptyString<aidl::android::hardware::radio::modem::ActivityStatsTechSpecificInfo>::(unnamed enum at frameworks/native/libs/binder/ndk/include_cpp/android/binder_to_string.h:153:5)",
   "referenced_type" : "_ZTIN7android8internal7details13ToEmptyStringIN4aidl7android8hardware5radio5modem29ActivityStatsTechSpecificInfoEE6$valueE",
   "self_type" : "_ZTIN7android8internal7details13ToEmptyStringIN4aidl7android8hardware5radio5modem29ActivityStatsTechSpecificInfoEE6$valueE",
   "size" : 4,
   "source_file" : "frameworks/native/libs/binder/ndk/include_cpp/android/binder_to_string.h",
   "underlying_type" : "_ZTIj"
  },
  {
   "alignment" : 4,
   "enum_fields" :
   [
    {
     "enum_field_value" : 0,
     "name" : "android::internal::details::ToEmptyString<aidl::android::hardware::radio::modem::NvItem>::value"
    }
   ],
   "linker_set_key" : "_ZTIN7android8internal7details13ToEmptyStringIN4aidl7android8hardware5radio5modem6NvItemEE6$valueE",
   "name" : "android::internal::details::ToEmptyString<aidl::android::hardware::radio::modem::NvItem>::(unnamed enum at frameworks/native/libs/binder/ndk/include_cpp/android/binder_to_string.h:153:5)",
   "referenced_type" : "_ZTIN7android8internal7details13ToEmptyStringIN4aidl7android8hardware5radio5modem6NvItemEE6$valueE",
   "self_type" : "_ZTIN7android8internal7details13ToEmptyStringIN4aidl7android8hardware5radio5modem6NvItemEE6$valueE",
   "size" : 4,
   "source_file" : "frameworks/native/libs/binder/ndk/include_cpp/android/binder_to_string.h",
   "underlying_type" : "_ZTIj"
  },
  {
   "alignment" : 4,
   "enum_fields" :
   [
    {
     "enum_field_value" : 0,
     "name" : "android::internal::details::ToEmptyString<std::basic_string<char>>::value"
    }
   ],
   "linker_set_key" : "_ZTIN7android8internal7details13ToEmptyStringINSt3__112basic_stringIcNS3_11char_traitsIcEENS3_9allocatorIcEEEEE6$valueE",
   "name" : "android::internal::details::ToEmptyString<std::basic_string<char, std::char_traits<char>, std::allocator<char>>>::(unnamed enum at frameworks/native/libs/binder/ndk/include_cpp/android/binder_to_string.h:153:5)",
   "referenced_type" : "_ZTIN7android8internal7details13ToEmptyStringINSt3__112basic_stringIcNS3_11char_traitsIcEENS3_9allocatorIcEEEEE6$valueE",
   "self_type" : "_ZTIN7android8internal7details13ToEmptyStringINSt3__112basic_stringIcNS3_11char_traitsIcEENS3_9allocatorIcEEEEE6$valueE",
   "size" : 4,
   "source_file" : "frameworks/native/libs/binder/ndk/include_cpp/android/binder_to_string.h",
   "underlying_type" : "_ZTIj"
  },
  {
   "alignment" : 4,
   "enum_fields" :
   [
    {
     "enum_field_value" : 0,
     "name" : "android::internal::details::ToEmptyString<std::vector<aidl::android::hardware::radio::modem::HardwareConfigSim>>::value"
    }
   ],
   "linker_set_key" : "_ZTIN7android8internal7details13ToEmptyStringINSt3__16vectorIN4aidl7android8hardware5radio5modem17HardwareConfigSimENS3_9allocatorISA_EEEEE6$valueE",
   "name" : "android::internal::details::ToEmptyString<std::vector<aidl::android::hardware::radio::modem::HardwareConfigSim, std::allocator<aidl::android::hardware::radio::modem::HardwareConfigSim>>>::(unnamed enum at frameworks/native/libs/binder/ndk/include_cpp/android/binder_to_string.h:153:5)",
   "referenced_type" : "_ZTIN7android8internal7details13ToEmptyStringINSt3__16vectorIN4aidl7android8hardware5radio5modem17HardwareConfigSimENS3_9allocatorISA_EEEEE6$valueE",
   "self_type" : "_ZTIN7android8internal7details13ToEmptyStringINSt3__16vectorIN4aidl7android8hardware5radio5modem17HardwareConfigSimENS3_9allocatorISA_EEEEE6$valueE",
   "size" : 4,
   "source_file" : "frameworks/native/libs/binder/ndk/include_cpp/android/binder_to_string.h",
   "underlying_type" : "_ZTIj"
  },
  {
   "alignment" : 4,
   "enum_fields" :
   [
    {
     "enum_field_value" : 0,
     "name" : "android::internal::details::ToEmptyString<std::vector<aidl::android::hardware::radio::modem::HardwareConfigModem>>::value"
    }
   ],
   "linker_set_key" : "_ZTIN7android8internal7details13ToEmptyStringINSt3__16vectorIN4aidl7android8hardware5radio5modem19HardwareConfigModemENS3_9allocatorISA_EEEEE6$valueE",
   "name" : "android::internal::details::ToEmptyString<std::vector<aidl::android::hardware::radio::modem::HardwareConfigModem, std::allocator<aidl::android::hardware::radio::modem::HardwareConfigModem>>>::(unnamed enum at frameworks/native/libs/binder/ndk/include_cpp/android/binder_to_string.h:153:5)",
   "referenced_type" : "_ZTIN7android8internal7details13ToEmptyStringINSt3__16vectorIN4aidl7android8hardware5radio5modem19HardwareConfigModemENS3_9allocatorISA_EEEEE6$valueE",
   "self_type" : "_ZTIN7android8internal7details13ToEmptyStringINSt3__16vectorIN4aidl7android8hardware5radio5modem19HardwareConfigModemENS3_9allocatorISA_EEEEE6$valueE",
   "size" : 4,
   "source_file" : "frameworks/native/libs/binder/ndk/include_cpp/android/binder_to_string.h",
   "underlying_type" : "_ZTIj"
  },
  {
   "alignment" : 4,
   "enum_fields" :
   [
    {
     "enum_field_value" : 0,
     "name" : "android::internal::details::ToEmptyString<std::vector<aidl::android::hardware::radio::modem::ActivityStatsTechSpecificInfo>>::value"
    }
   ],
   "linker_set_key" : "_ZTIN7android8internal7details13ToEmptyStringINSt3__16vectorIN4aidl7android8hardware5radio5modem29ActivityStatsTechSpecificInfoENS3_9allocatorISA_EEEEE6$valueE",
   "name" : "android::internal::details::ToEmptyString<std::vector<aidl::android::hardware::radio::modem::ActivityStatsTechSpecificInfo, std::allocator<aidl::android::hardware::radio::modem::ActivityStatsTechSpecificInfo>>>::(unnamed enum at frameworks/native/libs/binder/ndk/include_cpp/android/binder_to_string.h:153:5)",
   "referenced_type" : "_ZTIN7android8internal7details13ToEmptyStringINSt3__16vectorIN4aidl7android8hardware5radio5modem29ActivityStatsTechSpecificInfoENS3_9allocatorISA_EEEEE6$valueE",
   "self_type" : "_ZTIN7android8internal7details13ToEmptyStringINSt3__16vectorIN4aidl7android8hardware5radio5modem29ActivityStatsTechSpecificInfoENS3_9allocatorISA_EEEEE6$valueE",
   "size" : 4,
   "source_file" : "frameworks/native/libs/binder/ndk/include_cpp/android/binder_to_string.h",
   "underlying_type" : "_ZTIj"
  },
  {
   "alignment" : 4,
   "enum_fields" :
   [
    {
     "enum_field_value" : 0,
     "name" : "android::internal::details::ToEmptyString<std::vector<int>>::value"
    }
   ],
   "linker_set_key" : "_ZTIN7android8internal7details13ToEmptyStringINSt3__16vectorIiNS3_9allocatorIiEEEEE6$valueE",
   "name" : "android::internal::details::ToEmptyString<std::vector<int, std::allocator<int>>>::(unnamed enum at frameworks/native/libs/binder/ndk/include_cpp/android/binder_to_string.h:153:5)",
   "referenced_type" : "_ZTIN7android8internal7details13ToEmptyStringINSt3__16vectorIiNS3_9allocatorIiEEEEE6$valueE",
   "self_type" : "_ZTIN7android8internal7details13ToEmptyStringINSt3__16vectorIiNS3_9allocatorIiEEEEE6$valueE",
   "size" : 4,
   "source_file" : "frameworks/native/libs/binder/ndk/include_cpp/android/binder_to_string.h",
   "underlying_type" : "_ZTIj"
  },
  {
   "alignment" : 4,
   "enum_fields" :
   [
    {
     "enum_field_value" : 0,
     "name" : "android::internal::details::ToEmptyString<int>::value"
    }
   ],
   "linker_set_key" : "_ZTIN7android8internal7details13ToEmptyStringIiE6$valueE",
   "name" : "android::internal::details::ToEmptyString<int>::(unnamed enum at frameworks/native/libs/binder/ndk/include_cpp/android/binder_to_string.h:153:5)",
   "referenced_type" : "_ZTIN7android8internal7details13ToEmptyStringIiE6$valueE",
   "self_type" : "_ZTIN7android8internal7details13ToEmptyStringIiE6$valueE",
   "size" : 4,
   "source_file" : "frameworks/native/libs/binder/ndk/include_cpp/android/binder_to_string.h",
   "underlying_type" : "_ZTIj"
  },
  {
   "alignment" : 4,
   "enum_fields" :
   [
    {
     "enum_field_value" : 0,
     "name" : "android::internal::details::HasToStringMethod<aidl::android::hardware::radio::RadioError>::value"
    }
   ],
   "linker_set_key" : "_ZTIN7android8internal7details17HasToStringMethodIN4aidl7android8hardware5radio10RadioErrorEE6$valueE",
   "name" : "android::internal::details::HasToStringMethod<aidl::android::hardware::radio::RadioError>::(unnamed enum at frameworks/native/libs/binder/ndk/include_cpp/android/binder_to_string.h:77:5)",
   "referenced_type" : "_ZTIN7android8internal7details17HasToStringMethodIN4aidl7android8hardware5radio10RadioErrorEE6$valueE",
   "self_type" : "_ZTIN7android8internal7details17HasToStringMethodIN4aidl7android8hardware5radio10RadioErrorEE6$valueE",
   "size" : 4,
   "source_file" : "frameworks/native/libs/binder/ndk/include_cpp/android/binder_to_string.h",
   "underlying_type" : "_ZTIj"
  },
  {
   "alignment" : 4,
   "enum_fields" :
   [
    {
     "enum_field_value" : 0,
     "name" : "android::internal::details::HasToStringMethod<aidl::android::hardware::radio::AccessNetwork>::value"
    }
   ],
   "linker_set_key" : "_ZTIN7android8internal7details17HasToStringMethodIN4aidl7android8hardware5radio13AccessNetworkEE6$valueE",
   "name" : "android::internal::details::HasToStringMethod<aidl::android::hardware::radio::AccessNetwork>::(unnamed enum at frameworks/native/libs/binder/ndk/include_cpp/android/binder_to_string.h:77:5)",
   "referenced_type" : "_ZTIN7android8internal7details17HasToStringMethodIN4aidl7android8hardware5radio13AccessNetworkEE6$valueE",
   "self_type" : "_ZTIN7android8internal7details17HasToStringMethodIN4aidl7android8hardware5radio13AccessNetworkEE6$valueE",
   "size" : 4,
   "source_file" : "frameworks/native/libs/binder/ndk/include_cpp/android/binder_to_string.h",
   "underlying_type" : "_ZTIj"
  },
  {
   "alignment" : 4,
   "enum_fields" :
   [
    {
     "enum_field_value" : 0,
     "name" : "android::internal::details::HasToStringMethod<aidl::android::hardware::radio::RadioTechnology>::value"
    }
   ],
   "linker_set_key" : "_ZTIN7android8internal7details17HasToStringMethodIN4aidl7android8hardware5radio15RadioTechnologyEE6$valueE",
   "name" : "android::internal::details::HasToStringMethod<aidl::android::hardware::radio::RadioTechnology>::(unnamed enum at frameworks/native/libs/binder/ndk/include_cpp/android/binder_to_string.h:77:5)",
   "referenced_type" : "_ZTIN7android8internal7details17HasToStringMethodIN4aidl7android8hardware5radio15RadioTechnologyEE6$valueE",
   "self_type" : "_ZTIN7android8internal7details17HasToStringMethodIN4aidl7android8hardware5radio15RadioTechnologyEE6$valueE",
   "size" : 4,
   "source_file" : "frameworks/native/libs/binder/ndk/include_cpp/android/binder_to_string.h",
   "underlying_type" : "_ZTIj"
  },
  {
   "alignment" : 4,
   "enum_fields" :
   [
    {
     "enum_field_value" : 0,
     "name" : "android::internal::details::HasToStringMethod<aidl::android::hardware::radio::RadioResponseType>::value"
    }
   ],
   "linker_set_key" : "_ZTIN7android8internal7details17HasToStringMethodIN4aidl7android8hardware5radio17RadioResponseTypeEE6$valueE",
   "name" : "android::internal::details::HasToStringMethod<aidl::android::hardware::radio::RadioResponseType>::(unnamed enum at frameworks/native/libs/binder/ndk/include_cpp/android/binder_to_string.h:77:5)",
   "referenced_type" : "_ZTIN7android8internal7details17HasToStringMethodIN4aidl7android8hardware5radio17RadioResponseTypeEE6$valueE",
   "self_type" : "_ZTIN7android8internal7details17HasToStringMethodIN4aidl7android8hardware5radio17RadioResponseTypeEE6$valueE",
   "size" : 4,
   "source_file" : "frameworks/native/libs/binder/ndk/include_cpp/android/binder_to_string.h",
   "underlying_type" : "_ZTIj"
  },
  {
   "alignment" : 4,
   "enum_fields" :
   [
    {
     "enum_field_value" : 1,
     "name" : "android::internal::details::HasToStringMethod<aidl::android::hardware::radio::modem::HardwareConfigSim>::value"
    }
   ],
   "linker_set_key" : "_ZTIN7android8internal7details17HasToStringMethodIN4aidl7android8hardware5radio5modem17HardwareConfigSimEE6$valueE",
   "name" : "android::internal::details::HasToStringMethod<aidl::android::hardware::radio::modem::HardwareConfigSim>::(unnamed enum at frameworks/native/libs/binder/ndk/include_cpp/android/binder_to_string.h:77:5)",
   "referenced_type" : "_ZTIN7android8internal7details17HasToStringMethodIN4aidl7android8hardware5radio5modem17HardwareConfigSimEE6$valueE",
   "self_type" : "_ZTIN7android8internal7details17HasToStringMethodIN4aidl7android8hardware5radio5modem17HardwareConfigSimEE6$valueE",
   "size" : 4,
   "source_file" : "frameworks/native/libs/binder/ndk/include_cpp/android/binder_to_string.h",
   "underlying_type" : "_ZTIj"
  },
  {
   "alignment" : 4,
   "enum_fields" :
   [
    {
     "enum_field_value" : 1,
     "name" : "android::internal::details::HasToStringMethod<aidl::android::hardware::radio::modem::HardwareConfigModem>::value"
    }
   ],
   "linker_set_key" : "_ZTIN7android8internal7details17HasToStringMethodIN4aidl7android8hardware5radio5modem19HardwareConfigModemEE6$valueE",
   "name" : "android::internal::details::HasToStringMethod<aidl::android::hardware::radio::modem::HardwareConfigModem>::(unnamed enum at frameworks/native/libs/binder/ndk/include_cpp/android/binder_to_string.h:77:5)",
   "referenced_type" : "_ZTIN7android8internal7details17HasToStringMethodIN4aidl7android8hardware5radio5modem19HardwareConfigModemEE6$valueE",
   "self_type" : "_ZTIN7android8internal7details17HasToStringMethodIN4aidl7android8hardware5radio5modem19HardwareConfigModemEE6$valueE",
   "size" : 4,
   "source_file" : "frameworks/native/libs/binder/ndk/include_cpp/android/binder_to_string.h",
   "underlying_type" : "_ZTIj"
  },
  {
   "alignment" : 4,
   "enum_fields" :
   [
    {
     "enum_field_value" : 1,
     "name" : "android::internal::details::HasToStringMethod<aidl::android::hardware::radio::modem::ActivityStatsTechSpecificInfo>::value"
    }
   ],
   "linker_set_key" : "_ZTIN7android8internal7details17HasToStringMethodIN4aidl7android8hardware5radio5modem29ActivityStatsTechSpecificInfoEE6$valueE",
   "name" : "android::internal::details::HasToStringMethod<aidl::android::hardware::radio::modem::ActivityStatsTechSpecificInfo>::(unnamed enum at frameworks/native/libs/binder/ndk/include_cpp/android/binder_to_string.h:77:5)",
   "referenced_type" : "_ZTIN7android8internal7details17HasToStringMethodIN4aidl7android8hardware5radio5modem29ActivityStatsTechSpecificInfoEE6$valueE",
   "self_type" : "_ZTIN7android8internal7details17HasToStringMethodIN4aidl7android8hardware5radio5modem29ActivityStatsTechSpecificInfoEE6$valueE",
   "size" : 4,
   "source_file" : "frameworks/native/libs/binder/ndk/include_cpp/android/binder_to_string.h",
   "underlying_type" : "_ZTIj"
  },
  {
   "alignment" : 4,
   "enum_fields" :
   [
    {
     "enum_field_value" : 0,
     "name" : "android::internal::details::HasToStringMethod<aidl::android::hardware::radio::modem::NvItem>::value"
    }
   ],
   "linker_set_key" : "_ZTIN7android8internal7details17HasToStringMethodIN4aidl7android8hardware5radio5modem6NvItemEE6$valueE",
   "name" : "android::internal::details::HasToStringMethod<aidl::android::hardware::radio::modem::NvItem>::(unnamed enum at frameworks/native/libs/binder/ndk/include_cpp/android/binder_to_string.h:77:5)",
   "referenced_type" : "_ZTIN7android8internal7details17HasToStringMethodIN4aidl7android8hardware5radio5modem6NvItemEE6$valueE",
   "self_type" : "_ZTIN7android8internal7details17HasToStringMethodIN4aidl7android8hardware5radio5modem6NvItemEE6$valueE",
   "size" : 4,
   "source_file" : "frameworks/native/libs/binder/ndk/include_cpp/android/binder_to_string.h",
   "underlying_type" : "_ZTIj"
  },
  {
   "alignment" : 4,
   "enum_fields" :
   [
    {
     "enum_field_value" : 0,
     "name" : "android::internal::details::HasToStringMethod<std::vector<aidl::android::hardware::radio::modem::HardwareConfigSim>>::value"
    }
   ],
   "linker_set_key" : "_ZTIN7android8internal7details17HasToStringMethodINSt3__16vectorIN4aidl7android8hardware5radio5modem17HardwareConfigSimENS3_9allocatorISA_EEEEE6$valueE",
   "name" : "android::internal::details::HasToStringMethod<std::vector<aidl::android::hardware::radio::modem::HardwareConfigSim, std::allocator<aidl::android::hardware::radio::modem::HardwareConfigSim>>>::(unnamed enum at frameworks/native/libs/binder/ndk/include_cpp/android/binder_to_string.h:77:5)",
   "referenced_type" : "_ZTIN7android8internal7details17HasToStringMethodINSt3__16vectorIN4aidl7android8hardware5radio5modem17HardwareConfigSimENS3_9allocatorISA_EEEEE6$valueE",
   "self_type" : "_ZTIN7android8internal7details17HasToStringMethodINSt3__16vectorIN4aidl7android8hardware5radio5modem17HardwareConfigSimENS3_9allocatorISA_EEEEE6$valueE",
   "size" : 4,
   "source_file" : "frameworks/native/libs/binder/ndk/include_cpp/android/binder_to_string.h",
   "underlying_type" : "_ZTIj"
  },
  {
   "alignment" : 4,
   "enum_fields" :
   [
    {
     "enum_field_value" : 0,
     "name" : "android::internal::details::HasToStringMethod<std::vector<aidl::android::hardware::radio::modem::HardwareConfigModem>>::value"
    }
   ],
   "linker_set_key" : "_ZTIN7android8internal7details17HasToStringMethodINSt3__16vectorIN4aidl7android8hardware5radio5modem19HardwareConfigModemENS3_9allocatorISA_EEEEE6$valueE",
   "name" : "android::internal::details::HasToStringMethod<std::vector<aidl::android::hardware::radio::modem::HardwareConfigModem, std::allocator<aidl::android::hardware::radio::modem::HardwareConfigModem>>>::(unnamed enum at frameworks/native/libs/binder/ndk/include_cpp/android/binder_to_string.h:77:5)",
   "referenced_type" : "_ZTIN7android8internal7details17HasToStringMethodINSt3__16vectorIN4aidl7android8hardware5radio5modem19HardwareConfigModemENS3_9allocatorISA_EEEEE6$valueE",
   "self_type" : "_ZTIN7android8internal7details17HasToStringMethodINSt3__16vectorIN4aidl7android8hardware5radio5modem19HardwareConfigModemENS3_9allocatorISA_EEEEE6$valueE",
   "size" : 4,
   "source_file" : "frameworks/native/libs/binder/ndk/include_cpp/android/binder_to_string.h",
   "underlying_type" : "_ZTIj"
  },
  {
   "alignment" : 4,
   "enum_fields" :
   [
    {
     "enum_field_value" : 0,
     "name" : "android::internal::details::HasToStringMethod<std::vector<aidl::android::hardware::radio::modem::ActivityStatsTechSpecificInfo>>::value"
    }
   ],
   "linker_set_key" : "_ZTIN7android8internal7details17HasToStringMethodINSt3__16vectorIN4aidl7android8hardware5radio5modem29ActivityStatsTechSpecificInfoENS3_9allocatorISA_EEEEE6$valueE",
   "name" : "android::internal::details::HasToStringMethod<std::vector<aidl::android::hardware::radio::modem::ActivityStatsTechSpecificInfo, std::allocator<aidl::android::hardware::radio::modem::ActivityStatsTechSpecificInfo>>>::(unnamed enum at frameworks/native/libs/binder/ndk/include_cpp/android/binder_to_string.h:77:5)",
   "referenced_type" : "_ZTIN7android8internal7details17HasToStringMethodINSt3__16vectorIN4aidl7android8hardware5radio5modem29ActivityStatsTechSpecificInfoENS3_9allocatorISA_EEEEE6$valueE",
   "self_type" : "_ZTIN7android8internal7details17HasToStringMethodINSt3__16vectorIN4aidl7android8hardware5radio5modem29ActivityStatsTechSpecificInfoENS3_9allocatorISA_EEEEE6$valueE",
   "size" : 4,
   "source_file" : "frameworks/native/libs/binder/ndk/include_cpp/android/binder_to_string.h",
   "underlying_type" : "_ZTIj"
  },
  {
   "alignment" : 4,
   "enum_fields" :
   [
    {
     "enum_field_value" : 0,
     "name" : "android::internal::details::HasToStringMethod<std::vector<int>>::value"
    }
   ],
   "linker_set_key" : "_ZTIN7android8internal7details17HasToStringMethodINSt3__16vectorIiNS3_9allocatorIiEEEEE6$valueE",
   "name" : "android::internal::details::HasToStringMethod<std::vector<int, std::allocator<int>>>::(unnamed enum at frameworks/native/libs/binder/ndk/include_cpp/android/binder_to_string.h:77:5)",
   "referenced_type" : "_ZTIN7android8internal7details17HasToStringMethodINSt3__16vectorIiNS3_9allocatorIiEEEEE6$valueE",
   "self_type" : "_ZTIN7android8internal7details17HasToStringMethodINSt3__16vectorIiNS3_9allocatorIiEEEEE6$valueE",
   "size" : 4,
   "source_file" : "frameworks/native/libs/binder/ndk/include_cpp/android/binder_to_string.h",
   "underlying_type" : "_ZTIj"
  },
  {
   "alignment" : 4,
   "enum_fields" :
   [
    {
     "enum_field_value" : 1,
     "name" : "android::internal::details::HasToStringFunction<aidl::android::hardware::radio::RadioError>::value"
    }
   ],
   "linker_set_key" : "_ZTIN7android8internal7details19HasToStringFunctionIN4aidl7android8hardware5radio10RadioErrorEE6$valueE",
   "name" : "android::internal::details::HasToStringFunction<aidl::android::hardware::radio::RadioError>::(unnamed enum at frameworks/native/libs/binder/ndk/include_cpp/android/binder_to_string.h:89:5)",
   "referenced_type" : "_ZTIN7android8internal7details19HasToStringFunctionIN4aidl7android8hardware5radio10RadioErrorEE6$valueE",
   "self_type" : "_ZTIN7android8internal7details19HasToStringFunctionIN4aidl7android8hardware5radio10RadioErrorEE6$valueE",
   "size" : 4,
   "source_file" : "frameworks/native/libs/binder/ndk/include_cpp/android/binder_to_string.h",
   "underlying_type" : "_ZTIj"
  },
  {
   "alignment" : 4,
   "enum_fields" :
   [
    {
     "enum_field_value" : 1,
     "name" : "android::internal::details::HasToStringFunction<aidl::android::hardware::radio::AccessNetwork>::value"
    }
   ],
   "linker_set_key" : "_ZTIN7android8internal7details19HasToStringFunctionIN4aidl7android8hardware5radio13AccessNetworkEE6$valueE",
   "name" : "android::internal::details::HasToStringFunction<aidl::android::hardware::radio::AccessNetwork>::(unnamed enum at frameworks/native/libs/binder/ndk/include_cpp/android/binder_to_string.h:89:5)",
   "referenced_type" : "_ZTIN7android8internal7details19HasToStringFunctionIN4aidl7android8hardware5radio13AccessNetworkEE6$valueE",
   "self_type" : "_ZTIN7android8internal7details19HasToStringFunctionIN4aidl7android8hardware5radio13AccessNetworkEE6$valueE",
   "size" : 4,
   "source_file" : "frameworks/native/libs/binder/ndk/include_cpp/android/binder_to_string.h",
   "underlying_type" : "_ZTIj"
  },
  {
   "alignment" : 4,
   "enum_fields" :
   [
    {
     "enum_field_value" : 1,
     "name" : "android::internal::details::HasToStringFunction<aidl::android::hardware::radio::RadioTechnology>::value"
    }
   ],
   "linker_set_key" : "_ZTIN7android8internal7details19HasToStringFunctionIN4aidl7android8hardware5radio15RadioTechnologyEE6$valueE",
   "name" : "android::internal::details::HasToStringFunction<aidl::android::hardware::radio::RadioTechnology>::(unnamed enum at frameworks/native/libs/binder/ndk/include_cpp/android/binder_to_string.h:89:5)",
   "referenced_type" : "_ZTIN7android8internal7details19HasToStringFunctionIN4aidl7android8hardware5radio15RadioTechnologyEE6$valueE",
   "self_type" : "_ZTIN7android8internal7details19HasToStringFunctionIN4aidl7android8hardware5radio15RadioTechnologyEE6$valueE",
   "size" : 4,
   "source_file" : "frameworks/native/libs/binder/ndk/include_cpp/android/binder_to_string.h",
   "underlying_type" : "_ZTIj"
  },
  {
   "alignment" : 4,
   "enum_fields" :
   [
    {
     "enum_field_value" : 1,
     "name" : "android::internal::details::HasToStringFunction<aidl::android::hardware::radio::RadioResponseType>::value"
    }
   ],
   "linker_set_key" : "_ZTIN7android8internal7details19HasToStringFunctionIN4aidl7android8hardware5radio17RadioResponseTypeEE6$valueE",
   "name" : "android::internal::details::HasToStringFunction<aidl::android::hardware::radio::RadioResponseType>::(unnamed enum at frameworks/native/libs/binder/ndk/include_cpp/android/binder_to_string.h:89:5)",
   "referenced_type" : "_ZTIN7android8internal7details19HasToStringFunctionIN4aidl7android8hardware5radio17RadioResponseTypeEE6$valueE",
   "self_type" : "_ZTIN7android8internal7details19HasToStringFunctionIN4aidl7android8hardware5radio17RadioResponseTypeEE6$valueE",
   "size" : 4,
   "source_file" : "frameworks/native/libs/binder/ndk/include_cpp/android/binder_to_string.h",
   "underlying_type" : "_ZTIj"
  },
  {
   "alignment" : 4,
   "enum_fields" :
   [
    {
     "enum_field_value" : 1,
     "name" : "android::internal::details::HasToStringFunction<aidl::android::hardware::radio::modem::NvItem>::value"
    }
   ],
   "linker_set_key" : "_ZTIN7android8internal7details19HasToStringFunctionIN4aidl7android8hardware5radio5modem6NvItemEE6$valueE",
   "name" : "android::internal::details::HasToStringFunction<aidl::android::hardware::radio::modem::NvItem>::(unnamed enum at frameworks/native/libs/binder/ndk/include_cpp/android/binder_to_string.h:89:5)",
   "referenced_type" : "_ZTIN7android8internal7details19HasToStringFunctionIN4aidl7android8hardware5radio5modem6NvItemEE6$valueE",
   "self_type" : "_ZTIN7android8internal7details19HasToStringFunctionIN4aidl7android8hardware5radio5modem6NvItemEE6$valueE",
   "size" : 4,
   "source_file" : "frameworks/native/libs/binder/ndk/include_cpp/android/binder_to_string.h",
   "underlying_type" : "_ZTIj"
  },
  {
   "alignment" : 4,
   "enum_fields" :
   [
    {
     "enum_field_value" : 0,
     "name" : "android::internal::details::HasToStringFunction<std::vector<aidl::android::hardware::radio::modem::HardwareConfigSim>>::value"
    }
   ],
   "linker_set_key" : "_ZTIN7android8internal7details19HasToStringFunctionINSt3__16vectorIN4aidl7android8hardware5radio5modem17HardwareConfigSimENS3_9allocatorISA_EEEEE6$valueE",
   "name" : "android::internal::details::HasToStringFunction<std::vector<aidl::android::hardware::radio::modem::HardwareConfigSim, std::allocator<aidl::android::hardware::radio::modem::HardwareConfigSim>>>::(unnamed enum at frameworks/native/libs/binder/ndk/include_cpp/android/binder_to_string.h:89:5)",
   "referenced_type" : "_ZTIN7android8internal7details19HasToStringFunctionINSt3__16vectorIN4aidl7android8hardware5radio5modem17HardwareConfigSimENS3_9allocatorISA_EEEEE6$valueE",
   "self_type" : "_ZTIN7android8internal7details19HasToStringFunctionINSt3__16vectorIN4aidl7android8hardware5radio5modem17HardwareConfigSimENS3_9allocatorISA_EEEEE6$valueE",
   "size" : 4,
   "source_file" : "frameworks/native/libs/binder/ndk/include_cpp/android/binder_to_string.h",
   "underlying_type" : "_ZTIj"
  },
  {
   "alignment" : 4,
   "enum_fields" :
   [
    {
     "enum_field_value" : 0,
     "name" : "android::internal::details::HasToStringFunction<std::vector<aidl::android::hardware::radio::modem::HardwareConfigModem>>::value"
    }
   ],
   "linker_set_key" : "_ZTIN7android8internal7details19HasToStringFunctionINSt3__16vectorIN4aidl7android8hardware5radio5modem19HardwareConfigModemENS3_9allocatorISA_EEEEE6$valueE",
   "name" : "android::internal::details::HasToStringFunction<std::vector<aidl::android::hardware::radio::modem::HardwareConfigModem, std::allocator<aidl::android::hardware::radio::modem::HardwareConfigModem>>>::(unnamed enum at frameworks/native/libs/binder/ndk/include_cpp/android/binder_to_string.h:89:5)",
   "referenced_type" : "_ZTIN7android8internal7details19HasToStringFunctionINSt3__16vectorIN4aidl7android8hardware5radio5modem19HardwareConfigModemENS3_9allocatorISA_EEEEE6$valueE",
   "self_type" : "_ZTIN7android8internal7details19HasToStringFunctionINSt3__16vectorIN4aidl7android8hardware5radio5modem19HardwareConfigModemENS3_9allocatorISA_EEEEE6$valueE",
   "size" : 4,
   "source_file" : "frameworks/native/libs/binder/ndk/include_cpp/android/binder_to_string.h",
   "underlying_type" : "_ZTIj"
  },
  {
   "alignment" : 4,
   "enum_fields" :
   [
    {
     "enum_field_value" : 0,
     "name" : "android::internal::details::HasToStringFunction<std::vector<aidl::android::hardware::radio::modem::ActivityStatsTechSpecificInfo>>::value"
    }
   ],
   "linker_set_key" : "_ZTIN7android8internal7details19HasToStringFunctionINSt3__16vectorIN4aidl7android8hardware5radio5modem29ActivityStatsTechSpecificInfoENS3_9allocatorISA_EEEEE6$valueE",
   "name" : "android::internal::details::HasToStringFunction<std::vector<aidl::android::hardware::radio::modem::ActivityStatsTechSpecificInfo, std::allocator<aidl::android::hardware::radio::modem::ActivityStatsTechSpecificInfo>>>::(unnamed enum at frameworks/native/libs/binder/ndk/include_cpp/android/binder_to_string.h:89:5)",
   "referenced_type" : "_ZTIN7android8internal7details19HasToStringFunctionINSt3__16vectorIN4aidl7android8hardware5radio5modem29ActivityStatsTechSpecificInfoENS3_9allocatorISA_EEEEE6$valueE",
   "self_type" : "_ZTIN7android8internal7details19HasToStringFunctionINSt3__16vectorIN4aidl7android8hardware5radio5modem29ActivityStatsTechSpecificInfoENS3_9allocatorISA_EEEEE6$valueE",
   "size" : 4,
   "source_file" : "frameworks/native/libs/binder/ndk/include_cpp/android/binder_to_string.h",
   "underlying_type" : "_ZTIj"
  },
  {
   "alignment" : 4,
   "enum_fields" :
   [
    {
     "enum_field_value" : 0,
     "name" : "android::internal::details::HasToStringFunction<std::vector<int>>::value"
    }
   ],
   "linker_set_key" : "_ZTIN7android8internal7details19HasToStringFunctionINSt3__16vectorIiNS3_9allocatorIiEEEEE6$valueE",
   "name" : "android::internal::details::HasToStringFunction<std::vector<int, std::allocator<int>>>::(unnamed enum at frameworks/native/libs/binder/ndk/include_cpp/android/binder_to_string.h:89:5)",
   "referenced_type" : "_ZTIN7android8internal7details19HasToStringFunctionINSt3__16vectorIiNS3_9allocatorIiEEEEE6$valueE",
   "self_type" : "_ZTIN7android8internal7details19HasToStringFunctionINSt3__16vectorIiNS3_9allocatorIiEEEEE6$valueE",
   "size" : 4,
   "source_file" : "frameworks/native/libs/binder/ndk/include_cpp/android/binder_to_string.h",
   "underlying_type" : "_ZTIj"
  }
 ],
 "function_types" :
 [
  {
   "alignment" : 4,
   "linker_set_key" : "_ZTIFiP8AIBinderjPK7AParcelPS1_E",
   "name" : "int (AIBinder *, unsigned int, const AParcel *, AParcel *)",
   "parameters" :
   [
    {
     "referenced_type" : "_ZTIP8AIBinder"
    },
    {
     "referenced_type" : "_ZTIj"
    },
    {
     "referenced_type" : "_ZTIPK7AParcel"
    },
    {
     "referenced_type" : "_ZTIP7AParcel"
    }
   ],
   "referenced_type" : "_ZTIFiP8AIBinderjPK7AParcelPS1_E",
   "return_type" : "_ZTIi",
   "self_type" : "_ZTIFiP8AIBinderjPK7AParcelPS1_E",
   "source_file" : "frameworks/native/libs/binder/ndk/include_cpp/android/binder_interface_utils.h"
  }
 ],
 "functions" :
 [
  {
   "function_name" : "ndk::BnCInterface<aidl::android::hardware::radio::modem::IRadioModem>::asBinder",
   "linker_set_key" : "_ZN3ndk12BnCInterfaceIN4aidl7android8hardware5radio5modem11IRadioModemEE8asBinderEv",
   "parameters" :
   [
    {
     "is_this_ptr" : true,
     "referenced_type" : "_ZTIPN3ndk12BnCInterfaceIN4aidl7android8hardware5radio5modem11IRadioModemEEE"
    }
   ],
   "return_type" : "_ZTIN3ndk10SpAIBinderE",
   "source_file" : "frameworks/native/libs/binder/ndk/include_cpp/android/binder_interface_utils.h"
  },
  {
   "function_name" : "ndk::BnCInterface<aidl::android::hardware::radio::modem::IRadioModemResponse>::asBinder",
   "linker_set_key" : "_ZN3ndk12BnCInterfaceIN4aidl7android8hardware5radio5modem19IRadioModemResponseEE8asBinderEv",
   "parameters" :
   [
    {
     "is_this_ptr" : true,
     "referenced_type" : "_ZTIPN3ndk12BnCInterfaceIN4aidl7android8hardware5radio5modem19IRadioModemResponseEEE"
    }
   ],
   "return_type" : "_ZTIN3ndk10SpAIBinderE",
   "source_file" : "frameworks/native/libs/binder/ndk/include_cpp/android/binder_interface_utils.h"
  },
  {
   "function_name" : "ndk::BnCInterface<aidl::android::hardware::radio::modem::IRadioModemIndication>::asBinder",
   "linker_set_key" : "_ZN3ndk12BnCInterfaceIN4aidl7android8hardware5radio5modem21IRadioModemIndicationEE8asBinderEv",
   "parameters" :
   [
    {
     "is_this_ptr" : true,
     "referenced_type" : "_ZTIPN3ndk12BnCInterfaceIN4aidl7android8hardware5radio5modem21IRadioModemIndicationEEE"
    }
   ],
   "return_type" : "_ZTIN3ndk10SpAIBinderE",
   "source_file" : "frameworks/native/libs/binder/ndk/include_cpp/android/binder_interface_utils.h"
  },
  {
   "function_name" : "ndk::BpCInterface<aidl::android::hardware::radio::modem::IRadioModem>::asBinder",
   "linker_set_key" : "_ZN3ndk12BpCInterfaceIN4aidl7android8hardware5radio5modem11IRadioModemEE8asBinderEv",
   "parameters" :
   [
    {
     "is_this_ptr" : true,
     "referenced_type" : "_ZTIPN3ndk12BpCInterfaceIN4aidl7android8hardware5radio5modem11IRadioModemEEE"
    }
   ],
   "return_type" : "_ZTIN3ndk10SpAIBinderE",
   "source_file" : "frameworks/native/libs/binder/ndk/include_cpp/android/binder_interface_utils.h"
  },
  {
   "function_name" : "ndk::BpCInterface<aidl::android::hardware::radio::modem::IRadioModemResponse>::asBinder",
   "linker_set_key" : "_ZN3ndk12BpCInterfaceIN4aidl7android8hardware5radio5modem19IRadioModemResponseEE8asBinderEv",
   "parameters" :
   [
    {
     "is_this_ptr" : true,
     "referenced_type" : "_ZTIPN3ndk12BpCInterfaceIN4aidl7android8hardware5radio5modem19IRadioModemResponseEEE"
    }
   ],
   "return_type" : "_ZTIN3ndk10SpAIBinderE",
   "source_file" : "frameworks/native/libs/binder/ndk/include_cpp/android/binder_interface_utils.h"
  },
  {
   "function_name" : "ndk::BpCInterface<aidl::android::hardware::radio::modem::IRadioModemIndication>::asBinder",
   "linker_set_key" : "_ZN3ndk12BpCInterfaceIN4aidl7android8hardware5radio5modem21IRadioModemIndicationEE8asBinderEv",
   "parameters" :
   [
    {
     "is_this_ptr" : true,
     "referenced_type" : "_ZTIPN3ndk12BpCInterfaceIN4aidl7android8hardware5radio5modem21IRadioModemIndicationEEE"
    }
   ],
   "return_type" : "_ZTIN3ndk10SpAIBinderE",
   "source_file" : "frameworks/native/libs/binder/ndk/include_cpp/android/binder_interface_utils.h"
  },
  {
   "function_name" : "ndk::AParcel_readStdVectorParcelableElement",
   "linker_set_key" : "_ZN3ndk38AParcel_readStdVectorParcelableElementIN4aidl7android8hardware5radio5modem14HardwareConfigEEEiPK7AParcelPvj",
   "parameters" :
   [
    {
     "referenced_type" : "_ZTIPK7AParcel"
    },
    {
     "referenced_type" : "_ZTIPv"
    },
    {
     "referenced_type" : "_ZTIj"
    }
   ],
   "return_type" : "_ZTIi",
   "source_file" : "frameworks/native/libs/binder/ndk/include_cpp/android/binder_parcel_utils.h",
   "template_args" :
   [
    "_ZTIN4aidl7android8hardware5radio5modem14HardwareConfigE"
   ]
  },
  {
   "function_name" : "ndk::AParcel_readStdVectorParcelableElement",
   "linker_set_key" : "_ZN3ndk38AParcel_readStdVectorParcelableElementIN4aidl7android8hardware5radio5modem17HardwareConfigSimEEEiPK7AParcelPvj",
   "parameters" :
   [
    {
     "referenced_type" : "_ZTIPK7AParcel"
    },
    {
     "referenced_type" : "_ZTIPv"
    },
    {
     "referenced_type" : "_ZTIj"
    }
   ],
   "return_type" : "_ZTIi",
   "source_file" : "frameworks/native/libs/binder/ndk/include_cpp/android/binder_parcel_utils.h",
   "template_args" :
   [
    "_ZTIN4aidl7android8hardware5radio5modem17HardwareConfigSimE"
   ]
  },
  {
   "function_name" : "ndk::AParcel_readStdVectorParcelableElement",
   "linker_set_key" : "_ZN3ndk38AParcel_readStdVectorParcelableElementIN4aidl7android8hardware5radio5modem19HardwareConfigModemEEEiPK7AParcelPvj",
   "parameters" :
   [
    {
     "referenced_type" : "_ZTIPK7AParcel"
    },
    {
     "referenced_type" : "_ZTIPv"
    },
    {
     "referenced_type" : "_ZTIj"
    }
   ],
   "return_type" : "_ZTIi",
   "source_file" : "frameworks/native/libs/binder/ndk/include_cpp/android/binder_parcel_utils.h",
   "template_args" :
   [
    "_ZTIN4aidl7android8hardware5radio5modem19HardwareConfigModemE"
   ]
  },
  {
   "function_name" : "ndk::AParcel_readStdVectorParcelableElement",
   "linker_set_key" : "_ZN3ndk38AParcel_readStdVectorParcelableElementIN4aidl7android8hardware5radio5modem29ActivityStatsTechSpecificInfoEEEiPK7AParcelPvj",
   "parameters" :
   [
    {
     "referenced_type" : "_ZTIPK7AParcel"
    },
    {
     "referenced_type" : "_ZTIPv"
    },
    {
     "referenced_type" : "_ZTIj"
    }
   ],
   "return_type" : "_ZTIi",
   "source_file" : "frameworks/native/libs/binder/ndk/include_cpp/android/binder_parcel_utils.h",
   "template_args" :
   [
    "_ZTIN4aidl7android8hardware5radio5modem29ActivityStatsTechSpecificInfoE"
   ]
  },
  {
   "function_name" : "ndk::AParcel_writeStdVectorParcelableElement",
   "linker_set_key" : "_ZN3ndk39AParcel_writeStdVectorParcelableElementIN4aidl7android8hardware5radio5modem14HardwareConfigEEEiP7AParcelPKvj",
   "parameters" :
   [
    {
     "referenced_type" : "_ZTIP7AParcel"
    },
    {
     "referenced_type" : "_ZTIPKv"
    },
    {
     "referenced_type" : "_ZTIj"
    }
   ],
   "return_type" : "_ZTIi",
   "source_file" : "frameworks/native/libs/binder/ndk/include_cpp/android/binder_parcel_utils.h",
   "template_args" :
   [
    "_ZTIN4aidl7android8hardware5radio5modem14HardwareConfigE"
   ]
  },
  {
   "function_name" : "ndk::AParcel_writeStdVectorParcelableElement",
   "linker_set_key" : "_ZN3ndk39AParcel_writeStdVectorParcelableElementIN4aidl7android8hardware5radio5modem17HardwareConfigSimEEEiP7AParcelPKvj",
   "parameters" :
   [
    {
     "referenced_type" : "_ZTIP7AParcel"
    },
    {
     "referenced_type" : "_ZTIPKv"
    },
    {
     "referenced_type" : "_ZTIj"
    }
   ],
   "return_type" : "_ZTIi",
   "source_file" : "frameworks/native/libs/binder/ndk/include_cpp/android/binder_parcel_utils.h",
   "template_args" :
   [
    "_ZTIN4aidl7android8hardware5radio5modem17HardwareConfigSimE"
   ]
  },
  {
   "function_name" : "ndk::AParcel_writeStdVectorParcelableElement",
   "linker_set_key" : "_ZN3ndk39AParcel_writeStdVectorParcelableElementIN4aidl7android8hardware5radio5modem19HardwareConfigModemEEEiP7AParcelPKvj",
   "parameters" :
   [
    {
     "referenced_type" : "_ZTIP7AParcel"
    },
    {
     "referenced_type" : "_ZTIPKv"
    },
    {
     "referenced_type" : "_ZTIj"
    }
   ],
   "return_type" : "_ZTIi",
   "source_file" : "frameworks/native/libs/binder/ndk/include_cpp/android/binder_parcel_utils.h",
   "template_args" :
   [
    "_ZTIN4aidl7android8hardware5radio5modem19HardwareConfigModemE"
   ]
  },
  {
   "function_name" : "ndk::AParcel_writeStdVectorParcelableElement",
   "linker_set_key" : "_ZN3ndk39AParcel_writeStdVectorParcelableElementIN4aidl7android8hardware5radio5modem29ActivityStatsTechSpecificInfoEEEiP7AParcelPKvj",
   "parameters" :
   [
    {
     "referenced_type" : "_ZTIP7AParcel"
    },
    {
     "referenced_type" : "_ZTIPKv"
    },
    {
     "referenced_type" : "_ZTIj"
    }
   ],
   "return_type" : "_ZTIi",
   "source_file" : "frameworks/native/libs/binder/ndk/include_cpp/android/binder_parcel_utils.h",
   "template_args" :
   [
    "_ZTIN4aidl7android8hardware5radio5modem29ActivityStatsTechSpecificInfoE"
   ]
  },
  {
   "function_name" : "aidl::android::hardware::radio::modem::IRadioModem::fromBinder",
   "linker_set_key" : "_ZN4aidl7android8hardware5radio5modem11IRadioModem10fromBinderERKN3ndk10SpAIBinderE",
   "parameters" :
   [
    {
     "referenced_type" : "_ZTIRKN3ndk10SpAIBinderE"
    }
   ],
   "return_type" : "_ZTINSt3__110shared_ptrIN4aidl7android8hardware5radio5modem11IRadioModemEEE",
   "source_file" : "out/soong/.intermediates/hardware/interfaces/radio/aidl/android.hardware.radio.modem-V1-ndk-source/gen/include/aidl/android/hardware/radio/modem/IRadioModem.h"
  },
  {
   "function_name" : "aidl::android::hardware::radio::modem::IRadioModem::writeToParcel",
   "linker_set_key" : "_ZN4aidl7android8hardware5radio5modem11IRadioModem13writeToParcelEP7AParcelRKNSt3__110shared_ptrIS4_EE",
   "parameters" :
   [
    {
     "referenced_type" : "_ZTIP7AParcel"
    },
    {
     "referenced_type" : "_ZTIRKNSt3__110shared_ptrIN4aidl7android8hardware5radio5modem11IRadioModemEEE"
    }
   ],
   "return_type" : "_ZTIi",
   "source_file" : "out/soong/.intermediates/hardware/interfaces/radio/aidl/android.hardware.radio.modem-V1-ndk-source/gen/include/aidl/android/hardware/radio/modem/IRadioModem.h"
  },
  {
   "function_name" : "aidl::android::hardware::radio::modem::IRadioModem::getDefaultImpl",
   "linker_set_key" : "_ZN4aidl7android8hardware5radio5modem11IRadioModem14getDefaultImplEv",
   "return_type" : "_ZTIRKNSt3__110shared_ptrIN4aidl7android8hardware5radio5modem11IRadioModemEEE",
   "source_file" : "out/soong/.intermediates/hardware/interfaces/radio/aidl/android.hardware.radio.modem-V1-ndk-source/gen/include/aidl/android/hardware/radio/modem/IRadioModem.h"
  },
  {
   "function_name" : "aidl::android::hardware::radio::modem::IRadioModem::readFromParcel",
   "linker_set_key" : "_ZN4aidl7android8hardware5radio5modem11IRadioModem14readFromParcelEPK7AParcelPNSt3__110shared_ptrIS4_EE",
   "parameters" :
   [
    {
     "referenced_type" : "_ZTIPK7AParcel"
    },
    {
     "referenced_type" : "_ZTIPNSt3__110shared_ptrIN4aidl7android8hardware5radio5modem11IRadioModemEEE"
    }
   ],
   "return_type" : "_ZTIi",
   "source_file" : "out/soong/.intermediates/hardware/interfaces/radio/aidl/android.hardware.radio.modem-V1-ndk-source/gen/include/aidl/android/hardware/radio/modem/IRadioModem.h"
  },
  {
   "function_name" : "aidl::android::hardware::radio::modem::IRadioModem::setDefaultImpl",
   "linker_set_key" : "_ZN4aidl7android8hardware5radio5modem11IRadioModem14setDefaultImplERKNSt3__110shared_ptrIS4_EE",
   "parameters" :
   [
    {
     "referenced_type" : "_ZTIRKNSt3__110shared_ptrIN4aidl7android8hardware5radio5modem11IRadioModemEEE"
    }
   ],
   "return_type" : "_ZTIb",
   "source_file" : "out/soong/.intermediates/hardware/interfaces/radio/aidl/android.hardware.radio.modem-V1-ndk-source/gen/include/aidl/android/hardware/radio/modem/IRadioModem.h"
  },
  {
   "function_name" : "aidl::android::hardware::radio::modem::IRadioModem::IRadioModem",
   "linker_set_key" : "_ZN4aidl7android8hardware5radio5modem11IRadioModemC2Ev",
   "parameters" :
   [
    {
     "is_this_ptr" : true,
     "referenced_type" : "_ZTIPN4aidl7android8hardware5radio5modem11IRadioModemE"
    }
   ],
   "return_type" : "_ZTIv",
   "source_file" : "out/soong/.intermediates/hardware/interfaces/radio/aidl/android.hardware.radio.modem-V1-ndk-source/gen/include/aidl/android/hardware/radio/modem/IRadioModem.h"
  },
  {
   "function_name" : "aidl::android::hardware::radio::modem::IRadioModem::~IRadioModem",
   "linker_set_key" : "_ZN4aidl7android8hardware5radio5modem11IRadioModemD0Ev",
   "parameters" :
   [
    {
     "is_this_ptr" : true,
     "referenced_type" : "_ZTIPN4aidl7android8hardware5radio5modem11IRadioModemE"
    }
   ],
   "return_type" : "_ZTIv",
   "source_file" : "out/soong/.intermediates/hardware/interfaces/radio/aidl/android.hardware.radio.modem-V1-ndk-source/gen/include/aidl/android/hardware/radio/modem/IRadioModem.h"
  },
  {
   "function_name" : "aidl::android::hardware::radio::modem::IRadioModem::~IRadioModem",
   "linker_set_key" : "_ZN4aidl7android8hardware5radio5modem11IRadioModemD1Ev",
   "parameters" :
   [
    {
     "is_this_ptr" : true,
     "referenced_type" : "_ZTIPN4aidl7android8hardware5radio5modem11IRadioModemE"
    }
   ],
   "return_type" : "_ZTIv",
   "source_file" : "out/soong/.intermediates/hardware/interfaces/radio/aidl/android.hardware.radio.modem-V1-ndk-source/gen/include/aidl/android/hardware/radio/modem/IRadioModem.h"
  },
  {
   "function_name" : "aidl::android::hardware::radio::modem::IRadioModem::~IRadioModem",
   "linker_set_key" : "_ZN4aidl7android8hardware5radio5modem11IRadioModemD2Ev",
   "parameters" :
   [
    {
     "is_this_ptr" : true,
     "referenced_type" : "_ZTIPN4aidl7android8hardware5radio5modem11IRadioModemE"
    }
   ],
   "return_type" : "_ZTIv",
   "source_file" : "out/soong/.intermediates/hardware/interfaces/radio/aidl/android.hardware.radio.modem-V1-ndk-source/gen/include/aidl/android/hardware/radio/modem/IRadioModem.h"
  },
  {
   "function_name" : "aidl::android::hardware::radio::modem::NvWriteItem::readFromParcel",
   "linker_set_key" : "_ZN4aidl7android8hardware5radio5modem11NvWriteItem14readFromParcelEPK7AParcel",
   "parameters" :
   [
    {
     "is_this_ptr" : true,
     "referenced_type" : "_ZTIPN4aidl7android8hardware5radio5modem11NvWriteItemE"
    },
    {
     "referenced_type" : "_ZTIPK7AParcel"
    }
   ],
   "return_type" : "_ZTIi",
   "source_file" : "out/soong/.intermediates/hardware/interfaces/radio/aidl/android.hardware.radio.modem-V1-ndk-source/gen/include/aidl/android/hardware/radio/modem/NvWriteItem.h"
  },
  {
   "access" : "protected",
   "function_name" : "aidl::android::hardware::radio::modem::BnRadioModem::createBinder",
   "linker_set_key" : "_ZN4aidl7android8hardware5radio5modem12BnRadioModem12createBinderEv",
   "parameters" :
   [
    {
     "is_this_ptr" : true,
     "referenced_type" : "_ZTIPN4aidl7android8hardware5radio5modem12BnRadioModemE"
    }
   ],
   "return_type" : "_ZTIN3ndk10SpAIBinderE",
   "source_file" : "out/soong/.intermediates/hardware/interfaces/radio/aidl/android.hardware.radio.modem-V1-ndk-source/gen/include/aidl/android/hardware/radio/modem/BnRadioModem.h"
  },
  {
   "function_name" : "aidl::android::hardware::radio::modem::BnRadioModem::getInterfaceHash",
   "linker_set_key" : "_ZN4aidl7android8hardware5radio5modem12BnRadioModem16getInterfaceHashEPNSt3__112basic_stringIcNS5_11char_traitsIcEENS5_9allocatorIcEEEE",
   "parameters" :
   [
    {
     "is_this_ptr" : true,
     "referenced_type" : "_ZTIPN4aidl7android8hardware5radio5modem12BnRadioModemE"
    },
    {
     "referenced_type" : "_ZTIPNSt3__112basic_stringIcNS_11char_traitsIcEENS_9allocatorIcEEEE"
    }
   ],
   "return_type" : "_ZTIN3ndk13ScopedAStatusE",
   "source_file" : "out/soong/.intermediates/hardware/interfaces/radio/aidl/android.hardware.radio.modem-V1-ndk-source/gen/include/aidl/android/hardware/radio/modem/BnRadioModem.h"
  },
  {
   "function_name" : "aidl::android::hardware::radio::modem::BnRadioModem::getInterfaceVersion",
   "linker_set_key" : "_ZN4aidl7android8hardware5radio5modem12BnRadioModem19getInterfaceVersionEPi",
   "parameters" :
   [
    {
     "is_this_ptr" : true,
     "referenced_type" : "_ZTIPN4aidl7android8hardware5radio5modem12BnRadioModemE"
    },
    {
     "referenced_type" : "_ZTIPi"
    }
   ],
   "return_type" : "_ZTIN3ndk13ScopedAStatusE",
   "source_file" : "out/soong/.intermediates/hardware/interfaces/radio/aidl/android.hardware.radio.modem-V1-ndk-source/gen/include/aidl/android/hardware/radio/modem/BnRadioModem.h"
  },
  {
   "function_name" : "aidl::android::hardware::radio::modem::BnRadioModem::BnRadioModem",
   "linker_set_key" : "_ZN4aidl7android8hardware5radio5modem12BnRadioModemC2Ev",
   "parameters" :
   [
    {
     "is_this_ptr" : true,
     "referenced_type" : "_ZTIPN4aidl7android8hardware5radio5modem12BnRadioModemE"
    }
   ],
   "return_type" : "_ZTIv",
   "source_file" : "out/soong/.intermediates/hardware/interfaces/radio/aidl/android.hardware.radio.modem-V1-ndk-source/gen/include/aidl/android/hardware/radio/modem/BnRadioModem.h"
  },
  {
   "function_name" : "aidl::android::hardware::radio::modem::BnRadioModem::~BnRadioModem",
   "linker_set_key" : "_ZN4aidl7android8hardware5radio5modem12BnRadioModemD0Ev",
   "parameters" :
   [
    {
     "is_this_ptr" : true,
     "referenced_type" : "_ZTIPN4aidl7android8hardware5radio5modem12BnRadioModemE"
    }
   ],
   "return_type" : "_ZTIv",
   "source_file" : "out/soong/.intermediates/hardware/interfaces/radio/aidl/android.hardware.radio.modem-V1-ndk-source/gen/include/aidl/android/hardware/radio/modem/BnRadioModem.h"
  },
  {
   "function_name" : "aidl::android::hardware::radio::modem::BnRadioModem::~BnRadioModem",
   "linker_set_key" : "_ZN4aidl7android8hardware5radio5modem12BnRadioModemD1Ev",
   "parameters" :
   [
    {
     "is_this_ptr" : true,
     "referenced_type" : "_ZTIPN4aidl7android8hardware5radio5modem12BnRadioModemE"
    }
   ],
   "return_type" : "_ZTIv",
   "source_file" : "out/soong/.intermediates/hardware/interfaces/radio/aidl/android.hardware.radio.modem-V1-ndk-source/gen/include/aidl/android/hardware/radio/modem/BnRadioModem.h"
  },
  {
   "function_name" : "aidl::android::hardware::radio::modem::BnRadioModem::~BnRadioModem",
   "linker_set_key" : "_ZN4aidl7android8hardware5radio5modem12BnRadioModemD2Ev",
   "parameters" :
   [
    {
     "is_this_ptr" : true,
     "referenced_type" : "_ZTIPN4aidl7android8hardware5radio5modem12BnRadioModemE"
    }
   ],
   "return_type" : "_ZTIv",
   "source_file" : "out/soong/.intermediates/hardware/interfaces/radio/aidl/android.hardware.radio.modem-V1-ndk-source/gen/include/aidl/android/hardware/radio/modem/BnRadioModem.h"
  },
  {
   "function_name" : "aidl::android::hardware::radio::modem::BpRadioModem::nvReadItem",
   "linker_set_key" : "_ZN4aidl7android8hardware5radio5modem12BpRadioModem10nvReadItemEiNS3_6NvItemE",
   "parameters" :
   [
    {
     "is_this_ptr" : true,
     "referenced_type" : "_ZTIPN4aidl7android8hardware5radio5modem12BpRadioModemE"
    },
    {
     "referenced_type" : "_ZTIi"
    },
    {
     "referenced_type" : "_ZTIN4aidl7android8hardware5radio5modem6NvItemE"
    }
   ],
   "return_type" : "_ZTIN3ndk13ScopedAStatusE",
   "source_file" : "out/soong/.intermediates/hardware/interfaces/radio/aidl/android.hardware.radio.modem-V1-ndk-source/gen/include/aidl/android/hardware/radio/modem/BpRadioModem.h"
  },
  {
   "function_name" : "aidl::android::hardware::radio::modem::BpRadioModem::enableModem",
   "linker_set_key" : "_ZN4aidl7android8hardware5radio5modem12BpRadioModem11enableModemEib",
   "parameters" :
   [
    {
     "is_this_ptr" : true,
     "referenced_type" : "_ZTIPN4aidl7android8hardware5radio5modem12BpRadioModemE"
    },
    {
     "referenced_type" : "_ZTIi"
    },
    {
     "referenced_type" : "_ZTIb"
    }
   ],
   "return_type" : "_ZTIN3ndk13ScopedAStatusE",
   "source_file" : "out/soong/.intermediates/hardware/interfaces/radio/aidl/android.hardware.radio.modem-V1-ndk-source/gen/include/aidl/android/hardware/radio/modem/BpRadioModem.h"
  },
  {
   "function_name" : "aidl::android::hardware::radio::modem::BpRadioModem::nvWriteItem",
   "linker_set_key" : "_ZN4aidl7android8hardware5radio5modem12BpRadioModem11nvWriteItemEiRKNS3_11NvWriteItemE",
   "parameters" :
   [
    {
     "is_this_ptr" : true,
     "referenced_type" : "_ZTIPN4aidl7android8hardware5radio5modem12BpRadioModemE"
    },
    {
     "referenced_type" : "_ZTIi"
    },
    {
     "referenced_type" : "_ZTIRKN4aidl7android8hardware5radio5modem11NvWriteItemE"
    }
   ],
   "return_type" : "_ZTIN3ndk13ScopedAStatusE",
   "source_file" : "out/soong/.intermediates/hardware/interfaces/radio/aidl/android.hardware.radio.modem-V1-ndk-source/gen/include/aidl/android/hardware/radio/modem/BpRadioModem.h"
  },
  {
   "function_name" : "aidl::android::hardware::radio::modem::BpRadioModem::nvResetConfig",
   "linker_set_key" : "_ZN4aidl7android8hardware5radio5modem12BpRadioModem13nvResetConfigEiNS3_11ResetNvTypeE",
   "parameters" :
   [
    {
     "is_this_ptr" : true,
     "referenced_type" : "_ZTIPN4aidl7android8hardware5radio5modem12BpRadioModemE"
    },
    {
     "referenced_type" : "_ZTIi"
    },
    {
     "referenced_type" : "_ZTIN4aidl7android8hardware5radio5modem11ResetNvTypeE"
    }
   ],
   "return_type" : "_ZTIN3ndk13ScopedAStatusE",
   "source_file" : "out/soong/.intermediates/hardware/interfaces/radio/aidl/android.hardware.radio.modem-V1-ndk-source/gen/include/aidl/android/hardware/radio/modem/BpRadioModem.h"
  },
  {
   "function_name" : "aidl::android::hardware::radio::modem::BpRadioModem::setRadioPower",
   "linker_set_key" : "_ZN4aidl7android8hardware5radio5modem12BpRadioModem13setRadioPowerEibbb",
   "parameters" :
   [
    {
     "is_this_ptr" : true,
     "referenced_type" : "_ZTIPN4aidl7android8hardware5radio5modem12BpRadioModemE"
    },
    {
     "referenced_type" : "_ZTIi"
    },
    {
     "referenced_type" : "_ZTIb"
    },
    {
     "referenced_type" : "_ZTIb"
    },
    {
     "referenced_type" : "_ZTIb"
    }
   ],
   "return_type" : "_ZTIN3ndk13ScopedAStatusE",
   "source_file" : "out/soong/.intermediates/hardware/interfaces/radio/aidl/android.hardware.radio.modem-V1-ndk-source/gen/include/aidl/android/hardware/radio/modem/BpRadioModem.h"
  },
  {
   "function_name" : "aidl::android::hardware::radio::modem::BpRadioModem::nvWriteCdmaPrl",
   "linker_set_key" : "_ZN4aidl7android8hardware5radio5modem12BpRadioModem14nvWriteCdmaPrlEiRKNSt3__16vectorIhNS5_9allocatorIhEEEE",
   "parameters" :
   [
    {
     "is_this_ptr" : true,
     "referenced_type" : "_ZTIPN4aidl7android8hardware5radio5modem12BpRadioModemE"
    },
    {
     "referenced_type" : "_ZTIi"
    },
    {
     "referenced_type" : "_ZTIRKNSt3__16vectorIhNS_9allocatorIhEEEE"
    }
   ],
   "return_type" : "_ZTIN3ndk13ScopedAStatusE",
   "source_file" : "out/soong/.intermediates/hardware/interfaces/radio/aidl/android.hardware.radio.modem-V1-ndk-source/gen/include/aidl/android/hardware/radio/modem/BpRadioModem.h"
  },
  {
   "function_name" : "aidl::android::hardware::radio::modem::BpRadioModem::requestShutdown",
   "linker_set_key" : "_ZN4aidl7android8hardware5radio5modem12BpRadioModem15requestShutdownEi",
   "parameters" :
   [
    {
     "is_this_ptr" : true,
     "referenced_type" : "_ZTIPN4aidl7android8hardware5radio5modem12BpRadioModemE"
    },
    {
     "referenced_type" : "_ZTIi"
    }
   ],
   "return_type" : "_ZTIN3ndk13ScopedAStatusE",
   "source_file" : "out/soong/.intermediates/hardware/interfaces/radio/aidl/android.hardware.radio.modem-V1-ndk-source/gen/include/aidl/android/hardware/radio/modem/BpRadioModem.h"
  },
  {
   "function_name" : "aidl::android::hardware::radio::modem::BpRadioModem::sendDeviceState",
   "linker_set_key" : "_ZN4aidl7android8hardware5radio5modem12BpRadioModem15sendDeviceStateEiNS3_15DeviceStateTypeEb",
   "parameters" :
   [
    {
     "is_this_ptr" : true,
     "referenced_type" : "_ZTIPN4aidl7android8hardware5radio5modem12BpRadioModemE"
    },
    {
     "referenced_type" : "_ZTIi"
    },
    {
     "referenced_type" : "_ZTIN4aidl7android8hardware5radio5modem15DeviceStateTypeE"
    },
    {
     "referenced_type" : "_ZTIb"
    }
   ],
   "return_type" : "_ZTIN3ndk13ScopedAStatusE",
   "source_file" : "out/soong/.intermediates/hardware/interfaces/radio/aidl/android.hardware.radio.modem-V1-ndk-source/gen/include/aidl/android/hardware/radio/modem/BpRadioModem.h"
  },
  {
   "function_name" : "aidl::android::hardware::radio::modem::BpRadioModem::getInterfaceHash",
   "linker_set_key" : "_ZN4aidl7android8hardware5radio5modem12BpRadioModem16getInterfaceHashEPNSt3__112basic_stringIcNS5_11char_traitsIcEENS5_9allocatorIcEEEE",
   "parameters" :
   [
    {
     "is_this_ptr" : true,
     "referenced_type" : "_ZTIPN4aidl7android8hardware5radio5modem12BpRadioModemE"
    },
    {
     "referenced_type" : "_ZTIPNSt3__112basic_stringIcNS_11char_traitsIcEENS_9allocatorIcEEEE"
    }
   ],
   "return_type" : "_ZTIN3ndk13ScopedAStatusE",
   "source_file" : "out/soong/.intermediates/hardware/interfaces/radio/aidl/android.hardware.radio.modem-V1-ndk-source/gen/include/aidl/android/hardware/radio/modem/BpRadioModem.h"
  },
  {
   "function_name" : "aidl::android::hardware::radio::modem::BpRadioModem::getDeviceIdentity",
   "linker_set_key" : "_ZN4aidl7android8hardware5radio5modem12BpRadioModem17getDeviceIdentityEi",
   "parameters" :
   [
    {
     "is_this_ptr" : true,
     "referenced_type" : "_ZTIPN4aidl7android8hardware5radio5modem12BpRadioModemE"
    },
    {
     "referenced_type" : "_ZTIi"
    }
   ],
   "return_type" : "_ZTIN3ndk13ScopedAStatusE",
   "source_file" : "out/soong/.intermediates/hardware/interfaces/radio/aidl/android.hardware.radio.modem-V1-ndk-source/gen/include/aidl/android/hardware/radio/modem/BpRadioModem.h"
  },
  {
   "function_name" : "aidl::android::hardware::radio::modem::BpRadioModem::getHardwareConfig",
   "linker_set_key" : "_ZN4aidl7android8hardware5radio5modem12BpRadioModem17getHardwareConfigEi",
   "parameters" :
   [
    {
     "is_this_ptr" : true,
     "referenced_type" : "_ZTIPN4aidl7android8hardware5radio5modem12BpRadioModemE"
    },
    {
     "referenced_type" : "_ZTIi"
    }
   ],
   "return_type" : "_ZTIN3ndk13ScopedAStatusE",
   "source_file" : "out/soong/.intermediates/hardware/interfaces/radio/aidl/android.hardware.radio.modem-V1-ndk-source/gen/include/aidl/android/hardware/radio/modem/BpRadioModem.h"
  },
  {
   "function_name" : "aidl::android::hardware::radio::modem::BpRadioModem::getBasebandVersion",
   "linker_set_key" : "_ZN4aidl7android8hardware5radio5modem12BpRadioModem18getBasebandVersionEi",
   "parameters" :
   [
    {
     "is_this_ptr" : true,
     "referenced_type" : "_ZTIPN4aidl7android8hardware5radio5modem12BpRadioModemE"
    },
    {
     "referenced_type" : "_ZTIi"
    }
   ],
   "return_type" : "_ZTIN3ndk13ScopedAStatusE",
   "source_file" : "out/soong/.intermediates/hardware/interfaces/radio/aidl/android.hardware.radio.modem-V1-ndk-source/gen/include/aidl/android/hardware/radio/modem/BpRadioModem.h"
  },
  {
   "function_name" : "aidl::android::hardware::radio::modem::BpRadioModem::getRadioCapability",
   "linker_set_key" : "_ZN4aidl7android8hardware5radio5modem12BpRadioModem18getRadioCapabilityEi",
   "parameters" :
   [
    {
     "is_this_ptr" : true,
     "referenced_type" : "_ZTIPN4aidl7android8hardware5radio5modem12BpRadioModemE"
    },
    {
     "referenced_type" : "_ZTIi"
    }
   ],
   "return_type" : "_ZTIN3ndk13ScopedAStatusE",
   "source_file" : "out/soong/.intermediates/hardware/interfaces/radio/aidl/android.hardware.radio.modem-V1-ndk-source/gen/include/aidl/android/hardware/radio/modem/BpRadioModem.h"
  },
  {
   "function_name" : "aidl::android::hardware::radio::modem::BpRadioModem::setRadioCapability",
   "linker_set_key" : "_ZN4aidl7android8hardware5radio5modem12BpRadioModem18setRadioCapabilityEiRKNS3_15RadioCapabilityE",
   "parameters" :
   [
    {
     "is_this_ptr" : true,
     "referenced_type" : "_ZTIPN4aidl7android8hardware5radio5modem12BpRadioModemE"
    },
    {
     "referenced_type" : "_ZTIi"
    },
    {
     "referenced_type" : "_ZTIRKN4aidl7android8hardware5radio5modem15RadioCapabilityE"
    }
   ],
   "return_type" : "_ZTIN3ndk13ScopedAStatusE",
   "source_file" : "out/soong/.intermediates/hardware/interfaces/radio/aidl/android.hardware.radio.modem-V1-ndk-source/gen/include/aidl/android/hardware/radio/modem/BpRadioModem.h"
  },
  {
   "function_name" : "aidl::android::hardware::radio::modem::BpRadioModem::getInterfaceVersion",
   "linker_set_key" : "_ZN4aidl7android8hardware5radio5modem12BpRadioModem19getInterfaceVersionEPi",
   "parameters" :
   [
    {
     "is_this_ptr" : true,
     "referenced_type" : "_ZTIPN4aidl7android8hardware5radio5modem12BpRadioModemE"
    },
    {
     "referenced_type" : "_ZTIPi"
    }
   ],
   "return_type" : "_ZTIN3ndk13ScopedAStatusE",
   "source_file" : "out/soong/.intermediates/hardware/interfaces/radio/aidl/android.hardware.radio.modem-V1-ndk-source/gen/include/aidl/android/hardware/radio/modem/BpRadioModem.h"
  },
  {
   "function_name" : "aidl::android::hardware::radio::modem::BpRadioModem::getModemStackStatus",
   "linker_set_key" : "_ZN4aidl7android8hardware5radio5modem12BpRadioModem19getModemStackStatusEi",
   "parameters" :
   [
    {
     "is_this_ptr" : true,
     "referenced_type" : "_ZTIPN4aidl7android8hardware5radio5modem12BpRadioModemE"
    },
    {
     "referenced_type" : "_ZTIi"
    }
   ],
   "return_type" : "_ZTIN3ndk13ScopedAStatusE",
   "source_file" : "out/soong/.intermediates/hardware/interfaces/radio/aidl/android.hardware.radio.modem-V1-ndk-source/gen/include/aidl/android/hardware/radio/modem/BpRadioModem.h"
  },
  {
   "function_name" : "aidl::android::hardware::radio::modem::BpRadioModem::getModemActivityInfo",
   "linker_set_key" : "_ZN4aidl7android8hardware5radio5modem12BpRadioModem20getModemActivityInfoEi",
   "parameters" :
   [
    {
     "is_this_ptr" : true,
     "referenced_type" : "_ZTIPN4aidl7android8hardware5radio5modem12BpRadioModemE"
    },
    {
     "referenced_type" : "_ZTIi"
    }
   ],
   "return_type" : "_ZTIN3ndk13ScopedAStatusE",
   "source_file" : "out/soong/.intermediates/hardware/interfaces/radio/aidl/android.hardware.radio.modem-V1-ndk-source/gen/include/aidl/android/hardware/radio/modem/BpRadioModem.h"
  },
  {
   "function_name" : "aidl::android::hardware::radio::modem::BpRadioModem::setResponseFunctions",
   "linker_set_key" : "_ZN4aidl7android8hardware5radio5modem12BpRadioModem20setResponseFunctionsERKNSt3__110shared_ptrINS3_19IRadioModemResponseEEERKNS6_INS3_21IRadioModemIndicationEEE",
   "parameters" :
   [
    {
     "is_this_ptr" : true,
     "referenced_type" : "_ZTIPN4aidl7android8hardware5radio5modem12BpRadioModemE"
    },
    {
     "referenced_type" : "_ZTIRKNSt3__110shared_ptrIN4aidl7android8hardware5radio5modem19IRadioModemResponseEEE"
    },
    {
     "referenced_type" : "_ZTIRKNSt3__110shared_ptrIN4aidl7android8hardware5radio5modem21IRadioModemIndicationEEE"
    }
   ],
   "return_type" : "_ZTIN3ndk13ScopedAStatusE",
   "source_file" : "out/soong/.intermediates/hardware/interfaces/radio/aidl/android.hardware.radio.modem-V1-ndk-source/gen/include/aidl/android/hardware/radio/modem/BpRadioModem.h"
  },
  {
   "function_name" : "aidl::android::hardware::radio::modem::BpRadioModem::responseAcknowledgement",
   "linker_set_key" : "_ZN4aidl7android8hardware5radio5modem12BpRadioModem23responseAcknowledgementEv",
   "parameters" :
   [
    {
     "is_this_ptr" : true,
     "referenced_type" : "_ZTIPN4aidl7android8hardware5radio5modem12BpRadioModemE"
    }
   ],
   "return_type" : "_ZTIN3ndk13ScopedAStatusE",
   "source_file" : "out/soong/.intermediates/hardware/interfaces/radio/aidl/android.hardware.radio.modem-V1-ndk-source/gen/include/aidl/android/hardware/radio/modem/BpRadioModem.h"
  },
  {
   "function_name" : "aidl::android::hardware::radio::modem::BpRadioModem::BpRadioModem",
   "linker_set_key" : "_ZN4aidl7android8hardware5radio5modem12BpRadioModemC1ERKN3ndk10SpAIBinderE",
   "parameters" :
   [
    {
     "is_this_ptr" : true,
     "referenced_type" : "_ZTIPN4aidl7android8hardware5radio5modem12BpRadioModemE"
    },
    {
     "referenced_type" : "_ZTIRKN3ndk10SpAIBinderE"
    }
   ],
   "return_type" : "_ZTIv",
   "source_file" : "out/soong/.intermediates/hardware/interfaces/radio/aidl/android.hardware.radio.modem-V1-ndk-source/gen/include/aidl/android/hardware/radio/modem/BpRadioModem.h"
  },
  {
   "function_name" : "aidl::android::hardware::radio::modem::BpRadioModem::BpRadioModem",
   "linker_set_key" : "_ZN4aidl7android8hardware5radio5modem12BpRadioModemC2ERKN3ndk10SpAIBinderE",
   "parameters" :
   [
    {
     "is_this_ptr" : true,
     "referenced_type" : "_ZTIPN4aidl7android8hardware5radio5modem12BpRadioModemE"
    },
    {
     "referenced_type" : "_ZTIRKN3ndk10SpAIBinderE"
    }
   ],
   "return_type" : "_ZTIv",
   "source_file" : "out/soong/.intermediates/hardware/interfaces/radio/aidl/android.hardware.radio.modem-V1-ndk-source/gen/include/aidl/android/hardware/radio/modem/BpRadioModem.h"
  },
  {
   "function_name" : "aidl::android::hardware::radio::modem::BpRadioModem::~BpRadioModem",
   "linker_set_key" : "_ZN4aidl7android8hardware5radio5modem12BpRadioModemD0Ev",
   "parameters" :
   [
    {
     "is_this_ptr" : true,
     "referenced_type" : "_ZTIPN4aidl7android8hardware5radio5modem12BpRadioModemE"
    }
   ],
   "return_type" : "_ZTIv",
   "source_file" : "out/soong/.intermediates/hardware/interfaces/radio/aidl/android.hardware.radio.modem-V1-ndk-source/gen/include/aidl/android/hardware/radio/modem/BpRadioModem.h"
  },
  {
   "function_name" : "aidl::android::hardware::radio::modem::BpRadioModem::~BpRadioModem",
   "linker_set_key" : "_ZN4aidl7android8hardware5radio5modem12BpRadioModemD1Ev",
   "parameters" :
   [
    {
     "is_this_ptr" : true,
     "referenced_type" : "_ZTIPN4aidl7android8hardware5radio5modem12BpRadioModemE"
    }
   ],
   "return_type" : "_ZTIv",
   "source_file" : "out/soong/.intermediates/hardware/interfaces/radio/aidl/android.hardware.radio.modem-V1-ndk-source/gen/include/aidl/android/hardware/radio/modem/BpRadioModem.h"
  },
  {
   "function_name" : "aidl::android::hardware::radio::modem::BpRadioModem::~BpRadioModem",
   "linker_set_key" : "_ZN4aidl7android8hardware5radio5modem12BpRadioModemD2Ev",
   "parameters" :
   [
    {
     "is_this_ptr" : true,
     "referenced_type" : "_ZTIPN4aidl7android8hardware5radio5modem12BpRadioModemE"
    }
   ],
   "return_type" : "_ZTIv",
   "source_file" : "out/soong/.intermediates/hardware/interfaces/radio/aidl/android.hardware.radio.modem-V1-ndk-source/gen/include/aidl/android/hardware/radio/modem/BpRadioModem.h"
  },
  {
   "function_name" : "aidl::android::hardware::radio::modem::HardwareConfig::readFromParcel",
   "linker_set_key" : "_ZN4aidl7android8hardware5radio5modem14HardwareConfig14readFromParcelEPK7AParcel",
   "parameters" :
   [
    {
     "is_this_ptr" : true,
     "referenced_type" : "_ZTIPN4aidl7android8hardware5radio5modem14HardwareConfigE"
    },
    {
     "referenced_type" : "_ZTIPK7AParcel"
    }
   ],
   "return_type" : "_ZTIi",
   "source_file" : "out/soong/.intermediates/hardware/interfaces/radio/aidl/android.hardware.radio.modem-V1-ndk-source/gen/include/aidl/android/hardware/radio/modem/HardwareConfig.h"
  },
  {
   "function_name" : "aidl::android::hardware::radio::modem::RadioCapability::readFromParcel",
   "linker_set_key" : "_ZN4aidl7android8hardware5radio5modem15RadioCapability14readFromParcelEPK7AParcel",
   "parameters" :
   [
    {
     "is_this_ptr" : true,
     "referenced_type" : "_ZTIPN4aidl7android8hardware5radio5modem15RadioCapabilityE"
    },
    {
     "referenced_type" : "_ZTIPK7AParcel"
    }
   ],
   "return_type" : "_ZTIi",
   "source_file" : "out/soong/.intermediates/hardware/interfaces/radio/aidl/android.hardware.radio.modem-V1-ndk-source/gen/include/aidl/android/hardware/radio/modem/RadioCapability.h"
  },
  {
   "function_name" : "aidl::android::hardware::radio::modem::ActivityStatsInfo::readFromParcel",
   "linker_set_key" : "_ZN4aidl7android8hardware5radio5modem17ActivityStatsInfo14readFromParcelEPK7AParcel",
   "parameters" :
   [
    {
     "is_this_ptr" : true,
     "referenced_type" : "_ZTIPN4aidl7android8hardware5radio5modem17ActivityStatsInfoE"
    },
    {
     "referenced_type" : "_ZTIPK7AParcel"
    }
   ],
   "return_type" : "_ZTIi",
   "source_file" : "out/soong/.intermediates/hardware/interfaces/radio/aidl/android.hardware.radio.modem-V1-ndk-source/gen/include/aidl/android/hardware/radio/modem/ActivityStatsInfo.h"
  },
  {
   "function_name" : "aidl::android::hardware::radio::modem::HardwareConfigSim::readFromParcel",
   "linker_set_key" : "_ZN4aidl7android8hardware5radio5modem17HardwareConfigSim14readFromParcelEPK7AParcel",
   "parameters" :
   [
    {
     "is_this_ptr" : true,
     "referenced_type" : "_ZTIPN4aidl7android8hardware5radio5modem17HardwareConfigSimE"
    },
    {
     "referenced_type" : "_ZTIPK7AParcel"
    }
   ],
   "return_type" : "_ZTIi",
   "source_file" : "out/soong/.intermediates/hardware/interfaces/radio/aidl/android.hardware.radio.modem-V1-ndk-source/gen/include/aidl/android/hardware/radio/modem/HardwareConfigSim.h"
  },
  {
   "function_name" : "aidl::android::hardware::radio::modem::IRadioModemDefault::nvReadItem",
   "linker_set_key" : "_ZN4aidl7android8hardware5radio5modem18IRadioModemDefault10nvReadItemEiNS3_6NvItemE",
   "parameters" :
   [
    {
     "is_this_ptr" : true,
     "referenced_type" : "_ZTIPN4aidl7android8hardware5radio5modem18IRadioModemDefaultE"
    },
    {
     "referenced_type" : "_ZTIi"
    },
    {
     "referenced_type" : "_ZTIN4aidl7android8hardware5radio5modem6NvItemE"
    }
   ],
   "return_type" : "_ZTIN3ndk13ScopedAStatusE",
   "source_file" : "out/soong/.intermediates/hardware/interfaces/radio/aidl/android.hardware.radio.modem-V1-ndk-source/gen/include/aidl/android/hardware/radio/modem/IRadioModem.h"
  },
  {
   "function_name" : "aidl::android::hardware::radio::modem::IRadioModemDefault::enableModem",
   "linker_set_key" : "_ZN4aidl7android8hardware5radio5modem18IRadioModemDefault11enableModemEib",
   "parameters" :
   [
    {
     "is_this_ptr" : true,
     "referenced_type" : "_ZTIPN4aidl7android8hardware5radio5modem18IRadioModemDefaultE"
    },
    {
     "referenced_type" : "_ZTIi"
    },
    {
     "referenced_type" : "_ZTIb"
    }
   ],
   "return_type" : "_ZTIN3ndk13ScopedAStatusE",
   "source_file" : "out/soong/.intermediates/hardware/interfaces/radio/aidl/android.hardware.radio.modem-V1-ndk-source/gen/include/aidl/android/hardware/radio/modem/IRadioModem.h"
  },
  {
   "function_name" : "aidl::android::hardware::radio::modem::IRadioModemDefault::nvWriteItem",
   "linker_set_key" : "_ZN4aidl7android8hardware5radio5modem18IRadioModemDefault11nvWriteItemEiRKNS3_11NvWriteItemE",
   "parameters" :
   [
    {
     "is_this_ptr" : true,
     "referenced_type" : "_ZTIPN4aidl7android8hardware5radio5modem18IRadioModemDefaultE"
    },
    {
     "referenced_type" : "_ZTIi"
    },
    {
     "referenced_type" : "_ZTIRKN4aidl7android8hardware5radio5modem11NvWriteItemE"
    }
   ],
   "return_type" : "_ZTIN3ndk13ScopedAStatusE",
   "source_file" : "out/soong/.intermediates/hardware/interfaces/radio/aidl/android.hardware.radio.modem-V1-ndk-source/gen/include/aidl/android/hardware/radio/modem/IRadioModem.h"
  },
  {
   "function_name" : "aidl::android::hardware::radio::modem::IRadioModemDefault::nvResetConfig",
   "linker_set_key" : "_ZN4aidl7android8hardware5radio5modem18IRadioModemDefault13nvResetConfigEiNS3_11ResetNvTypeE",
   "parameters" :
   [
    {
     "is_this_ptr" : true,
     "referenced_type" : "_ZTIPN4aidl7android8hardware5radio5modem18IRadioModemDefaultE"
    },
    {
     "referenced_type" : "_ZTIi"
    },
    {
     "referenced_type" : "_ZTIN4aidl7android8hardware5radio5modem11ResetNvTypeE"
    }
   ],
   "return_type" : "_ZTIN3ndk13ScopedAStatusE",
   "source_file" : "out/soong/.intermediates/hardware/interfaces/radio/aidl/android.hardware.radio.modem-V1-ndk-source/gen/include/aidl/android/hardware/radio/modem/IRadioModem.h"
  },
  {
   "function_name" : "aidl::android::hardware::radio::modem::IRadioModemDefault::setRadioPower",
   "linker_set_key" : "_ZN4aidl7android8hardware5radio5modem18IRadioModemDefault13setRadioPowerEibbb",
   "parameters" :
   [
    {
     "is_this_ptr" : true,
     "referenced_type" : "_ZTIPN4aidl7android8hardware5radio5modem18IRadioModemDefaultE"
    },
    {
     "referenced_type" : "_ZTIi"
    },
    {
     "referenced_type" : "_ZTIb"
    },
    {
     "referenced_type" : "_ZTIb"
    },
    {
     "referenced_type" : "_ZTIb"
    }
   ],
   "return_type" : "_ZTIN3ndk13ScopedAStatusE",
   "source_file" : "out/soong/.intermediates/hardware/interfaces/radio/aidl/android.hardware.radio.modem-V1-ndk-source/gen/include/aidl/android/hardware/radio/modem/IRadioModem.h"
  },
  {
   "function_name" : "aidl::android::hardware::radio::modem::IRadioModemDefault::nvWriteCdmaPrl",
   "linker_set_key" : "_ZN4aidl7android8hardware5radio5modem18IRadioModemDefault14nvWriteCdmaPrlEiRKNSt3__16vectorIhNS5_9allocatorIhEEEE",
   "parameters" :
   [
    {
     "is_this_ptr" : true,
     "referenced_type" : "_ZTIPN4aidl7android8hardware5radio5modem18IRadioModemDefaultE"
    },
    {
     "referenced_type" : "_ZTIi"
    },
    {
     "referenced_type" : "_ZTIRKNSt3__16vectorIhNS_9allocatorIhEEEE"
    }
   ],
   "return_type" : "_ZTIN3ndk13ScopedAStatusE",
   "source_file" : "out/soong/.intermediates/hardware/interfaces/radio/aidl/android.hardware.radio.modem-V1-ndk-source/gen/include/aidl/android/hardware/radio/modem/IRadioModem.h"
  },
  {
   "function_name" : "aidl::android::hardware::radio::modem::IRadioModemDefault::requestShutdown",
   "linker_set_key" : "_ZN4aidl7android8hardware5radio5modem18IRadioModemDefault15requestShutdownEi",
   "parameters" :
   [
    {
     "is_this_ptr" : true,
     "referenced_type" : "_ZTIPN4aidl7android8hardware5radio5modem18IRadioModemDefaultE"
    },
    {
     "referenced_type" : "_ZTIi"
    }
   ],
   "return_type" : "_ZTIN3ndk13ScopedAStatusE",
   "source_file" : "out/soong/.intermediates/hardware/interfaces/radio/aidl/android.hardware.radio.modem-V1-ndk-source/gen/include/aidl/android/hardware/radio/modem/IRadioModem.h"
  },
  {
   "function_name" : "aidl::android::hardware::radio::modem::IRadioModemDefault::sendDeviceState",
   "linker_set_key" : "_ZN4aidl7android8hardware5radio5modem18IRadioModemDefault15sendDeviceStateEiNS3_15DeviceStateTypeEb",
   "parameters" :
   [
    {
     "is_this_ptr" : true,
     "referenced_type" : "_ZTIPN4aidl7android8hardware5radio5modem18IRadioModemDefaultE"
    },
    {
     "referenced_type" : "_ZTIi"
    },
    {
     "referenced_type" : "_ZTIN4aidl7android8hardware5radio5modem15DeviceStateTypeE"
    },
    {
     "referenced_type" : "_ZTIb"
    }
   ],
   "return_type" : "_ZTIN3ndk13ScopedAStatusE",
   "source_file" : "out/soong/.intermediates/hardware/interfaces/radio/aidl/android.hardware.radio.modem-V1-ndk-source/gen/include/aidl/android/hardware/radio/modem/IRadioModem.h"
  },
  {
   "function_name" : "aidl::android::hardware::radio::modem::IRadioModemDefault::getInterfaceHash",
   "linker_set_key" : "_ZN4aidl7android8hardware5radio5modem18IRadioModemDefault16getInterfaceHashEPNSt3__112basic_stringIcNS5_11char_traitsIcEENS5_9allocatorIcEEEE",
   "parameters" :
   [
    {
     "is_this_ptr" : true,
     "referenced_type" : "_ZTIPN4aidl7android8hardware5radio5modem18IRadioModemDefaultE"
    },
    {
     "referenced_type" : "_ZTIPNSt3__112basic_stringIcNS_11char_traitsIcEENS_9allocatorIcEEEE"
    }
   ],
   "return_type" : "_ZTIN3ndk13ScopedAStatusE",
   "source_file" : "out/soong/.intermediates/hardware/interfaces/radio/aidl/android.hardware.radio.modem-V1-ndk-source/gen/include/aidl/android/hardware/radio/modem/IRadioModem.h"
  },
  {
   "function_name" : "aidl::android::hardware::radio::modem::IRadioModemDefault::getDeviceIdentity",
   "linker_set_key" : "_ZN4aidl7android8hardware5radio5modem18IRadioModemDefault17getDeviceIdentityEi",
   "parameters" :
   [
    {
     "is_this_ptr" : true,
     "referenced_type" : "_ZTIPN4aidl7android8hardware5radio5modem18IRadioModemDefaultE"
    },
    {
     "referenced_type" : "_ZTIi"
    }
   ],
   "return_type" : "_ZTIN3ndk13ScopedAStatusE",
   "source_file" : "out/soong/.intermediates/hardware/interfaces/radio/aidl/android.hardware.radio.modem-V1-ndk-source/gen/include/aidl/android/hardware/radio/modem/IRadioModem.h"
  },
  {
   "function_name" : "aidl::android::hardware::radio::modem::IRadioModemDefault::getHardwareConfig",
   "linker_set_key" : "_ZN4aidl7android8hardware5radio5modem18IRadioModemDefault17getHardwareConfigEi",
   "parameters" :
   [
    {
     "is_this_ptr" : true,
     "referenced_type" : "_ZTIPN4aidl7android8hardware5radio5modem18IRadioModemDefaultE"
    },
    {
     "referenced_type" : "_ZTIi"
    }
   ],
   "return_type" : "_ZTIN3ndk13ScopedAStatusE",
   "source_file" : "out/soong/.intermediates/hardware/interfaces/radio/aidl/android.hardware.radio.modem-V1-ndk-source/gen/include/aidl/android/hardware/radio/modem/IRadioModem.h"
  },
  {
   "function_name" : "aidl::android::hardware::radio::modem::IRadioModemDefault::getBasebandVersion",
   "linker_set_key" : "_ZN4aidl7android8hardware5radio5modem18IRadioModemDefault18getBasebandVersionEi",
   "parameters" :
   [
    {
     "is_this_ptr" : true,
     "referenced_type" : "_ZTIPN4aidl7android8hardware5radio5modem18IRadioModemDefaultE"
    },
    {
     "referenced_type" : "_ZTIi"
    }
   ],
   "return_type" : "_ZTIN3ndk13ScopedAStatusE",
   "source_file" : "out/soong/.intermediates/hardware/interfaces/radio/aidl/android.hardware.radio.modem-V1-ndk-source/gen/include/aidl/android/hardware/radio/modem/IRadioModem.h"
  },
  {
   "function_name" : "aidl::android::hardware::radio::modem::IRadioModemDefault::getRadioCapability",
   "linker_set_key" : "_ZN4aidl7android8hardware5radio5modem18IRadioModemDefault18getRadioCapabilityEi",
   "parameters" :
   [
    {
     "is_this_ptr" : true,
     "referenced_type" : "_ZTIPN4aidl7android8hardware5radio5modem18IRadioModemDefaultE"
    },
    {
     "referenced_type" : "_ZTIi"
    }
   ],
   "return_type" : "_ZTIN3ndk13ScopedAStatusE",
   "source_file" : "out/soong/.intermediates/hardware/interfaces/radio/aidl/android.hardware.radio.modem-V1-ndk-source/gen/include/aidl/android/hardware/radio/modem/IRadioModem.h"
  },
  {
   "function_name" : "aidl::android::hardware::radio::modem::IRadioModemDefault::setRadioCapability",
   "linker_set_key" : "_ZN4aidl7android8hardware5radio5modem18IRadioModemDefault18setRadioCapabilityEiRKNS3_15RadioCapabilityE",
   "parameters" :
   [
    {
     "is_this_ptr" : true,
     "referenced_type" : "_ZTIPN4aidl7android8hardware5radio5modem18IRadioModemDefaultE"
    },
    {
     "referenced_type" : "_ZTIi"
    },
    {
     "referenced_type" : "_ZTIRKN4aidl7android8hardware5radio5modem15RadioCapabilityE"
    }
   ],
   "return_type" : "_ZTIN3ndk13ScopedAStatusE",
   "source_file" : "out/soong/.intermediates/hardware/interfaces/radio/aidl/android.hardware.radio.modem-V1-ndk-source/gen/include/aidl/android/hardware/radio/modem/IRadioModem.h"
  },
  {
   "function_name" : "aidl::android::hardware::radio::modem::IRadioModemDefault::getInterfaceVersion",
   "linker_set_key" : "_ZN4aidl7android8hardware5radio5modem18IRadioModemDefault19getInterfaceVersionEPi",
   "parameters" :
   [
    {
     "is_this_ptr" : true,
     "referenced_type" : "_ZTIPN4aidl7android8hardware5radio5modem18IRadioModemDefaultE"
    },
    {
     "referenced_type" : "_ZTIPi"
    }
   ],
   "return_type" : "_ZTIN3ndk13ScopedAStatusE",
   "source_file" : "out/soong/.intermediates/hardware/interfaces/radio/aidl/android.hardware.radio.modem-V1-ndk-source/gen/include/aidl/android/hardware/radio/modem/IRadioModem.h"
  },
  {
   "function_name" : "aidl::android::hardware::radio::modem::IRadioModemDefault::getModemStackStatus",
   "linker_set_key" : "_ZN4aidl7android8hardware5radio5modem18IRadioModemDefault19getModemStackStatusEi",
   "parameters" :
   [
    {
     "is_this_ptr" : true,
     "referenced_type" : "_ZTIPN4aidl7android8hardware5radio5modem18IRadioModemDefaultE"
    },
    {
     "referenced_type" : "_ZTIi"
    }
   ],
   "return_type" : "_ZTIN3ndk13ScopedAStatusE",
   "source_file" : "out/soong/.intermediates/hardware/interfaces/radio/aidl/android.hardware.radio.modem-V1-ndk-source/gen/include/aidl/android/hardware/radio/modem/IRadioModem.h"
  },
  {
   "function_name" : "aidl::android::hardware::radio::modem::IRadioModemDefault::getModemActivityInfo",
   "linker_set_key" : "_ZN4aidl7android8hardware5radio5modem18IRadioModemDefault20getModemActivityInfoEi",
   "parameters" :
   [
    {
     "is_this_ptr" : true,
     "referenced_type" : "_ZTIPN4aidl7android8hardware5radio5modem18IRadioModemDefaultE"
    },
    {
     "referenced_type" : "_ZTIi"
    }
   ],
   "return_type" : "_ZTIN3ndk13ScopedAStatusE",
   "source_file" : "out/soong/.intermediates/hardware/interfaces/radio/aidl/android.hardware.radio.modem-V1-ndk-source/gen/include/aidl/android/hardware/radio/modem/IRadioModem.h"
  },
  {
   "function_name" : "aidl::android::hardware::radio::modem::IRadioModemDefault::setResponseFunctions",
   "linker_set_key" : "_ZN4aidl7android8hardware5radio5modem18IRadioModemDefault20setResponseFunctionsERKNSt3__110shared_ptrINS3_19IRadioModemResponseEEERKNS6_INS3_21IRadioModemIndicationEEE",
   "parameters" :
   [
    {
     "is_this_ptr" : true,
     "referenced_type" : "_ZTIPN4aidl7android8hardware5radio5modem18IRadioModemDefaultE"
    },
    {
     "referenced_type" : "_ZTIRKNSt3__110shared_ptrIN4aidl7android8hardware5radio5modem19IRadioModemResponseEEE"
    },
    {
     "referenced_type" : "_ZTIRKNSt3__110shared_ptrIN4aidl7android8hardware5radio5modem21IRadioModemIndicationEEE"
    }
   ],
   "return_type" : "_ZTIN3ndk13ScopedAStatusE",
   "source_file" : "out/soong/.intermediates/hardware/interfaces/radio/aidl/android.hardware.radio.modem-V1-ndk-source/gen/include/aidl/android/hardware/radio/modem/IRadioModem.h"
  },
  {
   "function_name" : "aidl::android::hardware::radio::modem::IRadioModemDefault::responseAcknowledgement",
   "linker_set_key" : "_ZN4aidl7android8hardware5radio5modem18IRadioModemDefault23responseAcknowledgementEv",
   "parameters" :
   [
    {
     "is_this_ptr" : true,
     "referenced_type" : "_ZTIPN4aidl7android8hardware5radio5modem18IRadioModemDefaultE"
    }
   ],
   "return_type" : "_ZTIN3ndk13ScopedAStatusE",
   "source_file" : "out/soong/.intermediates/hardware/interfaces/radio/aidl/android.hardware.radio.modem-V1-ndk-source/gen/include/aidl/android/hardware/radio/modem/IRadioModem.h"
  },
  {
   "function_name" : "aidl::android::hardware::radio::modem::IRadioModemDefault::asBinder",
   "linker_set_key" : "_ZN4aidl7android8hardware5radio5modem18IRadioModemDefault8asBinderEv",
   "parameters" :
   [
    {
     "is_this_ptr" : true,
     "referenced_type" : "_ZTIPN4aidl7android8hardware5radio5modem18IRadioModemDefaultE"
    }
   ],
   "return_type" : "_ZTIN3ndk10SpAIBinderE",
   "source_file" : "out/soong/.intermediates/hardware/interfaces/radio/aidl/android.hardware.radio.modem-V1-ndk-source/gen/include/aidl/android/hardware/radio/modem/IRadioModem.h"
  },
  {
   "function_name" : "aidl::android::hardware::radio::modem::IRadioModemDefault::isRemote",
   "linker_set_key" : "_ZN4aidl7android8hardware5radio5modem18IRadioModemDefault8isRemoteEv",
   "parameters" :
   [
    {
     "is_this_ptr" : true,
     "referenced_type" : "_ZTIPN4aidl7android8hardware5radio5modem18IRadioModemDefaultE"
    }
   ],
   "return_type" : "_ZTIb",
   "source_file" : "out/soong/.intermediates/hardware/interfaces/radio/aidl/android.hardware.radio.modem-V1-ndk-source/gen/include/aidl/android/hardware/radio/modem/IRadioModem.h"
  },
  {
   "function_name" : "aidl::android::hardware::radio::modem::HardwareConfigModem::readFromParcel",
   "linker_set_key" : "_ZN4aidl7android8hardware5radio5modem19HardwareConfigModem14readFromParcelEPK7AParcel",
   "parameters" :
   [
    {
     "is_this_ptr" : true,
     "referenced_type" : "_ZTIPN4aidl7android8hardware5radio5modem19HardwareConfigModemE"
    },
    {
     "referenced_type" : "_ZTIPK7AParcel"
    }
   ],
   "return_type" : "_ZTIi",
   "source_file" : "out/soong/.intermediates/hardware/interfaces/radio/aidl/android.hardware.radio.modem-V1-ndk-source/gen/include/aidl/android/hardware/radio/modem/HardwareConfigModem.h"
  },
  {
   "function_name" : "aidl::android::hardware::radio::modem::IRadioModemResponse::fromBinder",
   "linker_set_key" : "_ZN4aidl7android8hardware5radio5modem19IRadioModemResponse10fromBinderERKN3ndk10SpAIBinderE",
   "parameters" :
   [
    {
     "referenced_type" : "_ZTIRKN3ndk10SpAIBinderE"
    }
   ],
   "return_type" : "_ZTINSt3__110shared_ptrIN4aidl7android8hardware5radio5modem19IRadioModemResponseEEE",
   "source_file" : "out/soong/.intermediates/hardware/interfaces/radio/aidl/android.hardware.radio.modem-V1-ndk-source/gen/include/aidl/android/hardware/radio/modem/IRadioModemResponse.h"
  },
  {
   "function_name" : "aidl::android::hardware::radio::modem::IRadioModemResponse::writeToParcel",
   "linker_set_key" : "_ZN4aidl7android8hardware5radio5modem19IRadioModemResponse13writeToParcelEP7AParcelRKNSt3__110shared_ptrIS4_EE",
   "parameters" :
   [
    {
     "referenced_type" : "_ZTIP7AParcel"
    },
    {
     "referenced_type" : "_ZTIRKNSt3__110shared_ptrIN4aidl7android8hardware5radio5modem19IRadioModemResponseEEE"
    }
   ],
   "return_type" : "_ZTIi",
   "source_file" : "out/soong/.intermediates/hardware/interfaces/radio/aidl/android.hardware.radio.modem-V1-ndk-source/gen/include/aidl/android/hardware/radio/modem/IRadioModemResponse.h"
  },
  {
   "function_name" : "aidl::android::hardware::radio::modem::IRadioModemResponse::getDefaultImpl",
   "linker_set_key" : "_ZN4aidl7android8hardware5radio5modem19IRadioModemResponse14getDefaultImplEv",
   "return_type" : "_ZTIRKNSt3__110shared_ptrIN4aidl7android8hardware5radio5modem19IRadioModemResponseEEE",
   "source_file" : "out/soong/.intermediates/hardware/interfaces/radio/aidl/android.hardware.radio.modem-V1-ndk-source/gen/include/aidl/android/hardware/radio/modem/IRadioModemResponse.h"
  },
  {
   "function_name" : "aidl::android::hardware::radio::modem::IRadioModemResponse::readFromParcel",
   "linker_set_key" : "_ZN4aidl7android8hardware5radio5modem19IRadioModemResponse14readFromParcelEPK7AParcelPNSt3__110shared_ptrIS4_EE",
   "parameters" :
   [
    {
     "referenced_type" : "_ZTIPK7AParcel"
    },
    {
     "referenced_type" : "_ZTIPNSt3__110shared_ptrIN4aidl7android8hardware5radio5modem19IRadioModemResponseEEE"
    }
   ],
   "return_type" : "_ZTIi",
   "source_file" : "out/soong/.intermediates/hardware/interfaces/radio/aidl/android.hardware.radio.modem-V1-ndk-source/gen/include/aidl/android/hardware/radio/modem/IRadioModemResponse.h"
  },
  {
   "function_name" : "aidl::android::hardware::radio::modem::IRadioModemResponse::setDefaultImpl",
   "linker_set_key" : "_ZN4aidl7android8hardware5radio5modem19IRadioModemResponse14setDefaultImplERKNSt3__110shared_ptrIS4_EE",
   "parameters" :
   [
    {
     "referenced_type" : "_ZTIRKNSt3__110shared_ptrIN4aidl7android8hardware5radio5modem19IRadioModemResponseEEE"
    }
   ],
   "return_type" : "_ZTIb",
   "source_file" : "out/soong/.intermediates/hardware/interfaces/radio/aidl/android.hardware.radio.modem-V1-ndk-source/gen/include/aidl/android/hardware/radio/modem/IRadioModemResponse.h"
  },
  {
   "function_name" : "aidl::android::hardware::radio::modem::IRadioModemResponse::IRadioModemResponse",
   "linker_set_key" : "_ZN4aidl7android8hardware5radio5modem19IRadioModemResponseC2Ev",
   "parameters" :
   [
    {
     "is_this_ptr" : true,
     "referenced_type" : "_ZTIPN4aidl7android8hardware5radio5modem19IRadioModemResponseE"
    }
   ],
   "return_type" : "_ZTIv",
   "source_file" : "out/soong/.intermediates/hardware/interfaces/radio/aidl/android.hardware.radio.modem-V1-ndk-source/gen/include/aidl/android/hardware/radio/modem/IRadioModemResponse.h"
  },
  {
   "function_name" : "aidl::android::hardware::radio::modem::IRadioModemResponse::~IRadioModemResponse",
   "linker_set_key" : "_ZN4aidl7android8hardware5radio5modem19IRadioModemResponseD0Ev",
   "parameters" :
   [
    {
     "is_this_ptr" : true,
     "referenced_type" : "_ZTIPN4aidl7android8hardware5radio5modem19IRadioModemResponseE"
    }
   ],
   "return_type" : "_ZTIv",
   "source_file" : "out/soong/.intermediates/hardware/interfaces/radio/aidl/android.hardware.radio.modem-V1-ndk-source/gen/include/aidl/android/hardware/radio/modem/IRadioModemResponse.h"
  },
  {
   "function_name" : "aidl::android::hardware::radio::modem::IRadioModemResponse::~IRadioModemResponse",
   "linker_set_key" : "_ZN4aidl7android8hardware5radio5modem19IRadioModemResponseD1Ev",
   "parameters" :
   [
    {
     "is_this_ptr" : true,
     "referenced_type" : "_ZTIPN4aidl7android8hardware5radio5modem19IRadioModemResponseE"
    }
   ],
   "return_type" : "_ZTIv",
   "source_file" : "out/soong/.intermediates/hardware/interfaces/radio/aidl/android.hardware.radio.modem-V1-ndk-source/gen/include/aidl/android/hardware/radio/modem/IRadioModemResponse.h"
  },
  {
   "function_name" : "aidl::android::hardware::radio::modem::IRadioModemResponse::~IRadioModemResponse",
   "linker_set_key" : "_ZN4aidl7android8hardware5radio5modem19IRadioModemResponseD2Ev",
   "parameters" :
   [
    {
     "is_this_ptr" : true,
     "referenced_type" : "_ZTIPN4aidl7android8hardware5radio5modem19IRadioModemResponseE"
    }
   ],
   "return_type" : "_ZTIv",
   "source_file" : "out/soong/.intermediates/hardware/interfaces/radio/aidl/android.hardware.radio.modem-V1-ndk-source/gen/include/aidl/android/hardware/radio/modem/IRadioModemResponse.h"
  },
  {
   "access" : "protected",
   "function_name" : "aidl::android::hardware::radio::modem::BnRadioModemResponse::createBinder",
   "linker_set_key" : "_ZN4aidl7android8hardware5radio5modem20BnRadioModemResponse12createBinderEv",
   "parameters" :
   [
    {
     "is_this_ptr" : true,
     "referenced_type" : "_ZTIPN4aidl7android8hardware5radio5modem20BnRadioModemResponseE"
    }
   ],
   "return_type" : "_ZTIN3ndk10SpAIBinderE",
   "source_file" : "out/soong/.intermediates/hardware/interfaces/radio/aidl/android.hardware.radio.modem-V1-ndk-source/gen/include/aidl/android/hardware/radio/modem/BnRadioModemResponse.h"
  },
  {
   "function_name" : "aidl::android::hardware::radio::modem::BnRadioModemResponse::getInterfaceHash",
   "linker_set_key" : "_ZN4aidl7android8hardware5radio5modem20BnRadioModemResponse16getInterfaceHashEPNSt3__112basic_stringIcNS5_11char_traitsIcEENS5_9allocatorIcEEEE",
   "parameters" :
   [
    {
     "is_this_ptr" : true,
     "referenced_type" : "_ZTIPN4aidl7android8hardware5radio5modem20BnRadioModemResponseE"
    },
    {
     "referenced_type" : "_ZTIPNSt3__112basic_stringIcNS_11char_traitsIcEENS_9allocatorIcEEEE"
    }
   ],
   "return_type" : "_ZTIN3ndk13ScopedAStatusE",
   "source_file" : "out/soong/.intermediates/hardware/interfaces/radio/aidl/android.hardware.radio.modem-V1-ndk-source/gen/include/aidl/android/hardware/radio/modem/BnRadioModemResponse.h"
  },
  {
   "function_name" : "aidl::android::hardware::radio::modem::BnRadioModemResponse::getInterfaceVersion",
   "linker_set_key" : "_ZN4aidl7android8hardware5radio5modem20BnRadioModemResponse19getInterfaceVersionEPi",
   "parameters" :
   [
    {
     "is_this_ptr" : true,
     "referenced_type" : "_ZTIPN4aidl7android8hardware5radio5modem20BnRadioModemResponseE"
    },
    {
     "referenced_type" : "_ZTIPi"
    }
   ],
   "return_type" : "_ZTIN3ndk13ScopedAStatusE",
   "source_file" : "out/soong/.intermediates/hardware/interfaces/radio/aidl/android.hardware.radio.modem-V1-ndk-source/gen/include/aidl/android/hardware/radio/modem/BnRadioModemResponse.h"
  },
  {
   "function_name" : "aidl::android::hardware::radio::modem::BnRadioModemResponse::BnRadioModemResponse",
   "linker_set_key" : "_ZN4aidl7android8hardware5radio5modem20BnRadioModemResponseC2Ev",
   "parameters" :
   [
    {
     "is_this_ptr" : true,
     "referenced_type" : "_ZTIPN4aidl7android8hardware5radio5modem20BnRadioModemResponseE"
    }
   ],
   "return_type" : "_ZTIv",
   "source_file" : "out/soong/.intermediates/hardware/interfaces/radio/aidl/android.hardware.radio.modem-V1-ndk-source/gen/include/aidl/android/hardware/radio/modem/BnRadioModemResponse.h"
  },
  {
   "function_name" : "aidl::android::hardware::radio::modem::BnRadioModemResponse::~BnRadioModemResponse",
   "linker_set_key" : "_ZN4aidl7android8hardware5radio5modem20BnRadioModemResponseD0Ev",
   "parameters" :
   [
    {
     "is_this_ptr" : true,
     "referenced_type" : "_ZTIPN4aidl7android8hardware5radio5modem20BnRadioModemResponseE"
    }
   ],
   "return_type" : "_ZTIv",
   "source_file" : "out/soong/.intermediates/hardware/interfaces/radio/aidl/android.hardware.radio.modem-V1-ndk-source/gen/include/aidl/android/hardware/radio/modem/BnRadioModemResponse.h"
  },
  {
   "function_name" : "aidl::android::hardware::radio::modem::BnRadioModemResponse::~BnRadioModemResponse",
   "linker_set_key" : "_ZN4aidl7android8hardware5radio5modem20BnRadioModemResponseD1Ev",
   "parameters" :
   [
    {
     "is_this_ptr" : true,
     "referenced_type" : "_ZTIPN4aidl7android8hardware5radio5modem20BnRadioModemResponseE"
    }
   ],
   "return_type" : "_ZTIv",
   "source_file" : "out/soong/.intermediates/hardware/interfaces/radio/aidl/android.hardware.radio.modem-V1-ndk-source/gen/include/aidl/android/hardware/radio/modem/BnRadioModemResponse.h"
  },
  {
   "function_name" : "aidl::android::hardware::radio::modem::BnRadioModemResponse::~BnRadioModemResponse",
   "linker_set_key" : "_ZN4aidl7android8hardware5radio5modem20BnRadioModemResponseD2Ev",
   "parameters" :
   [
    {
     "is_this_ptr" : true,
     "referenced_type" : "_ZTIPN4aidl7android8hardware5radio5modem20BnRadioModemResponseE"
    }
   ],
   "return_type" : "_ZTIv",
   "source_file" : "out/soong/.intermediates/hardware/interfaces/radio/aidl/android.hardware.radio.modem-V1-ndk-source/gen/include/aidl/android/hardware/radio/modem/BnRadioModemResponse.h"
  },
  {
   "function_name" : "aidl::android::hardware::radio::modem::BpRadioModemResponse::getInterfaceHash",
   "linker_set_key" : "_ZN4aidl7android8hardware5radio5modem20BpRadioModemResponse16getInterfaceHashEPNSt3__112basic_stringIcNS5_11char_traitsIcEENS5_9allocatorIcEEEE",
   "parameters" :
   [
    {
     "is_this_ptr" : true,
     "referenced_type" : "_ZTIPN4aidl7android8hardware5radio5modem20BpRadioModemResponseE"
    },
    {
     "referenced_type" : "_ZTIPNSt3__112basic_stringIcNS_11char_traitsIcEENS_9allocatorIcEEEE"
    }
   ],
   "return_type" : "_ZTIN3ndk13ScopedAStatusE",
   "source_file" : "out/soong/.intermediates/hardware/interfaces/radio/aidl/android.hardware.radio.modem-V1-ndk-source/gen/include/aidl/android/hardware/radio/modem/BpRadioModemResponse.h"
  },
  {
   "function_name" : "aidl::android::hardware::radio::modem::BpRadioModemResponse::acknowledgeRequest",
   "linker_set_key" : "_ZN4aidl7android8hardware5radio5modem20BpRadioModemResponse18acknowledgeRequestEi",
   "parameters" :
   [
    {
     "is_this_ptr" : true,
     "referenced_type" : "_ZTIPN4aidl7android8hardware5radio5modem20BpRadioModemResponseE"
    },
    {
     "referenced_type" : "_ZTIi"
    }
   ],
   "return_type" : "_ZTIN3ndk13ScopedAStatusE",
   "source_file" : "out/soong/.intermediates/hardware/interfaces/radio/aidl/android.hardware.radio.modem-V1-ndk-source/gen/include/aidl/android/hardware/radio/modem/BpRadioModemResponse.h"
  },
  {
   "function_name" : "aidl::android::hardware::radio::modem::BpRadioModemResponse::nvReadItemResponse",
   "linker_set_key" : "_ZN4aidl7android8hardware5radio5modem20BpRadioModemResponse18nvReadItemResponseERKNS2_17RadioResponseInfoERKNSt3__112basic_stringIcNS8_11char_traitsIcEENS8_9allocatorIcEEEE",
   "parameters" :
   [
    {
     "is_this_ptr" : true,
     "referenced_type" : "_ZTIPN4aidl7android8hardware5radio5modem20BpRadioModemResponseE"
    },
    {
     "referenced_type" : "_ZTIRKN4aidl7android8hardware5radio17RadioResponseInfoE"
    },
    {
     "referenced_type" : "_ZTIRKNSt3__112basic_stringIcNS_11char_traitsIcEENS_9allocatorIcEEEE"
    }
   ],
   "return_type" : "_ZTIN3ndk13ScopedAStatusE",
   "source_file" : "out/soong/.intermediates/hardware/interfaces/radio/aidl/android.hardware.radio.modem-V1-ndk-source/gen/include/aidl/android/hardware/radio/modem/BpRadioModemResponse.h"
  },
  {
   "function_name" : "aidl::android::hardware::radio::modem::BpRadioModemResponse::enableModemResponse",
   "linker_set_key" : "_ZN4aidl7android8hardware5radio5modem20BpRadioModemResponse19enableModemResponseERKNS2_17RadioResponseInfoE",
   "parameters" :
   [
    {
     "is_this_ptr" : true,
     "referenced_type" : "_ZTIPN4aidl7android8hardware5radio5modem20BpRadioModemResponseE"
    },
    {
     "referenced_type" : "_ZTIRKN4aidl7android8hardware5radio17RadioResponseInfoE"
    }
   ],
   "return_type" : "_ZTIN3ndk13ScopedAStatusE",
   "source_file" : "out/soong/.intermediates/hardware/interfaces/radio/aidl/android.hardware.radio.modem-V1-ndk-source/gen/include/aidl/android/hardware/radio/modem/BpRadioModemResponse.h"
  },
  {
   "function_name" : "aidl::android::hardware::radio::modem::BpRadioModemResponse::getInterfaceVersion",
   "linker_set_key" : "_ZN4aidl7android8hardware5radio5modem20BpRadioModemResponse19getInterfaceVersionEPi",
   "parameters" :
   [
    {
     "is_this_ptr" : true,
     "referenced_type" : "_ZTIPN4aidl7android8hardware5radio5modem20BpRadioModemResponseE"
    },
    {
     "referenced_type" : "_ZTIPi"
    }
   ],
   "return_type" : "_ZTIN3ndk13ScopedAStatusE",
   "source_file" : "out/soong/.intermediates/hardware/interfaces/radio/aidl/android.hardware.radio.modem-V1-ndk-source/gen/include/aidl/android/hardware/radio/modem/BpRadioModemResponse.h"
  },
  {
   "function_name" : "aidl::android::hardware::radio::modem::BpRadioModemResponse::nvWriteItemResponse",
   "linker_set_key" : "_ZN4aidl7android8hardware5radio5modem20BpRadioModemResponse19nvWriteItemResponseERKNS2_17RadioResponseInfoE",
   "parameters" :
   [
    {
     "is_this_ptr" : true,
     "referenced_type" : "_ZTIPN4aidl7android8hardware5radio5modem20BpRadioModemResponseE"
    },
    {
     "referenced_type" : "_ZTIRKN4aidl7android8hardware5radio17RadioResponseInfoE"
    }
   ],
   "return_type" : "_ZTIN3ndk13ScopedAStatusE",
   "source_file" : "out/soong/.intermediates/hardware/interfaces/radio/aidl/android.hardware.radio.modem-V1-ndk-source/gen/include/aidl/android/hardware/radio/modem/BpRadioModemResponse.h"
  },
  {
   "function_name" : "aidl::android::hardware::radio::modem::BpRadioModemResponse::nvResetConfigResponse",
   "linker_set_key" : "_ZN4aidl7android8hardware5radio5modem20BpRadioModemResponse21nvResetConfigResponseERKNS2_17RadioResponseInfoE",
   "parameters" :
   [
    {
     "is_this_ptr" : true,
     "referenced_type" : "_ZTIPN4aidl7android8hardware5radio5modem20BpRadioModemResponseE"
    },
    {
     "referenced_type" : "_ZTIRKN4aidl7android8hardware5radio17RadioResponseInfoE"
    }
   ],
   "return_type" : "_ZTIN3ndk13ScopedAStatusE",
   "source_file" : "out/soong/.intermediates/hardware/interfaces/radio/aidl/android.hardware.radio.modem-V1-ndk-source/gen/include/aidl/android/hardware/radio/modem/BpRadioModemResponse.h"
  },
  {
   "function_name" : "aidl::android::hardware::radio::modem::BpRadioModemResponse::setRadioPowerResponse",
   "linker_set_key" : "_ZN4aidl7android8hardware5radio5modem20BpRadioModemResponse21setRadioPowerResponseERKNS2_17RadioResponseInfoE",
   "parameters" :
   [
    {
     "is_this_ptr" : true,
     "referenced_type" : "_ZTIPN4aidl7android8hardware5radio5modem20BpRadioModemResponseE"
    },
    {
     "referenced_type" : "_ZTIRKN4aidl7android8hardware5radio17RadioResponseInfoE"
    }
   ],
   "return_type" : "_ZTIN3ndk13ScopedAStatusE",
   "source_file" : "out/soong/.intermediates/hardware/interfaces/radio/aidl/android.hardware.radio.modem-V1-ndk-source/gen/include/aidl/android/hardware/radio/modem/BpRadioModemResponse.h"
  },
  {
   "function_name" : "aidl::android::hardware::radio::modem::BpRadioModemResponse::nvWriteCdmaPrlResponse",
   "linker_set_key" : "_ZN4aidl7android8hardware5radio5modem20BpRadioModemResponse22nvWriteCdmaPrlResponseERKNS2_17RadioResponseInfoE",
   "parameters" :
   [
    {
     "is_this_ptr" : true,
     "referenced_type" : "_ZTIPN4aidl7android8hardware5radio5modem20BpRadioModemResponseE"
    },
    {
     "referenced_type" : "_ZTIRKN4aidl7android8hardware5radio17RadioResponseInfoE"
    }
   ],
   "return_type" : "_ZTIN3ndk13ScopedAStatusE",
   "source_file" : "out/soong/.intermediates/hardware/interfaces/radio/aidl/android.hardware.radio.modem-V1-ndk-source/gen/include/aidl/android/hardware/radio/modem/BpRadioModemResponse.h"
  },
  {
   "function_name" : "aidl::android::hardware::radio::modem::BpRadioModemResponse::requestShutdownResponse",
   "linker_set_key" : "_ZN4aidl7android8hardware5radio5modem20BpRadioModemResponse23requestShutdownResponseERKNS2_17RadioResponseInfoE",
   "parameters" :
   [
    {
     "is_this_ptr" : true,
     "referenced_type" : "_ZTIPN4aidl7android8hardware5radio5modem20BpRadioModemResponseE"
    },
    {
     "referenced_type" : "_ZTIRKN4aidl7android8hardware5radio17RadioResponseInfoE"
    }
   ],
   "return_type" : "_ZTIN3ndk13ScopedAStatusE",
   "source_file" : "out/soong/.intermediates/hardware/interfaces/radio/aidl/android.hardware.radio.modem-V1-ndk-source/gen/include/aidl/android/hardware/radio/modem/BpRadioModemResponse.h"
  },
  {
   "function_name" : "aidl::android::hardware::radio::modem::BpRadioModemResponse::sendDeviceStateResponse",
   "linker_set_key" : "_ZN4aidl7android8hardware5radio5modem20BpRadioModemResponse23sendDeviceStateResponseERKNS2_17RadioResponseInfoE",
   "parameters" :
   [
    {
     "is_this_ptr" : true,
     "referenced_type" : "_ZTIPN4aidl7android8hardware5radio5modem20BpRadioModemResponseE"
    },
    {
     "referenced_type" : "_ZTIRKN4aidl7android8hardware5radio17RadioResponseInfoE"
    }
   ],
   "return_type" : "_ZTIN3ndk13ScopedAStatusE",
   "source_file" : "out/soong/.intermediates/hardware/interfaces/radio/aidl/android.hardware.radio.modem-V1-ndk-source/gen/include/aidl/android/hardware/radio/modem/BpRadioModemResponse.h"
  },
  {
   "function_name" : "aidl::android::hardware::radio::modem::BpRadioModemResponse::getDeviceIdentityResponse",
   "linker_set_key" : "_ZN4aidl7android8hardware5radio5modem20BpRadioModemResponse25getDeviceIdentityResponseERKNS2_17RadioResponseInfoERKNSt3__112basic_stringIcNS8_11char_traitsIcEENS8_9allocatorIcEEEESG_SG_SG_",
   "parameters" :
   [
    {
     "is_this_ptr" : true,
     "referenced_type" : "_ZTIPN4aidl7android8hardware5radio5modem20BpRadioModemResponseE"
    },
    {
     "referenced_type" : "_ZTIRKN4aidl7android8hardware5radio17RadioResponseInfoE"
    },
    {
     "referenced_type" : "_ZTIRKNSt3__112basic_stringIcNS_11char_traitsIcEENS_9allocatorIcEEEE"
    },
    {
     "referenced_type" : "_ZTIRKNSt3__112basic_stringIcNS_11char_traitsIcEENS_9allocatorIcEEEE"
    },
    {
     "referenced_type" : "_ZTIRKNSt3__112basic_stringIcNS_11char_traitsIcEENS_9allocatorIcEEEE"
    },
    {
     "referenced_type" : "_ZTIRKNSt3__112basic_stringIcNS_11char_traitsIcEENS_9allocatorIcEEEE"
    }
   ],
   "return_type" : "_ZTIN3ndk13ScopedAStatusE",
   "source_file" : "out/soong/.intermediates/hardware/interfaces/radio/aidl/android.hardware.radio.modem-V1-ndk-source/gen/include/aidl/android/hardware/radio/modem/BpRadioModemResponse.h"
  },
  {
   "function_name" : "aidl::android::hardware::radio::modem::BpRadioModemResponse::getHardwareConfigResponse",
   "linker_set_key" : "_ZN4aidl7android8hardware5radio5modem20BpRadioModemResponse25getHardwareConfigResponseERKNS2_17RadioResponseInfoERKNSt3__16vectorINS3_14HardwareConfigENS8_9allocatorISA_EEEE",
   "parameters" :
   [
    {
     "is_this_ptr" : true,
     "referenced_type" : "_ZTIPN4aidl7android8hardware5radio5modem20BpRadioModemResponseE"
    },
    {
     "referenced_type" : "_ZTIRKN4aidl7android8hardware5radio17RadioResponseInfoE"
    },
    {
     "referenced_type" : "_ZTIRKNSt3__16vectorIN4aidl7android8hardware5radio5modem14HardwareConfigENS_9allocatorIS6_EEEE"
    }
   ],
   "return_type" : "_ZTIN3ndk13ScopedAStatusE",
   "source_file" : "out/soong/.intermediates/hardware/interfaces/radio/aidl/android.hardware.radio.modem-V1-ndk-source/gen/include/aidl/android/hardware/radio/modem/BpRadioModemResponse.h"
  },
  {
   "function_name" : "aidl::android::hardware::radio::modem::BpRadioModemResponse::getBasebandVersionResponse",
   "linker_set_key" : "_ZN4aidl7android8hardware5radio5modem20BpRadioModemResponse26getBasebandVersionResponseERKNS2_17RadioResponseInfoERKNSt3__112basic_stringIcNS8_11char_traitsIcEENS8_9allocatorIcEEEE",
   "parameters" :
   [
    {
     "is_this_ptr" : true,
     "referenced_type" : "_ZTIPN4aidl7android8hardware5radio5modem20BpRadioModemResponseE"
    },
    {
     "referenced_type" : "_ZTIRKN4aidl7android8hardware5radio17RadioResponseInfoE"
    },
    {
     "referenced_type" : "_ZTIRKNSt3__112basic_stringIcNS_11char_traitsIcEENS_9allocatorIcEEEE"
    }
   ],
   "return_type" : "_ZTIN3ndk13ScopedAStatusE",
   "source_file" : "out/soong/.intermediates/hardware/interfaces/radio/aidl/android.hardware.radio.modem-V1-ndk-source/gen/include/aidl/android/hardware/radio/modem/BpRadioModemResponse.h"
  },
  {
   "function_name" : "aidl::android::hardware::radio::modem::BpRadioModemResponse::getRadioCapabilityResponse",
   "linker_set_key" : "_ZN4aidl7android8hardware5radio5modem20BpRadioModemResponse26getRadioCapabilityResponseERKNS2_17RadioResponseInfoERKNS3_15RadioCapabilityE",
   "parameters" :
   [
    {
     "is_this_ptr" : true,
     "referenced_type" : "_ZTIPN4aidl7android8hardware5radio5modem20BpRadioModemResponseE"
    },
    {
     "referenced_type" : "_ZTIRKN4aidl7android8hardware5radio17RadioResponseInfoE"
    },
    {
     "referenced_type" : "_ZTIRKN4aidl7android8hardware5radio5modem15RadioCapabilityE"
    }
   ],
   "return_type" : "_ZTIN3ndk13ScopedAStatusE",
   "source_file" : "out/soong/.intermediates/hardware/interfaces/radio/aidl/android.hardware.radio.modem-V1-ndk-source/gen/include/aidl/android/hardware/radio/modem/BpRadioModemResponse.h"
  },
  {
   "function_name" : "aidl::android::hardware::radio::modem::BpRadioModemResponse::setRadioCapabilityResponse",
   "linker_set_key" : "_ZN4aidl7android8hardware5radio5modem20BpRadioModemResponse26setRadioCapabilityResponseERKNS2_17RadioResponseInfoERKNS3_15RadioCapabilityE",
   "parameters" :
   [
    {
     "is_this_ptr" : true,
     "referenced_type" : "_ZTIPN4aidl7android8hardware5radio5modem20BpRadioModemResponseE"
    },
    {
     "referenced_type" : "_ZTIRKN4aidl7android8hardware5radio17RadioResponseInfoE"
    },
    {
     "referenced_type" : "_ZTIRKN4aidl7android8hardware5radio5modem15RadioCapabilityE"
    }
   ],
   "return_type" : "_ZTIN3ndk13ScopedAStatusE",
   "source_file" : "out/soong/.intermediates/hardware/interfaces/radio/aidl/android.hardware.radio.modem-V1-ndk-source/gen/include/aidl/android/hardware/radio/modem/BpRadioModemResponse.h"
  },
  {
   "function_name" : "aidl::android::hardware::radio::modem::BpRadioModemResponse::getModemStackStatusResponse",
   "linker_set_key" : "_ZN4aidl7android8hardware5radio5modem20BpRadioModemResponse27getModemStackStatusResponseERKNS2_17RadioResponseInfoEb",
   "parameters" :
   [
    {
     "is_this_ptr" : true,
     "referenced_type" : "_ZTIPN4aidl7android8hardware5radio5modem20BpRadioModemResponseE"
    },
    {
     "referenced_type" : "_ZTIRKN4aidl7android8hardware5radio17RadioResponseInfoE"
    },
    {
     "referenced_type" : "_ZTIb"
    }
   ],
   "return_type" : "_ZTIN3ndk13ScopedAStatusE",
   "source_file" : "out/soong/.intermediates/hardware/interfaces/radio/aidl/android.hardware.radio.modem-V1-ndk-source/gen/include/aidl/android/hardware/radio/modem/BpRadioModemResponse.h"
  },
  {
   "function_name" : "aidl::android::hardware::radio::modem::BpRadioModemResponse::getModemActivityInfoResponse",
   "linker_set_key" : "_ZN4aidl7android8hardware5radio5modem20BpRadioModemResponse28getModemActivityInfoResponseERKNS2_17RadioResponseInfoERKNS3_17ActivityStatsInfoE",
   "parameters" :
   [
    {
     "is_this_ptr" : true,
     "referenced_type" : "_ZTIPN4aidl7android8hardware5radio5modem20BpRadioModemResponseE"
    },
    {
     "referenced_type" : "_ZTIRKN4aidl7android8hardware5radio17RadioResponseInfoE"
    },
    {
     "referenced_type" : "_ZTIRKN4aidl7android8hardware5radio5modem17ActivityStatsInfoE"
    }
   ],
   "return_type" : "_ZTIN3ndk13ScopedAStatusE",
   "source_file" : "out/soong/.intermediates/hardware/interfaces/radio/aidl/android.hardware.radio.modem-V1-ndk-source/gen/include/aidl/android/hardware/radio/modem/BpRadioModemResponse.h"
  },
  {
   "function_name" : "aidl::android::hardware::radio::modem::BpRadioModemResponse::BpRadioModemResponse",
   "linker_set_key" : "_ZN4aidl7android8hardware5radio5modem20BpRadioModemResponseC1ERKN3ndk10SpAIBinderE",
   "parameters" :
   [
    {
     "is_this_ptr" : true,
     "referenced_type" : "_ZTIPN4aidl7android8hardware5radio5modem20BpRadioModemResponseE"
    },
    {
     "referenced_type" : "_ZTIRKN3ndk10SpAIBinderE"
    }
   ],
   "return_type" : "_ZTIv",
   "source_file" : "out/soong/.intermediates/hardware/interfaces/radio/aidl/android.hardware.radio.modem-V1-ndk-source/gen/include/aidl/android/hardware/radio/modem/BpRadioModemResponse.h"
  },
  {
   "function_name" : "aidl::android::hardware::radio::modem::BpRadioModemResponse::BpRadioModemResponse",
   "linker_set_key" : "_ZN4aidl7android8hardware5radio5modem20BpRadioModemResponseC2ERKN3ndk10SpAIBinderE",
   "parameters" :
   [
    {
     "is_this_ptr" : true,
     "referenced_type" : "_ZTIPN4aidl7android8hardware5radio5modem20BpRadioModemResponseE"
    },
    {
     "referenced_type" : "_ZTIRKN3ndk10SpAIBinderE"
    }
   ],
   "return_type" : "_ZTIv",
   "source_file" : "out/soong/.intermediates/hardware/interfaces/radio/aidl/android.hardware.radio.modem-V1-ndk-source/gen/include/aidl/android/hardware/radio/modem/BpRadioModemResponse.h"
  },
  {
   "function_name" : "aidl::android::hardware::radio::modem::BpRadioModemResponse::~BpRadioModemResponse",
   "linker_set_key" : "_ZN4aidl7android8hardware5radio5modem20BpRadioModemResponseD0Ev",
   "parameters" :
   [
    {
     "is_this_ptr" : true,
     "referenced_type" : "_ZTIPN4aidl7android8hardware5radio5modem20BpRadioModemResponseE"
    }
   ],
   "return_type" : "_ZTIv",
   "source_file" : "out/soong/.intermediates/hardware/interfaces/radio/aidl/android.hardware.radio.modem-V1-ndk-source/gen/include/aidl/android/hardware/radio/modem/BpRadioModemResponse.h"
  },
  {
   "function_name" : "aidl::android::hardware::radio::modem::BpRadioModemResponse::~BpRadioModemResponse",
   "linker_set_key" : "_ZN4aidl7android8hardware5radio5modem20BpRadioModemResponseD1Ev",
   "parameters" :
   [
    {
     "is_this_ptr" : true,
     "referenced_type" : "_ZTIPN4aidl7android8hardware5radio5modem20BpRadioModemResponseE"
    }
   ],
   "return_type" : "_ZTIv",
   "source_file" : "out/soong/.intermediates/hardware/interfaces/radio/aidl/android.hardware.radio.modem-V1-ndk-source/gen/include/aidl/android/hardware/radio/modem/BpRadioModemResponse.h"
  },
  {
   "function_name" : "aidl::android::hardware::radio::modem::BpRadioModemResponse::~BpRadioModemResponse",
   "linker_set_key" : "_ZN4aidl7android8hardware5radio5modem20BpRadioModemResponseD2Ev",
   "parameters" :
   [
    {
     "is_this_ptr" : true,
     "referenced_type" : "_ZTIPN4aidl7android8hardware5radio5modem20BpRadioModemResponseE"
    }
   ],
   "return_type" : "_ZTIv",
   "source_file" : "out/soong/.intermediates/hardware/interfaces/radio/aidl/android.hardware.radio.modem-V1-ndk-source/gen/include/aidl/android/hardware/radio/modem/BpRadioModemResponse.h"
  },
  {
   "function_name" : "aidl::android::hardware::radio::modem::IRadioModemIndication::fromBinder",
   "linker_set_key" : "_ZN4aidl7android8hardware5radio5modem21IRadioModemIndication10fromBinderERKN3ndk10SpAIBinderE",
   "parameters" :
   [
    {
     "referenced_type" : "_ZTIRKN3ndk10SpAIBinderE"
    }
   ],
   "return_type" : "_ZTINSt3__110shared_ptrIN4aidl7android8hardware5radio5modem21IRadioModemIndicationEEE",
   "source_file" : "out/soong/.intermediates/hardware/interfaces/radio/aidl/android.hardware.radio.modem-V1-ndk-source/gen/include/aidl/android/hardware/radio/modem/IRadioModemIndication.h"
  },
  {
   "function_name" : "aidl::android::hardware::radio::modem::IRadioModemIndication::writeToParcel",
   "linker_set_key" : "_ZN4aidl7android8hardware5radio5modem21IRadioModemIndication13writeToParcelEP7AParcelRKNSt3__110shared_ptrIS4_EE",
   "parameters" :
   [
    {
     "referenced_type" : "_ZTIP7AParcel"
    },
    {
     "referenced_type" : "_ZTIRKNSt3__110shared_ptrIN4aidl7android8hardware5radio5modem21IRadioModemIndicationEEE"
    }
   ],
   "return_type" : "_ZTIi",
   "source_file" : "out/soong/.intermediates/hardware/interfaces/radio/aidl/android.hardware.radio.modem-V1-ndk-source/gen/include/aidl/android/hardware/radio/modem/IRadioModemIndication.h"
  },
  {
   "function_name" : "aidl::android::hardware::radio::modem::IRadioModemIndication::getDefaultImpl",
   "linker_set_key" : "_ZN4aidl7android8hardware5radio5modem21IRadioModemIndication14getDefaultImplEv",
   "return_type" : "_ZTIRKNSt3__110shared_ptrIN4aidl7android8hardware5radio5modem21IRadioModemIndicationEEE",
   "source_file" : "out/soong/.intermediates/hardware/interfaces/radio/aidl/android.hardware.radio.modem-V1-ndk-source/gen/include/aidl/android/hardware/radio/modem/IRadioModemIndication.h"
  },
  {
   "function_name" : "aidl::android::hardware::radio::modem::IRadioModemIndication::readFromParcel",
   "linker_set_key" : "_ZN4aidl7android8hardware5radio5modem21IRadioModemIndication14readFromParcelEPK7AParcelPNSt3__110shared_ptrIS4_EE",
   "parameters" :
   [
    {
     "referenced_type" : "_ZTIPK7AParcel"
    },
    {
     "referenced_type" : "_ZTIPNSt3__110shared_ptrIN4aidl7android8hardware5radio5modem21IRadioModemIndicationEEE"
    }
   ],
   "return_type" : "_ZTIi",
   "source_file" : "out/soong/.intermediates/hardware/interfaces/radio/aidl/android.hardware.radio.modem-V1-ndk-source/gen/include/aidl/android/hardware/radio/modem/IRadioModemIndication.h"
  },
  {
   "function_name" : "aidl::android::hardware::radio::modem::IRadioModemIndication::setDefaultImpl",
   "linker_set_key" : "_ZN4aidl7android8hardware5radio5modem21IRadioModemIndication14setDefaultImplERKNSt3__110shared_ptrIS4_EE",
   "parameters" :
   [
    {
     "referenced_type" : "_ZTIRKNSt3__110shared_ptrIN4aidl7android8hardware5radio5modem21IRadioModemIndicationEEE"
    }
   ],
   "return_type" : "_ZTIb",
   "source_file" : "out/soong/.intermediates/hardware/interfaces/radio/aidl/android.hardware.radio.modem-V1-ndk-source/gen/include/aidl/android/hardware/radio/modem/IRadioModemIndication.h"
  },
  {
   "function_name" : "aidl::android::hardware::radio::modem::IRadioModemIndication::IRadioModemIndication",
   "linker_set_key" : "_ZN4aidl7android8hardware5radio5modem21IRadioModemIndicationC2Ev",
   "parameters" :
   [
    {
     "is_this_ptr" : true,
     "referenced_type" : "_ZTIPN4aidl7android8hardware5radio5modem21IRadioModemIndicationE"
    }
   ],
   "return_type" : "_ZTIv",
   "source_file" : "out/soong/.intermediates/hardware/interfaces/radio/aidl/android.hardware.radio.modem-V1-ndk-source/gen/include/aidl/android/hardware/radio/modem/IRadioModemIndication.h"
  },
  {
   "function_name" : "aidl::android::hardware::radio::modem::IRadioModemIndication::~IRadioModemIndication",
   "linker_set_key" : "_ZN4aidl7android8hardware5radio5modem21IRadioModemIndicationD0Ev",
   "parameters" :
   [
    {
     "is_this_ptr" : true,
     "referenced_type" : "_ZTIPN4aidl7android8hardware5radio5modem21IRadioModemIndicationE"
    }
   ],
   "return_type" : "_ZTIv",
   "source_file" : "out/soong/.intermediates/hardware/interfaces/radio/aidl/android.hardware.radio.modem-V1-ndk-source/gen/include/aidl/android/hardware/radio/modem/IRadioModemIndication.h"
  },
  {
   "function_name" : "aidl::android::hardware::radio::modem::IRadioModemIndication::~IRadioModemIndication",
   "linker_set_key" : "_ZN4aidl7android8hardware5radio5modem21IRadioModemIndicationD1Ev",
   "parameters" :
   [
    {
     "is_this_ptr" : true,
     "referenced_type" : "_ZTIPN4aidl7android8hardware5radio5modem21IRadioModemIndicationE"
    }
   ],
   "return_type" : "_ZTIv",
   "source_file" : "out/soong/.intermediates/hardware/interfaces/radio/aidl/android.hardware.radio.modem-V1-ndk-source/gen/include/aidl/android/hardware/radio/modem/IRadioModemIndication.h"
  },
  {
   "function_name" : "aidl::android::hardware::radio::modem::IRadioModemIndication::~IRadioModemIndication",
   "linker_set_key" : "_ZN4aidl7android8hardware5radio5modem21IRadioModemIndicationD2Ev",
   "parameters" :
   [
    {
     "is_this_ptr" : true,
     "referenced_type" : "_ZTIPN4aidl7android8hardware5radio5modem21IRadioModemIndicationE"
    }
   ],
   "return_type" : "_ZTIv",
   "source_file" : "out/soong/.intermediates/hardware/interfaces/radio/aidl/android.hardware.radio.modem-V1-ndk-source/gen/include/aidl/android/hardware/radio/modem/IRadioModemIndication.h"
  },
  {
   "access" : "protected",
   "function_name" : "aidl::android::hardware::radio::modem::BnRadioModemIndication::createBinder",
   "linker_set_key" : "_ZN4aidl7android8hardware5radio5modem22BnRadioModemIndication12createBinderEv",
   "parameters" :
   [
    {
     "is_this_ptr" : true,
     "referenced_type" : "_ZTIPN4aidl7android8hardware5radio5modem22BnRadioModemIndicationE"
    }
   ],
   "return_type" : "_ZTIN3ndk10SpAIBinderE",
   "source_file" : "out/soong/.intermediates/hardware/interfaces/radio/aidl/android.hardware.radio.modem-V1-ndk-source/gen/include/aidl/android/hardware/radio/modem/BnRadioModemIndication.h"
  },
  {
   "function_name" : "aidl::android::hardware::radio::modem::BnRadioModemIndication::getInterfaceHash",
   "linker_set_key" : "_ZN4aidl7android8hardware5radio5modem22BnRadioModemIndication16getInterfaceHashEPNSt3__112basic_stringIcNS5_11char_traitsIcEENS5_9allocatorIcEEEE",
   "parameters" :
   [
    {
     "is_this_ptr" : true,
     "referenced_type" : "_ZTIPN4aidl7android8hardware5radio5modem22BnRadioModemIndicationE"
    },
    {
     "referenced_type" : "_ZTIPNSt3__112basic_stringIcNS_11char_traitsIcEENS_9allocatorIcEEEE"
    }
   ],
   "return_type" : "_ZTIN3ndk13ScopedAStatusE",
   "source_file" : "out/soong/.intermediates/hardware/interfaces/radio/aidl/android.hardware.radio.modem-V1-ndk-source/gen/include/aidl/android/hardware/radio/modem/BnRadioModemIndication.h"
  },
  {
   "function_name" : "aidl::android::hardware::radio::modem::BnRadioModemIndication::getInterfaceVersion",
   "linker_set_key" : "_ZN4aidl7android8hardware5radio5modem22BnRadioModemIndication19getInterfaceVersionEPi",
   "parameters" :
   [
    {
     "is_this_ptr" : true,
     "referenced_type" : "_ZTIPN4aidl7android8hardware5radio5modem22BnRadioModemIndicationE"
    },
    {
     "referenced_type" : "_ZTIPi"
    }
   ],
   "return_type" : "_ZTIN3ndk13ScopedAStatusE",
   "source_file" : "out/soong/.intermediates/hardware/interfaces/radio/aidl/android.hardware.radio.modem-V1-ndk-source/gen/include/aidl/android/hardware/radio/modem/BnRadioModemIndication.h"
  },
  {
   "function_name" : "aidl::android::hardware::radio::modem::BnRadioModemIndication::BnRadioModemIndication",
   "linker_set_key" : "_ZN4aidl7android8hardware5radio5modem22BnRadioModemIndicationC2Ev",
   "parameters" :
   [
    {
     "is_this_ptr" : true,
     "referenced_type" : "_ZTIPN4aidl7android8hardware5radio5modem22BnRadioModemIndicationE"
    }
   ],
   "return_type" : "_ZTIv",
   "source_file" : "out/soong/.intermediates/hardware/interfaces/radio/aidl/android.hardware.radio.modem-V1-ndk-source/gen/include/aidl/android/hardware/radio/modem/BnRadioModemIndication.h"
  },
  {
   "function_name" : "aidl::android::hardware::radio::modem::BnRadioModemIndication::~BnRadioModemIndication",
   "linker_set_key" : "_ZN4aidl7android8hardware5radio5modem22BnRadioModemIndicationD0Ev",
   "parameters" :
   [
    {
     "is_this_ptr" : true,
     "referenced_type" : "_ZTIPN4aidl7android8hardware5radio5modem22BnRadioModemIndicationE"
    }
   ],
   "return_type" : "_ZTIv",
   "source_file" : "out/soong/.intermediates/hardware/interfaces/radio/aidl/android.hardware.radio.modem-V1-ndk-source/gen/include/aidl/android/hardware/radio/modem/BnRadioModemIndication.h"
  },
  {
   "function_name" : "aidl::android::hardware::radio::modem::BnRadioModemIndication::~BnRadioModemIndication",
   "linker_set_key" : "_ZN4aidl7android8hardware5radio5modem22BnRadioModemIndicationD1Ev",
   "parameters" :
   [
    {
     "is_this_ptr" : true,
     "referenced_type" : "_ZTIPN4aidl7android8hardware5radio5modem22BnRadioModemIndicationE"
    }
   ],
   "return_type" : "_ZTIv",
   "source_file" : "out/soong/.intermediates/hardware/interfaces/radio/aidl/android.hardware.radio.modem-V1-ndk-source/gen/include/aidl/android/hardware/radio/modem/BnRadioModemIndication.h"
  },
  {
   "function_name" : "aidl::android::hardware::radio::modem::BnRadioModemIndication::~BnRadioModemIndication",
   "linker_set_key" : "_ZN4aidl7android8hardware5radio5modem22BnRadioModemIndicationD2Ev",
   "parameters" :
   [
    {
     "is_this_ptr" : true,
     "referenced_type" : "_ZTIPN4aidl7android8hardware5radio5modem22BnRadioModemIndicationE"
    }
   ],
   "return_type" : "_ZTIv",
   "source_file" : "out/soong/.intermediates/hardware/interfaces/radio/aidl/android.hardware.radio.modem-V1-ndk-source/gen/include/aidl/android/hardware/radio/modem/BnRadioModemIndication.h"
  },
  {
   "function_name" : "aidl::android::hardware::radio::modem::BpRadioModemIndication::modemReset",
   "linker_set_key" : "_ZN4aidl7android8hardware5radio5modem22BpRadioModemIndication10modemResetENS2_19RadioIndicationTypeERKNSt3__112basic_stringIcNS6_11char_traitsIcEENS6_9allocatorIcEEEE",
   "parameters" :
   [
    {
     "is_this_ptr" : true,
     "referenced_type" : "_ZTIPN4aidl7android8hardware5radio5modem22BpRadioModemIndicationE"
    },
    {
     "referenced_type" : "_ZTIN4aidl7android8hardware5radio19RadioIndicationTypeE"
    },
    {
     "referenced_type" : "_ZTIRKNSt3__112basic_stringIcNS_11char_traitsIcEENS_9allocatorIcEEEE"
    }
   ],
   "return_type" : "_ZTIN3ndk13ScopedAStatusE",
   "source_file" : "out/soong/.intermediates/hardware/interfaces/radio/aidl/android.hardware.radio.modem-V1-ndk-source/gen/include/aidl/android/hardware/radio/modem/BpRadioModemIndication.h"
  },
  {
   "function_name" : "aidl::android::hardware::radio::modem::BpRadioModemIndication::rilConnected",
   "linker_set_key" : "_ZN4aidl7android8hardware5radio5modem22BpRadioModemIndication12rilConnectedENS2_19RadioIndicationTypeE",
   "parameters" :
   [
    {
     "is_this_ptr" : true,
     "referenced_type" : "_ZTIPN4aidl7android8hardware5radio5modem22BpRadioModemIndicationE"
    },
    {
     "referenced_type" : "_ZTIN4aidl7android8hardware5radio19RadioIndicationTypeE"
    }
   ],
   "return_type" : "_ZTIN3ndk13ScopedAStatusE",
   "source_file" : "out/soong/.intermediates/hardware/interfaces/radio/aidl/android.hardware.radio.modem-V1-ndk-source/gen/include/aidl/android/hardware/radio/modem/BpRadioModemIndication.h"
  },
  {
   "function_name" : "aidl::android::hardware::radio::modem::BpRadioModemIndication::getInterfaceHash",
   "linker_set_key" : "_ZN4aidl7android8hardware5radio5modem22BpRadioModemIndication16getInterfaceHashEPNSt3__112basic_stringIcNS5_11char_traitsIcEENS5_9allocatorIcEEEE",
   "parameters" :
   [
    {
     "is_this_ptr" : true,
     "referenced_type" : "_ZTIPN4aidl7android8hardware5radio5modem22BpRadioModemIndicationE"
    },
    {
     "referenced_type" : "_ZTIPNSt3__112basic_stringIcNS_11char_traitsIcEENS_9allocatorIcEEEE"
    }
   ],
   "return_type" : "_ZTIN3ndk13ScopedAStatusE",
   "source_file" : "out/soong/.intermediates/hardware/interfaces/radio/aidl/android.hardware.radio.modem-V1-ndk-source/gen/include/aidl/android/hardware/radio/modem/BpRadioModemIndication.h"
  },
  {
   "function_name" : "aidl::android::hardware::radio::modem::BpRadioModemIndication::radioStateChanged",
   "linker_set_key" : "_ZN4aidl7android8hardware5radio5modem22BpRadioModemIndication17radioStateChangedENS2_19RadioIndicationTypeENS3_10RadioStateE",
   "parameters" :
   [
    {
     "is_this_ptr" : true,
     "referenced_type" : "_ZTIPN4aidl7android8hardware5radio5modem22BpRadioModemIndicationE"
    },
    {
     "referenced_type" : "_ZTIN4aidl7android8hardware5radio19RadioIndicationTypeE"
    },
    {
     "referenced_type" : "_ZTIN4aidl7android8hardware5radio5modem10RadioStateE"
    }
   ],
   "return_type" : "_ZTIN3ndk13ScopedAStatusE",
   "source_file" : "out/soong/.intermediates/hardware/interfaces/radio/aidl/android.hardware.radio.modem-V1-ndk-source/gen/include/aidl/android/hardware/radio/modem/BpRadioModemIndication.h"
  },
  {
   "function_name" : "aidl::android::hardware::radio::modem::BpRadioModemIndication::getInterfaceVersion",
   "linker_set_key" : "_ZN4aidl7android8hardware5radio5modem22BpRadioModemIndication19getInterfaceVersionEPi",
   "parameters" :
   [
    {
     "is_this_ptr" : true,
     "referenced_type" : "_ZTIPN4aidl7android8hardware5radio5modem22BpRadioModemIndicationE"
    },
    {
     "referenced_type" : "_ZTIPi"
    }
   ],
   "return_type" : "_ZTIN3ndk13ScopedAStatusE",
   "source_file" : "out/soong/.intermediates/hardware/interfaces/radio/aidl/android.hardware.radio.modem-V1-ndk-source/gen/include/aidl/android/hardware/radio/modem/BpRadioModemIndication.h"
  },
  {
   "function_name" : "aidl::android::hardware::radio::modem::BpRadioModemIndication::hardwareConfigChanged",
   "linker_set_key" : "_ZN4aidl7android8hardware5radio5modem22BpRadioModemIndication21hardwareConfigChangedENS2_19RadioIndicationTypeERKNSt3__16vectorINS3_14HardwareConfigENS6_9allocatorIS8_EEEE",
   "parameters" :
   [
    {
     "is_this_ptr" : true,
     "referenced_type" : "_ZTIPN4aidl7android8hardware5radio5modem22BpRadioModemIndicationE"
    },
    {
     "referenced_type" : "_ZTIN4aidl7android8hardware5radio19RadioIndicationTypeE"
    },
    {
     "referenced_type" : "_ZTIRKNSt3__16vectorIN4aidl7android8hardware5radio5modem14HardwareConfigENS_9allocatorIS6_EEEE"
    }
   ],
   "return_type" : "_ZTIN3ndk13ScopedAStatusE",
   "source_file" : "out/soong/.intermediates/hardware/interfaces/radio/aidl/android.hardware.radio.modem-V1-ndk-source/gen/include/aidl/android/hardware/radio/modem/BpRadioModemIndication.h"
  },
  {
   "function_name" : "aidl::android::hardware::radio::modem::BpRadioModemIndication::radioCapabilityIndication",
   "linker_set_key" : "_ZN4aidl7android8hardware5radio5modem22BpRadioModemIndication25radioCapabilityIndicationENS2_19RadioIndicationTypeERKNS3_15RadioCapabilityE",
   "parameters" :
   [
    {
     "is_this_ptr" : true,
     "referenced_type" : "_ZTIPN4aidl7android8hardware5radio5modem22BpRadioModemIndicationE"
    },
    {
     "referenced_type" : "_ZTIN4aidl7android8hardware5radio19RadioIndicationTypeE"
    },
    {
     "referenced_type" : "_ZTIRKN4aidl7android8hardware5radio5modem15RadioCapabilityE"
    }
   ],
   "return_type" : "_ZTIN3ndk13ScopedAStatusE",
   "source_file" : "out/soong/.intermediates/hardware/interfaces/radio/aidl/android.hardware.radio.modem-V1-ndk-source/gen/include/aidl/android/hardware/radio/modem/BpRadioModemIndication.h"
  },
  {
   "function_name" : "aidl::android::hardware::radio::modem::BpRadioModemIndication::BpRadioModemIndication",
   "linker_set_key" : "_ZN4aidl7android8hardware5radio5modem22BpRadioModemIndicationC1ERKN3ndk10SpAIBinderE",
   "parameters" :
   [
    {
     "is_this_ptr" : true,
     "referenced_type" : "_ZTIPN4aidl7android8hardware5radio5modem22BpRadioModemIndicationE"
    },
    {
     "referenced_type" : "_ZTIRKN3ndk10SpAIBinderE"
    }
   ],
   "return_type" : "_ZTIv",
   "source_file" : "out/soong/.intermediates/hardware/interfaces/radio/aidl/android.hardware.radio.modem-V1-ndk-source/gen/include/aidl/android/hardware/radio/modem/BpRadioModemIndication.h"
  },
  {
   "function_name" : "aidl::android::hardware::radio::modem::BpRadioModemIndication::BpRadioModemIndication",
   "linker_set_key" : "_ZN4aidl7android8hardware5radio5modem22BpRadioModemIndicationC2ERKN3ndk10SpAIBinderE",
   "parameters" :
   [
    {
     "is_this_ptr" : true,
     "referenced_type" : "_ZTIPN4aidl7android8hardware5radio5modem22BpRadioModemIndicationE"
    },
    {
     "referenced_type" : "_ZTIRKN3ndk10SpAIBinderE"
    }
   ],
   "return_type" : "_ZTIv",
   "source_file" : "out/soong/.intermediates/hardware/interfaces/radio/aidl/android.hardware.radio.modem-V1-ndk-source/gen/include/aidl/android/hardware/radio/modem/BpRadioModemIndication.h"
  },
  {
   "function_name" : "aidl::android::hardware::radio::modem::BpRadioModemIndication::~BpRadioModemIndication",
   "linker_set_key" : "_ZN4aidl7android8hardware5radio5modem22BpRadioModemIndicationD0Ev",
   "parameters" :
   [
    {
     "is_this_ptr" : true,
     "referenced_type" : "_ZTIPN4aidl7android8hardware5radio5modem22BpRadioModemIndicationE"
    }
   ],
   "return_type" : "_ZTIv",
   "source_file" : "out/soong/.intermediates/hardware/interfaces/radio/aidl/android.hardware.radio.modem-V1-ndk-source/gen/include/aidl/android/hardware/radio/modem/BpRadioModemIndication.h"
  },
  {
   "function_name" : "aidl::android::hardware::radio::modem::BpRadioModemIndication::~BpRadioModemIndication",
   "linker_set_key" : "_ZN4aidl7android8hardware5radio5modem22BpRadioModemIndicationD1Ev",
   "parameters" :
   [
    {
     "is_this_ptr" : true,
     "referenced_type" : "_ZTIPN4aidl7android8hardware5radio5modem22BpRadioModemIndicationE"
    }
   ],
   "return_type" : "_ZTIv",
   "source_file" : "out/soong/.intermediates/hardware/interfaces/radio/aidl/android.hardware.radio.modem-V1-ndk-source/gen/include/aidl/android/hardware/radio/modem/BpRadioModemIndication.h"
  },
  {
   "function_name" : "aidl::android::hardware::radio::modem::BpRadioModemIndication::~BpRadioModemIndication",
   "linker_set_key" : "_ZN4aidl7android8hardware5radio5modem22BpRadioModemIndicationD2Ev",
   "parameters" :
   [
    {
     "is_this_ptr" : true,
     "referenced_type" : "_ZTIPN4aidl7android8hardware5radio5modem22BpRadioModemIndicationE"
    }
   ],
   "return_type" : "_ZTIv",
   "source_file" : "out/soong/.intermediates/hardware/interfaces/radio/aidl/android.hardware.radio.modem-V1-ndk-source/gen/include/aidl/android/hardware/radio/modem/BpRadioModemIndication.h"
  },
  {
   "function_name" : "aidl::android::hardware::radio::modem::IRadioModemResponseDefault::getInterfaceHash",
   "linker_set_key" : "_ZN4aidl7android8hardware5radio5modem26IRadioModemResponseDefault16getInterfaceHashEPNSt3__112basic_stringIcNS5_11char_traitsIcEENS5_9allocatorIcEEEE",
   "parameters" :
   [
    {
     "is_this_ptr" : true,
     "referenced_type" : "_ZTIPN4aidl7android8hardware5radio5modem26IRadioModemResponseDefaultE"
    },
    {
     "referenced_type" : "_ZTIPNSt3__112basic_stringIcNS_11char_traitsIcEENS_9allocatorIcEEEE"
    }
   ],
   "return_type" : "_ZTIN3ndk13ScopedAStatusE",
   "source_file" : "out/soong/.intermediates/hardware/interfaces/radio/aidl/android.hardware.radio.modem-V1-ndk-source/gen/include/aidl/android/hardware/radio/modem/IRadioModemResponse.h"
  },
  {
   "function_name" : "aidl::android::hardware::radio::modem::IRadioModemResponseDefault::acknowledgeRequest",
   "linker_set_key" : "_ZN4aidl7android8hardware5radio5modem26IRadioModemResponseDefault18acknowledgeRequestEi",
   "parameters" :
   [
    {
     "is_this_ptr" : true,
     "referenced_type" : "_ZTIPN4aidl7android8hardware5radio5modem26IRadioModemResponseDefaultE"
    },
    {
     "referenced_type" : "_ZTIi"
    }
   ],
   "return_type" : "_ZTIN3ndk13ScopedAStatusE",
   "source_file" : "out/soong/.intermediates/hardware/interfaces/radio/aidl/android.hardware.radio.modem-V1-ndk-source/gen/include/aidl/android/hardware/radio/modem/IRadioModemResponse.h"
  },
  {
   "function_name" : "aidl::android::hardware::radio::modem::IRadioModemResponseDefault::nvReadItemResponse",
   "linker_set_key" : "_ZN4aidl7android8hardware5radio5modem26IRadioModemResponseDefault18nvReadItemResponseERKNS2_17RadioResponseInfoERKNSt3__112basic_stringIcNS8_11char_traitsIcEENS8_9allocatorIcEEEE",
   "parameters" :
   [
    {
     "is_this_ptr" : true,
     "referenced_type" : "_ZTIPN4aidl7android8hardware5radio5modem26IRadioModemResponseDefaultE"
    },
    {
     "referenced_type" : "_ZTIRKN4aidl7android8hardware5radio17RadioResponseInfoE"
    },
    {
     "referenced_type" : "_ZTIRKNSt3__112basic_stringIcNS_11char_traitsIcEENS_9allocatorIcEEEE"
    }
   ],
   "return_type" : "_ZTIN3ndk13ScopedAStatusE",
   "source_file" : "out/soong/.intermediates/hardware/interfaces/radio/aidl/android.hardware.radio.modem-V1-ndk-source/gen/include/aidl/android/hardware/radio/modem/IRadioModemResponse.h"
  },
  {
   "function_name" : "aidl::android::hardware::radio::modem::IRadioModemResponseDefault::enableModemResponse",
   "linker_set_key" : "_ZN4aidl7android8hardware5radio5modem26IRadioModemResponseDefault19enableModemResponseERKNS2_17RadioResponseInfoE",
   "parameters" :
   [
    {
     "is_this_ptr" : true,
     "referenced_type" : "_ZTIPN4aidl7android8hardware5radio5modem26IRadioModemResponseDefaultE"
    },
    {
     "referenced_type" : "_ZTIRKN4aidl7android8hardware5radio17RadioResponseInfoE"
    }
   ],
   "return_type" : "_ZTIN3ndk13ScopedAStatusE",
   "source_file" : "out/soong/.intermediates/hardware/interfaces/radio/aidl/android.hardware.radio.modem-V1-ndk-source/gen/include/aidl/android/hardware/radio/modem/IRadioModemResponse.h"
  },
  {
   "function_name" : "aidl::android::hardware::radio::modem::IRadioModemResponseDefault::getInterfaceVersion",
   "linker_set_key" : "_ZN4aidl7android8hardware5radio5modem26IRadioModemResponseDefault19getInterfaceVersionEPi",
   "parameters" :
   [
    {
     "is_this_ptr" : true,
     "referenced_type" : "_ZTIPN4aidl7android8hardware5radio5modem26IRadioModemResponseDefaultE"
    },
    {
     "referenced_type" : "_ZTIPi"
    }
   ],
   "return_type" : "_ZTIN3ndk13ScopedAStatusE",
   "source_file" : "out/soong/.intermediates/hardware/interfaces/radio/aidl/android.hardware.radio.modem-V1-ndk-source/gen/include/aidl/android/hardware/radio/modem/IRadioModemResponse.h"
  },
  {
   "function_name" : "aidl::android::hardware::radio::modem::IRadioModemResponseDefault::nvWriteItemResponse",
   "linker_set_key" : "_ZN4aidl7android8hardware5radio5modem26IRadioModemResponseDefault19nvWriteItemResponseERKNS2_17RadioResponseInfoE",
   "parameters" :
   [
    {
     "is_this_ptr" : true,
     "referenced_type" : "_ZTIPN4aidl7android8hardware5radio5modem26IRadioModemResponseDefaultE"
    },
    {
     "referenced_type" : "_ZTIRKN4aidl7android8hardware5radio17RadioResponseInfoE"
    }
   ],
   "return_type" : "_ZTIN3ndk13ScopedAStatusE",
   "source_file" : "out/soong/.intermediates/hardware/interfaces/radio/aidl/android.hardware.radio.modem-V1-ndk-source/gen/include/aidl/android/hardware/radio/modem/IRadioModemResponse.h"
  },
  {
   "function_name" : "aidl::android::hardware::radio::modem::IRadioModemResponseDefault::nvResetConfigResponse",
   "linker_set_key" : "_ZN4aidl7android8hardware5radio5modem26IRadioModemResponseDefault21nvResetConfigResponseERKNS2_17RadioResponseInfoE",
   "parameters" :
   [
    {
     "is_this_ptr" : true,
     "referenced_type" : "_ZTIPN4aidl7android8hardware5radio5modem26IRadioModemResponseDefaultE"
    },
    {
     "referenced_type" : "_ZTIRKN4aidl7android8hardware5radio17RadioResponseInfoE"
    }
   ],
   "return_type" : "_ZTIN3ndk13ScopedAStatusE",
   "source_file" : "out/soong/.intermediates/hardware/interfaces/radio/aidl/android.hardware.radio.modem-V1-ndk-source/gen/include/aidl/android/hardware/radio/modem/IRadioModemResponse.h"
  },
  {
   "function_name" : "aidl::android::hardware::radio::modem::IRadioModemResponseDefault::setRadioPowerResponse",
   "linker_set_key" : "_ZN4aidl7android8hardware5radio5modem26IRadioModemResponseDefault21setRadioPowerResponseERKNS2_17RadioResponseInfoE",
   "parameters" :
   [
    {
     "is_this_ptr" : true,
     "referenced_type" : "_ZTIPN4aidl7android8hardware5radio5modem26IRadioModemResponseDefaultE"
    },
    {
     "referenced_type" : "_ZTIRKN4aidl7android8hardware5radio17RadioResponseInfoE"
    }
   ],
   "return_type" : "_ZTIN3ndk13ScopedAStatusE",
   "source_file" : "out/soong/.intermediates/hardware/interfaces/radio/aidl/android.hardware.radio.modem-V1-ndk-source/gen/include/aidl/android/hardware/radio/modem/IRadioModemResponse.h"
  },
  {
   "function_name" : "aidl::android::hardware::radio::modem::IRadioModemResponseDefault::nvWriteCdmaPrlResponse",
   "linker_set_key" : "_ZN4aidl7android8hardware5radio5modem26IRadioModemResponseDefault22nvWriteCdmaPrlResponseERKNS2_17RadioResponseInfoE",
   "parameters" :
   [
    {
     "is_this_ptr" : true,
     "referenced_type" : "_ZTIPN4aidl7android8hardware5radio5modem26IRadioModemResponseDefaultE"
    },
    {
     "referenced_type" : "_ZTIRKN4aidl7android8hardware5radio17RadioResponseInfoE"
    }
   ],
   "return_type" : "_ZTIN3ndk13ScopedAStatusE",
   "source_file" : "out/soong/.intermediates/hardware/interfaces/radio/aidl/android.hardware.radio.modem-V1-ndk-source/gen/include/aidl/android/hardware/radio/modem/IRadioModemResponse.h"
  },
  {
   "function_name" : "aidl::android::hardware::radio::modem::IRadioModemResponseDefault::requestShutdownResponse",
   "linker_set_key" : "_ZN4aidl7android8hardware5radio5modem26IRadioModemResponseDefault23requestShutdownResponseERKNS2_17RadioResponseInfoE",
   "parameters" :
   [
    {
     "is_this_ptr" : true,
     "referenced_type" : "_ZTIPN4aidl7android8hardware5radio5modem26IRadioModemResponseDefaultE"
    },
    {
     "referenced_type" : "_ZTIRKN4aidl7android8hardware5radio17RadioResponseInfoE"
    }
   ],
   "return_type" : "_ZTIN3ndk13ScopedAStatusE",
   "source_file" : "out/soong/.intermediates/hardware/interfaces/radio/aidl/android.hardware.radio.modem-V1-ndk-source/gen/include/aidl/android/hardware/radio/modem/IRadioModemResponse.h"
  },
  {
   "function_name" : "aidl::android::hardware::radio::modem::IRadioModemResponseDefault::sendDeviceStateResponse",
   "linker_set_key" : "_ZN4aidl7android8hardware5radio5modem26IRadioModemResponseDefault23sendDeviceStateResponseERKNS2_17RadioResponseInfoE",
   "parameters" :
   [
    {
     "is_this_ptr" : true,
     "referenced_type" : "_ZTIPN4aidl7android8hardware5radio5modem26IRadioModemResponseDefaultE"
    },
    {
     "referenced_type" : "_ZTIRKN4aidl7android8hardware5radio17RadioResponseInfoE"
    }
   ],
   "return_type" : "_ZTIN3ndk13ScopedAStatusE",
   "source_file" : "out/soong/.intermediates/hardware/interfaces/radio/aidl/android.hardware.radio.modem-V1-ndk-source/gen/include/aidl/android/hardware/radio/modem/IRadioModemResponse.h"
  },
  {
   "function_name" : "aidl::android::hardware::radio::modem::IRadioModemResponseDefault::getDeviceIdentityResponse",
   "linker_set_key" : "_ZN4aidl7android8hardware5radio5modem26IRadioModemResponseDefault25getDeviceIdentityResponseERKNS2_17RadioResponseInfoERKNSt3__112basic_stringIcNS8_11char_traitsIcEENS8_9allocatorIcEEEESG_SG_SG_",
   "parameters" :
   [
    {
     "is_this_ptr" : true,
     "referenced_type" : "_ZTIPN4aidl7android8hardware5radio5modem26IRadioModemResponseDefaultE"
    },
    {
     "referenced_type" : "_ZTIRKN4aidl7android8hardware5radio17RadioResponseInfoE"
    },
    {
     "referenced_type" : "_ZTIRKNSt3__112basic_stringIcNS_11char_traitsIcEENS_9allocatorIcEEEE"
    },
    {
     "referenced_type" : "_ZTIRKNSt3__112basic_stringIcNS_11char_traitsIcEENS_9allocatorIcEEEE"
    },
    {
     "referenced_type" : "_ZTIRKNSt3__112basic_stringIcNS_11char_traitsIcEENS_9allocatorIcEEEE"
    },
    {
     "referenced_type" : "_ZTIRKNSt3__112basic_stringIcNS_11char_traitsIcEENS_9allocatorIcEEEE"
    }
   ],
   "return_type" : "_ZTIN3ndk13ScopedAStatusE",
   "source_file" : "out/soong/.intermediates/hardware/interfaces/radio/aidl/android.hardware.radio.modem-V1-ndk-source/gen/include/aidl/android/hardware/radio/modem/IRadioModemResponse.h"
  },
  {
   "function_name" : "aidl::android::hardware::radio::modem::IRadioModemResponseDefault::getHardwareConfigResponse",
   "linker_set_key" : "_ZN4aidl7android8hardware5radio5modem26IRadioModemResponseDefault25getHardwareConfigResponseERKNS2_17RadioResponseInfoERKNSt3__16vectorINS3_14HardwareConfigENS8_9allocatorISA_EEEE",
   "parameters" :
   [
    {
     "is_this_ptr" : true,
     "referenced_type" : "_ZTIPN4aidl7android8hardware5radio5modem26IRadioModemResponseDefaultE"
    },
    {
     "referenced_type" : "_ZTIRKN4aidl7android8hardware5radio17RadioResponseInfoE"
    },
    {
     "referenced_type" : "_ZTIRKNSt3__16vectorIN4aidl7android8hardware5radio5modem14HardwareConfigENS_9allocatorIS6_EEEE"
    }
   ],
   "return_type" : "_ZTIN3ndk13ScopedAStatusE",
   "source_file" : "out/soong/.intermediates/hardware/interfaces/radio/aidl/android.hardware.radio.modem-V1-ndk-source/gen/include/aidl/android/hardware/radio/modem/IRadioModemResponse.h"
  },
  {
   "function_name" : "aidl::android::hardware::radio::modem::IRadioModemResponseDefault::getBasebandVersionResponse",
   "linker_set_key" : "_ZN4aidl7android8hardware5radio5modem26IRadioModemResponseDefault26getBasebandVersionResponseERKNS2_17RadioResponseInfoERKNSt3__112basic_stringIcNS8_11char_traitsIcEENS8_9allocatorIcEEEE",
   "parameters" :
   [
    {
     "is_this_ptr" : true,
     "referenced_type" : "_ZTIPN4aidl7android8hardware5radio5modem26IRadioModemResponseDefaultE"
    },
    {
     "referenced_type" : "_ZTIRKN4aidl7android8hardware5radio17RadioResponseInfoE"
    },
    {
     "referenced_type" : "_ZTIRKNSt3__112basic_stringIcNS_11char_traitsIcEENS_9allocatorIcEEEE"
    }
   ],
   "return_type" : "_ZTIN3ndk13ScopedAStatusE",
   "source_file" : "out/soong/.intermediates/hardware/interfaces/radio/aidl/android.hardware.radio.modem-V1-ndk-source/gen/include/aidl/android/hardware/radio/modem/IRadioModemResponse.h"
  },
  {
   "function_name" : "aidl::android::hardware::radio::modem::IRadioModemResponseDefault::getRadioCapabilityResponse",
   "linker_set_key" : "_ZN4aidl7android8hardware5radio5modem26IRadioModemResponseDefault26getRadioCapabilityResponseERKNS2_17RadioResponseInfoERKNS3_15RadioCapabilityE",
   "parameters" :
   [
    {
     "is_this_ptr" : true,
     "referenced_type" : "_ZTIPN4aidl7android8hardware5radio5modem26IRadioModemResponseDefaultE"
    },
    {
     "referenced_type" : "_ZTIRKN4aidl7android8hardware5radio17RadioResponseInfoE"
    },
    {
     "referenced_type" : "_ZTIRKN4aidl7android8hardware5radio5modem15RadioCapabilityE"
    }
   ],
   "return_type" : "_ZTIN3ndk13ScopedAStatusE",
   "source_file" : "out/soong/.intermediates/hardware/interfaces/radio/aidl/android.hardware.radio.modem-V1-ndk-source/gen/include/aidl/android/hardware/radio/modem/IRadioModemResponse.h"
  },
  {
   "function_name" : "aidl::android::hardware::radio::modem::IRadioModemResponseDefault::setRadioCapabilityResponse",
   "linker_set_key" : "_ZN4aidl7android8hardware5radio5modem26IRadioModemResponseDefault26setRadioCapabilityResponseERKNS2_17RadioResponseInfoERKNS3_15RadioCapabilityE",
   "parameters" :
   [
    {
     "is_this_ptr" : true,
     "referenced_type" : "_ZTIPN4aidl7android8hardware5radio5modem26IRadioModemResponseDefaultE"
    },
    {
     "referenced_type" : "_ZTIRKN4aidl7android8hardware5radio17RadioResponseInfoE"
    },
    {
     "referenced_type" : "_ZTIRKN4aidl7android8hardware5radio5modem15RadioCapabilityE"
    }
   ],
   "return_type" : "_ZTIN3ndk13ScopedAStatusE",
   "source_file" : "out/soong/.intermediates/hardware/interfaces/radio/aidl/android.hardware.radio.modem-V1-ndk-source/gen/include/aidl/android/hardware/radio/modem/IRadioModemResponse.h"
  },
  {
   "function_name" : "aidl::android::hardware::radio::modem::IRadioModemResponseDefault::getModemStackStatusResponse",
   "linker_set_key" : "_ZN4aidl7android8hardware5radio5modem26IRadioModemResponseDefault27getModemStackStatusResponseERKNS2_17RadioResponseInfoEb",
   "parameters" :
   [
    {
     "is_this_ptr" : true,
     "referenced_type" : "_ZTIPN4aidl7android8hardware5radio5modem26IRadioModemResponseDefaultE"
    },
    {
     "referenced_type" : "_ZTIRKN4aidl7android8hardware5radio17RadioResponseInfoE"
    },
    {
     "referenced_type" : "_ZTIb"
    }
   ],
   "return_type" : "_ZTIN3ndk13ScopedAStatusE",
   "source_file" : "out/soong/.intermediates/hardware/interfaces/radio/aidl/android.hardware.radio.modem-V1-ndk-source/gen/include/aidl/android/hardware/radio/modem/IRadioModemResponse.h"
  },
  {
   "function_name" : "aidl::android::hardware::radio::modem::IRadioModemResponseDefault::getModemActivityInfoResponse",
   "linker_set_key" : "_ZN4aidl7android8hardware5radio5modem26IRadioModemResponseDefault28getModemActivityInfoResponseERKNS2_17RadioResponseInfoERKNS3_17ActivityStatsInfoE",
   "parameters" :
   [
    {
     "is_this_ptr" : true,
     "referenced_type" : "_ZTIPN4aidl7android8hardware5radio5modem26IRadioModemResponseDefaultE"
    },
    {
     "referenced_type" : "_ZTIRKN4aidl7android8hardware5radio17RadioResponseInfoE"
    },
    {
     "referenced_type" : "_ZTIRKN4aidl7android8hardware5radio5modem17ActivityStatsInfoE"
    }
   ],
   "return_type" : "_ZTIN3ndk13ScopedAStatusE",
   "source_file" : "out/soong/.intermediates/hardware/interfaces/radio/aidl/android.hardware.radio.modem-V1-ndk-source/gen/include/aidl/android/hardware/radio/modem/IRadioModemResponse.h"
  },
  {
   "function_name" : "aidl::android::hardware::radio::modem::IRadioModemResponseDefault::asBinder",
   "linker_set_key" : "_ZN4aidl7android8hardware5radio5modem26IRadioModemResponseDefault8asBinderEv",
   "parameters" :
   [
    {
     "is_this_ptr" : true,
     "referenced_type" : "_ZTIPN4aidl7android8hardware5radio5modem26IRadioModemResponseDefaultE"
    }
   ],
   "return_type" : "_ZTIN3ndk10SpAIBinderE",
   "source_file" : "out/soong/.intermediates/hardware/interfaces/radio/aidl/android.hardware.radio.modem-V1-ndk-source/gen/include/aidl/android/hardware/radio/modem/IRadioModemResponse.h"
  },
  {
   "function_name" : "aidl::android::hardware::radio::modem::IRadioModemResponseDefault::isRemote",
   "linker_set_key" : "_ZN4aidl7android8hardware5radio5modem26IRadioModemResponseDefault8isRemoteEv",
   "parameters" :
   [
    {
     "is_this_ptr" : true,
     "referenced_type" : "_ZTIPN4aidl7android8hardware5radio5modem26IRadioModemResponseDefaultE"
    }
   ],
   "return_type" : "_ZTIb",
   "source_file" : "out/soong/.intermediates/hardware/interfaces/radio/aidl/android.hardware.radio.modem-V1-ndk-source/gen/include/aidl/android/hardware/radio/modem/IRadioModemResponse.h"
  },
  {
   "function_name" : "aidl::android::hardware::radio::modem::IRadioModemIndicationDefault::modemReset",
   "linker_set_key" : "_ZN4aidl7android8hardware5radio5modem28IRadioModemIndicationDefault10modemResetENS2_19RadioIndicationTypeERKNSt3__112basic_stringIcNS6_11char_traitsIcEENS6_9allocatorIcEEEE",
   "parameters" :
   [
    {
     "is_this_ptr" : true,
     "referenced_type" : "_ZTIPN4aidl7android8hardware5radio5modem28IRadioModemIndicationDefaultE"
    },
    {
     "referenced_type" : "_ZTIN4aidl7android8hardware5radio19RadioIndicationTypeE"
    },
    {
     "referenced_type" : "_ZTIRKNSt3__112basic_stringIcNS_11char_traitsIcEENS_9allocatorIcEEEE"
    }
   ],
   "return_type" : "_ZTIN3ndk13ScopedAStatusE",
   "source_file" : "out/soong/.intermediates/hardware/interfaces/radio/aidl/android.hardware.radio.modem-V1-ndk-source/gen/include/aidl/android/hardware/radio/modem/IRadioModemIndication.h"
  },
  {
   "function_name" : "aidl::android::hardware::radio::modem::IRadioModemIndicationDefault::rilConnected",
   "linker_set_key" : "_ZN4aidl7android8hardware5radio5modem28IRadioModemIndicationDefault12rilConnectedENS2_19RadioIndicationTypeE",
   "parameters" :
   [
    {
     "is_this_ptr" : true,
     "referenced_type" : "_ZTIPN4aidl7android8hardware5radio5modem28IRadioModemIndicationDefaultE"
    },
    {
     "referenced_type" : "_ZTIN4aidl7android8hardware5radio19RadioIndicationTypeE"
    }
   ],
   "return_type" : "_ZTIN3ndk13ScopedAStatusE",
   "source_file" : "out/soong/.intermediates/hardware/interfaces/radio/aidl/android.hardware.radio.modem-V1-ndk-source/gen/include/aidl/android/hardware/radio/modem/IRadioModemIndication.h"
  },
  {
   "function_name" : "aidl::android::hardware::radio::modem::IRadioModemIndicationDefault::getInterfaceHash",
   "linker_set_key" : "_ZN4aidl7android8hardware5radio5modem28IRadioModemIndicationDefault16getInterfaceHashEPNSt3__112basic_stringIcNS5_11char_traitsIcEENS5_9allocatorIcEEEE",
   "parameters" :
   [
    {
     "is_this_ptr" : true,
     "referenced_type" : "_ZTIPN4aidl7android8hardware5radio5modem28IRadioModemIndicationDefaultE"
    },
    {
     "referenced_type" : "_ZTIPNSt3__112basic_stringIcNS_11char_traitsIcEENS_9allocatorIcEEEE"
    }
   ],
   "return_type" : "_ZTIN3ndk13ScopedAStatusE",
   "source_file" : "out/soong/.intermediates/hardware/interfaces/radio/aidl/android.hardware.radio.modem-V1-ndk-source/gen/include/aidl/android/hardware/radio/modem/IRadioModemIndication.h"
  },
  {
   "function_name" : "aidl::android::hardware::radio::modem::IRadioModemIndicationDefault::radioStateChanged",
   "linker_set_key" : "_ZN4aidl7android8hardware5radio5modem28IRadioModemIndicationDefault17radioStateChangedENS2_19RadioIndicationTypeENS3_10RadioStateE",
   "parameters" :
   [
    {
     "is_this_ptr" : true,
     "referenced_type" : "_ZTIPN4aidl7android8hardware5radio5modem28IRadioModemIndicationDefaultE"
    },
    {
     "referenced_type" : "_ZTIN4aidl7android8hardware5radio19RadioIndicationTypeE"
    },
    {
     "referenced_type" : "_ZTIN4aidl7android8hardware5radio5modem10RadioStateE"
    }
   ],
   "return_type" : "_ZTIN3ndk13ScopedAStatusE",
   "source_file" : "out/soong/.intermediates/hardware/interfaces/radio/aidl/android.hardware.radio.modem-V1-ndk-source/gen/include/aidl/android/hardware/radio/modem/IRadioModemIndication.h"
  },
  {
   "function_name" : "aidl::android::hardware::radio::modem::IRadioModemIndicationDefault::getInterfaceVersion",
   "linker_set_key" : "_ZN4aidl7android8hardware5radio5modem28IRadioModemIndicationDefault19getInterfaceVersionEPi",
   "parameters" :
   [
    {
     "is_this_ptr" : true,
     "referenced_type" : "_ZTIPN4aidl7android8hardware5radio5modem28IRadioModemIndicationDefaultE"
    },
    {
     "referenced_type" : "_ZTIPi"
    }
   ],
   "return_type" : "_ZTIN3ndk13ScopedAStatusE",
   "source_file" : "out/soong/.intermediates/hardware/interfaces/radio/aidl/android.hardware.radio.modem-V1-ndk-source/gen/include/aidl/android/hardware/radio/modem/IRadioModemIndication.h"
  },
  {
   "function_name" : "aidl::android::hardware::radio::modem::IRadioModemIndicationDefault::hardwareConfigChanged",
   "linker_set_key" : "_ZN4aidl7android8hardware5radio5modem28IRadioModemIndicationDefault21hardwareConfigChangedENS2_19RadioIndicationTypeERKNSt3__16vectorINS3_14HardwareConfigENS6_9allocatorIS8_EEEE",
   "parameters" :
   [
    {
     "is_this_ptr" : true,
     "referenced_type" : "_ZTIPN4aidl7android8hardware5radio5modem28IRadioModemIndicationDefaultE"
    },
    {
     "referenced_type" : "_ZTIN4aidl7android8hardware5radio19RadioIndicationTypeE"
    },
    {
     "referenced_type" : "_ZTIRKNSt3__16vectorIN4aidl7android8hardware5radio5modem14HardwareConfigENS_9allocatorIS6_EEEE"
    }
   ],
   "return_type" : "_ZTIN3ndk13ScopedAStatusE",
   "source_file" : "out/soong/.intermediates/hardware/interfaces/radio/aidl/android.hardware.radio.modem-V1-ndk-source/gen/include/aidl/android/hardware/radio/modem/IRadioModemIndication.h"
  },
  {
   "function_name" : "aidl::android::hardware::radio::modem::IRadioModemIndicationDefault::radioCapabilityIndication",
   "linker_set_key" : "_ZN4aidl7android8hardware5radio5modem28IRadioModemIndicationDefault25radioCapabilityIndicationENS2_19RadioIndicationTypeERKNS3_15RadioCapabilityE",
   "parameters" :
   [
    {
     "is_this_ptr" : true,
     "referenced_type" : "_ZTIPN4aidl7android8hardware5radio5modem28IRadioModemIndicationDefaultE"
    },
    {
     "referenced_type" : "_ZTIN4aidl7android8hardware5radio19RadioIndicationTypeE"
    },
    {
     "referenced_type" : "_ZTIRKN4aidl7android8hardware5radio5modem15RadioCapabilityE"
    }
   ],
   "return_type" : "_ZTIN3ndk13ScopedAStatusE",
   "source_file" : "out/soong/.intermediates/hardware/interfaces/radio/aidl/android.hardware.radio.modem-V1-ndk-source/gen/include/aidl/android/hardware/radio/modem/IRadioModemIndication.h"
  },
  {
   "function_name" : "aidl::android::hardware::radio::modem::IRadioModemIndicationDefault::asBinder",
   "linker_set_key" : "_ZN4aidl7android8hardware5radio5modem28IRadioModemIndicationDefault8asBinderEv",
   "parameters" :
   [
    {
     "is_this_ptr" : true,
     "referenced_type" : "_ZTIPN4aidl7android8hardware5radio5modem28IRadioModemIndicationDefaultE"
    }
   ],
   "return_type" : "_ZTIN3ndk10SpAIBinderE",
   "source_file" : "out/soong/.intermediates/hardware/interfaces/radio/aidl/android.hardware.radio.modem-V1-ndk-source/gen/include/aidl/android/hardware/radio/modem/IRadioModemIndication.h"
  },
  {
   "function_name" : "aidl::android::hardware::radio::modem::IRadioModemIndicationDefault::isRemote",
   "linker_set_key" : "_ZN4aidl7android8hardware5radio5modem28IRadioModemIndicationDefault8isRemoteEv",
   "parameters" :
   [
    {
     "is_this_ptr" : true,
     "referenced_type" : "_ZTIPN4aidl7android8hardware5radio5modem28IRadioModemIndicationDefaultE"
    }
   ],
   "return_type" : "_ZTIb",
   "source_file" : "out/soong/.intermediates/hardware/interfaces/radio/aidl/android.hardware.radio.modem-V1-ndk-source/gen/include/aidl/android/hardware/radio/modem/IRadioModemIndication.h"
  },
  {
   "function_name" : "aidl::android::hardware::radio::modem::ActivityStatsTechSpecificInfo::readFromParcel",
   "linker_set_key" : "_ZN4aidl7android8hardware5radio5modem29ActivityStatsTechSpecificInfo14readFromParcelEPK7AParcel",
   "parameters" :
   [
    {
     "is_this_ptr" : true,
     "referenced_type" : "_ZTIPN4aidl7android8hardware5radio5modem29ActivityStatsTechSpecificInfoE"
    },
    {
     "referenced_type" : "_ZTIPK7AParcel"
    }
   ],
   "return_type" : "_ZTIi",
   "source_file" : "out/soong/.intermediates/hardware/interfaces/radio/aidl/android.hardware.radio.modem-V1-ndk-source/gen/include/aidl/android/hardware/radio/modem/ActivityStatsTechSpecificInfo.h"
  },
  {
   "function_name" : "aidl::android::hardware::radio::modem::NvWriteItem::writeToParcel",
   "linker_set_key" : "_ZNK4aidl7android8hardware5radio5modem11NvWriteItem13writeToParcelEP7AParcel",
   "parameters" :
   [
    {
     "is_this_ptr" : true,
     "referenced_type" : "_ZTIPKN4aidl7android8hardware5radio5modem11NvWriteItemE"
    },
    {
     "referenced_type" : "_ZTIP7AParcel"
    }
   ],
   "return_type" : "_ZTIi",
   "source_file" : "out/soong/.intermediates/hardware/interfaces/radio/aidl/android.hardware.radio.modem-V1-ndk-source/gen/include/aidl/android/hardware/radio/modem/NvWriteItem.h"
  },
  {
   "function_name" : "aidl::android::hardware::radio::modem::HardwareConfig::writeToParcel",
   "linker_set_key" : "_ZNK4aidl7android8hardware5radio5modem14HardwareConfig13writeToParcelEP7AParcel",
   "parameters" :
   [
    {
     "is_this_ptr" : true,
     "referenced_type" : "_ZTIPKN4aidl7android8hardware5radio5modem14HardwareConfigE"
    },
    {
     "referenced_type" : "_ZTIP7AParcel"
    }
   ],
   "return_type" : "_ZTIi",
   "source_file" : "out/soong/.intermediates/hardware/interfaces/radio/aidl/android.hardware.radio.modem-V1-ndk-source/gen/include/aidl/android/hardware/radio/modem/HardwareConfig.h"
  },
  {
   "function_name" : "aidl::android::hardware::radio::modem::RadioCapability::writeToParcel",
   "linker_set_key" : "_ZNK4aidl7android8hardware5radio5modem15RadioCapability13writeToParcelEP7AParcel",
   "parameters" :
   [
    {
     "is_this_ptr" : true,
     "referenced_type" : "_ZTIPKN4aidl7android8hardware5radio5modem15RadioCapabilityE"
    },
    {
     "referenced_type" : "_ZTIP7AParcel"
    }
   ],
   "return_type" : "_ZTIi",
   "source_file" : "out/soong/.intermediates/hardware/interfaces/radio/aidl/android.hardware.radio.modem-V1-ndk-source/gen/include/aidl/android/hardware/radio/modem/RadioCapability.h"
  },
  {
   "function_name" : "aidl::android::hardware::radio::modem::ActivityStatsInfo::writeToParcel",
   "linker_set_key" : "_ZNK4aidl7android8hardware5radio5modem17ActivityStatsInfo13writeToParcelEP7AParcel",
   "parameters" :
   [
    {
     "is_this_ptr" : true,
     "referenced_type" : "_ZTIPKN4aidl7android8hardware5radio5modem17ActivityStatsInfoE"
    },
    {
     "referenced_type" : "_ZTIP7AParcel"
    }
   ],
   "return_type" : "_ZTIi",
   "source_file" : "out/soong/.intermediates/hardware/interfaces/radio/aidl/android.hardware.radio.modem-V1-ndk-source/gen/include/aidl/android/hardware/radio/modem/ActivityStatsInfo.h"
  },
  {
   "function_name" : "aidl::android::hardware::radio::modem::HardwareConfigSim::writeToParcel",
   "linker_set_key" : "_ZNK4aidl7android8hardware5radio5modem17HardwareConfigSim13writeToParcelEP7AParcel",
   "parameters" :
   [
    {
     "is_this_ptr" : true,
     "referenced_type" : "_ZTIPKN4aidl7android8hardware5radio5modem17HardwareConfigSimE"
    },
    {
     "referenced_type" : "_ZTIP7AParcel"
    }
   ],
   "return_type" : "_ZTIi",
   "source_file" : "out/soong/.intermediates/hardware/interfaces/radio/aidl/android.hardware.radio.modem-V1-ndk-source/gen/include/aidl/android/hardware/radio/modem/HardwareConfigSim.h"
  },
  {
   "function_name" : "aidl::android::hardware::radio::modem::HardwareConfigModem::writeToParcel",
   "linker_set_key" : "_ZNK4aidl7android8hardware5radio5modem19HardwareConfigModem13writeToParcelEP7AParcel",
   "parameters" :
   [
    {
     "is_this_ptr" : true,
     "referenced_type" : "_ZTIPKN4aidl7android8hardware5radio5modem19HardwareConfigModemE"
    },
    {
     "referenced_type" : "_ZTIP7AParcel"
    }
   ],
   "return_type" : "_ZTIi",
   "source_file" : "out/soong/.intermediates/hardware/interfaces/radio/aidl/android.hardware.radio.modem-V1-ndk-source/gen/include/aidl/android/hardware/radio/modem/HardwareConfigModem.h"
  },
  {
   "function_name" : "aidl::android::hardware::radio::modem::ActivityStatsTechSpecificInfo::writeToParcel",
   "linker_set_key" : "_ZNK4aidl7android8hardware5radio5modem29ActivityStatsTechSpecificInfo13writeToParcelEP7AParcel",
   "parameters" :
   [
    {
     "is_this_ptr" : true,
     "referenced_type" : "_ZTIPKN4aidl7android8hardware5radio5modem29ActivityStatsTechSpecificInfoE"
    },
    {
     "referenced_type" : "_ZTIP7AParcel"
    }
   ],
   "return_type" : "_ZTIi",
   "source_file" : "out/soong/.intermediates/hardware/interfaces/radio/aidl/android.hardware.radio.modem-V1-ndk-source/gen/include/aidl/android/hardware/radio/modem/ActivityStatsTechSpecificInfo.h"
  }
 ],
 "global_vars" :
 [
  {
   "linker_set_key" : "_ZN4aidl7android8hardware5radio5modem11IRadioModem10descriptorE",
   "name" : "aidl::android::hardware::radio::modem::IRadioModem::descriptor",
   "referenced_type" : "_ZTIPKc",
   "source_file" : "out/soong/.intermediates/hardware/interfaces/radio/aidl/android.hardware.radio.modem-V1-ndk-source/gen/include/aidl/android/hardware/radio/modem/IRadioModem.h"
  },
  {
   "access" : "private",
   "linker_set_key" : "_ZN4aidl7android8hardware5radio5modem11IRadioModem12default_implE",
   "name" : "aidl::android::hardware::radio::modem::IRadioModem::default_impl",
   "referenced_type" : "_ZTINSt3__110shared_ptrIN4aidl7android8hardware5radio5modem11IRadioModemEEE",
   "source_file" : "out/soong/.intermediates/hardware/interfaces/radio/aidl/android.hardware.radio.modem-V1-ndk-source/gen/include/aidl/android/hardware/radio/modem/IRadioModem.h"
  },
  {
   "linker_set_key" : "_ZN4aidl7android8hardware5radio5modem11IRadioModem4hashE",
   "name" : "aidl::android::hardware::radio::modem::IRadioModem::hash",
   "referenced_type" : "_ZTIKNSt3__112basic_stringIcNS_11char_traitsIcEENS_9allocatorIcEEEE",
   "source_file" : "out/soong/.intermediates/hardware/interfaces/radio/aidl/android.hardware.radio.modem-V1-ndk-source/gen/include/aidl/android/hardware/radio/modem/IRadioModem.h"
  },
  {
   "linker_set_key" : "_ZN4aidl7android8hardware5radio5modem11NvWriteItem10descriptorE",
   "name" : "aidl::android::hardware::radio::modem::NvWriteItem::descriptor",
   "referenced_type" : "_ZTIPKc",
   "source_file" : "out/soong/.intermediates/hardware/interfaces/radio/aidl/android.hardware.radio.modem-V1-ndk-source/gen/include/aidl/android/hardware/radio/modem/NvWriteItem.h"
  },
  {
   "linker_set_key" : "_ZN4aidl7android8hardware5radio5modem14HardwareConfig10descriptorE",
   "name" : "aidl::android::hardware::radio::modem::HardwareConfig::descriptor",
   "referenced_type" : "_ZTIPKc",
   "source_file" : "out/soong/.intermediates/hardware/interfaces/radio/aidl/android.hardware.radio.modem-V1-ndk-source/gen/include/aidl/android/hardware/radio/modem/HardwareConfig.h"
  },
  {
   "linker_set_key" : "_ZN4aidl7android8hardware5radio5modem15RadioCapability10descriptorE",
   "name" : "aidl::android::hardware::radio::modem::RadioCapability::descriptor",
   "referenced_type" : "_ZTIPKc",
   "source_file" : "out/soong/.intermediates/hardware/interfaces/radio/aidl/android.hardware.radio.modem-V1-ndk-source/gen/include/aidl/android/hardware/radio/modem/RadioCapability.h"
  },
  {
   "linker_set_key" : "_ZN4aidl7android8hardware5radio5modem17ActivityStatsInfo10descriptorE",
   "name" : "aidl::android::hardware::radio::modem::ActivityStatsInfo::descriptor",
   "referenced_type" : "_ZTIPKc",
   "source_file" : "out/soong/.intermediates/hardware/interfaces/radio/aidl/android.hardware.radio.modem-V1-ndk-source/gen/include/aidl/android/hardware/radio/modem/ActivityStatsInfo.h"
  },
  {
   "linker_set_key" : "_ZN4aidl7android8hardware5radio5modem17HardwareConfigSim10descriptorE",
   "name" : "aidl::android::hardware::radio::modem::HardwareConfigSim::descriptor",
   "referenced_type" : "_ZTIPKc",
   "source_file" : "out/soong/.intermediates/hardware/interfaces/radio/aidl/android.hardware.radio.modem-V1-ndk-source/gen/include/aidl/android/hardware/radio/modem/HardwareConfigSim.h"
  },
  {
   "linker_set_key" : "_ZN4aidl7android8hardware5radio5modem19HardwareConfigModem10descriptorE",
   "name" : "aidl::android::hardware::radio::modem::HardwareConfigModem::descriptor",
   "referenced_type" : "_ZTIPKc",
   "source_file" : "out/soong/.intermediates/hardware/interfaces/radio/aidl/android.hardware.radio.modem-V1-ndk-source/gen/include/aidl/android/hardware/radio/modem/HardwareConfigModem.h"
  },
  {
   "linker_set_key" : "_ZN4aidl7android8hardware5radio5modem19IRadioModemResponse10descriptorE",
   "name" : "aidl::android::hardware::radio::modem::IRadioModemResponse::descriptor",
   "referenced_type" : "_ZTIPKc",
   "source_file" : "out/soong/.intermediates/hardware/interfaces/radio/aidl/android.hardware.radio.modem-V1-ndk-source/gen/include/aidl/android/hardware/radio/modem/IRadioModemResponse.h"
  },
  {
   "access" : "private",
   "linker_set_key" : "_ZN4aidl7android8hardware5radio5modem19IRadioModemResponse12default_implE",
   "name" : "aidl::android::hardware::radio::modem::IRadioModemResponse::default_impl",
   "referenced_type" : "_ZTINSt3__110shared_ptrIN4aidl7android8hardware5radio5modem19IRadioModemResponseEEE",
   "source_file" : "out/soong/.intermediates/hardware/interfaces/radio/aidl/android.hardware.radio.modem-V1-ndk-source/gen/include/aidl/android/hardware/radio/modem/IRadioModemResponse.h"
  },
  {
   "linker_set_key" : "_ZN4aidl7android8hardware5radio5modem19IRadioModemResponse4hashE",
   "name" : "aidl::android::hardware::radio::modem::IRadioModemResponse::hash",
   "referenced_type" : "_ZTIKNSt3__112basic_stringIcNS_11char_traitsIcEENS_9allocatorIcEEEE",
   "source_file" : "out/soong/.intermediates/hardware/interfaces/radio/aidl/android.hardware.radio.modem-V1-ndk-source/gen/include/aidl/android/hardware/radio/modem/IRadioModemResponse.h"
  },
  {
   "linker_set_key" : "_ZN4aidl7android8hardware5radio5modem21IRadioModemIndication10descriptorE",
   "name" : "aidl::android::hardware::radio::modem::IRadioModemIndication::descriptor",
   "referenced_type" : "_ZTIPKc",
   "source_file" : "out/soong/.intermediates/hardware/interfaces/radio/aidl/android.hardware.radio.modem-V1-ndk-source/gen/include/aidl/android/hardware/radio/modem/IRadioModemIndication.h"
  },
  {
   "access" : "private",
   "linker_set_key" : "_ZN4aidl7android8hardware5radio5modem21IRadioModemIndication12default_implE",
   "name" : "aidl::android::hardware::radio::modem::IRadioModemIndication::default_impl",
   "referenced_type" : "_ZTINSt3__110shared_ptrIN4aidl7android8hardware5radio5modem21IRadioModemIndicationEEE",
   "source_file" : "out/soong/.intermediates/hardware/interfaces/radio/aidl/android.hardware.radio.modem-V1-ndk-source/gen/include/aidl/android/hardware/radio/modem/IRadioModemIndication.h"
  },
  {
   "linker_set_key" : "_ZN4aidl7android8hardware5radio5modem21IRadioModemIndication4hashE",
   "name" : "aidl::android::hardware::radio::modem::IRadioModemIndication::hash",
   "referenced_type" : "_ZTIKNSt3__112basic_stringIcNS_11char_traitsIcEENS_9allocatorIcEEEE",
   "source_file" : "out/soong/.intermediates/hardware/interfaces/radio/aidl/android.hardware.radio.modem-V1-ndk-source/gen/include/aidl/android/hardware/radio/modem/IRadioModemIndication.h"
  },
  {
   "linker_set_key" : "_ZN4aidl7android8hardware5radio5modem29ActivityStatsTechSpecificInfo10descriptorE",
   "name" : "aidl::android::hardware::radio::modem::ActivityStatsTechSpecificInfo::descriptor",
   "referenced_type" : "_ZTIPKc",
   "source_file" : "out/soong/.intermediates/hardware/interfaces/radio/aidl/android.hardware.radio.modem-V1-ndk-source/gen/include/aidl/android/hardware/radio/modem/ActivityStatsTechSpecificInfo.h"
  }
 ],
 "lvalue_reference_types" :
 [
  {
   "alignment" : 4,
   "linker_set_key" : "_ZTIRKN3ndk10SpAIBinderE",
   "name" : "const ndk::SpAIBinder &",
   "referenced_type" : "_ZTIKN3ndk10SpAIBinderE",
   "self_type" : "_ZTIRKN3ndk10SpAIBinderE",
   "size" : 4,
   "source_file" : "frameworks/native/libs/binder/ndk/include_cpp/android/binder_auto_utils.h"
  },
  {
   "alignment" : 4,
   "linker_set_key" : "_ZTIRKN3ndk13ScopedAParcelE",
   "name" : "const ndk::ScopedAParcel &",
   "referenced_type" : "_ZTIKN3ndk13ScopedAParcelE",
   "self_type" : "_ZTIRKN3ndk13ScopedAParcelE",
   "size" : 4,
   "source_file" : "frameworks/native/libs/binder/ndk/include_cpp/android/binder_auto_utils.h"
  },
  {
   "alignment" : 4,
   "linker_set_key" : "_ZTIRKN3ndk17AParcelableHolderE",
   "name" : "const ndk::AParcelableHolder &",
   "referenced_type" : "_ZTIKN3ndk17AParcelableHolderE",
   "self_type" : "_ZTIRKN3ndk17AParcelableHolderE",
   "size" : 4,
   "source_file" : "frameworks/native/libs/binder/ndk/include_cpp/android/binder_parcelable_utils.h"
  },
  {
   "alignment" : 4,
   "linker_set_key" : "_ZTIRKN3ndk20ScopedFileDescriptorE",
   "name" : "const ndk::ScopedFileDescriptor &",
   "referenced_type" : "_ZTIKN3ndk20ScopedFileDescriptorE",
   "self_type" : "_ZTIRKN3ndk20ScopedFileDescriptorE",
   "size" : 4,
   "source_file" : "frameworks/native/libs/binder/ndk/include_cpp/android/binder_auto_utils.h"
  },
  {
   "alignment" : 4,
   "linker_set_key" : "_ZTIRKN4aidl7android8hardware5radio10RadioErrorE",
   "name" : "const aidl::android::hardware::radio::RadioError &",
   "referenced_type" : "_ZTIKN4aidl7android8hardware5radio10RadioErrorE",
   "self_type" : "_ZTIRKN4aidl7android8hardware5radio10RadioErrorE",
   "size" : 4,
   "source_file" : "frameworks/native/libs/binder/ndk/include_cpp/android/binder_to_string.h"
  },
  {
   "alignment" : 4,
   "linker_set_key" : "_ZTIRKN4aidl7android8hardware5radio13AccessNetworkE",
   "name" : "const aidl::android::hardware::radio::AccessNetwork &",
   "referenced_type" : "_ZTIKN4aidl7android8hardware5radio13AccessNetworkE",
   "self_type" : "_ZTIRKN4aidl7android8hardware5radio13AccessNetworkE",
   "size" : 4,
   "source_file" : "frameworks/native/libs/binder/ndk/include_cpp/android/binder_to_string.h"
  },
  {
   "alignment" : 4,
   "linker_set_key" : "_ZTIRKN4aidl7android8hardware5radio15RadioTechnologyE",
   "name" : "const aidl::android::hardware::radio::RadioTechnology &",
   "referenced_type" : "_ZTIKN4aidl7android8hardware5radio15RadioTechnologyE",
   "self_type" : "_ZTIRKN4aidl7android8hardware5radio15RadioTechnologyE",
   "size" : 4,
   "source_file" : "frameworks/native/libs/binder/ndk/include_cpp/android/binder_to_string.h"
  },
  {
   "alignment" : 4,
   "linker_set_key" : "_ZTIRKN4aidl7android8hardware5radio17RadioResponseInfoE",
   "name" : "const aidl::android::hardware::radio::RadioResponseInfo &",
   "referenced_type" : "_ZTIKN4aidl7android8hardware5radio17RadioResponseInfoE",
   "self_type" : "_ZTIRKN4aidl7android8hardware5radio17RadioResponseInfoE",
   "size" : 4,
   "source_file" : "out/soong/.intermediates/hardware/interfaces/radio/aidl/android.hardware.radio-V1-ndk-source/gen/include/aidl/android/hardware/radio/RadioResponseInfo.h"
  },
  {
   "alignment" : 4,
   "linker_set_key" : "_ZTIRKN4aidl7android8hardware5radio17RadioResponseTypeE",
   "name" : "const aidl::android::hardware::radio::RadioResponseType &",
   "referenced_type" : "_ZTIKN4aidl7android8hardware5radio17RadioResponseTypeE",
   "self_type" : "_ZTIRKN4aidl7android8hardware5radio17RadioResponseTypeE",
   "size" : 4,
   "source_file" : "frameworks/native/libs/binder/ndk/include_cpp/android/binder_to_string.h"
  },
  {
   "alignment" : 4,
   "linker_set_key" : "_ZTIRKN4aidl7android8hardware5radio5modem11NvWriteItemE",
   "name" : "const aidl::android::hardware::radio::modem::NvWriteItem &",
   "referenced_type" : "_ZTIKN4aidl7android8hardware5radio5modem11NvWriteItemE",
   "self_type" : "_ZTIRKN4aidl7android8hardware5radio5modem11NvWriteItemE",
   "size" : 4,
   "source_file" : "out/soong/.intermediates/hardware/interfaces/radio/aidl/android.hardware.radio.modem-V1-ndk-source/gen/include/aidl/android/hardware/radio/modem/NvWriteItem.h"
  },
  {
   "alignment" : 4,
   "linker_set_key" : "_ZTIRKN4aidl7android8hardware5radio5modem14HardwareConfigE",
   "name" : "const aidl::android::hardware::radio::modem::HardwareConfig &",
   "referenced_type" : "_ZTIKN4aidl7android8hardware5radio5modem14HardwareConfigE",
   "self_type" : "_ZTIRKN4aidl7android8hardware5radio5modem14HardwareConfigE",
   "size" : 4,
   "source_file" : "out/soong/.intermediates/hardware/interfaces/radio/aidl/android.hardware.radio.modem-V1-ndk-source/gen/include/aidl/android/hardware/radio/modem/HardwareConfig.h"
  },
  {
   "alignment" : 4,
   "linker_set_key" : "_ZTIRKN4aidl7android8hardware5radio5modem15RadioCapabilityE",
   "name" : "const aidl::android::hardware::radio::modem::RadioCapability &",
   "referenced_type" : "_ZTIKN4aidl7android8hardware5radio5modem15RadioCapabilityE",
   "self_type" : "_ZTIRKN4aidl7android8hardware5radio5modem15RadioCapabilityE",
   "size" : 4,
   "source_file" : "out/soong/.intermediates/hardware/interfaces/radio/aidl/android.hardware.radio.modem-V1-ndk-source/gen/include/aidl/android/hardware/radio/modem/RadioCapability.h"
  },
  {
   "alignment" : 4,
   "linker_set_key" : "_ZTIRKN4aidl7android8hardware5radio5modem17ActivityStatsInfoE",
   "name" : "const aidl::android::hardware::radio::modem::ActivityStatsInfo &",
   "referenced_type" : "_ZTIKN4aidl7android8hardware5radio5modem17ActivityStatsInfoE",
   "self_type" : "_ZTIRKN4aidl7android8hardware5radio5modem17ActivityStatsInfoE",
   "size" : 4,
   "source_file" : "out/soong/.intermediates/hardware/interfaces/radio/aidl/android.hardware.radio.modem-V1-ndk-source/gen/include/aidl/android/hardware/radio/modem/ActivityStatsInfo.h"
  },
  {
   "alignment" : 4,
   "linker_set_key" : "_ZTIRKN4aidl7android8hardware5radio5modem17HardwareConfigSimE",
   "name" : "const aidl::android::hardware::radio::modem::HardwareConfigSim &",
   "referenced_type" : "_ZTIKN4aidl7android8hardware5radio5modem17HardwareConfigSimE",
   "self_type" : "_ZTIRKN4aidl7android8hardware5radio5modem17HardwareConfigSimE",
   "size" : 4,
   "source_file" : "frameworks/native/libs/binder/ndk/include_cpp/android/binder_to_string.h"
  },
  {
   "alignment" : 4,
   "linker_set_key" : "_ZTIRKN4aidl7android8hardware5radio5modem19HardwareConfigModemE",
   "name" : "const aidl::android::hardware::radio::modem::HardwareConfigModem &",
   "referenced_type" : "_ZTIKN4aidl7android8hardware5radio5modem19HardwareConfigModemE",
   "self_type" : "_ZTIRKN4aidl7android8hardware5radio5modem19HardwareConfigModemE",
   "size" : 4,
   "source_file" : "frameworks/native/libs/binder/ndk/include_cpp/android/binder_to_string.h"
  },
  {
   "alignment" : 4,
   "linker_set_key" : "_ZTIRKN4aidl7android8hardware5radio5modem29ActivityStatsTechSpecificInfoE",
   "name" : "const aidl::android::hardware::radio::modem::ActivityStatsTechSpecificInfo &",
   "referenced_type" : "_ZTIKN4aidl7android8hardware5radio5modem29ActivityStatsTechSpecificInfoE",
   "self_type" : "_ZTIRKN4aidl7android8hardware5radio5modem29ActivityStatsTechSpecificInfoE",
   "size" : 4,
   "source_file" : "frameworks/native/libs/binder/ndk/include_cpp/android/binder_to_string.h"
  },
  {
   "alignment" : 4,
   "linker_set_key" : "_ZTIRKN4aidl7android8hardware5radio5modem6NvItemE",
   "name" : "const aidl::android::hardware::radio::modem::NvItem &",
   "referenced_type" : "_ZTIKN4aidl7android8hardware5radio5modem6NvItemE",
   "self_type" : "_ZTIRKN4aidl7android8hardware5radio5modem6NvItemE",
   "size" : 4,
   "source_file" : "frameworks/native/libs/binder/ndk/include_cpp/android/binder_to_string.h"
  },
  {
   "alignment" : 4,
   "linker_set_key" : "_ZTIRKNSt3__110shared_ptrIN4aidl7android8hardware5radio5modem11IRadioModemEEE",
   "name" : "const std::shared_ptr<aidl::android::hardware::radio::modem::IRadioModem> &",
   "referenced_type" : "_ZTIKNSt3__110shared_ptrIN4aidl7android8hardware5radio5modem11IRadioModemEEE",
   "self_type" : "_ZTIRKNSt3__110shared_ptrIN4aidl7android8hardware5radio5modem11IRadioModemEEE",
   "size" : 4,
   "source_file" : "out/soong/.intermediates/hardware/interfaces/radio/aidl/android.hardware.radio.modem-V1-ndk-source/gen/include/aidl/android/hardware/radio/modem/IRadioModem.h"
  },
  {
   "alignment" : 4,
   "linker_set_key" : "_ZTIRKNSt3__110shared_ptrIN4aidl7android8hardware5radio5modem19IRadioModemResponseEEE",
   "name" : "const std::shared_ptr<aidl::android::hardware::radio::modem::IRadioModemResponse> &",
   "referenced_type" : "_ZTIKNSt3__110shared_ptrIN4aidl7android8hardware5radio5modem19IRadioModemResponseEEE",
   "self_type" : "_ZTIRKNSt3__110shared_ptrIN4aidl7android8hardware5radio5modem19IRadioModemResponseEEE",
   "size" : 4,
   "source_file" : "out/soong/.intermediates/hardware/interfaces/radio/aidl/android.hardware.radio.modem-V1-ndk-source/gen/include/aidl/android/hardware/radio/modem/IRadioModem.h"
  },
  {
   "alignment" : 4,
   "linker_set_key" : "_ZTIRKNSt3__110shared_ptrIN4aidl7android8hardware5radio5modem21IRadioModemIndicationEEE",
   "name" : "const std::shared_ptr<aidl::android::hardware::radio::modem::IRadioModemIndication> &",
   "referenced_type" : "_ZTIKNSt3__110shared_ptrIN4aidl7android8hardware5radio5modem21IRadioModemIndicationEEE",
   "self_type" : "_ZTIRKNSt3__110shared_ptrIN4aidl7android8hardware5radio5modem21IRadioModemIndicationEEE",
   "size" : 4,
   "source_file" : "out/soong/.intermediates/hardware/interfaces/radio/aidl/android.hardware.radio.modem-V1-ndk-source/gen/include/aidl/android/hardware/radio/modem/IRadioModem.h"
  },
  {
   "alignment" : 4,
   "linker_set_key" : "_ZTIRKNSt3__112basic_stringIcNS_11char_traitsIcEENS_9allocatorIcEEEE",
   "name" : "const std::basic_string<char, std::char_traits<char>, std::allocator<char>> &",
   "referenced_type" : "_ZTIKNSt3__112basic_stringIcNS_11char_traitsIcEENS_9allocatorIcEEEE",
   "self_type" : "_ZTIRKNSt3__112basic_stringIcNS_11char_traitsIcEENS_9allocatorIcEEEE",
   "size" : 4,
   "source_file" : "frameworks/native/libs/binder/ndk/include_cpp/android/binder_to_string.h"
  },
  {
   "alignment" : 4,
   "linker_set_key" : "_ZTIRKNSt3__16vectorIDsNS_9allocatorIDsEEEE",
   "name" : "const std::vector<char16_t, std::allocator<char16_t>> &",
   "referenced_type" : "_ZTIKNSt3__16vectorIDsNS_9allocatorIDsEEEE",
   "self_type" : "_ZTIRKNSt3__16vectorIDsNS_9allocatorIDsEEEE",
   "size" : 4,
   "source_file" : "frameworks/native/libs/binder/ndk/include_cpp/android/binder_parcel_utils.h"
  },
  {
   "alignment" : 4,
   "linker_set_key" : "_ZTIRKNSt3__16vectorIN4aidl7android8hardware5radio5modem14HardwareConfigENS_9allocatorIS6_EEEE",
   "name" : "const std::vector<aidl::android::hardware::radio::modem::HardwareConfig, std::allocator<aidl::android::hardware::radio::modem::HardwareConfig>> &",
   "referenced_type" : "_ZTIKNSt3__16vectorIN4aidl7android8hardware5radio5modem14HardwareConfigENS_9allocatorIS6_EEEE",
   "self_type" : "_ZTIRKNSt3__16vectorIN4aidl7android8hardware5radio5modem14HardwareConfigENS_9allocatorIS6_EEEE",
   "size" : 4,
   "source_file" : "out/soong/.intermediates/hardware/interfaces/radio/aidl/android.hardware.radio.modem-V1-ndk-source/gen/include/aidl/android/hardware/radio/modem/BnRadioModemIndication.h"
  },
  {
   "alignment" : 4,
   "linker_set_key" : "_ZTIRKNSt3__16vectorIN4aidl7android8hardware5radio5modem17HardwareConfigSimENS_9allocatorIS6_EEEE",
   "name" : "const std::vector<aidl::android::hardware::radio::modem::HardwareConfigSim, std::allocator<aidl::android::hardware::radio::modem::HardwareConfigSim>> &",
   "referenced_type" : "_ZTIKNSt3__16vectorIN4aidl7android8hardware5radio5modem17HardwareConfigSimENS_9allocatorIS6_EEEE",
   "self_type" : "_ZTIRKNSt3__16vectorIN4aidl7android8hardware5radio5modem17HardwareConfigSimENS_9allocatorIS6_EEEE",
   "size" : 4,
   "source_file" : "frameworks/native/libs/binder/ndk/include_cpp/android/binder_to_string.h"
  },
  {
   "alignment" : 4,
   "linker_set_key" : "_ZTIRKNSt3__16vectorIN4aidl7android8hardware5radio5modem19HardwareConfigModemENS_9allocatorIS6_EEEE",
   "name" : "const std::vector<aidl::android::hardware::radio::modem::HardwareConfigModem, std::allocator<aidl::android::hardware::radio::modem::HardwareConfigModem>> &",
   "referenced_type" : "_ZTIKNSt3__16vectorIN4aidl7android8hardware5radio5modem19HardwareConfigModemENS_9allocatorIS6_EEEE",
   "self_type" : "_ZTIRKNSt3__16vectorIN4aidl7android8hardware5radio5modem19HardwareConfigModemENS_9allocatorIS6_EEEE",
   "size" : 4,
   "source_file" : "frameworks/native/libs/binder/ndk/include_cpp/android/binder_to_string.h"
  },
  {
   "alignment" : 4,
   "linker_set_key" : "_ZTIRKNSt3__16vectorIN4aidl7android8hardware5radio5modem29ActivityStatsTechSpecificInfoENS_9allocatorIS6_EEEE",
   "name" : "const std::vector<aidl::android::hardware::radio::modem::ActivityStatsTechSpecificInfo, std::allocator<aidl::android::hardware::radio::modem::ActivityStatsTechSpecificInfo>> &",
   "referenced_type" : "_ZTIKNSt3__16vectorIN4aidl7android8hardware5radio5modem29ActivityStatsTechSpecificInfoENS_9allocatorIS6_EEEE",
   "self_type" : "_ZTIRKNSt3__16vectorIN4aidl7android8hardware5radio5modem29ActivityStatsTechSpecificInfoENS_9allocatorIS6_EEEE",
   "size" : 4,
   "source_file" : "frameworks/native/libs/binder/ndk/include_cpp/android/binder_to_string.h"
  },
  {
   "alignment" : 4,
   "linker_set_key" : "_ZTIRKNSt3__16vectorIbNS_9allocatorIbEEEE",
   "name" : "const std::vector<bool, std::allocator<bool>> &",
   "referenced_type" : "_ZTIKNSt3__16vectorIbNS_9allocatorIbEEEE",
   "self_type" : "_ZTIRKNSt3__16vectorIbNS_9allocatorIbEEEE",
   "size" : 4,
   "source_file" : "frameworks/native/libs/binder/ndk/include_cpp/android/binder_parcel_utils.h"
  },
  {
   "alignment" : 4,
   "linker_set_key" : "_ZTIRKNSt3__16vectorIdNS_9allocatorIdEEEE",
   "name" : "const std::vector<double, std::allocator<double>> &",
   "referenced_type" : "_ZTIKNSt3__16vectorIdNS_9allocatorIdEEEE",
   "self_type" : "_ZTIRKNSt3__16vectorIdNS_9allocatorIdEEEE",
   "size" : 4,
   "source_file" : "frameworks/native/libs/binder/ndk/include_cpp/android/binder_parcel_utils.h"
  },
  {
   "alignment" : 4,
   "linker_set_key" : "_ZTIRKNSt3__16vectorIfNS_9allocatorIfEEEE",
   "name" : "const std::vector<float, std::allocator<float>> &",
   "referenced_type" : "_ZTIKNSt3__16vectorIfNS_9allocatorIfEEEE",
   "self_type" : "_ZTIRKNSt3__16vectorIfNS_9allocatorIfEEEE",
   "size" : 4,
   "source_file" : "frameworks/native/libs/binder/ndk/include_cpp/android/binder_parcel_utils.h"
  },
  {
   "alignment" : 4,
   "linker_set_key" : "_ZTIRKNSt3__16vectorIhNS_9allocatorIhEEEE",
   "name" : "const std::vector<unsigned char, std::allocator<unsigned char>> &",
   "referenced_type" : "_ZTIKNSt3__16vectorIhNS_9allocatorIhEEEE",
   "self_type" : "_ZTIRKNSt3__16vectorIhNS_9allocatorIhEEEE",
   "size" : 4,
   "source_file" : "frameworks/native/libs/binder/ndk/include_cpp/android/binder_parcel_utils.h"
  },
  {
   "alignment" : 4,
   "linker_set_key" : "_ZTIRKNSt3__16vectorIiNS_9allocatorIiEEEE",
   "name" : "const std::vector<int, std::allocator<int>> &",
   "referenced_type" : "_ZTIKNSt3__16vectorIiNS_9allocatorIiEEEE",
   "self_type" : "_ZTIRKNSt3__16vectorIiNS_9allocatorIiEEEE",
   "size" : 4,
   "source_file" : "frameworks/native/libs/binder/ndk/include_cpp/android/binder_parcel_utils.h"
  },
  {
   "alignment" : 4,
   "linker_set_key" : "_ZTIRKNSt3__16vectorIjNS_9allocatorIjEEEE",
   "name" : "const std::vector<unsigned int, std::allocator<unsigned int>> &",
   "referenced_type" : "_ZTIKNSt3__16vectorIjNS_9allocatorIjEEEE",
   "self_type" : "_ZTIRKNSt3__16vectorIjNS_9allocatorIjEEEE",
   "size" : 4,
   "source_file" : "frameworks/native/libs/binder/ndk/include_cpp/android/binder_parcel_utils.h"
  },
  {
   "alignment" : 4,
   "linker_set_key" : "_ZTIRKNSt3__16vectorIxNS_9allocatorIxEEEE",
   "name" : "const std::vector<long long, std::allocator<long long>> &",
   "referenced_type" : "_ZTIKNSt3__16vectorIxNS_9allocatorIxEEEE",
   "self_type" : "_ZTIRKNSt3__16vectorIxNS_9allocatorIxEEEE",
   "size" : 4,
   "source_file" : "frameworks/native/libs/binder/ndk/include_cpp/android/binder_parcel_utils.h"
  },
  {
   "alignment" : 4,
   "linker_set_key" : "_ZTIRKNSt3__16vectorIyNS_9allocatorIyEEEE",
   "name" : "const std::vector<unsigned long long, std::allocator<unsigned long long>> &",
   "referenced_type" : "_ZTIKNSt3__16vectorIyNS_9allocatorIyEEEE",
   "self_type" : "_ZTIRKNSt3__16vectorIyNS_9allocatorIyEEEE",
   "size" : 4,
   "source_file" : "frameworks/native/libs/binder/ndk/include_cpp/android/binder_parcel_utils.h"
  },
  {
   "alignment" : 4,
   "linker_set_key" : "_ZTIRKNSt3__18optionalINS_6vectorIDsNS_9allocatorIDsEEEEEE",
   "name" : "const std::optional<std::vector<char16_t, std::allocator<char16_t>>> &",
   "referenced_type" : "_ZTIKNSt3__18optionalINS_6vectorIDsNS_9allocatorIDsEEEEEE",
   "self_type" : "_ZTIRKNSt3__18optionalINS_6vectorIDsNS_9allocatorIDsEEEEEE",
   "size" : 4,
   "source_file" : "frameworks/native/libs/binder/ndk/include_cpp/android/binder_parcel_utils.h"
  },
  {
   "alignment" : 4,
   "linker_set_key" : "_ZTIRKNSt3__18optionalINS_6vectorIbNS_9allocatorIbEEEEEE",
   "name" : "const std::optional<std::vector<bool, std::allocator<bool>>> &",
   "referenced_type" : "_ZTIKNSt3__18optionalINS_6vectorIbNS_9allocatorIbEEEEEE",
   "self_type" : "_ZTIRKNSt3__18optionalINS_6vectorIbNS_9allocatorIbEEEEEE",
   "size" : 4,
   "source_file" : "frameworks/native/libs/binder/ndk/include_cpp/android/binder_parcel_utils.h"
  },
  {
   "alignment" : 4,
   "linker_set_key" : "_ZTIRKNSt3__18optionalINS_6vectorIdNS_9allocatorIdEEEEEE",
   "name" : "const std::optional<std::vector<double, std::allocator<double>>> &",
   "referenced_type" : "_ZTIKNSt3__18optionalINS_6vectorIdNS_9allocatorIdEEEEEE",
   "self_type" : "_ZTIRKNSt3__18optionalINS_6vectorIdNS_9allocatorIdEEEEEE",
   "size" : 4,
   "source_file" : "frameworks/native/libs/binder/ndk/include_cpp/android/binder_parcel_utils.h"
  },
  {
   "alignment" : 4,
   "linker_set_key" : "_ZTIRKNSt3__18optionalINS_6vectorIfNS_9allocatorIfEEEEEE",
   "name" : "const std::optional<std::vector<float, std::allocator<float>>> &",
   "referenced_type" : "_ZTIKNSt3__18optionalINS_6vectorIfNS_9allocatorIfEEEEEE",
   "self_type" : "_ZTIRKNSt3__18optionalINS_6vectorIfNS_9allocatorIfEEEEEE",
   "size" : 4,
   "source_file" : "frameworks/native/libs/binder/ndk/include_cpp/android/binder_parcel_utils.h"
  },
  {
   "alignment" : 4,
   "linker_set_key" : "_ZTIRKNSt3__18optionalINS_6vectorIhNS_9allocatorIhEEEEEE",
   "name" : "const std::optional<std::vector<unsigned char, std::allocator<unsigned char>>> &",
   "referenced_type" : "_ZTIKNSt3__18optionalINS_6vectorIhNS_9allocatorIhEEEEEE",
   "self_type" : "_ZTIRKNSt3__18optionalINS_6vectorIhNS_9allocatorIhEEEEEE",
   "size" : 4,
   "source_file" : "frameworks/native/libs/binder/ndk/include_cpp/android/binder_parcel_utils.h"
  },
  {
   "alignment" : 4,
   "linker_set_key" : "_ZTIRKNSt3__18optionalINS_6vectorIiNS_9allocatorIiEEEEEE",
   "name" : "const std::optional<std::vector<int, std::allocator<int>>> &",
   "referenced_type" : "_ZTIKNSt3__18optionalINS_6vectorIiNS_9allocatorIiEEEEEE",
   "self_type" : "_ZTIRKNSt3__18optionalINS_6vectorIiNS_9allocatorIiEEEEEE",
   "size" : 4,
   "source_file" : "frameworks/native/libs/binder/ndk/include_cpp/android/binder_parcel_utils.h"
  },
  {
   "alignment" : 4,
   "linker_set_key" : "_ZTIRKNSt3__18optionalINS_6vectorIjNS_9allocatorIjEEEEEE",
   "name" : "const std::optional<std::vector<unsigned int, std::allocator<unsigned int>>> &",
   "referenced_type" : "_ZTIKNSt3__18optionalINS_6vectorIjNS_9allocatorIjEEEEEE",
   "self_type" : "_ZTIRKNSt3__18optionalINS_6vectorIjNS_9allocatorIjEEEEEE",
   "size" : 4,
   "source_file" : "frameworks/native/libs/binder/ndk/include_cpp/android/binder_parcel_utils.h"
  },
  {
   "alignment" : 4,
   "linker_set_key" : "_ZTIRKNSt3__18optionalINS_6vectorIxNS_9allocatorIxEEEEEE",
   "name" : "const std::optional<std::vector<long long, std::allocator<long long>>> &",
   "referenced_type" : "_ZTIKNSt3__18optionalINS_6vectorIxNS_9allocatorIxEEEEEE",
   "self_type" : "_ZTIRKNSt3__18optionalINS_6vectorIxNS_9allocatorIxEEEEEE",
   "size" : 4,
   "source_file" : "frameworks/native/libs/binder/ndk/include_cpp/android/binder_parcel_utils.h"
  },
  {
   "alignment" : 4,
   "linker_set_key" : "_ZTIRKNSt3__18optionalINS_6vectorIyNS_9allocatorIyEEEEEE",
   "name" : "const std::optional<std::vector<unsigned long long, std::allocator<unsigned long long>>> &",
   "referenced_type" : "_ZTIKNSt3__18optionalINS_6vectorIyNS_9allocatorIyEEEEEE",
   "self_type" : "_ZTIRKNSt3__18optionalINS_6vectorIyNS_9allocatorIyEEEEEE",
   "size" : 4,
   "source_file" : "frameworks/native/libs/binder/ndk/include_cpp/android/binder_parcel_utils.h"
  },
  {
   "alignment" : 4,
   "linker_set_key" : "_ZTIRKi",
   "name" : "const int &",
   "referenced_type" : "_ZTIKi",
   "self_type" : "_ZTIRKi",
   "size" : 4,
   "source_file" : "frameworks/native/libs/binder/ndk/include_cpp/android/binder_to_string.h"
  },
  {
   "alignment" : 4,
   "linker_set_key" : "_ZTIRN3ndk10SpAIBinderE",
   "name" : "ndk::SpAIBinder &",
   "referenced_type" : "_ZTIN3ndk10SpAIBinderE",
   "self_type" : "_ZTIRN3ndk10SpAIBinderE",
   "size" : 4,
   "source_file" : "frameworks/native/libs/binder/ndk/include_cpp/android/binder_auto_utils.h"
  },
  {
   "alignment" : 4,
   "linker_set_key" : "_ZTIRN3ndk13ScopedAParcelE",
   "name" : "ndk::ScopedAParcel &",
   "referenced_type" : "_ZTIN3ndk13ScopedAParcelE",
   "self_type" : "_ZTIRN3ndk13ScopedAParcelE",
   "size" : 4,
   "source_file" : "frameworks/native/libs/binder/ndk/include_cpp/android/binder_auto_utils.h"
  },
  {
   "alignment" : 4,
   "linker_set_key" : "_ZTIRN3ndk13ScopedAStatusE",
   "name" : "ndk::ScopedAStatus &",
   "referenced_type" : "_ZTIN3ndk13ScopedAStatusE",
   "self_type" : "_ZTIRN3ndk13ScopedAStatusE",
   "size" : 4,
   "source_file" : "frameworks/native/libs/binder/ndk/include_cpp/android/binder_auto_utils.h"
  },
  {
   "alignment" : 4,
   "linker_set_key" : "_ZTIRN3ndk19ScopedAIBinder_WeakE",
   "name" : "ndk::ScopedAIBinder_Weak &",
   "referenced_type" : "_ZTIN3ndk19ScopedAIBinder_WeakE",
   "self_type" : "_ZTIRN3ndk19ScopedAIBinder_WeakE",
   "size" : 4,
   "source_file" : "frameworks/native/libs/binder/ndk/include_cpp/android/binder_auto_utils.h"
  },
  {
   "alignment" : 4,
   "linker_set_key" : "_ZTIRN3ndk20ScopedFileDescriptorE",
   "name" : "ndk::ScopedFileDescriptor &",
   "referenced_type" : "_ZTIN3ndk20ScopedFileDescriptorE",
   "self_type" : "_ZTIRN3ndk20ScopedFileDescriptorE",
   "size" : 4,
   "source_file" : "frameworks/native/libs/binder/ndk/include_cpp/android/binder_auto_utils.h"
  },
  {
   "alignment" : 4,
   "linker_set_key" : "_ZTIRN3ndk29ScopedAIBinder_DeathRecipientE",
   "name" : "ndk::ScopedAIBinder_DeathRecipient &",
   "referenced_type" : "_ZTIN3ndk29ScopedAIBinder_DeathRecipientE",
   "self_type" : "_ZTIRN3ndk29ScopedAIBinder_DeathRecipientE",
   "size" : 4,
   "source_file" : "frameworks/native/libs/binder/ndk/include_cpp/android/binder_auto_utils.h"
  },
  {
   "alignment" : 4,
   "linker_set_key" : "_ZTIRN3ndk4impl15ScopedAResourceIP7AStatusXadL_Z14AStatus_deleteEELS3_0EEE",
   "name" : "ndk::impl::ScopedAResource<AStatus *, &AStatus_delete, nullptr> &",
   "referenced_type" : "_ZTIN3ndk4impl15ScopedAResourceIP7AStatusXadL_Z14AStatus_deleteEELS3_0EEE",
   "self_type" : "_ZTIRN3ndk4impl15ScopedAResourceIP7AStatusXadL_Z14AStatus_deleteEELS3_0EEE",
   "size" : 4,
   "source_file" : "frameworks/native/libs/binder/ndk/include_cpp/android/binder_auto_utils.h"
  }
 ],
 "pointer_types" :
 [
  {
   "alignment" : 4,
   "linker_set_key" : "_ZTIP13AIBinder_Weak",
   "name" : "AIBinder_Weak *",
   "referenced_type" : "_ZTI13AIBinder_Weak",
   "self_type" : "_ZTIP13AIBinder_Weak",
   "size" : 4,
   "source_file" : "frameworks/native/libs/binder/ndk/include_cpp/android/binder_auto_utils.h"
  },
  {
   "alignment" : 4,
   "linker_set_key" : "_ZTIP14AIBinder_Class",
   "name" : "AIBinder_Class *",
   "referenced_type" : "_ZTI14AIBinder_Class",
   "self_type" : "_ZTIP14AIBinder_Class",
   "size" : 4,
   "source_file" : "frameworks/native/libs/binder/ndk/include_cpp/android/binder_interface_utils.h"
  },
  {
   "alignment" : 4,
   "linker_set_key" : "_ZTIP23AIBinder_DeathRecipient",
   "name" : "AIBinder_DeathRecipient *",
   "referenced_type" : "_ZTI23AIBinder_DeathRecipient",
   "self_type" : "_ZTIP23AIBinder_DeathRecipient",
   "size" : 4,
   "source_file" : "frameworks/native/libs/binder/ndk/include_cpp/android/binder_auto_utils.h"
  },
  {
   "alignment" : 4,
   "linker_set_key" : "_ZTIP7AParcel",
   "name" : "AParcel *",
   "referenced_type" : "_ZTI7AParcel",
   "self_type" : "_ZTIP7AParcel",
   "size" : 4,
   "source_file" : "frameworks/native/libs/binder/ndk/include_cpp/android/binder_auto_utils.h"
  },
  {
   "alignment" : 4,
   "linker_set_key" : "_ZTIP7AStatus",
   "name" : "AStatus *",
   "referenced_type" : "_ZTI7AStatus",
   "self_type" : "_ZTIP7AStatus",
   "size" : 4,
   "source_file" : "frameworks/native/libs/binder/ndk/include_cpp/android/binder_auto_utils.h"
  },
  {
   "alignment" : 4,
   "linker_set_key" : "_ZTIP8AIBinder",
   "name" : "AIBinder *",
   "referenced_type" : "_ZTI8AIBinder",
   "self_type" : "_ZTIP8AIBinder",
   "size" : 4,
   "source_file" : "frameworks/native/libs/binder/ndk/include_cpp/android/binder_auto_utils.h"
  },
  {
   "alignment" : 4,
   "linker_set_key" : "_ZTIPFiP8AIBinderjPK7AParcelPS1_E",
   "name" : "int (*)(AIBinder *, unsigned int, const AParcel *, AParcel *)",
   "referenced_type" : "_ZTIFiP8AIBinderjPK7AParcelPS1_E",
   "self_type" : "_ZTIPFiP8AIBinderjPK7AParcelPS1_E",
   "size" : 4,
   "source_file" : "frameworks/native/libs/binder/ndk/include_cpp/android/binder_interface_utils.h"
  },
  {
   "alignment" : 4,
   "linker_set_key" : "_ZTIPK7AParcel",
   "name" : "const AParcel *",
   "referenced_type" : "_ZTIK7AParcel",
   "self_type" : "_ZTIPK7AParcel",
   "size" : 4,
   "source_file" : "frameworks/native/libs/binder/ndk/include_cpp/android/binder_interface_utils.h"
  },
  {
   "alignment" : 4,
   "linker_set_key" : "_ZTIPKN3ndk10SpAIBinderE",
   "name" : "const ndk::SpAIBinder *",
   "referenced_type" : "_ZTIKN3ndk10SpAIBinderE",
   "self_type" : "_ZTIPKN3ndk10SpAIBinderE",
   "size" : 4,
   "source_file" : "frameworks/native/libs/binder/ndk/include_cpp/android/binder_auto_utils.h"
  },
  {
   "alignment" : 4,
   "linker_set_key" : "_ZTIPKN3ndk13ScopedAParcelE",
   "name" : "const ndk::ScopedAParcel *",
   "referenced_type" : "_ZTIKN3ndk13ScopedAParcelE",
   "self_type" : "_ZTIPKN3ndk13ScopedAParcelE",
   "size" : 4,
   "source_file" : "frameworks/native/libs/binder/ndk/include_cpp/android/binder_auto_utils.h"
  },
  {
   "alignment" : 4,
   "linker_set_key" : "_ZTIPKN3ndk13ScopedAStatusE",
   "name" : "const ndk::ScopedAStatus *",
   "referenced_type" : "_ZTIKN3ndk13ScopedAStatusE",
   "self_type" : "_ZTIPKN3ndk13ScopedAStatusE",
   "size" : 4,
   "source_file" : "frameworks/native/libs/binder/ndk/include_cpp/android/binder_auto_utils.h"
  },
  {
   "alignment" : 4,
   "linker_set_key" : "_ZTIPKN3ndk17AParcelableHolderE",
   "name" : "const ndk::AParcelableHolder *",
   "referenced_type" : "_ZTIKN3ndk17AParcelableHolderE",
   "self_type" : "_ZTIPKN3ndk17AParcelableHolderE",
   "size" : 4,
   "source_file" : "frameworks/native/libs/binder/ndk/include_cpp/android/binder_parcelable_utils.h"
  },
  {
   "alignment" : 4,
   "linker_set_key" : "_ZTIPKN3ndk20ScopedFileDescriptorE",
   "name" : "const ndk::ScopedFileDescriptor *",
   "referenced_type" : "_ZTIKN3ndk20ScopedFileDescriptorE",
   "self_type" : "_ZTIPKN3ndk20ScopedFileDescriptorE",
   "size" : 4,
   "source_file" : "frameworks/native/libs/binder/ndk/include_cpp/android/binder_auto_utils.h"
  },
  {
   "alignment" : 4,
   "linker_set_key" : "_ZTIPKN3ndk4impl15ScopedAResourceIP7AParcelXadL_Z14AParcel_deleteEELS3_0EEE",
   "name" : "const ndk::impl::ScopedAResource<AParcel *, &AParcel_delete, nullptr> *",
   "referenced_type" : "_ZTIKN3ndk4impl15ScopedAResourceIP7AParcelXadL_Z14AParcel_deleteEELS3_0EEE",
   "self_type" : "_ZTIPKN3ndk4impl15ScopedAResourceIP7AParcelXadL_Z14AParcel_deleteEELS3_0EEE",
   "size" : 4,
   "source_file" : "frameworks/native/libs/binder/ndk/include_cpp/android/binder_auto_utils.h"
  },
  {
   "alignment" : 4,
   "linker_set_key" : "_ZTIPKN3ndk4impl15ScopedAResourceIP7AStatusXadL_Z14AStatus_deleteEELS3_0EEE",
   "name" : "const ndk::impl::ScopedAResource<AStatus *, &AStatus_delete, nullptr> *",
   "referenced_type" : "_ZTIKN3ndk4impl15ScopedAResourceIP7AStatusXadL_Z14AStatus_deleteEELS3_0EEE",
   "self_type" : "_ZTIPKN3ndk4impl15ScopedAResourceIP7AStatusXadL_Z14AStatus_deleteEELS3_0EEE",
   "size" : 4,
   "source_file" : "frameworks/native/libs/binder/ndk/include_cpp/android/binder_auto_utils.h"
  },
  {
   "alignment" : 4,
   "linker_set_key" : "_ZTIPKN4aidl7android8hardware5radio17RadioResponseInfoE",
   "name" : "const aidl::android::hardware::radio::RadioResponseInfo *",
   "referenced_type" : "_ZTIKN4aidl7android8hardware5radio17RadioResponseInfoE",
   "self_type" : "_ZTIPKN4aidl7android8hardware5radio17RadioResponseInfoE",
   "size" : 4,
   "source_file" : "out/soong/.intermediates/hardware/interfaces/radio/aidl/android.hardware.radio-V1-ndk-source/gen/include/aidl/android/hardware/radio/RadioResponseInfo.h"
  },
  {
   "alignment" : 4,
   "linker_set_key" : "_ZTIPKN4aidl7android8hardware5radio5modem11NvWriteItemE",
   "name" : "const aidl::android::hardware::radio::modem::NvWriteItem *",
   "referenced_type" : "_ZTIKN4aidl7android8hardware5radio5modem11NvWriteItemE",
   "self_type" : "_ZTIPKN4aidl7android8hardware5radio5modem11NvWriteItemE",
   "size" : 4,
   "source_file" : "out/soong/.intermediates/hardware/interfaces/radio/aidl/android.hardware.radio.modem-V1-ndk-source/gen/include/aidl/android/hardware/radio/modem/NvWriteItem.h"
  },
  {
   "alignment" : 4,
   "linker_set_key" : "_ZTIPKN4aidl7android8hardware5radio5modem14HardwareConfigE",
   "name" : "const aidl::android::hardware::radio::modem::HardwareConfig *",
   "referenced_type" : "_ZTIKN4aidl7android8hardware5radio5modem14HardwareConfigE",
   "self_type" : "_ZTIPKN4aidl7android8hardware5radio5modem14HardwareConfigE",
   "size" : 4,
   "source_file" : "out/soong/.intermediates/hardware/interfaces/radio/aidl/android.hardware.radio.modem-V1-ndk-source/gen/include/aidl/android/hardware/radio/modem/HardwareConfig.h"
  },
  {
   "alignment" : 4,
   "linker_set_key" : "_ZTIPKN4aidl7android8hardware5radio5modem15RadioCapabilityE",
   "name" : "const aidl::android::hardware::radio::modem::RadioCapability *",
   "referenced_type" : "_ZTIKN4aidl7android8hardware5radio5modem15RadioCapabilityE",
   "self_type" : "_ZTIPKN4aidl7android8hardware5radio5modem15RadioCapabilityE",
   "size" : 4,
   "source_file" : "out/soong/.intermediates/hardware/interfaces/radio/aidl/android.hardware.radio.modem-V1-ndk-source/gen/include/aidl/android/hardware/radio/modem/RadioCapability.h"
  },
  {
   "alignment" : 4,
   "linker_set_key" : "_ZTIPKN4aidl7android8hardware5radio5modem17ActivityStatsInfoE",
   "name" : "const aidl::android::hardware::radio::modem::ActivityStatsInfo *",
   "referenced_type" : "_ZTIKN4aidl7android8hardware5radio5modem17ActivityStatsInfoE",
   "self_type" : "_ZTIPKN4aidl7android8hardware5radio5modem17ActivityStatsInfoE",
   "size" : 4,
   "source_file" : "out/soong/.intermediates/hardware/interfaces/radio/aidl/android.hardware.radio.modem-V1-ndk-source/gen/include/aidl/android/hardware/radio/modem/ActivityStatsInfo.h"
  },
  {
   "alignment" : 4,
   "linker_set_key" : "_ZTIPKN4aidl7android8hardware5radio5modem17HardwareConfigSimE",
   "name" : "const aidl::android::hardware::radio::modem::HardwareConfigSim *",
   "referenced_type" : "_ZTIKN4aidl7android8hardware5radio5modem17HardwareConfigSimE",
   "self_type" : "_ZTIPKN4aidl7android8hardware5radio5modem17HardwareConfigSimE",
   "size" : 4,
   "source_file" : "out/soong/.intermediates/hardware/interfaces/radio/aidl/android.hardware.radio.modem-V1-ndk-source/gen/include/aidl/android/hardware/radio/modem/HardwareConfigSim.h"
  },
  {
   "alignment" : 4,
   "linker_set_key" : "_ZTIPKN4aidl7android8hardware5radio5modem19HardwareConfigModemE",
   "name" : "const aidl::android::hardware::radio::modem::HardwareConfigModem *",
   "referenced_type" : "_ZTIKN4aidl7android8hardware5radio5modem19HardwareConfigModemE",
   "self_type" : "_ZTIPKN4aidl7android8hardware5radio5modem19HardwareConfigModemE",
   "size" : 4,
   "source_file" : "out/soong/.intermediates/hardware/interfaces/radio/aidl/android.hardware.radio.modem-V1-ndk-source/gen/include/aidl/android/hardware/radio/modem/HardwareConfigModem.h"
  },
  {
   "alignment" : 4,
   "linker_set_key" : "_ZTIPKN4aidl7android8hardware5radio5modem29ActivityStatsTechSpecificInfoE",
   "name" : "const aidl::android::hardware::radio::modem::ActivityStatsTechSpecificInfo *",
   "referenced_type" : "_ZTIKN4aidl7android8hardware5radio5modem29ActivityStatsTechSpecificInfoE",
   "self_type" : "_ZTIPKN4aidl7android8hardware5radio5modem29ActivityStatsTechSpecificInfoE",
   "size" : 4,
   "source_file" : "out/soong/.intermediates/hardware/interfaces/radio/aidl/android.hardware.radio.modem-V1-ndk-source/gen/include/aidl/android/hardware/radio/modem/ActivityStatsTechSpecificInfo.h"
  },
  {
   "alignment" : 4,
   "linker_set_key" : "_ZTIPKc",
   "name" : "const char *",
   "referenced_type" : "_ZTIKc",
   "self_type" : "_ZTIPKc",
   "size" : 4,
   "source_file" : "frameworks/native/libs/binder/ndk/include_cpp/android/binder_auto_utils.h"
  },
  {
   "alignment" : 4,
   "linker_set_key" : "_ZTIPKv",
   "name" : "const void *",
   "referenced_type" : "_ZTIKv",
   "self_type" : "_ZTIPKv",
   "size" : 4,
   "source_file" : "frameworks/native/libs/binder/ndk/include_cpp/android/binder_parcel_utils.h"
  },
  {
   "alignment" : 4,
   "linker_set_key" : "_ZTIPN3ndk10SpAIBinderE",
   "name" : "ndk::SpAIBinder *",
   "referenced_type" : "_ZTIN3ndk10SpAIBinderE",
   "self_type" : "_ZTIPN3ndk10SpAIBinderE",
   "size" : 4,
   "source_file" : "frameworks/native/libs/binder/ndk/include_cpp/android/binder_auto_utils.h"
  },
  {
   "alignment" : 4,
   "linker_set_key" : "_ZTIPN3ndk11ICInterfaceE",
   "name" : "ndk::ICInterface *",
   "referenced_type" : "_ZTIN3ndk11ICInterfaceE",
   "self_type" : "_ZTIPN3ndk11ICInterfaceE",
   "size" : 4,
   "source_file" : "frameworks/native/libs/binder/ndk/include_cpp/android/binder_interface_utils.h"
  },
  {
   "alignment" : 4,
   "linker_set_key" : "_ZTIPN3ndk12BnCInterfaceIN4aidl7android8hardware5radio5modem11IRadioModemEEE",
   "name" : "ndk::BnCInterface<aidl::android::hardware::radio::modem::IRadioModem> *",
   "referenced_type" : "_ZTIN3ndk12BnCInterfaceIN4aidl7android8hardware5radio5modem11IRadioModemEEE",
   "self_type" : "_ZTIPN3ndk12BnCInterfaceIN4aidl7android8hardware5radio5modem11IRadioModemEEE",
   "size" : 4,
   "source_file" : "frameworks/native/libs/binder/ndk/include_cpp/android/binder_interface_utils.h"
  },
  {
   "alignment" : 4,
   "linker_set_key" : "_ZTIPN3ndk12BnCInterfaceIN4aidl7android8hardware5radio5modem19IRadioModemResponseEEE",
   "name" : "ndk::BnCInterface<aidl::android::hardware::radio::modem::IRadioModemResponse> *",
   "referenced_type" : "_ZTIN3ndk12BnCInterfaceIN4aidl7android8hardware5radio5modem19IRadioModemResponseEEE",
   "self_type" : "_ZTIPN3ndk12BnCInterfaceIN4aidl7android8hardware5radio5modem19IRadioModemResponseEEE",
   "size" : 4,
   "source_file" : "frameworks/native/libs/binder/ndk/include_cpp/android/binder_interface_utils.h"
  },
  {
   "alignment" : 4,
   "linker_set_key" : "_ZTIPN3ndk12BnCInterfaceIN4aidl7android8hardware5radio5modem21IRadioModemIndicationEEE",
   "name" : "ndk::BnCInterface<aidl::android::hardware::radio::modem::IRadioModemIndication> *",
   "referenced_type" : "_ZTIN3ndk12BnCInterfaceIN4aidl7android8hardware5radio5modem21IRadioModemIndicationEEE",
   "self_type" : "_ZTIPN3ndk12BnCInterfaceIN4aidl7android8hardware5radio5modem21IRadioModemIndicationEEE",
   "size" : 4,
   "source_file" : "frameworks/native/libs/binder/ndk/include_cpp/android/binder_interface_utils.h"
  },
  {
   "alignment" : 4,
   "linker_set_key" : "_ZTIPN3ndk12BpCInterfaceIN4aidl7android8hardware5radio5modem11IRadioModemEEE",
   "name" : "ndk::BpCInterface<aidl::android::hardware::radio::modem::IRadioModem> *",
   "referenced_type" : "_ZTIN3ndk12BpCInterfaceIN4aidl7android8hardware5radio5modem11IRadioModemEEE",
   "self_type" : "_ZTIPN3ndk12BpCInterfaceIN4aidl7android8hardware5radio5modem11IRadioModemEEE",
   "size" : 4,
   "source_file" : "frameworks/native/libs/binder/ndk/include_cpp/android/binder_interface_utils.h"
  },
  {
   "alignment" : 4,
   "linker_set_key" : "_ZTIPN3ndk12BpCInterfaceIN4aidl7android8hardware5radio5modem19IRadioModemResponseEEE",
   "name" : "ndk::BpCInterface<aidl::android::hardware::radio::modem::IRadioModemResponse> *",
   "referenced_type" : "_ZTIN3ndk12BpCInterfaceIN4aidl7android8hardware5radio5modem19IRadioModemResponseEEE",
   "self_type" : "_ZTIPN3ndk12BpCInterfaceIN4aidl7android8hardware5radio5modem19IRadioModemResponseEEE",
   "size" : 4,
   "source_file" : "frameworks/native/libs/binder/ndk/include_cpp/android/binder_interface_utils.h"
  },
  {
   "alignment" : 4,
   "linker_set_key" : "_ZTIPN3ndk12BpCInterfaceIN4aidl7android8hardware5radio5modem21IRadioModemIndicationEEE",
   "name" : "ndk::BpCInterface<aidl::android::hardware::radio::modem::IRadioModemIndication> *",
   "referenced_type" : "_ZTIN3ndk12BpCInterfaceIN4aidl7android8hardware5radio5modem21IRadioModemIndicationEEE",
   "self_type" : "_ZTIPN3ndk12BpCInterfaceIN4aidl7android8hardware5radio5modem21IRadioModemIndicationEEE",
   "size" : 4,
   "source_file" : "frameworks/native/libs/binder/ndk/include_cpp/android/binder_interface_utils.h"
  },
  {
   "alignment" : 4,
   "linker_set_key" : "_ZTIPN3ndk13ScopedAParcelE",
   "name" : "ndk::ScopedAParcel *",
   "referenced_type" : "_ZTIN3ndk13ScopedAParcelE",
   "self_type" : "_ZTIPN3ndk13ScopedAParcelE",
   "size" : 4,
   "source_file" : "frameworks/native/libs/binder/ndk/include_cpp/android/binder_auto_utils.h"
  },
  {
   "alignment" : 4,
   "linker_set_key" : "_ZTIPN3ndk13ScopedAStatusE",
   "name" : "ndk::ScopedAStatus *",
   "referenced_type" : "_ZTIN3ndk13ScopedAStatusE",
   "self_type" : "_ZTIPN3ndk13ScopedAStatusE",
   "size" : 4,
   "source_file" : "frameworks/native/libs/binder/ndk/include_cpp/android/binder_auto_utils.h"
  },
  {
   "alignment" : 4,
   "linker_set_key" : "_ZTIPN3ndk13SharedRefBaseE",
   "name" : "ndk::SharedRefBase *",
   "referenced_type" : "_ZTIN3ndk13SharedRefBaseE",
   "self_type" : "_ZTIPN3ndk13SharedRefBaseE",
   "size" : 4,
   "source_file" : "frameworks/native/libs/binder/ndk/include_cpp/android/binder_interface_utils.h"
  },
  {
   "alignment" : 4,
   "linker_set_key" : "_ZTIPN3ndk17AParcelableHolderE",
   "name" : "ndk::AParcelableHolder *",
   "referenced_type" : "_ZTIN3ndk17AParcelableHolderE",
   "self_type" : "_ZTIPN3ndk17AParcelableHolderE",
   "size" : 4,
   "source_file" : "frameworks/native/libs/binder/ndk/include_cpp/android/binder_parcelable_utils.h"
  },
  {
   "alignment" : 4,
   "linker_set_key" : "_ZTIPN3ndk19ScopedAIBinder_WeakE",
   "name" : "ndk::ScopedAIBinder_Weak *",
   "referenced_type" : "_ZTIN3ndk19ScopedAIBinder_WeakE",
   "self_type" : "_ZTIPN3ndk19ScopedAIBinder_WeakE",
   "size" : 4,
   "source_file" : "frameworks/native/libs/binder/ndk/include_cpp/android/binder_auto_utils.h"
  },
  {
   "alignment" : 4,
   "linker_set_key" : "_ZTIPN3ndk20ScopedFileDescriptorE",
   "name" : "ndk::ScopedFileDescriptor *",
   "referenced_type" : "_ZTIN3ndk20ScopedFileDescriptorE",
   "self_type" : "_ZTIPN3ndk20ScopedFileDescriptorE",
   "size" : 4,
   "source_file" : "frameworks/native/libs/binder/ndk/include_cpp/android/binder_auto_utils.h"
  },
  {
   "alignment" : 4,
   "linker_set_key" : "_ZTIPN3ndk29ScopedAIBinder_DeathRecipientE",
   "name" : "ndk::ScopedAIBinder_DeathRecipient *",
   "referenced_type" : "_ZTIN3ndk29ScopedAIBinder_DeathRecipientE",
   "self_type" : "_ZTIPN3ndk29ScopedAIBinder_DeathRecipientE",
   "size" : 4,
   "source_file" : "frameworks/native/libs/binder/ndk/include_cpp/android/binder_auto_utils.h"
  },
  {
   "alignment" : 4,
   "linker_set_key" : "_ZTIPN3ndk4impl15ScopedAResourceIP13AIBinder_WeakXadL_Z20AIBinder_Weak_deleteEELS3_0EEE",
   "name" : "ndk::impl::ScopedAResource<AIBinder_Weak *, &AIBinder_Weak_delete, nullptr> *",
   "referenced_type" : "_ZTIN3ndk4impl15ScopedAResourceIP13AIBinder_WeakXadL_Z20AIBinder_Weak_deleteEELS3_0EEE",
   "self_type" : "_ZTIPN3ndk4impl15ScopedAResourceIP13AIBinder_WeakXadL_Z20AIBinder_Weak_deleteEELS3_0EEE",
   "size" : 4,
   "source_file" : "frameworks/native/libs/binder/ndk/include_cpp/android/binder_auto_utils.h"
  },
  {
   "alignment" : 4,
   "linker_set_key" : "_ZTIPN3ndk4impl15ScopedAResourceIP23AIBinder_DeathRecipientXadL_Z30AIBinder_DeathRecipient_deleteEELS3_0EEE",
   "name" : "ndk::impl::ScopedAResource<AIBinder_DeathRecipient *, &AIBinder_DeathRecipient_delete, nullptr> *",
   "referenced_type" : "_ZTIN3ndk4impl15ScopedAResourceIP23AIBinder_DeathRecipientXadL_Z30AIBinder_DeathRecipient_deleteEELS3_0EEE",
   "self_type" : "_ZTIPN3ndk4impl15ScopedAResourceIP23AIBinder_DeathRecipientXadL_Z30AIBinder_DeathRecipient_deleteEELS3_0EEE",
   "size" : 4,
   "source_file" : "frameworks/native/libs/binder/ndk/include_cpp/android/binder_auto_utils.h"
  },
  {
   "alignment" : 4,
   "linker_set_key" : "_ZTIPN3ndk4impl15ScopedAResourceIP7AParcelXadL_Z14AParcel_deleteEELS3_0EEE",
   "name" : "ndk::impl::ScopedAResource<AParcel *, &AParcel_delete, nullptr> *",
   "referenced_type" : "_ZTIN3ndk4impl15ScopedAResourceIP7AParcelXadL_Z14AParcel_deleteEELS3_0EEE",
   "self_type" : "_ZTIPN3ndk4impl15ScopedAResourceIP7AParcelXadL_Z14AParcel_deleteEELS3_0EEE",
   "size" : 4,
   "source_file" : "frameworks/native/libs/binder/ndk/include_cpp/android/binder_auto_utils.h"
  },
  {
   "alignment" : 4,
   "linker_set_key" : "_ZTIPN3ndk4impl15ScopedAResourceIP7AStatusXadL_Z14AStatus_deleteEELS3_0EEE",
   "name" : "ndk::impl::ScopedAResource<AStatus *, &AStatus_delete, nullptr> *",
   "referenced_type" : "_ZTIN3ndk4impl15ScopedAResourceIP7AStatusXadL_Z14AStatus_deleteEELS3_0EEE",
   "self_type" : "_ZTIPN3ndk4impl15ScopedAResourceIP7AStatusXadL_Z14AStatus_deleteEELS3_0EEE",
   "size" : 4,
   "source_file" : "frameworks/native/libs/binder/ndk/include_cpp/android/binder_auto_utils.h"
  },
  {
   "alignment" : 4,
   "linker_set_key" : "_ZTIPN4aidl7android8hardware5radio5modem11IRadioModemE",
   "name" : "aidl::android::hardware::radio::modem::IRadioModem *",
   "referenced_type" : "_ZTIN4aidl7android8hardware5radio5modem11IRadioModemE",
   "self_type" : "_ZTIPN4aidl7android8hardware5radio5modem11IRadioModemE",
   "size" : 4,
   "source_file" : "out/soong/.intermediates/hardware/interfaces/radio/aidl/android.hardware.radio.modem-V1-ndk-source/gen/include/aidl/android/hardware/radio/modem/IRadioModem.h"
  },
  {
   "alignment" : 4,
   "linker_set_key" : "_ZTIPN4aidl7android8hardware5radio5modem11NvWriteItemE",
   "name" : "aidl::android::hardware::radio::modem::NvWriteItem *",
   "referenced_type" : "_ZTIN4aidl7android8hardware5radio5modem11NvWriteItemE",
   "self_type" : "_ZTIPN4aidl7android8hardware5radio5modem11NvWriteItemE",
   "size" : 4,
   "source_file" : "out/soong/.intermediates/hardware/interfaces/radio/aidl/android.hardware.radio.modem-V1-ndk-source/gen/include/aidl/android/hardware/radio/modem/NvWriteItem.h"
  },
  {
   "alignment" : 4,
   "linker_set_key" : "_ZTIPN4aidl7android8hardware5radio5modem12BnRadioModemE",
   "name" : "aidl::android::hardware::radio::modem::BnRadioModem *",
   "referenced_type" : "_ZTIN4aidl7android8hardware5radio5modem12BnRadioModemE",
   "self_type" : "_ZTIPN4aidl7android8hardware5radio5modem12BnRadioModemE",
   "size" : 4,
   "source_file" : "out/soong/.intermediates/hardware/interfaces/radio/aidl/android.hardware.radio.modem-V1-ndk-source/gen/include/aidl/android/hardware/radio/modem/BnRadioModem.h"
  },
  {
   "alignment" : 4,
   "linker_set_key" : "_ZTIPN4aidl7android8hardware5radio5modem12BpRadioModemE",
   "name" : "aidl::android::hardware::radio::modem::BpRadioModem *",
   "referenced_type" : "_ZTIN4aidl7android8hardware5radio5modem12BpRadioModemE",
   "self_type" : "_ZTIPN4aidl7android8hardware5radio5modem12BpRadioModemE",
   "size" : 4,
   "source_file" : "out/soong/.intermediates/hardware/interfaces/radio/aidl/android.hardware.radio.modem-V1-ndk-source/gen/include/aidl/android/hardware/radio/modem/BpRadioModem.h"
  },
  {
   "alignment" : 4,
   "linker_set_key" : "_ZTIPN4aidl7android8hardware5radio5modem14HardwareConfigE",
   "name" : "aidl::android::hardware::radio::modem::HardwareConfig *",
   "referenced_type" : "_ZTIN4aidl7android8hardware5radio5modem14HardwareConfigE",
   "self_type" : "_ZTIPN4aidl7android8hardware5radio5modem14HardwareConfigE",
   "size" : 4,
   "source_file" : "out/soong/.intermediates/hardware/interfaces/radio/aidl/android.hardware.radio.modem-V1-ndk-source/gen/include/aidl/android/hardware/radio/modem/HardwareConfig.h"
  },
  {
   "alignment" : 4,
   "linker_set_key" : "_ZTIPN4aidl7android8hardware5radio5modem15RadioCapabilityE",
   "name" : "aidl::android::hardware::radio::modem::RadioCapability *",
   "referenced_type" : "_ZTIN4aidl7android8hardware5radio5modem15RadioCapabilityE",
   "self_type" : "_ZTIPN4aidl7android8hardware5radio5modem15RadioCapabilityE",
   "size" : 4,
   "source_file" : "out/soong/.intermediates/hardware/interfaces/radio/aidl/android.hardware.radio.modem-V1-ndk-source/gen/include/aidl/android/hardware/radio/modem/RadioCapability.h"
  },
  {
   "alignment" : 4,
   "linker_set_key" : "_ZTIPN4aidl7android8hardware5radio5modem17ActivityStatsInfoE",
   "name" : "aidl::android::hardware::radio::modem::ActivityStatsInfo *",
   "referenced_type" : "_ZTIN4aidl7android8hardware5radio5modem17ActivityStatsInfoE",
   "self_type" : "_ZTIPN4aidl7android8hardware5radio5modem17ActivityStatsInfoE",
   "size" : 4,
   "source_file" : "out/soong/.intermediates/hardware/interfaces/radio/aidl/android.hardware.radio.modem-V1-ndk-source/gen/include/aidl/android/hardware/radio/modem/ActivityStatsInfo.h"
  },
  {
   "alignment" : 4,
   "linker_set_key" : "_ZTIPN4aidl7android8hardware5radio5modem17HardwareConfigSimE",
   "name" : "aidl::android::hardware::radio::modem::HardwareConfigSim *",
   "referenced_type" : "_ZTIN4aidl7android8hardware5radio5modem17HardwareConfigSimE",
   "self_type" : "_ZTIPN4aidl7android8hardware5radio5modem17HardwareConfigSimE",
   "size" : 4,
   "source_file" : "out/soong/.intermediates/hardware/interfaces/radio/aidl/android.hardware.radio.modem-V1-ndk-source/gen/include/aidl/android/hardware/radio/modem/HardwareConfigSim.h"
  },
  {
   "alignment" : 4,
   "linker_set_key" : "_ZTIPN4aidl7android8hardware5radio5modem18IRadioModemDefaultE",
   "name" : "aidl::android::hardware::radio::modem::IRadioModemDefault *",
   "referenced_type" : "_ZTIN4aidl7android8hardware5radio5modem18IRadioModemDefaultE",
   "self_type" : "_ZTIPN4aidl7android8hardware5radio5modem18IRadioModemDefaultE",
   "size" : 4,
   "source_file" : "out/soong/.intermediates/hardware/interfaces/radio/aidl/android.hardware.radio.modem-V1-ndk-source/gen/include/aidl/android/hardware/radio/modem/IRadioModem.h"
  },
  {
   "alignment" : 4,
   "linker_set_key" : "_ZTIPN4aidl7android8hardware5radio5modem19HardwareConfigModemE",
   "name" : "aidl::android::hardware::radio::modem::HardwareConfigModem *",
   "referenced_type" : "_ZTIN4aidl7android8hardware5radio5modem19HardwareConfigModemE",
   "self_type" : "_ZTIPN4aidl7android8hardware5radio5modem19HardwareConfigModemE",
   "size" : 4,
   "source_file" : "out/soong/.intermediates/hardware/interfaces/radio/aidl/android.hardware.radio.modem-V1-ndk-source/gen/include/aidl/android/hardware/radio/modem/HardwareConfigModem.h"
  },
  {
   "alignment" : 4,
   "linker_set_key" : "_ZTIPN4aidl7android8hardware5radio5modem19IRadioModemResponseE",
   "name" : "aidl::android::hardware::radio::modem::IRadioModemResponse *",
   "referenced_type" : "_ZTIN4aidl7android8hardware5radio5modem19IRadioModemResponseE",
   "self_type" : "_ZTIPN4aidl7android8hardware5radio5modem19IRadioModemResponseE",
   "size" : 4,
   "source_file" : "out/soong/.intermediates/hardware/interfaces/radio/aidl/android.hardware.radio.modem-V1-ndk-source/gen/include/aidl/android/hardware/radio/modem/IRadioModemResponse.h"
  },
  {
   "alignment" : 4,
   "linker_set_key" : "_ZTIPN4aidl7android8hardware5radio5modem20BnRadioModemResponseE",
   "name" : "aidl::android::hardware::radio::modem::BnRadioModemResponse *",
   "referenced_type" : "_ZTIN4aidl7android8hardware5radio5modem20BnRadioModemResponseE",
   "self_type" : "_ZTIPN4aidl7android8hardware5radio5modem20BnRadioModemResponseE",
   "size" : 4,
   "source_file" : "out/soong/.intermediates/hardware/interfaces/radio/aidl/android.hardware.radio.modem-V1-ndk-source/gen/include/aidl/android/hardware/radio/modem/BnRadioModemResponse.h"
  },
  {
   "alignment" : 4,
   "linker_set_key" : "_ZTIPN4aidl7android8hardware5radio5modem20BpRadioModemResponseE",
   "name" : "aidl::android::hardware::radio::modem::BpRadioModemResponse *",
   "referenced_type" : "_ZTIN4aidl7android8hardware5radio5modem20BpRadioModemResponseE",
   "self_type" : "_ZTIPN4aidl7android8hardware5radio5modem20BpRadioModemResponseE",
   "size" : 4,
   "source_file" : "out/soong/.intermediates/hardware/interfaces/radio/aidl/android.hardware.radio.modem-V1-ndk-source/gen/include/aidl/android/hardware/radio/modem/BpRadioModemResponse.h"
  },
  {
   "alignment" : 4,
   "linker_set_key" : "_ZTIPN4aidl7android8hardware5radio5modem20IRadioModemDelegatorE",
   "name" : "aidl::android::hardware::radio::modem::IRadioModemDelegator *",
   "referenced_type" : "_ZTIN4aidl7android8hardware5radio5modem20IRadioModemDelegatorE",
   "self_type" : "_ZTIPN4aidl7android8hardware5radio5modem20IRadioModemDelegatorE",
   "size" : 4,
   "source_file" : "out/soong/.intermediates/hardware/interfaces/radio/aidl/android.hardware.radio.modem-V1-ndk-source/gen/include/aidl/android/hardware/radio/modem/BnRadioModem.h"
  },
  {
   "alignment" : 4,
   "linker_set_key" : "_ZTIPN4aidl7android8hardware5radio5modem21IRadioModemIndicationE",
   "name" : "aidl::android::hardware::radio::modem::IRadioModemIndication *",
   "referenced_type" : "_ZTIN4aidl7android8hardware5radio5modem21IRadioModemIndicationE",
   "self_type" : "_ZTIPN4aidl7android8hardware5radio5modem21IRadioModemIndicationE",
   "size" : 4,
   "source_file" : "out/soong/.intermediates/hardware/interfaces/radio/aidl/android.hardware.radio.modem-V1-ndk-source/gen/include/aidl/android/hardware/radio/modem/IRadioModemIndication.h"
  },
  {
   "alignment" : 4,
   "linker_set_key" : "_ZTIPN4aidl7android8hardware5radio5modem22BnRadioModemIndicationE",
   "name" : "aidl::android::hardware::radio::modem::BnRadioModemIndication *",
   "referenced_type" : "_ZTIN4aidl7android8hardware5radio5modem22BnRadioModemIndicationE",
   "self_type" : "_ZTIPN4aidl7android8hardware5radio5modem22BnRadioModemIndicationE",
   "size" : 4,
   "source_file" : "out/soong/.intermediates/hardware/interfaces/radio/aidl/android.hardware.radio.modem-V1-ndk-source/gen/include/aidl/android/hardware/radio/modem/BnRadioModemIndication.h"
  },
  {
   "alignment" : 4,
   "linker_set_key" : "_ZTIPN4aidl7android8hardware5radio5modem22BpRadioModemIndicationE",
   "name" : "aidl::android::hardware::radio::modem::BpRadioModemIndication *",
   "referenced_type" : "_ZTIN4aidl7android8hardware5radio5modem22BpRadioModemIndicationE",
   "self_type" : "_ZTIPN4aidl7android8hardware5radio5modem22BpRadioModemIndicationE",
   "size" : 4,
   "source_file" : "out/soong/.intermediates/hardware/interfaces/radio/aidl/android.hardware.radio.modem-V1-ndk-source/gen/include/aidl/android/hardware/radio/modem/BpRadioModemIndication.h"
  },
  {
   "alignment" : 4,
   "linker_set_key" : "_ZTIPN4aidl7android8hardware5radio5modem26IRadioModemResponseDefaultE",
   "name" : "aidl::android::hardware::radio::modem::IRadioModemResponseDefault *",
   "referenced_type" : "_ZTIN4aidl7android8hardware5radio5modem26IRadioModemResponseDefaultE",
   "self_type" : "_ZTIPN4aidl7android8hardware5radio5modem26IRadioModemResponseDefaultE",
   "size" : 4,
   "source_file" : "out/soong/.intermediates/hardware/interfaces/radio/aidl/android.hardware.radio.modem-V1-ndk-source/gen/include/aidl/android/hardware/radio/modem/IRadioModemResponse.h"
  },
  {
   "alignment" : 4,
   "linker_set_key" : "_ZTIPN4aidl7android8hardware5radio5modem28IRadioModemIndicationDefaultE",
   "name" : "aidl::android::hardware::radio::modem::IRadioModemIndicationDefault *",
   "referenced_type" : "_ZTIN4aidl7android8hardware5radio5modem28IRadioModemIndicationDefaultE",
   "self_type" : "_ZTIPN4aidl7android8hardware5radio5modem28IRadioModemIndicationDefaultE",
   "size" : 4,
   "source_file" : "out/soong/.intermediates/hardware/interfaces/radio/aidl/android.hardware.radio.modem-V1-ndk-source/gen/include/aidl/android/hardware/radio/modem/IRadioModemIndication.h"
  },
  {
   "alignment" : 4,
   "linker_set_key" : "_ZTIPN4aidl7android8hardware5radio5modem28IRadioModemResponseDelegatorE",
   "name" : "aidl::android::hardware::radio::modem::IRadioModemResponseDelegator *",
   "referenced_type" : "_ZTIN4aidl7android8hardware5radio5modem28IRadioModemResponseDelegatorE",
   "self_type" : "_ZTIPN4aidl7android8hardware5radio5modem28IRadioModemResponseDelegatorE",
   "size" : 4,
   "source_file" : "out/soong/.intermediates/hardware/interfaces/radio/aidl/android.hardware.radio.modem-V1-ndk-source/gen/include/aidl/android/hardware/radio/modem/BnRadioModemResponse.h"
  },
  {
   "alignment" : 4,
   "linker_set_key" : "_ZTIPN4aidl7android8hardware5radio5modem29ActivityStatsTechSpecificInfoE",
   "name" : "aidl::android::hardware::radio::modem::ActivityStatsTechSpecificInfo *",
   "referenced_type" : "_ZTIN4aidl7android8hardware5radio5modem29ActivityStatsTechSpecificInfoE",
   "self_type" : "_ZTIPN4aidl7android8hardware5radio5modem29ActivityStatsTechSpecificInfoE",
   "size" : 4,
   "source_file" : "out/soong/.intermediates/hardware/interfaces/radio/aidl/android.hardware.radio.modem-V1-ndk-source/gen/include/aidl/android/hardware/radio/modem/ActivityStatsTechSpecificInfo.h"
  },
  {
   "alignment" : 4,
   "linker_set_key" : "_ZTIPN4aidl7android8hardware5radio5modem30IRadioModemIndicationDelegatorE",
   "name" : "aidl::android::hardware::radio::modem::IRadioModemIndicationDelegator *",
   "referenced_type" : "_ZTIN4aidl7android8hardware5radio5modem30IRadioModemIndicationDelegatorE",
   "self_type" : "_ZTIPN4aidl7android8hardware5radio5modem30IRadioModemIndicationDelegatorE",
   "size" : 4,
   "source_file" : "out/soong/.intermediates/hardware/interfaces/radio/aidl/android.hardware.radio.modem-V1-ndk-source/gen/include/aidl/android/hardware/radio/modem/BnRadioModemIndication.h"
  },
  {
   "alignment" : 4,
   "linker_set_key" : "_ZTIPNSt3__110shared_ptrIN4aidl7android8hardware5radio5modem11IRadioModemEEE",
   "name" : "std::shared_ptr<aidl::android::hardware::radio::modem::IRadioModem> *",
   "referenced_type" : "_ZTINSt3__110shared_ptrIN4aidl7android8hardware5radio5modem11IRadioModemEEE",
   "self_type" : "_ZTIPNSt3__110shared_ptrIN4aidl7android8hardware5radio5modem11IRadioModemEEE",
   "size" : 4,
   "source_file" : "out/soong/.intermediates/hardware/interfaces/radio/aidl/android.hardware.radio.modem-V1-ndk-source/gen/include/aidl/android/hardware/radio/modem/IRadioModem.h"
  },
  {
   "alignment" : 4,
   "linker_set_key" : "_ZTIPNSt3__110shared_ptrIN4aidl7android8hardware5radio5modem19IRadioModemResponseEEE",
   "name" : "std::shared_ptr<aidl::android::hardware::radio::modem::IRadioModemResponse> *",
   "referenced_type" : "_ZTINSt3__110shared_ptrIN4aidl7android8hardware5radio5modem19IRadioModemResponseEEE",
   "self_type" : "_ZTIPNSt3__110shared_ptrIN4aidl7android8hardware5radio5modem19IRadioModemResponseEEE",
   "size" : 4,
   "source_file" : "out/soong/.intermediates/hardware/interfaces/radio/aidl/android.hardware.radio.modem-V1-ndk-source/gen/include/aidl/android/hardware/radio/modem/IRadioModemResponse.h"
  },
  {
   "alignment" : 4,
   "linker_set_key" : "_ZTIPNSt3__110shared_ptrIN4aidl7android8hardware5radio5modem21IRadioModemIndicationEEE",
   "name" : "std::shared_ptr<aidl::android::hardware::radio::modem::IRadioModemIndication> *",
   "referenced_type" : "_ZTINSt3__110shared_ptrIN4aidl7android8hardware5radio5modem21IRadioModemIndicationEEE",
   "self_type" : "_ZTIPNSt3__110shared_ptrIN4aidl7android8hardware5radio5modem21IRadioModemIndicationEEE",
   "size" : 4,
   "source_file" : "out/soong/.intermediates/hardware/interfaces/radio/aidl/android.hardware.radio.modem-V1-ndk-source/gen/include/aidl/android/hardware/radio/modem/IRadioModemIndication.h"
  },
  {
   "alignment" : 4,
   "linker_set_key" : "_ZTIPNSt3__112basic_stringIcNS_11char_traitsIcEENS_9allocatorIcEEEE",
   "name" : "std::basic_string<char, std::char_traits<char>, std::allocator<char>> *",
   "referenced_type" : "_ZTINSt3__112basic_stringIcNS_11char_traitsIcEENS_9allocatorIcEEEE",
   "self_type" : "_ZTIPNSt3__112basic_stringIcNS_11char_traitsIcEENS_9allocatorIcEEEE",
   "size" : 4,
   "source_file" : "out/soong/.intermediates/hardware/interfaces/radio/aidl/android.hardware.radio.modem-V1-ndk-source/gen/include/aidl/android/hardware/radio/modem/IRadioModem.h"
  },
  {
   "alignment" : 4,
   "linker_set_key" : "_ZTIPNSt3__16vectorIDsNS_9allocatorIDsEEEE",
   "name" : "std::vector<char16_t, std::allocator<char16_t>> *",
   "referenced_type" : "_ZTINSt3__16vectorIDsNS_9allocatorIDsEEEE",
   "self_type" : "_ZTIPNSt3__16vectorIDsNS_9allocatorIDsEEEE",
   "size" : 4,
   "source_file" : "frameworks/native/libs/binder/ndk/include_cpp/android/binder_parcel_utils.h"
  },
  {
   "alignment" : 4,
   "linker_set_key" : "_ZTIPNSt3__16vectorIbNS_9allocatorIbEEEE",
   "name" : "std::vector<bool, std::allocator<bool>> *",
   "referenced_type" : "_ZTINSt3__16vectorIbNS_9allocatorIbEEEE",
   "self_type" : "_ZTIPNSt3__16vectorIbNS_9allocatorIbEEEE",
   "size" : 4,
   "source_file" : "frameworks/native/libs/binder/ndk/include_cpp/android/binder_parcel_utils.h"
  },
  {
   "alignment" : 4,
   "linker_set_key" : "_ZTIPNSt3__16vectorIdNS_9allocatorIdEEEE",
   "name" : "std::vector<double, std::allocator<double>> *",
   "referenced_type" : "_ZTINSt3__16vectorIdNS_9allocatorIdEEEE",
   "self_type" : "_ZTIPNSt3__16vectorIdNS_9allocatorIdEEEE",
   "size" : 4,
   "source_file" : "frameworks/native/libs/binder/ndk/include_cpp/android/binder_parcel_utils.h"
  },
  {
   "alignment" : 4,
   "linker_set_key" : "_ZTIPNSt3__16vectorIfNS_9allocatorIfEEEE",
   "name" : "std::vector<float, std::allocator<float>> *",
   "referenced_type" : "_ZTINSt3__16vectorIfNS_9allocatorIfEEEE",
   "self_type" : "_ZTIPNSt3__16vectorIfNS_9allocatorIfEEEE",
   "size" : 4,
   "source_file" : "frameworks/native/libs/binder/ndk/include_cpp/android/binder_parcel_utils.h"
  },
  {
   "alignment" : 4,
   "linker_set_key" : "_ZTIPNSt3__16vectorIhNS_9allocatorIhEEEE",
   "name" : "std::vector<unsigned char, std::allocator<unsigned char>> *",
   "referenced_type" : "_ZTINSt3__16vectorIhNS_9allocatorIhEEEE",
   "self_type" : "_ZTIPNSt3__16vectorIhNS_9allocatorIhEEEE",
   "size" : 4,
   "source_file" : "frameworks/native/libs/binder/ndk/include_cpp/android/binder_parcel_utils.h"
  },
  {
   "alignment" : 4,
   "linker_set_key" : "_ZTIPNSt3__16vectorIiNS_9allocatorIiEEEE",
   "name" : "std::vector<int, std::allocator<int>> *",
   "referenced_type" : "_ZTINSt3__16vectorIiNS_9allocatorIiEEEE",
   "self_type" : "_ZTIPNSt3__16vectorIiNS_9allocatorIiEEEE",
   "size" : 4,
   "source_file" : "frameworks/native/libs/binder/ndk/include_cpp/android/binder_parcel_utils.h"
  },
  {
   "alignment" : 4,
   "linker_set_key" : "_ZTIPNSt3__16vectorIjNS_9allocatorIjEEEE",
   "name" : "std::vector<unsigned int, std::allocator<unsigned int>> *",
   "referenced_type" : "_ZTINSt3__16vectorIjNS_9allocatorIjEEEE",
   "self_type" : "_ZTIPNSt3__16vectorIjNS_9allocatorIjEEEE",
   "size" : 4,
   "source_file" : "frameworks/native/libs/binder/ndk/include_cpp/android/binder_parcel_utils.h"
  },
  {
   "alignment" : 4,
   "linker_set_key" : "_ZTIPNSt3__16vectorIxNS_9allocatorIxEEEE",
   "name" : "std::vector<long long, std::allocator<long long>> *",
   "referenced_type" : "_ZTINSt3__16vectorIxNS_9allocatorIxEEEE",
   "self_type" : "_ZTIPNSt3__16vectorIxNS_9allocatorIxEEEE",
   "size" : 4,
   "source_file" : "frameworks/native/libs/binder/ndk/include_cpp/android/binder_parcel_utils.h"
  },
  {
   "alignment" : 4,
   "linker_set_key" : "_ZTIPNSt3__16vectorIyNS_9allocatorIyEEEE",
   "name" : "std::vector<unsigned long long, std::allocator<unsigned long long>> *",
   "referenced_type" : "_ZTINSt3__16vectorIyNS_9allocatorIyEEEE",
   "self_type" : "_ZTIPNSt3__16vectorIyNS_9allocatorIyEEEE",
   "size" : 4,
   "source_file" : "frameworks/native/libs/binder/ndk/include_cpp/android/binder_parcel_utils.h"
  },
  {
   "alignment" : 4,
   "linker_set_key" : "_ZTIPNSt3__18optionalINS_6vectorIDsNS_9allocatorIDsEEEEEE",
   "name" : "std::optional<std::vector<char16_t, std::allocator<char16_t>>> *",
   "referenced_type" : "_ZTINSt3__18optionalINS_6vectorIDsNS_9allocatorIDsEEEEEE",
   "self_type" : "_ZTIPNSt3__18optionalINS_6vectorIDsNS_9allocatorIDsEEEEEE",
   "size" : 4,
   "source_file" : "frameworks/native/libs/binder/ndk/include_cpp/android/binder_parcel_utils.h"
  },
  {
   "alignment" : 4,
   "linker_set_key" : "_ZTIPNSt3__18optionalINS_6vectorIbNS_9allocatorIbEEEEEE",
   "name" : "std::optional<std::vector<bool, std::allocator<bool>>> *",
   "referenced_type" : "_ZTINSt3__18optionalINS_6vectorIbNS_9allocatorIbEEEEEE",
   "self_type" : "_ZTIPNSt3__18optionalINS_6vectorIbNS_9allocatorIbEEEEEE",
   "size" : 4,
   "source_file" : "frameworks/native/libs/binder/ndk/include_cpp/android/binder_parcel_utils.h"
  },
  {
   "alignment" : 4,
   "linker_set_key" : "_ZTIPNSt3__18optionalINS_6vectorIdNS_9allocatorIdEEEEEE",
   "name" : "std::optional<std::vector<double, std::allocator<double>>> *",
   "referenced_type" : "_ZTINSt3__18optionalINS_6vectorIdNS_9allocatorIdEEEEEE",
   "self_type" : "_ZTIPNSt3__18optionalINS_6vectorIdNS_9allocatorIdEEEEEE",
   "size" : 4,
   "source_file" : "frameworks/native/libs/binder/ndk/include_cpp/android/binder_parcel_utils.h"
  },
  {
   "alignment" : 4,
   "linker_set_key" : "_ZTIPNSt3__18optionalINS_6vectorIfNS_9allocatorIfEEEEEE",
   "name" : "std::optional<std::vector<float, std::allocator<float>>> *",
   "referenced_type" : "_ZTINSt3__18optionalINS_6vectorIfNS_9allocatorIfEEEEEE",
   "self_type" : "_ZTIPNSt3__18optionalINS_6vectorIfNS_9allocatorIfEEEEEE",
   "size" : 4,
   "source_file" : "frameworks/native/libs/binder/ndk/include_cpp/android/binder_parcel_utils.h"
  },
  {
   "alignment" : 4,
   "linker_set_key" : "_ZTIPNSt3__18optionalINS_6vectorIhNS_9allocatorIhEEEEEE",
   "name" : "std::optional<std::vector<unsigned char, std::allocator<unsigned char>>> *",
   "referenced_type" : "_ZTINSt3__18optionalINS_6vectorIhNS_9allocatorIhEEEEEE",
   "self_type" : "_ZTIPNSt3__18optionalINS_6vectorIhNS_9allocatorIhEEEEEE",
   "size" : 4,
   "source_file" : "frameworks/native/libs/binder/ndk/include_cpp/android/binder_parcel_utils.h"
  },
  {
   "alignment" : 4,
   "linker_set_key" : "_ZTIPNSt3__18optionalINS_6vectorIiNS_9allocatorIiEEEEEE",
   "name" : "std::optional<std::vector<int, std::allocator<int>>> *",
   "referenced_type" : "_ZTINSt3__18optionalINS_6vectorIiNS_9allocatorIiEEEEEE",
   "self_type" : "_ZTIPNSt3__18optionalINS_6vectorIiNS_9allocatorIiEEEEEE",
   "size" : 4,
   "source_file" : "frameworks/native/libs/binder/ndk/include_cpp/android/binder_parcel_utils.h"
  },
  {
   "alignment" : 4,
   "linker_set_key" : "_ZTIPNSt3__18optionalINS_6vectorIjNS_9allocatorIjEEEEEE",
   "name" : "std::optional<std::vector<unsigned int, std::allocator<unsigned int>>> *",
   "referenced_type" : "_ZTINSt3__18optionalINS_6vectorIjNS_9allocatorIjEEEEEE",
   "self_type" : "_ZTIPNSt3__18optionalINS_6vectorIjNS_9allocatorIjEEEEEE",
   "size" : 4,
   "source_file" : "frameworks/native/libs/binder/ndk/include_cpp/android/binder_parcel_utils.h"
  },
  {
   "alignment" : 4,
   "linker_set_key" : "_ZTIPNSt3__18optionalINS_6vectorIxNS_9allocatorIxEEEEEE",
   "name" : "std::optional<std::vector<long long, std::allocator<long long>>> *",
   "referenced_type" : "_ZTINSt3__18optionalINS_6vectorIxNS_9allocatorIxEEEEEE",
   "self_type" : "_ZTIPNSt3__18optionalINS_6vectorIxNS_9allocatorIxEEEEEE",
   "size" : 4,
   "source_file" : "frameworks/native/libs/binder/ndk/include_cpp/android/binder_parcel_utils.h"
  },
  {
   "alignment" : 4,
   "linker_set_key" : "_ZTIPNSt3__18optionalINS_6vectorIyNS_9allocatorIyEEEEEE",
   "name" : "std::optional<std::vector<unsigned long long, std::allocator<unsigned long long>>> *",
   "referenced_type" : "_ZTINSt3__18optionalINS_6vectorIyNS_9allocatorIyEEEEEE",
   "self_type" : "_ZTIPNSt3__18optionalINS_6vectorIyNS_9allocatorIyEEEEEE",
   "size" : 4,
   "source_file" : "frameworks/native/libs/binder/ndk/include_cpp/android/binder_parcel_utils.h"
  },
  {
   "alignment" : 4,
   "linker_set_key" : "_ZTIPP7AParcel",
   "name" : "AParcel **",
   "referenced_type" : "_ZTIP7AParcel",
   "self_type" : "_ZTIPP7AParcel",
   "size" : 4,
   "source_file" : "frameworks/native/libs/binder/ndk/include_cpp/android/binder_auto_utils.h"
  },
  {
   "alignment" : 4,
   "linker_set_key" : "_ZTIPP7AStatus",
   "name" : "AStatus **",
   "referenced_type" : "_ZTIP7AStatus",
   "self_type" : "_ZTIPP7AStatus",
   "size" : 4,
   "source_file" : "frameworks/native/libs/binder/ndk/include_cpp/android/binder_auto_utils.h"
  },
  {
   "alignment" : 4,
   "linker_set_key" : "_ZTIPP8AIBinder",
   "name" : "AIBinder **",
   "referenced_type" : "_ZTIP8AIBinder",
   "self_type" : "_ZTIPP8AIBinder",
   "size" : 4,
   "source_file" : "frameworks/native/libs/binder/ndk/include_cpp/android/binder_auto_utils.h"
  },
  {
   "alignment" : 4,
   "linker_set_key" : "_ZTIPPKc",
   "name" : "const char **",
   "referenced_type" : "_ZTIPKc",
   "self_type" : "_ZTIPPKc",
   "size" : 4,
   "source_file" : "frameworks/native/libs/binder/ndk/include_cpp/android/binder_interface_utils.h"
  },
  {
   "alignment" : 4,
   "linker_set_key" : "_ZTIPi",
   "name" : "int *",
   "referenced_type" : "_ZTIi",
   "self_type" : "_ZTIPi",
   "size" : 4,
   "source_file" : "out/soong/.intermediates/hardware/interfaces/radio/aidl/android.hardware.radio.modem-V1-ndk-source/gen/include/aidl/android/hardware/radio/modem/IRadioModem.h"
  },
  {
   "alignment" : 4,
   "linker_set_key" : "_ZTIPv",
   "name" : "void *",
   "referenced_type" : "_ZTIv",
   "self_type" : "_ZTIPv",
   "size" : 4,
   "source_file" : "frameworks/native/libs/binder/ndk/include_cpp/android/binder_interface_utils.h"
  }
 ],
 "qualified_types" :
 [
  {
   "is_const" : true,
   "linker_set_key" : "_ZTIK7AParcel",
   "name" : "const AParcel",
   "referenced_type" : "_ZTI7AParcel",
   "self_type" : "_ZTIK7AParcel",
   "source_file" : "frameworks/native/libs/binder/ndk/include_cpp/android/binder_interface_utils.h"
  },
  {
   "alignment" : 4,
   "is_const" : true,
   "linker_set_key" : "_ZTIKN3ndk10SpAIBinderE",
   "name" : "const ndk::SpAIBinder",
   "referenced_type" : "_ZTIN3ndk10SpAIBinderE",
   "self_type" : "_ZTIKN3ndk10SpAIBinderE",
   "size" : 4,
   "source_file" : "frameworks/native/libs/binder/ndk/include_cpp/android/binder_auto_utils.h"
  },
  {
   "alignment" : 4,
   "is_const" : true,
   "linker_set_key" : "_ZTIKN3ndk13ScopedAParcelE",
   "name" : "const ndk::ScopedAParcel",
   "referenced_type" : "_ZTIN3ndk13ScopedAParcelE",
   "self_type" : "_ZTIKN3ndk13ScopedAParcelE",
   "size" : 4,
   "source_file" : "frameworks/native/libs/binder/ndk/include_cpp/android/binder_auto_utils.h"
  },
  {
   "alignment" : 4,
   "is_const" : true,
   "linker_set_key" : "_ZTIKN3ndk13ScopedAStatusE",
   "name" : "const ndk::ScopedAStatus",
   "referenced_type" : "_ZTIN3ndk13ScopedAStatusE",
   "self_type" : "_ZTIKN3ndk13ScopedAStatusE",
   "size" : 4,
   "source_file" : "frameworks/native/libs/binder/ndk/include_cpp/android/binder_auto_utils.h"
  },
  {
   "alignment" : 4,
   "is_const" : true,
   "linker_set_key" : "_ZTIKN3ndk17AParcelableHolderE",
   "name" : "const ndk::AParcelableHolder",
   "referenced_type" : "_ZTIN3ndk17AParcelableHolderE",
   "self_type" : "_ZTIKN3ndk17AParcelableHolderE",
   "size" : 12,
   "source_file" : "frameworks/native/libs/binder/ndk/include_cpp/android/binder_parcelable_utils.h"
  },
  {
   "alignment" : 4,
   "is_const" : true,
   "linker_set_key" : "_ZTIKN3ndk20ScopedFileDescriptorE",
   "name" : "const ndk::ScopedFileDescriptor",
   "referenced_type" : "_ZTIN3ndk20ScopedFileDescriptorE",
   "self_type" : "_ZTIKN3ndk20ScopedFileDescriptorE",
   "size" : 4,
   "source_file" : "frameworks/native/libs/binder/ndk/include_cpp/android/binder_auto_utils.h"
  },
  {
   "alignment" : 4,
   "is_const" : true,
   "linker_set_key" : "_ZTIKN3ndk4impl15ScopedAResourceIP7AParcelXadL_Z14AParcel_deleteEELS3_0EEE",
   "name" : "const ndk::impl::ScopedAResource<AParcel *, &AParcel_delete, nullptr>",
   "referenced_type" : "_ZTIN3ndk4impl15ScopedAResourceIP7AParcelXadL_Z14AParcel_deleteEELS3_0EEE",
   "self_type" : "_ZTIKN3ndk4impl15ScopedAResourceIP7AParcelXadL_Z14AParcel_deleteEELS3_0EEE",
   "size" : 4,
   "source_file" : "frameworks/native/libs/binder/ndk/include_cpp/android/binder_auto_utils.h"
  },
  {
   "alignment" : 4,
   "is_const" : true,
   "linker_set_key" : "_ZTIKN3ndk4impl15ScopedAResourceIP7AStatusXadL_Z14AStatus_deleteEELS3_0EEE",
   "name" : "const ndk::impl::ScopedAResource<AStatus *, &AStatus_delete, nullptr>",
   "referenced_type" : "_ZTIN3ndk4impl15ScopedAResourceIP7AStatusXadL_Z14AStatus_deleteEELS3_0EEE",
   "self_type" : "_ZTIKN3ndk4impl15ScopedAResourceIP7AStatusXadL_Z14AStatus_deleteEELS3_0EEE",
   "size" : 4,
   "source_file" : "frameworks/native/libs/binder/ndk/include_cpp/android/binder_auto_utils.h"
  },
  {
   "alignment" : 4,
   "is_const" : true,
   "linker_set_key" : "_ZTIKN4aidl7android8hardware5radio10RadioErrorE",
   "name" : "const aidl::android::hardware::radio::RadioError",
   "referenced_type" : "_ZTIN4aidl7android8hardware5radio10RadioErrorE",
   "self_type" : "_ZTIKN4aidl7android8hardware5radio10RadioErrorE",
   "size" : 4,
   "source_file" : "frameworks/native/libs/binder/ndk/include_cpp/android/binder_to_string.h"
  },
  {
   "alignment" : 4,
   "is_const" : true,
   "linker_set_key" : "_ZTIKN4aidl7android8hardware5radio13AccessNetworkE",
   "name" : "const aidl::android::hardware::radio::AccessNetwork",
   "referenced_type" : "_ZTIN4aidl7android8hardware5radio13AccessNetworkE",
   "self_type" : "_ZTIKN4aidl7android8hardware5radio13AccessNetworkE",
   "size" : 4,
   "source_file" : "frameworks/native/libs/binder/ndk/include_cpp/android/binder_to_string.h"
  },
  {
   "alignment" : 4,
   "is_const" : true,
   "linker_set_key" : "_ZTIKN4aidl7android8hardware5radio15RadioTechnologyE",
   "name" : "const aidl::android::hardware::radio::RadioTechnology",
   "referenced_type" : "_ZTIN4aidl7android8hardware5radio15RadioTechnologyE",
   "self_type" : "_ZTIKN4aidl7android8hardware5radio15RadioTechnologyE",
   "size" : 4,
   "source_file" : "frameworks/native/libs/binder/ndk/include_cpp/android/binder_to_string.h"
  },
  {
   "alignment" : 4,
   "is_const" : true,
   "linker_set_key" : "_ZTIKN4aidl7android8hardware5radio17RadioResponseInfoE",
   "name" : "const aidl::android::hardware::radio::RadioResponseInfo",
   "referenced_type" : "_ZTIN4aidl7android8hardware5radio17RadioResponseInfoE",
   "self_type" : "_ZTIKN4aidl7android8hardware5radio17RadioResponseInfoE",
   "size" : 12,
   "source_file" : "out/soong/.intermediates/hardware/interfaces/radio/aidl/android.hardware.radio-V1-ndk-source/gen/include/aidl/android/hardware/radio/RadioResponseInfo.h"
  },
  {
   "alignment" : 4,
   "is_const" : true,
   "linker_set_key" : "_ZTIKN4aidl7android8hardware5radio17RadioResponseTypeE",
   "name" : "const aidl::android::hardware::radio::RadioResponseType",
   "referenced_type" : "_ZTIN4aidl7android8hardware5radio17RadioResponseTypeE",
   "self_type" : "_ZTIKN4aidl7android8hardware5radio17RadioResponseTypeE",
   "size" : 4,
   "source_file" : "frameworks/native/libs/binder/ndk/include_cpp/android/binder_to_string.h"
  },
  {
   "alignment" : 4,
   "is_const" : true,
   "linker_set_key" : "_ZTIKN4aidl7android8hardware5radio5modem11NvWriteItemE",
   "name" : "const aidl::android::hardware::radio::modem::NvWriteItem",
   "referenced_type" : "_ZTIN4aidl7android8hardware5radio5modem11NvWriteItemE",
   "self_type" : "_ZTIKN4aidl7android8hardware5radio5modem11NvWriteItemE",
   "size" : 16,
   "source_file" : "out/soong/.intermediates/hardware/interfaces/radio/aidl/android.hardware.radio.modem-V1-ndk-source/gen/include/aidl/android/hardware/radio/modem/NvWriteItem.h"
  },
  {
   "alignment" : 4,
   "is_const" : true,
   "linker_set_key" : "_ZTIKN4aidl7android8hardware5radio5modem14HardwareConfigE",
   "name" : "const aidl::android::hardware::radio::modem::HardwareConfig",
   "referenced_type" : "_ZTIN4aidl7android8hardware5radio5modem14HardwareConfigE",
   "self_type" : "_ZTIKN4aidl7android8hardware5radio5modem14HardwareConfigE",
   "size" : 44,
   "source_file" : "out/soong/.intermediates/hardware/interfaces/radio/aidl/android.hardware.radio.modem-V1-ndk-source/gen/include/aidl/android/hardware/radio/modem/HardwareConfig.h"
  },
  {
   "alignment" : 4,
   "is_const" : true,
   "linker_set_key" : "_ZTIKN4aidl7android8hardware5radio5modem15RadioCapabilityE",
   "name" : "const aidl::android::hardware::radio::modem::RadioCapability",
   "referenced_type" : "_ZTIN4aidl7android8hardware5radio5modem15RadioCapabilityE",
   "self_type" : "_ZTIKN4aidl7android8hardware5radio5modem15RadioCapabilityE",
   "size" : 28,
   "source_file" : "out/soong/.intermediates/hardware/interfaces/radio/aidl/android.hardware.radio.modem-V1-ndk-source/gen/include/aidl/android/hardware/radio/modem/RadioCapability.h"
  },
  {
   "alignment" : 4,
   "is_const" : true,
   "linker_set_key" : "_ZTIKN4aidl7android8hardware5radio5modem17ActivityStatsInfoE",
   "name" : "const aidl::android::hardware::radio::modem::ActivityStatsInfo",
   "referenced_type" : "_ZTIN4aidl7android8hardware5radio5modem17ActivityStatsInfoE",
   "self_type" : "_ZTIKN4aidl7android8hardware5radio5modem17ActivityStatsInfoE",
   "size" : 20,
   "source_file" : "out/soong/.intermediates/hardware/interfaces/radio/aidl/android.hardware.radio.modem-V1-ndk-source/gen/include/aidl/android/hardware/radio/modem/ActivityStatsInfo.h"
  },
  {
   "alignment" : 4,
   "is_const" : true,
   "linker_set_key" : "_ZTIKN4aidl7android8hardware5radio5modem17HardwareConfigSimE",
   "name" : "const aidl::android::hardware::radio::modem::HardwareConfigSim",
   "referenced_type" : "_ZTIN4aidl7android8hardware5radio5modem17HardwareConfigSimE",
   "self_type" : "_ZTIKN4aidl7android8hardware5radio5modem17HardwareConfigSimE",
   "size" : 12,
   "source_file" : "frameworks/native/libs/binder/ndk/include_cpp/android/binder_to_string.h"
  },
  {
   "alignment" : 4,
   "is_const" : true,
   "linker_set_key" : "_ZTIKN4aidl7android8hardware5radio5modem19HardwareConfigModemE",
   "name" : "const aidl::android::hardware::radio::modem::HardwareConfigModem",
   "referenced_type" : "_ZTIN4aidl7android8hardware5radio5modem19HardwareConfigModemE",
   "self_type" : "_ZTIKN4aidl7android8hardware5radio5modem19HardwareConfigModemE",
   "size" : 20,
   "source_file" : "frameworks/native/libs/binder/ndk/include_cpp/android/binder_to_string.h"
  },
  {
   "alignment" : 4,
   "is_const" : true,
   "linker_set_key" : "_ZTIKN4aidl7android8hardware5radio5modem29ActivityStatsTechSpecificInfoE",
   "name" : "const aidl::android::hardware::radio::modem::ActivityStatsTechSpecificInfo",
   "referenced_type" : "_ZTIN4aidl7android8hardware5radio5modem29ActivityStatsTechSpecificInfoE",
   "self_type" : "_ZTIKN4aidl7android8hardware5radio5modem29ActivityStatsTechSpecificInfoE",
   "size" : 24,
   "source_file" : "frameworks/native/libs/binder/ndk/include_cpp/android/binder_to_string.h"
  },
  {
   "alignment" : 4,
   "is_const" : true,
   "linker_set_key" : "_ZTIKN4aidl7android8hardware5radio5modem6NvItemE",
   "name" : "const aidl::android::hardware::radio::modem::NvItem",
   "referenced_type" : "_ZTIN4aidl7android8hardware5radio5modem6NvItemE",
   "self_type" : "_ZTIKN4aidl7android8hardware5radio5modem6NvItemE",
   "size" : 4,
   "source_file" : "frameworks/native/libs/binder/ndk/include_cpp/android/binder_to_string.h"
  },
  {
   "alignment" : 4,
   "is_const" : true,
   "linker_set_key" : "_ZTIKNSt3__110shared_ptrIN4aidl7android8hardware5radio5modem11IRadioModemEEE",
   "name" : "const std::shared_ptr<aidl::android::hardware::radio::modem::IRadioModem>",
   "referenced_type" : "_ZTINSt3__110shared_ptrIN4aidl7android8hardware5radio5modem11IRadioModemEEE",
   "self_type" : "_ZTIKNSt3__110shared_ptrIN4aidl7android8hardware5radio5modem11IRadioModemEEE",
   "size" : 8,
   "source_file" : "out/soong/.intermediates/hardware/interfaces/radio/aidl/android.hardware.radio.modem-V1-ndk-source/gen/include/aidl/android/hardware/radio/modem/IRadioModem.h"
  },
  {
   "alignment" : 4,
   "is_const" : true,
   "linker_set_key" : "_ZTIKNSt3__110shared_ptrIN4aidl7android8hardware5radio5modem19IRadioModemResponseEEE",
   "name" : "const std::shared_ptr<aidl::android::hardware::radio::modem::IRadioModemResponse>",
   "referenced_type" : "_ZTINSt3__110shared_ptrIN4aidl7android8hardware5radio5modem19IRadioModemResponseEEE",
   "self_type" : "_ZTIKNSt3__110shared_ptrIN4aidl7android8hardware5radio5modem19IRadioModemResponseEEE",
   "size" : 8,
   "source_file" : "out/soong/.intermediates/hardware/interfaces/radio/aidl/android.hardware.radio.modem-V1-ndk-source/gen/include/aidl/android/hardware/radio/modem/IRadioModem.h"
  },
  {
   "alignment" : 4,
   "is_const" : true,
   "linker_set_key" : "_ZTIKNSt3__110shared_ptrIN4aidl7android8hardware5radio5modem21IRadioModemIndicationEEE",
   "name" : "const std::shared_ptr<aidl::android::hardware::radio::modem::IRadioModemIndication>",
   "referenced_type" : "_ZTINSt3__110shared_ptrIN4aidl7android8hardware5radio5modem21IRadioModemIndicationEEE",
   "self_type" : "_ZTIKNSt3__110shared_ptrIN4aidl7android8hardware5radio5modem21IRadioModemIndicationEEE",
   "size" : 8,
   "source_file" : "out/soong/.intermediates/hardware/interfaces/radio/aidl/android.hardware.radio.modem-V1-ndk-source/gen/include/aidl/android/hardware/radio/modem/IRadioModem.h"
  },
  {
   "alignment" : 4,
   "is_const" : true,
   "linker_set_key" : "_ZTIKNSt3__112basic_stringIcNS_11char_traitsIcEENS_9allocatorIcEEEE",
   "name" : "const std::basic_string<char, std::char_traits<char>, std::allocator<char>>",
   "referenced_type" : "_ZTINSt3__112basic_stringIcNS_11char_traitsIcEENS_9allocatorIcEEEE",
   "self_type" : "_ZTIKNSt3__112basic_stringIcNS_11char_traitsIcEENS_9allocatorIcEEEE",
   "size" : 12,
   "source_file" : "frameworks/native/libs/binder/ndk/include_cpp/android/binder_to_string.h"
  },
  {
   "alignment" : 4,
   "is_const" : true,
   "linker_set_key" : "_ZTIKNSt3__15arrayIN4aidl7android8hardware5radio10RadioErrorELj89EEE",
   "name" : "const std::array<aidl::android::hardware::radio::RadioError, 89U>",
   "referenced_type" : "_ZTINSt3__15arrayIN4aidl7android8hardware5radio10RadioErrorELj89EEE",
   "self_type" : "_ZTIKNSt3__15arrayIN4aidl7android8hardware5radio10RadioErrorELj89EEE",
   "size" : 356,
   "source_file" : "out/soong/.intermediates/hardware/interfaces/radio/aidl/android.hardware.radio-V1-ndk-source/gen/include/aidl/android/hardware/radio/RadioError.h"
  },
  {
   "alignment" : 4,
   "is_const" : true,
   "linker_set_key" : "_ZTIKNSt3__15arrayIN4aidl7android8hardware5radio13AccessNetworkELj7EEE",
   "name" : "const std::array<aidl::android::hardware::radio::AccessNetwork, 7U>",
   "referenced_type" : "_ZTINSt3__15arrayIN4aidl7android8hardware5radio13AccessNetworkELj7EEE",
   "self_type" : "_ZTIKNSt3__15arrayIN4aidl7android8hardware5radio13AccessNetworkELj7EEE",
   "size" : 28,
   "source_file" : "out/soong/.intermediates/hardware/interfaces/radio/aidl/android.hardware.radio-V1-ndk-source/gen/include/aidl/android/hardware/radio/AccessNetwork.h"
  },
  {
   "alignment" : 4,
   "is_const" : true,
   "linker_set_key" : "_ZTIKNSt3__15arrayIN4aidl7android8hardware5radio15RadioTechnologyELj21EEE",
   "name" : "const std::array<aidl::android::hardware::radio::RadioTechnology, 21U>",
   "referenced_type" : "_ZTINSt3__15arrayIN4aidl7android8hardware5radio15RadioTechnologyELj21EEE",
   "self_type" : "_ZTIKNSt3__15arrayIN4aidl7android8hardware5radio15RadioTechnologyELj21EEE",
   "size" : 84,
   "source_file" : "out/soong/.intermediates/hardware/interfaces/radio/aidl/android.hardware.radio-V1-ndk-source/gen/include/aidl/android/hardware/radio/RadioTechnology.h"
  },
  {
   "alignment" : 4,
   "is_const" : true,
   "linker_set_key" : "_ZTIKNSt3__15arrayIN4aidl7android8hardware5radio17RadioResponseTypeELj3EEE",
   "name" : "const std::array<aidl::android::hardware::radio::RadioResponseType, 3U>",
   "referenced_type" : "_ZTINSt3__15arrayIN4aidl7android8hardware5radio17RadioResponseTypeELj3EEE",
   "self_type" : "_ZTIKNSt3__15arrayIN4aidl7android8hardware5radio17RadioResponseTypeELj3EEE",
   "size" : 12,
   "source_file" : "out/soong/.intermediates/hardware/interfaces/radio/aidl/android.hardware.radio-V1-ndk-source/gen/include/aidl/android/hardware/radio/RadioResponseType.h"
  },
  {
   "alignment" : 4,
   "is_const" : true,
   "linker_set_key" : "_ZTIKNSt3__15arrayIN4aidl7android8hardware5radio19RadioIndicationTypeELj2EEE",
   "name" : "const std::array<aidl::android::hardware::radio::RadioIndicationType, 2U>",
   "referenced_type" : "_ZTINSt3__15arrayIN4aidl7android8hardware5radio19RadioIndicationTypeELj2EEE",
   "self_type" : "_ZTIKNSt3__15arrayIN4aidl7android8hardware5radio19RadioIndicationTypeELj2EEE",
   "size" : 8,
   "source_file" : "out/soong/.intermediates/hardware/interfaces/radio/aidl/android.hardware.radio-V1-ndk-source/gen/include/aidl/android/hardware/radio/RadioIndicationType.h"
  },
  {
   "alignment" : 4,
   "is_const" : true,
   "linker_set_key" : "_ZTIKNSt3__15arrayIN4aidl7android8hardware5radio5modem10RadioStateELj3EEE",
   "name" : "const std::array<aidl::android::hardware::radio::modem::RadioState, 3U>",
   "referenced_type" : "_ZTINSt3__15arrayIN4aidl7android8hardware5radio5modem10RadioStateELj3EEE",
   "self_type" : "_ZTIKNSt3__15arrayIN4aidl7android8hardware5radio5modem10RadioStateELj3EEE",
   "size" : 12,
   "source_file" : "out/soong/.intermediates/hardware/interfaces/radio/aidl/android.hardware.radio.modem-V1-ndk-source/gen/include/aidl/android/hardware/radio/modem/RadioState.h"
  },
  {
   "alignment" : 4,
   "is_const" : true,
   "linker_set_key" : "_ZTIKNSt3__15arrayIN4aidl7android8hardware5radio5modem11ResetNvTypeELj3EEE",
   "name" : "const std::array<aidl::android::hardware::radio::modem::ResetNvType, 3U>",
   "referenced_type" : "_ZTINSt3__15arrayIN4aidl7android8hardware5radio5modem11ResetNvTypeELj3EEE",
   "self_type" : "_ZTIKNSt3__15arrayIN4aidl7android8hardware5radio5modem11ResetNvTypeELj3EEE",
   "size" : 12,
   "source_file" : "out/soong/.intermediates/hardware/interfaces/radio/aidl/android.hardware.radio.modem-V1-ndk-source/gen/include/aidl/android/hardware/radio/modem/ResetNvType.h"
  },
  {
   "alignment" : 4,
   "is_const" : true,
   "linker_set_key" : "_ZTIKNSt3__15arrayIN4aidl7android8hardware5radio5modem15DeviceStateTypeELj3EEE",
   "name" : "const std::array<aidl::android::hardware::radio::modem::DeviceStateType, 3U>",
   "referenced_type" : "_ZTINSt3__15arrayIN4aidl7android8hardware5radio5modem15DeviceStateTypeELj3EEE",
   "self_type" : "_ZTIKNSt3__15arrayIN4aidl7android8hardware5radio5modem15DeviceStateTypeELj3EEE",
   "size" : 12,
   "source_file" : "out/soong/.intermediates/hardware/interfaces/radio/aidl/android.hardware.radio.modem-V1-ndk-source/gen/include/aidl/android/hardware/radio/modem/DeviceStateType.h"
  },
  {
   "alignment" : 4,
   "is_const" : true,
   "linker_set_key" : "_ZTIKNSt3__15arrayIN4aidl7android8hardware5radio5modem6NvItemELj41EEE",
   "name" : "const std::array<aidl::android::hardware::radio::modem::NvItem, 41U>",
   "referenced_type" : "_ZTINSt3__15arrayIN4aidl7android8hardware5radio5modem6NvItemELj41EEE",
   "self_type" : "_ZTIKNSt3__15arrayIN4aidl7android8hardware5radio5modem6NvItemELj41EEE",
   "size" : 164,
   "source_file" : "out/soong/.intermediates/hardware/interfaces/radio/aidl/android.hardware.radio.modem-V1-ndk-source/gen/include/aidl/android/hardware/radio/modem/NvItem.h"
  },
  {
   "alignment" : 4,
   "is_const" : true,
   "linker_set_key" : "_ZTIKNSt3__16vectorIDsNS_9allocatorIDsEEEE",
   "name" : "const std::vector<char16_t, std::allocator<char16_t>>",
   "referenced_type" : "_ZTINSt3__16vectorIDsNS_9allocatorIDsEEEE",
   "self_type" : "_ZTIKNSt3__16vectorIDsNS_9allocatorIDsEEEE",
   "size" : 12,
   "source_file" : "frameworks/native/libs/binder/ndk/include_cpp/android/binder_parcel_utils.h"
  },
  {
   "is_const" : true,
   "linker_set_key" : "_ZTIKNSt3__16vectorIN4aidl7android8hardware5radio5modem14HardwareConfigENS_9allocatorIS6_EEEE",
   "name" : "const std::vector<aidl::android::hardware::radio::modem::HardwareConfig, std::allocator<aidl::android::hardware::radio::modem::HardwareConfig>>",
   "referenced_type" : "_ZTINSt3__16vectorIN4aidl7android8hardware5radio5modem14HardwareConfigENS_9allocatorIS6_EEEE",
   "self_type" : "_ZTIKNSt3__16vectorIN4aidl7android8hardware5radio5modem14HardwareConfigENS_9allocatorIS6_EEEE",
   "source_file" : "out/soong/.intermediates/hardware/interfaces/radio/aidl/android.hardware.radio.modem-V1-ndk-source/gen/include/aidl/android/hardware/radio/modem/BnRadioModemIndication.h"
  },
  {
   "alignment" : 4,
   "is_const" : true,
   "linker_set_key" : "_ZTIKNSt3__16vectorIN4aidl7android8hardware5radio5modem17HardwareConfigSimENS_9allocatorIS6_EEEE",
   "name" : "const std::vector<aidl::android::hardware::radio::modem::HardwareConfigSim, std::allocator<aidl::android::hardware::radio::modem::HardwareConfigSim>>",
   "referenced_type" : "_ZTINSt3__16vectorIN4aidl7android8hardware5radio5modem17HardwareConfigSimENS_9allocatorIS6_EEEE",
   "self_type" : "_ZTIKNSt3__16vectorIN4aidl7android8hardware5radio5modem17HardwareConfigSimENS_9allocatorIS6_EEEE",
   "size" : 12,
   "source_file" : "frameworks/native/libs/binder/ndk/include_cpp/android/binder_to_string.h"
  },
  {
   "alignment" : 4,
   "is_const" : true,
   "linker_set_key" : "_ZTIKNSt3__16vectorIN4aidl7android8hardware5radio5modem19HardwareConfigModemENS_9allocatorIS6_EEEE",
   "name" : "const std::vector<aidl::android::hardware::radio::modem::HardwareConfigModem, std::allocator<aidl::android::hardware::radio::modem::HardwareConfigModem>>",
   "referenced_type" : "_ZTINSt3__16vectorIN4aidl7android8hardware5radio5modem19HardwareConfigModemENS_9allocatorIS6_EEEE",
   "self_type" : "_ZTIKNSt3__16vectorIN4aidl7android8hardware5radio5modem19HardwareConfigModemENS_9allocatorIS6_EEEE",
   "size" : 12,
   "source_file" : "frameworks/native/libs/binder/ndk/include_cpp/android/binder_to_string.h"
  },
  {
   "alignment" : 4,
   "is_const" : true,
   "linker_set_key" : "_ZTIKNSt3__16vectorIN4aidl7android8hardware5radio5modem29ActivityStatsTechSpecificInfoENS_9allocatorIS6_EEEE",
   "name" : "const std::vector<aidl::android::hardware::radio::modem::ActivityStatsTechSpecificInfo, std::allocator<aidl::android::hardware::radio::modem::ActivityStatsTechSpecificInfo>>",
   "referenced_type" : "_ZTINSt3__16vectorIN4aidl7android8hardware5radio5modem29ActivityStatsTechSpecificInfoENS_9allocatorIS6_EEEE",
   "self_type" : "_ZTIKNSt3__16vectorIN4aidl7android8hardware5radio5modem29ActivityStatsTechSpecificInfoENS_9allocatorIS6_EEEE",
   "size" : 12,
   "source_file" : "frameworks/native/libs/binder/ndk/include_cpp/android/binder_to_string.h"
  },
  {
   "alignment" : 4,
   "is_const" : true,
   "linker_set_key" : "_ZTIKNSt3__16vectorIbNS_9allocatorIbEEEE",
   "name" : "const std::vector<bool, std::allocator<bool>>",
   "referenced_type" : "_ZTINSt3__16vectorIbNS_9allocatorIbEEEE",
   "self_type" : "_ZTIKNSt3__16vectorIbNS_9allocatorIbEEEE",
   "size" : 12,
   "source_file" : "frameworks/native/libs/binder/ndk/include_cpp/android/binder_parcel_utils.h"
  },
  {
   "alignment" : 4,
   "is_const" : true,
   "linker_set_key" : "_ZTIKNSt3__16vectorIdNS_9allocatorIdEEEE",
   "name" : "const std::vector<double, std::allocator<double>>",
   "referenced_type" : "_ZTINSt3__16vectorIdNS_9allocatorIdEEEE",
   "self_type" : "_ZTIKNSt3__16vectorIdNS_9allocatorIdEEEE",
   "size" : 12,
   "source_file" : "frameworks/native/libs/binder/ndk/include_cpp/android/binder_parcel_utils.h"
  },
  {
   "alignment" : 4,
   "is_const" : true,
   "linker_set_key" : "_ZTIKNSt3__16vectorIfNS_9allocatorIfEEEE",
   "name" : "const std::vector<float, std::allocator<float>>",
   "referenced_type" : "_ZTINSt3__16vectorIfNS_9allocatorIfEEEE",
   "self_type" : "_ZTIKNSt3__16vectorIfNS_9allocatorIfEEEE",
   "size" : 12,
   "source_file" : "frameworks/native/libs/binder/ndk/include_cpp/android/binder_parcel_utils.h"
  },
  {
   "alignment" : 4,
   "is_const" : true,
   "linker_set_key" : "_ZTIKNSt3__16vectorIhNS_9allocatorIhEEEE",
   "name" : "const std::vector<unsigned char, std::allocator<unsigned char>>",
   "referenced_type" : "_ZTINSt3__16vectorIhNS_9allocatorIhEEEE",
   "self_type" : "_ZTIKNSt3__16vectorIhNS_9allocatorIhEEEE",
   "size" : 12,
   "source_file" : "frameworks/native/libs/binder/ndk/include_cpp/android/binder_parcel_utils.h"
  },
  {
   "alignment" : 4,
   "is_const" : true,
   "linker_set_key" : "_ZTIKNSt3__16vectorIiNS_9allocatorIiEEEE",
   "name" : "const std::vector<int, std::allocator<int>>",
   "referenced_type" : "_ZTINSt3__16vectorIiNS_9allocatorIiEEEE",
   "self_type" : "_ZTIKNSt3__16vectorIiNS_9allocatorIiEEEE",
   "size" : 12,
   "source_file" : "frameworks/native/libs/binder/ndk/include_cpp/android/binder_parcel_utils.h"
  },
  {
   "alignment" : 4,
   "is_const" : true,
   "linker_set_key" : "_ZTIKNSt3__16vectorIjNS_9allocatorIjEEEE",
   "name" : "const std::vector<unsigned int, std::allocator<unsigned int>>",
   "referenced_type" : "_ZTINSt3__16vectorIjNS_9allocatorIjEEEE",
   "self_type" : "_ZTIKNSt3__16vectorIjNS_9allocatorIjEEEE",
   "size" : 12,
   "source_file" : "frameworks/native/libs/binder/ndk/include_cpp/android/binder_parcel_utils.h"
  },
  {
   "alignment" : 4,
   "is_const" : true,
   "linker_set_key" : "_ZTIKNSt3__16vectorIxNS_9allocatorIxEEEE",
   "name" : "const std::vector<long long, std::allocator<long long>>",
   "referenced_type" : "_ZTINSt3__16vectorIxNS_9allocatorIxEEEE",
   "self_type" : "_ZTIKNSt3__16vectorIxNS_9allocatorIxEEEE",
   "size" : 12,
   "source_file" : "frameworks/native/libs/binder/ndk/include_cpp/android/binder_parcel_utils.h"
  },
  {
   "alignment" : 4,
   "is_const" : true,
   "linker_set_key" : "_ZTIKNSt3__16vectorIyNS_9allocatorIyEEEE",
   "name" : "const std::vector<unsigned long long, std::allocator<unsigned long long>>",
   "referenced_type" : "_ZTINSt3__16vectorIyNS_9allocatorIyEEEE",
   "self_type" : "_ZTIKNSt3__16vectorIyNS_9allocatorIyEEEE",
   "size" : 12,
   "source_file" : "frameworks/native/libs/binder/ndk/include_cpp/android/binder_parcel_utils.h"
  },
  {
   "alignment" : 4,
   "is_const" : true,
   "linker_set_key" : "_ZTIKNSt3__18optionalINS_6vectorIDsNS_9allocatorIDsEEEEEE",
   "name" : "const std::optional<std::vector<char16_t, std::allocator<char16_t>>>",
   "referenced_type" : "_ZTINSt3__18optionalINS_6vectorIDsNS_9allocatorIDsEEEEEE",
   "self_type" : "_ZTIKNSt3__18optionalINS_6vectorIDsNS_9allocatorIDsEEEEEE",
   "size" : 16,
   "source_file" : "frameworks/native/libs/binder/ndk/include_cpp/android/binder_parcel_utils.h"
  },
  {
   "alignment" : 4,
   "is_const" : true,
   "linker_set_key" : "_ZTIKNSt3__18optionalINS_6vectorIbNS_9allocatorIbEEEEEE",
   "name" : "const std::optional<std::vector<bool, std::allocator<bool>>>",
   "referenced_type" : "_ZTINSt3__18optionalINS_6vectorIbNS_9allocatorIbEEEEEE",
   "self_type" : "_ZTIKNSt3__18optionalINS_6vectorIbNS_9allocatorIbEEEEEE",
   "size" : 16,
   "source_file" : "frameworks/native/libs/binder/ndk/include_cpp/android/binder_parcel_utils.h"
  },
  {
   "alignment" : 4,
   "is_const" : true,
   "linker_set_key" : "_ZTIKNSt3__18optionalINS_6vectorIdNS_9allocatorIdEEEEEE",
   "name" : "const std::optional<std::vector<double, std::allocator<double>>>",
   "referenced_type" : "_ZTINSt3__18optionalINS_6vectorIdNS_9allocatorIdEEEEEE",
   "self_type" : "_ZTIKNSt3__18optionalINS_6vectorIdNS_9allocatorIdEEEEEE",
   "size" : 16,
   "source_file" : "frameworks/native/libs/binder/ndk/include_cpp/android/binder_parcel_utils.h"
  },
  {
   "alignment" : 4,
   "is_const" : true,
   "linker_set_key" : "_ZTIKNSt3__18optionalINS_6vectorIfNS_9allocatorIfEEEEEE",
   "name" : "const std::optional<std::vector<float, std::allocator<float>>>",
   "referenced_type" : "_ZTINSt3__18optionalINS_6vectorIfNS_9allocatorIfEEEEEE",
   "self_type" : "_ZTIKNSt3__18optionalINS_6vectorIfNS_9allocatorIfEEEEEE",
   "size" : 16,
   "source_file" : "frameworks/native/libs/binder/ndk/include_cpp/android/binder_parcel_utils.h"
  },
  {
   "alignment" : 4,
   "is_const" : true,
   "linker_set_key" : "_ZTIKNSt3__18optionalINS_6vectorIhNS_9allocatorIhEEEEEE",
   "name" : "const std::optional<std::vector<unsigned char, std::allocator<unsigned char>>>",
   "referenced_type" : "_ZTINSt3__18optionalINS_6vectorIhNS_9allocatorIhEEEEEE",
   "self_type" : "_ZTIKNSt3__18optionalINS_6vectorIhNS_9allocatorIhEEEEEE",
   "size" : 16,
   "source_file" : "frameworks/native/libs/binder/ndk/include_cpp/android/binder_parcel_utils.h"
  },
  {
   "alignment" : 4,
   "is_const" : true,
   "linker_set_key" : "_ZTIKNSt3__18optionalINS_6vectorIiNS_9allocatorIiEEEEEE",
   "name" : "const std::optional<std::vector<int, std::allocator<int>>>",
   "referenced_type" : "_ZTINSt3__18optionalINS_6vectorIiNS_9allocatorIiEEEEEE",
   "self_type" : "_ZTIKNSt3__18optionalINS_6vectorIiNS_9allocatorIiEEEEEE",
   "size" : 16,
   "source_file" : "frameworks/native/libs/binder/ndk/include_cpp/android/binder_parcel_utils.h"
  },
  {
   "alignment" : 4,
   "is_const" : true,
   "linker_set_key" : "_ZTIKNSt3__18optionalINS_6vectorIjNS_9allocatorIjEEEEEE",
   "name" : "const std::optional<std::vector<unsigned int, std::allocator<unsigned int>>>",
   "referenced_type" : "_ZTINSt3__18optionalINS_6vectorIjNS_9allocatorIjEEEEEE",
   "self_type" : "_ZTIKNSt3__18optionalINS_6vectorIjNS_9allocatorIjEEEEEE",
   "size" : 16,
   "source_file" : "frameworks/native/libs/binder/ndk/include_cpp/android/binder_parcel_utils.h"
  },
  {
   "alignment" : 4,
   "is_const" : true,
   "linker_set_key" : "_ZTIKNSt3__18optionalINS_6vectorIxNS_9allocatorIxEEEEEE",
   "name" : "const std::optional<std::vector<long long, std::allocator<long long>>>",
   "referenced_type" : "_ZTINSt3__18optionalINS_6vectorIxNS_9allocatorIxEEEEEE",
   "self_type" : "_ZTIKNSt3__18optionalINS_6vectorIxNS_9allocatorIxEEEEEE",
   "size" : 16,
   "source_file" : "frameworks/native/libs/binder/ndk/include_cpp/android/binder_parcel_utils.h"
  },
  {
   "alignment" : 4,
   "is_const" : true,
   "linker_set_key" : "_ZTIKNSt3__18optionalINS_6vectorIyNS_9allocatorIyEEEEEE",
   "name" : "const std::optional<std::vector<unsigned long long, std::allocator<unsigned long long>>>",
   "referenced_type" : "_ZTINSt3__18optionalINS_6vectorIyNS_9allocatorIyEEEEEE",
   "self_type" : "_ZTIKNSt3__18optionalINS_6vectorIyNS_9allocatorIyEEEEEE",
   "size" : 16,
   "source_file" : "frameworks/native/libs/binder/ndk/include_cpp/android/binder_parcel_utils.h"
  },
  {
   "alignment" : 4,
   "is_const" : true,
   "linker_set_key" : "_ZTIKP7AParcel",
   "name" : "AParcel *const",
   "referenced_type" : "_ZTIP7AParcel",
   "self_type" : "_ZTIKP7AParcel",
   "size" : 4,
   "source_file" : "frameworks/native/libs/binder/ndk/include_cpp/android/binder_auto_utils.h"
  },
  {
   "alignment" : 4,
   "is_const" : true,
   "linker_set_key" : "_ZTIKP7AStatus",
   "name" : "AStatus *const",
   "referenced_type" : "_ZTIP7AStatus",
   "self_type" : "_ZTIKP7AStatus",
   "size" : 4,
   "source_file" : "frameworks/native/libs/binder/ndk/include_cpp/android/binder_auto_utils.h"
  },
  {
   "alignment" : 1,
   "is_const" : true,
   "linker_set_key" : "_ZTIKb",
   "name" : "const bool",
   "referenced_type" : "_ZTIb",
   "self_type" : "_ZTIKb",
   "size" : 1,
   "source_file" : "frameworks/native/libs/binder/ndk/include_cpp/android/binder_parcel_utils.h"
  },
  {
   "alignment" : 1,
   "is_const" : true,
   "linker_set_key" : "_ZTIKc",
   "name" : "const char",
   "referenced_type" : "_ZTIc",
   "self_type" : "_ZTIKc",
   "size" : 1,
   "source_file" : "frameworks/native/libs/binder/ndk/include_cpp/android/binder_auto_utils.h"
  },
  {
   "alignment" : 4,
   "is_const" : true,
   "linker_set_key" : "_ZTIKi",
   "name" : "const int",
   "referenced_type" : "_ZTIi",
   "self_type" : "_ZTIKi",
   "size" : 4,
   "source_file" : "frameworks/native/libs/binder/ndk/include_cpp/android/binder_to_string.h"
  },
  {
   "alignment" : 4,
   "is_const" : true,
   "linker_set_key" : "_ZTIKj",
   "name" : "const unsigned int",
   "referenced_type" : "_ZTIj",
   "self_type" : "_ZTIKj",
   "size" : 4,
   "source_file" : "out/soong/.intermediates/hardware/interfaces/radio/aidl/android.hardware.radio.modem-V1-ndk-source/gen/include/aidl/android/hardware/radio/modem/IRadioModemIndication.h"
  },
  {
   "is_const" : true,
   "linker_set_key" : "_ZTIKv",
   "name" : "const void",
   "referenced_type" : "_ZTIv",
   "self_type" : "_ZTIKv",
   "source_file" : "frameworks/native/libs/binder/ndk/include_cpp/android/binder_parcel_utils.h"
  }
 ],
 "record_types" :
 [
  {
   "alignment" : 4,
   "fields" :
   [
    {
     "access" : "private",
     "field_name" : "mBinder",
     "referenced_type" : "_ZTIP8AIBinder"
    }
   ],
   "linker_set_key" : "_ZTIN3ndk10SpAIBinderE",
   "name" : "ndk::SpAIBinder",
   "record_kind" : "class",
   "referenced_type" : "_ZTIN3ndk10SpAIBinderE",
   "self_type" : "_ZTIN3ndk10SpAIBinderE",
   "size" : 4,
   "source_file" : "frameworks/native/libs/binder/ndk/include_cpp/android/binder_auto_utils.h"
  },
  {
   "access" : "private",
   "alignment" : 4,
   "fields" :
   [
    {
     "field_name" : "interface",
     "referenced_type" : "_ZTINSt3__110shared_ptrIN3ndk11ICInterfaceEEE"
    }
   ],
   "linker_set_key" : "_ZTIN3ndk11ICInterface15ICInterfaceDataE",
   "name" : "ndk::ICInterface::ICInterfaceData",
   "record_kind" : "class",
   "referenced_type" : "_ZTIN3ndk11ICInterface15ICInterfaceDataE",
   "self_type" : "_ZTIN3ndk11ICInterface15ICInterfaceDataE",
   "size" : 8,
   "source_file" : "frameworks/native/libs/binder/ndk/include_cpp/android/binder_interface_utils.h"
  },
  {
   "alignment" : 4,
   "base_specifiers" :
   [
    {
     "referenced_type" : "_ZTIN3ndk13SharedRefBaseE"
    }
   ],
   "linker_set_key" : "_ZTIN3ndk11ICInterfaceE",
   "name" : "ndk::ICInterface",
   "record_kind" : "class",
   "referenced_type" : "_ZTIN3ndk11ICInterfaceE",
   "self_type" : "_ZTIN3ndk11ICInterfaceE",
   "size" : 16,
   "source_file" : "frameworks/native/libs/binder/ndk/include_cpp/android/binder_interface_utils.h",
   "vtable_components" :
   [
    {
     "kind" : "offset_to_top"
    },
    {
     "kind" : "rtti",
     "mangled_component_name" : "_ZTIN3ndk11ICInterfaceE"
    },
    {
     "kind" : "complete_dtor_pointer",
     "mangled_component_name" : "_ZN3ndk11ICInterfaceD1Ev"
    },
    {
     "kind" : "deleting_dtor_pointer",
     "mangled_component_name" : "_ZN3ndk11ICInterfaceD0Ev"
    },
    {
     "is_pure" : true,
     "mangled_component_name" : "_ZN3ndk11ICInterface8asBinderEv"
    },
    {
     "is_pure" : true,
     "mangled_component_name" : "_ZN3ndk11ICInterface8isRemoteEv"
    },
    {
     "mangled_component_name" : "_ZN3ndk11ICInterface4dumpEiPPKcj"
    },
    {
     "mangled_component_name" : "_ZN3ndk11ICInterface18handleShellCommandEiiiPPKcj"
    }
   ]
  },
  {
   "alignment" : 4,
   "base_specifiers" :
   [
    {
     "referenced_type" : "_ZTIN4aidl7android8hardware5radio5modem11IRadioModemE"
    }
   ],
   "fields" :
   [
    {
     "access" : "private",
     "field_name" : "mMutex",
     "field_offset" : 128,
     "referenced_type" : "_ZTINSt3__15mutexE"
    },
    {
     "access" : "private",
     "field_name" : "mWeakBinder",
     "field_offset" : 160,
     "referenced_type" : "_ZTIN3ndk19ScopedAIBinder_WeakE"
    }
   ],
   "linker_set_key" : "_ZTIN3ndk12BnCInterfaceIN4aidl7android8hardware5radio5modem11IRadioModemEEE",
   "name" : "ndk::BnCInterface<aidl::android::hardware::radio::modem::IRadioModem>",
   "record_kind" : "class",
   "referenced_type" : "_ZTIN3ndk12BnCInterfaceIN4aidl7android8hardware5radio5modem11IRadioModemEEE",
   "self_type" : "_ZTIN3ndk12BnCInterfaceIN4aidl7android8hardware5radio5modem11IRadioModemEEE",
   "size" : 24,
   "source_file" : "frameworks/native/libs/binder/ndk/include_cpp/android/binder_interface_utils.h",
   "template_args" :
   [
    "_ZTIN4aidl7android8hardware5radio5modem11IRadioModemE"
   ],
   "vtable_components" :
   [
    {
     "kind" : "offset_to_top"
    },
    {
     "kind" : "rtti",
     "mangled_component_name" : "_ZTIN3ndk12BnCInterfaceIN4aidl7android8hardware5radio5modem11IRadioModemEEE"
    },
    {
     "kind" : "complete_dtor_pointer",
     "mangled_component_name" : "_ZN3ndk12BnCInterfaceIN4aidl7android8hardware5radio5modem11IRadioModemEED1Ev"
    },
    {
     "kind" : "deleting_dtor_pointer",
     "mangled_component_name" : "_ZN3ndk12BnCInterfaceIN4aidl7android8hardware5radio5modem11IRadioModemEED0Ev"
    },
    {
     "mangled_component_name" : "_ZN3ndk12BnCInterfaceIN4aidl7android8hardware5radio5modem11IRadioModemEE8asBinderEv"
    },
    {
     "mangled_component_name" : "_ZN3ndk12BnCInterfaceIN4aidl7android8hardware5radio5modem11IRadioModemEE8isRemoteEv"
    },
    {
     "mangled_component_name" : "_ZN3ndk11ICInterface4dumpEiPPKcj"
    },
    {
     "mangled_component_name" : "_ZN3ndk11ICInterface18handleShellCommandEiiiPPKcj"
    },
    {
     "is_pure" : true,
     "mangled_component_name" : "_ZN4aidl7android8hardware5radio5modem11IRadioModem11enableModemEib"
    },
    {
     "is_pure" : true,
     "mangled_component_name" : "_ZN4aidl7android8hardware5radio5modem11IRadioModem18getBasebandVersionEi"
    },
    {
     "is_pure" : true,
     "mangled_component_name" : "_ZN4aidl7android8hardware5radio5modem11IRadioModem17getDeviceIdentityEi"
    },
    {
     "is_pure" : true,
     "mangled_component_name" : "_ZN4aidl7android8hardware5radio5modem11IRadioModem17getHardwareConfigEi"
    },
    {
     "is_pure" : true,
     "mangled_component_name" : "_ZN4aidl7android8hardware5radio5modem11IRadioModem20getModemActivityInfoEi"
    },
    {
     "is_pure" : true,
     "mangled_component_name" : "_ZN4aidl7android8hardware5radio5modem11IRadioModem19getModemStackStatusEi"
    },
    {
     "is_pure" : true,
     "mangled_component_name" : "_ZN4aidl7android8hardware5radio5modem11IRadioModem18getRadioCapabilityEi"
    },
    {
     "is_pure" : true,
     "mangled_component_name" : "_ZN4aidl7android8hardware5radio5modem11IRadioModem10nvReadItemEiNS3_6NvItemE"
    },
    {
     "is_pure" : true,
     "mangled_component_name" : "_ZN4aidl7android8hardware5radio5modem11IRadioModem13nvResetConfigEiNS3_11ResetNvTypeE"
    },
    {
     "is_pure" : true,
     "mangled_component_name" : "_ZN4aidl7android8hardware5radio5modem11IRadioModem14nvWriteCdmaPrlEiRKNSt3__16vectorIhNS5_9allocatorIhEEEE"
    },
    {
     "is_pure" : true,
     "mangled_component_name" : "_ZN4aidl7android8hardware5radio5modem11IRadioModem11nvWriteItemEiRKNS3_11NvWriteItemE"
    },
    {
     "is_pure" : true,
     "mangled_component_name" : "_ZN4aidl7android8hardware5radio5modem11IRadioModem15requestShutdownEi"
    },
    {
     "is_pure" : true,
     "mangled_component_name" : "_ZN4aidl7android8hardware5radio5modem11IRadioModem23responseAcknowledgementEv"
    },
    {
     "is_pure" : true,
     "mangled_component_name" : "_ZN4aidl7android8hardware5radio5modem11IRadioModem15sendDeviceStateEiNS3_15DeviceStateTypeEb"
    },
    {
     "is_pure" : true,
     "mangled_component_name" : "_ZN4aidl7android8hardware5radio5modem11IRadioModem18setRadioCapabilityEiRKNS3_15RadioCapabilityE"
    },
    {
     "is_pure" : true,
     "mangled_component_name" : "_ZN4aidl7android8hardware5radio5modem11IRadioModem13setRadioPowerEibbb"
    },
    {
     "is_pure" : true,
     "mangled_component_name" : "_ZN4aidl7android8hardware5radio5modem11IRadioModem20setResponseFunctionsERKNSt3__110shared_ptrINS3_19IRadioModemResponseEEERKNS6_INS3_21IRadioModemIndicationEEE"
    },
    {
     "is_pure" : true,
     "mangled_component_name" : "_ZN4aidl7android8hardware5radio5modem11IRadioModem19getInterfaceVersionEPi"
    },
    {
     "is_pure" : true,
     "mangled_component_name" : "_ZN4aidl7android8hardware5radio5modem11IRadioModem16getInterfaceHashEPNSt3__112basic_stringIcNS5_11char_traitsIcEENS5_9allocatorIcEEEE"
    },
    {
     "is_pure" : true,
     "mangled_component_name" : "_ZN3ndk12BnCInterfaceIN4aidl7android8hardware5radio5modem11IRadioModemEE12createBinderEv"
    }
   ]
  },
  {
   "alignment" : 4,
   "base_specifiers" :
   [
    {
     "referenced_type" : "_ZTIN4aidl7android8hardware5radio5modem19IRadioModemResponseE"
    }
   ],
   "fields" :
   [
    {
     "access" : "private",
     "field_name" : "mMutex",
     "field_offset" : 128,
     "referenced_type" : "_ZTINSt3__15mutexE"
    },
    {
     "access" : "private",
     "field_name" : "mWeakBinder",
     "field_offset" : 160,
     "referenced_type" : "_ZTIN3ndk19ScopedAIBinder_WeakE"
    }
   ],
   "linker_set_key" : "_ZTIN3ndk12BnCInterfaceIN4aidl7android8hardware5radio5modem19IRadioModemResponseEEE",
   "name" : "ndk::BnCInterface<aidl::android::hardware::radio::modem::IRadioModemResponse>",
   "record_kind" : "class",
   "referenced_type" : "_ZTIN3ndk12BnCInterfaceIN4aidl7android8hardware5radio5modem19IRadioModemResponseEEE",
   "self_type" : "_ZTIN3ndk12BnCInterfaceIN4aidl7android8hardware5radio5modem19IRadioModemResponseEEE",
   "size" : 24,
   "source_file" : "frameworks/native/libs/binder/ndk/include_cpp/android/binder_interface_utils.h",
   "template_args" :
   [
    "_ZTIN4aidl7android8hardware5radio5modem19IRadioModemResponseE"
   ],
   "vtable_components" :
   [
    {
     "kind" : "offset_to_top"
    },
    {
     "kind" : "rtti",
     "mangled_component_name" : "_ZTIN3ndk12BnCInterfaceIN4aidl7android8hardware5radio5modem19IRadioModemResponseEEE"
    },
    {
     "kind" : "complete_dtor_pointer",
     "mangled_component_name" : "_ZN3ndk12BnCInterfaceIN4aidl7android8hardware5radio5modem19IRadioModemResponseEED1Ev"
    },
    {
     "kind" : "deleting_dtor_pointer",
     "mangled_component_name" : "_ZN3ndk12BnCInterfaceIN4aidl7android8hardware5radio5modem19IRadioModemResponseEED0Ev"
    },
    {
     "mangled_component_name" : "_ZN3ndk12BnCInterfaceIN4aidl7android8hardware5radio5modem19IRadioModemResponseEE8asBinderEv"
    },
    {
     "mangled_component_name" : "_ZN3ndk12BnCInterfaceIN4aidl7android8hardware5radio5modem19IRadioModemResponseEE8isRemoteEv"
    },
    {
     "mangled_component_name" : "_ZN3ndk11ICInterface4dumpEiPPKcj"
    },
    {
     "mangled_component_name" : "_ZN3ndk11ICInterface18handleShellCommandEiiiPPKcj"
    },
    {
     "is_pure" : true,
     "mangled_component_name" : "_ZN4aidl7android8hardware5radio5modem19IRadioModemResponse18acknowledgeRequestEi"
    },
    {
     "is_pure" : true,
     "mangled_component_name" : "_ZN4aidl7android8hardware5radio5modem19IRadioModemResponse19enableModemResponseERKNS2_17RadioResponseInfoE"
    },
    {
     "is_pure" : true,
     "mangled_component_name" : "_ZN4aidl7android8hardware5radio5modem19IRadioModemResponse26getBasebandVersionResponseERKNS2_17RadioResponseInfoERKNSt3__112basic_stringIcNS8_11char_traitsIcEENS8_9allocatorIcEEEE"
    },
    {
     "is_pure" : true,
     "mangled_component_name" : "_ZN4aidl7android8hardware5radio5modem19IRadioModemResponse25getDeviceIdentityResponseERKNS2_17RadioResponseInfoERKNSt3__112basic_stringIcNS8_11char_traitsIcEENS8_9allocatorIcEEEESG_SG_SG_"
    },
    {
     "is_pure" : true,
     "mangled_component_name" : "_ZN4aidl7android8hardware5radio5modem19IRadioModemResponse25getHardwareConfigResponseERKNS2_17RadioResponseInfoERKNSt3__16vectorINS3_14HardwareConfigENS8_9allocatorISA_EEEE"
    },
    {
     "is_pure" : true,
     "mangled_component_name" : "_ZN4aidl7android8hardware5radio5modem19IRadioModemResponse28getModemActivityInfoResponseERKNS2_17RadioResponseInfoERKNS3_17ActivityStatsInfoE"
    },
    {
     "is_pure" : true,
     "mangled_component_name" : "_ZN4aidl7android8hardware5radio5modem19IRadioModemResponse27getModemStackStatusResponseERKNS2_17RadioResponseInfoEb"
    },
    {
     "is_pure" : true,
     "mangled_component_name" : "_ZN4aidl7android8hardware5radio5modem19IRadioModemResponse26getRadioCapabilityResponseERKNS2_17RadioResponseInfoERKNS3_15RadioCapabilityE"
    },
    {
     "is_pure" : true,
     "mangled_component_name" : "_ZN4aidl7android8hardware5radio5modem19IRadioModemResponse18nvReadItemResponseERKNS2_17RadioResponseInfoERKNSt3__112basic_stringIcNS8_11char_traitsIcEENS8_9allocatorIcEEEE"
    },
    {
     "is_pure" : true,
     "mangled_component_name" : "_ZN4aidl7android8hardware5radio5modem19IRadioModemResponse21nvResetConfigResponseERKNS2_17RadioResponseInfoE"
    },
    {
     "is_pure" : true,
     "mangled_component_name" : "_ZN4aidl7android8hardware5radio5modem19IRadioModemResponse22nvWriteCdmaPrlResponseERKNS2_17RadioResponseInfoE"
    },
    {
     "is_pure" : true,
     "mangled_component_name" : "_ZN4aidl7android8hardware5radio5modem19IRadioModemResponse19nvWriteItemResponseERKNS2_17RadioResponseInfoE"
    },
    {
     "is_pure" : true,
     "mangled_component_name" : "_ZN4aidl7android8hardware5radio5modem19IRadioModemResponse23requestShutdownResponseERKNS2_17RadioResponseInfoE"
    },
    {
     "is_pure" : true,
     "mangled_component_name" : "_ZN4aidl7android8hardware5radio5modem19IRadioModemResponse23sendDeviceStateResponseERKNS2_17RadioResponseInfoE"
    },
    {
     "is_pure" : true,
     "mangled_component_name" : "_ZN4aidl7android8hardware5radio5modem19IRadioModemResponse26setRadioCapabilityResponseERKNS2_17RadioResponseInfoERKNS3_15RadioCapabilityE"
    },
    {
     "is_pure" : true,
     "mangled_component_name" : "_ZN4aidl7android8hardware5radio5modem19IRadioModemResponse21setRadioPowerResponseERKNS2_17RadioResponseInfoE"
    },
    {
     "is_pure" : true,
     "mangled_component_name" : "_ZN4aidl7android8hardware5radio5modem19IRadioModemResponse19getInterfaceVersionEPi"
    },
    {
     "is_pure" : true,
     "mangled_component_name" : "_ZN4aidl7android8hardware5radio5modem19IRadioModemResponse16getInterfaceHashEPNSt3__112basic_stringIcNS5_11char_traitsIcEENS5_9allocatorIcEEEE"
    },
    {
     "is_pure" : true,
     "mangled_component_name" : "_ZN3ndk12BnCInterfaceIN4aidl7android8hardware5radio5modem19IRadioModemResponseEE12createBinderEv"
    }
   ]
  },
  {
   "alignment" : 4,
   "base_specifiers" :
   [
    {
     "referenced_type" : "_ZTIN4aidl7android8hardware5radio5modem21IRadioModemIndicationE"
    }
   ],
   "fields" :
   [
    {
     "access" : "private",
     "field_name" : "mMutex",
     "field_offset" : 128,
     "referenced_type" : "_ZTINSt3__15mutexE"
    },
    {
     "access" : "private",
     "field_name" : "mWeakBinder",
     "field_offset" : 160,
     "referenced_type" : "_ZTIN3ndk19ScopedAIBinder_WeakE"
    }
   ],
   "linker_set_key" : "_ZTIN3ndk12BnCInterfaceIN4aidl7android8hardware5radio5modem21IRadioModemIndicationEEE",
   "name" : "ndk::BnCInterface<aidl::android::hardware::radio::modem::IRadioModemIndication>",
   "record_kind" : "class",
   "referenced_type" : "_ZTIN3ndk12BnCInterfaceIN4aidl7android8hardware5radio5modem21IRadioModemIndicationEEE",
   "self_type" : "_ZTIN3ndk12BnCInterfaceIN4aidl7android8hardware5radio5modem21IRadioModemIndicationEEE",
   "size" : 24,
   "source_file" : "frameworks/native/libs/binder/ndk/include_cpp/android/binder_interface_utils.h",
   "template_args" :
   [
    "_ZTIN4aidl7android8hardware5radio5modem21IRadioModemIndicationE"
   ],
   "vtable_components" :
   [
    {
     "kind" : "offset_to_top"
    },
    {
     "kind" : "rtti",
     "mangled_component_name" : "_ZTIN3ndk12BnCInterfaceIN4aidl7android8hardware5radio5modem21IRadioModemIndicationEEE"
    },
    {
     "kind" : "complete_dtor_pointer",
     "mangled_component_name" : "_ZN3ndk12BnCInterfaceIN4aidl7android8hardware5radio5modem21IRadioModemIndicationEED1Ev"
    },
    {
     "kind" : "deleting_dtor_pointer",
     "mangled_component_name" : "_ZN3ndk12BnCInterfaceIN4aidl7android8hardware5radio5modem21IRadioModemIndicationEED0Ev"
    },
    {
     "mangled_component_name" : "_ZN3ndk12BnCInterfaceIN4aidl7android8hardware5radio5modem21IRadioModemIndicationEE8asBinderEv"
    },
    {
     "mangled_component_name" : "_ZN3ndk12BnCInterfaceIN4aidl7android8hardware5radio5modem21IRadioModemIndicationEE8isRemoteEv"
    },
    {
     "mangled_component_name" : "_ZN3ndk11ICInterface4dumpEiPPKcj"
    },
    {
     "mangled_component_name" : "_ZN3ndk11ICInterface18handleShellCommandEiiiPPKcj"
    },
    {
     "is_pure" : true,
     "mangled_component_name" : "_ZN4aidl7android8hardware5radio5modem21IRadioModemIndication21hardwareConfigChangedENS2_19RadioIndicationTypeERKNSt3__16vectorINS3_14HardwareConfigENS6_9allocatorIS8_EEEE"
    },
    {
     "is_pure" : true,
     "mangled_component_name" : "_ZN4aidl7android8hardware5radio5modem21IRadioModemIndication10modemResetENS2_19RadioIndicationTypeERKNSt3__112basic_stringIcNS6_11char_traitsIcEENS6_9allocatorIcEEEE"
    },
    {
     "is_pure" : true,
     "mangled_component_name" : "_ZN4aidl7android8hardware5radio5modem21IRadioModemIndication25radioCapabilityIndicationENS2_19RadioIndicationTypeERKNS3_15RadioCapabilityE"
    },
    {
     "is_pure" : true,
     "mangled_component_name" : "_ZN4aidl7android8hardware5radio5modem21IRadioModemIndication17radioStateChangedENS2_19RadioIndicationTypeENS3_10RadioStateE"
    },
    {
     "is_pure" : true,
     "mangled_component_name" : "_ZN4aidl7android8hardware5radio5modem21IRadioModemIndication12rilConnectedENS2_19RadioIndicationTypeE"
    },
    {
     "is_pure" : true,
     "mangled_component_name" : "_ZN4aidl7android8hardware5radio5modem21IRadioModemIndication19getInterfaceVersionEPi"
    },
    {
     "is_pure" : true,
     "mangled_component_name" : "_ZN4aidl7android8hardware5radio5modem21IRadioModemIndication16getInterfaceHashEPNSt3__112basic_stringIcNS5_11char_traitsIcEENS5_9allocatorIcEEEE"
    },
    {
     "is_pure" : true,
     "mangled_component_name" : "_ZN3ndk12BnCInterfaceIN4aidl7android8hardware5radio5modem21IRadioModemIndicationEE12createBinderEv"
    }
   ]
  },
  {
   "alignment" : 4,
   "base_specifiers" :
   [
    {
     "referenced_type" : "_ZTIN4aidl7android8hardware5radio5modem11IRadioModemE"
    }
   ],
   "fields" :
   [
    {
     "access" : "private",
     "field_name" : "mBinder",
     "field_offset" : 128,
     "referenced_type" : "_ZTIN3ndk10SpAIBinderE"
    }
   ],
   "linker_set_key" : "_ZTIN3ndk12BpCInterfaceIN4aidl7android8hardware5radio5modem11IRadioModemEEE",
   "name" : "ndk::BpCInterface<aidl::android::hardware::radio::modem::IRadioModem>",
   "record_kind" : "class",
   "referenced_type" : "_ZTIN3ndk12BpCInterfaceIN4aidl7android8hardware5radio5modem11IRadioModemEEE",
   "self_type" : "_ZTIN3ndk12BpCInterfaceIN4aidl7android8hardware5radio5modem11IRadioModemEEE",
   "size" : 20,
   "source_file" : "frameworks/native/libs/binder/ndk/include_cpp/android/binder_interface_utils.h",
   "template_args" :
   [
    "_ZTIN4aidl7android8hardware5radio5modem11IRadioModemE"
   ],
   "vtable_components" :
   [
    {
     "kind" : "offset_to_top"
    },
    {
     "kind" : "rtti",
     "mangled_component_name" : "_ZTIN3ndk12BpCInterfaceIN4aidl7android8hardware5radio5modem11IRadioModemEEE"
    },
    {
     "kind" : "complete_dtor_pointer",
     "mangled_component_name" : "_ZN3ndk12BpCInterfaceIN4aidl7android8hardware5radio5modem11IRadioModemEED1Ev"
    },
    {
     "kind" : "deleting_dtor_pointer",
     "mangled_component_name" : "_ZN3ndk12BpCInterfaceIN4aidl7android8hardware5radio5modem11IRadioModemEED0Ev"
    },
    {
     "mangled_component_name" : "_ZN3ndk12BpCInterfaceIN4aidl7android8hardware5radio5modem11IRadioModemEE8asBinderEv"
    },
    {
     "mangled_component_name" : "_ZN3ndk12BpCInterfaceIN4aidl7android8hardware5radio5modem11IRadioModemEE8isRemoteEv"
    },
    {
     "mangled_component_name" : "_ZN3ndk12BpCInterfaceIN4aidl7android8hardware5radio5modem11IRadioModemEE4dumpEiPPKcj"
    },
    {
     "mangled_component_name" : "_ZN3ndk11ICInterface18handleShellCommandEiiiPPKcj"
    },
    {
     "is_pure" : true,
     "mangled_component_name" : "_ZN4aidl7android8hardware5radio5modem11IRadioModem11enableModemEib"
    },
    {
     "is_pure" : true,
     "mangled_component_name" : "_ZN4aidl7android8hardware5radio5modem11IRadioModem18getBasebandVersionEi"
    },
    {
     "is_pure" : true,
     "mangled_component_name" : "_ZN4aidl7android8hardware5radio5modem11IRadioModem17getDeviceIdentityEi"
    },
    {
     "is_pure" : true,
     "mangled_component_name" : "_ZN4aidl7android8hardware5radio5modem11IRadioModem17getHardwareConfigEi"
    },
    {
     "is_pure" : true,
     "mangled_component_name" : "_ZN4aidl7android8hardware5radio5modem11IRadioModem20getModemActivityInfoEi"
    },
    {
     "is_pure" : true,
     "mangled_component_name" : "_ZN4aidl7android8hardware5radio5modem11IRadioModem19getModemStackStatusEi"
    },
    {
     "is_pure" : true,
     "mangled_component_name" : "_ZN4aidl7android8hardware5radio5modem11IRadioModem18getRadioCapabilityEi"
    },
    {
     "is_pure" : true,
     "mangled_component_name" : "_ZN4aidl7android8hardware5radio5modem11IRadioModem10nvReadItemEiNS3_6NvItemE"
    },
    {
     "is_pure" : true,
     "mangled_component_name" : "_ZN4aidl7android8hardware5radio5modem11IRadioModem13nvResetConfigEiNS3_11ResetNvTypeE"
    },
    {
     "is_pure" : true,
     "mangled_component_name" : "_ZN4aidl7android8hardware5radio5modem11IRadioModem14nvWriteCdmaPrlEiRKNSt3__16vectorIhNS5_9allocatorIhEEEE"
    },
    {
     "is_pure" : true,
     "mangled_component_name" : "_ZN4aidl7android8hardware5radio5modem11IRadioModem11nvWriteItemEiRKNS3_11NvWriteItemE"
    },
    {
     "is_pure" : true,
     "mangled_component_name" : "_ZN4aidl7android8hardware5radio5modem11IRadioModem15requestShutdownEi"
    },
    {
     "is_pure" : true,
     "mangled_component_name" : "_ZN4aidl7android8hardware5radio5modem11IRadioModem23responseAcknowledgementEv"
    },
    {
     "is_pure" : true,
     "mangled_component_name" : "_ZN4aidl7android8hardware5radio5modem11IRadioModem15sendDeviceStateEiNS3_15DeviceStateTypeEb"
    },
    {
     "is_pure" : true,
     "mangled_component_name" : "_ZN4aidl7android8hardware5radio5modem11IRadioModem18setRadioCapabilityEiRKNS3_15RadioCapabilityE"
    },
    {
     "is_pure" : true,
     "mangled_component_name" : "_ZN4aidl7android8hardware5radio5modem11IRadioModem13setRadioPowerEibbb"
    },
    {
     "is_pure" : true,
     "mangled_component_name" : "_ZN4aidl7android8hardware5radio5modem11IRadioModem20setResponseFunctionsERKNSt3__110shared_ptrINS3_19IRadioModemResponseEEERKNS6_INS3_21IRadioModemIndicationEEE"
    },
    {
     "is_pure" : true,
     "mangled_component_name" : "_ZN4aidl7android8hardware5radio5modem11IRadioModem19getInterfaceVersionEPi"
    },
    {
     "is_pure" : true,
     "mangled_component_name" : "_ZN4aidl7android8hardware5radio5modem11IRadioModem16getInterfaceHashEPNSt3__112basic_stringIcNS5_11char_traitsIcEENS5_9allocatorIcEEEE"
    }
   ]
  },
  {
   "alignment" : 4,
   "base_specifiers" :
   [
    {
     "referenced_type" : "_ZTIN4aidl7android8hardware5radio5modem19IRadioModemResponseE"
    }
   ],
   "fields" :
   [
    {
     "access" : "private",
     "field_name" : "mBinder",
     "field_offset" : 128,
     "referenced_type" : "_ZTIN3ndk10SpAIBinderE"
    }
   ],
   "linker_set_key" : "_ZTIN3ndk12BpCInterfaceIN4aidl7android8hardware5radio5modem19IRadioModemResponseEEE",
   "name" : "ndk::BpCInterface<aidl::android::hardware::radio::modem::IRadioModemResponse>",
   "record_kind" : "class",
   "referenced_type" : "_ZTIN3ndk12BpCInterfaceIN4aidl7android8hardware5radio5modem19IRadioModemResponseEEE",
   "self_type" : "_ZTIN3ndk12BpCInterfaceIN4aidl7android8hardware5radio5modem19IRadioModemResponseEEE",
   "size" : 20,
   "source_file" : "frameworks/native/libs/binder/ndk/include_cpp/android/binder_interface_utils.h",
   "template_args" :
   [
    "_ZTIN4aidl7android8hardware5radio5modem19IRadioModemResponseE"
   ],
   "vtable_components" :
   [
    {
     "kind" : "offset_to_top"
    },
    {
     "kind" : "rtti",
     "mangled_component_name" : "_ZTIN3ndk12BpCInterfaceIN4aidl7android8hardware5radio5modem19IRadioModemResponseEEE"
    },
    {
     "kind" : "complete_dtor_pointer",
     "mangled_component_name" : "_ZN3ndk12BpCInterfaceIN4aidl7android8hardware5radio5modem19IRadioModemResponseEED1Ev"
    },
    {
     "kind" : "deleting_dtor_pointer",
     "mangled_component_name" : "_ZN3ndk12BpCInterfaceIN4aidl7android8hardware5radio5modem19IRadioModemResponseEED0Ev"
    },
    {
     "mangled_component_name" : "_ZN3ndk12BpCInterfaceIN4aidl7android8hardware5radio5modem19IRadioModemResponseEE8asBinderEv"
    },
    {
     "mangled_component_name" : "_ZN3ndk12BpCInterfaceIN4aidl7android8hardware5radio5modem19IRadioModemResponseEE8isRemoteEv"
    },
    {
     "mangled_component_name" : "_ZN3ndk12BpCInterfaceIN4aidl7android8hardware5radio5modem19IRadioModemResponseEE4dumpEiPPKcj"
    },
    {
     "mangled_component_name" : "_ZN3ndk11ICInterface18handleShellCommandEiiiPPKcj"
    },
    {
     "is_pure" : true,
     "mangled_component_name" : "_ZN4aidl7android8hardware5radio5modem19IRadioModemResponse18acknowledgeRequestEi"
    },
    {
     "is_pure" : true,
     "mangled_component_name" : "_ZN4aidl7android8hardware5radio5modem19IRadioModemResponse19enableModemResponseERKNS2_17RadioResponseInfoE"
    },
    {
     "is_pure" : true,
     "mangled_component_name" : "_ZN4aidl7android8hardware5radio5modem19IRadioModemResponse26getBasebandVersionResponseERKNS2_17RadioResponseInfoERKNSt3__112basic_stringIcNS8_11char_traitsIcEENS8_9allocatorIcEEEE"
    },
    {
     "is_pure" : true,
     "mangled_component_name" : "_ZN4aidl7android8hardware5radio5modem19IRadioModemResponse25getDeviceIdentityResponseERKNS2_17RadioResponseInfoERKNSt3__112basic_stringIcNS8_11char_traitsIcEENS8_9allocatorIcEEEESG_SG_SG_"
    },
    {
     "is_pure" : true,
     "mangled_component_name" : "_ZN4aidl7android8hardware5radio5modem19IRadioModemResponse25getHardwareConfigResponseERKNS2_17RadioResponseInfoERKNSt3__16vectorINS3_14HardwareConfigENS8_9allocatorISA_EEEE"
    },
    {
     "is_pure" : true,
     "mangled_component_name" : "_ZN4aidl7android8hardware5radio5modem19IRadioModemResponse28getModemActivityInfoResponseERKNS2_17RadioResponseInfoERKNS3_17ActivityStatsInfoE"
    },
    {
     "is_pure" : true,
     "mangled_component_name" : "_ZN4aidl7android8hardware5radio5modem19IRadioModemResponse27getModemStackStatusResponseERKNS2_17RadioResponseInfoEb"
    },
    {
     "is_pure" : true,
     "mangled_component_name" : "_ZN4aidl7android8hardware5radio5modem19IRadioModemResponse26getRadioCapabilityResponseERKNS2_17RadioResponseInfoERKNS3_15RadioCapabilityE"
    },
    {
     "is_pure" : true,
     "mangled_component_name" : "_ZN4aidl7android8hardware5radio5modem19IRadioModemResponse18nvReadItemResponseERKNS2_17RadioResponseInfoERKNSt3__112basic_stringIcNS8_11char_traitsIcEENS8_9allocatorIcEEEE"
    },
    {
     "is_pure" : true,
     "mangled_component_name" : "_ZN4aidl7android8hardware5radio5modem19IRadioModemResponse21nvResetConfigResponseERKNS2_17RadioResponseInfoE"
    },
    {
     "is_pure" : true,
     "mangled_component_name" : "_ZN4aidl7android8hardware5radio5modem19IRadioModemResponse22nvWriteCdmaPrlResponseERKNS2_17RadioResponseInfoE"
    },
    {
     "is_pure" : true,
     "mangled_component_name" : "_ZN4aidl7android8hardware5radio5modem19IRadioModemResponse19nvWriteItemResponseERKNS2_17RadioResponseInfoE"
    },
    {
     "is_pure" : true,
     "mangled_component_name" : "_ZN4aidl7android8hardware5radio5modem19IRadioModemResponse23requestShutdownResponseERKNS2_17RadioResponseInfoE"
    },
    {
     "is_pure" : true,
     "mangled_component_name" : "_ZN4aidl7android8hardware5radio5modem19IRadioModemResponse23sendDeviceStateResponseERKNS2_17RadioResponseInfoE"
    },
    {
     "is_pure" : true,
     "mangled_component_name" : "_ZN4aidl7android8hardware5radio5modem19IRadioModemResponse26setRadioCapabilityResponseERKNS2_17RadioResponseInfoERKNS3_15RadioCapabilityE"
    },
    {
     "is_pure" : true,
     "mangled_component_name" : "_ZN4aidl7android8hardware5radio5modem19IRadioModemResponse21setRadioPowerResponseERKNS2_17RadioResponseInfoE"
    },
    {
     "is_pure" : true,
     "mangled_component_name" : "_ZN4aidl7android8hardware5radio5modem19IRadioModemResponse19getInterfaceVersionEPi"
    },
    {
     "is_pure" : true,
     "mangled_component_name" : "_ZN4aidl7android8hardware5radio5modem19IRadioModemResponse16getInterfaceHashEPNSt3__112basic_stringIcNS5_11char_traitsIcEENS5_9allocatorIcEEEE"
    }
   ]
  },
  {
   "alignment" : 4,
   "base_specifiers" :
   [
    {
     "referenced_type" : "_ZTIN4aidl7android8hardware5radio5modem21IRadioModemIndicationE"
    }
   ],
   "fields" :
   [
    {
     "access" : "private",
     "field_name" : "mBinder",
     "field_offset" : 128,
     "referenced_type" : "_ZTIN3ndk10SpAIBinderE"
    }
   ],
   "linker_set_key" : "_ZTIN3ndk12BpCInterfaceIN4aidl7android8hardware5radio5modem21IRadioModemIndicationEEE",
   "name" : "ndk::BpCInterface<aidl::android::hardware::radio::modem::IRadioModemIndication>",
   "record_kind" : "class",
   "referenced_type" : "_ZTIN3ndk12BpCInterfaceIN4aidl7android8hardware5radio5modem21IRadioModemIndicationEEE",
   "self_type" : "_ZTIN3ndk12BpCInterfaceIN4aidl7android8hardware5radio5modem21IRadioModemIndicationEEE",
   "size" : 20,
   "source_file" : "frameworks/native/libs/binder/ndk/include_cpp/android/binder_interface_utils.h",
   "template_args" :
   [
    "_ZTIN4aidl7android8hardware5radio5modem21IRadioModemIndicationE"
   ],
   "vtable_components" :
   [
    {
     "kind" : "offset_to_top"
    },
    {
     "kind" : "rtti",
     "mangled_component_name" : "_ZTIN3ndk12BpCInterfaceIN4aidl7android8hardware5radio5modem21IRadioModemIndicationEEE"
    },
    {
     "kind" : "complete_dtor_pointer",
     "mangled_component_name" : "_ZN3ndk12BpCInterfaceIN4aidl7android8hardware5radio5modem21IRadioModemIndicationEED1Ev"
    },
    {
     "kind" : "deleting_dtor_pointer",
     "mangled_component_name" : "_ZN3ndk12BpCInterfaceIN4aidl7android8hardware5radio5modem21IRadioModemIndicationEED0Ev"
    },
    {
     "mangled_component_name" : "_ZN3ndk12BpCInterfaceIN4aidl7android8hardware5radio5modem21IRadioModemIndicationEE8asBinderEv"
    },
    {
     "mangled_component_name" : "_ZN3ndk12BpCInterfaceIN4aidl7android8hardware5radio5modem21IRadioModemIndicationEE8isRemoteEv"
    },
    {
     "mangled_component_name" : "_ZN3ndk12BpCInterfaceIN4aidl7android8hardware5radio5modem21IRadioModemIndicationEE4dumpEiPPKcj"
    },
    {
     "mangled_component_name" : "_ZN3ndk11ICInterface18handleShellCommandEiiiPPKcj"
    },
    {
     "is_pure" : true,
     "mangled_component_name" : "_ZN4aidl7android8hardware5radio5modem21IRadioModemIndication21hardwareConfigChangedENS2_19RadioIndicationTypeERKNSt3__16vectorINS3_14HardwareConfigENS6_9allocatorIS8_EEEE"
    },
    {
     "is_pure" : true,
     "mangled_component_name" : "_ZN4aidl7android8hardware5radio5modem21IRadioModemIndication10modemResetENS2_19RadioIndicationTypeERKNSt3__112basic_stringIcNS6_11char_traitsIcEENS6_9allocatorIcEEEE"
    },
    {
     "is_pure" : true,
     "mangled_component_name" : "_ZN4aidl7android8hardware5radio5modem21IRadioModemIndication25radioCapabilityIndicationENS2_19RadioIndicationTypeERKNS3_15RadioCapabilityE"
    },
    {
     "is_pure" : true,
     "mangled_component_name" : "_ZN4aidl7android8hardware5radio5modem21IRadioModemIndication17radioStateChangedENS2_19RadioIndicationTypeENS3_10RadioStateE"
    },
    {
     "is_pure" : true,
     "mangled_component_name" : "_ZN4aidl7android8hardware5radio5modem21IRadioModemIndication12rilConnectedENS2_19RadioIndicationTypeE"
    },
    {
     "is_pure" : true,
     "mangled_component_name" : "_ZN4aidl7android8hardware5radio5modem21IRadioModemIndication19getInterfaceVersionEPi"
    },
    {
     "is_pure" : true,
     "mangled_component_name" : "_ZN4aidl7android8hardware5radio5modem21IRadioModemIndication16getInterfaceHashEPNSt3__112basic_stringIcNS5_11char_traitsIcEENS5_9allocatorIcEEEE"
    }
   ]
  },
  {
   "alignment" : 4,
   "base_specifiers" :
   [
    {
     "referenced_type" : "_ZTIN3ndk4impl15ScopedAResourceIP7AParcelXadL_Z14AParcel_deleteEELS3_0EEE"
    }
   ],
   "linker_set_key" : "_ZTIN3ndk13ScopedAParcelE",
   "name" : "ndk::ScopedAParcel",
   "record_kind" : "class",
   "referenced_type" : "_ZTIN3ndk13ScopedAParcelE",
   "self_type" : "_ZTIN3ndk13ScopedAParcelE",
   "size" : 4,
   "source_file" : "frameworks/native/libs/binder/ndk/include_cpp/android/binder_auto_utils.h"
  },
  {
   "alignment" : 4,
   "base_specifiers" :
   [
    {
     "referenced_type" : "_ZTIN3ndk4impl15ScopedAResourceIP7AStatusXadL_Z14AStatus_deleteEELS3_0EEE"
    }
   ],
   "linker_set_key" : "_ZTIN3ndk13ScopedAStatusE",
   "name" : "ndk::ScopedAStatus",
   "record_kind" : "class",
   "referenced_type" : "_ZTIN3ndk13ScopedAStatusE",
   "self_type" : "_ZTIN3ndk13ScopedAStatusE",
   "size" : 4,
   "source_file" : "frameworks/native/libs/binder/ndk/include_cpp/android/binder_auto_utils.h"
  },
  {
   "alignment" : 4,
   "fields" :
   [
    {
     "access" : "private",
     "field_name" : "mFlagThis",
     "field_offset" : 32,
     "referenced_type" : "_ZTINSt3__19once_flagE"
    },
    {
     "access" : "private",
     "field_name" : "mThis",
     "field_offset" : 64,
     "referenced_type" : "_ZTINSt3__18weak_ptrIN3ndk13SharedRefBaseEEE"
    }
   ],
   "linker_set_key" : "_ZTIN3ndk13SharedRefBaseE",
   "name" : "ndk::SharedRefBase",
   "record_kind" : "class",
   "referenced_type" : "_ZTIN3ndk13SharedRefBaseE",
   "self_type" : "_ZTIN3ndk13SharedRefBaseE",
   "size" : 16,
   "source_file" : "frameworks/native/libs/binder/ndk/include_cpp/android/binder_interface_utils.h",
   "vtable_components" :
   [
    {
     "kind" : "offset_to_top"
    },
    {
     "kind" : "rtti",
     "mangled_component_name" : "_ZTIN3ndk13SharedRefBaseE"
    },
    {
     "kind" : "complete_dtor_pointer",
     "mangled_component_name" : "_ZN3ndk13SharedRefBaseD1Ev"
    },
    {
     "kind" : "deleting_dtor_pointer",
     "mangled_component_name" : "_ZN3ndk13SharedRefBaseD0Ev"
    }
   ]
  },
  {
   "alignment" : 4,
   "fields" :
   [
    {
     "access" : "private",
     "field_name" : "mParcel",
     "field_offset" : 32,
     "referenced_type" : "_ZTIN3ndk13ScopedAParcelE"
    },
    {
     "access" : "private",
     "field_name" : "mStability",
     "field_offset" : 64,
     "referenced_type" : "_ZTIi"
    }
   ],
   "linker_set_key" : "_ZTIN3ndk17AParcelableHolderE",
   "name" : "ndk::AParcelableHolder",
   "record_kind" : "class",
   "referenced_type" : "_ZTIN3ndk17AParcelableHolderE",
   "self_type" : "_ZTIN3ndk17AParcelableHolderE",
   "size" : 12,
   "source_file" : "frameworks/native/libs/binder/ndk/include_cpp/android/binder_parcelable_utils.h",
   "vtable_components" :
   [
    {
     "kind" : "offset_to_top"
    },
    {
     "kind" : "rtti",
     "mangled_component_name" : "_ZTIN3ndk17AParcelableHolderE"
    },
    {
     "kind" : "complete_dtor_pointer",
     "mangled_component_name" : "_ZN3ndk17AParcelableHolderD1Ev"
    },
    {
     "kind" : "deleting_dtor_pointer",
     "mangled_component_name" : "_ZN3ndk17AParcelableHolderD0Ev"
    }
   ]
  },
  {
   "alignment" : 4,
   "base_specifiers" :
   [
    {
     "referenced_type" : "_ZTIN3ndk4impl15ScopedAResourceIP13AIBinder_WeakXadL_Z20AIBinder_Weak_deleteEELS3_0EEE"
    }
   ],
   "linker_set_key" : "_ZTIN3ndk19ScopedAIBinder_WeakE",
   "name" : "ndk::ScopedAIBinder_Weak",
   "record_kind" : "class",
   "referenced_type" : "_ZTIN3ndk19ScopedAIBinder_WeakE",
   "self_type" : "_ZTIN3ndk19ScopedAIBinder_WeakE",
   "size" : 4,
   "source_file" : "frameworks/native/libs/binder/ndk/include_cpp/android/binder_auto_utils.h"
  },
  {
   "alignment" : 4,
   "base_specifiers" :
   [
    {
     "referenced_type" : "_ZTIN3ndk4impl15ScopedAResourceIiXadL_ZNS_8internalL14closeWithErrorEiEELin1EEE"
    }
   ],
   "linker_set_key" : "_ZTIN3ndk20ScopedFileDescriptorE",
   "name" : "ndk::ScopedFileDescriptor",
   "record_kind" : "class",
   "referenced_type" : "_ZTIN3ndk20ScopedFileDescriptorE",
   "self_type" : "_ZTIN3ndk20ScopedFileDescriptorE",
   "size" : 4,
   "source_file" : "frameworks/native/libs/binder/ndk/include_cpp/android/binder_auto_utils.h"
  },
  {
   "alignment" : 4,
   "base_specifiers" :
   [
    {
     "referenced_type" : "_ZTIN3ndk4impl15ScopedAResourceIP23AIBinder_DeathRecipientXadL_Z30AIBinder_DeathRecipient_deleteEELS3_0EEE"
    }
   ],
   "linker_set_key" : "_ZTIN3ndk29ScopedAIBinder_DeathRecipientE",
   "name" : "ndk::ScopedAIBinder_DeathRecipient",
   "record_kind" : "class",
   "referenced_type" : "_ZTIN3ndk29ScopedAIBinder_DeathRecipientE",
   "self_type" : "_ZTIN3ndk29ScopedAIBinder_DeathRecipientE",
   "size" : 4,
   "source_file" : "frameworks/native/libs/binder/ndk/include_cpp/android/binder_auto_utils.h"
  },
  {
   "alignment" : 4,
   "fields" :
   [
    {
     "access" : "private",
     "field_name" : "mT",
     "referenced_type" : "_ZTIP13AIBinder_Weak"
    }
   ],
   "linker_set_key" : "_ZTIN3ndk4impl15ScopedAResourceIP13AIBinder_WeakXadL_Z20AIBinder_Weak_deleteEELS3_0EEE",
   "name" : "ndk::impl::ScopedAResource<AIBinder_Weak *, &AIBinder_Weak_delete, nullptr>",
   "record_kind" : "class",
   "referenced_type" : "_ZTIN3ndk4impl15ScopedAResourceIP13AIBinder_WeakXadL_Z20AIBinder_Weak_deleteEELS3_0EEE",
   "self_type" : "_ZTIN3ndk4impl15ScopedAResourceIP13AIBinder_WeakXadL_Z20AIBinder_Weak_deleteEELS3_0EEE",
   "size" : 4,
   "source_file" : "frameworks/native/libs/binder/ndk/include_cpp/android/binder_auto_utils.h",
   "template_args" :
   [
    "_ZTIP13AIBinder_Weak"
   ]
  },
  {
   "alignment" : 4,
   "fields" :
   [
    {
     "access" : "private",
     "field_name" : "mT",
     "referenced_type" : "_ZTIP23AIBinder_DeathRecipient"
    }
   ],
   "linker_set_key" : "_ZTIN3ndk4impl15ScopedAResourceIP23AIBinder_DeathRecipientXadL_Z30AIBinder_DeathRecipient_deleteEELS3_0EEE",
   "name" : "ndk::impl::ScopedAResource<AIBinder_DeathRecipient *, &AIBinder_DeathRecipient_delete, nullptr>",
   "record_kind" : "class",
   "referenced_type" : "_ZTIN3ndk4impl15ScopedAResourceIP23AIBinder_DeathRecipientXadL_Z30AIBinder_DeathRecipient_deleteEELS3_0EEE",
   "self_type" : "_ZTIN3ndk4impl15ScopedAResourceIP23AIBinder_DeathRecipientXadL_Z30AIBinder_DeathRecipient_deleteEELS3_0EEE",
   "size" : 4,
   "source_file" : "frameworks/native/libs/binder/ndk/include_cpp/android/binder_auto_utils.h",
   "template_args" :
   [
    "_ZTIP23AIBinder_DeathRecipient"
   ]
  },
  {
   "alignment" : 4,
   "fields" :
   [
    {
     "access" : "private",
     "field_name" : "mT",
     "referenced_type" : "_ZTIP7AParcel"
    }
   ],
   "linker_set_key" : "_ZTIN3ndk4impl15ScopedAResourceIP7AParcelXadL_Z14AParcel_deleteEELS3_0EEE",
   "name" : "ndk::impl::ScopedAResource<AParcel *, &AParcel_delete, nullptr>",
   "record_kind" : "class",
   "referenced_type" : "_ZTIN3ndk4impl15ScopedAResourceIP7AParcelXadL_Z14AParcel_deleteEELS3_0EEE",
   "self_type" : "_ZTIN3ndk4impl15ScopedAResourceIP7AParcelXadL_Z14AParcel_deleteEELS3_0EEE",
   "size" : 4,
   "source_file" : "frameworks/native/libs/binder/ndk/include_cpp/android/binder_auto_utils.h",
   "template_args" :
   [
    "_ZTIP7AParcel"
   ]
  },
  {
   "alignment" : 4,
   "fields" :
   [
    {
     "access" : "private",
     "field_name" : "mT",
     "referenced_type" : "_ZTIP7AStatus"
    }
   ],
   "linker_set_key" : "_ZTIN3ndk4impl15ScopedAResourceIP7AStatusXadL_Z14AStatus_deleteEELS3_0EEE",
   "name" : "ndk::impl::ScopedAResource<AStatus *, &AStatus_delete, nullptr>",
   "record_kind" : "class",
   "referenced_type" : "_ZTIN3ndk4impl15ScopedAResourceIP7AStatusXadL_Z14AStatus_deleteEELS3_0EEE",
   "self_type" : "_ZTIN3ndk4impl15ScopedAResourceIP7AStatusXadL_Z14AStatus_deleteEELS3_0EEE",
   "size" : 4,
   "source_file" : "frameworks/native/libs/binder/ndk/include_cpp/android/binder_auto_utils.h",
   "template_args" :
   [
    "_ZTIP7AStatus"
   ]
  },
  {
   "alignment" : 4,
   "fields" :
   [
    {
     "field_name" : "type",
     "referenced_type" : "_ZTIN4aidl7android8hardware5radio17RadioResponseTypeE"
    },
    {
     "field_name" : "serial",
     "field_offset" : 32,
     "referenced_type" : "_ZTIi"
    },
    {
     "field_name" : "error",
     "field_offset" : 64,
     "referenced_type" : "_ZTIN4aidl7android8hardware5radio10RadioErrorE"
    }
   ],
   "linker_set_key" : "_ZTIN4aidl7android8hardware5radio17RadioResponseInfoE",
   "name" : "aidl::android::hardware::radio::RadioResponseInfo",
   "record_kind" : "class",
   "referenced_type" : "_ZTIN4aidl7android8hardware5radio17RadioResponseInfoE",
   "self_type" : "_ZTIN4aidl7android8hardware5radio17RadioResponseInfoE",
   "size" : 12,
   "source_file" : "out/soong/.intermediates/hardware/interfaces/radio/aidl/android.hardware.radio-V1-ndk-source/gen/include/aidl/android/hardware/radio/RadioResponseInfo.h"
  },
  {
   "alignment" : 4,
   "base_specifiers" :
   [
    {
     "referenced_type" : "_ZTIN3ndk11ICInterfaceE"
    }
   ],
   "linker_set_key" : "_ZTIN4aidl7android8hardware5radio5modem11IRadioModemE",
   "name" : "aidl::android::hardware::radio::modem::IRadioModem",
   "record_kind" : "class",
   "referenced_type" : "_ZTIN4aidl7android8hardware5radio5modem11IRadioModemE",
   "self_type" : "_ZTIN4aidl7android8hardware5radio5modem11IRadioModemE",
   "size" : 16,
   "source_file" : "out/soong/.intermediates/hardware/interfaces/radio/aidl/android.hardware.radio.modem-V1-ndk-source/gen/include/aidl/android/hardware/radio/modem/IRadioModem.h",
   "vtable_components" :
   [
    {
     "kind" : "offset_to_top"
    },
    {
     "kind" : "rtti",
     "mangled_component_name" : "_ZTIN4aidl7android8hardware5radio5modem11IRadioModemE"
    },
    {
     "kind" : "complete_dtor_pointer",
     "mangled_component_name" : "_ZN4aidl7android8hardware5radio5modem11IRadioModemD1Ev"
    },
    {
     "kind" : "deleting_dtor_pointer",
     "mangled_component_name" : "_ZN4aidl7android8hardware5radio5modem11IRadioModemD0Ev"
    },
    {
     "is_pure" : true,
     "mangled_component_name" : "_ZN3ndk11ICInterface8asBinderEv"
    },
    {
     "is_pure" : true,
     "mangled_component_name" : "_ZN3ndk11ICInterface8isRemoteEv"
    },
    {
     "mangled_component_name" : "_ZN3ndk11ICInterface4dumpEiPPKcj"
    },
    {
     "mangled_component_name" : "_ZN3ndk11ICInterface18handleShellCommandEiiiPPKcj"
    },
    {
     "is_pure" : true,
     "mangled_component_name" : "_ZN4aidl7android8hardware5radio5modem11IRadioModem11enableModemEib"
    },
    {
     "is_pure" : true,
     "mangled_component_name" : "_ZN4aidl7android8hardware5radio5modem11IRadioModem18getBasebandVersionEi"
    },
    {
     "is_pure" : true,
     "mangled_component_name" : "_ZN4aidl7android8hardware5radio5modem11IRadioModem17getDeviceIdentityEi"
    },
    {
     "is_pure" : true,
     "mangled_component_name" : "_ZN4aidl7android8hardware5radio5modem11IRadioModem17getHardwareConfigEi"
    },
    {
     "is_pure" : true,
     "mangled_component_name" : "_ZN4aidl7android8hardware5radio5modem11IRadioModem20getModemActivityInfoEi"
    },
    {
     "is_pure" : true,
     "mangled_component_name" : "_ZN4aidl7android8hardware5radio5modem11IRadioModem19getModemStackStatusEi"
    },
    {
     "is_pure" : true,
     "mangled_component_name" : "_ZN4aidl7android8hardware5radio5modem11IRadioModem18getRadioCapabilityEi"
    },
    {
     "is_pure" : true,
     "mangled_component_name" : "_ZN4aidl7android8hardware5radio5modem11IRadioModem10nvReadItemEiNS3_6NvItemE"
    },
    {
     "is_pure" : true,
     "mangled_component_name" : "_ZN4aidl7android8hardware5radio5modem11IRadioModem13nvResetConfigEiNS3_11ResetNvTypeE"
    },
    {
     "is_pure" : true,
     "mangled_component_name" : "_ZN4aidl7android8hardware5radio5modem11IRadioModem14nvWriteCdmaPrlEiRKNSt3__16vectorIhNS5_9allocatorIhEEEE"
    },
    {
     "is_pure" : true,
     "mangled_component_name" : "_ZN4aidl7android8hardware5radio5modem11IRadioModem11nvWriteItemEiRKNS3_11NvWriteItemE"
    },
    {
     "is_pure" : true,
     "mangled_component_name" : "_ZN4aidl7android8hardware5radio5modem11IRadioModem15requestShutdownEi"
    },
    {
     "is_pure" : true,
     "mangled_component_name" : "_ZN4aidl7android8hardware5radio5modem11IRadioModem23responseAcknowledgementEv"
    },
    {
     "is_pure" : true,
     "mangled_component_name" : "_ZN4aidl7android8hardware5radio5modem11IRadioModem15sendDeviceStateEiNS3_15DeviceStateTypeEb"
    },
    {
     "is_pure" : true,
     "mangled_component_name" : "_ZN4aidl7android8hardware5radio5modem11IRadioModem18setRadioCapabilityEiRKNS3_15RadioCapabilityE"
    },
    {
     "is_pure" : true,
     "mangled_component_name" : "_ZN4aidl7android8hardware5radio5modem11IRadioModem13setRadioPowerEibbb"
    },
    {
     "is_pure" : true,
     "mangled_component_name" : "_ZN4aidl7android8hardware5radio5modem11IRadioModem20setResponseFunctionsERKNSt3__110shared_ptrINS3_19IRadioModemResponseEEERKNS6_INS3_21IRadioModemIndicationEEE"
    },
    {
     "is_pure" : true,
     "mangled_component_name" : "_ZN4aidl7android8hardware5radio5modem11IRadioModem19getInterfaceVersionEPi"
    },
    {
     "is_pure" : true,
     "mangled_component_name" : "_ZN4aidl7android8hardware5radio5modem11IRadioModem16getInterfaceHashEPNSt3__112basic_stringIcNS5_11char_traitsIcEENS5_9allocatorIcEEEE"
    }
   ]
  },
  {
   "alignment" : 4,
   "fields" :
   [
    {
     "field_name" : "itemId",
     "referenced_type" : "_ZTIN4aidl7android8hardware5radio5modem6NvItemE"
    },
    {
     "field_name" : "value",
     "field_offset" : 32,
     "referenced_type" : "_ZTINSt3__112basic_stringIcNS_11char_traitsIcEENS_9allocatorIcEEEE"
    }
   ],
   "linker_set_key" : "_ZTIN4aidl7android8hardware5radio5modem11NvWriteItemE",
   "name" : "aidl::android::hardware::radio::modem::NvWriteItem",
   "record_kind" : "class",
   "referenced_type" : "_ZTIN4aidl7android8hardware5radio5modem11NvWriteItemE",
   "self_type" : "_ZTIN4aidl7android8hardware5radio5modem11NvWriteItemE",
   "size" : 16,
   "source_file" : "out/soong/.intermediates/hardware/interfaces/radio/aidl/android.hardware.radio.modem-V1-ndk-source/gen/include/aidl/android/hardware/radio/modem/NvWriteItem.h"
  },
  {
   "alignment" : 4,
   "base_specifiers" :
   [
    {
     "referenced_type" : "_ZTIN3ndk12BnCInterfaceIN4aidl7android8hardware5radio5modem11IRadioModemEEE"
    }
   ],
   "linker_set_key" : "_ZTIN4aidl7android8hardware5radio5modem12BnRadioModemE",
   "name" : "aidl::android::hardware::radio::modem::BnRadioModem",
   "record_kind" : "class",
   "referenced_type" : "_ZTIN4aidl7android8hardware5radio5modem12BnRadioModemE",
   "self_type" : "_ZTIN4aidl7android8hardware5radio5modem12BnRadioModemE",
   "size" : 24,
   "source_file" : "out/soong/.intermediates/hardware/interfaces/radio/aidl/android.hardware.radio.modem-V1-ndk-source/gen/include/aidl/android/hardware/radio/modem/BnRadioModem.h",
   "vtable_components" :
   [
    {
     "kind" : "offset_to_top"
    },
    {
     "kind" : "rtti",
     "mangled_component_name" : "_ZTIN4aidl7android8hardware5radio5modem12BnRadioModemE"
    },
    {
     "kind" : "complete_dtor_pointer",
     "mangled_component_name" : "_ZN4aidl7android8hardware5radio5modem12BnRadioModemD1Ev"
    },
    {
     "kind" : "deleting_dtor_pointer",
     "mangled_component_name" : "_ZN4aidl7android8hardware5radio5modem12BnRadioModemD0Ev"
    },
    {
     "mangled_component_name" : "_ZN3ndk12BnCInterfaceIN4aidl7android8hardware5radio5modem11IRadioModemEE8asBinderEv"
    },
    {
     "mangled_component_name" : "_ZN3ndk12BnCInterfaceIN4aidl7android8hardware5radio5modem11IRadioModemEE8isRemoteEv"
    },
    {
     "mangled_component_name" : "_ZN3ndk11ICInterface4dumpEiPPKcj"
    },
    {
     "mangled_component_name" : "_ZN3ndk11ICInterface18handleShellCommandEiiiPPKcj"
    },
    {
     "is_pure" : true,
     "mangled_component_name" : "_ZN4aidl7android8hardware5radio5modem11IRadioModem11enableModemEib"
    },
    {
     "is_pure" : true,
     "mangled_component_name" : "_ZN4aidl7android8hardware5radio5modem11IRadioModem18getBasebandVersionEi"
    },
    {
     "is_pure" : true,
     "mangled_component_name" : "_ZN4aidl7android8hardware5radio5modem11IRadioModem17getDeviceIdentityEi"
    },
    {
     "is_pure" : true,
     "mangled_component_name" : "_ZN4aidl7android8hardware5radio5modem11IRadioModem17getHardwareConfigEi"
    },
    {
     "is_pure" : true,
     "mangled_component_name" : "_ZN4aidl7android8hardware5radio5modem11IRadioModem20getModemActivityInfoEi"
    },
    {
     "is_pure" : true,
     "mangled_component_name" : "_ZN4aidl7android8hardware5radio5modem11IRadioModem19getModemStackStatusEi"
    },
    {
     "is_pure" : true,
     "mangled_component_name" : "_ZN4aidl7android8hardware5radio5modem11IRadioModem18getRadioCapabilityEi"
    },
    {
     "is_pure" : true,
     "mangled_component_name" : "_ZN4aidl7android8hardware5radio5modem11IRadioModem10nvReadItemEiNS3_6NvItemE"
    },
    {
     "is_pure" : true,
     "mangled_component_name" : "_ZN4aidl7android8hardware5radio5modem11IRadioModem13nvResetConfigEiNS3_11ResetNvTypeE"
    },
    {
     "is_pure" : true,
     "mangled_component_name" : "_ZN4aidl7android8hardware5radio5modem11IRadioModem14nvWriteCdmaPrlEiRKNSt3__16vectorIhNS5_9allocatorIhEEEE"
    },
    {
     "is_pure" : true,
     "mangled_component_name" : "_ZN4aidl7android8hardware5radio5modem11IRadioModem11nvWriteItemEiRKNS3_11NvWriteItemE"
    },
    {
     "is_pure" : true,
     "mangled_component_name" : "_ZN4aidl7android8hardware5radio5modem11IRadioModem15requestShutdownEi"
    },
    {
     "is_pure" : true,
     "mangled_component_name" : "_ZN4aidl7android8hardware5radio5modem11IRadioModem23responseAcknowledgementEv"
    },
    {
     "is_pure" : true,
     "mangled_component_name" : "_ZN4aidl7android8hardware5radio5modem11IRadioModem15sendDeviceStateEiNS3_15DeviceStateTypeEb"
    },
    {
     "is_pure" : true,
     "mangled_component_name" : "_ZN4aidl7android8hardware5radio5modem11IRadioModem18setRadioCapabilityEiRKNS3_15RadioCapabilityE"
    },
    {
     "is_pure" : true,
     "mangled_component_name" : "_ZN4aidl7android8hardware5radio5modem11IRadioModem13setRadioPowerEibbb"
    },
    {
     "is_pure" : true,
     "mangled_component_name" : "_ZN4aidl7android8hardware5radio5modem11IRadioModem20setResponseFunctionsERKNSt3__110shared_ptrINS3_19IRadioModemResponseEEERKNS6_INS3_21IRadioModemIndicationEEE"
    },
    {
     "mangled_component_name" : "_ZN4aidl7android8hardware5radio5modem12BnRadioModem19getInterfaceVersionEPi"
    },
    {
     "mangled_component_name" : "_ZN4aidl7android8hardware5radio5modem12BnRadioModem16getInterfaceHashEPNSt3__112basic_stringIcNS5_11char_traitsIcEENS5_9allocatorIcEEEE"
    },
    {
     "mangled_component_name" : "_ZN4aidl7android8hardware5radio5modem12BnRadioModem12createBinderEv"
    }
   ]
  },
  {
   "alignment" : 4,
   "base_specifiers" :
   [
    {
     "referenced_type" : "_ZTIN3ndk12BpCInterfaceIN4aidl7android8hardware5radio5modem11IRadioModemEEE"
    }
   ],
   "fields" :
   [
    {
     "field_name" : "_aidl_cached_version",
     "field_offset" : 160,
     "referenced_type" : "_ZTIi"
    },
    {
     "field_name" : "_aidl_cached_hash",
     "field_offset" : 192,
     "referenced_type" : "_ZTINSt3__112basic_stringIcNS_11char_traitsIcEENS_9allocatorIcEEEE"
    },
    {
     "field_name" : "_aidl_cached_hash_mutex",
     "field_offset" : 288,
     "referenced_type" : "_ZTINSt3__15mutexE"
    }
   ],
   "linker_set_key" : "_ZTIN4aidl7android8hardware5radio5modem12BpRadioModemE",
   "name" : "aidl::android::hardware::radio::modem::BpRadioModem",
   "record_kind" : "class",
   "referenced_type" : "_ZTIN4aidl7android8hardware5radio5modem12BpRadioModemE",
   "self_type" : "_ZTIN4aidl7android8hardware5radio5modem12BpRadioModemE",
   "size" : 40,
   "source_file" : "out/soong/.intermediates/hardware/interfaces/radio/aidl/android.hardware.radio.modem-V1-ndk-source/gen/include/aidl/android/hardware/radio/modem/BpRadioModem.h",
   "vtable_components" :
   [
    {
     "kind" : "offset_to_top"
    },
    {
     "kind" : "rtti",
     "mangled_component_name" : "_ZTIN4aidl7android8hardware5radio5modem12BpRadioModemE"
    },
    {
     "kind" : "complete_dtor_pointer",
     "mangled_component_name" : "_ZN4aidl7android8hardware5radio5modem12BpRadioModemD1Ev"
    },
    {
     "kind" : "deleting_dtor_pointer",
     "mangled_component_name" : "_ZN4aidl7android8hardware5radio5modem12BpRadioModemD0Ev"
    },
    {
     "mangled_component_name" : "_ZN3ndk12BpCInterfaceIN4aidl7android8hardware5radio5modem11IRadioModemEE8asBinderEv"
    },
    {
     "mangled_component_name" : "_ZN3ndk12BpCInterfaceIN4aidl7android8hardware5radio5modem11IRadioModemEE8isRemoteEv"
    },
    {
     "mangled_component_name" : "_ZN3ndk12BpCInterfaceIN4aidl7android8hardware5radio5modem11IRadioModemEE4dumpEiPPKcj"
    },
    {
     "mangled_component_name" : "_ZN3ndk11ICInterface18handleShellCommandEiiiPPKcj"
    },
    {
     "mangled_component_name" : "_ZN4aidl7android8hardware5radio5modem12BpRadioModem11enableModemEib"
    },
    {
     "mangled_component_name" : "_ZN4aidl7android8hardware5radio5modem12BpRadioModem18getBasebandVersionEi"
    },
    {
     "mangled_component_name" : "_ZN4aidl7android8hardware5radio5modem12BpRadioModem17getDeviceIdentityEi"
    },
    {
     "mangled_component_name" : "_ZN4aidl7android8hardware5radio5modem12BpRadioModem17getHardwareConfigEi"
    },
    {
     "mangled_component_name" : "_ZN4aidl7android8hardware5radio5modem12BpRadioModem20getModemActivityInfoEi"
    },
    {
     "mangled_component_name" : "_ZN4aidl7android8hardware5radio5modem12BpRadioModem19getModemStackStatusEi"
    },
    {
     "mangled_component_name" : "_ZN4aidl7android8hardware5radio5modem12BpRadioModem18getRadioCapabilityEi"
    },
    {
     "mangled_component_name" : "_ZN4aidl7android8hardware5radio5modem12BpRadioModem10nvReadItemEiNS3_6NvItemE"
    },
    {
     "mangled_component_name" : "_ZN4aidl7android8hardware5radio5modem12BpRadioModem13nvResetConfigEiNS3_11ResetNvTypeE"
    },
    {
     "mangled_component_name" : "_ZN4aidl7android8hardware5radio5modem12BpRadioModem14nvWriteCdmaPrlEiRKNSt3__16vectorIhNS5_9allocatorIhEEEE"
    },
    {
     "mangled_component_name" : "_ZN4aidl7android8hardware5radio5modem12BpRadioModem11nvWriteItemEiRKNS3_11NvWriteItemE"
    },
    {
     "mangled_component_name" : "_ZN4aidl7android8hardware5radio5modem12BpRadioModem15requestShutdownEi"
    },
    {
     "mangled_component_name" : "_ZN4aidl7android8hardware5radio5modem12BpRadioModem23responseAcknowledgementEv"
    },
    {
     "mangled_component_name" : "_ZN4aidl7android8hardware5radio5modem12BpRadioModem15sendDeviceStateEiNS3_15DeviceStateTypeEb"
    },
    {
     "mangled_component_name" : "_ZN4aidl7android8hardware5radio5modem12BpRadioModem18setRadioCapabilityEiRKNS3_15RadioCapabilityE"
    },
    {
     "mangled_component_name" : "_ZN4aidl7android8hardware5radio5modem12BpRadioModem13setRadioPowerEibbb"
    },
    {
     "mangled_component_name" : "_ZN4aidl7android8hardware5radio5modem12BpRadioModem20setResponseFunctionsERKNSt3__110shared_ptrINS3_19IRadioModemResponseEEERKNS6_INS3_21IRadioModemIndicationEEE"
    },
    {
     "mangled_component_name" : "_ZN4aidl7android8hardware5radio5modem12BpRadioModem19getInterfaceVersionEPi"
    },
    {
     "mangled_component_name" : "_ZN4aidl7android8hardware5radio5modem12BpRadioModem16getInterfaceHashEPNSt3__112basic_stringIcNS5_11char_traitsIcEENS5_9allocatorIcEEEE"
    }
   ]
  },
  {
   "alignment" : 4,
   "fields" :
   [
    {
     "field_name" : "type",
     "referenced_type" : "_ZTIi"
    },
    {
     "field_name" : "uuid",
     "field_offset" : 32,
     "referenced_type" : "_ZTINSt3__112basic_stringIcNS_11char_traitsIcEENS_9allocatorIcEEEE"
    },
    {
     "field_name" : "state",
     "field_offset" : 128,
     "referenced_type" : "_ZTIi"
    },
    {
     "field_name" : "modem",
     "field_offset" : 160,
     "referenced_type" : "_ZTINSt3__16vectorIN4aidl7android8hardware5radio5modem19HardwareConfigModemENS_9allocatorIS6_EEEE"
    },
    {
     "field_name" : "sim",
     "field_offset" : 256,
     "referenced_type" : "_ZTINSt3__16vectorIN4aidl7android8hardware5radio5modem17HardwareConfigSimENS_9allocatorIS6_EEEE"
    }
   ],
   "linker_set_key" : "_ZTIN4aidl7android8hardware5radio5modem14HardwareConfigE",
   "name" : "aidl::android::hardware::radio::modem::HardwareConfig",
   "record_kind" : "class",
   "referenced_type" : "_ZTIN4aidl7android8hardware5radio5modem14HardwareConfigE",
   "self_type" : "_ZTIN4aidl7android8hardware5radio5modem14HardwareConfigE",
   "size" : 44,
   "source_file" : "out/soong/.intermediates/hardware/interfaces/radio/aidl/android.hardware.radio.modem-V1-ndk-source/gen/include/aidl/android/hardware/radio/modem/HardwareConfig.h"
  },
  {
   "alignment" : 4,
   "fields" :
   [
    {
     "field_name" : "session",
     "referenced_type" : "_ZTIi"
    },
    {
     "field_name" : "phase",
     "field_offset" : 32,
     "referenced_type" : "_ZTIi"
    },
    {
     "field_name" : "raf",
     "field_offset" : 64,
     "referenced_type" : "_ZTIi"
    },
    {
     "field_name" : "logicalModemUuid",
     "field_offset" : 96,
     "referenced_type" : "_ZTINSt3__112basic_stringIcNS_11char_traitsIcEENS_9allocatorIcEEEE"
    },
    {
     "field_name" : "status",
     "field_offset" : 192,
     "referenced_type" : "_ZTIi"
    }
   ],
   "linker_set_key" : "_ZTIN4aidl7android8hardware5radio5modem15RadioCapabilityE",
   "name" : "aidl::android::hardware::radio::modem::RadioCapability",
   "record_kind" : "class",
   "referenced_type" : "_ZTIN4aidl7android8hardware5radio5modem15RadioCapabilityE",
   "self_type" : "_ZTIN4aidl7android8hardware5radio5modem15RadioCapabilityE",
   "size" : 28,
   "source_file" : "out/soong/.intermediates/hardware/interfaces/radio/aidl/android.hardware.radio.modem-V1-ndk-source/gen/include/aidl/android/hardware/radio/modem/RadioCapability.h"
  },
  {
   "alignment" : 4,
   "fields" :
   [
    {
     "field_name" : "sleepModeTimeMs",
     "referenced_type" : "_ZTIi"
    },
    {
     "field_name" : "idleModeTimeMs",
     "field_offset" : 32,
     "referenced_type" : "_ZTIi"
    },
    {
     "field_name" : "techSpecificInfo",
     "field_offset" : 64,
     "referenced_type" : "_ZTINSt3__16vectorIN4aidl7android8hardware5radio5modem29ActivityStatsTechSpecificInfoENS_9allocatorIS6_EEEE"
    }
   ],
   "linker_set_key" : "_ZTIN4aidl7android8hardware5radio5modem17ActivityStatsInfoE",
   "name" : "aidl::android::hardware::radio::modem::ActivityStatsInfo",
   "record_kind" : "class",
   "referenced_type" : "_ZTIN4aidl7android8hardware5radio5modem17ActivityStatsInfoE",
   "self_type" : "_ZTIN4aidl7android8hardware5radio5modem17ActivityStatsInfoE",
   "size" : 20,
   "source_file" : "out/soong/.intermediates/hardware/interfaces/radio/aidl/android.hardware.radio.modem-V1-ndk-source/gen/include/aidl/android/hardware/radio/modem/ActivityStatsInfo.h"
  },
  {
   "alignment" : 4,
   "fields" :
   [
    {
     "field_name" : "modemUuid",
     "referenced_type" : "_ZTINSt3__112basic_stringIcNS_11char_traitsIcEENS_9allocatorIcEEEE"
    }
   ],
   "linker_set_key" : "_ZTIN4aidl7android8hardware5radio5modem17HardwareConfigSimE",
   "name" : "aidl::android::hardware::radio::modem::HardwareConfigSim",
   "record_kind" : "class",
   "referenced_type" : "_ZTIN4aidl7android8hardware5radio5modem17HardwareConfigSimE",
   "self_type" : "_ZTIN4aidl7android8hardware5radio5modem17HardwareConfigSimE",
   "size" : 12,
   "source_file" : "out/soong/.intermediates/hardware/interfaces/radio/aidl/android.hardware.radio.modem-V1-ndk-source/gen/include/aidl/android/hardware/radio/modem/HardwareConfigSim.h"
  },
  {
   "alignment" : 4,
   "base_specifiers" :
   [
    {
     "referenced_type" : "_ZTIN4aidl7android8hardware5radio5modem11IRadioModemE"
    }
   ],
   "linker_set_key" : "_ZTIN4aidl7android8hardware5radio5modem18IRadioModemDefaultE",
   "name" : "aidl::android::hardware::radio::modem::IRadioModemDefault",
   "record_kind" : "class",
   "referenced_type" : "_ZTIN4aidl7android8hardware5radio5modem18IRadioModemDefaultE",
   "self_type" : "_ZTIN4aidl7android8hardware5radio5modem18IRadioModemDefaultE",
   "size" : 16,
   "source_file" : "out/soong/.intermediates/hardware/interfaces/radio/aidl/android.hardware.radio.modem-V1-ndk-source/gen/include/aidl/android/hardware/radio/modem/IRadioModem.h",
   "vtable_components" :
   [
    {
     "kind" : "offset_to_top"
    },
    {
     "kind" : "rtti",
     "mangled_component_name" : "_ZTIN4aidl7android8hardware5radio5modem18IRadioModemDefaultE"
    },
    {
     "kind" : "complete_dtor_pointer",
     "mangled_component_name" : "_ZN4aidl7android8hardware5radio5modem18IRadioModemDefaultD1Ev"
    },
    {
     "kind" : "deleting_dtor_pointer",
     "mangled_component_name" : "_ZN4aidl7android8hardware5radio5modem18IRadioModemDefaultD0Ev"
    },
    {
     "mangled_component_name" : "_ZN4aidl7android8hardware5radio5modem18IRadioModemDefault8asBinderEv"
    },
    {
     "mangled_component_name" : "_ZN4aidl7android8hardware5radio5modem18IRadioModemDefault8isRemoteEv"
    },
    {
     "mangled_component_name" : "_ZN3ndk11ICInterface4dumpEiPPKcj"
    },
    {
     "mangled_component_name" : "_ZN3ndk11ICInterface18handleShellCommandEiiiPPKcj"
    },
    {
     "mangled_component_name" : "_ZN4aidl7android8hardware5radio5modem18IRadioModemDefault11enableModemEib"
    },
    {
     "mangled_component_name" : "_ZN4aidl7android8hardware5radio5modem18IRadioModemDefault18getBasebandVersionEi"
    },
    {
     "mangled_component_name" : "_ZN4aidl7android8hardware5radio5modem18IRadioModemDefault17getDeviceIdentityEi"
    },
    {
     "mangled_component_name" : "_ZN4aidl7android8hardware5radio5modem18IRadioModemDefault17getHardwareConfigEi"
    },
    {
     "mangled_component_name" : "_ZN4aidl7android8hardware5radio5modem18IRadioModemDefault20getModemActivityInfoEi"
    },
    {
     "mangled_component_name" : "_ZN4aidl7android8hardware5radio5modem18IRadioModemDefault19getModemStackStatusEi"
    },
    {
     "mangled_component_name" : "_ZN4aidl7android8hardware5radio5modem18IRadioModemDefault18getRadioCapabilityEi"
    },
    {
     "mangled_component_name" : "_ZN4aidl7android8hardware5radio5modem18IRadioModemDefault10nvReadItemEiNS3_6NvItemE"
    },
    {
     "mangled_component_name" : "_ZN4aidl7android8hardware5radio5modem18IRadioModemDefault13nvResetConfigEiNS3_11ResetNvTypeE"
    },
    {
     "mangled_component_name" : "_ZN4aidl7android8hardware5radio5modem18IRadioModemDefault14nvWriteCdmaPrlEiRKNSt3__16vectorIhNS5_9allocatorIhEEEE"
    },
    {
     "mangled_component_name" : "_ZN4aidl7android8hardware5radio5modem18IRadioModemDefault11nvWriteItemEiRKNS3_11NvWriteItemE"
    },
    {
     "mangled_component_name" : "_ZN4aidl7android8hardware5radio5modem18IRadioModemDefault15requestShutdownEi"
    },
    {
     "mangled_component_name" : "_ZN4aidl7android8hardware5radio5modem18IRadioModemDefault23responseAcknowledgementEv"
    },
    {
     "mangled_component_name" : "_ZN4aidl7android8hardware5radio5modem18IRadioModemDefault15sendDeviceStateEiNS3_15DeviceStateTypeEb"
    },
    {
     "mangled_component_name" : "_ZN4aidl7android8hardware5radio5modem18IRadioModemDefault18setRadioCapabilityEiRKNS3_15RadioCapabilityE"
    },
    {
     "mangled_component_name" : "_ZN4aidl7android8hardware5radio5modem18IRadioModemDefault13setRadioPowerEibbb"
    },
    {
     "mangled_component_name" : "_ZN4aidl7android8hardware5radio5modem18IRadioModemDefault20setResponseFunctionsERKNSt3__110shared_ptrINS3_19IRadioModemResponseEEERKNS6_INS3_21IRadioModemIndicationEEE"
    },
    {
     "mangled_component_name" : "_ZN4aidl7android8hardware5radio5modem18IRadioModemDefault19getInterfaceVersionEPi"
    },
    {
     "mangled_component_name" : "_ZN4aidl7android8hardware5radio5modem18IRadioModemDefault16getInterfaceHashEPNSt3__112basic_stringIcNS5_11char_traitsIcEENS5_9allocatorIcEEEE"
    }
   ]
  },
  {
   "alignment" : 4,
   "fields" :
   [
    {
     "field_name" : "rilModel",
     "referenced_type" : "_ZTIi"
    },
    {
     "field_name" : "rat",
     "field_offset" : 32,
     "referenced_type" : "_ZTIN4aidl7android8hardware5radio15RadioTechnologyE"
    },
    {
     "field_name" : "maxVoiceCalls",
     "field_offset" : 64,
     "referenced_type" : "_ZTIi"
    },
    {
     "field_name" : "maxDataCalls",
     "field_offset" : 96,
     "referenced_type" : "_ZTIi"
    },
    {
     "field_name" : "maxStandby",
     "field_offset" : 128,
     "referenced_type" : "_ZTIi"
    }
   ],
   "linker_set_key" : "_ZTIN4aidl7android8hardware5radio5modem19HardwareConfigModemE",
   "name" : "aidl::android::hardware::radio::modem::HardwareConfigModem",
   "record_kind" : "class",
   "referenced_type" : "_ZTIN4aidl7android8hardware5radio5modem19HardwareConfigModemE",
   "self_type" : "_ZTIN4aidl7android8hardware5radio5modem19HardwareConfigModemE",
   "size" : 20,
   "source_file" : "out/soong/.intermediates/hardware/interfaces/radio/aidl/android.hardware.radio.modem-V1-ndk-source/gen/include/aidl/android/hardware/radio/modem/HardwareConfigModem.h"
  },
  {
   "alignment" : 4,
   "base_specifiers" :
   [
    {
     "referenced_type" : "_ZTIN3ndk11ICInterfaceE"
    }
   ],
   "linker_set_key" : "_ZTIN4aidl7android8hardware5radio5modem19IRadioModemResponseE",
   "name" : "aidl::android::hardware::radio::modem::IRadioModemResponse",
   "record_kind" : "class",
   "referenced_type" : "_ZTIN4aidl7android8hardware5radio5modem19IRadioModemResponseE",
   "self_type" : "_ZTIN4aidl7android8hardware5radio5modem19IRadioModemResponseE",
   "size" : 16,
   "source_file" : "out/soong/.intermediates/hardware/interfaces/radio/aidl/android.hardware.radio.modem-V1-ndk-source/gen/include/aidl/android/hardware/radio/modem/IRadioModemResponse.h",
   "vtable_components" :
   [
    {
     "kind" : "offset_to_top"
    },
    {
     "kind" : "rtti",
     "mangled_component_name" : "_ZTIN4aidl7android8hardware5radio5modem19IRadioModemResponseE"
    },
    {
     "kind" : "complete_dtor_pointer",
     "mangled_component_name" : "_ZN4aidl7android8hardware5radio5modem19IRadioModemResponseD1Ev"
    },
    {
     "kind" : "deleting_dtor_pointer",
     "mangled_component_name" : "_ZN4aidl7android8hardware5radio5modem19IRadioModemResponseD0Ev"
    },
    {
     "is_pure" : true,
     "mangled_component_name" : "_ZN3ndk11ICInterface8asBinderEv"
    },
    {
     "is_pure" : true,
     "mangled_component_name" : "_ZN3ndk11ICInterface8isRemoteEv"
    },
    {
     "mangled_component_name" : "_ZN3ndk11ICInterface4dumpEiPPKcj"
    },
    {
     "mangled_component_name" : "_ZN3ndk11ICInterface18handleShellCommandEiiiPPKcj"
    },
    {
     "is_pure" : true,
     "mangled_component_name" : "_ZN4aidl7android8hardware5radio5modem19IRadioModemResponse18acknowledgeRequestEi"
    },
    {
     "is_pure" : true,
     "mangled_component_name" : "_ZN4aidl7android8hardware5radio5modem19IRadioModemResponse19enableModemResponseERKNS2_17RadioResponseInfoE"
    },
    {
     "is_pure" : true,
     "mangled_component_name" : "_ZN4aidl7android8hardware5radio5modem19IRadioModemResponse26getBasebandVersionResponseERKNS2_17RadioResponseInfoERKNSt3__112basic_stringIcNS8_11char_traitsIcEENS8_9allocatorIcEEEE"
    },
    {
     "is_pure" : true,
     "mangled_component_name" : "_ZN4aidl7android8hardware5radio5modem19IRadioModemResponse25getDeviceIdentityResponseERKNS2_17RadioResponseInfoERKNSt3__112basic_stringIcNS8_11char_traitsIcEENS8_9allocatorIcEEEESG_SG_SG_"
    },
    {
     "is_pure" : true,
     "mangled_component_name" : "_ZN4aidl7android8hardware5radio5modem19IRadioModemResponse25getHardwareConfigResponseERKNS2_17RadioResponseInfoERKNSt3__16vectorINS3_14HardwareConfigENS8_9allocatorISA_EEEE"
    },
    {
     "is_pure" : true,
     "mangled_component_name" : "_ZN4aidl7android8hardware5radio5modem19IRadioModemResponse28getModemActivityInfoResponseERKNS2_17RadioResponseInfoERKNS3_17ActivityStatsInfoE"
    },
    {
     "is_pure" : true,
     "mangled_component_name" : "_ZN4aidl7android8hardware5radio5modem19IRadioModemResponse27getModemStackStatusResponseERKNS2_17RadioResponseInfoEb"
    },
    {
     "is_pure" : true,
     "mangled_component_name" : "_ZN4aidl7android8hardware5radio5modem19IRadioModemResponse26getRadioCapabilityResponseERKNS2_17RadioResponseInfoERKNS3_15RadioCapabilityE"
    },
    {
     "is_pure" : true,
     "mangled_component_name" : "_ZN4aidl7android8hardware5radio5modem19IRadioModemResponse18nvReadItemResponseERKNS2_17RadioResponseInfoERKNSt3__112basic_stringIcNS8_11char_traitsIcEENS8_9allocatorIcEEEE"
    },
    {
     "is_pure" : true,
     "mangled_component_name" : "_ZN4aidl7android8hardware5radio5modem19IRadioModemResponse21nvResetConfigResponseERKNS2_17RadioResponseInfoE"
    },
    {
     "is_pure" : true,
     "mangled_component_name" : "_ZN4aidl7android8hardware5radio5modem19IRadioModemResponse22nvWriteCdmaPrlResponseERKNS2_17RadioResponseInfoE"
    },
    {
     "is_pure" : true,
     "mangled_component_name" : "_ZN4aidl7android8hardware5radio5modem19IRadioModemResponse19nvWriteItemResponseERKNS2_17RadioResponseInfoE"
    },
    {
     "is_pure" : true,
     "mangled_component_name" : "_ZN4aidl7android8hardware5radio5modem19IRadioModemResponse23requestShutdownResponseERKNS2_17RadioResponseInfoE"
    },
    {
     "is_pure" : true,
     "mangled_component_name" : "_ZN4aidl7android8hardware5radio5modem19IRadioModemResponse23sendDeviceStateResponseERKNS2_17RadioResponseInfoE"
    },
    {
     "is_pure" : true,
     "mangled_component_name" : "_ZN4aidl7android8hardware5radio5modem19IRadioModemResponse26setRadioCapabilityResponseERKNS2_17RadioResponseInfoERKNS3_15RadioCapabilityE"
    },
    {
     "is_pure" : true,
     "mangled_component_name" : "_ZN4aidl7android8hardware5radio5modem19IRadioModemResponse21setRadioPowerResponseERKNS2_17RadioResponseInfoE"
    },
    {
     "is_pure" : true,
     "mangled_component_name" : "_ZN4aidl7android8hardware5radio5modem19IRadioModemResponse19getInterfaceVersionEPi"
    },
    {
     "is_pure" : true,
     "mangled_component_name" : "_ZN4aidl7android8hardware5radio5modem19IRadioModemResponse16getInterfaceHashEPNSt3__112basic_stringIcNS5_11char_traitsIcEENS5_9allocatorIcEEEE"
    }
   ]
  },
  {
   "alignment" : 4,
   "base_specifiers" :
   [
    {
     "referenced_type" : "_ZTIN3ndk12BnCInterfaceIN4aidl7android8hardware5radio5modem19IRadioModemResponseEEE"
    }
   ],
   "linker_set_key" : "_ZTIN4aidl7android8hardware5radio5modem20BnRadioModemResponseE",
   "name" : "aidl::android::hardware::radio::modem::BnRadioModemResponse",
   "record_kind" : "class",
   "referenced_type" : "_ZTIN4aidl7android8hardware5radio5modem20BnRadioModemResponseE",
   "self_type" : "_ZTIN4aidl7android8hardware5radio5modem20BnRadioModemResponseE",
   "size" : 24,
   "source_file" : "out/soong/.intermediates/hardware/interfaces/radio/aidl/android.hardware.radio.modem-V1-ndk-source/gen/include/aidl/android/hardware/radio/modem/BnRadioModemResponse.h",
   "vtable_components" :
   [
    {
     "kind" : "offset_to_top"
    },
    {
     "kind" : "rtti",
     "mangled_component_name" : "_ZTIN4aidl7android8hardware5radio5modem20BnRadioModemResponseE"
    },
    {
     "kind" : "complete_dtor_pointer",
     "mangled_component_name" : "_ZN4aidl7android8hardware5radio5modem20BnRadioModemResponseD1Ev"
    },
    {
     "kind" : "deleting_dtor_pointer",
     "mangled_component_name" : "_ZN4aidl7android8hardware5radio5modem20BnRadioModemResponseD0Ev"
    },
    {
     "mangled_component_name" : "_ZN3ndk12BnCInterfaceIN4aidl7android8hardware5radio5modem19IRadioModemResponseEE8asBinderEv"
    },
    {
     "mangled_component_name" : "_ZN3ndk12BnCInterfaceIN4aidl7android8hardware5radio5modem19IRadioModemResponseEE8isRemoteEv"
    },
    {
     "mangled_component_name" : "_ZN3ndk11ICInterface4dumpEiPPKcj"
    },
    {
     "mangled_component_name" : "_ZN3ndk11ICInterface18handleShellCommandEiiiPPKcj"
    },
    {
     "is_pure" : true,
     "mangled_component_name" : "_ZN4aidl7android8hardware5radio5modem19IRadioModemResponse18acknowledgeRequestEi"
    },
    {
     "is_pure" : true,
     "mangled_component_name" : "_ZN4aidl7android8hardware5radio5modem19IRadioModemResponse19enableModemResponseERKNS2_17RadioResponseInfoE"
    },
    {
     "is_pure" : true,
     "mangled_component_name" : "_ZN4aidl7android8hardware5radio5modem19IRadioModemResponse26getBasebandVersionResponseERKNS2_17RadioResponseInfoERKNSt3__112basic_stringIcNS8_11char_traitsIcEENS8_9allocatorIcEEEE"
    },
    {
     "is_pure" : true,
     "mangled_component_name" : "_ZN4aidl7android8hardware5radio5modem19IRadioModemResponse25getDeviceIdentityResponseERKNS2_17RadioResponseInfoERKNSt3__112basic_stringIcNS8_11char_traitsIcEENS8_9allocatorIcEEEESG_SG_SG_"
    },
    {
     "is_pure" : true,
     "mangled_component_name" : "_ZN4aidl7android8hardware5radio5modem19IRadioModemResponse25getHardwareConfigResponseERKNS2_17RadioResponseInfoERKNSt3__16vectorINS3_14HardwareConfigENS8_9allocatorISA_EEEE"
    },
    {
     "is_pure" : true,
     "mangled_component_name" : "_ZN4aidl7android8hardware5radio5modem19IRadioModemResponse28getModemActivityInfoResponseERKNS2_17RadioResponseInfoERKNS3_17ActivityStatsInfoE"
    },
    {
     "is_pure" : true,
     "mangled_component_name" : "_ZN4aidl7android8hardware5radio5modem19IRadioModemResponse27getModemStackStatusResponseERKNS2_17RadioResponseInfoEb"
    },
    {
     "is_pure" : true,
     "mangled_component_name" : "_ZN4aidl7android8hardware5radio5modem19IRadioModemResponse26getRadioCapabilityResponseERKNS2_17RadioResponseInfoERKNS3_15RadioCapabilityE"
    },
    {
     "is_pure" : true,
     "mangled_component_name" : "_ZN4aidl7android8hardware5radio5modem19IRadioModemResponse18nvReadItemResponseERKNS2_17RadioResponseInfoERKNSt3__112basic_stringIcNS8_11char_traitsIcEENS8_9allocatorIcEEEE"
    },
    {
     "is_pure" : true,
     "mangled_component_name" : "_ZN4aidl7android8hardware5radio5modem19IRadioModemResponse21nvResetConfigResponseERKNS2_17RadioResponseInfoE"
    },
    {
     "is_pure" : true,
     "mangled_component_name" : "_ZN4aidl7android8hardware5radio5modem19IRadioModemResponse22nvWriteCdmaPrlResponseERKNS2_17RadioResponseInfoE"
    },
    {
     "is_pure" : true,
     "mangled_component_name" : "_ZN4aidl7android8hardware5radio5modem19IRadioModemResponse19nvWriteItemResponseERKNS2_17RadioResponseInfoE"
    },
    {
     "is_pure" : true,
     "mangled_component_name" : "_ZN4aidl7android8hardware5radio5modem19IRadioModemResponse23requestShutdownResponseERKNS2_17RadioResponseInfoE"
    },
    {
     "is_pure" : true,
     "mangled_component_name" : "_ZN4aidl7android8hardware5radio5modem19IRadioModemResponse23sendDeviceStateResponseERKNS2_17RadioResponseInfoE"
    },
    {
     "is_pure" : true,
     "mangled_component_name" : "_ZN4aidl7android8hardware5radio5modem19IRadioModemResponse26setRadioCapabilityResponseERKNS2_17RadioResponseInfoERKNS3_15RadioCapabilityE"
    },
    {
     "is_pure" : true,
     "mangled_component_name" : "_ZN4aidl7android8hardware5radio5modem19IRadioModemResponse21setRadioPowerResponseERKNS2_17RadioResponseInfoE"
    },
    {
     "mangled_component_name" : "_ZN4aidl7android8hardware5radio5modem20BnRadioModemResponse19getInterfaceVersionEPi"
    },
    {
     "mangled_component_name" : "_ZN4aidl7android8hardware5radio5modem20BnRadioModemResponse16getInterfaceHashEPNSt3__112basic_stringIcNS5_11char_traitsIcEENS5_9allocatorIcEEEE"
    },
    {
     "mangled_component_name" : "_ZN4aidl7android8hardware5radio5modem20BnRadioModemResponse12createBinderEv"
    }
   ]
  },
  {
   "alignment" : 4,
   "base_specifiers" :
   [
    {
     "referenced_type" : "_ZTIN3ndk12BpCInterfaceIN4aidl7android8hardware5radio5modem19IRadioModemResponseEEE"
    }
   ],
   "fields" :
   [
    {
     "field_name" : "_aidl_cached_version",
     "field_offset" : 160,
     "referenced_type" : "_ZTIi"
    },
    {
     "field_name" : "_aidl_cached_hash",
     "field_offset" : 192,
     "referenced_type" : "_ZTINSt3__112basic_stringIcNS_11char_traitsIcEENS_9allocatorIcEEEE"
    },
    {
     "field_name" : "_aidl_cached_hash_mutex",
     "field_offset" : 288,
     "referenced_type" : "_ZTINSt3__15mutexE"
    }
   ],
   "linker_set_key" : "_ZTIN4aidl7android8hardware5radio5modem20BpRadioModemResponseE",
   "name" : "aidl::android::hardware::radio::modem::BpRadioModemResponse",
   "record_kind" : "class",
   "referenced_type" : "_ZTIN4aidl7android8hardware5radio5modem20BpRadioModemResponseE",
   "self_type" : "_ZTIN4aidl7android8hardware5radio5modem20BpRadioModemResponseE",
   "size" : 40,
   "source_file" : "out/soong/.intermediates/hardware/interfaces/radio/aidl/android.hardware.radio.modem-V1-ndk-source/gen/include/aidl/android/hardware/radio/modem/BpRadioModemResponse.h",
   "vtable_components" :
   [
    {
     "kind" : "offset_to_top"
    },
    {
     "kind" : "rtti",
     "mangled_component_name" : "_ZTIN4aidl7android8hardware5radio5modem20BpRadioModemResponseE"
    },
    {
     "kind" : "complete_dtor_pointer",
     "mangled_component_name" : "_ZN4aidl7android8hardware5radio5modem20BpRadioModemResponseD1Ev"
    },
    {
     "kind" : "deleting_dtor_pointer",
     "mangled_component_name" : "_ZN4aidl7android8hardware5radio5modem20BpRadioModemResponseD0Ev"
    },
    {
     "mangled_component_name" : "_ZN3ndk12BpCInterfaceIN4aidl7android8hardware5radio5modem19IRadioModemResponseEE8asBinderEv"
    },
    {
     "mangled_component_name" : "_ZN3ndk12BpCInterfaceIN4aidl7android8hardware5radio5modem19IRadioModemResponseEE8isRemoteEv"
    },
    {
     "mangled_component_name" : "_ZN3ndk12BpCInterfaceIN4aidl7android8hardware5radio5modem19IRadioModemResponseEE4dumpEiPPKcj"
    },
    {
     "mangled_component_name" : "_ZN3ndk11ICInterface18handleShellCommandEiiiPPKcj"
    },
    {
     "mangled_component_name" : "_ZN4aidl7android8hardware5radio5modem20BpRadioModemResponse18acknowledgeRequestEi"
    },
    {
     "mangled_component_name" : "_ZN4aidl7android8hardware5radio5modem20BpRadioModemResponse19enableModemResponseERKNS2_17RadioResponseInfoE"
    },
    {
     "mangled_component_name" : "_ZN4aidl7android8hardware5radio5modem20BpRadioModemResponse26getBasebandVersionResponseERKNS2_17RadioResponseInfoERKNSt3__112basic_stringIcNS8_11char_traitsIcEENS8_9allocatorIcEEEE"
    },
    {
     "mangled_component_name" : "_ZN4aidl7android8hardware5radio5modem20BpRadioModemResponse25getDeviceIdentityResponseERKNS2_17RadioResponseInfoERKNSt3__112basic_stringIcNS8_11char_traitsIcEENS8_9allocatorIcEEEESG_SG_SG_"
    },
    {
     "mangled_component_name" : "_ZN4aidl7android8hardware5radio5modem20BpRadioModemResponse25getHardwareConfigResponseERKNS2_17RadioResponseInfoERKNSt3__16vectorINS3_14HardwareConfigENS8_9allocatorISA_EEEE"
    },
    {
     "mangled_component_name" : "_ZN4aidl7android8hardware5radio5modem20BpRadioModemResponse28getModemActivityInfoResponseERKNS2_17RadioResponseInfoERKNS3_17ActivityStatsInfoE"
    },
    {
     "mangled_component_name" : "_ZN4aidl7android8hardware5radio5modem20BpRadioModemResponse27getModemStackStatusResponseERKNS2_17RadioResponseInfoEb"
    },
    {
     "mangled_component_name" : "_ZN4aidl7android8hardware5radio5modem20BpRadioModemResponse26getRadioCapabilityResponseERKNS2_17RadioResponseInfoERKNS3_15RadioCapabilityE"
    },
    {
     "mangled_component_name" : "_ZN4aidl7android8hardware5radio5modem20BpRadioModemResponse18nvReadItemResponseERKNS2_17RadioResponseInfoERKNSt3__112basic_stringIcNS8_11char_traitsIcEENS8_9allocatorIcEEEE"
    },
    {
     "mangled_component_name" : "_ZN4aidl7android8hardware5radio5modem20BpRadioModemResponse21nvResetConfigResponseERKNS2_17RadioResponseInfoE"
    },
    {
     "mangled_component_name" : "_ZN4aidl7android8hardware5radio5modem20BpRadioModemResponse22nvWriteCdmaPrlResponseERKNS2_17RadioResponseInfoE"
    },
    {
     "mangled_component_name" : "_ZN4aidl7android8hardware5radio5modem20BpRadioModemResponse19nvWriteItemResponseERKNS2_17RadioResponseInfoE"
    },
    {
     "mangled_component_name" : "_ZN4aidl7android8hardware5radio5modem20BpRadioModemResponse23requestShutdownResponseERKNS2_17RadioResponseInfoE"
    },
    {
     "mangled_component_name" : "_ZN4aidl7android8hardware5radio5modem20BpRadioModemResponse23sendDeviceStateResponseERKNS2_17RadioResponseInfoE"
    },
    {
     "mangled_component_name" : "_ZN4aidl7android8hardware5radio5modem20BpRadioModemResponse26setRadioCapabilityResponseERKNS2_17RadioResponseInfoERKNS3_15RadioCapabilityE"
    },
    {
     "mangled_component_name" : "_ZN4aidl7android8hardware5radio5modem20BpRadioModemResponse21setRadioPowerResponseERKNS2_17RadioResponseInfoE"
    },
    {
     "mangled_component_name" : "_ZN4aidl7android8hardware5radio5modem20BpRadioModemResponse19getInterfaceVersionEPi"
    },
    {
     "mangled_component_name" : "_ZN4aidl7android8hardware5radio5modem20BpRadioModemResponse16getInterfaceHashEPNSt3__112basic_stringIcNS5_11char_traitsIcEENS5_9allocatorIcEEEE"
    }
   ]
  },
  {
   "alignment" : 4,
   "base_specifiers" :
   [
    {
     "referenced_type" : "_ZTIN4aidl7android8hardware5radio5modem12BnRadioModemE"
    }
   ],
   "fields" :
   [
    {
     "access" : "private",
     "field_name" : "_impl",
     "field_offset" : 192,
     "referenced_type" : "_ZTINSt3__110shared_ptrIN4aidl7android8hardware5radio5modem11IRadioModemEEE"
    }
   ],
   "linker_set_key" : "_ZTIN4aidl7android8hardware5radio5modem20IRadioModemDelegatorE",
   "name" : "aidl::android::hardware::radio::modem::IRadioModemDelegator",
   "record_kind" : "class",
   "referenced_type" : "_ZTIN4aidl7android8hardware5radio5modem20IRadioModemDelegatorE",
   "self_type" : "_ZTIN4aidl7android8hardware5radio5modem20IRadioModemDelegatorE",
   "size" : 32,
   "source_file" : "out/soong/.intermediates/hardware/interfaces/radio/aidl/android.hardware.radio.modem-V1-ndk-source/gen/include/aidl/android/hardware/radio/modem/BnRadioModem.h",
   "vtable_components" :
   [
    {
     "kind" : "offset_to_top"
    },
    {
     "kind" : "rtti",
     "mangled_component_name" : "_ZTIN4aidl7android8hardware5radio5modem20IRadioModemDelegatorE"
    },
    {
     "kind" : "complete_dtor_pointer",
     "mangled_component_name" : "_ZN4aidl7android8hardware5radio5modem20IRadioModemDelegatorD1Ev"
    },
    {
     "kind" : "deleting_dtor_pointer",
     "mangled_component_name" : "_ZN4aidl7android8hardware5radio5modem20IRadioModemDelegatorD0Ev"
    },
    {
     "mangled_component_name" : "_ZN3ndk12BnCInterfaceIN4aidl7android8hardware5radio5modem11IRadioModemEE8asBinderEv"
    },
    {
     "mangled_component_name" : "_ZN3ndk12BnCInterfaceIN4aidl7android8hardware5radio5modem11IRadioModemEE8isRemoteEv"
    },
    {
     "mangled_component_name" : "_ZN3ndk11ICInterface4dumpEiPPKcj"
    },
    {
     "mangled_component_name" : "_ZN3ndk11ICInterface18handleShellCommandEiiiPPKcj"
    },
    {
     "mangled_component_name" : "_ZN4aidl7android8hardware5radio5modem20IRadioModemDelegator11enableModemEib"
    },
    {
     "mangled_component_name" : "_ZN4aidl7android8hardware5radio5modem20IRadioModemDelegator18getBasebandVersionEi"
    },
    {
     "mangled_component_name" : "_ZN4aidl7android8hardware5radio5modem20IRadioModemDelegator17getDeviceIdentityEi"
    },
    {
     "mangled_component_name" : "_ZN4aidl7android8hardware5radio5modem20IRadioModemDelegator17getHardwareConfigEi"
    },
    {
     "mangled_component_name" : "_ZN4aidl7android8hardware5radio5modem20IRadioModemDelegator20getModemActivityInfoEi"
    },
    {
     "mangled_component_name" : "_ZN4aidl7android8hardware5radio5modem20IRadioModemDelegator19getModemStackStatusEi"
    },
    {
     "mangled_component_name" : "_ZN4aidl7android8hardware5radio5modem20IRadioModemDelegator18getRadioCapabilityEi"
    },
    {
     "mangled_component_name" : "_ZN4aidl7android8hardware5radio5modem20IRadioModemDelegator10nvReadItemEiNS3_6NvItemE"
    },
    {
     "mangled_component_name" : "_ZN4aidl7android8hardware5radio5modem20IRadioModemDelegator13nvResetConfigEiNS3_11ResetNvTypeE"
    },
    {
     "mangled_component_name" : "_ZN4aidl7android8hardware5radio5modem20IRadioModemDelegator14nvWriteCdmaPrlEiRKNSt3__16vectorIhNS5_9allocatorIhEEEE"
    },
    {
     "mangled_component_name" : "_ZN4aidl7android8hardware5radio5modem20IRadioModemDelegator11nvWriteItemEiRKNS3_11NvWriteItemE"
    },
    {
     "mangled_component_name" : "_ZN4aidl7android8hardware5radio5modem20IRadioModemDelegator15requestShutdownEi"
    },
    {
     "mangled_component_name" : "_ZN4aidl7android8hardware5radio5modem20IRadioModemDelegator23responseAcknowledgementEv"
    },
    {
     "mangled_component_name" : "_ZN4aidl7android8hardware5radio5modem20IRadioModemDelegator15sendDeviceStateEiNS3_15DeviceStateTypeEb"
    },
    {
     "mangled_component_name" : "_ZN4aidl7android8hardware5radio5modem20IRadioModemDelegator18setRadioCapabilityEiRKNS3_15RadioCapabilityE"
    },
    {
     "mangled_component_name" : "_ZN4aidl7android8hardware5radio5modem20IRadioModemDelegator13setRadioPowerEibbb"
    },
    {
     "mangled_component_name" : "_ZN4aidl7android8hardware5radio5modem20IRadioModemDelegator20setResponseFunctionsERKNSt3__110shared_ptrINS3_19IRadioModemResponseEEERKNS6_INS3_21IRadioModemIndicationEEE"
    },
    {
     "mangled_component_name" : "_ZN4aidl7android8hardware5radio5modem12BnRadioModem19getInterfaceVersionEPi"
    },
    {
     "mangled_component_name" : "_ZN4aidl7android8hardware5radio5modem12BnRadioModem16getInterfaceHashEPNSt3__112basic_stringIcNS5_11char_traitsIcEENS5_9allocatorIcEEEE"
    },
    {
     "mangled_component_name" : "_ZN4aidl7android8hardware5radio5modem12BnRadioModem12createBinderEv"
    }
   ]
  },
  {
   "alignment" : 4,
   "base_specifiers" :
   [
    {
     "referenced_type" : "_ZTIN3ndk11ICInterfaceE"
    }
   ],
   "linker_set_key" : "_ZTIN4aidl7android8hardware5radio5modem21IRadioModemIndicationE",
   "name" : "aidl::android::hardware::radio::modem::IRadioModemIndication",
   "record_kind" : "class",
   "referenced_type" : "_ZTIN4aidl7android8hardware5radio5modem21IRadioModemIndicationE",
   "self_type" : "_ZTIN4aidl7android8hardware5radio5modem21IRadioModemIndicationE",
   "size" : 16,
   "source_file" : "out/soong/.intermediates/hardware/interfaces/radio/aidl/android.hardware.radio.modem-V1-ndk-source/gen/include/aidl/android/hardware/radio/modem/IRadioModemIndication.h",
   "vtable_components" :
   [
    {
     "kind" : "offset_to_top"
    },
    {
     "kind" : "rtti",
     "mangled_component_name" : "_ZTIN4aidl7android8hardware5radio5modem21IRadioModemIndicationE"
    },
    {
     "kind" : "complete_dtor_pointer",
     "mangled_component_name" : "_ZN4aidl7android8hardware5radio5modem21IRadioModemIndicationD1Ev"
    },
    {
     "kind" : "deleting_dtor_pointer",
     "mangled_component_name" : "_ZN4aidl7android8hardware5radio5modem21IRadioModemIndicationD0Ev"
    },
    {
     "is_pure" : true,
     "mangled_component_name" : "_ZN3ndk11ICInterface8asBinderEv"
    },
    {
     "is_pure" : true,
     "mangled_component_name" : "_ZN3ndk11ICInterface8isRemoteEv"
    },
    {
     "mangled_component_name" : "_ZN3ndk11ICInterface4dumpEiPPKcj"
    },
    {
     "mangled_component_name" : "_ZN3ndk11ICInterface18handleShellCommandEiiiPPKcj"
    },
    {
     "is_pure" : true,
     "mangled_component_name" : "_ZN4aidl7android8hardware5radio5modem21IRadioModemIndication21hardwareConfigChangedENS2_19RadioIndicationTypeERKNSt3__16vectorINS3_14HardwareConfigENS6_9allocatorIS8_EEEE"
    },
    {
     "is_pure" : true,
     "mangled_component_name" : "_ZN4aidl7android8hardware5radio5modem21IRadioModemIndication10modemResetENS2_19RadioIndicationTypeERKNSt3__112basic_stringIcNS6_11char_traitsIcEENS6_9allocatorIcEEEE"
    },
    {
     "is_pure" : true,
     "mangled_component_name" : "_ZN4aidl7android8hardware5radio5modem21IRadioModemIndication25radioCapabilityIndicationENS2_19RadioIndicationTypeERKNS3_15RadioCapabilityE"
    },
    {
     "is_pure" : true,
     "mangled_component_name" : "_ZN4aidl7android8hardware5radio5modem21IRadioModemIndication17radioStateChangedENS2_19RadioIndicationTypeENS3_10RadioStateE"
    },
    {
     "is_pure" : true,
     "mangled_component_name" : "_ZN4aidl7android8hardware5radio5modem21IRadioModemIndication12rilConnectedENS2_19RadioIndicationTypeE"
    },
    {
     "is_pure" : true,
     "mangled_component_name" : "_ZN4aidl7android8hardware5radio5modem21IRadioModemIndication19getInterfaceVersionEPi"
    },
    {
     "is_pure" : true,
     "mangled_component_name" : "_ZN4aidl7android8hardware5radio5modem21IRadioModemIndication16getInterfaceHashEPNSt3__112basic_stringIcNS5_11char_traitsIcEENS5_9allocatorIcEEEE"
    }
   ]
  },
  {
   "alignment" : 4,
   "base_specifiers" :
   [
    {
     "referenced_type" : "_ZTIN3ndk12BnCInterfaceIN4aidl7android8hardware5radio5modem21IRadioModemIndicationEEE"
    }
   ],
   "linker_set_key" : "_ZTIN4aidl7android8hardware5radio5modem22BnRadioModemIndicationE",
   "name" : "aidl::android::hardware::radio::modem::BnRadioModemIndication",
   "record_kind" : "class",
   "referenced_type" : "_ZTIN4aidl7android8hardware5radio5modem22BnRadioModemIndicationE",
   "self_type" : "_ZTIN4aidl7android8hardware5radio5modem22BnRadioModemIndicationE",
   "size" : 24,
   "source_file" : "out/soong/.intermediates/hardware/interfaces/radio/aidl/android.hardware.radio.modem-V1-ndk-source/gen/include/aidl/android/hardware/radio/modem/BnRadioModemIndication.h",
   "vtable_components" :
   [
    {
     "kind" : "offset_to_top"
    },
    {
     "kind" : "rtti",
     "mangled_component_name" : "_ZTIN4aidl7android8hardware5radio5modem22BnRadioModemIndicationE"
    },
    {
     "kind" : "complete_dtor_pointer",
     "mangled_component_name" : "_ZN4aidl7android8hardware5radio5modem22BnRadioModemIndicationD1Ev"
    },
    {
     "kind" : "deleting_dtor_pointer",
     "mangled_component_name" : "_ZN4aidl7android8hardware5radio5modem22BnRadioModemIndicationD0Ev"
    },
    {
     "mangled_component_name" : "_ZN3ndk12BnCInterfaceIN4aidl7android8hardware5radio5modem21IRadioModemIndicationEE8asBinderEv"
    },
    {
     "mangled_component_name" : "_ZN3ndk12BnCInterfaceIN4aidl7android8hardware5radio5modem21IRadioModemIndicationEE8isRemoteEv"
    },
    {
     "mangled_component_name" : "_ZN3ndk11ICInterface4dumpEiPPKcj"
    },
    {
     "mangled_component_name" : "_ZN3ndk11ICInterface18handleShellCommandEiiiPPKcj"
    },
    {
     "is_pure" : true,
     "mangled_component_name" : "_ZN4aidl7android8hardware5radio5modem21IRadioModemIndication21hardwareConfigChangedENS2_19RadioIndicationTypeERKNSt3__16vectorINS3_14HardwareConfigENS6_9allocatorIS8_EEEE"
    },
    {
     "is_pure" : true,
     "mangled_component_name" : "_ZN4aidl7android8hardware5radio5modem21IRadioModemIndication10modemResetENS2_19RadioIndicationTypeERKNSt3__112basic_stringIcNS6_11char_traitsIcEENS6_9allocatorIcEEEE"
    },
    {
     "is_pure" : true,
     "mangled_component_name" : "_ZN4aidl7android8hardware5radio5modem21IRadioModemIndication25radioCapabilityIndicationENS2_19RadioIndicationTypeERKNS3_15RadioCapabilityE"
    },
    {
     "is_pure" : true,
     "mangled_component_name" : "_ZN4aidl7android8hardware5radio5modem21IRadioModemIndication17radioStateChangedENS2_19RadioIndicationTypeENS3_10RadioStateE"
    },
    {
     "is_pure" : true,
     "mangled_component_name" : "_ZN4aidl7android8hardware5radio5modem21IRadioModemIndication12rilConnectedENS2_19RadioIndicationTypeE"
    },
    {
     "mangled_component_name" : "_ZN4aidl7android8hardware5radio5modem22BnRadioModemIndication19getInterfaceVersionEPi"
    },
    {
     "mangled_component_name" : "_ZN4aidl7android8hardware5radio5modem22BnRadioModemIndication16getInterfaceHashEPNSt3__112basic_stringIcNS5_11char_traitsIcEENS5_9allocatorIcEEEE"
    },
    {
     "mangled_component_name" : "_ZN4aidl7android8hardware5radio5modem22BnRadioModemIndication12createBinderEv"
    }
   ]
  },
  {
   "alignment" : 4,
   "base_specifiers" :
   [
    {
     "referenced_type" : "_ZTIN3ndk12BpCInterfaceIN4aidl7android8hardware5radio5modem21IRadioModemIndicationEEE"
    }
   ],
   "fields" :
   [
    {
     "field_name" : "_aidl_cached_version",
     "field_offset" : 160,
     "referenced_type" : "_ZTIi"
    },
    {
     "field_name" : "_aidl_cached_hash",
     "field_offset" : 192,
     "referenced_type" : "_ZTINSt3__112basic_stringIcNS_11char_traitsIcEENS_9allocatorIcEEEE"
    },
    {
     "field_name" : "_aidl_cached_hash_mutex",
     "field_offset" : 288,
     "referenced_type" : "_ZTINSt3__15mutexE"
    }
   ],
   "linker_set_key" : "_ZTIN4aidl7android8hardware5radio5modem22BpRadioModemIndicationE",
   "name" : "aidl::android::hardware::radio::modem::BpRadioModemIndication",
   "record_kind" : "class",
   "referenced_type" : "_ZTIN4aidl7android8hardware5radio5modem22BpRadioModemIndicationE",
   "self_type" : "_ZTIN4aidl7android8hardware5radio5modem22BpRadioModemIndicationE",
   "size" : 40,
   "source_file" : "out/soong/.intermediates/hardware/interfaces/radio/aidl/android.hardware.radio.modem-V1-ndk-source/gen/include/aidl/android/hardware/radio/modem/BpRadioModemIndication.h",
   "vtable_components" :
   [
    {
     "kind" : "offset_to_top"
    },
    {
     "kind" : "rtti",
     "mangled_component_name" : "_ZTIN4aidl7android8hardware5radio5modem22BpRadioModemIndicationE"
    },
    {
     "kind" : "complete_dtor_pointer",
     "mangled_component_name" : "_ZN4aidl7android8hardware5radio5modem22BpRadioModemIndicationD1Ev"
    },
    {
     "kind" : "deleting_dtor_pointer",
     "mangled_component_name" : "_ZN4aidl7android8hardware5radio5modem22BpRadioModemIndicationD0Ev"
    },
    {
     "mangled_component_name" : "_ZN3ndk12BpCInterfaceIN4aidl7android8hardware5radio5modem21IRadioModemIndicationEE8asBinderEv"
    },
    {
     "mangled_component_name" : "_ZN3ndk12BpCInterfaceIN4aidl7android8hardware5radio5modem21IRadioModemIndicationEE8isRemoteEv"
    },
    {
     "mangled_component_name" : "_ZN3ndk12BpCInterfaceIN4aidl7android8hardware5radio5modem21IRadioModemIndicationEE4dumpEiPPKcj"
    },
    {
     "mangled_component_name" : "_ZN3ndk11ICInterface18handleShellCommandEiiiPPKcj"
    },
    {
     "mangled_component_name" : "_ZN4aidl7android8hardware5radio5modem22BpRadioModemIndication21hardwareConfigChangedENS2_19RadioIndicationTypeERKNSt3__16vectorINS3_14HardwareConfigENS6_9allocatorIS8_EEEE"
    },
    {
     "mangled_component_name" : "_ZN4aidl7android8hardware5radio5modem22BpRadioModemIndication10modemResetENS2_19RadioIndicationTypeERKNSt3__112basic_stringIcNS6_11char_traitsIcEENS6_9allocatorIcEEEE"
    },
    {
     "mangled_component_name" : "_ZN4aidl7android8hardware5radio5modem22BpRadioModemIndication25radioCapabilityIndicationENS2_19RadioIndicationTypeERKNS3_15RadioCapabilityE"
    },
    {
     "mangled_component_name" : "_ZN4aidl7android8hardware5radio5modem22BpRadioModemIndication17radioStateChangedENS2_19RadioIndicationTypeENS3_10RadioStateE"
    },
    {
     "mangled_component_name" : "_ZN4aidl7android8hardware5radio5modem22BpRadioModemIndication12rilConnectedENS2_19RadioIndicationTypeE"
    },
    {
     "mangled_component_name" : "_ZN4aidl7android8hardware5radio5modem22BpRadioModemIndication19getInterfaceVersionEPi"
    },
    {
     "mangled_component_name" : "_ZN4aidl7android8hardware5radio5modem22BpRadioModemIndication16getInterfaceHashEPNSt3__112basic_stringIcNS5_11char_traitsIcEENS5_9allocatorIcEEEE"
    }
   ]
  },
  {
   "alignment" : 4,
   "base_specifiers" :
   [
    {
     "referenced_type" : "_ZTIN4aidl7android8hardware5radio5modem19IRadioModemResponseE"
    }
   ],
   "linker_set_key" : "_ZTIN4aidl7android8hardware5radio5modem26IRadioModemResponseDefaultE",
   "name" : "aidl::android::hardware::radio::modem::IRadioModemResponseDefault",
   "record_kind" : "class",
   "referenced_type" : "_ZTIN4aidl7android8hardware5radio5modem26IRadioModemResponseDefaultE",
   "self_type" : "_ZTIN4aidl7android8hardware5radio5modem26IRadioModemResponseDefaultE",
   "size" : 16,
   "source_file" : "out/soong/.intermediates/hardware/interfaces/radio/aidl/android.hardware.radio.modem-V1-ndk-source/gen/include/aidl/android/hardware/radio/modem/IRadioModemResponse.h",
   "vtable_components" :
   [
    {
     "kind" : "offset_to_top"
    },
    {
     "kind" : "rtti",
     "mangled_component_name" : "_ZTIN4aidl7android8hardware5radio5modem26IRadioModemResponseDefaultE"
    },
    {
     "kind" : "complete_dtor_pointer",
     "mangled_component_name" : "_ZN4aidl7android8hardware5radio5modem26IRadioModemResponseDefaultD1Ev"
    },
    {
     "kind" : "deleting_dtor_pointer",
     "mangled_component_name" : "_ZN4aidl7android8hardware5radio5modem26IRadioModemResponseDefaultD0Ev"
    },
    {
     "mangled_component_name" : "_ZN4aidl7android8hardware5radio5modem26IRadioModemResponseDefault8asBinderEv"
    },
    {
     "mangled_component_name" : "_ZN4aidl7android8hardware5radio5modem26IRadioModemResponseDefault8isRemoteEv"
    },
    {
     "mangled_component_name" : "_ZN3ndk11ICInterface4dumpEiPPKcj"
    },
    {
     "mangled_component_name" : "_ZN3ndk11ICInterface18handleShellCommandEiiiPPKcj"
    },
    {
     "mangled_component_name" : "_ZN4aidl7android8hardware5radio5modem26IRadioModemResponseDefault18acknowledgeRequestEi"
    },
    {
     "mangled_component_name" : "_ZN4aidl7android8hardware5radio5modem26IRadioModemResponseDefault19enableModemResponseERKNS2_17RadioResponseInfoE"
    },
    {
     "mangled_component_name" : "_ZN4aidl7android8hardware5radio5modem26IRadioModemResponseDefault26getBasebandVersionResponseERKNS2_17RadioResponseInfoERKNSt3__112basic_stringIcNS8_11char_traitsIcEENS8_9allocatorIcEEEE"
    },
    {
     "mangled_component_name" : "_ZN4aidl7android8hardware5radio5modem26IRadioModemResponseDefault25getDeviceIdentityResponseERKNS2_17RadioResponseInfoERKNSt3__112basic_stringIcNS8_11char_traitsIcEENS8_9allocatorIcEEEESG_SG_SG_"
    },
    {
     "mangled_component_name" : "_ZN4aidl7android8hardware5radio5modem26IRadioModemResponseDefault25getHardwareConfigResponseERKNS2_17RadioResponseInfoERKNSt3__16vectorINS3_14HardwareConfigENS8_9allocatorISA_EEEE"
    },
    {
     "mangled_component_name" : "_ZN4aidl7android8hardware5radio5modem26IRadioModemResponseDefault28getModemActivityInfoResponseERKNS2_17RadioResponseInfoERKNS3_17ActivityStatsInfoE"
    },
    {
     "mangled_component_name" : "_ZN4aidl7android8hardware5radio5modem26IRadioModemResponseDefault27getModemStackStatusResponseERKNS2_17RadioResponseInfoEb"
    },
    {
     "mangled_component_name" : "_ZN4aidl7android8hardware5radio5modem26IRadioModemResponseDefault26getRadioCapabilityResponseERKNS2_17RadioResponseInfoERKNS3_15RadioCapabilityE"
    },
    {
     "mangled_component_name" : "_ZN4aidl7android8hardware5radio5modem26IRadioModemResponseDefault18nvReadItemResponseERKNS2_17RadioResponseInfoERKNSt3__112basic_stringIcNS8_11char_traitsIcEENS8_9allocatorIcEEEE"
    },
    {
     "mangled_component_name" : "_ZN4aidl7android8hardware5radio5modem26IRadioModemResponseDefault21nvResetConfigResponseERKNS2_17RadioResponseInfoE"
    },
    {
     "mangled_component_name" : "_ZN4aidl7android8hardware5radio5modem26IRadioModemResponseDefault22nvWriteCdmaPrlResponseERKNS2_17RadioResponseInfoE"
    },
    {
     "mangled_component_name" : "_ZN4aidl7android8hardware5radio5modem26IRadioModemResponseDefault19nvWriteItemResponseERKNS2_17RadioResponseInfoE"
    },
    {
     "mangled_component_name" : "_ZN4aidl7android8hardware5radio5modem26IRadioModemResponseDefault23requestShutdownResponseERKNS2_17RadioResponseInfoE"
    },
    {
     "mangled_component_name" : "_ZN4aidl7android8hardware5radio5modem26IRadioModemResponseDefault23sendDeviceStateResponseERKNS2_17RadioResponseInfoE"
    },
    {
     "mangled_component_name" : "_ZN4aidl7android8hardware5radio5modem26IRadioModemResponseDefault26setRadioCapabilityResponseERKNS2_17RadioResponseInfoERKNS3_15RadioCapabilityE"
    },
    {
     "mangled_component_name" : "_ZN4aidl7android8hardware5radio5modem26IRadioModemResponseDefault21setRadioPowerResponseERKNS2_17RadioResponseInfoE"
    },
    {
     "mangled_component_name" : "_ZN4aidl7android8hardware5radio5modem26IRadioModemResponseDefault19getInterfaceVersionEPi"
    },
    {
     "mangled_component_name" : "_ZN4aidl7android8hardware5radio5modem26IRadioModemResponseDefault16getInterfaceHashEPNSt3__112basic_stringIcNS5_11char_traitsIcEENS5_9allocatorIcEEEE"
    }
   ]
  },
  {
   "alignment" : 4,
   "base_specifiers" :
   [
    {
     "referenced_type" : "_ZTIN4aidl7android8hardware5radio5modem21IRadioModemIndicationE"
    }
   ],
   "linker_set_key" : "_ZTIN4aidl7android8hardware5radio5modem28IRadioModemIndicationDefaultE",
   "name" : "aidl::android::hardware::radio::modem::IRadioModemIndicationDefault",
   "record_kind" : "class",
   "referenced_type" : "_ZTIN4aidl7android8hardware5radio5modem28IRadioModemIndicationDefaultE",
   "self_type" : "_ZTIN4aidl7android8hardware5radio5modem28IRadioModemIndicationDefaultE",
   "size" : 16,
   "source_file" : "out/soong/.intermediates/hardware/interfaces/radio/aidl/android.hardware.radio.modem-V1-ndk-source/gen/include/aidl/android/hardware/radio/modem/IRadioModemIndication.h",
   "vtable_components" :
   [
    {
     "kind" : "offset_to_top"
    },
    {
     "kind" : "rtti",
     "mangled_component_name" : "_ZTIN4aidl7android8hardware5radio5modem28IRadioModemIndicationDefaultE"
    },
    {
     "kind" : "complete_dtor_pointer",
     "mangled_component_name" : "_ZN4aidl7android8hardware5radio5modem28IRadioModemIndicationDefaultD1Ev"
    },
    {
     "kind" : "deleting_dtor_pointer",
     "mangled_component_name" : "_ZN4aidl7android8hardware5radio5modem28IRadioModemIndicationDefaultD0Ev"
    },
    {
     "mangled_component_name" : "_ZN4aidl7android8hardware5radio5modem28IRadioModemIndicationDefault8asBinderEv"
    },
    {
     "mangled_component_name" : "_ZN4aidl7android8hardware5radio5modem28IRadioModemIndicationDefault8isRemoteEv"
    },
    {
     "mangled_component_name" : "_ZN3ndk11ICInterface4dumpEiPPKcj"
    },
    {
     "mangled_component_name" : "_ZN3ndk11ICInterface18handleShellCommandEiiiPPKcj"
    },
    {
     "mangled_component_name" : "_ZN4aidl7android8hardware5radio5modem28IRadioModemIndicationDefault21hardwareConfigChangedENS2_19RadioIndicationTypeERKNSt3__16vectorINS3_14HardwareConfigENS6_9allocatorIS8_EEEE"
    },
    {
     "mangled_component_name" : "_ZN4aidl7android8hardware5radio5modem28IRadioModemIndicationDefault10modemResetENS2_19RadioIndicationTypeERKNSt3__112basic_stringIcNS6_11char_traitsIcEENS6_9allocatorIcEEEE"
    },
    {
     "mangled_component_name" : "_ZN4aidl7android8hardware5radio5modem28IRadioModemIndicationDefault25radioCapabilityIndicationENS2_19RadioIndicationTypeERKNS3_15RadioCapabilityE"
    },
    {
     "mangled_component_name" : "_ZN4aidl7android8hardware5radio5modem28IRadioModemIndicationDefault17radioStateChangedENS2_19RadioIndicationTypeENS3_10RadioStateE"
    },
    {
     "mangled_component_name" : "_ZN4aidl7android8hardware5radio5modem28IRadioModemIndicationDefault12rilConnectedENS2_19RadioIndicationTypeE"
    },
    {
     "mangled_component_name" : "_ZN4aidl7android8hardware5radio5modem28IRadioModemIndicationDefault19getInterfaceVersionEPi"
    },
    {
     "mangled_component_name" : "_ZN4aidl7android8hardware5radio5modem28IRadioModemIndicationDefault16getInterfaceHashEPNSt3__112basic_stringIcNS5_11char_traitsIcEENS5_9allocatorIcEEEE"
    }
   ]
  },
  {
   "alignment" : 4,
   "base_specifiers" :
   [
    {
     "referenced_type" : "_ZTIN4aidl7android8hardware5radio5modem20BnRadioModemResponseE"
    }
   ],
   "fields" :
   [
    {
     "access" : "private",
     "field_name" : "_impl",
     "field_offset" : 192,
     "referenced_type" : "_ZTINSt3__110shared_ptrIN4aidl7android8hardware5radio5modem19IRadioModemResponseEEE"
    }
   ],
   "linker_set_key" : "_ZTIN4aidl7android8hardware5radio5modem28IRadioModemResponseDelegatorE",
   "name" : "aidl::android::hardware::radio::modem::IRadioModemResponseDelegator",
   "record_kind" : "class",
   "referenced_type" : "_ZTIN4aidl7android8hardware5radio5modem28IRadioModemResponseDelegatorE",
   "self_type" : "_ZTIN4aidl7android8hardware5radio5modem28IRadioModemResponseDelegatorE",
   "size" : 32,
   "source_file" : "out/soong/.intermediates/hardware/interfaces/radio/aidl/android.hardware.radio.modem-V1-ndk-source/gen/include/aidl/android/hardware/radio/modem/BnRadioModemResponse.h",
   "vtable_components" :
   [
    {
     "kind" : "offset_to_top"
    },
    {
     "kind" : "rtti",
     "mangled_component_name" : "_ZTIN4aidl7android8hardware5radio5modem28IRadioModemResponseDelegatorE"
    },
    {
     "kind" : "complete_dtor_pointer",
     "mangled_component_name" : "_ZN4aidl7android8hardware5radio5modem28IRadioModemResponseDelegatorD1Ev"
    },
    {
     "kind" : "deleting_dtor_pointer",
     "mangled_component_name" : "_ZN4aidl7android8hardware5radio5modem28IRadioModemResponseDelegatorD0Ev"
    },
    {
     "mangled_component_name" : "_ZN3ndk12BnCInterfaceIN4aidl7android8hardware5radio5modem19IRadioModemResponseEE8asBinderEv"
    },
    {
     "mangled_component_name" : "_ZN3ndk12BnCInterfaceIN4aidl7android8hardware5radio5modem19IRadioModemResponseEE8isRemoteEv"
    },
    {
     "mangled_component_name" : "_ZN3ndk11ICInterface4dumpEiPPKcj"
    },
    {
     "mangled_component_name" : "_ZN3ndk11ICInterface18handleShellCommandEiiiPPKcj"
    },
    {
     "mangled_component_name" : "_ZN4aidl7android8hardware5radio5modem28IRadioModemResponseDelegator18acknowledgeRequestEi"
    },
    {
     "mangled_component_name" : "_ZN4aidl7android8hardware5radio5modem28IRadioModemResponseDelegator19enableModemResponseERKNS2_17RadioResponseInfoE"
    },
    {
     "mangled_component_name" : "_ZN4aidl7android8hardware5radio5modem28IRadioModemResponseDelegator26getBasebandVersionResponseERKNS2_17RadioResponseInfoERKNSt3__112basic_stringIcNS8_11char_traitsIcEENS8_9allocatorIcEEEE"
    },
    {
     "mangled_component_name" : "_ZN4aidl7android8hardware5radio5modem28IRadioModemResponseDelegator25getDeviceIdentityResponseERKNS2_17RadioResponseInfoERKNSt3__112basic_stringIcNS8_11char_traitsIcEENS8_9allocatorIcEEEESG_SG_SG_"
    },
    {
     "mangled_component_name" : "_ZN4aidl7android8hardware5radio5modem28IRadioModemResponseDelegator25getHardwareConfigResponseERKNS2_17RadioResponseInfoERKNSt3__16vectorINS3_14HardwareConfigENS8_9allocatorISA_EEEE"
    },
    {
     "mangled_component_name" : "_ZN4aidl7android8hardware5radio5modem28IRadioModemResponseDelegator28getModemActivityInfoResponseERKNS2_17RadioResponseInfoERKNS3_17ActivityStatsInfoE"
    },
    {
     "mangled_component_name" : "_ZN4aidl7android8hardware5radio5modem28IRadioModemResponseDelegator27getModemStackStatusResponseERKNS2_17RadioResponseInfoEb"
    },
    {
     "mangled_component_name" : "_ZN4aidl7android8hardware5radio5modem28IRadioModemResponseDelegator26getRadioCapabilityResponseERKNS2_17RadioResponseInfoERKNS3_15RadioCapabilityE"
    },
    {
     "mangled_component_name" : "_ZN4aidl7android8hardware5radio5modem28IRadioModemResponseDelegator18nvReadItemResponseERKNS2_17RadioResponseInfoERKNSt3__112basic_stringIcNS8_11char_traitsIcEENS8_9allocatorIcEEEE"
    },
    {
     "mangled_component_name" : "_ZN4aidl7android8hardware5radio5modem28IRadioModemResponseDelegator21nvResetConfigResponseERKNS2_17RadioResponseInfoE"
    },
    {
     "mangled_component_name" : "_ZN4aidl7android8hardware5radio5modem28IRadioModemResponseDelegator22nvWriteCdmaPrlResponseERKNS2_17RadioResponseInfoE"
    },
    {
     "mangled_component_name" : "_ZN4aidl7android8hardware5radio5modem28IRadioModemResponseDelegator19nvWriteItemResponseERKNS2_17RadioResponseInfoE"
    },
    {
     "mangled_component_name" : "_ZN4aidl7android8hardware5radio5modem28IRadioModemResponseDelegator23requestShutdownResponseERKNS2_17RadioResponseInfoE"
    },
    {
     "mangled_component_name" : "_ZN4aidl7android8hardware5radio5modem28IRadioModemResponseDelegator23sendDeviceStateResponseERKNS2_17RadioResponseInfoE"
    },
    {
     "mangled_component_name" : "_ZN4aidl7android8hardware5radio5modem28IRadioModemResponseDelegator26setRadioCapabilityResponseERKNS2_17RadioResponseInfoERKNS3_15RadioCapabilityE"
    },
    {
     "mangled_component_name" : "_ZN4aidl7android8hardware5radio5modem28IRadioModemResponseDelegator21setRadioPowerResponseERKNS2_17RadioResponseInfoE"
    },
    {
     "mangled_component_name" : "_ZN4aidl7android8hardware5radio5modem20BnRadioModemResponse19getInterfaceVersionEPi"
    },
    {
     "mangled_component_name" : "_ZN4aidl7android8hardware5radio5modem20BnRadioModemResponse16getInterfaceHashEPNSt3__112basic_stringIcNS5_11char_traitsIcEENS5_9allocatorIcEEEE"
    },
    {
     "mangled_component_name" : "_ZN4aidl7android8hardware5radio5modem20BnRadioModemResponse12createBinderEv"
    }
   ]
  },
  {
   "alignment" : 4,
   "fields" :
   [
    {
     "field_name" : "rat",
     "referenced_type" : "_ZTIN4aidl7android8hardware5radio13AccessNetworkE"
    },
    {
     "field_name" : "frequencyRange",
     "field_offset" : 32,
     "referenced_type" : "_ZTIi"
    },
    {
     "field_name" : "txmModetimeMs",
     "field_offset" : 64,
     "referenced_type" : "_ZTINSt3__16vectorIiNS_9allocatorIiEEEE"
    },
    {
     "field_name" : "rxModeTimeMs",
     "field_offset" : 160,
     "referenced_type" : "_ZTIi"
    }
   ],
   "linker_set_key" : "_ZTIN4aidl7android8hardware5radio5modem29ActivityStatsTechSpecificInfoE",
   "name" : "aidl::android::hardware::radio::modem::ActivityStatsTechSpecificInfo",
   "record_kind" : "class",
   "referenced_type" : "_ZTIN4aidl7android8hardware5radio5modem29ActivityStatsTechSpecificInfoE",
   "self_type" : "_ZTIN4aidl7android8hardware5radio5modem29ActivityStatsTechSpecificInfoE",
   "size" : 24,
   "source_file" : "out/soong/.intermediates/hardware/interfaces/radio/aidl/android.hardware.radio.modem-V1-ndk-source/gen/include/aidl/android/hardware/radio/modem/ActivityStatsTechSpecificInfo.h"
  },
  {
   "alignment" : 4,
   "base_specifiers" :
   [
    {
     "referenced_type" : "_ZTIN4aidl7android8hardware5radio5modem22BnRadioModemIndicationE"
    }
   ],
   "fields" :
   [
    {
     "access" : "private",
     "field_name" : "_impl",
     "field_offset" : 192,
     "referenced_type" : "_ZTINSt3__110shared_ptrIN4aidl7android8hardware5radio5modem21IRadioModemIndicationEEE"
    }
   ],
   "linker_set_key" : "_ZTIN4aidl7android8hardware5radio5modem30IRadioModemIndicationDelegatorE",
   "name" : "aidl::android::hardware::radio::modem::IRadioModemIndicationDelegator",
   "record_kind" : "class",
   "referenced_type" : "_ZTIN4aidl7android8hardware5radio5modem30IRadioModemIndicationDelegatorE",
   "self_type" : "_ZTIN4aidl7android8hardware5radio5modem30IRadioModemIndicationDelegatorE",
   "size" : 32,
   "source_file" : "out/soong/.intermediates/hardware/interfaces/radio/aidl/android.hardware.radio.modem-V1-ndk-source/gen/include/aidl/android/hardware/radio/modem/BnRadioModemIndication.h",
   "vtable_components" :
   [
    {
     "kind" : "offset_to_top"
    },
    {
     "kind" : "rtti",
     "mangled_component_name" : "_ZTIN4aidl7android8hardware5radio5modem30IRadioModemIndicationDelegatorE"
    },
    {
     "kind" : "complete_dtor_pointer",
     "mangled_component_name" : "_ZN4aidl7android8hardware5radio5modem30IRadioModemIndicationDelegatorD1Ev"
    },
    {
     "kind" : "deleting_dtor_pointer",
     "mangled_component_name" : "_ZN4aidl7android8hardware5radio5modem30IRadioModemIndicationDelegatorD0Ev"
    },
    {
     "mangled_component_name" : "_ZN3ndk12BnCInterfaceIN4aidl7android8hardware5radio5modem21IRadioModemIndicationEE8asBinderEv"
    },
    {
     "mangled_component_name" : "_ZN3ndk12BnCInterfaceIN4aidl7android8hardware5radio5modem21IRadioModemIndicationEE8isRemoteEv"
    },
    {
     "mangled_component_name" : "_ZN3ndk11ICInterface4dumpEiPPKcj"
    },
    {
     "mangled_component_name" : "_ZN3ndk11ICInterface18handleShellCommandEiiiPPKcj"
    },
    {
     "mangled_component_name" : "_ZN4aidl7android8hardware5radio5modem30IRadioModemIndicationDelegator21hardwareConfigChangedENS2_19RadioIndicationTypeERKNSt3__16vectorINS3_14HardwareConfigENS6_9allocatorIS8_EEEE"
    },
    {
     "mangled_component_name" : "_ZN4aidl7android8hardware5radio5modem30IRadioModemIndicationDelegator10modemResetENS2_19RadioIndicationTypeERKNSt3__112basic_stringIcNS6_11char_traitsIcEENS6_9allocatorIcEEEE"
    },
    {
     "mangled_component_name" : "_ZN4aidl7android8hardware5radio5modem30IRadioModemIndicationDelegator25radioCapabilityIndicationENS2_19RadioIndicationTypeERKNS3_15RadioCapabilityE"
    },
    {
     "mangled_component_name" : "_ZN4aidl7android8hardware5radio5modem30IRadioModemIndicationDelegator17radioStateChangedENS2_19RadioIndicationTypeENS3_10RadioStateE"
    },
    {
     "mangled_component_name" : "_ZN4aidl7android8hardware5radio5modem30IRadioModemIndicationDelegator12rilConnectedENS2_19RadioIndicationTypeE"
    },
    {
     "mangled_component_name" : "_ZN4aidl7android8hardware5radio5modem22BnRadioModemIndication19getInterfaceVersionEPi"
    },
    {
     "mangled_component_name" : "_ZN4aidl7android8hardware5radio5modem22BnRadioModemIndication16getInterfaceHashEPNSt3__112basic_stringIcNS5_11char_traitsIcEENS5_9allocatorIcEEEE"
    },
    {
     "mangled_component_name" : "_ZN4aidl7android8hardware5radio5modem22BnRadioModemIndication12createBinderEv"
    }
   ]
  },
  {
   "alignment" : 1,
   "linker_set_key" : "_ZTIN7android8internal7details10IsIterableINSt3__16vectorIN4aidl7android8hardware5radio5modem17HardwareConfigSimENS3_9allocatorISA_EEEEEE",
   "name" : "android::internal::details::IsIterable<std::vector<aidl::android::hardware::radio::modem::HardwareConfigSim, std::allocator<aidl::android::hardware::radio::modem::HardwareConfigSim>>>",
   "record_kind" : "class",
   "referenced_type" : "_ZTIN7android8internal7details10IsIterableINSt3__16vectorIN4aidl7android8hardware5radio5modem17HardwareConfigSimENS3_9allocatorISA_EEEEEE",
   "self_type" : "_ZTIN7android8internal7details10IsIterableINSt3__16vectorIN4aidl7android8hardware5radio5modem17HardwareConfigSimENS3_9allocatorISA_EEEEEE",
   "size" : 1,
   "source_file" : "frameworks/native/libs/binder/ndk/include_cpp/android/binder_to_string.h",
   "template_args" :
   [
    "_ZTINSt3__16vectorIN4aidl7android8hardware5radio5modem17HardwareConfigSimENS_9allocatorIS6_EEEE"
   ]
  },
  {
   "alignment" : 1,
   "linker_set_key" : "_ZTIN7android8internal7details10IsIterableINSt3__16vectorIN4aidl7android8hardware5radio5modem19HardwareConfigModemENS3_9allocatorISA_EEEEEE",
   "name" : "android::internal::details::IsIterable<std::vector<aidl::android::hardware::radio::modem::HardwareConfigModem, std::allocator<aidl::android::hardware::radio::modem::HardwareConfigModem>>>",
   "record_kind" : "class",
   "referenced_type" : "_ZTIN7android8internal7details10IsIterableINSt3__16vectorIN4aidl7android8hardware5radio5modem19HardwareConfigModemENS3_9allocatorISA_EEEEEE",
   "self_type" : "_ZTIN7android8internal7details10IsIterableINSt3__16vectorIN4aidl7android8hardware5radio5modem19HardwareConfigModemENS3_9allocatorISA_EEEEEE",
   "size" : 1,
   "source_file" : "frameworks/native/libs/binder/ndk/include_cpp/android/binder_to_string.h",
   "template_args" :
   [
    "_ZTINSt3__16vectorIN4aidl7android8hardware5radio5modem19HardwareConfigModemENS_9allocatorIS6_EEEE"
   ]
  },
  {
   "alignment" : 1,
   "linker_set_key" : "_ZTIN7android8internal7details10IsIterableINSt3__16vectorIN4aidl7android8hardware5radio5modem29ActivityStatsTechSpecificInfoENS3_9allocatorISA_EEEEEE",
   "name" : "android::internal::details::IsIterable<std::vector<aidl::android::hardware::radio::modem::ActivityStatsTechSpecificInfo, std::allocator<aidl::android::hardware::radio::modem::ActivityStatsTechSpecificInfo>>>",
   "record_kind" : "class",
   "referenced_type" : "_ZTIN7android8internal7details10IsIterableINSt3__16vectorIN4aidl7android8hardware5radio5modem29ActivityStatsTechSpecificInfoENS3_9allocatorISA_EEEEEE",
   "self_type" : "_ZTIN7android8internal7details10IsIterableINSt3__16vectorIN4aidl7android8hardware5radio5modem29ActivityStatsTechSpecificInfoENS3_9allocatorISA_EEEEEE",
   "size" : 1,
   "source_file" : "frameworks/native/libs/binder/ndk/include_cpp/android/binder_to_string.h",
   "template_args" :
   [
    "_ZTINSt3__16vectorIN4aidl7android8hardware5radio5modem29ActivityStatsTechSpecificInfoENS_9allocatorIS6_EEEE"
   ]
  },
  {
   "alignment" : 1,
   "linker_set_key" : "_ZTIN7android8internal7details10IsIterableINSt3__16vectorIiNS3_9allocatorIiEEEEEE",
   "name" : "android::internal::details::IsIterable<std::vector<int, std::allocator<int>>>",
   "record_kind" : "class",
   "referenced_type" : "_ZTIN7android8internal7details10IsIterableINSt3__16vectorIiNS3_9allocatorIiEEEEEE",
   "self_type" : "_ZTIN7android8internal7details10IsIterableINSt3__16vectorIiNS3_9allocatorIiEEEEEE",
   "size" : 1,
   "source_file" : "frameworks/native/libs/binder/ndk/include_cpp/android/binder_to_string.h",
   "template_args" :
   [
    "_ZTINSt3__16vectorIiNS_9allocatorIiEEEE"
   ]
  },
  {
   "alignment" : 1,
   "linker_set_key" : "_ZTIN7android8internal7details13IsPointerLikeIN4aidl7android8hardware5radio10RadioErrorEEE",
   "name" : "android::internal::details::IsPointerLike<aidl::android::hardware::radio::RadioError>",
   "record_kind" : "class",
   "referenced_type" : "_ZTIN7android8internal7details13IsPointerLikeIN4aidl7android8hardware5radio10RadioErrorEEE",
   "self_type" : "_ZTIN7android8internal7details13IsPointerLikeIN4aidl7android8hardware5radio10RadioErrorEEE",
   "size" : 1,
   "source_file" : "frameworks/native/libs/binder/ndk/include_cpp/android/binder_to_string.h",
   "template_args" :
   [
    "_ZTIN4aidl7android8hardware5radio10RadioErrorE"
   ]
  },
  {
   "alignment" : 1,
   "linker_set_key" : "_ZTIN7android8internal7details13IsPointerLikeIN4aidl7android8hardware5radio13AccessNetworkEEE",
   "name" : "android::internal::details::IsPointerLike<aidl::android::hardware::radio::AccessNetwork>",
   "record_kind" : "class",
   "referenced_type" : "_ZTIN7android8internal7details13IsPointerLikeIN4aidl7android8hardware5radio13AccessNetworkEEE",
   "self_type" : "_ZTIN7android8internal7details13IsPointerLikeIN4aidl7android8hardware5radio13AccessNetworkEEE",
   "size" : 1,
   "source_file" : "frameworks/native/libs/binder/ndk/include_cpp/android/binder_to_string.h",
   "template_args" :
   [
    "_ZTIN4aidl7android8hardware5radio13AccessNetworkE"
   ]
  },
  {
   "alignment" : 1,
   "linker_set_key" : "_ZTIN7android8internal7details13IsPointerLikeIN4aidl7android8hardware5radio15RadioTechnologyEEE",
   "name" : "android::internal::details::IsPointerLike<aidl::android::hardware::radio::RadioTechnology>",
   "record_kind" : "class",
   "referenced_type" : "_ZTIN7android8internal7details13IsPointerLikeIN4aidl7android8hardware5radio15RadioTechnologyEEE",
   "self_type" : "_ZTIN7android8internal7details13IsPointerLikeIN4aidl7android8hardware5radio15RadioTechnologyEEE",
   "size" : 1,
   "source_file" : "frameworks/native/libs/binder/ndk/include_cpp/android/binder_to_string.h",
   "template_args" :
   [
    "_ZTIN4aidl7android8hardware5radio15RadioTechnologyE"
   ]
  },
  {
   "alignment" : 1,
   "linker_set_key" : "_ZTIN7android8internal7details13IsPointerLikeIN4aidl7android8hardware5radio17RadioResponseTypeEEE",
   "name" : "android::internal::details::IsPointerLike<aidl::android::hardware::radio::RadioResponseType>",
   "record_kind" : "class",
   "referenced_type" : "_ZTIN7android8internal7details13IsPointerLikeIN4aidl7android8hardware5radio17RadioResponseTypeEEE",
   "self_type" : "_ZTIN7android8internal7details13IsPointerLikeIN4aidl7android8hardware5radio17RadioResponseTypeEEE",
   "size" : 1,
   "source_file" : "frameworks/native/libs/binder/ndk/include_cpp/android/binder_to_string.h",
   "template_args" :
   [
    "_ZTIN4aidl7android8hardware5radio17RadioResponseTypeE"
   ]
  },
  {
   "alignment" : 1,
   "linker_set_key" : "_ZTIN7android8internal7details13IsPointerLikeIN4aidl7android8hardware5radio5modem17HardwareConfigSimEEE",
   "name" : "android::internal::details::IsPointerLike<aidl::android::hardware::radio::modem::HardwareConfigSim>",
   "record_kind" : "class",
   "referenced_type" : "_ZTIN7android8internal7details13IsPointerLikeIN4aidl7android8hardware5radio5modem17HardwareConfigSimEEE",
   "self_type" : "_ZTIN7android8internal7details13IsPointerLikeIN4aidl7android8hardware5radio5modem17HardwareConfigSimEEE",
   "size" : 1,
   "source_file" : "frameworks/native/libs/binder/ndk/include_cpp/android/binder_to_string.h",
   "template_args" :
   [
    "_ZTIN4aidl7android8hardware5radio5modem17HardwareConfigSimE"
   ]
  },
  {
   "alignment" : 1,
   "linker_set_key" : "_ZTIN7android8internal7details13IsPointerLikeIN4aidl7android8hardware5radio5modem19HardwareConfigModemEEE",
   "name" : "android::internal::details::IsPointerLike<aidl::android::hardware::radio::modem::HardwareConfigModem>",
   "record_kind" : "class",
   "referenced_type" : "_ZTIN7android8internal7details13IsPointerLikeIN4aidl7android8hardware5radio5modem19HardwareConfigModemEEE",
   "self_type" : "_ZTIN7android8internal7details13IsPointerLikeIN4aidl7android8hardware5radio5modem19HardwareConfigModemEEE",
   "size" : 1,
   "source_file" : "frameworks/native/libs/binder/ndk/include_cpp/android/binder_to_string.h",
   "template_args" :
   [
    "_ZTIN4aidl7android8hardware5radio5modem19HardwareConfigModemE"
   ]
  },
  {
   "alignment" : 1,
   "linker_set_key" : "_ZTIN7android8internal7details13IsPointerLikeIN4aidl7android8hardware5radio5modem29ActivityStatsTechSpecificInfoEEE",
   "name" : "android::internal::details::IsPointerLike<aidl::android::hardware::radio::modem::ActivityStatsTechSpecificInfo>",
   "record_kind" : "class",
   "referenced_type" : "_ZTIN7android8internal7details13IsPointerLikeIN4aidl7android8hardware5radio5modem29ActivityStatsTechSpecificInfoEEE",
   "self_type" : "_ZTIN7android8internal7details13IsPointerLikeIN4aidl7android8hardware5radio5modem29ActivityStatsTechSpecificInfoEEE",
   "size" : 1,
   "source_file" : "frameworks/native/libs/binder/ndk/include_cpp/android/binder_to_string.h",
   "template_args" :
   [
    "_ZTIN4aidl7android8hardware5radio5modem29ActivityStatsTechSpecificInfoE"
   ]
  },
  {
   "alignment" : 1,
   "linker_set_key" : "_ZTIN7android8internal7details13IsPointerLikeIN4aidl7android8hardware5radio5modem6NvItemEEE",
   "name" : "android::internal::details::IsPointerLike<aidl::android::hardware::radio::modem::NvItem>",
   "record_kind" : "class",
   "referenced_type" : "_ZTIN7android8internal7details13IsPointerLikeIN4aidl7android8hardware5radio5modem6NvItemEEE",
   "self_type" : "_ZTIN7android8internal7details13IsPointerLikeIN4aidl7android8hardware5radio5modem6NvItemEEE",
   "size" : 1,
   "source_file" : "frameworks/native/libs/binder/ndk/include_cpp/android/binder_to_string.h",
   "template_args" :
   [
    "_ZTIN4aidl7android8hardware5radio5modem6NvItemE"
   ]
  },
  {
   "alignment" : 1,
   "linker_set_key" : "_ZTIN7android8internal7details13IsPointerLikeINSt3__16vectorIN4aidl7android8hardware5radio5modem17HardwareConfigSimENS3_9allocatorISA_EEEEEE",
   "name" : "android::internal::details::IsPointerLike<std::vector<aidl::android::hardware::radio::modem::HardwareConfigSim, std::allocator<aidl::android::hardware::radio::modem::HardwareConfigSim>>>",
   "record_kind" : "class",
   "referenced_type" : "_ZTIN7android8internal7details13IsPointerLikeINSt3__16vectorIN4aidl7android8hardware5radio5modem17HardwareConfigSimENS3_9allocatorISA_EEEEEE",
   "self_type" : "_ZTIN7android8internal7details13IsPointerLikeINSt3__16vectorIN4aidl7android8hardware5radio5modem17HardwareConfigSimENS3_9allocatorISA_EEEEEE",
   "size" : 1,
   "source_file" : "frameworks/native/libs/binder/ndk/include_cpp/android/binder_to_string.h",
   "template_args" :
   [
    "_ZTINSt3__16vectorIN4aidl7android8hardware5radio5modem17HardwareConfigSimENS_9allocatorIS6_EEEE"
   ]
  },
  {
   "alignment" : 1,
   "linker_set_key" : "_ZTIN7android8internal7details13IsPointerLikeINSt3__16vectorIN4aidl7android8hardware5radio5modem19HardwareConfigModemENS3_9allocatorISA_EEEEEE",
   "name" : "android::internal::details::IsPointerLike<std::vector<aidl::android::hardware::radio::modem::HardwareConfigModem, std::allocator<aidl::android::hardware::radio::modem::HardwareConfigModem>>>",
   "record_kind" : "class",
   "referenced_type" : "_ZTIN7android8internal7details13IsPointerLikeINSt3__16vectorIN4aidl7android8hardware5radio5modem19HardwareConfigModemENS3_9allocatorISA_EEEEEE",
   "self_type" : "_ZTIN7android8internal7details13IsPointerLikeINSt3__16vectorIN4aidl7android8hardware5radio5modem19HardwareConfigModemENS3_9allocatorISA_EEEEEE",
   "size" : 1,
   "source_file" : "frameworks/native/libs/binder/ndk/include_cpp/android/binder_to_string.h",
   "template_args" :
   [
    "_ZTINSt3__16vectorIN4aidl7android8hardware5radio5modem19HardwareConfigModemENS_9allocatorIS6_EEEE"
   ]
  },
  {
   "alignment" : 1,
   "linker_set_key" : "_ZTIN7android8internal7details13IsPointerLikeINSt3__16vectorIN4aidl7android8hardware5radio5modem29ActivityStatsTechSpecificInfoENS3_9allocatorISA_EEEEEE",
   "name" : "android::internal::details::IsPointerLike<std::vector<aidl::android::hardware::radio::modem::ActivityStatsTechSpecificInfo, std::allocator<aidl::android::hardware::radio::modem::ActivityStatsTechSpecificInfo>>>",
   "record_kind" : "class",
   "referenced_type" : "_ZTIN7android8internal7details13IsPointerLikeINSt3__16vectorIN4aidl7android8hardware5radio5modem29ActivityStatsTechSpecificInfoENS3_9allocatorISA_EEEEEE",
   "self_type" : "_ZTIN7android8internal7details13IsPointerLikeINSt3__16vectorIN4aidl7android8hardware5radio5modem29ActivityStatsTechSpecificInfoENS3_9allocatorISA_EEEEEE",
   "size" : 1,
   "source_file" : "frameworks/native/libs/binder/ndk/include_cpp/android/binder_to_string.h",
   "template_args" :
   [
    "_ZTINSt3__16vectorIN4aidl7android8hardware5radio5modem29ActivityStatsTechSpecificInfoENS_9allocatorIS6_EEEE"
   ]
  },
  {
   "alignment" : 1,
   "linker_set_key" : "_ZTIN7android8internal7details13IsPointerLikeINSt3__16vectorIiNS3_9allocatorIiEEEEEE",
   "name" : "android::internal::details::IsPointerLike<std::vector<int, std::allocator<int>>>",
   "record_kind" : "class",
   "referenced_type" : "_ZTIN7android8internal7details13IsPointerLikeINSt3__16vectorIiNS3_9allocatorIiEEEEEE",
   "self_type" : "_ZTIN7android8internal7details13IsPointerLikeINSt3__16vectorIiNS3_9allocatorIiEEEEEE",
   "size" : 1,
   "source_file" : "frameworks/native/libs/binder/ndk/include_cpp/android/binder_to_string.h",
   "template_args" :
   [
    "_ZTINSt3__16vectorIiNS_9allocatorIiEEEE"
   ]
  },
  {
   "alignment" : 1,
   "linker_set_key" : "_ZTIN7android8internal7details13ToEmptyStringIN4aidl7android8hardware5radio10RadioErrorEEE",
   "name" : "android::internal::details::ToEmptyString<aidl::android::hardware::radio::RadioError>",
   "record_kind" : "class",
   "referenced_type" : "_ZTIN7android8internal7details13ToEmptyStringIN4aidl7android8hardware5radio10RadioErrorEEE",
   "self_type" : "_ZTIN7android8internal7details13ToEmptyStringIN4aidl7android8hardware5radio10RadioErrorEEE",
   "size" : 1,
   "source_file" : "frameworks/native/libs/binder/ndk/include_cpp/android/binder_to_string.h",
   "template_args" :
   [
    "_ZTIN4aidl7android8hardware5radio10RadioErrorE"
   ]
  },
  {
   "alignment" : 1,
   "linker_set_key" : "_ZTIN7android8internal7details13ToEmptyStringIN4aidl7android8hardware5radio13AccessNetworkEEE",
   "name" : "android::internal::details::ToEmptyString<aidl::android::hardware::radio::AccessNetwork>",
   "record_kind" : "class",
   "referenced_type" : "_ZTIN7android8internal7details13ToEmptyStringIN4aidl7android8hardware5radio13AccessNetworkEEE",
   "self_type" : "_ZTIN7android8internal7details13ToEmptyStringIN4aidl7android8hardware5radio13AccessNetworkEEE",
   "size" : 1,
   "source_file" : "frameworks/native/libs/binder/ndk/include_cpp/android/binder_to_string.h",
   "template_args" :
   [
    "_ZTIN4aidl7android8hardware5radio13AccessNetworkE"
   ]
  },
  {
   "alignment" : 1,
   "linker_set_key" : "_ZTIN7android8internal7details13ToEmptyStringIN4aidl7android8hardware5radio15RadioTechnologyEEE",
   "name" : "android::internal::details::ToEmptyString<aidl::android::hardware::radio::RadioTechnology>",
   "record_kind" : "class",
   "referenced_type" : "_ZTIN7android8internal7details13ToEmptyStringIN4aidl7android8hardware5radio15RadioTechnologyEEE",
   "self_type" : "_ZTIN7android8internal7details13ToEmptyStringIN4aidl7android8hardware5radio15RadioTechnologyEEE",
   "size" : 1,
   "source_file" : "frameworks/native/libs/binder/ndk/include_cpp/android/binder_to_string.h",
   "template_args" :
   [
    "_ZTIN4aidl7android8hardware5radio15RadioTechnologyE"
   ]
  },
  {
   "alignment" : 1,
   "linker_set_key" : "_ZTIN7android8internal7details13ToEmptyStringIN4aidl7android8hardware5radio17RadioResponseTypeEEE",
   "name" : "android::internal::details::ToEmptyString<aidl::android::hardware::radio::RadioResponseType>",
   "record_kind" : "class",
   "referenced_type" : "_ZTIN7android8internal7details13ToEmptyStringIN4aidl7android8hardware5radio17RadioResponseTypeEEE",
   "self_type" : "_ZTIN7android8internal7details13ToEmptyStringIN4aidl7android8hardware5radio17RadioResponseTypeEEE",
   "size" : 1,
   "source_file" : "frameworks/native/libs/binder/ndk/include_cpp/android/binder_to_string.h",
   "template_args" :
   [
    "_ZTIN4aidl7android8hardware5radio17RadioResponseTypeE"
   ]
  },
  {
   "alignment" : 1,
   "linker_set_key" : "_ZTIN7android8internal7details13ToEmptyStringIN4aidl7android8hardware5radio5modem17HardwareConfigSimEEE",
   "name" : "android::internal::details::ToEmptyString<aidl::android::hardware::radio::modem::HardwareConfigSim>",
   "record_kind" : "class",
   "referenced_type" : "_ZTIN7android8internal7details13ToEmptyStringIN4aidl7android8hardware5radio5modem17HardwareConfigSimEEE",
   "self_type" : "_ZTIN7android8internal7details13ToEmptyStringIN4aidl7android8hardware5radio5modem17HardwareConfigSimEEE",
   "size" : 1,
   "source_file" : "frameworks/native/libs/binder/ndk/include_cpp/android/binder_to_string.h",
   "template_args" :
   [
    "_ZTIN4aidl7android8hardware5radio5modem17HardwareConfigSimE"
   ]
  },
  {
   "alignment" : 1,
   "linker_set_key" : "_ZTIN7android8internal7details13ToEmptyStringIN4aidl7android8hardware5radio5modem19HardwareConfigModemEEE",
   "name" : "android::internal::details::ToEmptyString<aidl::android::hardware::radio::modem::HardwareConfigModem>",
   "record_kind" : "class",
   "referenced_type" : "_ZTIN7android8internal7details13ToEmptyStringIN4aidl7android8hardware5radio5modem19HardwareConfigModemEEE",
   "self_type" : "_ZTIN7android8internal7details13ToEmptyStringIN4aidl7android8hardware5radio5modem19HardwareConfigModemEEE",
   "size" : 1,
   "source_file" : "frameworks/native/libs/binder/ndk/include_cpp/android/binder_to_string.h",
   "template_args" :
   [
    "_ZTIN4aidl7android8hardware5radio5modem19HardwareConfigModemE"
   ]
  },
  {
   "alignment" : 1,
   "linker_set_key" : "_ZTIN7android8internal7details13ToEmptyStringIN4aidl7android8hardware5radio5modem29ActivityStatsTechSpecificInfoEEE",
   "name" : "android::internal::details::ToEmptyString<aidl::android::hardware::radio::modem::ActivityStatsTechSpecificInfo>",
   "record_kind" : "class",
   "referenced_type" : "_ZTIN7android8internal7details13ToEmptyStringIN4aidl7android8hardware5radio5modem29ActivityStatsTechSpecificInfoEEE",
   "self_type" : "_ZTIN7android8internal7details13ToEmptyStringIN4aidl7android8hardware5radio5modem29ActivityStatsTechSpecificInfoEEE",
   "size" : 1,
   "source_file" : "frameworks/native/libs/binder/ndk/include_cpp/android/binder_to_string.h",
   "template_args" :
   [
    "_ZTIN4aidl7android8hardware5radio5modem29ActivityStatsTechSpecificInfoE"
   ]
  },
  {
   "alignment" : 1,
   "linker_set_key" : "_ZTIN7android8internal7details13ToEmptyStringIN4aidl7android8hardware5radio5modem6NvItemEEE",
   "name" : "android::internal::details::ToEmptyString<aidl::android::hardware::radio::modem::NvItem>",
   "record_kind" : "class",
   "referenced_type" : "_ZTIN7android8internal7details13ToEmptyStringIN4aidl7android8hardware5radio5modem6NvItemEEE",
   "self_type" : "_ZTIN7android8internal7details13ToEmptyStringIN4aidl7android8hardware5radio5modem6NvItemEEE",
   "size" : 1,
   "source_file" : "frameworks/native/libs/binder/ndk/include_cpp/android/binder_to_string.h",
   "template_args" :
   [
    "_ZTIN4aidl7android8hardware5radio5modem6NvItemE"
   ]
  },
  {
   "alignment" : 1,
   "linker_set_key" : "_ZTIN7android8internal7details13ToEmptyStringINSt3__112basic_stringIcNS3_11char_traitsIcEENS3_9allocatorIcEEEEEE",
   "name" : "android::internal::details::ToEmptyString<std::basic_string<char, std::char_traits<char>, std::allocator<char>>>",
   "record_kind" : "class",
   "referenced_type" : "_ZTIN7android8internal7details13ToEmptyStringINSt3__112basic_stringIcNS3_11char_traitsIcEENS3_9allocatorIcEEEEEE",
   "self_type" : "_ZTIN7android8internal7details13ToEmptyStringINSt3__112basic_stringIcNS3_11char_traitsIcEENS3_9allocatorIcEEEEEE",
   "size" : 1,
   "source_file" : "frameworks/native/libs/binder/ndk/include_cpp/android/binder_to_string.h",
   "template_args" :
   [
    "_ZTINSt3__112basic_stringIcNS_11char_traitsIcEENS_9allocatorIcEEEE"
   ]
  },
  {
   "alignment" : 1,
   "linker_set_key" : "_ZTIN7android8internal7details13ToEmptyStringINSt3__16vectorIN4aidl7android8hardware5radio5modem17HardwareConfigSimENS3_9allocatorISA_EEEEEE",
   "name" : "android::internal::details::ToEmptyString<std::vector<aidl::android::hardware::radio::modem::HardwareConfigSim, std::allocator<aidl::android::hardware::radio::modem::HardwareConfigSim>>>",
   "record_kind" : "class",
   "referenced_type" : "_ZTIN7android8internal7details13ToEmptyStringINSt3__16vectorIN4aidl7android8hardware5radio5modem17HardwareConfigSimENS3_9allocatorISA_EEEEEE",
   "self_type" : "_ZTIN7android8internal7details13ToEmptyStringINSt3__16vectorIN4aidl7android8hardware5radio5modem17HardwareConfigSimENS3_9allocatorISA_EEEEEE",
   "size" : 1,
   "source_file" : "frameworks/native/libs/binder/ndk/include_cpp/android/binder_to_string.h",
   "template_args" :
   [
    "_ZTINSt3__16vectorIN4aidl7android8hardware5radio5modem17HardwareConfigSimENS_9allocatorIS6_EEEE"
   ]
  },
  {
   "alignment" : 1,
   "linker_set_key" : "_ZTIN7android8internal7details13ToEmptyStringINSt3__16vectorIN4aidl7android8hardware5radio5modem19HardwareConfigModemENS3_9allocatorISA_EEEEEE",
   "name" : "android::internal::details::ToEmptyString<std::vector<aidl::android::hardware::radio::modem::HardwareConfigModem, std::allocator<aidl::android::hardware::radio::modem::HardwareConfigModem>>>",
   "record_kind" : "class",
   "referenced_type" : "_ZTIN7android8internal7details13ToEmptyStringINSt3__16vectorIN4aidl7android8hardware5radio5modem19HardwareConfigModemENS3_9allocatorISA_EEEEEE",
   "self_type" : "_ZTIN7android8internal7details13ToEmptyStringINSt3__16vectorIN4aidl7android8hardware5radio5modem19HardwareConfigModemENS3_9allocatorISA_EEEEEE",
   "size" : 1,
   "source_file" : "frameworks/native/libs/binder/ndk/include_cpp/android/binder_to_string.h",
   "template_args" :
   [
    "_ZTINSt3__16vectorIN4aidl7android8hardware5radio5modem19HardwareConfigModemENS_9allocatorIS6_EEEE"
   ]
  },
  {
   "alignment" : 1,
