{
 "array_types" : [],
 "builtin_types" :
 [
  {
   "alignment" : 4,
   "linker_set_key" : "_ZTIDn",
   "name" : "std::nullptr_t",
   "referenced_type" : "_ZTIDn",
   "self_type" : "_ZTIDn",
   "size" : 4
  },
  {
   "alignment" : 1,
   "is_integral" : true,
   "is_unsigned" : true,
   "linker_set_key" : "_ZTIb",
   "name" : "bool",
   "referenced_type" : "_ZTIb",
   "self_type" : "_ZTIb",
   "size" : 1
  },
  {
   "alignment" : 1,
   "is_integral" : true,
   "linker_set_key" : "_ZTIc",
   "name" : "char",
   "referenced_type" : "_ZTIc",
   "self_type" : "_ZTIc",
   "size" : 1
  },
  {
   "alignment" : 1,
   "is_integral" : true,
   "is_unsigned" : true,
   "linker_set_key" : "_ZTIh",
   "name" : "unsigned char",
   "referenced_type" : "_ZTIh",
   "self_type" : "_ZTIh",
   "size" : 1
  },
  {
   "alignment" : 4,
   "is_integral" : true,
   "linker_set_key" : "_ZTIi",
   "name" : "int",
   "referenced_type" : "_ZTIi",
   "self_type" : "_ZTIi",
   "size" : 4
  },
  {
   "alignment" : 4,
   "is_integral" : true,
   "is_unsigned" : true,
   "linker_set_key" : "_ZTIj",
   "name" : "unsigned int",
   "referenced_type" : "_ZTIj",
   "self_type" : "_ZTIj",
   "size" : 4
  },
  {
   "linker_set_key" : "_ZTIv",
   "name" : "void",
   "referenced_type" : "_ZTIv",
   "self_type" : "_ZTIv"
  }
 ],
 "elf_functions" :
 [
  {
   "binding" : "weak",
   "name" : "_ZN3ndk12BnCInterfaceIN4aidl7android8hardware8security4dice11IDiceDeviceEE8asBinderEv"
  },
  {
   "binding" : "weak",
   "name" : "_ZN3ndk12BpCInterfaceIN4aidl7android8hardware8security4dice11IDiceDeviceEE8asBinderEv"
  },
  {
   "binding" : "weak",
   "name" : "_ZN3ndk38AParcel_readStdVectorParcelableElementIN4aidl7android8hardware8security4dice11InputValuesEEEiPK7AParcelPvj"
  },
  {
   "binding" : "weak",
   "name" : "_ZN3ndk39AParcel_writeStdVectorParcelableElementIN4aidl7android8hardware8security4dice11InputValuesEEEiP7AParcelPKvj"
  },
  {
   "name" : "_ZN4aidl7android8hardware8security4dice11BccHandover14readFromParcelEPK7AParcel"
  },
  {
   "name" : "_ZN4aidl7android8hardware8security4dice11IDiceDevice10fromBinderERKN3ndk10SpAIBinderE"
  },
  {
   "name" : "_ZN4aidl7android8hardware8security4dice11IDiceDevice13writeToParcelEP7AParcelRKNSt3__110shared_ptrIS4_EE"
  },
  {
   "name" : "_ZN4aidl7android8hardware8security4dice11IDiceDevice14getDefaultImplEv"
  },
  {
   "name" : "_ZN4aidl7android8hardware8security4dice11IDiceDevice14readFromParcelEPK7AParcelPNSt3__110shared_ptrIS4_EE"
  },
  {
   "name" : "_ZN4aidl7android8hardware8security4dice11IDiceDevice14setDefaultImplERKNSt3__110shared_ptrIS4_EE"
  },
  {
   "name" : "_ZN4aidl7android8hardware8security4dice11IDiceDeviceC2Ev"
  },
  {
   "name" : "_ZN4aidl7android8hardware8security4dice11IDiceDeviceD0Ev"
  },
  {
   "name" : "_ZN4aidl7android8hardware8security4dice11IDiceDeviceD1Ev"
  },
  {
   "name" : "_ZN4aidl7android8hardware8security4dice11IDiceDeviceD2Ev"
  },
  {
   "name" : "_ZN4aidl7android8hardware8security4dice11InputValues14readFromParcelEPK7AParcel"
  },
  {
   "name" : "_ZN4aidl7android8hardware8security4dice12BnDiceDevice12createBinderEv"
  },
  {
   "name" : "_ZN4aidl7android8hardware8security4dice12BnDiceDevice16getInterfaceHashEPNSt3__112basic_stringIcNS5_11char_traitsIcEENS5_9allocatorIcEEEE"
  },
  {
   "name" : "_ZN4aidl7android8hardware8security4dice12BnDiceDevice19getInterfaceVersionEPi"
  },
  {
   "name" : "_ZN4aidl7android8hardware8security4dice12BnDiceDeviceC2Ev"
  },
  {
   "name" : "_ZN4aidl7android8hardware8security4dice12BnDiceDeviceD0Ev"
  },
  {
   "name" : "_ZN4aidl7android8hardware8security4dice12BnDiceDeviceD1Ev"
  },
  {
   "name" : "_ZN4aidl7android8hardware8security4dice12BnDiceDeviceD2Ev"
  },
  {
   "name" : "_ZN4aidl7android8hardware8security4dice12BpDiceDevice16getInterfaceHashEPNSt3__112basic_stringIcNS5_11char_traitsIcEENS5_9allocatorIcEEEE"
  },
  {
   "name" : "_ZN4aidl7android8hardware8security4dice12BpDiceDevice19getAttestationChainERKNSt3__16vectorINS3_11InputValuesENS5_9allocatorIS7_EEEEPNS3_3BccE"
  },
  {
   "name" : "_ZN4aidl7android8hardware8security4dice12BpDiceDevice19getInterfaceVersionEPi"
  },
  {
   "name" : "_ZN4aidl7android8hardware8security4dice12BpDiceDevice4signERKNSt3__16vectorINS3_11InputValuesENS5_9allocatorIS7_EEEERKNS6_IhNS8_IhEEEEPNS3_9SignatureE"
  },
  {
   "name" : "_ZN4aidl7android8hardware8security4dice12BpDiceDevice6demoteERKNSt3__16vectorINS3_11InputValuesENS5_9allocatorIS7_EEEE"
  },
  {
   "name" : "_ZN4aidl7android8hardware8security4dice12BpDiceDevice6deriveERKNSt3__16vectorINS3_11InputValuesENS5_9allocatorIS7_EEEEPNS3_11BccHandoverE"
  },
  {
   "name" : "_ZN4aidl7android8hardware8security4dice12BpDiceDeviceC1ERKN3ndk10SpAIBinderE"
  },
  {
   "name" : "_ZN4aidl7android8hardware8security4dice12BpDiceDeviceC2ERKN3ndk10SpAIBinderE"
  },
  {
   "name" : "_ZN4aidl7android8hardware8security4dice12BpDiceDeviceD0Ev"
  },
  {
   "name" : "_ZN4aidl7android8hardware8security4dice12BpDiceDeviceD1Ev"
  },
  {
   "name" : "_ZN4aidl7android8hardware8security4dice12BpDiceDeviceD2Ev"
  },
  {
   "name" : "_ZN4aidl7android8hardware8security4dice18IDiceDeviceDefault16getInterfaceHashEPNSt3__112basic_stringIcNS5_11char_traitsIcEENS5_9allocatorIcEEEE"
  },
  {
   "name" : "_ZN4aidl7android8hardware8security4dice18IDiceDeviceDefault19getAttestationChainERKNSt3__16vectorINS3_11InputValuesENS5_9allocatorIS7_EEEEPNS3_3BccE"
  },
  {
   "name" : "_ZN4aidl7android8hardware8security4dice18IDiceDeviceDefault19getInterfaceVersionEPi"
  },
  {
   "name" : "_ZN4aidl7android8hardware8security4dice18IDiceDeviceDefault4signERKNSt3__16vectorINS3_11InputValuesENS5_9allocatorIS7_EEEERKNS6_IhNS8_IhEEEEPNS3_9SignatureE"
  },
  {
   "name" : "_ZN4aidl7android8hardware8security4dice18IDiceDeviceDefault6demoteERKNSt3__16vectorINS3_11InputValuesENS5_9allocatorIS7_EEEE"
  },
  {
   "name" : "_ZN4aidl7android8hardware8security4dice18IDiceDeviceDefault6deriveERKNSt3__16vectorINS3_11InputValuesENS5_9allocatorIS7_EEEEPNS3_11BccHandoverE"
  },
  {
   "name" : "_ZN4aidl7android8hardware8security4dice18IDiceDeviceDefault8asBinderEv"
  },
  {
   "name" : "_ZN4aidl7android8hardware8security4dice18IDiceDeviceDefault8isRemoteEv"
  },
  {
   "name" : "_ZN4aidl7android8hardware8security4dice3Bcc14readFromParcelEPK7AParcel"
  },
  {
   "name" : "_ZN4aidl7android8hardware8security4dice6Config14readFromParcelEPK7AParcel"
  },
  {
   "name" : "_ZN4aidl7android8hardware8security4dice9Signature14readFromParcelEPK7AParcel"
  },
  {
   "name" : "_ZNK4aidl7android8hardware8security4dice11BccHandover13writeToParcelEP7AParcel"
  },
  {
   "name" : "_ZNK4aidl7android8hardware8security4dice11InputValues13writeToParcelEP7AParcel"
  },
  {
   "name" : "_ZNK4aidl7android8hardware8security4dice3Bcc13writeToParcelEP7AParcel"
  },
  {
   "name" : "_ZNK4aidl7android8hardware8security4dice6Config13writeToParcelEP7AParcel"
  },
  {
   "name" : "_ZNK4aidl7android8hardware8security4dice9Signature13writeToParcelEP7AParcel"
  },
  {
   "binding" : "weak",
   "name" : "_ZNSt3__110shared_ptrIN4aidl7android8hardware8security4dice11IDiceDeviceEED2Ev"
  },
  {
   "binding" : "weak",
   "name" : "_ZNSt3__120__shared_ptr_pointerIPN3ndk13SharedRefBaseENS_14default_deleteIS2_EENS_9allocatorIS2_EEE16__on_zero_sharedEv"
  },
  {
   "binding" : "weak",
   "name" : "_ZNSt3__120__shared_ptr_pointerIPN3ndk13SharedRefBaseENS_14default_deleteIS2_EENS_9allocatorIS2_EEE21__on_zero_shared_weakEv"
  },
  {
   "binding" : "weak",
   "name" : "_ZNSt3__16vectorIN4aidl7android8hardware8security4dice11InputValuesENS_9allocatorIS6_EEE8__appendEj"
  },
  {
   "binding" : "weak",
   "name" : "_ZNSt3__16vectorIaNS_9allocatorIaEEE8__appendEj"
  }
 ],
 "elf_objects" :
 [
  {
   "binding" : "weak",
   "name" : "_ZGVN4aidl7android8hardware8security4dice11IDiceDevice4hashE"
  },
  {
   "name" : "_ZN4aidl7android8hardware8security4dice11BccHandover10descriptorE"
  },
  {
   "name" : "_ZN4aidl7android8hardware8security4dice11IDiceDevice10descriptorE"
  },
  {
   "name" : "_ZN4aidl7android8hardware8security4dice11IDiceDevice12default_implE"
  },
  {
   "binding" : "weak",
   "name" : "_ZN4aidl7android8hardware8security4dice11IDiceDevice4hashE"
  },
  {
   "name" : "_ZN4aidl7android8hardware8security4dice11InputValues10descriptorE"
  },
  {
   "name" : "_ZN4aidl7android8hardware8security4dice3Bcc10descriptorE"
  },
  {
   "name" : "_ZN4aidl7android8hardware8security4dice6Config10descriptorE"
  },
  {
   "name" : "_ZN4aidl7android8hardware8security4dice9Signature10descriptorE"
  },
  {
   "binding" : "weak",
   "name" : "_ZTVN3ndk12BnCInterfaceIN4aidl7android8hardware8security4dice11IDiceDeviceEEE"
  },
  {
   "binding" : "weak",
   "name" : "_ZTVN3ndk12BpCInterfaceIN4aidl7android8hardware8security4dice11IDiceDeviceEEE"
  },
  {
   "binding" : "weak",
   "name" : "_ZTVN3ndk13SharedRefBaseE"
  },
  {
   "name" : "_ZTVN4aidl7android8hardware8security4dice11IDiceDeviceE"
  },
  {
   "name" : "_ZTVN4aidl7android8hardware8security4dice12BnDiceDeviceE"
  },
  {
   "name" : "_ZTVN4aidl7android8hardware8security4dice12BpDiceDeviceE"
  },
  {
   "name" : "_ZTVN4aidl7android8hardware8security4dice18IDiceDeviceDefaultE"
  },
  {
   "binding" : "weak",
   "name" : "_ZTVNSt3__120__shared_ptr_pointerIPN3ndk13SharedRefBaseENS_14default_deleteIS2_EENS_9allocatorIS2_EEEE"
  }
 ],
 "enum_types" :
 [
  {
   "alignment" : 4,
   "enum_fields" :
   [
    {
     "enum_field_value" : 1,
     "name" : "FLAG_ONEWAY"
    }
   ],
   "linker_set_key" : "_ZTI12$FLAG_ONEWAY",
   "name" : "(unnamed enum at frameworks/native/libs/binder/ndk/include_ndk/android/binder_ibinder.h:43:1)",
   "referenced_type" : "_ZTI12$FLAG_ONEWAY",
   "self_type" : "_ZTI12$FLAG_ONEWAY",
   "size" : 4,
   "source_file" : "frameworks/native/libs/binder/ndk/include_ndk/android/binder_ibinder.h",
   "underlying_type" : "_ZTIj"
  },
  {
   "alignment" : 4,
   "enum_fields" :
   [
    {
     "enum_field_value" : 32,
     "name" : "FLAG_CLEAR_BUF"
    }
   ],
   "linker_set_key" : "_ZTI15$FLAG_CLEAR_BUF",
   "name" : "(unnamed enum at frameworks/native/libs/binder/ndk/include_platform/android/binder_ibinder_platform.h:24:1)",
   "referenced_type" : "_ZTI15$FLAG_CLEAR_BUF",
   "self_type" : "_ZTI15$FLAG_CLEAR_BUF",
   "size" : 4,
   "source_file" : "frameworks/native/libs/binder/ndk/include_platform/android/binder_ibinder_platform.h",
   "underlying_type" : "_ZTIj"
  },
  {
   "alignment" : 4,
   "enum_fields" :
   [
    {
     "enum_field_value" : 0,
     "name" : "EX_NONE"
    },
    {
     "enum_field_value" : -1,
     "name" : "EX_SECURITY"
    },
    {
     "enum_field_value" : -2,
     "name" : "EX_BAD_PARCELABLE"
    },
    {
     "enum_field_value" : -3,
     "name" : "EX_ILLEGAL_ARGUMENT"
    },
    {
     "enum_field_value" : -4,
     "name" : "EX_NULL_POINTER"
    },
    {
     "enum_field_value" : -5,
     "name" : "EX_ILLEGAL_STATE"
    },
    {
     "enum_field_value" : -6,
     "name" : "EX_NETWORK_MAIN_THREAD"
    },
    {
     "enum_field_value" : -7,
     "name" : "EX_UNSUPPORTED_OPERATION"
    },
    {
     "enum_field_value" : -8,
     "name" : "EX_SERVICE_SPECIFIC"
    },
    {
     "enum_field_value" : -9,
     "name" : "EX_PARCELABLE"
    },
    {
     "enum_field_value" : -129,
     "name" : "EX_TRANSACTION_FAILED"
    }
   ],
   "linker_set_key" : "_ZTI18$EX_BAD_PARCELABLE",
   "name" : "(unnamed enum at frameworks/native/libs/binder/ndk/include_ndk/android/binder_status.h:94:1)",
   "referenced_type" : "_ZTI18$EX_BAD_PARCELABLE",
   "self_type" : "_ZTI18$EX_BAD_PARCELABLE",
   "size" : 4,
   "source_file" : "frameworks/native/libs/binder/ndk/include_ndk/android/binder_status.h",
   "underlying_type" : "_ZTIi"
  },
  {
   "alignment" : 4,
   "enum_fields" :
   [
    {
     "enum_field_value" : 268435456,
     "name" : "FLAG_PRIVATE_LOCAL"
    }
   ],
   "linker_set_key" : "_ZTI19$FLAG_PRIVATE_LOCAL",
   "name" : "(unnamed enum at frameworks/native/libs/binder/ndk/include_platform/android/binder_stability.h:35:1)",
   "referenced_type" : "_ZTI19$FLAG_PRIVATE_LOCAL",
   "self_type" : "_ZTI19$FLAG_PRIVATE_LOCAL",
   "size" : 4,
   "source_file" : "frameworks/native/libs/binder/ndk/include_platform/android/binder_stability.h",
   "underlying_type" : "_ZTIj"
  },
  {
   "alignment" : 4,
   "enum_fields" :
   [
    {
     "enum_field_value" : 268435456,
     "name" : "FLAG_PRIVATE_VENDOR"
    }
   ],
   "linker_set_key" : "_ZTI20$FLAG_PRIVATE_VENDOR",
   "name" : "(unnamed enum at frameworks/native/libs/binder/ndk/include_platform/android/binder_stability.h:26:1)",
   "referenced_type" : "_ZTI20$FLAG_PRIVATE_VENDOR",
   "self_type" : "_ZTI20$FLAG_PRIVATE_VENDOR",
   "size" : 4,
   "source_file" : "frameworks/native/libs/binder/ndk/include_platform/android/binder_stability.h",
   "underlying_type" : "_ZTIj"
  },
  {
   "alignment" : 4,
   "enum_fields" :
   [
    {
     "enum_field_value" : 0,
     "name" : "STATUS_OK"
    },
    {
     "enum_field_value" : -2147483648,
     "name" : "STATUS_UNKNOWN_ERROR"
    },
    {
     "enum_field_value" : -12,
     "name" : "STATUS_NO_MEMORY"
    },
    {
     "enum_field_value" : -38,
     "name" : "STATUS_INVALID_OPERATION"
    },
    {
     "enum_field_value" : -22,
     "name" : "STATUS_BAD_VALUE"
    },
    {
     "enum_field_value" : -2147483647,
     "name" : "STATUS_BAD_TYPE"
    },
    {
     "enum_field_value" : -2,
     "name" : "STATUS_NAME_NOT_FOUND"
    },
    {
     "enum_field_value" : -1,
     "name" : "STATUS_PERMISSION_DENIED"
    },
    {
     "enum_field_value" : -19,
     "name" : "STATUS_NO_INIT"
    },
    {
     "enum_field_value" : -17,
     "name" : "STATUS_ALREADY_EXISTS"
    },
    {
     "enum_field_value" : -32,
     "name" : "STATUS_DEAD_OBJECT"
    },
    {
     "enum_field_value" : -2147483646,
     "name" : "STATUS_FAILED_TRANSACTION"
    },
    {
     "enum_field_value" : -75,
     "name" : "STATUS_BAD_INDEX"
    },
    {
     "enum_field_value" : -61,
     "name" : "STATUS_NOT_ENOUGH_DATA"
    },
    {
     "enum_field_value" : -11,
     "name" : "STATUS_WOULD_BLOCK"
    },
    {
     "enum_field_value" : -110,
     "name" : "STATUS_TIMED_OUT"
    },
    {
     "enum_field_value" : -74,
     "name" : "STATUS_UNKNOWN_TRANSACTION"
    },
    {
     "enum_field_value" : -2147483641,
     "name" : "STATUS_FDS_NOT_ALLOWED"
    },
    {
     "enum_field_value" : -2147483640,
     "name" : "STATUS_UNEXPECTED_NULL"
    }
   ],
   "linker_set_key" : "_ZTI22$STATUS_ALREADY_EXISTS",
   "name" : "(unnamed enum at frameworks/native/libs/binder/ndk/include_ndk/android/binder_status.h:60:1)",
   "referenced_type" : "_ZTI22$STATUS_ALREADY_EXISTS",
   "self_type" : "_ZTI22$STATUS_ALREADY_EXISTS",
   "size" : 4,
   "source_file" : "frameworks/native/libs/binder/ndk/include_ndk/android/binder_status.h",
   "underlying_type" : "_ZTIi"
  },
  {
   "alignment" : 4,
   "enum_fields" :
   [
    {
     "enum_field_value" : 1,
     "name" : "FIRST_CALL_TRANSACTION"
    },
    {
     "enum_field_value" : 16777215,
     "name" : "LAST_CALL_TRANSACTION"
    }
   ],
   "linker_set_key" : "_ZTI23$FIRST_CALL_TRANSACTION",
   "name" : "(unnamed enum at frameworks/native/libs/binder/ndk/include_ndk/android/binder_ibinder.h:58:1)",
   "referenced_type" : "_ZTI23$FIRST_CALL_TRANSACTION",
   "self_type" : "_ZTI23$FIRST_CALL_TRANSACTION",
   "size" : 4,
   "source_file" : "frameworks/native/libs/binder/ndk/include_ndk/android/binder_ibinder.h",
   "underlying_type" : "_ZTIj"
  },
  {
   "alignment" : 4,
   "enum_fields" :
   [
    {
     "enum_field_value" : 0,
     "name" : "ndk::STABILITY_LOCAL"
    },
    {
     "enum_field_value" : 1,
     "name" : "ndk::STABILITY_VINTF"
    }
   ],
   "linker_set_key" : "_ZTIN3ndk16$STABILITY_LOCALE",
   "name" : "ndk::(unnamed enum at frameworks/native/libs/binder/ndk/include_cpp/android/binder_parcelable_utils.h:34:1)",
   "referenced_type" : "_ZTIN3ndk16$STABILITY_LOCALE",
   "self_type" : "_ZTIN3ndk16$STABILITY_LOCALE",
   "size" : 4,
   "source_file" : "frameworks/native/libs/binder/ndk/include_cpp/android/binder_parcelable_utils.h",
   "underlying_type" : "_ZTIj"
  },
  {
   "alignment" : 4,
   "enum_fields" :
   [
    {
     "enum_field_value" : 0,
     "name" : "aidl::android::hardware::security::dice::Mode::NOT_INITIALIZED"
    },
    {
     "enum_field_value" : 1,
     "name" : "aidl::android::hardware::security::dice::Mode::NORMAL"
    },
    {
     "enum_field_value" : 2,
     "name" : "aidl::android::hardware::security::dice::Mode::DEBUG"
    },
    {
     "enum_field_value" : 3,
     "name" : "aidl::android::hardware::security::dice::Mode::RECOVERY"
    }
   ],
   "linker_set_key" : "_ZTIN4aidl7android8hardware8security4dice4ModeE",
   "name" : "aidl::android::hardware::security::dice::Mode",
   "referenced_type" : "_ZTIN4aidl7android8hardware8security4dice4ModeE",
   "self_type" : "_ZTIN4aidl7android8hardware8security4dice4ModeE",
   "size" : 4,
   "source_file" : "out/soong/.intermediates/hardware/interfaces/security/dice/aidl/android.hardware.security.dice-V1-ndk-source/gen/include/aidl/android/hardware/security/dice/Mode.h",
   "underlying_type" : "_ZTIi"
  },
  {
   "alignment" : 4,
   "enum_fields" :
   [
    {
     "enum_field_value" : 1,
     "name" : "android::internal::details::IsIterable<std::array<unsigned char, 32>>::value"
    }
   ],
   "linker_set_key" : "_ZTIN7android8internal7details10IsIterableINSt3__15arrayIhLj32EEEE6$valueE",
   "name" : "android::internal::details::IsIterable<std::array<unsigned char, 32>>::(unnamed enum at frameworks/native/libs/binder/ndk/include_cpp/android/binder_to_string.h:131:5)",
   "referenced_type" : "_ZTIN7android8internal7details10IsIterableINSt3__15arrayIhLj32EEEE6$valueE",
   "self_type" : "_ZTIN7android8internal7details10IsIterableINSt3__15arrayIhLj32EEEE6$valueE",
   "size" : 4,
   "source_file" : "frameworks/native/libs/binder/ndk/include_cpp/android/binder_to_string.h",
   "underlying_type" : "_ZTIj"
  },
  {
   "alignment" : 4,
   "enum_fields" :
   [
    {
     "enum_field_value" : 1,
     "name" : "android::internal::details::IsIterable<std::array<unsigned char, 64>>::value"
    }
   ],
   "linker_set_key" : "_ZTIN7android8internal7details10IsIterableINSt3__15arrayIhLj64EEEE6$valueE",
   "name" : "android::internal::details::IsIterable<std::array<unsigned char, 64>>::(unnamed enum at frameworks/native/libs/binder/ndk/include_cpp/android/binder_to_string.h:131:5)",
   "referenced_type" : "_ZTIN7android8internal7details10IsIterableINSt3__15arrayIhLj64EEEE6$valueE",
   "self_type" : "_ZTIN7android8internal7details10IsIterableINSt3__15arrayIhLj64EEEE6$valueE",
   "size" : 4,
   "source_file" : "frameworks/native/libs/binder/ndk/include_cpp/android/binder_to_string.h",
   "underlying_type" : "_ZTIj"
  },
  {
   "alignment" : 4,
   "enum_fields" :
   [
    {
     "enum_field_value" : 1,
     "name" : "android::internal::details::IsIterable<std::vector<unsigned char>>::value"
    }
   ],
   "linker_set_key" : "_ZTIN7android8internal7details10IsIterableINSt3__16vectorIhNS3_9allocatorIhEEEEE6$valueE",
   "name" : "android::internal::details::IsIterable<std::vector<unsigned char, std::allocator<unsigned char>>>::(unnamed enum at frameworks/native/libs/binder/ndk/include_cpp/android/binder_to_string.h:131:5)",
   "referenced_type" : "_ZTIN7android8internal7details10IsIterableINSt3__16vectorIhNS3_9allocatorIhEEEEE6$valueE",
   "self_type" : "_ZTIN7android8internal7details10IsIterableINSt3__16vectorIhNS3_9allocatorIhEEEEE6$valueE",
   "size" : 4,
   "source_file" : "frameworks/native/libs/binder/ndk/include_cpp/android/binder_to_string.h",
   "underlying_type" : "_ZTIj"
  },
  {
   "alignment" : 4,
   "enum_fields" :
   [
    {
     "enum_field_value" : 0,
     "name" : "android::internal::details::IsPointerLike<aidl::android::hardware::security::dice::Bcc>::value"
    }
   ],
   "linker_set_key" : "_ZTIN7android8internal7details13IsPointerLikeIN4aidl7android8hardware8security4dice3BccEE6$valueE",
   "name" : "android::internal::details::IsPointerLike<aidl::android::hardware::security::dice::Bcc>::(unnamed enum at frameworks/native/libs/binder/ndk/include_cpp/android/binder_to_string.h:118:5)",
   "referenced_type" : "_ZTIN7android8internal7details13IsPointerLikeIN4aidl7android8hardware8security4dice3BccEE6$valueE",
   "self_type" : "_ZTIN7android8internal7details13IsPointerLikeIN4aidl7android8hardware8security4dice3BccEE6$valueE",
   "size" : 4,
   "source_file" : "frameworks/native/libs/binder/ndk/include_cpp/android/binder_to_string.h",
   "underlying_type" : "_ZTIj"
  },
  {
   "alignment" : 4,
   "enum_fields" :
   [
    {
     "enum_field_value" : 0,
     "name" : "android::internal::details::IsPointerLike<aidl::android::hardware::security::dice::Mode>::value"
    }
   ],
   "linker_set_key" : "_ZTIN7android8internal7details13IsPointerLikeIN4aidl7android8hardware8security4dice4ModeEE6$valueE",
   "name" : "android::internal::details::IsPointerLike<aidl::android::hardware::security::dice::Mode>::(unnamed enum at frameworks/native/libs/binder/ndk/include_cpp/android/binder_to_string.h:118:5)",
   "referenced_type" : "_ZTIN7android8internal7details13IsPointerLikeIN4aidl7android8hardware8security4dice4ModeEE6$valueE",
   "self_type" : "_ZTIN7android8internal7details13IsPointerLikeIN4aidl7android8hardware8security4dice4ModeEE6$valueE",
   "size" : 4,
   "source_file" : "frameworks/native/libs/binder/ndk/include_cpp/android/binder_to_string.h",
   "underlying_type" : "_ZTIj"
  },
  {
   "alignment" : 4,
   "enum_fields" :
   [
    {
     "enum_field_value" : 0,
     "name" : "android::internal::details::IsPointerLike<aidl::android::hardware::security::dice::Config>::value"
    }
   ],
   "linker_set_key" : "_ZTIN7android8internal7details13IsPointerLikeIN4aidl7android8hardware8security4dice6ConfigEE6$valueE",
   "name" : "android::internal::details::IsPointerLike<aidl::android::hardware::security::dice::Config>::(unnamed enum at frameworks/native/libs/binder/ndk/include_cpp/android/binder_to_string.h:118:5)",
   "referenced_type" : "_ZTIN7android8internal7details13IsPointerLikeIN4aidl7android8hardware8security4dice6ConfigEE6$valueE",
   "self_type" : "_ZTIN7android8internal7details13IsPointerLikeIN4aidl7android8hardware8security4dice6ConfigEE6$valueE",
   "size" : 4,
   "source_file" : "frameworks/native/libs/binder/ndk/include_cpp/android/binder_to_string.h",
   "underlying_type" : "_ZTIj"
  },
  {
   "alignment" : 4,
   "enum_fields" :
   [
    {
     "enum_field_value" : 0,
     "name" : "android::internal::details::IsPointerLike<std::array<unsigned char, 32>>::value"
    }
   ],
   "linker_set_key" : "_ZTIN7android8internal7details13IsPointerLikeINSt3__15arrayIhLj32EEEE6$valueE",
   "name" : "android::internal::details::IsPointerLike<std::array<unsigned char, 32>>::(unnamed enum at frameworks/native/libs/binder/ndk/include_cpp/android/binder_to_string.h:118:5)",
   "referenced_type" : "_ZTIN7android8internal7details13IsPointerLikeINSt3__15arrayIhLj32EEEE6$valueE",
   "self_type" : "_ZTIN7android8internal7details13IsPointerLikeINSt3__15arrayIhLj32EEEE6$valueE",
   "size" : 4,
   "source_file" : "frameworks/native/libs/binder/ndk/include_cpp/android/binder_to_string.h",
   "underlying_type" : "_ZTIj"
  },
  {
   "alignment" : 4,
   "enum_fields" :
   [
    {
     "enum_field_value" : 0,
     "name" : "android::internal::details::IsPointerLike<std::array<unsigned char, 64>>::value"
    }
   ],
   "linker_set_key" : "_ZTIN7android8internal7details13IsPointerLikeINSt3__15arrayIhLj64EEEE6$valueE",
   "name" : "android::internal::details::IsPointerLike<std::array<unsigned char, 64>>::(unnamed enum at frameworks/native/libs/binder/ndk/include_cpp/android/binder_to_string.h:118:5)",
   "referenced_type" : "_ZTIN7android8internal7details13IsPointerLikeINSt3__15arrayIhLj64EEEE6$valueE",
   "self_type" : "_ZTIN7android8internal7details13IsPointerLikeINSt3__15arrayIhLj64EEEE6$valueE",
   "size" : 4,
   "source_file" : "frameworks/native/libs/binder/ndk/include_cpp/android/binder_to_string.h",
   "underlying_type" : "_ZTIj"
  },
  {
   "alignment" : 4,
   "enum_fields" :
   [
    {
     "enum_field_value" : 0,
     "name" : "android::internal::details::IsPointerLike<std::vector<unsigned char>>::value"
    }
   ],
   "linker_set_key" : "_ZTIN7android8internal7details13IsPointerLikeINSt3__16vectorIhNS3_9allocatorIhEEEEE6$valueE",
   "name" : "android::internal::details::IsPointerLike<std::vector<unsigned char, std::allocator<unsigned char>>>::(unnamed enum at frameworks/native/libs/binder/ndk/include_cpp/android/binder_to_string.h:118:5)",
   "referenced_type" : "_ZTIN7android8internal7details13IsPointerLikeINSt3__16vectorIhNS3_9allocatorIhEEEEE6$valueE",
   "self_type" : "_ZTIN7android8internal7details13IsPointerLikeINSt3__16vectorIhNS3_9allocatorIhEEEEE6$valueE",
   "size" : 4,
   "source_file" : "frameworks/native/libs/binder/ndk/include_cpp/android/binder_to_string.h",
   "underlying_type" : "_ZTIj"
  },
  {
   "alignment" : 4,
   "enum_fields" :
   [
    {
     "enum_field_value" : 1,
     "name" : "android::internal::details::IsPointerLike<std::optional<std::vector<unsigned char>>>::value"
    }
   ],
   "linker_set_key" : "_ZTIN7android8internal7details13IsPointerLikeINSt3__18optionalINS3_6vectorIhNS3_9allocatorIhEEEEEEE6$valueE",
   "name" : "android::internal::details::IsPointerLike<std::optional<std::vector<unsigned char, std::allocator<unsigned char>>>>::(unnamed enum at frameworks/native/libs/binder/ndk/include_cpp/android/binder_to_string.h:118:5)",
   "referenced_type" : "_ZTIN7android8internal7details13IsPointerLikeINSt3__18optionalINS3_6vectorIhNS3_9allocatorIhEEEEEEE6$valueE",
   "self_type" : "_ZTIN7android8internal7details13IsPointerLikeINSt3__18optionalINS3_6vectorIhNS3_9allocatorIhEEEEEEE6$valueE",
   "size" : 4,
   "source_file" : "frameworks/native/libs/binder/ndk/include_cpp/android/binder_to_string.h",
   "underlying_type" : "_ZTIj"
  },
  {
   "alignment" : 4,
   "enum_fields" :
   [
    {
     "enum_field_value" : 0,
     "name" : "android::internal::details::ToEmptyString<aidl::android::hardware::security::dice::Bcc>::value"
    }
   ],
   "linker_set_key" : "_ZTIN7android8internal7details13ToEmptyStringIN4aidl7android8hardware8security4dice3BccEE6$valueE",
   "name" : "android::internal::details::ToEmptyString<aidl::android::hardware::security::dice::Bcc>::(unnamed enum at frameworks/native/libs/binder/ndk/include_cpp/android/binder_to_string.h:153:5)",
   "referenced_type" : "_ZTIN7android8internal7details13ToEmptyStringIN4aidl7android8hardware8security4dice3BccEE6$valueE",
   "self_type" : "_ZTIN7android8internal7details13ToEmptyStringIN4aidl7android8hardware8security4dice3BccEE6$valueE",
   "size" : 4,
   "source_file" : "frameworks/native/libs/binder/ndk/include_cpp/android/binder_to_string.h",
   "underlying_type" : "_ZTIj"
  },
  {
   "alignment" : 4,
   "enum_fields" :
   [
    {
     "enum_field_value" : 0,
     "name" : "android::internal::details::ToEmptyString<aidl::android::hardware::security::dice::Mode>::value"
    }
   ],
   "linker_set_key" : "_ZTIN7android8internal7details13ToEmptyStringIN4aidl7android8hardware8security4dice4ModeEE6$valueE",
   "name" : "android::internal::details::ToEmptyString<aidl::android::hardware::security::dice::Mode>::(unnamed enum at frameworks/native/libs/binder/ndk/include_cpp/android/binder_to_string.h:153:5)",
   "referenced_type" : "_ZTIN7android8internal7details13ToEmptyStringIN4aidl7android8hardware8security4dice4ModeEE6$valueE",
   "self_type" : "_ZTIN7android8internal7details13ToEmptyStringIN4aidl7android8hardware8security4dice4ModeEE6$valueE",
   "size" : 4,
   "source_file" : "frameworks/native/libs/binder/ndk/include_cpp/android/binder_to_string.h",
   "underlying_type" : "_ZTIj"
  },
  {
   "alignment" : 4,
   "enum_fields" :
   [
    {
     "enum_field_value" : 0,
     "name" : "android::internal::details::ToEmptyString<aidl::android::hardware::security::dice::Config>::value"
    }
   ],
   "linker_set_key" : "_ZTIN7android8internal7details13ToEmptyStringIN4aidl7android8hardware8security4dice6ConfigEE6$valueE",
   "name" : "android::internal::details::ToEmptyString<aidl::android::hardware::security::dice::Config>::(unnamed enum at frameworks/native/libs/binder/ndk/include_cpp/android/binder_to_string.h:153:5)",
   "referenced_type" : "_ZTIN7android8internal7details13ToEmptyStringIN4aidl7android8hardware8security4dice6ConfigEE6$valueE",
   "self_type" : "_ZTIN7android8internal7details13ToEmptyStringIN4aidl7android8hardware8security4dice6ConfigEE6$valueE",
   "size" : 4,
   "source_file" : "frameworks/native/libs/binder/ndk/include_cpp/android/binder_to_string.h",
   "underlying_type" : "_ZTIj"
  },
  {
   "alignment" : 4,
   "enum_fields" :
   [
    {
     "enum_field_value" : 0,
     "name" : "android::internal::details::ToEmptyString<std::array<unsigned char, 32>>::value"
    }
   ],
   "linker_set_key" : "_ZTIN7android8internal7details13ToEmptyStringINSt3__15arrayIhLj32EEEE6$valueE",
   "name" : "android::internal::details::ToEmptyString<std::array<unsigned char, 32>>::(unnamed enum at frameworks/native/libs/binder/ndk/include_cpp/android/binder_to_string.h:153:5)",
   "referenced_type" : "_ZTIN7android8internal7details13ToEmptyStringINSt3__15arrayIhLj32EEEE6$valueE",
   "self_type" : "_ZTIN7android8internal7details13ToEmptyStringINSt3__15arrayIhLj32EEEE6$valueE",
   "size" : 4,
   "source_file" : "frameworks/native/libs/binder/ndk/include_cpp/android/binder_to_string.h",
   "underlying_type" : "_ZTIj"
  },
  {
   "alignment" : 4,
   "enum_fields" :
   [
    {
     "enum_field_value" : 0,
     "name" : "android::internal::details::ToEmptyString<std::array<unsigned char, 64>>::value"
    }
   ],
   "linker_set_key" : "_ZTIN7android8internal7details13ToEmptyStringINSt3__15arrayIhLj64EEEE6$valueE",
   "name" : "android::internal::details::ToEmptyString<std::array<unsigned char, 64>>::(unnamed enum at frameworks/native/libs/binder/ndk/include_cpp/android/binder_to_string.h:153:5)",
   "referenced_type" : "_ZTIN7android8internal7details13ToEmptyStringINSt3__15arrayIhLj64EEEE6$valueE",
   "self_type" : "_ZTIN7android8internal7details13ToEmptyStringINSt3__15arrayIhLj64EEEE6$valueE",
   "size" : 4,
   "source_file" : "frameworks/native/libs/binder/ndk/include_cpp/android/binder_to_string.h",
   "underlying_type" : "_ZTIj"
  },
  {
   "alignment" : 4,
   "enum_fields" :
   [
    {
     "enum_field_value" : 0,
     "name" : "android::internal::details::ToEmptyString<std::vector<unsigned char>>::value"
    }
   ],
   "linker_set_key" : "_ZTIN7android8internal7details13ToEmptyStringINSt3__16vectorIhNS3_9allocatorIhEEEEE6$valueE",
   "name" : "android::internal::details::ToEmptyString<std::vector<unsigned char, std::allocator<unsigned char>>>::(unnamed enum at frameworks/native/libs/binder/ndk/include_cpp/android/binder_to_string.h:153:5)",
   "referenced_type" : "_ZTIN7android8internal7details13ToEmptyStringINSt3__16vectorIhNS3_9allocatorIhEEEEE6$valueE",
   "self_type" : "_ZTIN7android8internal7details13ToEmptyStringINSt3__16vectorIhNS3_9allocatorIhEEEEE6$valueE",
   "size" : 4,
   "source_file" : "frameworks/native/libs/binder/ndk/include_cpp/android/binder_to_string.h",
   "underlying_type" : "_ZTIj"
  },
  {
   "alignment" : 4,
   "enum_fields" :
   [
    {
     "enum_field_value" : 0,
     "name" : "android::internal::details::ToEmptyString<std::optional<std::vector<unsigned char>>>::value"
    }
   ],
   "linker_set_key" : "_ZTIN7android8internal7details13ToEmptyStringINSt3__18optionalINS3_6vectorIhNS3_9allocatorIhEEEEEEE6$valueE",
   "name" : "android::internal::details::ToEmptyString<std::optional<std::vector<unsigned char, std::allocator<unsigned char>>>>::(unnamed enum at frameworks/native/libs/binder/ndk/include_cpp/android/binder_to_string.h:153:5)",
   "referenced_type" : "_ZTIN7android8internal7details13ToEmptyStringINSt3__18optionalINS3_6vectorIhNS3_9allocatorIhEEEEEEE6$valueE",
   "self_type" : "_ZTIN7android8internal7details13ToEmptyStringINSt3__18optionalINS3_6vectorIhNS3_9allocatorIhEEEEEEE6$valueE",
   "size" : 4,
   "source_file" : "frameworks/native/libs/binder/ndk/include_cpp/android/binder_to_string.h",
   "underlying_type" : "_ZTIj"
  },
  {
   "alignment" : 4,
   "enum_fields" :
   [
    {
     "enum_field_value" : 0,
     "name" : "android::internal::details::ToEmptyString<unsigned char>::value"
    }
   ],
   "linker_set_key" : "_ZTIN7android8internal7details13ToEmptyStringIhE6$valueE",
   "name" : "android::internal::details::ToEmptyString<unsigned char>::(unnamed enum at frameworks/native/libs/binder/ndk/include_cpp/android/binder_to_string.h:153:5)",
   "referenced_type" : "_ZTIN7android8internal7details13ToEmptyStringIhE6$valueE",
   "self_type" : "_ZTIN7android8internal7details13ToEmptyStringIhE6$valueE",
   "size" : 4,
   "source_file" : "frameworks/native/libs/binder/ndk/include_cpp/android/binder_to_string.h",
   "underlying_type" : "_ZTIj"
  },
  {
   "alignment" : 4,
   "enum_fields" :
   [
    {
     "enum_field_value" : 1,
     "name" : "android::internal::details::HasToStringMethod<aidl::android::hardware::security::dice::Bcc>::value"
    }
   ],
   "linker_set_key" : "_ZTIN7android8internal7details17HasToStringMethodIN4aidl7android8hardware8security4dice3BccEE6$valueE",
   "name" : "android::internal::details::HasToStringMethod<aidl::android::hardware::security::dice::Bcc>::(unnamed enum at frameworks/native/libs/binder/ndk/include_cpp/android/binder_to_string.h:77:5)",
   "referenced_type" : "_ZTIN7android8internal7details17HasToStringMethodIN4aidl7android8hardware8security4dice3BccEE6$valueE",
   "self_type" : "_ZTIN7android8internal7details17HasToStringMethodIN4aidl7android8hardware8security4dice3BccEE6$valueE",
   "size" : 4,
   "source_file" : "frameworks/native/libs/binder/ndk/include_cpp/android/binder_to_string.h",
   "underlying_type" : "_ZTIj"
  },
  {
   "alignment" : 4,
   "enum_fields" :
   [
    {
     "enum_field_value" : 0,
     "name" : "android::internal::details::HasToStringMethod<aidl::android::hardware::security::dice::Mode>::value"
    }
   ],
   "linker_set_key" : "_ZTIN7android8internal7details17HasToStringMethodIN4aidl7android8hardware8security4dice4ModeEE6$valueE",
   "name" : "android::internal::details::HasToStringMethod<aidl::android::hardware::security::dice::Mode>::(unnamed enum at frameworks/native/libs/binder/ndk/include_cpp/android/binder_to_string.h:77:5)",
   "referenced_type" : "_ZTIN7android8internal7details17HasToStringMethodIN4aidl7android8hardware8security4dice4ModeEE6$valueE",
   "self_type" : "_ZTIN7android8internal7details17HasToStringMethodIN4aidl7android8hardware8security4dice4ModeEE6$valueE",
   "size" : 4,
   "source_file" : "frameworks/native/libs/binder/ndk/include_cpp/android/binder_to_string.h",
   "underlying_type" : "_ZTIj"
  },
  {
   "alignment" : 4,
   "enum_fields" :
   [
    {
     "enum_field_value" : 1,
     "name" : "android::internal::details::HasToStringMethod<aidl::android::hardware::security::dice::Config>::value"
    }
   ],
   "linker_set_key" : "_ZTIN7android8internal7details17HasToStringMethodIN4aidl7android8hardware8security4dice6ConfigEE6$valueE",
   "name" : "android::internal::details::HasToStringMethod<aidl::android::hardware::security::dice::Config>::(unnamed enum at frameworks/native/libs/binder/ndk/include_cpp/android/binder_to_string.h:77:5)",
   "referenced_type" : "_ZTIN7android8internal7details17HasToStringMethodIN4aidl7android8hardware8security4dice6ConfigEE6$valueE",
   "self_type" : "_ZTIN7android8internal7details17HasToStringMethodIN4aidl7android8hardware8security4dice6ConfigEE6$valueE",
   "size" : 4,
   "source_file" : "frameworks/native/libs/binder/ndk/include_cpp/android/binder_to_string.h",
   "underlying_type" : "_ZTIj"
  },
  {
   "alignment" : 4,
   "enum_fields" :
   [
    {
     "enum_field_value" : 0,
     "name" : "android::internal::details::HasToStringMethod<std::array<unsigned char, 32>>::value"
    }
   ],
   "linker_set_key" : "_ZTIN7android8internal7details17HasToStringMethodINSt3__15arrayIhLj32EEEE6$valueE",
   "name" : "android::internal::details::HasToStringMethod<std::array<unsigned char, 32>>::(unnamed enum at frameworks/native/libs/binder/ndk/include_cpp/android/binder_to_string.h:77:5)",
   "referenced_type" : "_ZTIN7android8internal7details17HasToStringMethodINSt3__15arrayIhLj32EEEE6$valueE",
   "self_type" : "_ZTIN7android8internal7details17HasToStringMethodINSt3__15arrayIhLj32EEEE6$valueE",
   "size" : 4,
   "source_file" : "frameworks/native/libs/binder/ndk/include_cpp/android/binder_to_string.h",
   "underlying_type" : "_ZTIj"
  },
  {
   "alignment" : 4,
   "enum_fields" :
   [
    {
     "enum_field_value" : 0,
     "name" : "android::internal::details::HasToStringMethod<std::array<unsigned char, 64>>::value"
    }
   ],
   "linker_set_key" : "_ZTIN7android8internal7details17HasToStringMethodINSt3__15arrayIhLj64EEEE6$valueE",
   "name" : "android::internal::details::HasToStringMethod<std::array<unsigned char, 64>>::(unnamed enum at frameworks/native/libs/binder/ndk/include_cpp/android/binder_to_string.h:77:5)",
   "referenced_type" : "_ZTIN7android8internal7details17HasToStringMethodINSt3__15arrayIhLj64EEEE6$valueE",
   "self_type" : "_ZTIN7android8internal7details17HasToStringMethodINSt3__15arrayIhLj64EEEE6$valueE",
   "size" : 4,
   "source_file" : "frameworks/native/libs/binder/ndk/include_cpp/android/binder_to_string.h",
   "underlying_type" : "_ZTIj"
  },
  {
   "alignment" : 4,
   "enum_fields" :
   [
    {
     "enum_field_value" : 0,
     "name" : "android::internal::details::HasToStringMethod<std::vector<unsigned char>>::value"
    }
   ],
   "linker_set_key" : "_ZTIN7android8internal7details17HasToStringMethodINSt3__16vectorIhNS3_9allocatorIhEEEEE6$valueE",
   "name" : "android::internal::details::HasToStringMethod<std::vector<unsigned char, std::allocator<unsigned char>>>::(unnamed enum at frameworks/native/libs/binder/ndk/include_cpp/android/binder_to_string.h:77:5)",
   "referenced_type" : "_ZTIN7android8internal7details17HasToStringMethodINSt3__16vectorIhNS3_9allocatorIhEEEEE6$valueE",
   "self_type" : "_ZTIN7android8internal7details17HasToStringMethodINSt3__16vectorIhNS3_9allocatorIhEEEEE6$valueE",
   "size" : 4,
   "source_file" : "frameworks/native/libs/binder/ndk/include_cpp/android/binder_to_string.h",
   "underlying_type" : "_ZTIj"
  },
  {
   "alignment" : 4,
   "enum_fields" :
   [
    {
     "enum_field_value" : 1,
     "name" : "android::internal::details::HasToStringFunction<aidl::android::hardware::security::dice::Mode>::value"
    }
   ],
   "linker_set_key" : "_ZTIN7android8internal7details19HasToStringFunctionIN4aidl7android8hardware8security4dice4ModeEE6$valueE",
   "name" : "android::internal::details::HasToStringFunction<aidl::android::hardware::security::dice::Mode>::(unnamed enum at frameworks/native/libs/binder/ndk/include_cpp/android/binder_to_string.h:89:5)",
   "referenced_type" : "_ZTIN7android8internal7details19HasToStringFunctionIN4aidl7android8hardware8security4dice4ModeEE6$valueE",
   "self_type" : "_ZTIN7android8internal7details19HasToStringFunctionIN4aidl7android8hardware8security4dice4ModeEE6$valueE",
   "size" : 4,
   "source_file" : "frameworks/native/libs/binder/ndk/include_cpp/android/binder_to_string.h",
   "underlying_type" : "_ZTIj"
  },
  {
   "alignment" : 4,
   "enum_fields" :
   [
    {
     "enum_field_value" : 0,
     "name" : "android::internal::details::HasToStringFunction<std::array<unsigned char, 32>>::value"
    }
   ],
   "linker_set_key" : "_ZTIN7android8internal7details19HasToStringFunctionINSt3__15arrayIhLj32EEEE6$valueE",
   "name" : "android::internal::details::HasToStringFunction<std::array<unsigned char, 32>>::(unnamed enum at frameworks/native/libs/binder/ndk/include_cpp/android/binder_to_string.h:89:5)",
   "referenced_type" : "_ZTIN7android8internal7details19HasToStringFunctionINSt3__15arrayIhLj32EEEE6$valueE",
   "self_type" : "_ZTIN7android8internal7details19HasToStringFunctionINSt3__15arrayIhLj32EEEE6$valueE",
   "size" : 4,
   "source_file" : "frameworks/native/libs/binder/ndk/include_cpp/android/binder_to_string.h",
   "underlying_type" : "_ZTIj"
  },
  {
   "alignment" : 4,
   "enum_fields" :
   [
    {
     "enum_field_value" : 0,
     "name" : "android::internal::details::HasToStringFunction<std::array<unsigned char, 64>>::value"
    }
   ],
   "linker_set_key" : "_ZTIN7android8internal7details19HasToStringFunctionINSt3__15arrayIhLj64EEEE6$valueE",
   "name" : "android::internal::details::HasToStringFunction<std::array<unsigned char, 64>>::(unnamed enum at frameworks/native/libs/binder/ndk/include_cpp/android/binder_to_string.h:89:5)",
   "referenced_type" : "_ZTIN7android8internal7details19HasToStringFunctionINSt3__15arrayIhLj64EEEE6$valueE",
   "self_type" : "_ZTIN7android8internal7details19HasToStringFunctionINSt3__15arrayIhLj64EEEE6$valueE",
   "size" : 4,
   "source_file" : "frameworks/native/libs/binder/ndk/include_cpp/android/binder_to_string.h",
   "underlying_type" : "_ZTIj"
  },
  {
   "alignment" : 4,
   "enum_fields" :
   [
    {
     "enum_field_value" : 0,
     "name" : "android::internal::details::HasToStringFunction<std::vector<unsigned char>>::value"
    }
   ],
   "linker_set_key" : "_ZTIN7android8internal7details19HasToStringFunctionINSt3__16vectorIhNS3_9allocatorIhEEEEE6$valueE",
   "name" : "android::internal::details::HasToStringFunction<std::vector<unsigned char, std::allocator<unsigned char>>>::(unnamed enum at frameworks/native/libs/binder/ndk/include_cpp/android/binder_to_string.h:89:5)",
   "referenced_type" : "_ZTIN7android8internal7details19HasToStringFunctionINSt3__16vectorIhNS3_9allocatorIhEEEEE6$valueE",
   "self_type" : "_ZTIN7android8internal7details19HasToStringFunctionINSt3__16vectorIhNS3_9allocatorIhEEEEE6$valueE",
   "size" : 4,
   "source_file" : "frameworks/native/libs/binder/ndk/include_cpp/android/binder_to_string.h",
   "underlying_type" : "_ZTIj"
  }
 ],
 "function_types" :
 [
  {
   "alignment" : 4,
   "linker_set_key" : "_ZTIFiP8AIBinderjPK7AParcelPS1_E",
   "name" : "int (AIBinder *, unsigned int, const AParcel *, AParcel *)",
   "parameters" :
   [
    {
     "referenced_type" : "_ZTIP8AIBinder"
    },
    {
     "referenced_type" : "_ZTIj"
    },
    {
     "referenced_type" : "_ZTIPK7AParcel"
    },
    {
     "referenced_type" : "_ZTIP7AParcel"
    }
   ],
   "referenced_type" : "_ZTIFiP8AIBinderjPK7AParcelPS1_E",
   "return_type" : "_ZTIi",
   "self_type" : "_ZTIFiP8AIBinderjPK7AParcelPS1_E",
   "source_file" : "frameworks/native/libs/binder/ndk/include_cpp/android/binder_interface_utils.h"
  }
 ],
 "functions" :
 [
  {
   "function_name" : "ndk::BnCInterface<aidl::android::hardware::security::dice::IDiceDevice>::asBinder",
   "linker_set_key" : "_ZN3ndk12BnCInterfaceIN4aidl7android8hardware8security4dice11IDiceDeviceEE8asBinderEv",
   "parameters" :
   [
    {
     "is_this_ptr" : true,
     "referenced_type" : "_ZTIPN3ndk12BnCInterfaceIN4aidl7android8hardware8security4dice11IDiceDeviceEEE"
    }
   ],
   "return_type" : "_ZTIN3ndk10SpAIBinderE",
   "source_file" : "frameworks/native/libs/binder/ndk/include_cpp/android/binder_interface_utils.h"
  },
  {
   "function_name" : "ndk::BpCInterface<aidl::android::hardware::security::dice::IDiceDevice>::asBinder",
   "linker_set_key" : "_ZN3ndk12BpCInterfaceIN4aidl7android8hardware8security4dice11IDiceDeviceEE8asBinderEv",
   "parameters" :
   [
    {
     "is_this_ptr" : true,
     "referenced_type" : "_ZTIPN3ndk12BpCInterfaceIN4aidl7android8hardware8security4dice11IDiceDeviceEEE"
    }
   ],
   "return_type" : "_ZTIN3ndk10SpAIBinderE",
   "source_file" : "frameworks/native/libs/binder/ndk/include_cpp/android/binder_interface_utils.h"
  },
  {
   "function_name" : "ndk::AParcel_readStdVectorParcelableElement",
   "linker_set_key" : "_ZN3ndk38AParcel_readStdVectorParcelableElementIN4aidl7android8hardware8security4dice11InputValuesEEEiPK7AParcelPvj",
   "parameters" :
   [
    {
     "referenced_type" : "_ZTIPK7AParcel"
    },
    {
     "referenced_type" : "_ZTIPv"
    },
    {
     "referenced_type" : "_ZTIj"
    }
   ],
   "return_type" : "_ZTIi",
   "source_file" : "frameworks/native/libs/binder/ndk/include_cpp/android/binder_parcel_utils.h",
   "template_args" :
   [
    "_ZTIN4aidl7android8hardware8security4dice11InputValuesE"
   ]
  },
  {
   "function_name" : "ndk::AParcel_writeStdVectorParcelableElement",
   "linker_set_key" : "_ZN3ndk39AParcel_writeStdVectorParcelableElementIN4aidl7android8hardware8security4dice11InputValuesEEEiP7AParcelPKvj",
   "parameters" :
   [
    {
     "referenced_type" : "_ZTIP7AParcel"
    },
    {
     "referenced_type" : "_ZTIPKv"
    },
    {
     "referenced_type" : "_ZTIj"
    }
   ],
   "return_type" : "_ZTIi",
   "source_file" : "frameworks/native/libs/binder/ndk/include_cpp/android/binder_parcel_utils.h",
   "template_args" :
   [
    "_ZTIN4aidl7android8hardware8security4dice11InputValuesE"
   ]
  },
  {
   "function_name" : "aidl::android::hardware::security::dice::BccHandover::readFromParcel",
   "linker_set_key" : "_ZN4aidl7android8hardware8security4dice11BccHandover14readFromParcelEPK7AParcel",
   "parameters" :
   [
    {
     "is_this_ptr" : true,
     "referenced_type" : "_ZTIPN4aidl7android8hardware8security4dice11BccHandoverE"
    },
    {
     "referenced_type" : "_ZTIPK7AParcel"
    }
   ],
   "return_type" : "_ZTIi",
   "source_file" : "out/soong/.intermediates/hardware/interfaces/security/dice/aidl/android.hardware.security.dice-V1-ndk-source/gen/include/aidl/android/hardware/security/dice/BccHandover.h"
  },
  {
   "function_name" : "aidl::android::hardware::security::dice::IDiceDevice::fromBinder",
   "linker_set_key" : "_ZN4aidl7android8hardware8security4dice11IDiceDevice10fromBinderERKN3ndk10SpAIBinderE",
   "parameters" :
   [
    {
     "referenced_type" : "_ZTIRKN3ndk10SpAIBinderE"
    }
   ],
   "return_type" : "_ZTINSt3__110shared_ptrIN4aidl7android8hardware8security4dice11IDiceDeviceEEE",
   "source_file" : "out/soong/.intermediates/hardware/interfaces/security/dice/aidl/android.hardware.security.dice-V1-ndk-source/gen/include/aidl/android/hardware/security/dice/IDiceDevice.h"
  },
  {
   "function_name" : "aidl::android::hardware::security::dice::IDiceDevice::writeToParcel",
   "linker_set_key" : "_ZN4aidl7android8hardware8security4dice11IDiceDevice13writeToParcelEP7AParcelRKNSt3__110shared_ptrIS4_EE",
   "parameters" :
   [
    {
     "referenced_type" : "_ZTIP7AParcel"
    },
    {
     "referenced_type" : "_ZTIRKNSt3__110shared_ptrIN4aidl7android8hardware8security4dice11IDiceDeviceEEE"
    }
   ],
   "return_type" : "_ZTIi",
   "source_file" : "out/soong/.intermediates/hardware/interfaces/security/dice/aidl/android.hardware.security.dice-V1-ndk-source/gen/include/aidl/android/hardware/security/dice/IDiceDevice.h"
  },
  {
   "function_name" : "aidl::android::hardware::security::dice::IDiceDevice::getDefaultImpl",
   "linker_set_key" : "_ZN4aidl7android8hardware8security4dice11IDiceDevice14getDefaultImplEv",
   "return_type" : "_ZTIRKNSt3__110shared_ptrIN4aidl7android8hardware8security4dice11IDiceDeviceEEE",
   "source_file" : "out/soong/.intermediates/hardware/interfaces/security/dice/aidl/android.hardware.security.dice-V1-ndk-source/gen/include/aidl/android/hardware/security/dice/IDiceDevice.h"
  },
  {
   "function_name" : "aidl::android::hardware::security::dice::IDiceDevice::readFromParcel",
   "linker_set_key" : "_ZN4aidl7android8hardware8security4dice11IDiceDevice14readFromParcelEPK7AParcelPNSt3__110shared_ptrIS4_EE",
   "parameters" :
   [
    {
     "referenced_type" : "_ZTIPK7AParcel"
    },
    {
     "referenced_type" : "_ZTIPNSt3__110shared_ptrIN4aidl7android8hardware8security4dice11IDiceDeviceEEE"
    }
   ],
   "return_type" : "_ZTIi",
   "source_file" : "out/soong/.intermediates/hardware/interfaces/security/dice/aidl/android.hardware.security.dice-V1-ndk-source/gen/include/aidl/android/hardware/security/dice/IDiceDevice.h"
  },
  {
   "function_name" : "aidl::android::hardware::security::dice::IDiceDevice::setDefaultImpl",
   "linker_set_key" : "_ZN4aidl7android8hardware8security4dice11IDiceDevice14setDefaultImplERKNSt3__110shared_ptrIS4_EE",
   "parameters" :
   [
    {
     "referenced_type" : "_ZTIRKNSt3__110shared_ptrIN4aidl7android8hardware8security4dice11IDiceDeviceEEE"
    }
   ],
   "return_type" : "_ZTIb",
   "source_file" : "out/soong/.intermediates/hardware/interfaces/security/dice/aidl/android.hardware.security.dice-V1-ndk-source/gen/include/aidl/android/hardware/security/dice/IDiceDevice.h"
  },
  {
   "function_name" : "aidl::android::hardware::security::dice::IDiceDevice::IDiceDevice",
   "linker_set_key" : "_ZN4aidl7android8hardware8security4dice11IDiceDeviceC2Ev",
   "parameters" :
   [
    {
     "is_this_ptr" : true,
     "referenced_type" : "_ZTIPN4aidl7android8hardware8security4dice11IDiceDeviceE"
    }
   ],
   "return_type" : "_ZTIv",
   "source_file" : "out/soong/.intermediates/hardware/interfaces/security/dice/aidl/android.hardware.security.dice-V1-ndk-source/gen/include/aidl/android/hardware/security/dice/IDiceDevice.h"
  },
  {
   "function_name" : "aidl::android::hardware::security::dice::IDiceDevice::~IDiceDevice",
   "linker_set_key" : "_ZN4aidl7android8hardware8security4dice11IDiceDeviceD0Ev",
   "parameters" :
   [
    {
     "is_this_ptr" : true,
     "referenced_type" : "_ZTIPN4aidl7android8hardware8security4dice11IDiceDeviceE"
    }
   ],
   "return_type" : "_ZTIv",
   "source_file" : "out/soong/.intermediates/hardware/interfaces/security/dice/aidl/android.hardware.security.dice-V1-ndk-source/gen/include/aidl/android/hardware/security/dice/IDiceDevice.h"
  },
  {
   "function_name" : "aidl::android::hardware::security::dice::IDiceDevice::~IDiceDevice",
   "linker_set_key" : "_ZN4aidl7android8hardware8security4dice11IDiceDeviceD1Ev",
   "parameters" :
   [
    {
     "is_this_ptr" : true,
     "referenced_type" : "_ZTIPN4aidl7android8hardware8security4dice11IDiceDeviceE"
    }
   ],
   "return_type" : "_ZTIv",
   "source_file" : "out/soong/.intermediates/hardware/interfaces/security/dice/aidl/android.hardware.security.dice-V1-ndk-source/gen/include/aidl/android/hardware/security/dice/IDiceDevice.h"
  },
  {
   "function_name" : "aidl::android::hardware::security::dice::IDiceDevice::~IDiceDevice",
   "linker_set_key" : "_ZN4aidl7android8hardware8security4dice11IDiceDeviceD2Ev",
   "parameters" :
   [
    {
     "is_this_ptr" : true,
     "referenced_type" : "_ZTIPN4aidl7android8hardware8security4dice11IDiceDeviceE"
    }
   ],
   "return_type" : "_ZTIv",
   "source_file" : "out/soong/.intermediates/hardware/interfaces/security/dice/aidl/android.hardware.security.dice-V1-ndk-source/gen/include/aidl/android/hardware/security/dice/IDiceDevice.h"
  },
  {
   "function_name" : "aidl::android::hardware::security::dice::InputValues::readFromParcel",
   "linker_set_key" : "_ZN4aidl7android8hardware8security4dice11InputValues14readFromParcelEPK7AParcel",
   "parameters" :
   [
    {
     "is_this_ptr" : true,
     "referenced_type" : "_ZTIPN4aidl7android8hardware8security4dice11InputValuesE"
    },
    {
     "referenced_type" : "_ZTIPK7AParcel"
    }
   ],
   "return_type" : "_ZTIi",
   "source_file" : "out/soong/.intermediates/hardware/interfaces/security/dice/aidl/android.hardware.security.dice-V1-ndk-source/gen/include/aidl/android/hardware/security/dice/InputValues.h"
  },
  {
   "access" : "protected",
   "function_name" : "aidl::android::hardware::security::dice::BnDiceDevice::createBinder",
   "linker_set_key" : "_ZN4aidl7android8hardware8security4dice12BnDiceDevice12createBinderEv",
   "parameters" :
   [
    {
     "is_this_ptr" : true,
     "referenced_type" : "_ZTIPN4aidl7android8hardware8security4dice12BnDiceDeviceE"
    }
   ],
   "return_type" : "_ZTIN3ndk10SpAIBinderE",
   "source_file" : "out/soong/.intermediates/hardware/interfaces/security/dice/aidl/android.hardware.security.dice-V1-ndk-source/gen/include/aidl/android/hardware/security/dice/BnDiceDevice.h"
  },
  {
   "function_name" : "aidl::android::hardware::security::dice::BnDiceDevice::getInterfaceHash",
   "linker_set_key" : "_ZN4aidl7android8hardware8security4dice12BnDiceDevice16getInterfaceHashEPNSt3__112basic_stringIcNS5_11char_traitsIcEENS5_9allocatorIcEEEE",
   "parameters" :
   [
    {
     "is_this_ptr" : true,
     "referenced_type" : "_ZTIPN4aidl7android8hardware8security4dice12BnDiceDeviceE"
    },
    {
     "referenced_type" : "_ZTIPNSt3__112basic_stringIcNS_11char_traitsIcEENS_9allocatorIcEEEE"
    }
   ],
   "return_type" : "_ZTIN3ndk13ScopedAStatusE",
   "source_file" : "out/soong/.intermediates/hardware/interfaces/security/dice/aidl/android.hardware.security.dice-V1-ndk-source/gen/include/aidl/android/hardware/security/dice/BnDiceDevice.h"
  },
  {
   "function_name" : "aidl::android::hardware::security::dice::BnDiceDevice::getInterfaceVersion",
   "linker_set_key" : "_ZN4aidl7android8hardware8security4dice12BnDiceDevice19getInterfaceVersionEPi",
   "parameters" :
   [
    {
     "is_this_ptr" : true,
     "referenced_type" : "_ZTIPN4aidl7android8hardware8security4dice12BnDiceDeviceE"
    },
    {
     "referenced_type" : "_ZTIPi"
    }
   ],
   "return_type" : "_ZTIN3ndk13ScopedAStatusE",
   "source_file" : "out/soong/.intermediates/hardware/interfaces/security/dice/aidl/android.hardware.security.dice-V1-ndk-source/gen/include/aidl/android/hardware/security/dice/BnDiceDevice.h"
  },
  {
   "function_name" : "aidl::android::hardware::security::dice::BnDiceDevice::BnDiceDevice",
   "linker_set_key" : "_ZN4aidl7android8hardware8security4dice12BnDiceDeviceC2Ev",
   "parameters" :
   [
    {
     "is_this_ptr" : true,
     "referenced_type" : "_ZTIPN4aidl7android8hardware8security4dice12BnDiceDeviceE"
    }
   ],
   "return_type" : "_ZTIv",
   "source_file" : "out/soong/.intermediates/hardware/interfaces/security/dice/aidl/android.hardware.security.dice-V1-ndk-source/gen/include/aidl/android/hardware/security/dice/BnDiceDevice.h"
  },
  {
   "function_name" : "aidl::android::hardware::security::dice::BnDiceDevice::~BnDiceDevice",
   "linker_set_key" : "_ZN4aidl7android8hardware8security4dice12BnDiceDeviceD0Ev",
   "parameters" :
   [
    {
     "is_this_ptr" : true,
     "referenced_type" : "_ZTIPN4aidl7android8hardware8security4dice12BnDiceDeviceE"
    }
   ],
   "return_type" : "_ZTIv",
   "source_file" : "out/soong/.intermediates/hardware/interfaces/security/dice/aidl/android.hardware.security.dice-V1-ndk-source/gen/include/aidl/android/hardware/security/dice/BnDiceDevice.h"
  },
  {
   "function_name" : "aidl::android::hardware::security::dice::BnDiceDevice::~BnDiceDevice",
   "linker_set_key" : "_ZN4aidl7android8hardware8security4dice12BnDiceDeviceD1Ev",
   "parameters" :
   [
    {
     "is_this_ptr" : true,
     "referenced_type" : "_ZTIPN4aidl7android8hardware8security4dice12BnDiceDeviceE"
    }
   ],
   "return_type" : "_ZTIv",
   "source_file" : "out/soong/.intermediates/hardware/interfaces/security/dice/aidl/android.hardware.security.dice-V1-ndk-source/gen/include/aidl/android/hardware/security/dice/BnDiceDevice.h"
  },
  {
   "function_name" : "aidl::android::hardware::security::dice::BnDiceDevice::~BnDiceDevice",
   "linker_set_key" : "_ZN4aidl7android8hardware8security4dice12BnDiceDeviceD2Ev",
   "parameters" :
   [
    {
     "is_this_ptr" : true,
     "referenced_type" : "_ZTIPN4aidl7android8hardware8security4dice12BnDiceDeviceE"
    }
   ],
   "return_type" : "_ZTIv",
   "source_file" : "out/soong/.intermediates/hardware/interfaces/security/dice/aidl/android.hardware.security.dice-V1-ndk-source/gen/include/aidl/android/hardware/security/dice/BnDiceDevice.h"
  },
  {
   "function_name" : "aidl::android::hardware::security::dice::BpDiceDevice::getInterfaceHash",
   "linker_set_key" : "_ZN4aidl7android8hardware8security4dice12BpDiceDevice16getInterfaceHashEPNSt3__112basic_stringIcNS5_11char_traitsIcEENS5_9allocatorIcEEEE",
   "parameters" :
   [
    {
     "is_this_ptr" : true,
     "referenced_type" : "_ZTIPN4aidl7android8hardware8security4dice12BpDiceDeviceE"
    },
    {
     "referenced_type" : "_ZTIPNSt3__112basic_stringIcNS_11char_traitsIcEENS_9allocatorIcEEEE"
    }
   ],
   "return_type" : "_ZTIN3ndk13ScopedAStatusE",
   "source_file" : "out/soong/.intermediates/hardware/interfaces/security/dice/aidl/android.hardware.security.dice-V1-ndk-source/gen/include/aidl/android/hardware/security/dice/BpDiceDevice.h"
  },
  {
   "function_name" : "aidl::android::hardware::security::dice::BpDiceDevice::getAttestationChain",
   "linker_set_key" : "_ZN4aidl7android8hardware8security4dice12BpDiceDevice19getAttestationChainERKNSt3__16vectorINS3_11InputValuesENS5_9allocatorIS7_EEEEPNS3_3BccE",
   "parameters" :
   [
    {
     "is_this_ptr" : true,
     "referenced_type" : "_ZTIPN4aidl7android8hardware8security4dice12BpDiceDeviceE"
    },
    {
     "referenced_type" : "_ZTIRKNSt3__16vectorIN4aidl7android8hardware8security4dice11InputValuesENS_9allocatorIS6_EEEE"
    },
    {
     "referenced_type" : "_ZTIPN4aidl7android8hardware8security4dice3BccE"
    }
   ],
   "return_type" : "_ZTIN3ndk13ScopedAStatusE",
   "source_file" : "out/soong/.intermediates/hardware/interfaces/security/dice/aidl/android.hardware.security.dice-V1-ndk-source/gen/include/aidl/android/hardware/security/dice/BpDiceDevice.h"
  },
  {
   "function_name" : "aidl::android::hardware::security::dice::BpDiceDevice::getInterfaceVersion",
   "linker_set_key" : "_ZN4aidl7android8hardware8security4dice12BpDiceDevice19getInterfaceVersionEPi",
   "parameters" :
   [
    {
     "is_this_ptr" : true,
     "referenced_type" : "_ZTIPN4aidl7android8hardware8security4dice12BpDiceDeviceE"
    },
    {
     "referenced_type" : "_ZTIPi"
    }
   ],
   "return_type" : "_ZTIN3ndk13ScopedAStatusE",
   "source_file" : "out/soong/.intermediates/hardware/interfaces/security/dice/aidl/android.hardware.security.dice-V1-ndk-source/gen/include/aidl/android/hardware/security/dice/BpDiceDevice.h"
  },
  {
   "function_name" : "aidl::android::hardware::security::dice::BpDiceDevice::sign",
   "linker_set_key" : "_ZN4aidl7android8hardware8security4dice12BpDiceDevice4signERKNSt3__16vectorINS3_11InputValuesENS5_9allocatorIS7_EEEERKNS6_IhNS8_IhEEEEPNS3_9SignatureE",
   "parameters" :
   [
    {
     "is_this_ptr" : true,
     "referenced_type" : "_ZTIPN4aidl7android8hardware8security4dice12BpDiceDeviceE"
    },
    {
     "referenced_type" : "_ZTIRKNSt3__16vectorIN4aidl7android8hardware8security4dice11InputValuesENS_9allocatorIS6_EEEE"
    },
    {
     "referenced_type" : "_ZTIRKNSt3__16vectorIhNS_9allocatorIhEEEE"
    },
    {
     "referenced_type" : "_ZTIPN4aidl7android8hardware8security4dice9SignatureE"
    }
   ],
   "return_type" : "_ZTIN3ndk13ScopedAStatusE",
   "source_file" : "out/soong/.intermediates/hardware/interfaces/security/dice/aidl/android.hardware.security.dice-V1-ndk-source/gen/include/aidl/android/hardware/security/dice/BpDiceDevice.h"
  },
  {
   "function_name" : "aidl::android::hardware::security::dice::BpDiceDevice::demote",
   "linker_set_key" : "_ZN4aidl7android8hardware8security4dice12BpDiceDevice6demoteERKNSt3__16vectorINS3_11InputValuesENS5_9allocatorIS7_EEEE",
   "parameters" :
   [
    {
     "is_this_ptr" : true,
     "referenced_type" : "_ZTIPN4aidl7android8hardware8security4dice12BpDiceDeviceE"
    },
    {
     "referenced_type" : "_ZTIRKNSt3__16vectorIN4aidl7android8hardware8security4dice11InputValuesENS_9allocatorIS6_EEEE"
    }
   ],
   "return_type" : "_ZTIN3ndk13ScopedAStatusE",
   "source_file" : "out/soong/.intermediates/hardware/interfaces/security/dice/aidl/android.hardware.security.dice-V1-ndk-source/gen/include/aidl/android/hardware/security/dice/BpDiceDevice.h"
  },
  {
   "function_name" : "aidl::android::hardware::security::dice::BpDiceDevice::derive",
   "linker_set_key" : "_ZN4aidl7android8hardware8security4dice12BpDiceDevice6deriveERKNSt3__16vectorINS3_11InputValuesENS5_9allocatorIS7_EEEEPNS3_11BccHandoverE",
   "parameters" :
   [
    {
     "is_this_ptr" : true,
     "referenced_type" : "_ZTIPN4aidl7android8hardware8security4dice12BpDiceDeviceE"
    },
    {
     "referenced_type" : "_ZTIRKNSt3__16vectorIN4aidl7android8hardware8security4dice11InputValuesENS_9allocatorIS6_EEEE"
    },
    {
     "referenced_type" : "_ZTIPN4aidl7android8hardware8security4dice11BccHandoverE"
    }
   ],
   "return_type" : "_ZTIN3ndk13ScopedAStatusE",
   "source_file" : "out/soong/.intermediates/hardware/interfaces/security/dice/aidl/android.hardware.security.dice-V1-ndk-source/gen/include/aidl/android/hardware/security/dice/BpDiceDevice.h"
  },
  {
   "function_name" : "aidl::android::hardware::security::dice::BpDiceDevice::BpDiceDevice",
   "linker_set_key" : "_ZN4aidl7android8hardware8security4dice12BpDiceDeviceC1ERKN3ndk10SpAIBinderE",
   "parameters" :
   [
    {
     "is_this_ptr" : true,
     "referenced_type" : "_ZTIPN4aidl7android8hardware8security4dice12BpDiceDeviceE"
    },
    {
     "referenced_type" : "_ZTIRKN3ndk10SpAIBinderE"
    }
   ],
   "return_type" : "_ZTIv",
   "source_file" : "out/soong/.intermediates/hardware/interfaces/security/dice/aidl/android.hardware.security.dice-V1-ndk-source/gen/include/aidl/android/hardware/security/dice/BpDiceDevice.h"
  },
  {
   "function_name" : "aidl::android::hardware::security::dice::BpDiceDevice::BpDiceDevice",
   "linker_set_key" : "_ZN4aidl7android8hardware8security4dice12BpDiceDeviceC2ERKN3ndk10SpAIBinderE",
   "parameters" :
   [
    {
     "is_this_ptr" : true,
     "referenced_type" : "_ZTIPN4aidl7android8hardware8security4dice12BpDiceDeviceE"
    },
    {
     "referenced_type" : "_ZTIRKN3ndk10SpAIBinderE"
    }
   ],
   "return_type" : "_ZTIv",
   "source_file" : "out/soong/.intermediates/hardware/interfaces/security/dice/aidl/android.hardware.security.dice-V1-ndk-source/gen/include/aidl/android/hardware/security/dice/BpDiceDevice.h"
  },
  {
   "function_name" : "aidl::android::hardware::security::dice::BpDiceDevice::~BpDiceDevice",
   "linker_set_key" : "_ZN4aidl7android8hardware8security4dice12BpDiceDeviceD0Ev",
   "parameters" :
   [
    {
     "is_this_ptr" : true,
     "referenced_type" : "_ZTIPN4aidl7android8hardware8security4dice12BpDiceDeviceE"
    }
   ],
   "return_type" : "_ZTIv",
   "source_file" : "out/soong/.intermediates/hardware/interfaces/security/dice/aidl/android.hardware.security.dice-V1-ndk-source/gen/include/aidl/android/hardware/security/dice/BpDiceDevice.h"
  },
  {
   "function_name" : "aidl::android::hardware::security::dice::BpDiceDevice::~BpDiceDevice",
   "linker_set_key" : "_ZN4aidl7android8hardware8security4dice12BpDiceDeviceD1Ev",
   "parameters" :
   [
    {
     "is_this_ptr" : true,
     "referenced_type" : "_ZTIPN4aidl7android8hardware8security4dice12BpDiceDeviceE"
    }
   ],
   "return_type" : "_ZTIv",
   "source_file" : "out/soong/.intermediates/hardware/interfaces/security/dice/aidl/android.hardware.security.dice-V1-ndk-source/gen/include/aidl/android/hardware/security/dice/BpDiceDevice.h"
  },
  {
   "function_name" : "aidl::android::hardware::security::dice::BpDiceDevice::~BpDiceDevice",
   "linker_set_key" : "_ZN4aidl7android8hardware8security4dice12BpDiceDeviceD2Ev",
   "parameters" :
   [
    {
     "is_this_ptr" : true,
     "referenced_type" : "_ZTIPN4aidl7android8hardware8security4dice12BpDiceDeviceE"
    }
   ],
   "return_type" : "_ZTIv",
   "source_file" : "out/soong/.intermediates/hardware/interfaces/security/dice/aidl/android.hardware.security.dice-V1-ndk-source/gen/include/aidl/android/hardware/security/dice/BpDiceDevice.h"
  },
  {
   "function_name" : "aidl::android::hardware::security::dice::IDiceDeviceDefault::getInterfaceHash",
   "linker_set_key" : "_ZN4aidl7android8hardware8security4dice18IDiceDeviceDefault16getInterfaceHashEPNSt3__112basic_stringIcNS5_11char_traitsIcEENS5_9allocatorIcEEEE",
   "parameters" :
   [
    {
     "is_this_ptr" : true,
     "referenced_type" : "_ZTIPN4aidl7android8hardware8security4dice18IDiceDeviceDefaultE"
    },
    {
     "referenced_type" : "_ZTIPNSt3__112basic_stringIcNS_11char_traitsIcEENS_9allocatorIcEEEE"
    }
   ],
   "return_type" : "_ZTIN3ndk13ScopedAStatusE",
   "source_file" : "out/soong/.intermediates/hardware/interfaces/security/dice/aidl/android.hardware.security.dice-V1-ndk-source/gen/include/aidl/android/hardware/security/dice/IDiceDevice.h"
  },
  {
   "function_name" : "aidl::android::hardware::security::dice::IDiceDeviceDefault::getAttestationChain",
   "linker_set_key" : "_ZN4aidl7android8hardware8security4dice18IDiceDeviceDefault19getAttestationChainERKNSt3__16vectorINS3_11InputValuesENS5_9allocatorIS7_EEEEPNS3_3BccE",
   "parameters" :
   [
    {
     "is_this_ptr" : true,
     "referenced_type" : "_ZTIPN4aidl7android8hardware8security4dice18IDiceDeviceDefaultE"
    },
    {
     "referenced_type" : "_ZTIRKNSt3__16vectorIN4aidl7android8hardware8security4dice11InputValuesENS_9allocatorIS6_EEEE"
    },
    {
     "referenced_type" : "_ZTIPN4aidl7android8hardware8security4dice3BccE"
    }
   ],
   "return_type" : "_ZTIN3ndk13ScopedAStatusE",
   "source_file" : "out/soong/.intermediates/hardware/interfaces/security/dice/aidl/android.hardware.security.dice-V1-ndk-source/gen/include/aidl/android/hardware/security/dice/IDiceDevice.h"
  },
  {
   "function_name" : "aidl::android::hardware::security::dice::IDiceDeviceDefault::getInterfaceVersion",
   "linker_set_key" : "_ZN4aidl7android8hardware8security4dice18IDiceDeviceDefault19getInterfaceVersionEPi",
   "parameters" :
   [
    {
     "is_this_ptr" : true,
     "referenced_type" : "_ZTIPN4aidl7android8hardware8security4dice18IDiceDeviceDefaultE"
    },
    {
     "referenced_type" : "_ZTIPi"
    }
   ],
   "return_type" : "_ZTIN3ndk13ScopedAStatusE",
   "source_file" : "out/soong/.intermediates/hardware/interfaces/security/dice/aidl/android.hardware.security.dice-V1-ndk-source/gen/include/aidl/android/hardware/security/dice/IDiceDevice.h"
  },
  {
   "function_name" : "aidl::android::hardware::security::dice::IDiceDeviceDefault::sign",
   "linker_set_key" : "_ZN4aidl7android8hardware8security4dice18IDiceDeviceDefault4signERKNSt3__16vectorINS3_11InputValuesENS5_9allocatorIS7_EEEERKNS6_IhNS8_IhEEEEPNS3_9SignatureE",
   "parameters" :
   [
    {
     "is_this_ptr" : true,
     "referenced_type" : "_ZTIPN4aidl7android8hardware8security4dice18IDiceDeviceDefaultE"
    },
    {
     "referenced_type" : "_ZTIRKNSt3__16vectorIN4aidl7android8hardware8security4dice11InputValuesENS_9allocatorIS6_EEEE"
    },
    {
     "referenced_type" : "_ZTIRKNSt3__16vectorIhNS_9allocatorIhEEEE"
    },
    {
     "referenced_type" : "_ZTIPN4aidl7android8hardware8security4dice9SignatureE"
    }
   ],
   "return_type" : "_ZTIN3ndk13ScopedAStatusE",
   "source_file" : "out/soong/.intermediates/hardware/interfaces/security/dice/aidl/android.hardware.security.dice-V1-ndk-source/gen/include/aidl/android/hardware/security/dice/IDiceDevice.h"
  },
  {
   "function_name" : "aidl::android::hardware::security::dice::IDiceDeviceDefault::demote",
   "linker_set_key" : "_ZN4aidl7android8hardware8security4dice18IDiceDeviceDefault6demoteERKNSt3__16vectorINS3_11InputValuesENS5_9allocatorIS7_EEEE",
   "parameters" :
   [
    {
     "is_this_ptr" : true,
     "referenced_type" : "_ZTIPN4aidl7android8hardware8security4dice18IDiceDeviceDefaultE"
    },
    {
     "referenced_type" : "_ZTIRKNSt3__16vectorIN4aidl7android8hardware8security4dice11InputValuesENS_9allocatorIS6_EEEE"
    }
   ],
   "return_type" : "_ZTIN3ndk13ScopedAStatusE",
   "source_file" : "out/soong/.intermediates/hardware/interfaces/security/dice/aidl/android.hardware.security.dice-V1-ndk-source/gen/include/aidl/android/hardware/security/dice/IDiceDevice.h"
  },
  {
   "function_name" : "aidl::android::hardware::security::dice::IDiceDeviceDefault::derive",
   "linker_set_key" : "_ZN4aidl7android8hardware8security4dice18IDiceDeviceDefault6deriveERKNSt3__16vectorINS3_11InputValuesENS5_9allocatorIS7_EEEEPNS3_11BccHandoverE",
   "parameters" :
   [
    {
     "is_this_ptr" : true,
     "referenced_type" : "_ZTIPN4aidl7android8hardware8security4dice18IDiceDeviceDefaultE"
    },
    {
     "referenced_type" : "_ZTIRKNSt3__16vectorIN4aidl7android8hardware8security4dice11InputValuesENS_9allocatorIS6_EEEE"
    },
    {
     "referenced_type" : "_ZTIPN4aidl7android8hardware8security4dice11BccHandoverE"
    }
   ],
   "return_type" : "_ZTIN3ndk13ScopedAStatusE",
   "source_file" : "out/soong/.intermediates/hardware/interfaces/security/dice/aidl/android.hardware.security.dice-V1-ndk-source/gen/include/aidl/android/hardware/security/dice/IDiceDevice.h"
  },
  {
   "function_name" : "aidl::android::hardware::security::dice::IDiceDeviceDefault::asBinder",
   "linker_set_key" : "_ZN4aidl7android8hardware8security4dice18IDiceDeviceDefault8asBinderEv",
   "parameters" :
   [
    {
     "is_this_ptr" : true,
     "referenced_type" : "_ZTIPN4aidl7android8hardware8security4dice18IDiceDeviceDefaultE"
    }
   ],
   "return_type" : "_ZTIN3ndk10SpAIBinderE",
   "source_file" : "out/soong/.intermediates/hardware/interfaces/security/dice/aidl/android.hardware.security.dice-V1-ndk-source/gen/include/aidl/android/hardware/security/dice/IDiceDevice.h"
  },
  {
   "function_name" : "aidl::android::hardware::security::dice::IDiceDeviceDefault::isRemote",
   "linker_set_key" : "_ZN4aidl7android8hardware8security4dice18IDiceDeviceDefault8isRemoteEv",
   "parameters" :
   [
    {
     "is_this_ptr" : true,
     "referenced_type" : "_ZTIPN4aidl7android8hardware8security4dice18IDiceDeviceDefaultE"
    }
   ],
   "return_type" : "_ZTIb",
   "source_file" : "out/soong/.intermediates/hardware/interfaces/security/dice/aidl/android.hardware.security.dice-V1-ndk-source/gen/include/aidl/android/hardware/security/dice/IDiceDevice.h"
  },
  {
   "function_name" : "aidl::android::hardware::security::dice::Bcc::readFromParcel",
   "linker_set_key" : "_ZN4aidl7android8hardware8security4dice3Bcc14readFromParcelEPK7AParcel",
   "parameters" :
   [
    {
     "is_this_ptr" : true,
     "referenced_type" : "_ZTIPN4aidl7android8hardware8security4dice3BccE"
    },
    {
     "referenced_type" : "_ZTIPK7AParcel"
    }
   ],
   "return_type" : "_ZTIi",
   "source_file" : "out/soong/.intermediates/hardware/interfaces/security/dice/aidl/android.hardware.security.dice-V1-ndk-source/gen/include/aidl/android/hardware/security/dice/Bcc.h"
  },
  {
   "function_name" : "aidl::android::hardware::security::dice::Config::readFromParcel",
   "linker_set_key" : "_ZN4aidl7android8hardware8security4dice6Config14readFromParcelEPK7AParcel",
   "parameters" :
   [
    {
     "is_this_ptr" : true,
     "referenced_type" : "_ZTIPN4aidl7android8hardware8security4dice6ConfigE"
    },
    {
     "referenced_type" : "_ZTIPK7AParcel"
    }
   ],
   "return_type" : "_ZTIi",
   "source_file" : "out/soong/.intermediates/hardware/interfaces/security/dice/aidl/android.hardware.security.dice-V1-ndk-source/gen/include/aidl/android/hardware/security/dice/Config.h"
  },
  {
   "function_name" : "aidl::android::hardware::security::dice::Signature::readFromParcel",
   "linker_set_key" : "_ZN4aidl7android8hardware8security4dice9Signature14readFromParcelEPK7AParcel",
   "parameters" :
   [
    {
     "is_this_ptr" : true,
     "referenced_type" : "_ZTIPN4aidl7android8hardware8security4dice9SignatureE"
    },
    {
     "referenced_type" : "_ZTIPK7AParcel"
    }
   ],
   "return_type" : "_ZTIi",
   "source_file" : "out/soong/.intermediates/hardware/interfaces/security/dice/aidl/android.hardware.security.dice-V1-ndk-source/gen/include/aidl/android/hardware/security/dice/Signature.h"
  },
  {
   "function_name" : "aidl::android::hardware::security::dice::BccHandover::writeToParcel",
   "linker_set_key" : "_ZNK4aidl7android8hardware8security4dice11BccHandover13writeToParcelEP7AParcel",
   "parameters" :
   [
    {
     "is_this_ptr" : true,
     "referenced_type" : "_ZTIPKN4aidl7android8hardware8security4dice11BccHandoverE"
    },
    {
     "referenced_type" : "_ZTIP7AParcel"
    }
   ],
   "return_type" : "_ZTIi",
   "source_file" : "out/soong/.intermediates/hardware/interfaces/security/dice/aidl/android.hardware.security.dice-V1-ndk-source/gen/include/aidl/android/hardware/security/dice/BccHandover.h"
  },
  {
   "function_name" : "aidl::android::hardware::security::dice::InputValues::writeToParcel",
   "linker_set_key" : "_ZNK4aidl7android8hardware8security4dice11InputValues13writeToParcelEP7AParcel",
   "parameters" :
   [
    {
     "is_this_ptr" : true,
     "referenced_type" : "_ZTIPKN4aidl7android8hardware8security4dice11InputValuesE"
    },
    {
     "referenced_type" : "_ZTIP7AParcel"
    }
   ],
   "return_type" : "_ZTIi",
   "source_file" : "out/soong/.intermediates/hardware/interfaces/security/dice/aidl/android.hardware.security.dice-V1-ndk-source/gen/include/aidl/android/hardware/security/dice/InputValues.h"
  },
  {
   "function_name" : "aidl::android::hardware::security::dice::Bcc::writeToParcel",
   "linker_set_key" : "_ZNK4aidl7android8hardware8security4dice3Bcc13writeToParcelEP7AParcel",
   "parameters" :
   [
    {
     "is_this_ptr" : true,
     "referenced_type" : "_ZTIPKN4aidl7android8hardware8security4dice3BccE"
    },
    {
     "referenced_type" : "_ZTIP7AParcel"
    }
   ],
   "return_type" : "_ZTIi",
   "source_file" : "out/soong/.intermediates/hardware/interfaces/security/dice/aidl/android.hardware.security.dice-V1-ndk-source/gen/include/aidl/android/hardware/security/dice/Bcc.h"
  },
  {
   "function_name" : "aidl::android::hardware::security::dice::Config::writeToParcel",
   "linker_set_key" : "_ZNK4aidl7android8hardware8security4dice6Config13writeToParcelEP7AParcel",
   "parameters" :
   [
    {
     "is_this_ptr" : true,
     "referenced_type" : "_ZTIPKN4aidl7android8hardware8security4dice6ConfigE"
    },
    {
     "referenced_type" : "_ZTIP7AParcel"
    }
   ],
   "return_type" : "_ZTIi",
   "source_file" : "out/soong/.intermediates/hardware/interfaces/security/dice/aidl/android.hardware.security.dice-V1-ndk-source/gen/include/aidl/android/hardware/security/dice/Config.h"
  },
  {
   "function_name" : "aidl::android::hardware::security::dice::Signature::writeToParcel",
   "linker_set_key" : "_ZNK4aidl7android8hardware8security4dice9Signature13writeToParcelEP7AParcel",
   "parameters" :
   [
    {
     "is_this_ptr" : true,
     "referenced_type" : "_ZTIPKN4aidl7android8hardware8security4dice9SignatureE"
    },
    {
     "referenced_type" : "_ZTIP7AParcel"
    }
   ],
   "return_type" : "_ZTIi",
   "source_file" : "out/soong/.intermediates/hardware/interfaces/security/dice/aidl/android.hardware.security.dice-V1-ndk-source/gen/include/aidl/android/hardware/security/dice/Signature.h"
  }
 ],
 "global_vars" :
 [
  {
   "linker_set_key" : "_ZN4aidl7android8hardware8security4dice11BccHandover10descriptorE",
   "name" : "aidl::android::hardware::security::dice::BccHandover::descriptor",
   "referenced_type" : "_ZTIPKc",
   "source_file" : "out/soong/.intermediates/hardware/interfaces/security/dice/aidl/android.hardware.security.dice-V1-ndk-source/gen/include/aidl/android/hardware/security/dice/BccHandover.h"
  },
  {
   "linker_set_key" : "_ZN4aidl7android8hardware8security4dice11IDiceDevice10descriptorE",
   "name" : "aidl::android::hardware::security::dice::IDiceDevice::descriptor",
   "referenced_type" : "_ZTIPKc",
   "source_file" : "out/soong/.intermediates/hardware/interfaces/security/dice/aidl/android.hardware.security.dice-V1-ndk-source/gen/include/aidl/android/hardware/security/dice/IDiceDevice.h"
  },
  {
   "access" : "private",
   "linker_set_key" : "_ZN4aidl7android8hardware8security4dice11IDiceDevice12default_implE",
   "name" : "aidl::android::hardware::security::dice::IDiceDevice::default_impl",
   "referenced_type" : "_ZTINSt3__110shared_ptrIN4aidl7android8hardware8security4dice11IDiceDeviceEEE",
   "source_file" : "out/soong/.intermediates/hardware/interfaces/security/dice/aidl/android.hardware.security.dice-V1-ndk-source/gen/include/aidl/android/hardware/security/dice/IDiceDevice.h"
  },
  {
   "linker_set_key" : "_ZN4aidl7android8hardware8security4dice11IDiceDevice4hashE",
   "name" : "aidl::android::hardware::security::dice::IDiceDevice::hash",
   "referenced_type" : "_ZTIKNSt3__112basic_stringIcNS_11char_traitsIcEENS_9allocatorIcEEEE",
   "source_file" : "out/soong/.intermediates/hardware/interfaces/security/dice/aidl/android.hardware.security.dice-V1-ndk-source/gen/include/aidl/android/hardware/security/dice/IDiceDevice.h"
  },
  {
   "linker_set_key" : "_ZN4aidl7android8hardware8security4dice11InputValues10descriptorE",
   "name" : "aidl::android::hardware::security::dice::InputValues::descriptor",
   "referenced_type" : "_ZTIPKc",
   "source_file" : "out/soong/.intermediates/hardware/interfaces/security/dice/aidl/android.hardware.security.dice-V1-ndk-source/gen/include/aidl/android/hardware/security/dice/InputValues.h"
  },
  {
   "linker_set_key" : "_ZN4aidl7android8hardware8security4dice3Bcc10descriptorE",
   "name" : "aidl::android::hardware::security::dice::Bcc::descriptor",
   "referenced_type" : "_ZTIPKc",
   "source_file" : "out/soong/.intermediates/hardware/interfaces/security/dice/aidl/android.hardware.security.dice-V1-ndk-source/gen/include/aidl/android/hardware/security/dice/Bcc.h"
  },
  {
   "linker_set_key" : "_ZN4aidl7android8hardware8security4dice6Config10descriptorE",
   "name" : "aidl::android::hardware::security::dice::Config::descriptor",
   "referenced_type" : "_ZTIPKc",
   "source_file" : "out/soong/.intermediates/hardware/interfaces/security/dice/aidl/android.hardware.security.dice-V1-ndk-source/gen/include/aidl/android/hardware/security/dice/Config.h"
  },
  {
   "linker_set_key" : "_ZN4aidl7android8hardware8security4dice9Signature10descriptorE",
   "name" : "aidl::android::hardware::security::dice::Signature::descriptor",
   "referenced_type" : "_ZTIPKc",
   "source_file" : "out/soong/.intermediates/hardware/interfaces/security/dice/aidl/android.hardware.security.dice-V1-ndk-source/gen/include/aidl/android/hardware/security/dice/Signature.h"
  }
 ],
 "lvalue_reference_types" :
 [
  {
   "alignment" : 4,
   "linker_set_key" : "_ZTIRKN3ndk10SpAIBinderE",
   "name" : "const ndk::SpAIBinder &",
   "referenced_type" : "_ZTIKN3ndk10SpAIBinderE",
   "self_type" : "_ZTIRKN3ndk10SpAIBinderE",
   "size" : 4,
   "source_file" : "frameworks/native/libs/binder/ndk/include_cpp/android/binder_auto_utils.h"
  },
  {
   "alignment" : 4,
   "linker_set_key" : "_ZTIRKN3ndk13ScopedAParcelE",
   "name" : "const ndk::ScopedAParcel &",
   "referenced_type" : "_ZTIKN3ndk13ScopedAParcelE",
   "self_type" : "_ZTIRKN3ndk13ScopedAParcelE",
   "size" : 4,
   "source_file" : "frameworks/native/libs/binder/ndk/include_cpp/android/binder_auto_utils.h"
  },
  {
   "alignment" : 4,
   "linker_set_key" : "_ZTIRKN3ndk17AParcelableHolderE",
   "name" : "const ndk::AParcelableHolder &",
   "referenced_type" : "_ZTIKN3ndk17AParcelableHolderE",
   "self_type" : "_ZTIRKN3ndk17AParcelableHolderE",
   "size" : 4,
   "source_file" : "frameworks/native/libs/binder/ndk/include_cpp/android/binder_parcelable_utils.h"
  },
  {
   "alignment" : 4,
   "linker_set_key" : "_ZTIRKN3ndk20ScopedFileDescriptorE",
   "name" : "const ndk::ScopedFileDescriptor &",
   "referenced_type" : "_ZTIKN3ndk20ScopedFileDescriptorE",
   "self_type" : "_ZTIRKN3ndk20ScopedFileDescriptorE",
   "size" : 4,
   "source_file" : "frameworks/native/libs/binder/ndk/include_cpp/android/binder_auto_utils.h"
  },
  {
   "alignment" : 4,
   "linker_set_key" : "_ZTIRKN4aidl7android8hardware8security4dice11BccHandoverE",
   "name" : "const aidl::android::hardware::security::dice::BccHandover &",
   "referenced_type" : "_ZTIKN4aidl7android8hardware8security4dice11BccHandoverE",
   "self_type" : "_ZTIRKN4aidl7android8hardware8security4dice11BccHandoverE",
   "size" : 4,
   "source_file" : "out/soong/.intermediates/hardware/interfaces/security/dice/aidl/android.hardware.security.dice-V1-ndk-source/gen/include/aidl/android/hardware/security/dice/BccHandover.h"
  },
  {
   "alignment" : 4,
   "linker_set_key" : "_ZTIRKN4aidl7android8hardware8security4dice11InputValuesE",
   "name" : "const aidl::android::hardware::security::dice::InputValues &",
   "referenced_type" : "_ZTIKN4aidl7android8hardware8security4dice11InputValuesE",
   "self_type" : "_ZTIRKN4aidl7android8hardware8security4dice11InputValuesE",
   "size" : 4,
   "source_file" : "out/soong/.intermediates/hardware/interfaces/security/dice/aidl/android.hardware.security.dice-V1-ndk-source/gen/include/aidl/android/hardware/security/dice/InputValues.h"
  },
  {
   "alignment" : 4,
   "linker_set_key" : "_ZTIRKN4aidl7android8hardware8security4dice3BccE",
   "name" : "const aidl::android::hardware::security::dice::Bcc &",
   "referenced_type" : "_ZTIKN4aidl7android8hardware8security4dice3BccE",
   "self_type" : "_ZTIRKN4aidl7android8hardware8security4dice3BccE",
   "size" : 4,
   "source_file" : "out/soong/.intermediates/hardware/interfaces/security/dice/aidl/android.hardware.security.dice-V1-ndk-source/gen/include/aidl/android/hardware/security/dice/Bcc.h"
  },
  {
   "alignment" : 4,
   "linker_set_key" : "_ZTIRKN4aidl7android8hardware8security4dice4ModeE",
   "name" : "const aidl::android::hardware::security::dice::Mode &",
   "referenced_type" : "_ZTIKN4aidl7android8hardware8security4dice4ModeE",
   "self_type" : "_ZTIRKN4aidl7android8hardware8security4dice4ModeE",
   "size" : 4,
   "source_file" : "frameworks/native/libs/binder/ndk/include_cpp/android/binder_to_string.h"
  },
  {
   "alignment" : 4,
   "linker_set_key" : "_ZTIRKN4aidl7android8hardware8security4dice6ConfigE",
   "name" : "const aidl::android::hardware::security::dice::Config &",
   "referenced_type" : "_ZTIKN4aidl7android8hardware8security4dice6ConfigE",
   "self_type" : "_ZTIRKN4aidl7android8hardware8security4dice6ConfigE",
   "size" : 4,
   "source_file" : "out/soong/.intermediates/hardware/interfaces/security/dice/aidl/android.hardware.security.dice-V1-ndk-source/gen/include/aidl/android/hardware/security/dice/Config.h"
  },
  {
   "alignment" : 4,
   "linker_set_key" : "_ZTIRKN4aidl7android8hardware8security4dice9SignatureE",
   "name" : "const aidl::android::hardware::security::dice::Signature &",
   "referenced_type" : "_ZTIKN4aidl7android8hardware8security4dice9SignatureE",
   "self_type" : "_ZTIRKN4aidl7android8hardware8security4dice9SignatureE",
   "size" : 4,
   "source_file" : "out/soong/.intermediates/hardware/interfaces/security/dice/aidl/android.hardware.security.dice-V1-ndk-source/gen/include/aidl/android/hardware/security/dice/Signature.h"
  },
  {
   "alignment" : 4,
   "linker_set_key" : "_ZTIRKNSt3__110shared_ptrIN4aidl7android8hardware8security4dice11IDiceDeviceEEE",
   "name" : "const std::shared_ptr<aidl::android::hardware::security::dice::IDiceDevice> &",
   "referenced_type" : "_ZTIKNSt3__110shared_ptrIN4aidl7android8hardware8security4dice11IDiceDeviceEEE",
   "self_type" : "_ZTIRKNSt3__110shared_ptrIN4aidl7android8hardware8security4dice11IDiceDeviceEEE",
   "size" : 4,
   "source_file" : "out/soong/.intermediates/hardware/interfaces/security/dice/aidl/android.hardware.security.dice-V1-ndk-source/gen/include/aidl/android/hardware/security/dice/IDiceDevice.h"
  },
  {
   "alignment" : 4,
   "linker_set_key" : "_ZTIRKNSt3__15arrayIhLj32EEE",
   "name" : "const std::array<unsigned char, 32> &",
   "referenced_type" : "_ZTIKNSt3__15arrayIhLj32EEE",
   "self_type" : "_ZTIRKNSt3__15arrayIhLj32EEE",
   "size" : 4,
   "source_file" : "frameworks/native/libs/binder/ndk/include_cpp/android/binder_to_string.h"
  },
  {
   "alignment" : 4,
   "linker_set_key" : "_ZTIRKNSt3__15arrayIhLj64EEE",
   "name" : "const std::array<unsigned char, 64> &",
   "referenced_type" : "_ZTIKNSt3__15arrayIhLj64EEE",
   "self_type" : "_ZTIRKNSt3__15arrayIhLj64EEE",
   "size" : 4,
   "source_file" : "frameworks/native/libs/binder/ndk/include_cpp/android/binder_to_string.h"
  },
  {
   "alignment" : 4,
   "linker_set_key" : "_ZTIRKNSt3__16vectorIDsNS_9allocatorIDsEEEE",
   "name" : "const std::vector<char16_t, std::allocator<char16_t>> &",
   "referenced_type" : "_ZTIKNSt3__16vectorIDsNS_9allocatorIDsEEEE",
   "self_type" : "_ZTIRKNSt3__16vectorIDsNS_9allocatorIDsEEEE",
   "size" : 4,
   "source_file" : "frameworks/native/libs/binder/ndk/include_cpp/android/binder_parcel_utils.h"
  },
  {
   "alignment" : 4,
   "linker_set_key" : "_ZTIRKNSt3__16vectorIN4aidl7android8hardware8security4dice11InputValuesENS_9allocatorIS6_EEEE",
   "name" : "const std::vector<aidl::android::hardware::security::dice::InputValues, std::allocator<aidl::android::hardware::security::dice::InputValues>> &",
   "referenced_type" : "_ZTIKNSt3__16vectorIN4aidl7android8hardware8security4dice11InputValuesENS_9allocatorIS6_EEEE",
   "self_type" : "_ZTIRKNSt3__16vectorIN4aidl7android8hardware8security4dice11InputValuesENS_9allocatorIS6_EEEE",
   "size" : 4,
   "source_file" : "out/soong/.intermediates/hardware/interfaces/security/dice/aidl/android.hardware.security.dice-V1-ndk-source/gen/include/aidl/android/hardware/security/dice/IDiceDevice.h"
  },
  {
   "alignment" : 4,
   "linker_set_key" : "_ZTIRKNSt3__16vectorIbNS_9allocatorIbEEEE",
   "name" : "const std::vector<bool, std::allocator<bool>> &",
   "referenced_type" : "_ZTIKNSt3__16vectorIbNS_9allocatorIbEEEE",
   "self_type" : "_ZTIRKNSt3__16vectorIbNS_9allocatorIbEEEE",
   "size" : 4,
   "source_file" : "frameworks/native/libs/binder/ndk/include_cpp/android/binder_parcel_utils.h"
  },
  {
   "alignment" : 4,
   "linker_set_key" : "_ZTIRKNSt3__16vectorIdNS_9allocatorIdEEEE",
   "name" : "const std::vector<double, std::allocator<double>> &",
   "referenced_type" : "_ZTIKNSt3__16vectorIdNS_9allocatorIdEEEE",
   "self_type" : "_ZTIRKNSt3__16vectorIdNS_9allocatorIdEEEE",
   "size" : 4,
   "source_file" : "frameworks/native/libs/binder/ndk/include_cpp/android/binder_parcel_utils.h"
  },
  {
   "alignment" : 4,
   "linker_set_key" : "_ZTIRKNSt3__16vectorIfNS_9allocatorIfEEEE",
   "name" : "const std::vector<float, std::allocator<float>> &",
   "referenced_type" : "_ZTIKNSt3__16vectorIfNS_9allocatorIfEEEE",
   "self_type" : "_ZTIRKNSt3__16vectorIfNS_9allocatorIfEEEE",
   "size" : 4,
   "source_file" : "frameworks/native/libs/binder/ndk/include_cpp/android/binder_parcel_utils.h"
  },
  {
   "alignment" : 4,
   "linker_set_key" : "_ZTIRKNSt3__16vectorIhNS_9allocatorIhEEEE",
   "name" : "const std::vector<unsigned char, std::allocator<unsigned char>> &",
   "referenced_type" : "_ZTIKNSt3__16vectorIhNS_9allocatorIhEEEE",
   "self_type" : "_ZTIRKNSt3__16vectorIhNS_9allocatorIhEEEE",
   "size" : 4,
   "source_file" : "frameworks/native/libs/binder/ndk/include_cpp/android/binder_parcel_utils.h"
  },
  {
   "alignment" : 4,
   "linker_set_key" : "_ZTIRKNSt3__16vectorIiNS_9allocatorIiEEEE",
   "name" : "const std::vector<int, std::allocator<int>> &",
   "referenced_type" : "_ZTIKNSt3__16vectorIiNS_9allocatorIiEEEE",
   "self_type" : "_ZTIRKNSt3__16vectorIiNS_9allocatorIiEEEE",
   "size" : 4,
   "source_file" : "frameworks/native/libs/binder/ndk/include_cpp/android/binder_parcel_utils.h"
  },
  {
   "alignment" : 4,
   "linker_set_key" : "_ZTIRKNSt3__16vectorIjNS_9allocatorIjEEEE",
   "name" : "const std::vector<unsigned int, std::allocator<unsigned int>> &",
   "referenced_type" : "_ZTIKNSt3__16vectorIjNS_9allocatorIjEEEE",
   "self_type" : "_ZTIRKNSt3__16vectorIjNS_9allocatorIjEEEE",
   "size" : 4,
   "source_file" : "frameworks/native/libs/binder/ndk/include_cpp/android/binder_parcel_utils.h"
  },
  {
   "alignment" : 4,
   "linker_set_key" : "_ZTIRKNSt3__16vectorIxNS_9allocatorIxEEEE",
   "name" : "const std::vector<long long, std::allocator<long long>> &",
   "referenced_type" : "_ZTIKNSt3__16vectorIxNS_9allocatorIxEEEE",
   "self_type" : "_ZTIRKNSt3__16vectorIxNS_9allocatorIxEEEE",
   "size" : 4,
   "source_file" : "frameworks/native/libs/binder/ndk/include_cpp/android/binder_parcel_utils.h"
  },
  {
   "alignment" : 4,
   "linker_set_key" : "_ZTIRKNSt3__16vectorIyNS_9allocatorIyEEEE",
   "name" : "const std::vector<unsigned long long, std::allocator<unsigned long long>> &",
   "referenced_type" : "_ZTIKNSt3__16vectorIyNS_9allocatorIyEEEE",
   "self_type" : "_ZTIRKNSt3__16vectorIyNS_9allocatorIyEEEE",
   "size" : 4,
   "source_file" : "frameworks/native/libs/binder/ndk/include_cpp/android/binder_parcel_utils.h"
  },
  {
   "alignment" : 4,
   "linker_set_key" : "_ZTIRKNSt3__18optionalINS_6vectorIDsNS_9allocatorIDsEEEEEE",
   "name" : "const std::optional<std::vector<char16_t, std::allocator<char16_t>>> &",
   "referenced_type" : "_ZTIKNSt3__18optionalINS_6vectorIDsNS_9allocatorIDsEEEEEE",
   "self_type" : "_ZTIRKNSt3__18optionalINS_6vectorIDsNS_9allocatorIDsEEEEEE",
   "size" : 4,
   "source_file" : "frameworks/native/libs/binder/ndk/include_cpp/android/binder_parcel_utils.h"
  },
  {
   "alignment" : 4,
   "linker_set_key" : "_ZTIRKNSt3__18optionalINS_6vectorIbNS_9allocatorIbEEEEEE",
   "name" : "const std::optional<std::vector<bool, std::allocator<bool>>> &",
   "referenced_type" : "_ZTIKNSt3__18optionalINS_6vectorIbNS_9allocatorIbEEEEEE",
   "self_type" : "_ZTIRKNSt3__18optionalINS_6vectorIbNS_9allocatorIbEEEEEE",
   "size" : 4,
   "source_file" : "frameworks/native/libs/binder/ndk/include_cpp/android/binder_parcel_utils.h"
  },
  {
   "alignment" : 4,
   "linker_set_key" : "_ZTIRKNSt3__18optionalINS_6vectorIdNS_9allocatorIdEEEEEE",
   "name" : "const std::optional<std::vector<double, std::allocator<double>>> &",
   "referenced_type" : "_ZTIKNSt3__18optionalINS_6vectorIdNS_9allocatorIdEEEEEE",
   "self_type" : "_ZTIRKNSt3__18optionalINS_6vectorIdNS_9allocatorIdEEEEEE",
   "size" : 4,
   "source_file" : "frameworks/native/libs/binder/ndk/include_cpp/android/binder_parcel_utils.h"
  },
  {
   "alignment" : 4,
   "linker_set_key" : "_ZTIRKNSt3__18optionalINS_6vectorIfNS_9allocatorIfEEEEEE",
   "name" : "const std::optional<std::vector<float, std::allocator<float>>> &",
   "referenced_type" : "_ZTIKNSt3__18optionalINS_6vectorIfNS_9allocatorIfEEEEEE",
   "self_type" : "_ZTIRKNSt3__18optionalINS_6vectorIfNS_9allocatorIfEEEEEE",
   "size" : 4,
   "source_file" : "frameworks/native/libs/binder/ndk/include_cpp/android/binder_parcel_utils.h"
  },
  {
   "alignment" : 4,
   "linker_set_key" : "_ZTIRKNSt3__18optionalINS_6vectorIhNS_9allocatorIhEEEEEE",
   "name" : "const std::optional<std::vector<unsigned char, std::allocator<unsigned char>>> &",
   "referenced_type" : "_ZTIKNSt3__18optionalINS_6vectorIhNS_9allocatorIhEEEEEE",
   "self_type" : "_ZTIRKNSt3__18optionalINS_6vectorIhNS_9allocatorIhEEEEEE",
   "size" : 4,
   "source_file" : "frameworks/native/libs/binder/ndk/include_cpp/android/binder_parcel_utils.h"
  },
  {
   "alignment" : 4,
   "linker_set_key" : "_ZTIRKNSt3__18optionalINS_6vectorIiNS_9allocatorIiEEEEEE",
   "name" : "const std::optional<std::vector<int, std::allocator<int>>> &",
   "referenced_type" : "_ZTIKNSt3__18optionalINS_6vectorIiNS_9allocatorIiEEEEEE",
   "self_type" : "_ZTIRKNSt3__18optionalINS_6vectorIiNS_9allocatorIiEEEEEE",
   "size" : 4,
   "source_file" : "frameworks/native/libs/binder/ndk/include_cpp/android/binder_parcel_utils.h"
  },
  {
   "alignment" : 4,
   "linker_set_key" : "_ZTIRKNSt3__18optionalINS_6vectorIjNS_9allocatorIjEEEEEE",
   "name" : "const std::optional<std::vector<unsigned int, std::allocator<unsigned int>>> &",
   "referenced_type" : "_ZTIKNSt3__18optionalINS_6vectorIjNS_9allocatorIjEEEEEE",
   "self_type" : "_ZTIRKNSt3__18optionalINS_6vectorIjNS_9allocatorIjEEEEEE",
   "size" : 4,
   "source_file" : "frameworks/native/libs/binder/ndk/include_cpp/android/binder_parcel_utils.h"
  },
  {
   "alignment" : 4,
   "linker_set_key" : "_ZTIRKNSt3__18optionalINS_6vectorIxNS_9allocatorIxEEEEEE",
   "name" : "const std::optional<std::vector<long long, std::allocator<long long>>> &",
   "referenced_type" : "_ZTIKNSt3__18optionalINS_6vectorIxNS_9allocatorIxEEEEEE",
   "self_type" : "_ZTIRKNSt3__18optionalINS_6vectorIxNS_9allocatorIxEEEEEE",
   "size" : 4,
   "source_file" : "frameworks/native/libs/binder/ndk/include_cpp/android/binder_parcel_utils.h"
  },
  {
   "alignment" : 4,
   "linker_set_key" : "_ZTIRKNSt3__18optionalINS_6vectorIyNS_9allocatorIyEEEEEE",
   "name" : "const std::optional<std::vector<unsigned long long, std::allocator<unsigned long long>>> &",
   "referenced_type" : "_ZTIKNSt3__18optionalINS_6vectorIyNS_9allocatorIyEEEEEE",
   "self_type" : "_ZTIRKNSt3__18optionalINS_6vectorIyNS_9allocatorIyEEEEEE",
   "size" : 4,
   "source_file" : "frameworks/native/libs/binder/ndk/include_cpp/android/binder_parcel_utils.h"
  },
  {
   "alignment" : 4,
   "linker_set_key" : "_ZTIRKh",
   "name" : "const unsigned char &",
   "referenced_type" : "_ZTIKh",
   "self_type" : "_ZTIRKh",
   "size" : 4,
   "source_file" : "frameworks/native/libs/binder/ndk/include_cpp/android/binder_to_string.h"
  },
  {
   "alignment" : 4,
   "linker_set_key" : "_ZTIRN3ndk10SpAIBinderE",
   "name" : "ndk::SpAIBinder &",
   "referenced_type" : "_ZTIN3ndk10SpAIBinderE",
   "self_type" : "_ZTIRN3ndk10SpAIBinderE",
   "size" : 4,
   "source_file" : "frameworks/native/libs/binder/ndk/include_cpp/android/binder_auto_utils.h"
  },
  {
   "alignment" : 4,
   "linker_set_key" : "_ZTIRN3ndk13ScopedAParcelE",
   "name" : "ndk::ScopedAParcel &",
   "referenced_type" : "_ZTIN3ndk13ScopedAParcelE",
   "self_type" : "_ZTIRN3ndk13ScopedAParcelE",
   "size" : 4,
   "source_file" : "frameworks/native/libs/binder/ndk/include_cpp/android/binder_auto_utils.h"
  },
  {
   "alignment" : 4,
   "linker_set_key" : "_ZTIRN3ndk13ScopedAStatusE",
   "name" : "ndk::ScopedAStatus &",
   "referenced_type" : "_ZTIN3ndk13ScopedAStatusE",
   "self_type" : "_ZTIRN3ndk13ScopedAStatusE",
   "size" : 4,
   "source_file" : "frameworks/native/libs/binder/ndk/include_cpp/android/binder_auto_utils.h"
  },
  {
   "alignment" : 4,
   "linker_set_key" : "_ZTIRN3ndk19ScopedAIBinder_WeakE",
   "name" : "ndk::ScopedAIBinder_Weak &",
   "referenced_type" : "_ZTIN3ndk19ScopedAIBinder_WeakE",
   "self_type" : "_ZTIRN3ndk19ScopedAIBinder_WeakE",
   "size" : 4,
   "source_file" : "frameworks/native/libs/binder/ndk/include_cpp/android/binder_auto_utils.h"
  },
  {
   "alignment" : 4,
   "linker_set_key" : "_ZTIRN3ndk20ScopedFileDescriptorE",
   "name" : "ndk::ScopedFileDescriptor &",
   "referenced_type" : "_ZTIN3ndk20ScopedFileDescriptorE",
   "self_type" : "_ZTIRN3ndk20ScopedFileDescriptorE",
   "size" : 4,
   "source_file" : "frameworks/native/libs/binder/ndk/include_cpp/android/binder_auto_utils.h"
  },
  {
   "alignment" : 4,
   "linker_set_key" : "_ZTIRN3ndk29ScopedAIBinder_DeathRecipientE",
   "name" : "ndk::ScopedAIBinder_DeathRecipient &",
   "referenced_type" : "_ZTIN3ndk29ScopedAIBinder_DeathRecipientE",
   "self_type" : "_ZTIRN3ndk29ScopedAIBinder_DeathRecipientE",
   "size" : 4,
   "source_file" : "frameworks/native/libs/binder/ndk/include_cpp/android/binder_auto_utils.h"
  },
  {
   "alignment" : 4,
   "linker_set_key" : "_ZTIRN3ndk4impl15ScopedAResourceIP7AStatusXadL_Z14AStatus_deleteEELS3_0EEE",
   "name" : "ndk::impl::ScopedAResource<AStatus *, &AStatus_delete, nullptr> &",
   "referenced_type" : "_ZTIN3ndk4impl15ScopedAResourceIP7AStatusXadL_Z14AStatus_deleteEELS3_0EEE",
   "self_type" : "_ZTIRN3ndk4impl15ScopedAResourceIP7AStatusXadL_Z14AStatus_deleteEELS3_0EEE",
   "size" : 4,
   "source_file" : "frameworks/native/libs/binder/ndk/include_cpp/android/binder_auto_utils.h"
  }
 ],
 "pointer_types" :
 [
  {
   "alignment" : 4,
   "linker_set_key" : "_ZTIP13AIBinder_Weak",
   "name" : "AIBinder_Weak *",
   "referenced_type" : "_ZTI13AIBinder_Weak",
   "self_type" : "_ZTIP13AIBinder_Weak",
   "size" : 4,
   "source_file" : "frameworks/native/libs/binder/ndk/include_cpp/android/binder_auto_utils.h"
  },
  {
   "alignment" : 4,
   "linker_set_key" : "_ZTIP14AIBinder_Class",
   "name" : "AIBinder_Class *",
   "referenced_type" : "_ZTI14AIBinder_Class",
   "self_type" : "_ZTIP14AIBinder_Class",
   "size" : 4,
   "source_file" : "frameworks/native/libs/binder/ndk/include_cpp/android/binder_interface_utils.h"
  },
  {
   "alignment" : 4,
   "linker_set_key" : "_ZTIP23AIBinder_DeathRecipient",
   "name" : "AIBinder_DeathRecipient *",
   "referenced_type" : "_ZTI23AIBinder_DeathRecipient",
   "self_type" : "_ZTIP23AIBinder_DeathRecipient",
   "size" : 4,
   "source_file" : "frameworks/native/libs/binder/ndk/include_cpp/android/binder_auto_utils.h"
  },
  {
   "alignment" : 4,
   "linker_set_key" : "_ZTIP7AParcel",
   "name" : "AParcel *",
   "referenced_type" : "_ZTI7AParcel",
   "self_type" : "_ZTIP7AParcel",
   "size" : 4,
   "source_file" : "frameworks/native/libs/binder/ndk/include_cpp/android/binder_auto_utils.h"
  },
  {
   "alignment" : 4,
   "linker_set_key" : "_ZTIP7AStatus",
   "name" : "AStatus *",
   "referenced_type" : "_ZTI7AStatus",
   "self_type" : "_ZTIP7AStatus",
   "size" : 4,
   "source_file" : "frameworks/native/libs/binder/ndk/include_cpp/android/binder_auto_utils.h"
  },
  {
   "alignment" : 4,
   "linker_set_key" : "_ZTIP8AIBinder",
   "name" : "AIBinder *",
   "referenced_type" : "_ZTI8AIBinder",
   "self_type" : "_ZTIP8AIBinder",
   "size" : 4,
   "source_file" : "frameworks/native/libs/binder/ndk/include_cpp/android/binder_auto_utils.h"
  },
  {
   "alignment" : 4,
   "linker_set_key" : "_ZTIPFiP8AIBinderjPK7AParcelPS1_E",
   "name" : "int (*)(AIBinder *, unsigned int, const AParcel *, AParcel *)",
   "referenced_type" : "_ZTIFiP8AIBinderjPK7AParcelPS1_E",
   "self_type" : "_ZTIPFiP8AIBinderjPK7AParcelPS1_E",
   "size" : 4,
   "source_file" : "frameworks/native/libs/binder/ndk/include_cpp/android/binder_interface_utils.h"
  },
  {
   "alignment" : 4,
   "linker_set_key" : "_ZTIPK7AParcel",
   "name" : "const AParcel *",
   "referenced_type" : "_ZTIK7AParcel",
   "self_type" : "_ZTIPK7AParcel",
   "size" : 4,
   "source_file" : "frameworks/native/libs/binder/ndk/include_cpp/android/binder_interface_utils.h"
  },
  {
   "alignment" : 4,
   "linker_set_key" : "_ZTIPKN3ndk10SpAIBinderE",
   "name" : "const ndk::SpAIBinder *",
   "referenced_type" : "_ZTIKN3ndk10SpAIBinderE",
   "self_type" : "_ZTIPKN3ndk10SpAIBinderE",
   "size" : 4,
   "source_file" : "frameworks/native/libs/binder/ndk/include_cpp/android/binder_auto_utils.h"
  },
  {
   "alignment" : 4,
   "linker_set_key" : "_ZTIPKN3ndk13ScopedAParcelE",
   "name" : "const ndk::ScopedAParcel *",
   "referenced_type" : "_ZTIKN3ndk13ScopedAParcelE",
   "self_type" : "_ZTIPKN3ndk13ScopedAParcelE",
   "size" : 4,
   "source_file" : "frameworks/native/libs/binder/ndk/include_cpp/android/binder_auto_utils.h"
  },
  {
   "alignment" : 4,
   "linker_set_key" : "_ZTIPKN3ndk13ScopedAStatusE",
   "name" : "const ndk::ScopedAStatus *",
   "referenced_type" : "_ZTIKN3ndk13ScopedAStatusE",
   "self_type" : "_ZTIPKN3ndk13ScopedAStatusE",
   "size" : 4,
   "source_file" : "frameworks/native/libs/binder/ndk/include_cpp/android/binder_auto_utils.h"
  },
  {
   "alignment" : 4,
   "linker_set_key" : "_ZTIPKN3ndk17AParcelableHolderE",
   "name" : "const ndk::AParcelableHolder *",
   "referenced_type" : "_ZTIKN3ndk17AParcelableHolderE",
   "self_type" : "_ZTIPKN3ndk17AParcelableHolderE",
   "size" : 4,
   "source_file" : "frameworks/native/libs/binder/ndk/include_cpp/android/binder_parcelable_utils.h"
  },
  {
   "alignment" : 4,
   "linker_set_key" : "_ZTIPKN3ndk20ScopedFileDescriptorE",
   "name" : "const ndk::ScopedFileDescriptor *",
   "referenced_type" : "_ZTIKN3ndk20ScopedFileDescriptorE",
   "self_type" : "_ZTIPKN3ndk20ScopedFileDescriptorE",
   "size" : 4,
   "source_file" : "frameworks/native/libs/binder/ndk/include_cpp/android/binder_auto_utils.h"
  },
  {
   "alignment" : 4,
   "linker_set_key" : "_ZTIPKN3ndk4impl15ScopedAResourceIP7AParcelXadL_Z14AParcel_deleteEELS3_0EEE",
   "name" : "const ndk::impl::ScopedAResource<AParcel *, &AParcel_delete, nullptr> *",
   "referenced_type" : "_ZTIKN3ndk4impl15ScopedAResourceIP7AParcelXadL_Z14AParcel_deleteEELS3_0EEE",
   "self_type" : "_ZTIPKN3ndk4impl15ScopedAResourceIP7AParcelXadL_Z14AParcel_deleteEELS3_0EEE",
   "size" : 4,
   "source_file" : "frameworks/native/libs/binder/ndk/include_cpp/android/binder_auto_utils.h"
  },
  {
   "alignment" : 4,
   "linker_set_key" : "_ZTIPKN3ndk4impl15ScopedAResourceIP7AStatusXadL_Z14AStatus_deleteEELS3_0EEE",
   "name" : "const ndk::impl::ScopedAResource<AStatus *, &AStatus_delete, nullptr> *",
   "referenced_type" : "_ZTIKN3ndk4impl15ScopedAResourceIP7AStatusXadL_Z14AStatus_deleteEELS3_0EEE",
   "self_type" : "_ZTIPKN3ndk4impl15ScopedAResourceIP7AStatusXadL_Z14AStatus_deleteEELS3_0EEE",
   "size" : 4,
   "source_file" : "frameworks/native/libs/binder/ndk/include_cpp/android/binder_auto_utils.h"
  },
  {
   "alignment" : 4,
   "linker_set_key" : "_ZTIPKN4aidl7android8hardware8security4dice11BccHandoverE",
   "name" : "const aidl::android::hardware::security::dice::BccHandover *",
   "referenced_type" : "_ZTIKN4aidl7android8hardware8security4dice11BccHandoverE",
   "self_type" : "_ZTIPKN4aidl7android8hardware8security4dice11BccHandoverE",
   "size" : 4,
   "source_file" : "out/soong/.intermediates/hardware/interfaces/security/dice/aidl/android.hardware.security.dice-V1-ndk-source/gen/include/aidl/android/hardware/security/dice/BccHandover.h"
  },
  {
   "alignment" : 4,
   "linker_set_key" : "_ZTIPKN4aidl7android8hardware8security4dice11InputValuesE",
   "name" : "const aidl::android::hardware::security::dice::InputValues *",
   "referenced_type" : "_ZTIKN4aidl7android8hardware8security4dice11InputValuesE",
   "self_type" : "_ZTIPKN4aidl7android8hardware8security4dice11InputValuesE",
   "size" : 4,
   "source_file" : "out/soong/.intermediates/hardware/interfaces/security/dice/aidl/android.hardware.security.dice-V1-ndk-source/gen/include/aidl/android/hardware/security/dice/InputValues.h"
  },
  {
   "alignment" : 4,
   "linker_set_key" : "_ZTIPKN4aidl7android8hardware8security4dice3BccE",
   "name" : "const aidl::android::hardware::security::dice::Bcc *",
   "referenced_type" : "_ZTIKN4aidl7android8hardware8security4dice3BccE",
   "self_type" : "_ZTIPKN4aidl7android8hardware8security4dice3BccE",
   "size" : 4,
   "source_file" : "out/soong/.intermediates/hardware/interfaces/security/dice/aidl/android.hardware.security.dice-V1-ndk-source/gen/include/aidl/android/hardware/security/dice/Bcc.h"
  },
  {
   "alignment" : 4,
   "linker_set_key" : "_ZTIPKN4aidl7android8hardware8security4dice6ConfigE",
   "name" : "const aidl::android::hardware::security::dice::Config *",
   "referenced_type" : "_ZTIKN4aidl7android8hardware8security4dice6ConfigE",
   "self_type" : "_ZTIPKN4aidl7android8hardware8security4dice6ConfigE",
   "size" : 4,
   "source_file" : "out/soong/.intermediates/hardware/interfaces/security/dice/aidl/android.hardware.security.dice-V1-ndk-source/gen/include/aidl/android/hardware/security/dice/Config.h"
  },
  {
   "alignment" : 4,
   "linker_set_key" : "_ZTIPKN4aidl7android8hardware8security4dice9SignatureE",
   "name" : "const aidl::android::hardware::security::dice::Signature *",
   "referenced_type" : "_ZTIKN4aidl7android8hardware8security4dice9SignatureE",
   "self_type" : "_ZTIPKN4aidl7android8hardware8security4dice9SignatureE",
   "size" : 4,
   "source_file" : "out/soong/.intermediates/hardware/interfaces/security/dice/aidl/android.hardware.security.dice-V1-ndk-source/gen/include/aidl/android/hardware/security/dice/Signature.h"
  },
  {
   "alignment" : 4,
   "linker_set_key" : "_ZTIPKc",
   "name" : "const char *",
   "referenced_type" : "_ZTIKc",
   "self_type" : "_ZTIPKc",
   "size" : 4,
   "source_file" : "frameworks/native/libs/binder/ndk/include_cpp/android/binder_auto_utils.h"
  },
  {
   "alignment" : 4,
   "linker_set_key" : "_ZTIPKv",
   "name" : "const void *",
   "referenced_type" : "_ZTIKv",
   "self_type" : "_ZTIPKv",
   "size" : 4,
   "source_file" : "frameworks/native/libs/binder/ndk/include_cpp/android/binder_parcel_utils.h"
  },
  {
   "alignment" : 4,
   "linker_set_key" : "_ZTIPN3ndk10SpAIBinderE",
   "name" : "ndk::SpAIBinder *",
   "referenced_type" : "_ZTIN3ndk10SpAIBinderE",
   "self_type" : "_ZTIPN3ndk10SpAIBinderE",
   "size" : 4,
   "source_file" : "frameworks/native/libs/binder/ndk/include_cpp/android/binder_auto_utils.h"
  },
  {
   "alignment" : 4,
   "linker_set_key" : "_ZTIPN3ndk11ICInterfaceE",
   "name" : "ndk::ICInterface *",
   "referenced_type" : "_ZTIN3ndk11ICInterfaceE",
   "self_type" : "_ZTIPN3ndk11ICInterfaceE",
   "size" : 4,
   "source_file" : "frameworks/native/libs/binder/ndk/include_cpp/android/binder_interface_utils.h"
  },
  {
   "alignment" : 4,
   "linker_set_key" : "_ZTIPN3ndk12BnCInterfaceIN4aidl7android8hardware8security4dice11IDiceDeviceEEE",
   "name" : "ndk::BnCInterface<aidl::android::hardware::security::dice::IDiceDevice> *",
   "referenced_type" : "_ZTIN3ndk12BnCInterfaceIN4aidl7android8hardware8security4dice11IDiceDeviceEEE",
   "self_type" : "_ZTIPN3ndk12BnCInterfaceIN4aidl7android8hardware8security4dice11IDiceDeviceEEE",
   "size" : 4,
   "source_file" : "frameworks/native/libs/binder/ndk/include_cpp/android/binder_interface_utils.h"
  },
  {
   "alignment" : 4,
   "linker_set_key" : "_ZTIPN3ndk12BpCInterfaceIN4aidl7android8hardware8security4dice11IDiceDeviceEEE",
   "name" : "ndk::BpCInterface<aidl::android::hardware::security::dice::IDiceDevice> *",
   "referenced_type" : "_ZTIN3ndk12BpCInterfaceIN4aidl7android8hardware8security4dice11IDiceDeviceEEE",
   "self_type" : "_ZTIPN3ndk12BpCInterfaceIN4aidl7android8hardware8security4dice11IDiceDeviceEEE",
   "size" : 4,
   "source_file" : "frameworks/native/libs/binder/ndk/include_cpp/android/binder_interface_utils.h"
  },
  {
   "alignment" : 4,
   "linker_set_key" : "_ZTIPN3ndk13ScopedAParcelE",
   "name" : "ndk::ScopedAParcel *",
   "referenced_type" : "_ZTIN3ndk13ScopedAParcelE",
   "self_type" : "_ZTIPN3ndk13ScopedAParcelE",
   "size" : 4,
   "source_file" : "frameworks/native/libs/binder/ndk/include_cpp/android/binder_auto_utils.h"
  },
  {
   "alignment" : 4,
   "linker_set_key" : "_ZTIPN3ndk13ScopedAStatusE",
   "name" : "ndk::ScopedAStatus *",
   "referenced_type" : "_ZTIN3ndk13ScopedAStatusE",
   "self_type" : "_ZTIPN3ndk13ScopedAStatusE",
   "size" : 4,
   "source_file" : "frameworks/native/libs/binder/ndk/include_cpp/android/binder_auto_utils.h"
  },
  {
   "alignment" : 4,
   "linker_set_key" : "_ZTIPN3ndk13SharedRefBaseE",
   "name" : "ndk::SharedRefBase *",
   "referenced_type" : "_ZTIN3ndk13SharedRefBaseE",
   "self_type" : "_ZTIPN3ndk13SharedRefBaseE",
   "size" : 4,
   "source_file" : "frameworks/native/libs/binder/ndk/include_cpp/android/binder_interface_utils.h"
  },
  {
   "alignment" : 4,
   "linker_set_key" : "_ZTIPN3ndk17AParcelableHolderE",
   "name" : "ndk::AParcelableHolder *",
   "referenced_type" : "_ZTIN3ndk17AParcelableHolderE",
   "self_type" : "_ZTIPN3ndk17AParcelableHolderE",
   "size" : 4,
   "source_file" : "frameworks/native/libs/binder/ndk/include_cpp/android/binder_parcelable_utils.h"
  },
  {
   "alignment" : 4,
   "linker_set_key" : "_ZTIPN3ndk19ScopedAIBinder_WeakE",
   "name" : "ndk::ScopedAIBinder_Weak *",
   "referenced_type" : "_ZTIN3ndk19ScopedAIBinder_WeakE",
   "self_type" : "_ZTIPN3ndk19ScopedAIBinder_WeakE",
   "size" : 4,
   "source_file" : "frameworks/native/libs/binder/ndk/include_cpp/android/binder_auto_utils.h"
  },
  {
   "alignment" : 4,
   "linker_set_key" : "_ZTIPN3ndk20ScopedFileDescriptorE",
   "name" : "ndk::ScopedFileDescriptor *",
   "referenced_type" : "_ZTIN3ndk20ScopedFileDescriptorE",
   "self_type" : "_ZTIPN3ndk20ScopedFileDescriptorE",
   "size" : 4,
   "source_file" : "frameworks/native/libs/binder/ndk/include_cpp/android/binder_auto_utils.h"
  },
  {
   "alignment" : 4,
   "linker_set_key" : "_ZTIPN3ndk29ScopedAIBinder_DeathRecipientE",
   "name" : "ndk::ScopedAIBinder_DeathRecipient *",
   "referenced_type" : "_ZTIN3ndk29ScopedAIBinder_DeathRecipientE",
   "self_type" : "_ZTIPN3ndk29ScopedAIBinder_DeathRecipientE",
   "size" : 4,
   "source_file" : "frameworks/native/libs/binder/ndk/include_cpp/android/binder_auto_utils.h"
  },
  {
   "alignment" : 4,
   "linker_set_key" : "_ZTIPN3ndk4impl15ScopedAResourceIP13AIBinder_WeakXadL_Z20AIBinder_Weak_deleteEELS3_0EEE",
   "name" : "ndk::impl::ScopedAResource<AIBinder_Weak *, &AIBinder_Weak_delete, nullptr> *",
   "referenced_type" : "_ZTIN3ndk4impl15ScopedAResourceIP13AIBinder_WeakXadL_Z20AIBinder_Weak_deleteEELS3_0EEE",
   "self_type" : "_ZTIPN3ndk4impl15ScopedAResourceIP13AIBinder_WeakXadL_Z20AIBinder_Weak_deleteEELS3_0EEE",
   "size" : 4,
   "source_file" : "frameworks/native/libs/binder/ndk/include_cpp/android/binder_auto_utils.h"
  },
  {
   "alignment" : 4,
   "linker_set_key" : "_ZTIPN3ndk4impl15ScopedAResourceIP23AIBinder_DeathRecipientXadL_Z30AIBinder_DeathRecipient_deleteEELS3_0EEE",
   "name" : "ndk::impl::ScopedAResource<AIBinder_DeathRecipient *, &AIBinder_DeathRecipient_delete, nullptr> *",
   "referenced_type" : "_ZTIN3ndk4impl15ScopedAResourceIP23AIBinder_DeathRecipientXadL_Z30AIBinder_DeathRecipient_deleteEELS3_0EEE",
   "self_type" : "_ZTIPN3ndk4impl15ScopedAResourceIP23AIBinder_DeathRecipientXadL_Z30AIBinder_DeathRecipient_deleteEELS3_0EEE",
   "size" : 4,
   "source_file" : "frameworks/native/libs/binder/ndk/include_cpp/android/binder_auto_utils.h"
  },
  {
   "alignment" : 4,
   "linker_set_key" : "_ZTIPN3ndk4impl15ScopedAResourceIP7AParcelXadL_Z14AParcel_deleteEELS3_0EEE",
   "name" : "ndk::impl::ScopedAResource<AParcel *, &AParcel_delete, nullptr> *",
   "referenced_type" : "_ZTIN3ndk4impl15ScopedAResourceIP7AParcelXadL_Z14AParcel_deleteEELS3_0EEE",
   "self_type" : "_ZTIPN3ndk4impl15ScopedAResourceIP7AParcelXadL_Z14AParcel_deleteEELS3_0EEE",
   "size" : 4,
   "source_file" : "frameworks/native/libs/binder/ndk/include_cpp/android/binder_auto_utils.h"
  },
  {
   "alignment" : 4,
   "linker_set_key" : "_ZTIPN3ndk4impl15ScopedAResourceIP7AStatusXadL_Z14AStatus_deleteEELS3_0EEE",
   "name" : "ndk::impl::ScopedAResource<AStatus *, &AStatus_delete, nullptr> *",
   "referenced_type" : "_ZTIN3ndk4impl15ScopedAResourceIP7AStatusXadL_Z14AStatus_deleteEELS3_0EEE",
   "self_type" : "_ZTIPN3ndk4impl15ScopedAResourceIP7AStatusXadL_Z14AStatus_deleteEELS3_0EEE",
   "size" : 4,
   "source_file" : "frameworks/native/libs/binder/ndk/include_cpp/android/binder_auto_utils.h"
  },
  {
   "alignment" : 4,
   "linker_set_key" : "_ZTIPN4aidl7android8hardware8security4dice11BccHandoverE",
   "name" : "aidl::android::hardware::security::dice::BccHandover *",
   "referenced_type" : "_ZTIN4aidl7android8hardware8security4dice11BccHandoverE",
   "self_type" : "_ZTIPN4aidl7android8hardware8security4dice11BccHandoverE",
   "size" : 4,
   "source_file" : "out/soong/.intermediates/hardware/interfaces/security/dice/aidl/android.hardware.security.dice-V1-ndk-source/gen/include/aidl/android/hardware/security/dice/BccHandover.h"
  },
  {
   "alignment" : 4,
   "linker_set_key" : "_ZTIPN4aidl7android8hardware8security4dice11IDiceDeviceE",
   "name" : "aidl::android::hardware::security::dice::IDiceDevice *",
   "referenced_type" : "_ZTIN4aidl7android8hardware8security4dice11IDiceDeviceE",
   "self_type" : "_ZTIPN4aidl7android8hardware8security4dice11IDiceDeviceE",
   "size" : 4,
   "source_file" : "out/soong/.intermediates/hardware/interfaces/security/dice/aidl/android.hardware.security.dice-V1-ndk-source/gen/include/aidl/android/hardware/security/dice/IDiceDevice.h"
  },
  {
   "alignment" : 4,
   "linker_set_key" : "_ZTIPN4aidl7android8hardware8security4dice11InputValuesE",
   "name" : "aidl::android::hardware::security::dice::InputValues *",
   "referenced_type" : "_ZTIN4aidl7android8hardware8security4dice11InputValuesE",
   "self_type" : "_ZTIPN4aidl7android8hardware8security4dice11InputValuesE",
   "size" : 4,
   "source_file" : "out/soong/.intermediates/hardware/interfaces/security/dice/aidl/android.hardware.security.dice-V1-ndk-source/gen/include/aidl/android/hardware/security/dice/InputValues.h"
  },
  {
   "alignment" : 4,
   "linker_set_key" : "_ZTIPN4aidl7android8hardware8security4dice12BnDiceDeviceE",
   "name" : "aidl::android::hardware::security::dice::BnDiceDevice *",
   "referenced_type" : "_ZTIN4aidl7android8hardware8security4dice12BnDiceDeviceE",
   "self_type" : "_ZTIPN4aidl7android8hardware8security4dice12BnDiceDeviceE",
   "size" : 4,
   "source_file" : "out/soong/.intermediates/hardware/interfaces/security/dice/aidl/android.hardware.security.dice-V1-ndk-source/gen/include/aidl/android/hardware/security/dice/BnDiceDevice.h"
  },
  {
   "alignment" : 4,
   "linker_set_key" : "_ZTIPN4aidl7android8hardware8security4dice12BpDiceDeviceE",
   "name" : "aidl::android::hardware::security::dice::BpDiceDevice *",
   "referenced_type" : "_ZTIN4aidl7android8hardware8security4dice12BpDiceDeviceE",
   "self_type" : "_ZTIPN4aidl7android8hardware8security4dice12BpDiceDeviceE",
   "size" : 4,
   "source_file" : "out/soong/.intermediates/hardware/interfaces/security/dice/aidl/android.hardware.security.dice-V1-ndk-source/gen/include/aidl/android/hardware/security/dice/BpDiceDevice.h"
  },
  {
   "alignment" : 4,
   "linker_set_key" : "_ZTIPN4aidl7android8hardware8security4dice18IDiceDeviceDefaultE",
   "name" : "aidl::android::hardware::security::dice::IDiceDeviceDefault *",
   "referenced_type" : "_ZTIN4aidl7android8hardware8security4dice18IDiceDeviceDefaultE",
   "self_type" : "_ZTIPN4aidl7android8hardware8security4dice18IDiceDeviceDefaultE",
   "size" : 4,
   "source_file" : "out/soong/.intermediates/hardware/interfaces/security/dice/aidl/android.hardware.security.dice-V1-ndk-source/gen/include/aidl/android/hardware/security/dice/IDiceDevice.h"
  },
  {
   "alignment" : 4,
   "linker_set_key" : "_ZTIPN4aidl7android8hardware8security4dice20IDiceDeviceDelegatorE",
   "name" : "aidl::android::hardware::security::dice::IDiceDeviceDelegator *",
   "referenced_type" : "_ZTIN4aidl7android8hardware8security4dice20IDiceDeviceDelegatorE",
   "self_type" : "_ZTIPN4aidl7android8hardware8security4dice20IDiceDeviceDelegatorE",
   "size" : 4,
   "source_file" : "out/soong/.intermediates/hardware/interfaces/security/dice/aidl/android.hardware.security.dice-V1-ndk-source/gen/include/aidl/android/hardware/security/dice/BnDiceDevice.h"
  },
  {
   "alignment" : 4,
   "linker_set_key" : "_ZTIPN4aidl7android8hardware8security4dice3BccE",
   "name" : "aidl::android::hardware::security::dice::Bcc *",
   "referenced_type" : "_ZTIN4aidl7android8hardware8security4dice3BccE",
   "self_type" : "_ZTIPN4aidl7android8hardware8security4dice3BccE",
   "size" : 4,
   "source_file" : "out/soong/.intermediates/hardware/interfaces/security/dice/aidl/android.hardware.security.dice-V1-ndk-source/gen/include/aidl/android/hardware/security/dice/Bcc.h"
  },
  {
   "alignment" : 4,
   "linker_set_key" : "_ZTIPN4aidl7android8hardware8security4dice6ConfigE",
   "name" : "aidl::android::hardware::security::dice::Config *",
   "referenced_type" : "_ZTIN4aidl7android8hardware8security4dice6ConfigE",
   "self_type" : "_ZTIPN4aidl7android8hardware8security4dice6ConfigE",
   "size" : 4,
   "source_file" : "out/soong/.intermediates/hardware/interfaces/security/dice/aidl/android.hardware.security.dice-V1-ndk-source/gen/include/aidl/android/hardware/security/dice/Config.h"
  },
  {
   "alignment" : 4,
   "linker_set_key" : "_ZTIPN4aidl7android8hardware8security4dice9SignatureE",
   "name" : "aidl::android::hardware::security::dice::Signature *",
   "referenced_type" : "_ZTIN4aidl7android8hardware8security4dice9SignatureE",
   "self_type" : "_ZTIPN4aidl7android8hardware8security4dice9SignatureE",
   "size" : 4,
   "source_file" : "out/soong/.intermediates/hardware/interfaces/security/dice/aidl/android.hardware.security.dice-V1-ndk-source/gen/include/aidl/android/hardware/security/dice/IDiceDevice.h"
  },
  {
   "alignment" : 4,
   "linker_set_key" : "_ZTIPNSt3__110shared_ptrIN4aidl7android8hardware8security4dice11IDiceDeviceEEE",
   "name" : "std::shared_ptr<aidl::android::hardware::security::dice::IDiceDevice> *",
   "referenced_type" : "_ZTINSt3__110shared_ptrIN4aidl7android8hardware8security4dice11IDiceDeviceEEE",
   "self_type" : "_ZTIPNSt3__110shared_ptrIN4aidl7android8hardware8security4dice11IDiceDeviceEEE",
   "size" : 4,
   "source_file" : "out/soong/.intermediates/hardware/interfaces/security/dice/aidl/android.hardware.security.dice-V1-ndk-source/gen/include/aidl/android/hardware/security/dice/IDiceDevice.h"
  },
  {
   "alignment" : 4,
   "linker_set_key" : "_ZTIPNSt3__112basic_stringIcNS_11char_traitsIcEENS_9allocatorIcEEEE",
   "name" : "std::basic_string<char, std::char_traits<char>, std::allocator<char>> *",
   "referenced_type" : "_ZTINSt3__112basic_stringIcNS_11char_traitsIcEENS_9allocatorIcEEEE",
   "self_type" : "_ZTIPNSt3__112basic_stringIcNS_11char_traitsIcEENS_9allocatorIcEEEE",
   "size" : 4,
   "source_file" : "out/soong/.intermediates/hardware/interfaces/security/dice/aidl/android.hardware.security.dice-V1-ndk-source/gen/include/aidl/android/hardware/security/dice/IDiceDevice.h"
  },
  {
   "alignment" : 4,
   "linker_set_key" : "_ZTIPNSt3__16vectorIDsNS_9allocatorIDsEEEE",
   "name" : "std::vector<char16_t, std::allocator<char16_t>> *",
   "referenced_type" : "_ZTINSt3__16vectorIDsNS_9allocatorIDsEEEE",
   "self_type" : "_ZTIPNSt3__16vectorIDsNS_9allocatorIDsEEEE",
   "size" : 4,
   "source_file" : "frameworks/native/libs/binder/ndk/include_cpp/android/binder_parcel_utils.h"
  },
  {
   "alignment" : 4,
   "linker_set_key" : "_ZTIPNSt3__16vectorIbNS_9allocatorIbEEEE",
   "name" : "std::vector<bool, std::allocator<bool>> *",
   "referenced_type" : "_ZTINSt3__16vectorIbNS_9allocatorIbEEEE",
   "self_type" : "_ZTIPNSt3__16vectorIbNS_9allocatorIbEEEE",
   "size" : 4,
   "source_file" : "frameworks/native/libs/binder/ndk/include_cpp/android/binder_parcel_utils.h"
  },
  {
   "alignment" : 4,
   "linker_set_key" : "_ZTIPNSt3__16vectorIdNS_9allocatorIdEEEE",
   "name" : "std::vector<double, std::allocator<double>> *",
   "referenced_type" : "_ZTINSt3__16vectorIdNS_9allocatorIdEEEE",
   "self_type" : "_ZTIPNSt3__16vectorIdNS_9allocatorIdEEEE",
   "size" : 4,
   "source_file" : "frameworks/native/libs/binder/ndk/include_cpp/android/binder_parcel_utils.h"
  },
  {
   "alignment" : 4,
   "linker_set_key" : "_ZTIPNSt3__16vectorIfNS_9allocatorIfEEEE",
   "name" : "std::vector<float, std::allocator<float>> *",
   "referenced_type" : "_ZTINSt3__16vectorIfNS_9allocatorIfEEEE",
   "self_type" : "_ZTIPNSt3__16vectorIfNS_9allocatorIfEEEE",
   "size" : 4,
   "source_file" : "frameworks/native/libs/binder/ndk/include_cpp/android/binder_parcel_utils.h"
  },
  {
   "alignment" : 4,
   "linker_set_key" : "_ZTIPNSt3__16vectorIhNS_9allocatorIhEEEE",
   "name" : "std::vector<unsigned char, std::allocator<unsigned char>> *",
   "referenced_type" : "_ZTINSt3__16vectorIhNS_9allocatorIhEEEE",
   "self_type" : "_ZTIPNSt3__16vectorIhNS_9allocatorIhEEEE",
   "size" : 4,
   "source_file" : "frameworks/native/libs/binder/ndk/include_cpp/android/binder_parcel_utils.h"
  },
  {
   "alignment" : 4,
   "linker_set_key" : "_ZTIPNSt3__16vectorIiNS_9allocatorIiEEEE",
   "name" : "std::vector<int, std::allocator<int>> *",
   "referenced_type" : "_ZTINSt3__16vectorIiNS_9allocatorIiEEEE",
   "self_type" : "_ZTIPNSt3__16vectorIiNS_9allocatorIiEEEE",
   "size" : 4,
   "source_file" : "frameworks/native/libs/binder/ndk/include_cpp/android/binder_parcel_utils.h"
  },
  {
   "alignment" : 4,
   "linker_set_key" : "_ZTIPNSt3__16vectorIjNS_9allocatorIjEEEE",
   "name" : "std::vector<unsigned int, std::allocator<unsigned int>> *",
   "referenced_type" : "_ZTINSt3__16vectorIjNS_9allocatorIjEEEE",
   "self_type" : "_ZTIPNSt3__16vectorIjNS_9allocatorIjEEEE",
   "size" : 4,
   "source_file" : "frameworks/native/libs/binder/ndk/include_cpp/android/binder_parcel_utils.h"
  },
  {
   "alignment" : 4,
   "linker_set_key" : "_ZTIPNSt3__16vectorIxNS_9allocatorIxEEEE",
   "name" : "std::vector<long long, std::allocator<long long>> *",
   "referenced_type" : "_ZTINSt3__16vectorIxNS_9allocatorIxEEEE",
   "self_type" : "_ZTIPNSt3__16vectorIxNS_9allocatorIxEEEE",
   "size" : 4,
   "source_file" : "frameworks/native/libs/binder/ndk/include_cpp/android/binder_parcel_utils.h"
  },
  {
   "alignment" : 4,
   "linker_set_key" : "_ZTIPNSt3__16vectorIyNS_9allocatorIyEEEE",
   "name" : "std::vector<unsigned long long, std::allocator<unsigned long long>> *",
   "referenced_type" : "_ZTINSt3__16vectorIyNS_9allocatorIyEEEE",
   "self_type" : "_ZTIPNSt3__16vectorIyNS_9allocatorIyEEEE",
   "size" : 4,
   "source_file" : "frameworks/native/libs/binder/ndk/include_cpp/android/binder_parcel_utils.h"
  },
  {
   "alignment" : 4,
   "linker_set_key" : "_ZTIPNSt3__18optionalINS_6vectorIDsNS_9allocatorIDsEEEEEE",
   "name" : "std::optional<std::vector<char16_t, std::allocator<char16_t>>> *",
   "referenced_type" : "_ZTINSt3__18optionalINS_6vectorIDsNS_9allocatorIDsEEEEEE",
   "self_type" : "_ZTIPNSt3__18optionalINS_6vectorIDsNS_9allocatorIDsEEEEEE",
   "size" : 4,
   "source_file" : "frameworks/native/libs/binder/ndk/include_cpp/android/binder_parcel_utils.h"
  },
  {
   "alignment" : 4,
   "linker_set_key" : "_ZTIPNSt3__18optionalINS_6vectorIbNS_9allocatorIbEEEEEE",
   "name" : "std::optional<std::vector<bool, std::allocator<bool>>> *",
   "referenced_type" : "_ZTINSt3__18optionalINS_6vectorIbNS_9allocatorIbEEEEEE",
   "self_type" : "_ZTIPNSt3__18optionalINS_6vectorIbNS_9allocatorIbEEEEEE",
   "size" : 4,
   "source_file" : "frameworks/native/libs/binder/ndk/include_cpp/android/binder_parcel_utils.h"
  },
  {
   "alignment" : 4,
   "linker_set_key" : "_ZTIPNSt3__18optionalINS_6vectorIdNS_9allocatorIdEEEEEE",
   "name" : "std::optional<std::vector<double, std::allocator<double>>> *",
   "referenced_type" : "_ZTINSt3__18optionalINS_6vectorIdNS_9allocatorIdEEEEEE",
   "self_type" : "_ZTIPNSt3__18optionalINS_6vectorIdNS_9allocatorIdEEEEEE",
   "size" : 4,
   "source_file" : "frameworks/native/libs/binder/ndk/include_cpp/android/binder_parcel_utils.h"
  },
  {
   "alignment" : 4,
   "linker_set_key" : "_ZTIPNSt3__18optionalINS_6vectorIfNS_9allocatorIfEEEEEE",
   "name" : "std::optional<std::vector<float, std::allocator<float>>> *",
   "referenced_type" : "_ZTINSt3__18optionalINS_6vectorIfNS_9allocatorIfEEEEEE",
   "self_type" : "_ZTIPNSt3__18optionalINS_6vectorIfNS_9allocatorIfEEEEEE",
   "size" : 4,
   "source_file" : "frameworks/native/libs/binder/ndk/include_cpp/android/binder_parcel_utils.h"
  },
  {
   "alignment" : 4,
   "linker_set_key" : "_ZTIPNSt3__18optionalINS_6vectorIhNS_9allocatorIhEEEEEE",
   "name" : "std::optional<std::vector<unsigned char, std::allocator<unsigned char>>> *",
   "referenced_type" : "_ZTINSt3__18optionalINS_6vectorIhNS_9allocatorIhEEEEEE",
   "self_type" : "_ZTIPNSt3__18optionalINS_6vectorIhNS_9allocatorIhEEEEEE",
   "size" : 4,
   "source_file" : "frameworks/native/libs/binder/ndk/include_cpp/android/binder_parcel_utils.h"
  },
  {
   "alignment" : 4,
   "linker_set_key" : "_ZTIPNSt3__18optionalINS_6vectorIiNS_9allocatorIiEEEEEE",
   "name" : "std::optional<std::vector<int, std::allocator<int>>> *",
   "referenced_type" : "_ZTINSt3__18optionalINS_6vectorIiNS_9allocatorIiEEEEEE",
   "self_type" : "_ZTIPNSt3__18optionalINS_6vectorIiNS_9allocatorIiEEEEEE",
   "size" : 4,
   "source_file" : "frameworks/native/libs/binder/ndk/include_cpp/android/binder_parcel_utils.h"
  },
  {
   "alignment" : 4,
   "linker_set_key" : "_ZTIPNSt3__18optionalINS_6vectorIjNS_9allocatorIjEEEEEE",
   "name" : "std::optional<std::vector<unsigned int, std::allocator<unsigned int>>> *",
   "referenced_type" : "_ZTINSt3__18optionalINS_6vectorIjNS_9allocatorIjEEEEEE",
   "self_type" : "_ZTIPNSt3__18optionalINS_6vectorIjNS_9allocatorIjEEEEEE",
   "size" : 4,
   "source_file" : "frameworks/native/libs/binder/ndk/include_cpp/android/binder_parcel_utils.h"
  },
  {
   "alignment" : 4,
   "linker_set_key" : "_ZTIPNSt3__18optionalINS_6vectorIxNS_9allocatorIxEEEEEE",
   "name" : "std::optional<std::vector<long long, std::allocator<long long>>> *",
   "referenced_type" : "_ZTINSt3__18optionalINS_6vectorIxNS_9allocatorIxEEEEEE",
   "self_type" : "_ZTIPNSt3__18optionalINS_6vectorIxNS_9allocatorIxEEEEEE",
   "size" : 4,
   "source_file" : "frameworks/native/libs/binder/ndk/include_cpp/android/binder_parcel_utils.h"
  },
  {
   "alignment" : 4,
   "linker_set_key" : "_ZTIPNSt3__18optionalINS_6vectorIyNS_9allocatorIyEEEEEE",
   "name" : "std::optional<std::vector<unsigned long long, std::allocator<unsigned long long>>> *",
   "referenced_type" : "_ZTINSt3__18optionalINS_6vectorIyNS_9allocatorIyEEEEEE",
   "self_type" : "_ZTIPNSt3__18optionalINS_6vectorIyNS_9allocatorIyEEEEEE",
   "size" : 4,
   "source_file" : "frameworks/native/libs/binder/ndk/include_cpp/android/binder_parcel_utils.h"
  },
  {
   "alignment" : 4,
   "linker_set_key" : "_ZTIPP7AParcel",
   "name" : "AParcel **",
   "referenced_type" : "_ZTIP7AParcel",
   "self_type" : "_ZTIPP7AParcel",
   "size" : 4,
   "source_file" : "frameworks/native/libs/binder/ndk/include_cpp/android/binder_auto_utils.h"
  },
  {
   "alignment" : 4,
   "linker_set_key" : "_ZTIPP7AStatus",
   "name" : "AStatus **",
   "referenced_type" : "_ZTIP7AStatus",
   "self_type" : "_ZTIPP7AStatus",
   "size" : 4,
   "source_file" : "frameworks/native/libs/binder/ndk/include_cpp/android/binder_auto_utils.h"
  },
  {
   "alignment" : 4,
   "linker_set_key" : "_ZTIPP8AIBinder",
   "name" : "AIBinder **",
   "referenced_type" : "_ZTIP8AIBinder",
   "self_type" : "_ZTIPP8AIBinder",
   "size" : 4,
   "source_file" : "frameworks/native/libs/binder/ndk/include_cpp/android/binder_auto_utils.h"
  },
  {
   "alignment" : 4,
   "linker_set_key" : "_ZTIPPKc",
   "name" : "const char **",
   "referenced_type" : "_ZTIPKc",
   "self_type" : "_ZTIPPKc",
   "size" : 4,
   "source_file" : "frameworks/native/libs/binder/ndk/include_cpp/android/binder_interface_utils.h"
  },
  {
   "alignment" : 4,
   "linker_set_key" : "_ZTIPi",
   "name" : "int *",
   "referenced_type" : "_ZTIi",
   "self_type" : "_ZTIPi",
   "size" : 4,
   "source_file" : "out/soong/.intermediates/hardware/interfaces/security/dice/aidl/android.hardware.security.dice-V1-ndk-source/gen/include/aidl/android/hardware/security/dice/IDiceDevice.h"
  },
  {
   "alignment" : 4,
   "linker_set_key" : "_ZTIPv",
   "name" : "void *",
   "referenced_type" : "_ZTIv",
   "self_type" : "_ZTIPv",
   "size" : 4,
   "source_file" : "frameworks/native/libs/binder/ndk/include_cpp/android/binder_interface_utils.h"
  }
 ],
 "qualified_types" :
 [
  {
   "is_const" : true,
   "linker_set_key" : "_ZTIK7AParcel",
   "name" : "const AParcel",
   "referenced_type" : "_ZTI7AParcel",
   "self_type" : "_ZTIK7AParcel",
   "source_file" : "frameworks/native/libs/binder/ndk/include_cpp/android/binder_interface_utils.h"
  },
  {
   "alignment" : 4,
   "is_const" : true,
   "linker_set_key" : "_ZTIKN3ndk10SpAIBinderE",
   "name" : "const ndk::SpAIBinder",
   "referenced_type" : "_ZTIN3ndk10SpAIBinderE",
   "self_type" : "_ZTIKN3ndk10SpAIBinderE",
   "size" : 4,
   "source_file" : "frameworks/native/libs/binder/ndk/include_cpp/android/binder_auto_utils.h"
  },
  {
   "alignment" : 4,
   "is_const" : true,
   "linker_set_key" : "_ZTIKN3ndk13ScopedAParcelE",
   "name" : "const ndk::ScopedAParcel",
   "referenced_type" : "_ZTIN3ndk13ScopedAParcelE",
   "self_type" : "_ZTIKN3ndk13ScopedAParcelE",
   "size" : 4,
   "source_file" : "frameworks/native/libs/binder/ndk/include_cpp/android/binder_auto_utils.h"
  },
  {
   "alignment" : 4,
   "is_const" : true,
   "linker_set_key" : "_ZTIKN3ndk13ScopedAStatusE",
   "name" : "const ndk::ScopedAStatus",
   "referenced_type" : "_ZTIN3ndk13ScopedAStatusE",
   "self_type" : "_ZTIKN3ndk13ScopedAStatusE",
   "size" : 4,
   "source_file" : "frameworks/native/libs/binder/ndk/include_cpp/android/binder_auto_utils.h"
  },
  {
   "alignment" : 4,
   "is_const" : true,
   "linker_set_key" : "_ZTIKN3ndk17AParcelableHolderE",
   "name" : "const ndk::AParcelableHolder",
   "referenced_type" : "_ZTIN3ndk17AParcelableHolderE",
   "self_type" : "_ZTIKN3ndk17AParcelableHolderE",
   "size" : 12,
   "source_file" : "frameworks/native/libs/binder/ndk/include_cpp/android/binder_parcelable_utils.h"
  },
  {
   "alignment" : 4,
   "is_const" : true,
   "linker_set_key" : "_ZTIKN3ndk20ScopedFileDescriptorE",
   "name" : "const ndk::ScopedFileDescriptor",
   "referenced_type" : "_ZTIN3ndk20ScopedFileDescriptorE",
   "self_type" : "_ZTIKN3ndk20ScopedFileDescriptorE",
   "size" : 4,
   "source_file" : "frameworks/native/libs/binder/ndk/include_cpp/android/binder_auto_utils.h"
  },
  {
   "alignment" : 4,
   "is_const" : true,
   "linker_set_key" : "_ZTIKN3ndk4impl15ScopedAResourceIP7AParcelXadL_Z14AParcel_deleteEELS3_0EEE",
   "name" : "const ndk::impl::ScopedAResource<AParcel *, &AParcel_delete, nullptr>",
   "referenced_type" : "_ZTIN3ndk4impl15ScopedAResourceIP7AParcelXadL_Z14AParcel_deleteEELS3_0EEE",
   "self_type" : "_ZTIKN3ndk4impl15ScopedAResourceIP7AParcelXadL_Z14AParcel_deleteEELS3_0EEE",
   "size" : 4,
   "source_file" : "frameworks/native/libs/binder/ndk/include_cpp/android/binder_auto_utils.h"
  },
  {
   "alignment" : 4,
   "is_const" : true,
   "linker_set_key" : "_ZTIKN3ndk4impl15ScopedAResourceIP7AStatusXadL_Z14AStatus_deleteEELS3_0EEE",
   "name" : "const ndk::impl::ScopedAResource<AStatus *, &AStatus_delete, nullptr>",
   "referenced_type" : "_ZTIN3ndk4impl15ScopedAResourceIP7AStatusXadL_Z14AStatus_deleteEELS3_0EEE",
   "self_type" : "_ZTIKN3ndk4impl15ScopedAResourceIP7AStatusXadL_Z14AStatus_deleteEELS3_0EEE",
   "size" : 4,
   "source_file" : "frameworks/native/libs/binder/ndk/include_cpp/android/binder_auto_utils.h"
  },
  {
   "alignment" : 4,
   "is_const" : true,
   "linker_set_key" : "_ZTIKN4aidl7android8hardware8security4dice11BccHandoverE",
   "name" : "const aidl::android::hardware::security::dice::BccHandover",
   "referenced_type" : "_ZTIN4aidl7android8hardware8security4dice11BccHandoverE",
   "self_type" : "_ZTIKN4aidl7android8hardware8security4dice11BccHandoverE",
   "size" : 76,
   "source_file" : "out/soong/.intermediates/hardware/interfaces/security/dice/aidl/android.hardware.security.dice-V1-ndk-source/gen/include/aidl/android/hardware/security/dice/BccHandover.h"
  },
  {
   "alignment" : 4,
   "is_const" : true,
   "linker_set_key" : "_ZTIKN4aidl7android8hardware8security4dice11InputValuesE",
   "name" : "const aidl::android::hardware::security::dice::InputValues",
   "referenced_type" : "_ZTIN4aidl7android8hardware8security4dice11InputValuesE",
   "self_type" : "_ZTIKN4aidl7android8hardware8security4dice11InputValuesE",
   "size" : 224,
   "source_file" : "out/soong/.intermediates/hardware/interfaces/security/dice/aidl/android.hardware.security.dice-V1-ndk-source/gen/include/aidl/android/hardware/security/dice/InputValues.h"
  },
  {
   "alignment" : 4,
   "is_const" : true,
   "linker_set_key" : "_ZTIKN4aidl7android8hardware8security4dice3BccE",
   "name" : "const aidl::android::hardware::security::dice::Bcc",
   "referenced_type" : "_ZTIN4aidl7android8hardware8security4dice3BccE",
   "self_type" : "_ZTIKN4aidl7android8hardware8security4dice3BccE",
   "size" : 12,
   "source_file" : "out/soong/.intermediates/hardware/interfaces/security/dice/aidl/android.hardware.security.dice-V1-ndk-source/gen/include/aidl/android/hardware/security/dice/Bcc.h"
  },
  {
   "alignment" : 4,
   "is_const" : true,
   "linker_set_key" : "_ZTIKN4aidl7android8hardware8security4dice4ModeE",
   "name" : "const aidl::android::hardware::security::dice::Mode",
   "referenced_type" : "_ZTIN4aidl7android8hardware8security4dice4ModeE",
   "self_type" : "_ZTIKN4aidl7android8hardware8security4dice4ModeE",
   "size" : 4,
   "source_file" : "frameworks/native/libs/binder/ndk/include_cpp/android/binder_to_string.h"
  },
  {
   "alignment" : 4,
   "is_const" : true,
   "linker_set_key" : "_ZTIKN4aidl7android8hardware8security4dice6ConfigE",
   "name" : "const aidl::android::hardware::security::dice::Config",
   "referenced_type" : "_ZTIN4aidl7android8hardware8security4dice6ConfigE",
   "self_type" : "_ZTIKN4aidl7android8hardware8security4dice6ConfigE",
   "size" : 12,
   "source_file" : "out/soong/.intermediates/hardware/interfaces/security/dice/aidl/android.hardware.security.dice-V1-ndk-source/gen/include/aidl/android/hardware/security/dice/Config.h"
  },
  {
   "alignment" : 4,
   "is_const" : true,
   "linker_set_key" : "_ZTIKN4aidl7android8hardware8security4dice9SignatureE",
   "name" : "const aidl::android::hardware::security::dice::Signature",
   "referenced_type" : "_ZTIN4aidl7android8hardware8security4dice9SignatureE",
   "self_type" : "_ZTIKN4aidl7android8hardware8security4dice9SignatureE",
   "size" : 12,
   "source_file" : "out/soong/.intermediates/hardware/interfaces/security/dice/aidl/android.hardware.security.dice-V1-ndk-source/gen/include/aidl/android/hardware/security/dice/Signature.h"
  },
  {
   "alignment" : 4,
   "is_const" : true,
   "linker_set_key" : "_ZTIKNSt3__110shared_ptrIN4aidl7android8hardware8security4dice11IDiceDeviceEEE",
   "name" : "const std::shared_ptr<aidl::android::hardware::security::dice::IDiceDevice>",
   "referenced_type" : "_ZTINSt3__110shared_ptrIN4aidl7android8hardware8security4dice11IDiceDeviceEEE",
   "self_type" : "_ZTIKNSt3__110shared_ptrIN4aidl7android8hardware8security4dice11IDiceDeviceEEE",
   "size" : 8,
   "source_file" : "out/soong/.intermediates/hardware/interfaces/security/dice/aidl/android.hardware.security.dice-V1-ndk-source/gen/include/aidl/android/hardware/security/dice/IDiceDevice.h"
  },
  {
   "alignment" : 4,
   "is_const" : true,
   "linker_set_key" : "_ZTIKNSt3__112basic_stringIcNS_11char_traitsIcEENS_9allocatorIcEEEE",
   "name" : "const std::basic_string<char, std::char_traits<char>, std::allocator<char>>",
   "referenced_type" : "_ZTINSt3__112basic_stringIcNS_11char_traitsIcEENS_9allocatorIcEEEE",
   "self_type" : "_ZTIKNSt3__112basic_stringIcNS_11char_traitsIcEENS_9allocatorIcEEEE",
   "size" : 12,
   "source_file" : "out/soong/.intermediates/hardware/interfaces/security/dice/aidl/android.hardware.security.dice-V1-ndk-source/gen/include/aidl/android/hardware/security/dice/IDiceDevice.h"
  },
  {
   "alignment" : 4,
   "is_const" : true,
   "linker_set_key" : "_ZTIKNSt3__15arrayIN4aidl7android8hardware8security4dice4ModeELj4EEE",
   "name" : "const std::array<aidl::android::hardware::security::dice::Mode, 4U>",
   "referenced_type" : "_ZTINSt3__15arrayIN4aidl7android8hardware8security4dice4ModeELj4EEE",
   "self_type" : "_ZTIKNSt3__15arrayIN4aidl7android8hardware8security4dice4ModeELj4EEE",
   "size" : 16,
   "source_file" : "out/soong/.intermediates/hardware/interfaces/security/dice/aidl/android.hardware.security.dice-V1-ndk-source/gen/include/aidl/android/hardware/security/dice/Mode.h"
  },
  {
   "alignment" : 1,
   "is_const" : true,
   "linker_set_key" : "_ZTIKNSt3__15arrayIhLj32EEE",
   "name" : "const std::array<unsigned char, 32>",
   "referenced_type" : "_ZTINSt3__15arrayIhLj32EEE",
   "self_type" : "_ZTIKNSt3__15arrayIhLj32EEE",
   "size" : 32,
   "source_file" : "frameworks/native/libs/binder/ndk/include_cpp/android/binder_to_string.h"
  },
  {
   "alignment" : 1,
   "is_const" : true,
   "linker_set_key" : "_ZTIKNSt3__15arrayIhLj64EEE",
   "name" : "const std::array<unsigned char, 64>",
   "referenced_type" : "_ZTINSt3__15arrayIhLj64EEE",
   "self_type" : "_ZTIKNSt3__15arrayIhLj64EEE",
   "size" : 64,
   "source_file" : "frameworks/native/libs/binder/ndk/include_cpp/android/binder_to_string.h"
  },
  {
   "alignment" : 4,
   "is_const" : true,
   "linker_set_key" : "_ZTIKNSt3__16vectorIDsNS_9allocatorIDsEEEE",
   "name" : "const std::vector<char16_t, std::allocator<char16_t>>",
   "referenced_type" : "_ZTINSt3__16vectorIDsNS_9allocatorIDsEEEE",
   "self_type" : "_ZTIKNSt3__16vectorIDsNS_9allocatorIDsEEEE",
   "size" : 12,
   "source_file" : "frameworks/native/libs/binder/ndk/include_cpp/android/binder_parcel_utils.h"
  },
  {
   "alignment" : 4,
   "is_const" : true,
   "linker_set_key" : "_ZTIKNSt3__16vectorIN4aidl7android8hardware8security4dice11InputValuesENS_9allocatorIS6_EEEE",
   "name" : "const std::vector<aidl::android::hardware::security::dice::InputValues, std::allocator<aidl::android::hardware::security::dice::InputValues>>",
   "referenced_type" : "_ZTINSt3__16vectorIN4aidl7android8hardware8security4dice11InputValuesENS_9allocatorIS6_EEEE",
   "self_type" : "_ZTIKNSt3__16vectorIN4aidl7android8hardware8security4dice11InputValuesENS_9allocatorIS6_EEEE",
   "size" : 12,
   "source_file" : "out/soong/.intermediates/hardware/interfaces/security/dice/aidl/android.hardware.security.dice-V1-ndk-source/gen/include/aidl/android/hardware/security/dice/IDiceDevice.h"
  },
  {
   "alignment" : 4,
   "is_const" : true,
   "linker_set_key" : "_ZTIKNSt3__16vectorIbNS_9allocatorIbEEEE",
   "name" : "const std::vector<bool, std::allocator<bool>>",
   "referenced_type" : "_ZTINSt3__16vectorIbNS_9allocatorIbEEEE",
   "self_type" : "_ZTIKNSt3__16vectorIbNS_9allocatorIbEEEE",
   "size" : 12,
   "source_file" : "frameworks/native/libs/binder/ndk/include_cpp/android/binder_parcel_utils.h"
  },
  {
   "alignment" : 4,
   "is_const" : true,
   "linker_set_key" : "_ZTIKNSt3__16vectorIdNS_9allocatorIdEEEE",
   "name" : "const std::vector<double, std::allocator<double>>",
   "referenced_type" : "_ZTINSt3__16vectorIdNS_9allocatorIdEEEE",
   "self_type" : "_ZTIKNSt3__16vectorIdNS_9allocatorIdEEEE",
   "size" : 12,
   "source_file" : "frameworks/native/libs/binder/ndk/include_cpp/android/binder_parcel_utils.h"
  },
  {
   "alignment" : 4,
   "is_const" : true,
   "linker_set_key" : "_ZTIKNSt3__16vectorIfNS_9allocatorIfEEEE",
   "name" : "const std::vector<float, std::allocator<float>>",
   "referenced_type" : "_ZTINSt3__16vectorIfNS_9allocatorIfEEEE",
   "self_type" : "_ZTIKNSt3__16vectorIfNS_9allocatorIfEEEE",
   "size" : 12,
   "source_file" : "frameworks/native/libs/binder/ndk/include_cpp/android/binder_parcel_utils.h"
  },
  {
   "alignment" : 4,
   "is_const" : true,
   "linker_set_key" : "_ZTIKNSt3__16vectorIhNS_9allocatorIhEEEE",
   "name" : "const std::vector<unsigned char, std::allocator<unsigned char>>",
   "referenced_type" : "_ZTINSt3__16vectorIhNS_9allocatorIhEEEE",
   "self_type" : "_ZTIKNSt3__16vectorIhNS_9allocatorIhEEEE",
   "size" : 12,
   "source_file" : "frameworks/native/libs/binder/ndk/include_cpp/android/binder_parcel_utils.h"
  },
  {
   "alignment" : 4,
   "is_const" : true,
   "linker_set_key" : "_ZTIKNSt3__16vectorIiNS_9allocatorIiEEEE",
   "name" : "const std::vector<int, std::allocator<int>>",
   "referenced_type" : "_ZTINSt3__16vectorIiNS_9allocatorIiEEEE",
   "self_type" : "_ZTIKNSt3__16vectorIiNS_9allocatorIiEEEE",
   "size" : 12,
   "source_file" : "frameworks/native/libs/binder/ndk/include_cpp/android/binder_parcel_utils.h"
  },
  {
   "alignment" : 4,
   "is_const" : true,
   "linker_set_key" : "_ZTIKNSt3__16vectorIjNS_9allocatorIjEEEE",
   "name" : "const std::vector<unsigned int, std::allocator<unsigned int>>",
   "referenced_type" : "_ZTINSt3__16vectorIjNS_9allocatorIjEEEE",
   "self_type" : "_ZTIKNSt3__16vectorIjNS_9allocatorIjEEEE",
   "size" : 12,
   "source_file" : "frameworks/native/libs/binder/ndk/include_cpp/android/binder_parcel_utils.h"
  },
  {
   "alignment" : 4,
   "is_const" : true,
   "linker_set_key" : "_ZTIKNSt3__16vectorIxNS_9allocatorIxEEEE",
   "name" : "const std::vector<long long, std::allocator<long long>>",
   "referenced_type" : "_ZTINSt3__16vectorIxNS_9allocatorIxEEEE",
   "self_type" : "_ZTIKNSt3__16vectorIxNS_9allocatorIxEEEE",
   "size" : 12,
   "source_file" : "frameworks/native/libs/binder/ndk/include_cpp/android/binder_parcel_utils.h"
  },
  {
   "alignment" : 4,
   "is_const" : true,
   "linker_set_key" : "_ZTIKNSt3__16vectorIyNS_9allocatorIyEEEE",
   "name" : "const std::vector<unsigned long long, std::allocator<unsigned long long>>",
   "referenced_type" : "_ZTINSt3__16vectorIyNS_9allocatorIyEEEE",
   "self_type" : "_ZTIKNSt3__16vectorIyNS_9allocatorIyEEEE",
   "size" : 12,
   "source_file" : "frameworks/native/libs/binder/ndk/include_cpp/android/binder_parcel_utils.h"
  },
  {
   "alignment" : 4,
   "is_const" : true,
   "linker_set_key" : "_ZTIKNSt3__18optionalINS_6vectorIDsNS_9allocatorIDsEEEEEE",
   "name" : "const std::optional<std::vector<char16_t, std::allocator<char16_t>>>",
   "referenced_type" : "_ZTINSt3__18optionalINS_6vectorIDsNS_9allocatorIDsEEEEEE",
   "self_type" : "_ZTIKNSt3__18optionalINS_6vectorIDsNS_9allocatorIDsEEEEEE",
   "size" : 16,
   "source_file" : "frameworks/native/libs/binder/ndk/include_cpp/android/binder_parcel_utils.h"
  },
  {
   "alignment" : 4,
   "is_const" : true,
   "linker_set_key" : "_ZTIKNSt3__18optionalINS_6vectorIbNS_9allocatorIbEEEEEE",
   "name" : "const std::optional<std::vector<bool, std::allocator<bool>>>",
   "referenced_type" : "_ZTINSt3__18optionalINS_6vectorIbNS_9allocatorIbEEEEEE",
   "self_type" : "_ZTIKNSt3__18optionalINS_6vectorIbNS_9allocatorIbEEEEEE",
   "size" : 16,
   "source_file" : "frameworks/native/libs/binder/ndk/include_cpp/android/binder_parcel_utils.h"
  },
  {
   "alignment" : 4,
   "is_const" : true,
   "linker_set_key" : "_ZTIKNSt3__18optionalINS_6vectorIdNS_9allocatorIdEEEEEE",
   "name" : "const std::optional<std::vector<double, std::allocator<double>>>",
   "referenced_type" : "_ZTINSt3__18optionalINS_6vectorIdNS_9allocatorIdEEEEEE",
   "self_type" : "_ZTIKNSt3__18optionalINS_6vectorIdNS_9allocatorIdEEEEEE",
   "size" : 16,
   "source_file" : "frameworks/native/libs/binder/ndk/include_cpp/android/binder_parcel_utils.h"
  },
  {
   "alignment" : 4,
   "is_const" : true,
   "linker_set_key" : "_ZTIKNSt3__18optionalINS_6vectorIfNS_9allocatorIfEEEEEE",
   "name" : "const std::optional<std::vector<float, std::allocator<float>>>",
   "referenced_type" : "_ZTINSt3__18optionalINS_6vectorIfNS_9allocatorIfEEEEEE",
   "self_type" : "_ZTIKNSt3__18optionalINS_6vectorIfNS_9allocatorIfEEEEEE",
   "size" : 16,
   "source_file" : "frameworks/native/libs/binder/ndk/include_cpp/android/binder_parcel_utils.h"
  },
  {
   "alignment" : 4,
   "is_const" : true,
   "linker_set_key" : "_ZTIKNSt3__18optionalINS_6vectorIhNS_9allocatorIhEEEEEE",
   "name" : "const std::optional<std::vector<unsigned char, std::allocator<unsigned char>>>",
   "referenced_type" : "_ZTINSt3__18optionalINS_6vectorIhNS_9allocatorIhEEEEEE",
   "self_type" : "_ZTIKNSt3__18optionalINS_6vectorIhNS_9allocatorIhEEEEEE",
   "size" : 16,
   "source_file" : "frameworks/native/libs/binder/ndk/include_cpp/android/binder_parcel_utils.h"
  },
  {
   "alignment" : 4,
   "is_const" : true,
   "linker_set_key" : "_ZTIKNSt3__18optionalINS_6vectorIiNS_9allocatorIiEEEEEE",
   "name" : "const std::optional<std::vector<int, std::allocator<int>>>",
   "referenced_type" : "_ZTINSt3__18optionalINS_6vectorIiNS_9allocatorIiEEEEEE",
   "self_type" : "_ZTIKNSt3__18optionalINS_6vectorIiNS_9allocatorIiEEEEEE",
   "size" : 16,
   "source_file" : "frameworks/native/libs/binder/ndk/include_cpp/android/binder_parcel_utils.h"
  },
  {
   "alignment" : 4,
   "is_const" : true,
   "linker_set_key" : "_ZTIKNSt3__18optionalINS_6vectorIjNS_9allocatorIjEEEEEE",
   "name" : "const std::optional<std::vector<unsigned int, std::allocator<unsigned int>>>",
   "referenced_type" : "_ZTINSt3__18optionalINS_6vectorIjNS_9allocatorIjEEEEEE",
   "self_type" : "_ZTIKNSt3__18optionalINS_6vectorIjNS_9allocatorIjEEEEEE",
   "size" : 16,
   "source_file" : "frameworks/native/libs/binder/ndk/include_cpp/android/binder_parcel_utils.h"
  },
  {
   "alignment" : 4,
   "is_const" : true,
   "linker_set_key" : "_ZTIKNSt3__18optionalINS_6vectorIxNS_9allocatorIxEEEEEE",
   "name" : "const std::optional<std::vector<long long, std::allocator<long long>>>",
   "referenced_type" : "_ZTINSt3__18optionalINS_6vectorIxNS_9allocatorIxEEEEEE",
   "self_type" : "_ZTIKNSt3__18optionalINS_6vectorIxNS_9allocatorIxEEEEEE",
   "size" : 16,
   "source_file" : "frameworks/native/libs/binder/ndk/include_cpp/android/binder_parcel_utils.h"
  },
  {
   "alignment" : 4,
   "is_const" : true,
   "linker_set_key" : "_ZTIKNSt3__18optionalINS_6vectorIyNS_9allocatorIyEEEEEE",
   "name" : "const std::optional<std::vector<unsigned long long, std::allocator<unsigned long long>>>",
   "referenced_type" : "_ZTINSt3__18optionalINS_6vectorIyNS_9allocatorIyEEEEEE",
   "self_type" : "_ZTIKNSt3__18optionalINS_6vectorIyNS_9allocatorIyEEEEEE",
   "size" : 16,
   "source_file" : "frameworks/native/libs/binder/ndk/include_cpp/android/binder_parcel_utils.h"
  },
  {
   "alignment" : 4,
   "is_const" : true,
   "linker_set_key" : "_ZTIKP7AParcel",
   "name" : "AParcel *const",
   "referenced_type" : "_ZTIP7AParcel",
   "self_type" : "_ZTIKP7AParcel",
   "size" : 4,
   "source_file" : "frameworks/native/libs/binder/ndk/include_cpp/android/binder_auto_utils.h"
  },
  {
   "alignment" : 4,
   "is_const" : true,
   "linker_set_key" : "_ZTIKP7AStatus",
   "name" : "AStatus *const",
   "referenced_type" : "_ZTIP7AStatus",
   "self_type" : "_ZTIKP7AStatus",
   "size" : 4,
   "source_file" : "frameworks/native/libs/binder/ndk/include_cpp/android/binder_auto_utils.h"
  },
  {
   "alignment" : 1,
   "is_const" : true,
   "linker_set_key" : "_ZTIKb",
   "name" : "const bool",
   "referenced_type" : "_ZTIb",
   "self_type" : "_ZTIKb",
   "size" : 1,
   "source_file" : "frameworks/native/libs/binder/ndk/include_cpp/android/binder_parcel_utils.h"
  },
  {
   "alignment" : 1,
   "is_const" : true,
   "linker_set_key" : "_ZTIKc",
   "name" : "const char",
   "referenced_type" : "_ZTIc",
   "self_type" : "_ZTIKc",
   "size" : 1,
   "source_file" : "frameworks/native/libs/binder/ndk/include_cpp/android/binder_auto_utils.h"
  },
  {
   "alignment" : 1,
   "is_const" : true,
   "linker_set_key" : "_ZTIKh",
   "name" : "const unsigned char",
   "referenced_type" : "_ZTIh",
   "self_type" : "_ZTIKh",
   "size" : 1,
   "source_file" : "frameworks/native/libs/binder/ndk/include_cpp/android/binder_to_string.h"
  },
  {
   "alignment" : 4,
   "is_const" : true,
   "linker_set_key" : "_ZTIKi",
   "name" : "const int",
   "referenced_type" : "_ZTIi",
   "self_type" : "_ZTIKi",
   "size" : 4,
   "source_file" : "out/soong/.intermediates/hardware/interfaces/security/dice/aidl/android.hardware.security.dice-V1-ndk-source/gen/include/aidl/android/hardware/security/dice/Bcc.h"
  },
  {
   "alignment" : 4,
   "is_const" : true,
   "linker_set_key" : "_ZTIKj",
   "name" : "const unsigned int",
   "referenced_type" : "_ZTIj",
   "self_type" : "_ZTIKj",
   "size" : 4,
   "source_file" : "out/soong/.intermediates/hardware/interfaces/security/dice/aidl/android.hardware.security.dice-V1-ndk-source/gen/include/aidl/android/hardware/security/dice/IDiceDevice.h"
  },
  {
   "is_const" : true,
   "linker_set_key" : "_ZTIKv",
   "name" : "const void",
   "referenced_type" : "_ZTIv",
   "self_type" : "_ZTIKv",
   "source_file" : "frameworks/native/libs/binder/ndk/include_cpp/android/binder_parcel_utils.h"
  }
 ],
 "record_types" :
 [
  {
   "alignment" : 4,
   "fields" :
   [
    {
     "access" : "private",
     "field_name" : "mBinder",
     "referenced_type" : "_ZTIP8AIBinder"
    }
   ],
   "linker_set_key" : "_ZTIN3ndk10SpAIBinderE",
   "name" : "ndk::SpAIBinder",
   "record_kind" : "class",
   "referenced_type" : "_ZTIN3ndk10SpAIBinderE",
   "self_type" : "_ZTIN3ndk10SpAIBinderE",
   "size" : 4,
   "source_file" : "frameworks/native/libs/binder/ndk/include_cpp/android/binder_auto_utils.h"
  },
  {
   "access" : "private",
   "alignment" : 4,
   "fields" :
   [
    {
     "field_name" : "interface",
     "referenced_type" : "_ZTINSt3__110shared_ptrIN3ndk11ICInterfaceEEE"
    }
   ],
   "linker_set_key" : "_ZTIN3ndk11ICInterface15ICInterfaceDataE",
   "name" : "ndk::ICInterface::ICInterfaceData",
   "record_kind" : "class",
   "referenced_type" : "_ZTIN3ndk11ICInterface15ICInterfaceDataE",
   "self_type" : "_ZTIN3ndk11ICInterface15ICInterfaceDataE",
   "size" : 8,
   "source_file" : "frameworks/native/libs/binder/ndk/include_cpp/android/binder_interface_utils.h"
  },
  {
   "alignment" : 4,
   "base_specifiers" :
   [
    {
     "referenced_type" : "_ZTIN3ndk13SharedRefBaseE"
    }
   ],
   "linker_set_key" : "_ZTIN3ndk11ICInterfaceE",
   "name" : "ndk::ICInterface",
   "record_kind" : "class",
   "referenced_type" : "_ZTIN3ndk11ICInterfaceE",
   "self_type" : "_ZTIN3ndk11ICInterfaceE",
   "size" : 16,
   "source_file" : "frameworks/native/libs/binder/ndk/include_cpp/android/binder_interface_utils.h",
   "vtable_components" :
   [
    {
     "kind" : "offset_to_top"
    },
    {
     "kind" : "rtti",
     "mangled_component_name" : "_ZTIN3ndk11ICInterfaceE"
    },
    {
     "kind" : "complete_dtor_pointer",
     "mangled_component_name" : "_ZN3ndk11ICInterfaceD1Ev"
    },
    {
     "kind" : "deleting_dtor_pointer",
     "mangled_component_name" : "_ZN3ndk11ICInterfaceD0Ev"
    },
    {
     "is_pure" : true,
     "mangled_component_name" : "_ZN3ndk11ICInterface8asBinderEv"
    },
    {
     "is_pure" : true,
     "mangled_component_name" : "_ZN3ndk11ICInterface8isRemoteEv"
    },
    {
     "mangled_component_name" : "_ZN3ndk11ICInterface4dumpEiPPKcj"
    },
    {
     "mangled_component_name" : "_ZN3ndk11ICInterface18handleShellCommandEiiiPPKcj"
    }
   ]
  },
  {
   "alignment" : 4,
   "base_specifiers" :
   [
    {
     "referenced_type" : "_ZTIN4aidl7android8hardware8security4dice11IDiceDeviceE"
    }
   ],
   "fields" :
   [
    {
     "access" : "private",
     "field_name" : "mMutex",
     "field_offset" : 128,
     "referenced_type" : "_ZTINSt3__15mutexE"
    },
    {
     "access" : "private",
     "field_name" : "mWeakBinder",
     "field_offset" : 160,
     "referenced_type" : "_ZTIN3ndk19ScopedAIBinder_WeakE"
    }
   ],
   "linker_set_key" : "_ZTIN3ndk12BnCInterfaceIN4aidl7android8hardware8security4dice11IDiceDeviceEEE",
   "name" : "ndk::BnCInterface<aidl::android::hardware::security::dice::IDiceDevice>",
   "record_kind" : "class",
   "referenced_type" : "_ZTIN3ndk12BnCInterfaceIN4aidl7android8hardware8security4dice11IDiceDeviceEEE",
   "self_type" : "_ZTIN3ndk12BnCInterfaceIN4aidl7android8hardware8security4dice11IDiceDeviceEEE",
   "size" : 24,
   "source_file" : "frameworks/native/libs/binder/ndk/include_cpp/android/binder_interface_utils.h",
   "template_args" :
   [
    "_ZTIN4aidl7android8hardware8security4dice11IDiceDeviceE"
   ],
   "vtable_components" :
   [
    {
     "kind" : "offset_to_top"
    },
    {
     "kind" : "rtti",
     "mangled_component_name" : "_ZTIN3ndk12BnCInterfaceIN4aidl7android8hardware8security4dice11IDiceDeviceEEE"
    },
    {
     "kind" : "complete_dtor_pointer",
     "mangled_component_name" : "_ZN3ndk12BnCInterfaceIN4aidl7android8hardware8security4dice11IDiceDeviceEED1Ev"
    },
    {
     "kind" : "deleting_dtor_pointer",
     "mangled_component_name" : "_ZN3ndk12BnCInterfaceIN4aidl7android8hardware8security4dice11IDiceDeviceEED0Ev"
    },
    {
     "mangled_component_name" : "_ZN3ndk12BnCInterfaceIN4aidl7android8hardware8security4dice11IDiceDeviceEE8asBinderEv"
    },
    {
     "mangled_component_name" : "_ZN3ndk12BnCInterfaceIN4aidl7android8hardware8security4dice11IDiceDeviceEE8isRemoteEv"
    },
    {
     "mangled_component_name" : "_ZN3ndk11ICInterface4dumpEiPPKcj"
    },
    {
     "mangled_component_name" : "_ZN3ndk11ICInterface18handleShellCommandEiiiPPKcj"
    },
    {
     "is_pure" : true,
     "mangled_component_name" : "_ZN4aidl7android8hardware8security4dice11IDiceDevice4signERKNSt3__16vectorINS3_11InputValuesENS5_9allocatorIS7_EEEERKNS6_IhNS8_IhEEEEPNS3_9SignatureE"
    },
    {
     "is_pure" : true,
     "mangled_component_name" : "_ZN4aidl7android8hardware8security4dice11IDiceDevice19getAttestationChainERKNSt3__16vectorINS3_11InputValuesENS5_9allocatorIS7_EEEEPNS3_3BccE"
    },
    {
     "is_pure" : true,
     "mangled_component_name" : "_ZN4aidl7android8hardware8security4dice11IDiceDevice6deriveERKNSt3__16vectorINS3_11InputValuesENS5_9allocatorIS7_EEEEPNS3_11BccHandoverE"
    },
    {
     "is_pure" : true,
     "mangled_component_name" : "_ZN4aidl7android8hardware8security4dice11IDiceDevice6demoteERKNSt3__16vectorINS3_11InputValuesENS5_9allocatorIS7_EEEE"
    },
    {
     "is_pure" : true,
     "mangled_component_name" : "_ZN4aidl7android8hardware8security4dice11IDiceDevice19getInterfaceVersionEPi"
    },
    {
     "is_pure" : true,
     "mangled_component_name" : "_ZN4aidl7android8hardware8security4dice11IDiceDevice16getInterfaceHashEPNSt3__112basic_stringIcNS5_11char_traitsIcEENS5_9allocatorIcEEEE"
    },
    {
     "is_pure" : true,
     "mangled_component_name" : "_ZN3ndk12BnCInterfaceIN4aidl7android8hardware8security4dice11IDiceDeviceEE12createBinderEv"
    }
   ]
  },
  {
   "alignment" : 4,
   "base_specifiers" :
   [
    {
     "referenced_type" : "_ZTIN4aidl7android8hardware8security4dice11IDiceDeviceE"
    }
   ],
   "fields" :
   [
    {
     "access" : "private",
     "field_name" : "mBinder",
     "field_offset" : 128,
     "referenced_type" : "_ZTIN3ndk10SpAIBinderE"
    }
   ],
   "linker_set_key" : "_ZTIN3ndk12BpCInterfaceIN4aidl7android8hardware8security4dice11IDiceDeviceEEE",
   "name" : "ndk::BpCInterface<aidl::android::hardware::security::dice::IDiceDevice>",
   "record_kind" : "class",
   "referenced_type" : "_ZTIN3ndk12BpCInterfaceIN4aidl7android8hardware8security4dice11IDiceDeviceEEE",
   "self_type" : "_ZTIN3ndk12BpCInterfaceIN4aidl7android8hardware8security4dice11IDiceDeviceEEE",
   "size" : 20,
   "source_file" : "frameworks/native/libs/binder/ndk/include_cpp/android/binder_interface_utils.h",
   "template_args" :
   [
    "_ZTIN4aidl7android8hardware8security4dice11IDiceDeviceE"
   ],
   "vtable_components" :
   [
    {
     "kind" : "offset_to_top"
    },
    {
     "kind" : "rtti",
     "mangled_component_name" : "_ZTIN3ndk12BpCInterfaceIN4aidl7android8hardware8security4dice11IDiceDeviceEEE"
    },
    {
     "kind" : "complete_dtor_pointer",
     "mangled_component_name" : "_ZN3ndk12BpCInterfaceIN4aidl7android8hardware8security4dice11IDiceDeviceEED1Ev"
    },
    {
     "kind" : "deleting_dtor_pointer",
     "mangled_component_name" : "_ZN3ndk12BpCInterfaceIN4aidl7android8hardware8security4dice11IDiceDeviceEED0Ev"
    },
    {
     "mangled_component_name" : "_ZN3ndk12BpCInterfaceIN4aidl7android8hardware8security4dice11IDiceDeviceEE8asBinderEv"
    },
    {
     "mangled_component_name" : "_ZN3ndk12BpCInterfaceIN4aidl7android8hardware8security4dice11IDiceDeviceEE8isRemoteEv"
    },
    {
     "mangled_component_name" : "_ZN3ndk12BpCInterfaceIN4aidl7android8hardware8security4dice11IDiceDeviceEE4dumpEiPPKcj"
    },
    {
     "mangled_component_name" : "_ZN3ndk11ICInterface18handleShellCommandEiiiPPKcj"
    },
    {
     "is_pure" : true,
     "mangled_component_name" : "_ZN4aidl7android8hardware8security4dice11IDiceDevice4signERKNSt3__16vectorINS3_11InputValuesENS5_9allocatorIS7_EEEERKNS6_IhNS8_IhEEEEPNS3_9SignatureE"
    },
    {
     "is_pure" : true,
     "mangled_component_name" : "_ZN4aidl7android8hardware8security4dice11IDiceDevice19getAttestationChainERKNSt3__16vectorINS3_11InputValuesENS5_9allocatorIS7_EEEEPNS3_3BccE"
    },
    {
     "is_pure" : true,
     "mangled_component_name" : "_ZN4aidl7android8hardware8security4dice11IDiceDevice6deriveERKNSt3__16vectorINS3_11InputValuesENS5_9allocatorIS7_EEEEPNS3_11BccHandoverE"
    },
    {
     "is_pure" : true,
     "mangled_component_name" : "_ZN4aidl7android8hardware8security4dice11IDiceDevice6demoteERKNSt3__16vectorINS3_11InputValuesENS5_9allocatorIS7_EEEE"
    },
    {
     "is_pure" : true,
     "mangled_component_name" : "_ZN4aidl7android8hardware8security4dice11IDiceDevice19getInterfaceVersionEPi"
    },
    {
     "is_pure" : true,
     "mangled_component_name" : "_ZN4aidl7android8hardware8security4dice11IDiceDevice16getInterfaceHashEPNSt3__112basic_stringIcNS5_11char_traitsIcEENS5_9allocatorIcEEEE"
    }
   ]
  },
  {
   "alignment" : 4,
   "base_specifiers" :
   [
    {
     "referenced_type" : "_ZTIN3ndk4impl15ScopedAResourceIP7AParcelXadL_Z14AParcel_deleteEELS3_0EEE"
    }
   ],
   "linker_set_key" : "_ZTIN3ndk13ScopedAParcelE",
   "name" : "ndk::ScopedAParcel",
   "record_kind" : "class",
   "referenced_type" : "_ZTIN3ndk13ScopedAParcelE",
   "self_type" : "_ZTIN3ndk13ScopedAParcelE",
   "size" : 4,
   "source_file" : "frameworks/native/libs/binder/ndk/include_cpp/android/binder_auto_utils.h"
  },
  {
   "alignment" : 4,
   "base_specifiers" :
   [
    {
     "referenced_type" : "_ZTIN3ndk4impl15ScopedAResourceIP7AStatusXadL_Z14AStatus_deleteEELS3_0EEE"
    }
   ],
   "linker_set_key" : "_ZTIN3ndk13ScopedAStatusE",
   "name" : "ndk::ScopedAStatus",
   "record_kind" : "class",
   "referenced_type" : "_ZTIN3ndk13ScopedAStatusE",
   "self_type" : "_ZTIN3ndk13ScopedAStatusE",
   "size" : 4,
   "source_file" : "frameworks/native/libs/binder/ndk/include_cpp/android/binder_auto_utils.h"
  },
  {
   "alignment" : 4,
   "fields" :
   [
    {
     "access" : "private",
     "field_name" : "mFlagThis",
     "field_offset" : 32,
     "referenced_type" : "_ZTINSt3__19once_flagE"
    },
    {
     "access" : "private",
     "field_name" : "mThis",
     "field_offset" : 64,
     "referenced_type" : "_ZTINSt3__18weak_ptrIN3ndk13SharedRefBaseEEE"
    }
   ],
   "linker_set_key" : "_ZTIN3ndk13SharedRefBaseE",
   "name" : "ndk::SharedRefBase",
   "record_kind" : "class",
   "referenced_type" : "_ZTIN3ndk13SharedRefBaseE",
   "self_type" : "_ZTIN3ndk13SharedRefBaseE",
   "size" : 16,
   "source_file" : "frameworks/native/libs/binder/ndk/include_cpp/android/binder_interface_utils.h",
   "vtable_components" :
   [
    {
     "kind" : "offset_to_top"
    },
    {
     "kind" : "rtti",
     "mangled_component_name" : "_ZTIN3ndk13SharedRefBaseE"
    },
    {
     "kind" : "complete_dtor_pointer",
     "mangled_component_name" : "_ZN3ndk13SharedRefBaseD1Ev"
    },
    {
     "kind" : "deleting_dtor_pointer",
     "mangled_component_name" : "_ZN3ndk13SharedRefBaseD0Ev"
    }
   ]
  },
  {
   "alignment" : 4,
   "fields" :
   [
    {
     "access" : "private",
     "field_name" : "mParcel",
     "field_offset" : 32,
     "referenced_type" : "_ZTIN3ndk13ScopedAParcelE"
    },
    {
     "access" : "private",
     "field_name" : "mStability",
     "field_offset" : 64,
     "referenced_type" : "_ZTIi"
    }
   ],
   "linker_set_key" : "_ZTIN3ndk17AParcelableHolderE",
   "name" : "ndk::AParcelableHolder",
   "record_kind" : "class",
   "referenced_type" : "_ZTIN3ndk17AParcelableHolderE",
   "self_type" : "_ZTIN3ndk17AParcelableHolderE",
   "size" : 12,
   "source_file" : "frameworks/native/libs/binder/ndk/include_cpp/android/binder_parcelable_utils.h",
   "vtable_components" :
   [
    {
     "kind" : "offset_to_top"
    },
    {
     "kind" : "rtti",
     "mangled_component_name" : "_ZTIN3ndk17AParcelableHolderE"
    },
    {
     "kind" : "complete_dtor_pointer",
     "mangled_component_name" : "_ZN3ndk17AParcelableHolderD1Ev"
    },
    {
     "kind" : "deleting_dtor_pointer",
     "mangled_component_name" : "_ZN3ndk17AParcelableHolderD0Ev"
    }
   ]
  },
  {
   "alignment" : 4,
   "base_specifiers" :
   [
    {
     "referenced_type" : "_ZTIN3ndk4impl15ScopedAResourceIP13AIBinder_WeakXadL_Z20AIBinder_Weak_deleteEELS3_0EEE"
    }
   ],
   "linker_set_key" : "_ZTIN3ndk19ScopedAIBinder_WeakE",
   "name" : "ndk::ScopedAIBinder_Weak",
   "record_kind" : "class",
   "referenced_type" : "_ZTIN3ndk19ScopedAIBinder_WeakE",
   "self_type" : "_ZTIN3ndk19ScopedAIBinder_WeakE",
   "size" : 4,
   "source_file" : "frameworks/native/libs/binder/ndk/include_cpp/android/binder_auto_utils.h"
  },
  {
   "alignment" : 4,
   "base_specifiers" :
   [
    {
     "referenced_type" : "_ZTIN3ndk4impl15ScopedAResourceIiXadL_ZNS_8internalL14closeWithErrorEiEELin1EEE"
    }
   ],
   "linker_set_key" : "_ZTIN3ndk20ScopedFileDescriptorE",
   "name" : "ndk::ScopedFileDescriptor",
   "record_kind" : "class",
   "referenced_type" : "_ZTIN3ndk20ScopedFileDescriptorE",
   "self_type" : "_ZTIN3ndk20ScopedFileDescriptorE",
   "size" : 4,
   "source_file" : "frameworks/native/libs/binder/ndk/include_cpp/android/binder_auto_utils.h"
  },
  {
   "alignment" : 4,
   "base_specifiers" :
   [
    {
     "referenced_type" : "_ZTIN3ndk4impl15ScopedAResourceIP23AIBinder_DeathRecipientXadL_Z30AIBinder_DeathRecipient_deleteEELS3_0EEE"
    }
   ],
   "linker_set_key" : "_ZTIN3ndk29ScopedAIBinder_DeathRecipientE",
   "name" : "ndk::ScopedAIBinder_DeathRecipient",
   "record_kind" : "class",
   "referenced_type" : "_ZTIN3ndk29ScopedAIBinder_DeathRecipientE",
   "self_type" : "_ZTIN3ndk29ScopedAIBinder_DeathRecipientE",
   "size" : 4,
   "source_file" : "frameworks/native/libs/binder/ndk/include_cpp/android/binder_auto_utils.h"
  },
  {
   "alignment" : 4,
   "fields" :
   [
    {
     "access" : "private",
     "field_name" : "mT",
     "referenced_type" : "_ZTIP13AIBinder_Weak"
    }
   ],
   "linker_set_key" : "_ZTIN3ndk4impl15ScopedAResourceIP13AIBinder_WeakXadL_Z20AIBinder_Weak_deleteEELS3_0EEE",
   "name" : "ndk::impl::ScopedAResource<AIBinder_Weak *, &AIBinder_Weak_delete, nullptr>",
   "record_kind" : "class",
   "referenced_type" : "_ZTIN3ndk4impl15ScopedAResourceIP13AIBinder_WeakXadL_Z20AIBinder_Weak_deleteEELS3_0EEE",
   "self_type" : "_ZTIN3ndk4impl15ScopedAResourceIP13AIBinder_WeakXadL_Z20AIBinder_Weak_deleteEELS3_0EEE",
   "size" : 4,
   "source_file" : "frameworks/native/libs/binder/ndk/include_cpp/android/binder_auto_utils.h",
   "template_args" :
   [
    "_ZTIP13AIBinder_Weak"
   ]
  },
  {
   "alignment" : 4,
   "fields" :
   [
    {
     "access" : "private",
     "field_name" : "mT",
     "referenced_type" : "_ZTIP23AIBinder_DeathRecipient"
    }
   ],
   "linker_set_key" : "_ZTIN3ndk4impl15ScopedAResourceIP23AIBinder_DeathRecipientXadL_Z30AIBinder_DeathRecipient_deleteEELS3_0EEE",
   "name" : "ndk::impl::ScopedAResource<AIBinder_DeathRecipient *, &AIBinder_DeathRecipient_delete, nullptr>",
   "record_kind" : "class",
   "referenced_type" : "_ZTIN3ndk4impl15ScopedAResourceIP23AIBinder_DeathRecipientXadL_Z30AIBinder_DeathRecipient_deleteEELS3_0EEE",
   "self_type" : "_ZTIN3ndk4impl15ScopedAResourceIP23AIBinder_DeathRecipientXadL_Z30AIBinder_DeathRecipient_deleteEELS3_0EEE",
   "size" : 4,
   "source_file" : "frameworks/native/libs/binder/ndk/include_cpp/android/binder_auto_utils.h",
   "template_args" :
   [
    "_ZTIP23AIBinder_DeathRecipient"
   ]
  },
  {
   "alignment" : 4,
   "fields" :
   [
    {
     "access" : "private",
     "field_name" : "mT",
     "referenced_type" : "_ZTIP7AParcel"
    }
   ],
   "linker_set_key" : "_ZTIN3ndk4impl15ScopedAResourceIP7AParcelXadL_Z14AParcel_deleteEELS3_0EEE",
   "name" : "ndk::impl::ScopedAResource<AParcel *, &AParcel_delete, nullptr>",
   "record_kind" : "class",
   "referenced_type" : "_ZTIN3ndk4impl15ScopedAResourceIP7AParcelXadL_Z14AParcel_deleteEELS3_0EEE",
   "self_type" : "_ZTIN3ndk4impl15ScopedAResourceIP7AParcelXadL_Z14AParcel_deleteEELS3_0EEE",
   "size" : 4,
   "source_file" : "frameworks/native/libs/binder/ndk/include_cpp/android/binder_auto_utils.h",
   "template_args" :
   [
    "_ZTIP7AParcel"
   ]
  },
  {
   "alignment" : 4,
   "fields" :
   [
    {
     "access" : "private",
     "field_name" : "mT",
     "referenced_type" : "_ZTIP7AStatus"
    }
   ],
   "linker_set_key" : "_ZTIN3ndk4impl15ScopedAResourceIP7AStatusXadL_Z14AStatus_deleteEELS3_0EEE",
   "name" : "ndk::impl::ScopedAResource<AStatus *, &AStatus_delete, nullptr>",
   "record_kind" : "class",
   "referenced_type" : "_ZTIN3ndk4impl15ScopedAResourceIP7AStatusXadL_Z14AStatus_deleteEELS3_0EEE",
   "self_type" : "_ZTIN3ndk4impl15ScopedAResourceIP7AStatusXadL_Z14AStatus_deleteEELS3_0EEE",
   "size" : 4,
   "source_file" : "frameworks/native/libs/binder/ndk/include_cpp/android/binder_auto_utils.h",
   "template_args" :
   [
    "_ZTIP7AStatus"
   ]
  },
  {
   "alignment" : 4,
   "fields" :
   [
    {
     "field_name" : "cdiAttest",
     "referenced_type" : "_ZTINSt3__15arrayIhLj32EEE"
    },
    {
     "field_name" : "cdiSeal",
     "field_offset" : 256,
     "referenced_type" : "_ZTINSt3__15arrayIhLj32EEE"
    },
    {
     "field_name" : "bcc",
     "field_offset" : 512,
     "referenced_type" : "_ZTIN4aidl7android8hardware8security4dice3BccE"
    }
   ],
   "linker_set_key" : "_ZTIN4aidl7android8hardware8security4dice11BccHandoverE",
   "name" : "aidl::android::hardware::security::dice::BccHandover",
   "record_kind" : "class",
   "referenced_type" : "_ZTIN4aidl7android8hardware8security4dice11BccHandoverE",
   "self_type" : "_ZTIN4aidl7android8hardware8security4dice11BccHandoverE",
   "size" : 76,
   "source_file" : "out/soong/.intermediates/hardware/interfaces/security/dice/aidl/android.hardware.security.dice-V1-ndk-source/gen/include/aidl/android/hardware/security/dice/BccHandover.h"
  },
  {
   "alignment" : 4,
   "base_specifiers" :
   [
    {
     "referenced_type" : "_ZTIN3ndk11ICInterfaceE"
    }
   ],
   "linker_set_key" : "_ZTIN4aidl7android8hardware8security4dice11IDiceDeviceE",
   "name" : "aidl::android::hardware::security::dice::IDiceDevice",
   "record_kind" : "class",
   "referenced_type" : "_ZTIN4aidl7android8hardware8security4dice11IDiceDeviceE",
   "self_type" : "_ZTIN4aidl7android8hardware8security4dice11IDiceDeviceE",
   "size" : 16,
   "source_file" : "out/soong/.intermediates/hardware/interfaces/security/dice/aidl/android.hardware.security.dice-V1-ndk-source/gen/include/aidl/android/hardware/security/dice/IDiceDevice.h",
   "vtable_components" :
   [
    {
     "kind" : "offset_to_top"
    },
    {
     "kind" : "rtti",
     "mangled_component_name" : "_ZTIN4aidl7android8hardware8security4dice11IDiceDeviceE"
    },
    {
     "kind" : "complete_dtor_pointer",
     "mangled_component_name" : "_ZN4aidl7android8hardware8security4dice11IDiceDeviceD1Ev"
    },
    {
     "kind" : "deleting_dtor_pointer",
     "mangled_component_name" : "_ZN4aidl7android8hardware8security4dice11IDiceDeviceD0Ev"
    },
    {
     "is_pure" : true,
     "mangled_component_name" : "_ZN3ndk11ICInterface8asBinderEv"
    },
    {
     "is_pure" : true,
     "mangled_component_name" : "_ZN3ndk11ICInterface8isRemoteEv"
    },
    {
     "mangled_component_name" : "_ZN3ndk11ICInterface4dumpEiPPKcj"
    },
    {
     "mangled_component_name" : "_ZN3ndk11ICInterface18handleShellCommandEiiiPPKcj"
    },
    {
     "is_pure" : true,
     "mangled_component_name" : "_ZN4aidl7android8hardware8security4dice11IDiceDevice4signERKNSt3__16vectorINS3_11InputValuesENS5_9allocatorIS7_EEEERKNS6_IhNS8_IhEEEEPNS3_9SignatureE"
    },
    {
     "is_pure" : true,
     "mangled_component_name" : "_ZN4aidl7android8hardware8security4dice11IDiceDevice19getAttestationChainERKNSt3__16vectorINS3_11InputValuesENS5_9allocatorIS7_EEEEPNS3_3BccE"
    },
    {
     "is_pure" : true,
     "mangled_component_name" : "_ZN4aidl7android8hardware8security4dice11IDiceDevice6deriveERKNSt3__16vectorINS3_11InputValuesENS5_9allocatorIS7_EEEEPNS3_11BccHandoverE"
    },
    {
     "is_pure" : true,
     "mangled_component_name" : "_ZN4aidl7android8hardware8security4dice11IDiceDevice6demoteERKNSt3__16vectorINS3_11InputValuesENS5_9allocatorIS7_EEEE"
    },
    {
     "is_pure" : true,
     "mangled_component_name" : "_ZN4aidl7android8hardware8security4dice11IDiceDevice19getInterfaceVersionEPi"
    },
    {
     "is_pure" : true,
     "mangled_component_name" : "_ZN4aidl7android8hardware8security4dice11IDiceDevice16getInterfaceHashEPNSt3__112basic_stringIcNS5_11char_traitsIcEENS5_9allocatorIcEEEE"
    }
   ]
  },
  {
   "alignment" : 4,
   "fields" :
   [
    {
     "field_name" : "codeHash",
     "referenced_type" : "_ZTINSt3__15arrayIhLj64EEE"
    },
    {
     "field_name" : "config",
     "field_offset" : 512,
     "referenced_type" : "_ZTIN4aidl7android8hardware8security4dice6ConfigE"
    },
    {
     "field_name" : "authorityHash",
     "field_offset" : 608,
     "referenced_type" : "_ZTINSt3__15arrayIhLj64EEE"
    },
    {
     "field_name" : "authorityDescriptor",
     "field_offset" : 1120,
     "referenced_type" : "_ZTINSt3__18optionalINS_6vectorIhNS_9allocatorIhEEEEEE"
    },
    {
     "field_name" : "mode",
     "field_offset" : 1248,
     "referenced_type" : "_ZTIN4aidl7android8hardware8security4dice4ModeE"
    },
    {
     "field_name" : "hidden",
     "field_offset" : 1280,
     "referenced_type" : "_ZTINSt3__15arrayIhLj64EEE"
    }
   ],
   "linker_set_key" : "_ZTIN4aidl7android8hardware8security4dice11InputValuesE",
   "name" : "aidl::android::hardware::security::dice::InputValues",
   "record_kind" : "class",
   "referenced_type" : "_ZTIN4aidl7android8hardware8security4dice11InputValuesE",
   "self_type" : "_ZTIN4aidl7android8hardware8security4dice11InputValuesE",
   "size" : 224,
   "source_file" : "out/soong/.intermediates/hardware/interfaces/security/dice/aidl/android.hardware.security.dice-V1-ndk-source/gen/include/aidl/android/hardware/security/dice/InputValues.h"
  },
  {
   "alignment" : 4,
   "base_specifiers" :
   [
    {
     "referenced_type" : "_ZTIN3ndk12BnCInterfaceIN4aidl7android8hardware8security4dice11IDiceDeviceEEE"
    }
   ],
   "linker_set_key" : "_ZTIN4aidl7android8hardware8security4dice12BnDiceDeviceE",
   "name" : "aidl::android::hardware::security::dice::BnDiceDevice",
   "record_kind" : "class",
   "referenced_type" : "_ZTIN4aidl7android8hardware8security4dice12BnDiceDeviceE",
   "self_type" : "_ZTIN4aidl7android8hardware8security4dice12BnDiceDeviceE",
   "size" : 24,
   "source_file" : "out/soong/.intermediates/hardware/interfaces/security/dice/aidl/android.hardware.security.dice-V1-ndk-source/gen/include/aidl/android/hardware/security/dice/BnDiceDevice.h",
   "vtable_components" :
   [
    {
     "kind" : "offset_to_top"
    },
    {
     "kind" : "rtti",
     "mangled_component_name" : "_ZTIN4aidl7android8hardware8security4dice12BnDiceDeviceE"
    },
    {
     "kind" : "complete_dtor_pointer",
     "mangled_component_name" : "_ZN4aidl7android8hardware8security4dice12BnDiceDeviceD1Ev"
    },
    {
     "kind" : "deleting_dtor_pointer",
     "mangled_component_name" : "_ZN4aidl7android8hardware8security4dice12BnDiceDeviceD0Ev"
    },
    {
     "mangled_component_name" : "_ZN3ndk12BnCInterfaceIN4aidl7android8hardware8security4dice11IDiceDeviceEE8asBinderEv"
    },
    {
     "mangled_component_name" : "_ZN3ndk12BnCInterfaceIN4aidl7android8hardware8security4dice11IDiceDeviceEE8isRemoteEv"
    },
    {
     "mangled_component_name" : "_ZN3ndk11ICInterface4dumpEiPPKcj"
    },
    {
     "mangled_component_name" : "_ZN3ndk11ICInterface18handleShellCommandEiiiPPKcj"
    },
    {
     "is_pure" : true,
     "mangled_component_name" : "_ZN4aidl7android8hardware8security4dice11IDiceDevice4signERKNSt3__16vectorINS3_11InputValuesENS5_9allocatorIS7_EEEERKNS6_IhNS8_IhEEEEPNS3_9SignatureE"
    },
    {
     "is_pure" : true,
     "mangled_component_name" : "_ZN4aidl7android8hardware8security4dice11IDiceDevice19getAttestationChainERKNSt3__16vectorINS3_11InputValuesENS5_9allocatorIS7_EEEEPNS3_3BccE"
    },
    {
     "is_pure" : true,
     "mangled_component_name" : "_ZN4aidl7android8hardware8security4dice11IDiceDevice6deriveERKNSt3__16vectorINS3_11InputValuesENS5_9allocatorIS7_EEEEPNS3_11BccHandoverE"
    },
    {
     "is_pure" : true,
     "mangled_component_name" : "_ZN4aidl7android8hardware8security4dice11IDiceDevice6demoteERKNSt3__16vectorINS3_11InputValuesENS5_9allocatorIS7_EEEE"
    },
    {
     "mangled_component_name" : "_ZN4aidl7android8hardware8security4dice12BnDiceDevice19getInterfaceVersionEPi"
    },
    {
     "mangled_component_name" : "_ZN4aidl7android8hardware8security4dice12BnDiceDevice16getInterfaceHashEPNSt3__112basic_stringIcNS5_11char_traitsIcEENS5_9allocatorIcEEEE"
    },
    {
     "mangled_component_name" : "_ZN4aidl7android8hardware8security4dice12BnDiceDevice12createBinderEv"
    }
   ]
  },
  {
   "alignment" : 4,
   "base_specifiers" :
   [
    {
     "referenced_type" : "_ZTIN3ndk12BpCInterfaceIN4aidl7android8hardware8security4dice11IDiceDeviceEEE"
    }
   ],
   "fields" :
   [
    {
     "field_name" : "_aidl_cached_version",
     "field_offset" : 160,
     "referenced_type" : "_ZTIi"
    },
    {
     "field_name" : "_aidl_cached_hash",
     "field_offset" : 192,
     "referenced_type" : "_ZTINSt3__112basic_stringIcNS_11char_traitsIcEENS_9allocatorIcEEEE"
    },
    {
     "field_name" : "_aidl_cached_hash_mutex",
     "field_offset" : 288,
     "referenced_type" : "_ZTINSt3__15mutexE"
    }
   ],
   "linker_set_key" : "_ZTIN4aidl7android8hardware8security4dice12BpDiceDeviceE",
   "name" : "aidl::android::hardware::security::dice::BpDiceDevice",
   "record_kind" : "class",
   "referenced_type" : "_ZTIN4aidl7android8hardware8security4dice12BpDiceDeviceE",
   "self_type" : "_ZTIN4aidl7android8hardware8security4dice12BpDiceDeviceE",
   "size" : 40,
   "source_file" : "out/soong/.intermediates/hardware/interfaces/security/dice/aidl/android.hardware.security.dice-V1-ndk-source/gen/include/aidl/android/hardware/security/dice/BpDiceDevice.h",
   "vtable_components" :
   [
    {
     "kind" : "offset_to_top"
    },
    {
     "kind" : "rtti",
     "mangled_component_name" : "_ZTIN4aidl7android8hardware8security4dice12BpDiceDeviceE"
    },
    {
     "kind" : "complete_dtor_pointer",
     "mangled_component_name" : "_ZN4aidl7android8hardware8security4dice12BpDiceDeviceD1Ev"
    },
    {
     "kind" : "deleting_dtor_pointer",
     "mangled_component_name" : "_ZN4aidl7android8hardware8security4dice12BpDiceDeviceD0Ev"
    },
    {
     "mangled_component_name" : "_ZN3ndk12BpCInterfaceIN4aidl7android8hardware8security4dice11IDiceDeviceEE8asBinderEv"
    },
    {
     "mangled_component_name" : "_ZN3ndk12BpCInterfaceIN4aidl7android8hardware8security4dice11IDiceDeviceEE8isRemoteEv"
    },
    {
     "mangled_component_name" : "_ZN3ndk12BpCInterfaceIN4aidl7android8hardware8security4dice11IDiceDeviceEE4dumpEiPPKcj"
    },
    {
     "mangled_component_name" : "_ZN3ndk11ICInterface18handleShellCommandEiiiPPKcj"
    },
    {
     "mangled_component_name" : "_ZN4aidl7android8hardware8security4dice12BpDiceDevice4signERKNSt3__16vectorINS3_11InputValuesENS5_9allocatorIS7_EEEERKNS6_IhNS8_IhEEEEPNS3_9SignatureE"
    },
    {
     "mangled_component_name" : "_ZN4aidl7android8hardware8security4dice12BpDiceDevice19getAttestationChainERKNSt3__16vectorINS3_11InputValuesENS5_9allocatorIS7_EEEEPNS3_3BccE"
    },
    {
     "mangled_component_name" : "_ZN4aidl7android8hardware8security4dice12BpDiceDevice6deriveERKNSt3__16vectorINS3_11InputValuesENS5_9allocatorIS7_EEEEPNS3_11BccHandoverE"
    },
    {
     "mangled_component_name" : "_ZN4aidl7android8hardware8security4dice12BpDiceDevice6demoteERKNSt3__16vectorINS3_11InputValuesENS5_9allocatorIS7_EEEE"
    },
    {
     "mangled_component_name" : "_ZN4aidl7android8hardware8security4dice12BpDiceDevice19getInterfaceVersionEPi"
    },
    {
     "mangled_component_name" : "_ZN4aidl7android8hardware8security4dice12BpDiceDevice16getInterfaceHashEPNSt3__112basic_stringIcNS5_11char_traitsIcEENS5_9allocatorIcEEEE"
    }
   ]
  },
  {
   "alignment" : 4,
   "base_specifiers" :
   [
    {
     "referenced_type" : "_ZTIN4aidl7android8hardware8security4dice11IDiceDeviceE"
    }
   ],
   "linker_set_key" : "_ZTIN4aidl7android8hardware8security4dice18IDiceDeviceDefaultE",
   "name" : "aidl::android::hardware::security::dice::IDiceDeviceDefault",
   "record_kind" : "class",
   "referenced_type" : "_ZTIN4aidl7android8hardware8security4dice18IDiceDeviceDefaultE",
   "self_type" : "_ZTIN4aidl7android8hardware8security4dice18IDiceDeviceDefaultE",
   "size" : 16,
   "source_file" : "out/soong/.intermediates/hardware/interfaces/security/dice/aidl/android.hardware.security.dice-V1-ndk-source/gen/include/aidl/android/hardware/security/dice/IDiceDevice.h",
   "vtable_components" :
   [
    {
     "kind" : "offset_to_top"
    },
    {
     "kind" : "rtti",
     "mangled_component_name" : "_ZTIN4aidl7android8hardware8security4dice18IDiceDeviceDefaultE"
    },
    {
     "kind" : "complete_dtor_pointer",
     "mangled_component_name" : "_ZN4aidl7android8hardware8security4dice18IDiceDeviceDefaultD1Ev"
    },
    {
     "kind" : "deleting_dtor_pointer",
     "mangled_component_name" : "_ZN4aidl7android8hardware8security4dice18IDiceDeviceDefaultD0Ev"
    },
    {
     "mangled_component_name" : "_ZN4aidl7android8hardware8security4dice18IDiceDeviceDefault8asBinderEv"
    },
    {
     "mangled_component_name" : "_ZN4aidl7android8hardware8security4dice18IDiceDeviceDefault8isRemoteEv"
    },
    {
     "mangled_component_name" : "_ZN3ndk11ICInterface4dumpEiPPKcj"
    },
    {
     "mangled_component_name" : "_ZN3ndk11ICInterface18handleShellCommandEiiiPPKcj"
    },
    {
     "mangled_component_name" : "_ZN4aidl7android8hardware8security4dice18IDiceDeviceDefault4signERKNSt3__16vectorINS3_11InputValuesENS5_9allocatorIS7_EEEERKNS6_IhNS8_IhEEEEPNS3_9SignatureE"
    },
    {
     "mangled_component_name" : "_ZN4aidl7android8hardware8security4dice18IDiceDeviceDefault19getAttestationChainERKNSt3__16vectorINS3_11InputValuesENS5_9allocatorIS7_EEEEPNS3_3BccE"
    },
    {
     "mangled_component_name" : "_ZN4aidl7android8hardware8security4dice18IDiceDeviceDefault6deriveERKNSt3__16vectorINS3_11InputValuesENS5_9allocatorIS7_EEEEPNS3_11BccHandoverE"
    },
    {
     "mangled_component_name" : "_ZN4aidl7android8hardware8security4dice18IDiceDeviceDefault6demoteERKNSt3__16vectorINS3_11InputValuesENS5_9allocatorIS7_EEEE"
    },
    {
     "mangled_component_name" : "_ZN4aidl7android8hardware8security4dice18IDiceDeviceDefault19getInterfaceVersionEPi"
    },
    {
     "mangled_component_name" : "_ZN4aidl7android8hardware8security4dice18IDiceDeviceDefault16getInterfaceHashEPNSt3__112basic_stringIcNS5_11char_traitsIcEENS5_9allocatorIcEEEE"
    }
   ]
  },
  {
   "alignment" : 4,
   "base_specifiers" :
   [
    {
     "referenced_type" : "_ZTIN4aidl7android8hardware8security4dice12BnDiceDeviceE"
    }
   ],
   "fields" :
   [
    {
     "access" : "private",
     "field_name" : "_impl",
     "field_offset" : 192,
     "referenced_type" : "_ZTINSt3__110shared_ptrIN4aidl7android8hardware8security4dice11IDiceDeviceEEE"
    }
   ],
   "linker_set_key" : "_ZTIN4aidl7android8hardware8security4dice20IDiceDeviceDelegatorE",
   "name" : "aidl::android::hardware::security::dice::IDiceDeviceDelegator",
   "record_kind" : "class",
   "referenced_type" : "_ZTIN4aidl7android8hardware8security4dice20IDiceDeviceDelegatorE",
   "self_type" : "_ZTIN4aidl7android8hardware8security4dice20IDiceDeviceDelegatorE",
   "size" : 32,
   "source_file" : "out/soong/.intermediates/hardware/interfaces/security/dice/aidl/android.hardware.security.dice-V1-ndk-source/gen/include/aidl/android/hardware/security/dice/BnDiceDevice.h",
   "vtable_components" :
   [
    {
     "kind" : "offset_to_top"
    },
    {
     "kind" : "rtti",
     "mangled_component_name" : "_ZTIN4aidl7android8hardware8security4dice20IDiceDeviceDelegatorE"
    },
    {
     "kind" : "complete_dtor_pointer",
     "mangled_component_name" : "_ZN4aidl7android8hardware8security4dice20IDiceDeviceDelegatorD1Ev"
    },
    {
     "kind" : "deleting_dtor_pointer",
     "mangled_component_name" : "_ZN4aidl7android8hardware8security4dice20IDiceDeviceDelegatorD0Ev"
    },
    {
     "mangled_component_name" : "_ZN3ndk12BnCInterfaceIN4aidl7android8hardware8security4dice11IDiceDeviceEE8asBinderEv"
    },
    {
     "mangled_component_name" : "_ZN3ndk12BnCInterfaceIN4aidl7android8hardware8security4dice11IDiceDeviceEE8isRemoteEv"
    },
    {
     "mangled_component_name" : "_ZN3ndk11ICInterface4dumpEiPPKcj"
    },
    {
     "mangled_component_name" : "_ZN3ndk11ICInterface18handleShellCommandEiiiPPKcj"
    },
    {
     "mangled_component_name" : "_ZN4aidl7android8hardware8security4dice20IDiceDeviceDelegator4signERKNSt3__16vectorINS3_11InputValuesENS5_9allocatorIS7_EEEERKNS6_IhNS8_IhEEEEPNS3_9SignatureE"
    },
    {
     "mangled_component_name" : "_ZN4aidl7android8hardware8security4dice20IDiceDeviceDelegator19getAttestationChainERKNSt3__16vectorINS3_11InputValuesENS5_9allocatorIS7_EEEEPNS3_3BccE"
    },
    {
     "mangled_component_name" : "_ZN4aidl7android8hardware8security4dice20IDiceDeviceDelegator6deriveERKNSt3__16vectorINS3_11InputValuesENS5_9allocatorIS7_EEEEPNS3_11BccHandoverE"
    },
    {
     "mangled_component_name" : "_ZN4aidl7android8hardware8security4dice20IDiceDeviceDelegator6demoteERKNSt3__16vectorINS3_11InputValuesENS5_9allocatorIS7_EEEE"
    },
    {
     "mangled_component_name" : "_ZN4aidl7android8hardware8security4dice12BnDiceDevice19getInterfaceVersionEPi"
    },
    {
     "mangled_component_name" : "_ZN4aidl7android8hardware8security4dice12BnDiceDevice16getInterfaceHashEPNSt3__112basic_stringIcNS5_11char_traitsIcEENS5_9allocatorIcEEEE"
    },
    {
     "mangled_component_name" : "_ZN4aidl7android8hardware8security4dice12BnDiceDevice12createBinderEv"
    }
   ]
  },
  {
   "alignment" : 4,
   "fields" :
   [
    {
     "field_name" : "data",
     "referenced_type" : "_ZTINSt3__16vectorIhNS_9allocatorIhEEEE"
    }
   ],
   "linker_set_key" : "_ZTIN4aidl7android8hardware8security4dice3BccE",
   "name" : "aidl::android::hardware::security::dice::Bcc",
   "record_kind" : "class",
   "referenced_type" : "_ZTIN4aidl7android8hardware8security4dice3BccE",
   "self_type" : "_ZTIN4aidl7android8hardware8security4dice3BccE",
   "size" : 12,
   "source_file" : "out/soong/.intermediates/hardware/interfaces/security/dice/aidl/android.hardware.security.dice-V1-ndk-source/gen/include/aidl/android/hardware/security/dice/Bcc.h"
  },
  {
   "alignment" : 4,
   "fields" :
   [
    {
     "field_name" : "desc",
     "referenced_type" : "_ZTINSt3__16vectorIhNS_9allocatorIhEEEE"
    }
   ],
   "linker_set_key" : "_ZTIN4aidl7android8hardware8security4dice6ConfigE",
   "name" : "aidl::android::hardware::security::dice::Config",
   "record_kind" : "class",
   "referenced_type" : "_ZTIN4aidl7android8hardware8security4dice6ConfigE",
   "self_type" : "_ZTIN4aidl7android8hardware8security4dice6ConfigE",
   "size" : 12,
   "source_file" : "out/soong/.intermediates/hardware/interfaces/security/dice/aidl/android.hardware.security.dice-V1-ndk-source/gen/include/aidl/android/hardware/security/dice/Config.h"
  },
  {
   "alignment" : 4,
   "fields" :
   [
    {
     "field_name" : "data",
     "referenced_type" : "_ZTINSt3__16vectorIhNS_9allocatorIhEEEE"
    }
   ],
   "linker_set_key" : "_ZTIN4aidl7android8hardware8security4dice9SignatureE",
   "name" : "aidl::android::hardware::security::dice::Signature",
   "record_kind" : "class",
   "referenced_type" : "_ZTIN4aidl7android8hardware8security4dice9SignatureE",
   "self_type" : "_ZTIN4aidl7android8hardware8security4dice9SignatureE",
   "size" : 12,
   "source_file" : "out/soong/.intermediates/hardware/interfaces/security/dice/aidl/android.hardware.security.dice-V1-ndk-source/gen/include/aidl/android/hardware/security/dice/Signature.h"
  },
  {
   "alignment" : 1,
   "linker_set_key" : "_ZTIN7android8internal7details10IsIterableINSt3__15arrayIhLj32EEEEE",
   "name" : "android::internal::details::IsIterable<std::array<unsigned char, 32>>",
   "record_kind" : "class",
   "referenced_type" : "_ZTIN7android8internal7details10IsIterableINSt3__15arrayIhLj32EEEEE",
   "self_type" : "_ZTIN7android8internal7details10IsIterableINSt3__15arrayIhLj32EEEEE",
   "size" : 1,
   "source_file" : "frameworks/native/libs/binder/ndk/include_cpp/android/binder_to_string.h",
   "template_args" :
   [
    "_ZTINSt3__15arrayIhLj32EEE"
   ]
  },
  {
   "alignment" : 1,
   "linker_set_key" : "_ZTIN7android8internal7details10IsIterableINSt3__15arrayIhLj64EEEEE",
   "name" : "android::internal::details::IsIterable<std::array<unsigned char, 64>>",
   "record_kind" : "class",
   "referenced_type" : "_ZTIN7android8internal7details10IsIterableINSt3__15arrayIhLj64EEEEE",
   "self_type" : "_ZTIN7android8internal7details10IsIterableINSt3__15arrayIhLj64EEEEE",
   "size" : 1,
   "source_file" : "frameworks/native/libs/binder/ndk/include_cpp/android/binder_to_string.h",
   "template_args" :
   [
    "_ZTINSt3__15arrayIhLj64EEE"
   ]
  },
  {
   "alignment" : 1,
   "linker_set_key" : "_ZTIN7android8internal7details10IsIterableINSt3__16vectorIhNS3_9allocatorIhEEEEEE",
   "name" : "android::internal::details::IsIterable<std::vector<unsigned char, std::allocator<unsigned char>>>",
   "record_kind" : "class",
   "referenced_type" : "_ZTIN7android8internal7details10IsIterableINSt3__16vectorIhNS3_9allocatorIhEEEEEE",
   "self_type" : "_ZTIN7android8internal7details10IsIterableINSt3__16vectorIhNS3_9allocatorIhEEEEEE",
   "size" : 1,
   "source_file" : "frameworks/native/libs/binder/ndk/include_cpp/android/binder_to_string.h",
   "template_args" :
   [
    "_ZTINSt3__16vectorIhNS_9allocatorIhEEEE"
   ]
  },
  {
   "alignment" : 1,
   "linker_set_key" : "_ZTIN7android8internal7details13IsPointerLikeIN4aidl7android8hardware8security4dice3BccEEE",
   "name" : "android::internal::details::IsPointerLike<aidl::android::hardware::security::dice::Bcc>",
   "record_kind" : "class",
   "referenced_type" : "_ZTIN7android8internal7details13IsPointerLikeIN4aidl7android8hardware8security4dice3BccEEE",
   "self_type" : "_ZTIN7android8internal7details13IsPointerLikeIN4aidl7android8hardware8security4dice3BccEEE",
   "size" : 1,
   "source_file" : "frameworks/native/libs/binder/ndk/include_cpp/android/binder_to_string.h",
   "template_args" :
   [
    "_ZTIN4aidl7android8hardware8security4dice3BccE"
   ]
  },
  {
   "alignment" : 1,
   "linker_set_key" : "_ZTIN7android8internal7details13IsPointerLikeIN4aidl7android8hardware8security4dice4ModeEEE",
   "name" : "android::internal::details::IsPointerLike<aidl::android::hardware::security::dice::Mode>",
   "record_kind" : "class",
   "referenced_type" : "_ZTIN7android8internal7details13IsPointerLikeIN4aidl7android8hardware8security4dice4ModeEEE",
   "self_type" : "_ZTIN7android8internal7details13IsPointerLikeIN4aidl7android8hardware8security4dice4ModeEEE",
   "size" : 1,
   "source_file" : "frameworks/native/libs/binder/ndk/include_cpp/android/binder_to_string.h",
   "template_args" :
   [
    "_ZTIN4aidl7android8hardware8security4dice4ModeE"
   ]
  },
  {
   "alignment" : 1,
   "linker_set_key" : "_ZTIN7android8internal7details13IsPointerLikeIN4aidl7android8hardware8security4dice6ConfigEEE",
   "name" : "android::internal::details::IsPointerLike<aidl::android::hardware::security::dice::Config>",
   "record_kind" : "class",
   "referenced_type" : "_ZTIN7android8internal7details13IsPointerLikeIN4aidl7android8hardware8security4dice6ConfigEEE",
   "self_type" : "_ZTIN7android8internal7details13IsPointerLikeIN4aidl7android8hardware8security4dice6ConfigEEE",
   "size" : 1,
   "source_file" : "frameworks/native/libs/binder/ndk/include_cpp/android/binder_to_string.h",
   "template_args" :
   [
    "_ZTIN4aidl7android8hardware8security4dice6ConfigE"
   ]
  },
  {
   "alignment" : 1,
   "linker_set_key" : "_ZTIN7android8internal7details13IsPointerLikeINSt3__15arrayIhLj32EEEEE",
   "name" : "android::internal::details::IsPointerLike<std::array<unsigned char, 32>>",
   "record_kind" : "class",
   "referenced_type" : "_ZTIN7android8internal7details13IsPointerLikeINSt3__15arrayIhLj32EEEEE",
   "self_type" : "_ZTIN7android8internal7details13IsPointerLikeINSt3__15arrayIhLj32EEEEE",
   "size" : 1,
   "source_file" : "frameworks/native/libs/binder/ndk/include_cpp/android/binder_to_string.h",
   "template_args" :
   [
    "_ZTINSt3__15arrayIhLj32EEE"
   ]
  },
  {
   "alignment" : 1,
   "linker_set_key" : "_ZTIN7android8internal7details13IsPointerLikeINSt3__15arrayIhLj64EEEEE",
   "name" : "android::internal::details::IsPointerLike<std::array<unsigned char, 64>>",
   "record_kind" : "class",
   "referenced_type" : "_ZTIN7android8internal7details13IsPointerLikeINSt3__15arrayIhLj64EEEEE",
   "self_type" : "_ZTIN7android8internal7details13IsPointerLikeINSt3__15arrayIhLj64EEEEE",
   "size" : 1,
   "source_file" : "frameworks/native/libs/binder/ndk/include_cpp/android/binder_to_string.h",
   "template_args" :
   [
    "_ZTINSt3__15arrayIhLj64EEE"
   ]
  },
  {
   "alignment" : 1,
   "linker_set_key" : "_ZTIN7android8internal7details13IsPointerLikeINSt3__16vectorIhNS3_9allocatorIhEEEEEE",
   "name" : "android::internal::details::IsPointerLike<std::vector<unsigned char, std::allocator<unsigned char>>>",
   "record_kind" : "class",
   "referenced_type" : "_ZTIN7android8internal7details13IsPointerLikeINSt3__16vectorIhNS3_9allocatorIhEEEEEE",
   "self_type" : "_ZTIN7android8internal7details13IsPointerLikeINSt3__16vectorIhNS3_9allocatorIhEEEEEE",
   "size" : 1,
   "source_file" : "frameworks/native/libs/binder/ndk/include_cpp/android/binder_to_string.h",
   "template_args" :
   [
    "_ZTINSt3__16vectorIhNS_9allocatorIhEEEE"
   ]
  },
  {
   "alignment" : 1,
   "linker_set_key" : "_ZTIN7android8internal7details13IsPointerLikeINSt3__18optionalINS3_6vectorIhNS3_9allocatorIhEEEEEEEE",
   "name" : "android::internal::details::IsPointerLike<std::optional<std::vector<unsigned char, std::allocator<unsigned char>>>>",
   "record_kind" : "class",
   "referenced_type" : "_ZTIN7android8internal7details13IsPointerLikeINSt3__18optionalINS3_6vectorIhNS3_9allocatorIhEEEEEEEE",
   "self_type" : "_ZTIN7android8internal7details13IsPointerLikeINSt3__18optionalINS3_6vectorIhNS3_9allocatorIhEEEEEEEE",
   "size" : 1,
   "source_file" : "frameworks/native/libs/binder/ndk/include_cpp/android/binder_to_string.h",
   "template_args" :
   [
    "_ZTINSt3__18optionalINS_6vectorIhNS_9allocatorIhEEEEEE"
   ]
  },
  {
   "alignment" : 1,
   "linker_set_key" : "_ZTIN7android8internal7details13ToEmptyStringIN4aidl7android8hardware8security4dice3BccEEE",
   "name" : "android::internal::details::ToEmptyString<aidl::android::hardware::security::dice::Bcc>",
   "record_kind" : "class",
   "referenced_type" : "_ZTIN7android8internal7details13ToEmptyStringIN4aidl7android8hardware8security4dice3BccEEE",
   "self_type" : "_ZTIN7android8internal7details13ToEmptyStringIN4aidl7android8hardware8security4dice3BccEEE",
   "size" : 1,
   "source_file" : "frameworks/native/libs/binder/ndk/include_cpp/android/binder_to_string.h",
   "template_args" :
   [
    "_ZTIN4aidl7android8hardware8security4dice3BccE"
   ]
  },
  {
   "alignment" : 1,
   "linker_set_key" : "_ZTIN7android8internal7details13ToEmptyStringIN4aidl7android8hardware8security4dice4ModeEEE",
   "name" : "android::internal::details::ToEmptyString<aidl::android::hardware::security::dice::Mode>",
   "record_kind" : "class",
   "referenced_type" : "_ZTIN7android8internal7details13ToEmptyStringIN4aidl7android8hardware8security4dice4ModeEEE",
   "self_type" : "_ZTIN7android8internal7details13ToEmptyStringIN4aidl7android8hardware8security4dice4ModeEEE",
   "size" : 1,
   "source_file" : "frameworks/native/libs/binder/ndk/include_cpp/android/binder_to_string.h",
   "template_args" :
   [
    "_ZTIN4aidl7android8hardware8security4dice4ModeE"
   ]
  },
  {
   "alignment" : 1,
   "linker_set_key" : "_ZTIN7android8internal7details13ToEmptyStringIN4aidl7android8hardware8security4dice6ConfigEEE",
   "name" : "android::internal::details::ToEmptyString<aidl::android::hardware::security::dice::Config>",
   "record_kind" : "class",
   "referenced_type" : "_ZTIN7android8internal7details13ToEmptyStringIN4aidl7android8hardware8security4dice6ConfigEEE",
   "self_type" : "_ZTIN7android8internal7details13ToEmptyStringIN4aidl7android8hardware8security4dice6ConfigEEE",
   "size" : 1,
   "source_file" : "frameworks/native/libs/binder/ndk/include_cpp/android/binder_to_string.h",
   "template_args" :
   [
    "_ZTIN4aidl7android8hardware8security4dice6ConfigE"
   ]
  },
  {
   "alignment" : 1,
   "linker_set_key" : "_ZTIN7android8internal7details13ToEmptyStringINSt3__15arrayIhLj32EEEEE",
   "name" : "android::internal::details::ToEmptyString<std::array<unsigned char, 32>>",
   "record_kind" : "class",
   "referenced_type" : "_ZTIN7android8internal7details13ToEmptyStringINSt3__15arrayIhLj32EEEEE",
   "self_type" : "_ZTIN7android8internal7details13ToEmptyStringINSt3__15arrayIhLj32EEEEE",
   "size" : 1,
   "source_file" : "frameworks/native/libs/binder/ndk/include_cpp/android/binder_to_string.h",
   "template_args" :
   [
    "_ZTINSt3__15arrayIhLj32EEE"
   ]
  },
  {
   "alignment" : 1,
   "linker_set_key" : "_ZTIN7android8internal7details13ToEmptyStringINSt3__15arrayIhLj64EEEEE",
   "name" : "android::internal::details::ToEmptyString<std::array<unsigned char, 64>>",
   "record_kind" : "class",
   "referenced_type" : "_ZTIN7android8internal7details13ToEmptyStringINSt3__15arrayIhLj64EEEEE",
   "self_type" : "_ZTIN7android8internal7details13ToEmptyStringINSt3__15arrayIhLj64EEEEE",
   "size" : 1,
   "source_file" : "frameworks/native/libs/binder/ndk/include_cpp/android/binder_to_string.h",
   "template_args" :
   [
    "_ZTINSt3__15arrayIhLj64EEE"
   ]
  },
  {
   "alignment" : 1,
   "linker_set_key" : "_ZTIN7android8internal7details13ToEmptyStringINSt3__16vectorIhNS3_9allocatorIhEEEEEE",
   "name" : "android::internal::details::ToEmptyString<std::vector<unsigned char, std::allocator<unsigned char>>>",
   "record_kind" : "class",
   "referenced_type" : "_ZTIN7android8internal7details13ToEmptyStringINSt3__16vectorIhNS3_9allocatorIhEEEEEE",
   "self_type" : "_ZTIN7android8internal7details13ToEmptyStringINSt3__16vectorIhNS3_9allocatorIhEEEEEE",
   "size" : 1,
   "source_file" : "frameworks/native/libs/binder/ndk/include_cpp/android/binder_to_string.h",
   "template_args" :
   [
    "_ZTINSt3__16vectorIhNS_9allocatorIhEEEE"
   ]
  },
  {
   "alignment" : 1,
   "linker_set_key" : "_ZTIN7android8internal7details13ToEmptyStringINSt3__18optionalINS3_6vectorIhNS3_9allocatorIhEEEEEEEE",
   "name" : "android::internal::details::ToEmptyString<std::optional<std::vector<unsigned char, std::allocator<unsigned char>>>>",
   "record_kind" : "class",
   "referenced_type" : "_ZTIN7android8internal7details13ToEmptyStringINSt3__18optionalINS3_6vectorIhNS3_9allocatorIhEEEEEEEE",
   "self_type" : "_ZTIN7android8internal7details13ToEmptyStringINSt3__18optionalINS3_6vectorIhNS3_9allocatorIhEEEEEEEE",
   "size" : 1,
   "source_file" : "frameworks/native/libs/binder/ndk/include_cpp/android/binder_to_string.h",
   "template_args" :
   [
    "_ZTINSt3__18optionalINS_6vectorIhNS_9allocatorIhEEEEEE"
   ]
  },
  {
   "alignment" : 1,
   "linker_set_key" : "_ZTIN7android8internal7details13ToEmptyStringIhEE",
   "name" : "android::internal::details::ToEmptyString<unsigned char>",
   "record_kind" : "class",
   "referenced_type" : "_ZTIN7android8internal7details13ToEmptyStringIhEE",
   "self_type" : "_ZTIN7android8internal7details13ToEmptyStringIhEE",
   "size" : 1,
   "source_file" : "frameworks/native/libs/binder/ndk/include_cpp/android/binder_to_string.h",
   "template_args" :
   [
    "_ZTIh"
   ]
  },
  {
   "alignment" : 1,
   "linker_set_key" : "_ZTIN7android8internal7details17HasToStringMethodIN4aidl7android8hardware8security4dice3BccEEE",
   "name" : "android::internal::details::HasToStringMethod<aidl::android::hardware::security::dice::Bcc>",
   "record_kind" : "class",
   "referenced_type" : "_ZTIN7android8internal7details17HasToStringMethodIN4aidl7android8hardware8security4dice3BccEEE",
   "self_type" : "_ZTIN7android8internal7details17HasToStringMethodIN4aidl7android8hardware8security4dice3BccEEE",
   "size" : 1,
   "source_file" : "frameworks/native/libs/binder/ndk/include_cpp/android/binder_to_string.h",
   "template_args" :
   [
    "_ZTIN4aidl7android8hardware8security4dice3BccE"
   ]
  },
  {
   "alignment" : 1,
   "linker_set_key" : "_ZTIN7android8internal7details17HasToStringMethodIN4aidl7android8hardware8security4dice4ModeEEE",
   "name" : "android::internal::details::HasToStringMethod<aidl::android::hardware::security::dice::Mode>",
   "record_kind" : "class",
   "referenced_type" : "_ZTIN7android8internal7details17HasToStringMethodIN4aidl7android8hardware8security4dice4ModeEEE",
   "self_type" : "_ZTIN7android8internal7details17HasToStringMethodIN4aidl7android8hardware8security4dice4ModeEEE",
   "size" : 1,
   "source_file" : "frameworks/native/libs/binder/ndk/include_cpp/android/binder_to_string.h",
   "template_args" :
   [
    "_ZTIN4aidl7android8hardware8security4dice4ModeE"
   ]
  },
  {
   "alignment" : 1,
   "linker_set_key" : "_ZTIN7android8internal7details17HasToStringMethodIN4aidl7android8hardware8security4dice6ConfigEEE",
   "name" : "android::internal::details::HasToStringMethod<aidl::android::hardware::security::dice::Config>",
   "record_kind" : "class",
   "referenced_type" : "_ZTIN7android8internal7details17HasToStringMethodIN4aidl7android8hardware8security4dice6ConfigEEE",
   "self_type" : "_ZTIN7android8internal7details17HasToStringMethodIN4aidl7android8hardware8security4dice6ConfigEEE",
   "size" : 1,
   "source_file" : "frameworks/native/libs/binder/ndk/include_cpp/android/binder_to_string.h",
   "template_args" :
   [
    "_ZTIN4aidl7android8hardware8security4dice6ConfigE"
   ]
  },
  {
   "alignment" : 1,
   "linker_set_key" : "_ZTIN7android8internal7details17HasToStringMethodINSt3__15arrayIhLj32EEEEE",
   "name" : "android::internal::details::HasToStringMethod<std::array<unsigned char, 32>>",
   "record_kind" : "class",
   "referenced_type" : "_ZTIN7android8internal7details17HasToStringMethodINSt3__15arrayIhLj32EEEEE",
   "self_type" : "_ZTIN7android8internal7details17HasToStringMethodINSt3__15arrayIhLj32EEEEE",
   "size" : 1,
   "source_file" : "frameworks/native/libs/binder/ndk/include_cpp/android/binder_to_string.h",
   "template_args" :
   [
    "_ZTINSt3__15arrayIhLj32EEE"
   ]
  },
  {
   "alignment" : 1,
   "linker_set_key" : "_ZTIN7android8internal7details17HasToStringMethodINSt3__15arrayIhLj64EEEEE",
   "name" : "android::internal::details::HasToStringMethod<std::array<unsigned char, 64>>",
   "record_kind" : "class",
   "referenced_type" : "_ZTIN7android8internal7details17HasToStringMethodINSt3__15arrayIhLj64EEEEE",
   "self_type" : "_ZTIN7android8internal7details17HasToStringMethodINSt3__15arrayIhLj64EEEEE",
   "size" : 1,
   "source_file" : "frameworks/native/libs/binder/ndk/include_cpp/android/binder_to_string.h",
   "template_args" :
   [
    "_ZTINSt3__15arrayIhLj64EEE"
   ]
  },
  {
   "alignment" : 1,
   "linker_set_key" : "_ZTIN7android8internal7details17HasToStringMethodINSt3__16vectorIhNS3_9allocatorIhEEEEEE",
   "name" : "android::internal::details::HasToStringMethod<std::vector<unsigned char, std::allocator<unsigned char>>>",
   "record_kind" : "class",
   "referenced_type" : "_ZTIN7android8internal7details17HasToStringMethodINSt3__16vectorIhNS3_9allocatorIhEEEEEE",
   "self_type" : "_ZTIN7android8internal7details17HasToStringMethodINSt3__16vectorIhNS3_9allocatorIhEEEEEE",
   "size" : 1,
   "source_file" : "frameworks/native/libs/binder/ndk/include_cpp/android/binder_to_string.h",
   "template_args" :
   [
    "_ZTINSt3__16vectorIhNS_9allocatorIhEEEE"
   ]
  },
  {
   "alignment" : 1,
   "base_specifiers" :
   [
    {
     "referenced_type" : "_ZTINSt3__117integral_constantIbLb0EEE"
    }
   ],
   "linker_set_key" : "_ZTIN7android8internal7details17IsInstantiationOfIN4aidl7android8hardware8security4dice3BccENSt3__110shared_ptrEEE",
   "name" : "android::internal::details::IsInstantiationOf<aidl::android::hardware::security::dice::Bcc, std::shared_ptr>",
   "referenced_type" : "_ZTIN7android8internal7details17IsInstantiationOfIN4aidl7android8hardware8security4dice3BccENSt3__110shared_ptrEEE",
   "self_type" : "_ZTIN7android8internal7details17IsInstantiationOfIN4aidl7android8hardware8security4dice3BccENSt3__110shared_ptrEEE",
   "size" : 1,
   "source_file" : "frameworks/native/libs/binder/ndk/include_cpp/android/binder_to_string.h",
   "template_args" :
   [
    "_ZTIN4aidl7android8hardware8security4dice3BccE"
   ]
  },
  {
   "alignment" : 1,
   "base_specifiers" :
   [
    {
     "referenced_type" : "_ZTINSt3__117integral_constantIbLb0EEE"
    }
   ],
   "linker_set_key" : "_ZTIN7android8internal7details17IsInstantiationOfIN4aidl7android8hardware8security4dice3BccENSt3__18optionalEEE",
   "name" : "android::internal::details::IsInstantiationOf<aidl::android::hardware::security::dice::Bcc, std::optional>",
   "referenced_type" : "_ZTIN7android8internal7details17IsInstantiationOfIN4aidl7android8hardware8security4dice3BccENSt3__18optionalEEE",
   "self_type" : "_ZTIN7android8internal7details17IsInstantiationOfIN4aidl7android8hardware8security4dice3BccENSt3__18optionalEEE",
   "size" : 1,
   "source_file" : "frameworks/native/libs/binder/ndk/include_cpp/android/binder_to_string.h",
   "template_args" :
   [
    "_ZTIN4aidl7android8hardware8security4dice3BccE"
   ]
  },
  {
   "alignment" : 1,
   "base_specifiers" :
   [
    {
     "referenced_type" : "_ZTINSt3__117integral_constantIbLb0EEE"
    }
   ],
   "linker_set_key" : "_ZTIN7android8internal7details17IsInstantiationOfIN4aidl7android8hardware8security4dice4ModeENSt3__110shared_ptrEEE",
   "name" : "android::internal::details::IsInstantiationOf<aidl::android::hardware::security::dice::Mode, std::shared_ptr>",
   "referenced_type" : "_ZTIN7android8internal7details17IsInstantiationOfIN4aidl7android8hardware8security4dice4ModeENSt3__110shared_ptrEEE",
   "self_type" : "_ZTIN7android8internal7details17IsInstantiationOfIN4aidl7android8hardware8security4dice4ModeENSt3__110shared_ptrEEE",
   "size" : 1,
   "source_file" : "frameworks/native/libs/binder/ndk/include_cpp/android/binder_to_string.h",
   "template_args" :
   [
    "_ZTIN4aidl7android8hardware8security4dice4ModeE"
   ]
  },
  {
   "alignment" : 1,
   "base_specifiers" :
   [
    {
     "referenced_type" : "_ZTINSt3__117integral_constantIbLb0EEE"
    }
   ],
   "linker_set_key" : "_ZTIN7android8internal7details17IsInstantiationOfIN4aidl7android8hardware8security4dice4ModeENSt3__18optionalEEE",
   "name" : "android::internal::details::IsInstantiationOf<aidl::android::hardware::security::dice::Mode, std::optional>",
   "referenced_type" : "_ZTIN7android8internal7details17IsInstantiationOfIN4aidl7android8hardware8security4dice4ModeENSt3__18optionalEEE",
   "self_type" : "_ZTIN7android8internal7details17IsInstantiationOfIN4aidl7android8hardware8security4dice4ModeENSt3__18optionalEEE",
   "size" : 1,
   "source_file" : "frameworks/native/libs/binder/ndk/include_cpp/android/binder_to_string.h",
   "template_args" :
   [
    "_ZTIN4aidl7android8hardware8security4dice4ModeE"
   ]
  },
  {
   "alignment" : 1,
   "base_specifiers" :
   [
    {
     "referenced_type" : "_ZTINSt3__117integral_constantIbLb0EEE"
    }
   ],
   "linker_set_key" : "_ZTIN7android8internal7details17IsInstantiationOfIN4aidl7android8hardware8security4dice6ConfigENSt3__110shared_ptrEEE",
   "name" : "android::internal::details::IsInstantiationOf<aidl::android::hardware::security::dice::Config, std::shared_ptr>",
   "referenced_type" : "_ZTIN7android8internal7details17IsInstantiationOfIN4aidl7android8hardware8security4dice6ConfigENSt3__110shared_ptrEEE",
   "self_type" : "_ZTIN7android8internal7details17IsInstantiationOfIN4aidl7android8hardware8security4dice6ConfigENSt3__110shared_ptrEEE",
   "size" : 1,
   "source_file" : "frameworks/native/libs/binder/ndk/include_cpp/android/binder_to_string.h",
   "template_args" :
   [
    "_ZTIN4aidl7android8hardware8security4dice6ConfigE"
   ]
  },
  {
   "alignment" : 1,
   "base_specifiers" :
   [
    {
     "referenced_type" : "_ZTINSt3__117integral_constantIbLb0EEE"
    }
   ],
   "linker_set_key" : "_ZTIN7android8internal7details17IsInstantiationOfIN4aidl7android8hardware8security4dice6ConfigENSt3__18optionalEEE",
   "name" : "android::internal::details::IsInstantiationOf<aidl::android::hardware::security::dice::Config, std::optional>",
   "referenced_type" : "_ZTIN7android8internal7details17IsInstantiationOfIN4aidl7android8hardware8security4dice6ConfigENSt3__18optionalEEE",
   "self_type" : "_ZTIN7android8internal7details17IsInstantiationOfIN4aidl7android8hardware8security4dice6ConfigENSt3__18optionalEEE",
   "size" : 1,
   "source_file" : "frameworks/native/libs/binder/ndk/include_cpp/android/binder_to_string.h",
   "template_args" :
   [
    "_ZTIN4aidl7android8hardware8security4dice6ConfigE"
   ]
  },
  {
   "alignment" : 1,
   "base_specifiers" :
   [
    {
     "referenced_type" : "_ZTINSt3__117integral_constantIbLb0EEE"
    }
   ],
   "linker_set_key" : "_ZTIN7android8internal7details17IsInstantiationOfINSt3__15arrayIhLj32EEENS3_10shared_ptrEEE",
   "name" : "android::internal::details::IsInstantiationOf<std::array<unsigned char, 32>, std::shared_ptr>",
   "referenced_type" : "_ZTIN7android8internal7details17IsInstantiationOfINSt3__15arrayIhLj32EEENS3_10shared_ptrEEE",
   "self_type" : "_ZTIN7android8internal7details17IsInstantiationOfINSt3__15arrayIhLj32EEENS3_10shared_ptrEEE",
   "size" : 1,
   "source_file" : "frameworks/native/libs/binder/ndk/include_cpp/android/binder_to_string.h",
   "template_args" :
   [
    "_ZTINSt3__15arrayIhLj32EEE"
   ]
  },
  {
   "alignment" : 1,
   "base_specifiers" :
   [
    {
     "referenced_type" : "_ZTINSt3__117integral_constantIbLb0EEE"
    }
   ],
   "linker_set_key" : "_ZTIN7android8internal7details17IsInstantiationOfINSt3__15arrayIhLj32EEENS3_8optionalEEE",
   "name" : "android::internal::details::IsInstantiationOf<std::array<unsigned char, 32>, std::optional>",
   "referenced_type" : "_ZTIN7android8internal7details17IsInstantiationOfINSt3__15arrayIhLj32EEENS3_8optionalEEE",
   "self_type" : "_ZTIN7android8internal7details17IsInstantiationOfINSt3__15arrayIhLj32EEENS3_8optionalEEE",
   "size" : 1,
   "source_file" : "frameworks/native/libs/binder/ndk/include_cpp/android/binder_to_string.h",
   "template_args" :
   [
    "_ZTINSt3__15arrayIhLj32EEE"
   ]
  },
  {
   "alignment" : 1,
   "base_specifiers" :
   [
    {
     "referenced_type" : "_ZTINSt3__117integral_constantIbLb0EEE"
    }
   ],
   "linker_set_key" : "_ZTIN7android8internal7details17IsInstantiationOfINSt3__15arrayIhLj64EEENS3_10shared_ptrEEE",
   "name" : "android::internal::details::IsInstantiationOf<std::array<unsigned char, 64>, std::shared_ptr>",
   "referenced_type" : "_ZTIN7android8internal7details17IsInstantiationOfINSt3__15arrayIhLj64EEENS3_10shared_ptrEEE",
   "self_type" : "_ZTIN7android8internal7details17IsInstantiationOfINSt3__15arrayIhLj64EEENS3_10shared_ptrEEE",
   "size" : 1,
   "source_file" : "frameworks/native/libs/binder/ndk/include_cpp/android/binder_to_string.h",
   "template_args" :
   [
    "_ZTINSt3__15arrayIhLj64EEE"
   ]
  },
  {
   "alignment" : 1,
   "base_specifiers" :
   [
    {
     "referenced_type" : "_ZTINSt3__117integral_constantIbLb0EEE"
    }
   ],
   "linker_set_key" : "_ZTIN7android8internal7details17IsInstantiationOfINSt3__15arrayIhLj64EEENS3_8optionalEEE",
   "name" : "android::internal::details::IsInstantiationOf<std::array<unsigned char, 64>, std::optional>",
   "referenced_type" : "_ZTIN7android8internal7details17IsInstantiationOfINSt3__15arrayIhLj64EEENS3_8optionalEEE",
   "self_type" : "_ZTIN7android8internal7details17IsInstantiationOfINSt3__15arrayIhLj64EEENS3_8optionalEEE",
   "size" : 1,
   "source_file" : "frameworks/native/libs/binder/ndk/include_cpp/android/binder_to_string.h",
   "template_args" :
   [
    "_ZTINSt3__15arrayIhLj64EEE"
   ]
  },
  {
   "alignment" : 1,
   "base_specifiers" :
   [
    {
     "referenced_type" : "_ZTINSt3__117integral_constantIbLb0EEE"
    }
   ],
   "linker_set_key" : "_ZTIN7android8internal7details17IsInstantiationOfINSt3__16vectorIhNS3_9allocatorIhEEEENS3_10shared_ptrEEE",
   "name" : "android::internal::details::IsInstantiationOf<std::vector<unsigned char, std::allocator<unsigned char>>, std::shared_ptr>",
   "referenced_type" : "_ZTIN7android8internal7details17IsInstantiationOfINSt3__16vectorIhNS3_9allocatorIhEEEENS3_10shared_ptrEEE",
   "self_type" : "_ZTIN7android8internal7details17IsInstantiationOfINSt3__16vectorIhNS3_9allocatorIhEEEENS3_10shared_ptrEEE",
   "size" : 1,
   "source_file" : "frameworks/native/libs/binder/ndk/include_cpp/android/binder_to_string.h",
   "template_args" :
   [
    "_ZTINSt3__16vectorIhNS_9allocatorIhEEEE"
   ]
  },
  {
   "alignment" : 1,
   "base_specifiers" :
   [
    {
     "referenced_type" : "_ZTINSt3__117integral_constantIbLb0EEE"
    }
   ],
   "linker_set_key" : "_ZTIN7android8internal7details17IsInstantiationOfINSt3__16vectorIhNS3_9allocatorIhEEEENS3_8optionalEEE",
   "name" : "android::internal::details::IsInstantiationOf<std::vector<unsigned char, std::allocator<unsigned char>>, std::optional>",
   "referenced_type" : "_ZTIN7android8internal7details17IsInstantiationOfINSt3__16vectorIhNS3_9allocatorIhEEEENS3_8optionalEEE",
   "self_type" : "_ZTIN7android8internal7details17IsInstantiationOfINSt3__16vectorIhNS3_9allocatorIhEEEENS3_8optionalEEE",
   "size" : 1,
   "source_file" : "frameworks/native/libs/binder/ndk/include_cpp/android/binder_to_string.h",
   "template_args" :
   [
    "_ZTINSt3__16vectorIhNS_9allocatorIhEEEE"
   ]
  },
  {
   "alignment" : 1,
   "base_specifiers" :
   [
    {
     "referenced_type" : "_ZTINSt3__117integral_constantIbLb0EEE"
    }
   ],
   "linker_set_key" : "_ZTIN7android8internal7details17IsInstantiationOfINSt3__18optionalINS3_6vectorIhNS3_9allocatorIhEEEEEENS3_10shared_ptrEEE",
   "name" : "android::internal::details::IsInstantiationOf<std::optional<std::vector<unsigned char, std::allocator<unsigned char>>>, std::shared_ptr>",
   "referenced_type" : "_ZTIN7android8internal7details17IsInstantiationOfINSt3__18optionalINS3_6vectorIhNS3_9allocatorIhEEEEEENS3_10shared_ptrEEE",
   "self_type" : "_ZTIN7android8internal7details17IsInstantiationOfINSt3__18optionalINS3_6vectorIhNS3_9allocatorIhEEEEEENS3_10shared_ptrEEE",
   "size" : 1,
   "source_file" : "frameworks/native/libs/binder/ndk/include_cpp/android/binder_to_string.h",
   "template_args" :
   [
    "_ZTINSt3__18optionalINS_6vectorIhNS_9allocatorIhEEEEEE"
   ]
  },
  {
   "alignment" : 1,
   "base_specifiers" :
   [
    {
     "referenced_type" : "_ZTINSt3__117integral_constantIbLb1EEE"
    }
   ],
   "linker_set_key" : "_ZTIN7android8internal7details17IsInstantiationOfINSt3__18optionalINS3_6vectorIhNS3_9allocatorIhEEEEEES4_EE",
   "name" : "android::internal::details::IsInstantiationOf<std::optional<std::vector<unsigned char, std::allocator<unsigned char>>>, std::optional>",
   "referenced_type" : "_ZTIN7android8internal7details17IsInstantiationOfINSt3__18optionalINS3_6vectorIhNS3_9allocatorIhEEEEEES4_EE",
   "self_type" : "_ZTIN7android8internal7details17IsInstantiationOfINSt3__18optionalINS3_6vectorIhNS3_9allocatorIhEEEEEES4_EE",
   "size" : 1,
   "source_file" : "frameworks/native/libs/binder/ndk/include_cpp/android/binder_to_string.h",
   "template_args" :
   [
    "_ZTINSt3__18optionalINS_6vectorIhNS_9allocatorIhEEEEEE"
   ]
  },
  {
   "alignment" : 1,
   "linker_set_key" : "_ZTIN7android8internal7details19HasToStringFunctionIN4aidl7android8hardware8security4dice4ModeEEE",
   "name" : "android::internal::details::HasToStringFunction<aidl::android::hardware::security::dice::Mode>",
   "record_kind" : "class",
   "referenced_type" : "_ZTIN7android8internal7details19HasToStringFunctionIN4aidl7android8hardware8security4dice4ModeEEE",
   "self_type" : "_ZTIN7android8internal7details19HasToStringFunctionIN4aidl7android8hardware8security4dice4ModeEEE",
   "size" : 1,
   "source_file" : "frameworks/native/libs/binder/ndk/include_cpp/android/binder_to_string.h",
   "template_args" :
   [
    "_ZTIN4aidl7android8hardware8security4dice4ModeE"
   ]
  },
  {
   "alignment" : 1,
   "linker_set_key" : "_ZTIN7android8internal7details19HasToStringFunctionINSt3__15arrayIhLj32EEEEE",
   "name" : "android::internal::details::HasToStringFunction<std::array<unsigned char, 32>>",
   "record_kind" : "class",
   "referenced_type" : "_ZTIN7android8internal7details19HasToStringFunctionINSt3__15arrayIhLj32EEEEE",
   "self_type" : "_ZTIN7android8internal7details19HasToStringFunctionINSt3__15arrayIhLj32EEEEE",
   "size" : 1,
   "source_file" : "frameworks/native/libs/binder/ndk/include_cpp/android/binder_to_string.h",
   "template_args" :
   [
    "_ZTINSt3__15arrayIhLj32EEE"
   ]
  },
  {
   "alignment" : 1,
   "linker_set_key" : "_ZTIN7android8internal7details19HasToStringFunctionINSt3__15arrayIhLj64EEEEE",
   "name" : "android::internal::details::HasToStringFunction<std::array<unsigned char, 64>>",
   "record_kind" : "class",
   "referenced_type" : "_ZTIN7android8internal7details19HasToStringFunctionINSt3__15arrayIhLj64EEEEE",
   "self_type" : "_ZTIN7android8internal7details19HasToStringFunctionINSt3__15arrayIhLj64EEEEE",
   "size" : 1,
   "source_file" : "frameworks/native/libs/binder/ndk/include_cpp/android/binder_to_string.h",
   "template_args" :
   [
    "_ZTINSt3__15arrayIhLj64EEE"
   ]
  },
  {
   "alignment" : 1,
   "linker_set_key" : "_ZTIN7android8internal7details19HasToStringFunctionINSt3__16vectorIhNS3_9allocatorIhEEEEEE",
   "name" : "android::internal::details::HasToStringFunction<std::vector<unsigned char, std::allocator<unsigned char>>>",
   "record_kind" : "class",
   "referenced_type" : "_ZTIN7android8internal7details19HasToStringFunctionINSt3__16vectorIhNS3_9allocatorIhEEEEEE",
   "self_type" : "_ZTIN7android8internal7details19HasToStringFunctionINSt3__16vectorIhNS3_9allocatorIhEEEEEE",
   "size" : 1,
   "source_file" : "frameworks/native/libs/binder/ndk/include_cpp/android/binder_to_string.h",
   "template_args" :
   [
    "_ZTINSt3__16vectorIhNS_9allocatorIhEEEE"
   ]
  }
 ],
 "rvalue_reference_types" :
 [
  {
   "alignment" : 4,
   "linker_set_key" : "_ZTION3ndk13ScopedAParcelE",
   "name" : "ndk::ScopedAParcel &&",
   "referenced_type" : "_ZTIN3ndk13ScopedAParcelE",
   "self_type" : "_ZTION3ndk13ScopedAParcelE",
   "size" : 4,
   "source_file" : "frameworks/native/libs/binder/ndk/include_cpp/android/binder_auto_utils.h"
  },
  {
   "alignment" : 4,
   "linker_set_key" : "_ZTION3ndk13ScopedAStatusE",
   "name" : "ndk::ScopedAStatus &&",
   "referenced_type" : "_ZTIN3ndk13ScopedAStatusE",
   "self_type" : "_ZTION3ndk13ScopedAStatusE",
   "size" : 4,
   "source_file" : "frameworks/native/libs/binder/ndk/include_cpp/android/binder_auto_utils.h"
  },
  {
   "alignment" : 4,
   "linker_set_key" : "_ZTION3ndk17AParcelableHolderE",
   "name" : "ndk::AParcelableHolder &&",
   "referenced_type" : "_ZTIN3ndk17AParcelableHolderE",
   "self_type" : "_ZTION3ndk17AParcelableHolderE",
   "size" : 4,
   "source_file" : "frameworks/native/libs/binder/ndk/include_cpp/android/binder_parcelable_utils.h"
  },
  {
   "alignment" : 4,
   "linker_set_key" : "_ZTION3ndk19ScopedAIBinder_WeakE",
   "name" : "ndk::ScopedAIBinder_Weak &&",
   "referenced_type" : "_ZTIN3ndk19ScopedAIBinder_WeakE",
   "self_type" : "_ZTION3ndk19ScopedAIBinder_WeakE",
   "size" : 4,
   "source_file" : "frameworks/native/libs/binder/ndk/include_cpp/android/binder_auto_utils.h"
  },
  {
   "alignment" : 4,
   "linker_set_key" : "_ZTION3ndk20ScopedFileDescriptorE",
   "name" : "ndk::ScopedFileDescriptor &&",
   "referenced_type" : "_ZTIN3ndk20ScopedFileDescriptorE",
   "self_type" : "_ZTION3ndk20ScopedFileDescriptorE",
   "size" : 4,
   "source_file" : "frameworks/native/libs/binder/ndk/include_cpp/android/binder_auto_utils.h"
  },
  {
   "alignment" : 4,
   "linker_set_key" : "_ZTION3ndk29ScopedAIBinder_DeathRecipientE",
   "name" : "ndk::ScopedAIBinder_DeathRecipient &&",
   "referenced_type" : "_ZTIN3ndk29ScopedAIBinder_DeathRecipientE",
   "self_type" : "_ZTION3ndk29ScopedAIBinder_DeathRecipientE",
   "size" : 4,
   "source_file" : "frameworks/native/libs/binder/ndk/include_cpp/android/binder_auto_utils.h"
  },
  {
   "alignment" : 4,
   "linker_set_key" : "_ZTION3ndk4impl15ScopedAResourceIP7AStatusXadL_Z14AStatus_deleteEELS3_0EEE",
   "name" : "ndk::impl::ScopedAResource<AStatus *, &AStatus_delete, nullptr> &&",
   "referenced_type" : "_ZTIN3ndk4impl15ScopedAResourceIP7AStatusXadL_Z14AStatus_deleteEELS3_0EEE",
   "self_type" : "_ZTION3ndk4impl15ScopedAResourceIP7AStatusXadL_Z14AStatus_deleteEELS3_0EEE",
   "size" : 4,
   "source_file" : "frameworks/native/libs/binder/ndk/include_cpp/android/binder_auto_utils.h"
  }
 ]
}
