{
 "array_types" : [],
 "builtin_types" :
 [
  {
   "alignment" : 4,
   "linker_set_key" : "_ZTIDn",
   "name" : "std::nullptr_t",
   "referenced_type" : "_ZTIDn",
   "self_type" : "_ZTIDn",
   "size" : 4
  },
  {
   "alignment" : 1,
   "is_integral" : true,
   "linker_set_key" : "_ZTIa",
   "name" : "signed char",
   "referenced_type" : "_ZTIa",
   "self_type" : "_ZTIa",
   "size" : 1
  },
  {
   "alignment" : 1,
   "is_integral" : true,
   "is_unsigned" : true,
   "linker_set_key" : "_ZTIb",
   "name" : "bool",
   "referenced_type" : "_ZTIb",
   "self_type" : "_ZTIb",
   "size" : 1
  },
  {
   "alignment" : 1,
   "is_integral" : true,
   "linker_set_key" : "_ZTIc",
   "name" : "char",
   "referenced_type" : "_ZTIc",
   "self_type" : "_ZTIc",
   "size" : 1
  },
  {
   "alignment" : 1,
   "is_integral" : true,
   "is_unsigned" : true,
   "linker_set_key" : "_ZTIh",
   "name" : "unsigned char",
   "referenced_type" : "_ZTIh",
   "self_type" : "_ZTIh",
   "size" : 1
  },
  {
   "alignment" : 4,
   "is_integral" : true,
   "linker_set_key" : "_ZTIi",
   "name" : "int",
   "referenced_type" : "_ZTIi",
   "self_type" : "_ZTIi",
   "size" : 4
  },
  {
   "alignment" : 4,
   "is_integral" : true,
   "is_unsigned" : true,
   "linker_set_key" : "_ZTIj",
   "name" : "unsigned int",
   "referenced_type" : "_ZTIj",
   "self_type" : "_ZTIj",
   "size" : 4
  },
  {
   "linker_set_key" : "_ZTIv",
   "name" : "void",
   "referenced_type" : "_ZTIv",
   "self_type" : "_ZTIv"
  },
  {
   "alignment" : 4,
   "is_integral" : true,
   "linker_set_key" : "_ZTIx",
   "name" : "long long",
   "referenced_type" : "_ZTIx",
   "self_type" : "_ZTIx",
   "size" : 8
  }
 ],
 "elf_functions" :
 [
  {
   "binding" : "weak",
   "name" : "_ZN3ndk12BnCInterfaceIN4aidl7android8hardware5radio7network13IRadioNetworkEE8asBinderEv"
  },
  {
   "binding" : "weak",
   "name" : "_ZN3ndk12BnCInterfaceIN4aidl7android8hardware5radio7network21IRadioNetworkResponseEE8asBinderEv"
  },
  {
   "binding" : "weak",
   "name" : "_ZN3ndk12BnCInterfaceIN4aidl7android8hardware5radio7network23IRadioNetworkIndicationEE8asBinderEv"
  },
  {
   "binding" : "weak",
   "name" : "_ZN3ndk12BpCInterfaceIN4aidl7android8hardware5radio7network13IRadioNetworkEE8asBinderEv"
  },
  {
   "binding" : "weak",
   "name" : "_ZN3ndk12BpCInterfaceIN4aidl7android8hardware5radio7network21IRadioNetworkResponseEE8asBinderEv"
  },
  {
   "binding" : "weak",
   "name" : "_ZN3ndk12BpCInterfaceIN4aidl7android8hardware5radio7network23IRadioNetworkIndicationEE8asBinderEv"
  },
  {
   "binding" : "weak",
   "name" : "_ZN3ndk38AParcel_readStdVectorParcelableElementIN4aidl7android8hardware5radio7network11BarringInfoEEEiPK7AParcelPvj"
  },
  {
   "binding" : "weak",
   "name" : "_ZN3ndk38AParcel_readStdVectorParcelableElementIN4aidl7android8hardware5radio7network12OperatorInfoEEEiPK7AParcelPvj"
  },
  {
   "binding" : "weak",
   "name" : "_ZN3ndk38AParcel_readStdVectorParcelableElementIN4aidl7android8hardware5radio7network19SignalThresholdInfoEEEiPK7AParcelPvj"
  },
  {
   "binding" : "weak",
   "name" : "_ZN3ndk38AParcel_readStdVectorParcelableElementIN4aidl7android8hardware5radio7network20RadioAccessSpecifierEEEiPK7AParcelPvj"
  },
  {
   "binding" : "weak",
   "name" : "_ZN3ndk38AParcel_readStdVectorParcelableElementIN4aidl7android8hardware5radio7network21PhysicalChannelConfigEEEiPK7AParcelPvj"
  },
  {
   "binding" : "weak",
   "name" : "_ZN3ndk38AParcel_readStdVectorParcelableElementIN4aidl7android8hardware5radio7network8CellInfoEEEiPK7AParcelPvj"
  },
  {
   "binding" : "weak",
   "name" : "_ZN3ndk39AParcel_writeStdVectorParcelableElementIN4aidl7android8hardware5radio7network11BarringInfoEEEiP7AParcelPKvj"
  },
  {
   "binding" : "weak",
   "name" : "_ZN3ndk39AParcel_writeStdVectorParcelableElementIN4aidl7android8hardware5radio7network12OperatorInfoEEEiP7AParcelPKvj"
  },
  {
   "binding" : "weak",
   "name" : "_ZN3ndk39AParcel_writeStdVectorParcelableElementIN4aidl7android8hardware5radio7network19SignalThresholdInfoEEEiP7AParcelPKvj"
  },
  {
   "binding" : "weak",
   "name" : "_ZN3ndk39AParcel_writeStdVectorParcelableElementIN4aidl7android8hardware5radio7network20RadioAccessSpecifierEEEiP7AParcelPKvj"
  },
  {
   "binding" : "weak",
   "name" : "_ZN3ndk39AParcel_writeStdVectorParcelableElementIN4aidl7android8hardware5radio7network21PhysicalChannelConfigEEEiP7AParcelPKvj"
  },
  {
   "binding" : "weak",
   "name" : "_ZN3ndk39AParcel_writeStdVectorParcelableElementIN4aidl7android8hardware5radio7network8CellInfoEEEiP7AParcelPKvj"
  },
  {
   "name" : "_ZN4aidl7android8hardware5radio7network10CellInfoNr14readFromParcelEPK7AParcel"
  },
  {
   "name" : "_ZN4aidl7android8hardware5radio7network10NrVopsInfo14readFromParcelEPK7AParcel"
  },
  {
   "name" : "_ZN4aidl7android8hardware5radio7network11BarringInfo14readFromParcelEPK7AParcel"
  },
  {
   "name" : "_ZN4aidl7android8hardware5radio7network11CellInfoGsm14readFromParcelEPK7AParcel"
  },
  {
   "name" : "_ZN4aidl7android8hardware5radio7network11CellInfoLte14readFromParcelEPK7AParcel"
  },
  {
   "name" : "_ZN4aidl7android8hardware5radio7network11LceDataInfo14readFromParcelEPK7AParcel"
  },
  {
   "name" : "_ZN4aidl7android8hardware5radio7network11LteVopsInfo14readFromParcelEPK7AParcel"
  },
  {
   "name" : "_ZN4aidl7android8hardware5radio7network12CellIdentity14readFromParcelEPK7AParcel"
  },
  {
   "name" : "_ZN4aidl7android8hardware5radio7network12CellInfoCdma14readFromParcelEPK7AParcel"
  },
  {
   "name" : "_ZN4aidl7android8hardware5radio7network12NrIndicators14readFromParcelEPK7AParcel"
  },
  {
   "name" : "_ZN4aidl7android8hardware5radio7network12OperatorInfo14readFromParcelEPK7AParcel"
  },
  {
   "name" : "_ZN4aidl7android8hardware5radio7network13CellInfoWcdma14readFromParcelEPK7AParcel"
  },
  {
   "name" : "_ZN4aidl7android8hardware5radio7network13IRadioNetwork10fromBinderERKN3ndk10SpAIBinderE"
  },
  {
   "name" : "_ZN4aidl7android8hardware5radio7network13IRadioNetwork13writeToParcelEP7AParcelRKNSt3__110shared_ptrIS4_EE"
  },
  {
   "name" : "_ZN4aidl7android8hardware5radio7network13IRadioNetwork14getDefaultImplEv"
  },
  {
   "name" : "_ZN4aidl7android8hardware5radio7network13IRadioNetwork14readFromParcelEPK7AParcelPNSt3__110shared_ptrIS4_EE"
  },
  {
   "name" : "_ZN4aidl7android8hardware5radio7network13IRadioNetwork14setDefaultImplERKNSt3__110shared_ptrIS4_EE"
  },
  {
   "name" : "_ZN4aidl7android8hardware5radio7network13IRadioNetworkC2Ev"
  },
  {
   "name" : "_ZN4aidl7android8hardware5radio7network13IRadioNetworkD0Ev"
  },
  {
   "name" : "_ZN4aidl7android8hardware5radio7network13IRadioNetworkD1Ev"
  },
  {
   "name" : "_ZN4aidl7android8hardware5radio7network13IRadioNetworkD2Ev"
  },
  {
   "name" : "_ZN4aidl7android8hardware5radio7network14BnRadioNetwork12createBinderEv"
  },
  {
   "name" : "_ZN4aidl7android8hardware5radio7network14BnRadioNetwork16getInterfaceHashEPNSt3__112basic_stringIcNS5_11char_traitsIcEENS5_9allocatorIcEEEE"
  },
  {
   "name" : "_ZN4aidl7android8hardware5radio7network14BnRadioNetwork19getInterfaceVersionEPi"
  },
  {
   "name" : "_ZN4aidl7android8hardware5radio7network14BnRadioNetworkC2Ev"
  },
  {
   "name" : "_ZN4aidl7android8hardware5radio7network14BnRadioNetworkD0Ev"
  },
  {
   "name" : "_ZN4aidl7android8hardware5radio7network14BnRadioNetworkD1Ev"
  },
  {
   "name" : "_ZN4aidl7android8hardware5radio7network14BnRadioNetworkD2Ev"
  },
  {
   "name" : "_ZN4aidl7android8hardware5radio7network14BpRadioNetwork11getOperatorEi"
  },
  {
   "name" : "_ZN4aidl7android8hardware5radio7network14BpRadioNetwork11setBandModeEiNS3_13RadioBandModeE"
  },
  {
   "name" : "_ZN4aidl7android8hardware5radio7network14BpRadioNetwork14getBarringInfoEi"
  },
  {
   "name" : "_ZN4aidl7android8hardware5radio7network14BpRadioNetwork15getCellInfoListEi"
  },
  {
   "name" : "_ZN4aidl7android8hardware5radio7network14BpRadioNetwork15getUsageSettingEi"
  },
  {
   "name" : "_ZN4aidl7android8hardware5radio7network14BpRadioNetwork15setUsageSettingEiNS3_12UsageSettingE"
  },
  {
   "name" : "_ZN4aidl7android8hardware5radio7network14BpRadioNetwork15stopNetworkScanEi"
  },
  {
   "name" : "_ZN4aidl7android8hardware5radio7network14BpRadioNetwork16getInterfaceHashEPNSt3__112basic_stringIcNS5_11char_traitsIcEENS5_9allocatorIcEEEE"
  },
  {
   "name" : "_ZN4aidl7android8hardware5radio7network14BpRadioNetwork16startNetworkScanEiRKNS3_18NetworkScanRequestE"
  },
  {
   "name" : "_ZN4aidl7android8hardware5radio7network14BpRadioNetwork17getSignalStrengthEi"
  },
  {
   "name" : "_ZN4aidl7android8hardware5radio7network14BpRadioNetwork18setBarringPasswordEiRKNSt3__112basic_stringIcNS5_11char_traitsIcEENS5_9allocatorIcEEEESD_SD_"
  },
  {
   "name" : "_ZN4aidl7android8hardware5radio7network14BpRadioNetwork18setLocationUpdatesEib"
  },
  {
   "name" : "_ZN4aidl7android8hardware5radio7network14BpRadioNetwork19getInterfaceVersionEPi"
  },
  {
   "name" : "_ZN4aidl7android8hardware5radio7network14BpRadioNetwork19setCellInfoListRateEii"
  },
  {
   "name" : "_ZN4aidl7android8hardware5radio7network14BpRadioNetwork19setIndicationFilterEii"
  },
  {
   "name" : "_ZN4aidl7android8hardware5radio7network14BpRadioNetwork20getAvailableNetworksEi"
  },
  {
   "name" : "_ZN4aidl7android8hardware5radio7network14BpRadioNetwork20setResponseFunctionsERKNSt3__110shared_ptrINS3_21IRadioNetworkResponseEEERKNS6_INS3_23IRadioNetworkIndicationEEE"
  },
  {
   "name" : "_ZN4aidl7android8hardware5radio7network14BpRadioNetwork21getAvailableBandModesEi"
  },
  {
   "name" : "_ZN4aidl7android8hardware5radio7network14BpRadioNetwork23getImsRegistrationStateEi"
  },
  {
   "name" : "_ZN4aidl7android8hardware5radio7network14BpRadioNetwork23getNetworkSelectionModeEi"
  },
  {
   "name" : "_ZN4aidl7android8hardware5radio7network14BpRadioNetwork23getVoiceRadioTechnologyEi"
  },
  {
   "name" : "_ZN4aidl7android8hardware5radio7network14BpRadioNetwork23responseAcknowledgementEv"
  },
  {
   "name" : "_ZN4aidl7android8hardware5radio7network14BpRadioNetwork24getCdmaRoamingPreferenceEi"
  },
  {
   "name" : "_ZN4aidl7android8hardware5radio7network14BpRadioNetwork24getDataRegistrationStateEi"
  },
  {
   "name" : "_ZN4aidl7android8hardware5radio7network14BpRadioNetwork24setCdmaRoamingPreferenceEiNS3_15CdmaRoamingTypeE"
  },
  {
   "name" : "_ZN4aidl7android8hardware5radio7network14BpRadioNetwork25getVoiceRegistrationStateEi"
  },
  {
   "name" : "_ZN4aidl7android8hardware5radio7network14BpRadioNetwork26getSystemSelectionChannelsEi"
  },
  {
   "name" : "_ZN4aidl7android8hardware5radio7network14BpRadioNetwork26setNrDualConnectivityStateEiNS3_23NrDualConnectivityStateE"
  },
  {
   "name" : "_ZN4aidl7android8hardware5radio7network14BpRadioNetwork26setSystemSelectionChannelsEibRKNSt3__16vectorINS3_20RadioAccessSpecifierENS5_9allocatorIS7_EEEE"
  },
  {
   "name" : "_ZN4aidl7android8hardware5radio7network14BpRadioNetwork27isNrDualConnectivityEnabledEi"
  },
  {
   "name" : "_ZN4aidl7android8hardware5radio7network14BpRadioNetwork27setSuppServiceNotificationsEib"
  },
  {
   "name" : "_ZN4aidl7android8hardware5radio7network14BpRadioNetwork28getAllowedNetworkTypesBitmapEi"
  },
  {
   "name" : "_ZN4aidl7android8hardware5radio7network14BpRadioNetwork28setAllowedNetworkTypesBitmapEii"
  },
  {
   "name" : "_ZN4aidl7android8hardware5radio7network14BpRadioNetwork29setNetworkSelectionModeManualEiRKNSt3__112basic_stringIcNS5_11char_traitsIcEENS5_9allocatorIcEEEENS2_13AccessNetworkE"
  },
  {
   "name" : "_ZN4aidl7android8hardware5radio7network14BpRadioNetwork30supplyNetworkDepersonalizationEiRKNSt3__112basic_stringIcNS5_11char_traitsIcEENS5_9allocatorIcEEEE"
  },
  {
   "name" : "_ZN4aidl7android8hardware5radio7network14BpRadioNetwork32setLinkCapacityReportingCriteriaEiiiiRKNSt3__16vectorIiNS5_9allocatorIiEEEESB_NS2_13AccessNetworkE"
  },
  {
   "name" : "_ZN4aidl7android8hardware5radio7network14BpRadioNetwork32setNetworkSelectionModeAutomaticEi"
  },
  {
   "name" : "_ZN4aidl7android8hardware5radio7network14BpRadioNetwork34setSignalStrengthReportingCriteriaEiRKNSt3__16vectorINS3_19SignalThresholdInfoENS5_9allocatorIS7_EEEE"
  },
  {
   "name" : "_ZN4aidl7android8hardware5radio7network14BpRadioNetworkC1ERKN3ndk10SpAIBinderE"
  },
  {
   "name" : "_ZN4aidl7android8hardware5radio7network14BpRadioNetworkC2ERKN3ndk10SpAIBinderE"
  },
  {
   "name" : "_ZN4aidl7android8hardware5radio7network14BpRadioNetworkD0Ev"
  },
  {
   "name" : "_ZN4aidl7android8hardware5radio7network14BpRadioNetworkD1Ev"
  },
  {
   "name" : "_ZN4aidl7android8hardware5radio7network14BpRadioNetworkD2Ev"
  },
  {
   "name" : "_ZN4aidl7android8hardware5radio7network14CellIdentityNr14readFromParcelEPK7AParcel"
  },
  {
   "name" : "_ZN4aidl7android8hardware5radio7network14RegStateResult14readFromParcelEPK7AParcel"
  },
  {
   "name" : "_ZN4aidl7android8hardware5radio7network14SignalStrength14readFromParcelEPK7AParcel"
  },
  {
   "name" : "_ZN4aidl7android8hardware5radio7network15CellIdentityGsm14readFromParcelEPK7AParcel"
  },
  {
   "name" : "_ZN4aidl7android8hardware5radio7network15CellIdentityLte14readFromParcelEPK7AParcel"
  },
  {
   "name" : "_ZN4aidl7android8hardware5radio7network15CellInfoTdscdma14readFromParcelEPK7AParcel"
  },
  {
   "name" : "_ZN4aidl7android8hardware5radio7network16CellIdentityCdma14readFromParcelEPK7AParcel"
  },
  {
   "name" : "_ZN4aidl7android8hardware5radio7network16NrSignalStrength14readFromParcelEPK7AParcel"
  },
  {
   "name" : "_ZN4aidl7android8hardware5radio7network17CellIdentityWcdma14readFromParcelEPK7AParcel"
  },
  {
   "name" : "_ZN4aidl7android8hardware5radio7network17GsmSignalStrength14readFromParcelEPK7AParcel"
  },
  {
   "name" : "_ZN4aidl7android8hardware5radio7network17LteSignalStrength14readFromParcelEPK7AParcel"
  },
  {
   "name" : "_ZN4aidl7android8hardware5radio7network17NetworkScanResult14readFromParcelEPK7AParcel"
  },
  {
   "name" : "_ZN4aidl7android8hardware5radio7network18CdmaSignalStrength14readFromParcelEPK7AParcel"
  },
  {
   "name" : "_ZN4aidl7android8hardware5radio7network18EvdoSignalStrength14readFromParcelEPK7AParcel"
  },
  {
   "name" : "_ZN4aidl7android8hardware5radio7network18NetworkScanRequest14readFromParcelEPK7AParcel"
  },
  {
   "name" : "_ZN4aidl7android8hardware5radio7network19CellIdentityTdscdma14readFromParcelEPK7AParcel"
  },
  {
   "name" : "_ZN4aidl7android8hardware5radio7network19SignalThresholdInfo14readFromParcelEPK7AParcel"
  },
  {
   "name" : "_ZN4aidl7android8hardware5radio7network19SuppSvcNotification14readFromParcelEPK7AParcel"
  },
  {
   "name" : "_ZN4aidl7android8hardware5radio7network19WcdmaSignalStrength14readFromParcelEPK7AParcel"
  },
  {
   "name" : "_ZN4aidl7android8hardware5radio7network20IRadioNetworkDefault11getOperatorEi"
  },
  {
   "name" : "_ZN4aidl7android8hardware5radio7network20IRadioNetworkDefault11setBandModeEiNS3_13RadioBandModeE"
  },
  {
   "name" : "_ZN4aidl7android8hardware5radio7network20IRadioNetworkDefault14getBarringInfoEi"
  },
  {
   "name" : "_ZN4aidl7android8hardware5radio7network20IRadioNetworkDefault15getCellInfoListEi"
  },
  {
   "name" : "_ZN4aidl7android8hardware5radio7network20IRadioNetworkDefault15getUsageSettingEi"
  },
  {
   "name" : "_ZN4aidl7android8hardware5radio7network20IRadioNetworkDefault15setUsageSettingEiNS3_12UsageSettingE"
  },
  {
   "name" : "_ZN4aidl7android8hardware5radio7network20IRadioNetworkDefault15stopNetworkScanEi"
  },
  {
   "name" : "_ZN4aidl7android8hardware5radio7network20IRadioNetworkDefault16getInterfaceHashEPNSt3__112basic_stringIcNS5_11char_traitsIcEENS5_9allocatorIcEEEE"
  },
  {
   "name" : "_ZN4aidl7android8hardware5radio7network20IRadioNetworkDefault16startNetworkScanEiRKNS3_18NetworkScanRequestE"
  },
  {
   "name" : "_ZN4aidl7android8hardware5radio7network20IRadioNetworkDefault17getSignalStrengthEi"
  },
  {
   "name" : "_ZN4aidl7android8hardware5radio7network20IRadioNetworkDefault18setBarringPasswordEiRKNSt3__112basic_stringIcNS5_11char_traitsIcEENS5_9allocatorIcEEEESD_SD_"
  },
  {
   "name" : "_ZN4aidl7android8hardware5radio7network20IRadioNetworkDefault18setLocationUpdatesEib"
  },
  {
   "name" : "_ZN4aidl7android8hardware5radio7network20IRadioNetworkDefault19getInterfaceVersionEPi"
  },
  {
   "name" : "_ZN4aidl7android8hardware5radio7network20IRadioNetworkDefault19setCellInfoListRateEii"
  },
  {
   "name" : "_ZN4aidl7android8hardware5radio7network20IRadioNetworkDefault19setIndicationFilterEii"
  },
  {
   "name" : "_ZN4aidl7android8hardware5radio7network20IRadioNetworkDefault20getAvailableNetworksEi"
  },
  {
   "name" : "_ZN4aidl7android8hardware5radio7network20IRadioNetworkDefault20setResponseFunctionsERKNSt3__110shared_ptrINS3_21IRadioNetworkResponseEEERKNS6_INS3_23IRadioNetworkIndicationEEE"
  },
  {
   "name" : "_ZN4aidl7android8hardware5radio7network20IRadioNetworkDefault21getAvailableBandModesEi"
  },
  {
   "name" : "_ZN4aidl7android8hardware5radio7network20IRadioNetworkDefault23getImsRegistrationStateEi"
  },
  {
   "name" : "_ZN4aidl7android8hardware5radio7network20IRadioNetworkDefault23getNetworkSelectionModeEi"
  },
  {
   "name" : "_ZN4aidl7android8hardware5radio7network20IRadioNetworkDefault23getVoiceRadioTechnologyEi"
  },
  {
   "name" : "_ZN4aidl7android8hardware5radio7network20IRadioNetworkDefault23responseAcknowledgementEv"
  },
  {
   "name" : "_ZN4aidl7android8hardware5radio7network20IRadioNetworkDefault24getCdmaRoamingPreferenceEi"
  },
  {
   "name" : "_ZN4aidl7android8hardware5radio7network20IRadioNetworkDefault24getDataRegistrationStateEi"
  },
  {
   "name" : "_ZN4aidl7android8hardware5radio7network20IRadioNetworkDefault24setCdmaRoamingPreferenceEiNS3_15CdmaRoamingTypeE"
  },
  {
   "name" : "_ZN4aidl7android8hardware5radio7network20IRadioNetworkDefault25getVoiceRegistrationStateEi"
  },
  {
   "name" : "_ZN4aidl7android8hardware5radio7network20IRadioNetworkDefault26getSystemSelectionChannelsEi"
  },
  {
   "name" : "_ZN4aidl7android8hardware5radio7network20IRadioNetworkDefault26setNrDualConnectivityStateEiNS3_23NrDualConnectivityStateE"
  },
  {
   "name" : "_ZN4aidl7android8hardware5radio7network20IRadioNetworkDefault26setSystemSelectionChannelsEibRKNSt3__16vectorINS3_20RadioAccessSpecifierENS5_9allocatorIS7_EEEE"
  },
  {
   "name" : "_ZN4aidl7android8hardware5radio7network20IRadioNetworkDefault27isNrDualConnectivityEnabledEi"
  },
  {
   "name" : "_ZN4aidl7android8hardware5radio7network20IRadioNetworkDefault27setSuppServiceNotificationsEib"
  },
  {
   "name" : "_ZN4aidl7android8hardware5radio7network20IRadioNetworkDefault28getAllowedNetworkTypesBitmapEi"
  },
  {
   "name" : "_ZN4aidl7android8hardware5radio7network20IRadioNetworkDefault28setAllowedNetworkTypesBitmapEii"
  },
  {
   "name" : "_ZN4aidl7android8hardware5radio7network20IRadioNetworkDefault29setNetworkSelectionModeManualEiRKNSt3__112basic_stringIcNS5_11char_traitsIcEENS5_9allocatorIcEEEENS2_13AccessNetworkE"
  },
  {
   "name" : "_ZN4aidl7android8hardware5radio7network20IRadioNetworkDefault30supplyNetworkDepersonalizationEiRKNSt3__112basic_stringIcNS5_11char_traitsIcEENS5_9allocatorIcEEEE"
  },
  {
   "name" : "_ZN4aidl7android8hardware5radio7network20IRadioNetworkDefault32setLinkCapacityReportingCriteriaEiiiiRKNSt3__16vectorIiNS5_9allocatorIiEEEESB_NS2_13AccessNetworkE"
  },
  {
   "name" : "_ZN4aidl7android8hardware5radio7network20IRadioNetworkDefault32setNetworkSelectionModeAutomaticEi"
  },
  {
   "name" : "_ZN4aidl7android8hardware5radio7network20IRadioNetworkDefault34setSignalStrengthReportingCriteriaEiRKNSt3__16vectorINS3_19SignalThresholdInfoENS5_9allocatorIS7_EEEE"
  },
  {
   "name" : "_ZN4aidl7android8hardware5radio7network20IRadioNetworkDefault8asBinderEv"
  },
  {
   "name" : "_ZN4aidl7android8hardware5radio7network20IRadioNetworkDefault8isRemoteEv"
  },
  {
   "name" : "_ZN4aidl7android8hardware5radio7network20LinkCapacityEstimate14readFromParcelEPK7AParcel"
  },
  {
   "name" : "_ZN4aidl7android8hardware5radio7network20RadioAccessSpecifier14readFromParcelEPK7AParcel"
  },
  {
   "name" : "_ZN4aidl7android8hardware5radio7network21IRadioNetworkResponse10fromBinderERKN3ndk10SpAIBinderE"
  },
  {
   "name" : "_ZN4aidl7android8hardware5radio7network21IRadioNetworkResponse13writeToParcelEP7AParcelRKNSt3__110shared_ptrIS4_EE"
  },
  {
   "name" : "_ZN4aidl7android8hardware5radio7network21IRadioNetworkResponse14getDefaultImplEv"
  },
  {
   "name" : "_ZN4aidl7android8hardware5radio7network21IRadioNetworkResponse14readFromParcelEPK7AParcelPNSt3__110shared_ptrIS4_EE"
  },
  {
   "name" : "_ZN4aidl7android8hardware5radio7network21IRadioNetworkResponse14setDefaultImplERKNSt3__110shared_ptrIS4_EE"
  },
  {
   "name" : "_ZN4aidl7android8hardware5radio7network21IRadioNetworkResponseC2Ev"
  },
  {
   "name" : "_ZN4aidl7android8hardware5radio7network21IRadioNetworkResponseD0Ev"
  },
  {
   "name" : "_ZN4aidl7android8hardware5radio7network21IRadioNetworkResponseD1Ev"
  },
  {
   "name" : "_ZN4aidl7android8hardware5radio7network21IRadioNetworkResponseD2Ev"
  },
  {
   "name" : "_ZN4aidl7android8hardware5radio7network21PhysicalChannelConfig14readFromParcelEPK7AParcel"
  },
  {
   "name" : "_ZN4aidl7android8hardware5radio7network21TdscdmaSignalStrength14readFromParcelEPK7AParcel"
  },
  {
   "name" : "_ZN4aidl7android8hardware5radio7network22BnRadioNetworkResponse12createBinderEv"
  },
  {
   "name" : "_ZN4aidl7android8hardware5radio7network22BnRadioNetworkResponse16getInterfaceHashEPNSt3__112basic_stringIcNS5_11char_traitsIcEENS5_9allocatorIcEEEE"
  },
  {
   "name" : "_ZN4aidl7android8hardware5radio7network22BnRadioNetworkResponse19getInterfaceVersionEPi"
  },
  {
   "name" : "_ZN4aidl7android8hardware5radio7network22BnRadioNetworkResponseC2Ev"
  },
  {
   "name" : "_ZN4aidl7android8hardware5radio7network22BnRadioNetworkResponseD0Ev"
  },
  {
   "name" : "_ZN4aidl7android8hardware5radio7network22BnRadioNetworkResponseD1Ev"
  },
  {
   "name" : "_ZN4aidl7android8hardware5radio7network22BnRadioNetworkResponseD2Ev"
  },
  {
   "name" : "_ZN4aidl7android8hardware5radio7network22BpRadioNetworkResponse16getInterfaceHashEPNSt3__112basic_stringIcNS5_11char_traitsIcEENS5_9allocatorIcEEEE"
  },
  {
   "name" : "_ZN4aidl7android8hardware5radio7network22BpRadioNetworkResponse18acknowledgeRequestEi"
  },
  {
   "name" : "_ZN4aidl7android8hardware5radio7network22BpRadioNetworkResponse19getInterfaceVersionEPi"
  },
  {
   "name" : "_ZN4aidl7android8hardware5radio7network22BpRadioNetworkResponse19getOperatorResponseERKNS2_17RadioResponseInfoERKNSt3__112basic_stringIcNS8_11char_traitsIcEENS8_9allocatorIcEEEESG_SG_"
  },
  {
   "name" : "_ZN4aidl7android8hardware5radio7network22BpRadioNetworkResponse19setBandModeResponseERKNS2_17RadioResponseInfoE"
  },
  {
   "name" : "_ZN4aidl7android8hardware5radio7network22BpRadioNetworkResponse22getBarringInfoResponseERKNS2_17RadioResponseInfoERKNS3_12CellIdentityERKNSt3__16vectorINS3_11BarringInfoENSB_9allocatorISD_EEEE"
  },
  {
   "name" : "_ZN4aidl7android8hardware5radio7network22BpRadioNetworkResponse23getCellInfoListResponseERKNS2_17RadioResponseInfoERKNSt3__16vectorINS3_8CellInfoENS8_9allocatorISA_EEEE"
  },
  {
   "name" : "_ZN4aidl7android8hardware5radio7network22BpRadioNetworkResponse23getUsageSettingResponseERKNS2_17RadioResponseInfoENS3_12UsageSettingE"
  },
  {
   "name" : "_ZN4aidl7android8hardware5radio7network22BpRadioNetworkResponse23setUsageSettingResponseERKNS2_17RadioResponseInfoE"
  },
  {
   "name" : "_ZN4aidl7android8hardware5radio7network22BpRadioNetworkResponse23stopNetworkScanResponseERKNS2_17RadioResponseInfoE"
  },
  {
   "name" : "_ZN4aidl7android8hardware5radio7network22BpRadioNetworkResponse24startNetworkScanResponseERKNS2_17RadioResponseInfoE"
  },
  {
   "name" : "_ZN4aidl7android8hardware5radio7network22BpRadioNetworkResponse25getSignalStrengthResponseERKNS2_17RadioResponseInfoERKNS3_14SignalStrengthE"
  },
  {
   "name" : "_ZN4aidl7android8hardware5radio7network22BpRadioNetworkResponse26setBarringPasswordResponseERKNS2_17RadioResponseInfoE"
  },
  {
   "name" : "_ZN4aidl7android8hardware5radio7network22BpRadioNetworkResponse26setLocationUpdatesResponseERKNS2_17RadioResponseInfoE"
  },
  {
   "name" : "_ZN4aidl7android8hardware5radio7network22BpRadioNetworkResponse27setCellInfoListRateResponseERKNS2_17RadioResponseInfoE"
  },
  {
   "name" : "_ZN4aidl7android8hardware5radio7network22BpRadioNetworkResponse27setIndicationFilterResponseERKNS2_17RadioResponseInfoE"
  },
  {
   "name" : "_ZN4aidl7android8hardware5radio7network22BpRadioNetworkResponse28getAvailableNetworksResponseERKNS2_17RadioResponseInfoERKNSt3__16vectorINS3_12OperatorInfoENS8_9allocatorISA_EEEE"
  },
  {
   "name" : "_ZN4aidl7android8hardware5radio7network22BpRadioNetworkResponse29getAvailableBandModesResponseERKNS2_17RadioResponseInfoERKNSt3__16vectorINS3_13RadioBandModeENS8_9allocatorISA_EEEE"
  },
  {
   "name" : "_ZN4aidl7android8hardware5radio7network22BpRadioNetworkResponse31getImsRegistrationStateResponseERKNS2_17RadioResponseInfoEbNS2_21RadioTechnologyFamilyE"
  },
  {
   "name" : "_ZN4aidl7android8hardware5radio7network22BpRadioNetworkResponse31getNetworkSelectionModeResponseERKNS2_17RadioResponseInfoEb"
  },
  {
   "name" : "_ZN4aidl7android8hardware5radio7network22BpRadioNetworkResponse31getVoiceRadioTechnologyResponseERKNS2_17RadioResponseInfoENS2_15RadioTechnologyE"
  },
  {
   "name" : "_ZN4aidl7android8hardware5radio7network22BpRadioNetworkResponse32getCdmaRoamingPreferenceResponseERKNS2_17RadioResponseInfoENS3_15CdmaRoamingTypeE"
  },
  {
   "name" : "_ZN4aidl7android8hardware5radio7network22BpRadioNetworkResponse32getDataRegistrationStateResponseERKNS2_17RadioResponseInfoERKNS3_14RegStateResultE"
  },
  {
   "name" : "_ZN4aidl7android8hardware5radio7network22BpRadioNetworkResponse32setCdmaRoamingPreferenceResponseERKNS2_17RadioResponseInfoE"
  },
  {
   "name" : "_ZN4aidl7android8hardware5radio7network22BpRadioNetworkResponse33getVoiceRegistrationStateResponseERKNS2_17RadioResponseInfoERKNS3_14RegStateResultE"
  },
  {
   "name" : "_ZN4aidl7android8hardware5radio7network22BpRadioNetworkResponse34getSystemSelectionChannelsResponseERKNS2_17RadioResponseInfoERKNSt3__16vectorINS3_20RadioAccessSpecifierENS8_9allocatorISA_EEEE"
  },
  {
   "name" : "_ZN4aidl7android8hardware5radio7network22BpRadioNetworkResponse34setNrDualConnectivityStateResponseERKNS2_17RadioResponseInfoE"
  },
  {
   "name" : "_ZN4aidl7android8hardware5radio7network22BpRadioNetworkResponse34setSystemSelectionChannelsResponseERKNS2_17RadioResponseInfoE"
  },
  {
   "name" : "_ZN4aidl7android8hardware5radio7network22BpRadioNetworkResponse35isNrDualConnectivityEnabledResponseERKNS2_17RadioResponseInfoEb"
  },
  {
   "name" : "_ZN4aidl7android8hardware5radio7network22BpRadioNetworkResponse35setSuppServiceNotificationsResponseERKNS2_17RadioResponseInfoE"
  },
  {
   "name" : "_ZN4aidl7android8hardware5radio7network22BpRadioNetworkResponse36getAllowedNetworkTypesBitmapResponseERKNS2_17RadioResponseInfoEi"
  },
  {
   "name" : "_ZN4aidl7android8hardware5radio7network22BpRadioNetworkResponse36setAllowedNetworkTypesBitmapResponseERKNS2_17RadioResponseInfoE"
  },
  {
   "name" : "_ZN4aidl7android8hardware5radio7network22BpRadioNetworkResponse37setNetworkSelectionModeManualResponseERKNS2_17RadioResponseInfoE"
  },
  {
   "name" : "_ZN4aidl7android8hardware5radio7network22BpRadioNetworkResponse38supplyNetworkDepersonalizationResponseERKNS2_17RadioResponseInfoEi"
  },
  {
   "name" : "_ZN4aidl7android8hardware5radio7network22BpRadioNetworkResponse40setLinkCapacityReportingCriteriaResponseERKNS2_17RadioResponseInfoE"
  },
  {
   "name" : "_ZN4aidl7android8hardware5radio7network22BpRadioNetworkResponse40setNetworkSelectionModeAutomaticResponseERKNS2_17RadioResponseInfoE"
  },
  {
   "name" : "_ZN4aidl7android8hardware5radio7network22BpRadioNetworkResponse42setSignalStrengthReportingCriteriaResponseERKNS2_17RadioResponseInfoE"
  },
  {
   "name" : "_ZN4aidl7android8hardware5radio7network22BpRadioNetworkResponseC1ERKN3ndk10SpAIBinderE"
  },
  {
   "name" : "_ZN4aidl7android8hardware5radio7network22BpRadioNetworkResponseC2ERKN3ndk10SpAIBinderE"
  },
  {
   "name" : "_ZN4aidl7android8hardware5radio7network22BpRadioNetworkResponseD0Ev"
  },
  {
   "name" : "_ZN4aidl7android8hardware5radio7network22BpRadioNetworkResponseD1Ev"
  },
  {
   "name" : "_ZN4aidl7android8hardware5radio7network22BpRadioNetworkResponseD2Ev"
  },
  {
   "name" : "_ZN4aidl7android8hardware5radio7network22EutranRegistrationInfo14readFromParcelEPK7AParcel"
  },
  {
   "name" : "_ZN4aidl7android8hardware5radio7network23BarringTypeSpecificInfo14readFromParcelEPK7AParcel"
  },
  {
   "name" : "_ZN4aidl7android8hardware5radio7network23CellInfoRatSpecificInfo14readFromParcelEPK7AParcel"
  },
  {
   "name" : "_ZN4aidl7android8hardware5radio7network23IRadioNetworkIndication10fromBinderERKN3ndk10SpAIBinderE"
  },
  {
   "name" : "_ZN4aidl7android8hardware5radio7network23IRadioNetworkIndication13writeToParcelEP7AParcelRKNSt3__110shared_ptrIS4_EE"
  },
  {
   "name" : "_ZN4aidl7android8hardware5radio7network23IRadioNetworkIndication14getDefaultImplEv"
  },
  {
   "name" : "_ZN4aidl7android8hardware5radio7network23IRadioNetworkIndication14readFromParcelEPK7AParcelPNSt3__110shared_ptrIS4_EE"
  },
  {
   "name" : "_ZN4aidl7android8hardware5radio7network23IRadioNetworkIndication14setDefaultImplERKNSt3__110shared_ptrIS4_EE"
  },
  {
   "name" : "_ZN4aidl7android8hardware5radio7network23IRadioNetworkIndicationC2Ev"
  },
  {
   "name" : "_ZN4aidl7android8hardware5radio7network23IRadioNetworkIndicationD0Ev"
  },
  {
   "name" : "_ZN4aidl7android8hardware5radio7network23IRadioNetworkIndicationD1Ev"
  },
  {
   "name" : "_ZN4aidl7android8hardware5radio7network23IRadioNetworkIndicationD2Ev"
  },
  {
   "name" : "_ZN4aidl7android8hardware5radio7network24BnRadioNetworkIndication12createBinderEv"
  },
  {
   "name" : "_ZN4aidl7android8hardware5radio7network24BnRadioNetworkIndication16getInterfaceHashEPNSt3__112basic_stringIcNS5_11char_traitsIcEENS5_9allocatorIcEEEE"
  },
  {
   "name" : "_ZN4aidl7android8hardware5radio7network24BnRadioNetworkIndication19getInterfaceVersionEPi"
  },
  {
   "name" : "_ZN4aidl7android8hardware5radio7network24BnRadioNetworkIndicationC2Ev"
  },
  {
   "name" : "_ZN4aidl7android8hardware5radio7network24BnRadioNetworkIndicationD0Ev"
  },
  {
   "name" : "_ZN4aidl7android8hardware5radio7network24BnRadioNetworkIndicationD1Ev"
  },
  {
   "name" : "_ZN4aidl7android8hardware5radio7network24BnRadioNetworkIndicationD2Ev"
  },
  {
   "name" : "_ZN4aidl7android8hardware5radio7network24BpRadioNetworkIndication12cellInfoListENS2_19RadioIndicationTypeERKNSt3__16vectorINS3_8CellInfoENS6_9allocatorIS8_EEEE"
  },
  {
   "name" : "_ZN4aidl7android8hardware5radio7network24BpRadioNetworkIndication13suppSvcNotifyENS2_19RadioIndicationTypeERKNS3_19SuppSvcNotificationE"
  },
  {
   "name" : "_ZN4aidl7android8hardware5radio7network24BpRadioNetworkIndication14cdmaPrlChangedENS2_19RadioIndicationTypeEi"
  },
  {
   "name" : "_ZN4aidl7android8hardware5radio7network24BpRadioNetworkIndication16getInterfaceHashEPNSt3__112basic_stringIcNS5_11char_traitsIcEENS5_9allocatorIcEEEE"
  },
  {
   "name" : "_ZN4aidl7android8hardware5radio7network24BpRadioNetworkIndication16nitzTimeReceivedENS2_19RadioIndicationTypeERKNSt3__112basic_stringIcNS6_11char_traitsIcEENS6_9allocatorIcEEEExx"
  },
  {
   "name" : "_ZN4aidl7android8hardware5radio7network24BpRadioNetworkIndication17networkScanResultENS2_19RadioIndicationTypeERKNS3_17NetworkScanResultE"
  },
  {
   "name" : "_ZN4aidl7android8hardware5radio7network24BpRadioNetworkIndication18barringInfoChangedENS2_19RadioIndicationTypeERKNS3_12CellIdentityERKNSt3__16vectorINS3_11BarringInfoENS9_9allocatorISB_EEEE"
  },
  {
   "name" : "_ZN4aidl7android8hardware5radio7network24BpRadioNetworkIndication18registrationFailedENS2_19RadioIndicationTypeERKNS3_12CellIdentityERKNSt3__112basic_stringIcNS9_11char_traitsIcEENS9_9allocatorIcEEEEiii"
  },
  {
   "name" : "_ZN4aidl7android8hardware5radio7network24BpRadioNetworkIndication19getInterfaceVersionEPi"
  },
  {
   "name" : "_ZN4aidl7android8hardware5radio7network24BpRadioNetworkIndication19networkStateChangedENS2_19RadioIndicationTypeE"
  },
  {
   "name" : "_ZN4aidl7android8hardware5radio7network24BpRadioNetworkIndication21currentSignalStrengthENS2_19RadioIndicationTypeERKNS3_14SignalStrengthE"
  },
  {
   "name" : "_ZN4aidl7android8hardware5radio7network24BpRadioNetworkIndication21voiceRadioTechChangedENS2_19RadioIndicationTypeENS2_15RadioTechnologyE"
  },
  {
   "name" : "_ZN4aidl7android8hardware5radio7network24BpRadioNetworkIndication22imsNetworkStateChangedENS2_19RadioIndicationTypeE"
  },
  {
   "name" : "_ZN4aidl7android8hardware5radio7network24BpRadioNetworkIndication22restrictedStateChangedENS2_19RadioIndicationTypeENS3_20PhoneRestrictedStateE"
  },
  {
   "name" : "_ZN4aidl7android8hardware5radio7network24BpRadioNetworkIndication27currentLinkCapacityEstimateENS2_19RadioIndicationTypeERKNS3_20LinkCapacityEstimateE"
  },
  {
   "name" : "_ZN4aidl7android8hardware5radio7network24BpRadioNetworkIndication29currentPhysicalChannelConfigsENS2_19RadioIndicationTypeERKNSt3__16vectorINS3_21PhysicalChannelConfigENS6_9allocatorIS8_EEEE"
  },
  {
   "name" : "_ZN4aidl7android8hardware5radio7network24BpRadioNetworkIndicationC1ERKN3ndk10SpAIBinderE"
  },
  {
   "name" : "_ZN4aidl7android8hardware5radio7network24BpRadioNetworkIndicationC2ERKN3ndk10SpAIBinderE"
  },
  {
   "name" : "_ZN4aidl7android8hardware5radio7network24BpRadioNetworkIndicationD0Ev"
  },
  {
   "name" : "_ZN4aidl7android8hardware5radio7network24BpRadioNetworkIndicationD1Ev"
  },
  {
   "name" : "_ZN4aidl7android8hardware5radio7network24BpRadioNetworkIndicationD2Ev"
  },
  {
   "name" : "_ZN4aidl7android8hardware5radio7network24Cdma2000RegistrationInfo14readFromParcelEPK7AParcel"
  },
  {
   "name" : "_ZN4aidl7android8hardware5radio7network25ClosedSubscriberGroupInfo14readFromParcelEPK7AParcel"
  },
  {
   "name" : "_ZN4aidl7android8hardware5radio7network25PhysicalChannelConfigBand14readFromParcelEPK7AParcel"
  },
  {
   "name" : "_ZN4aidl7android8hardware5radio7network25RadioAccessSpecifierBands14readFromParcelEPK7AParcel"
  },
  {
   "name" : "_ZN4aidl7android8hardware5radio7network28AccessTechnologySpecificInfo14readFromParcelEPK7AParcel"
  },
  {
   "name" : "_ZN4aidl7android8hardware5radio7network28IRadioNetworkResponseDefault16getInterfaceHashEPNSt3__112basic_stringIcNS5_11char_traitsIcEENS5_9allocatorIcEEEE"
  },
  {
   "name" : "_ZN4aidl7android8hardware5radio7network28IRadioNetworkResponseDefault18acknowledgeRequestEi"
  },
  {
   "name" : "_ZN4aidl7android8hardware5radio7network28IRadioNetworkResponseDefault19getInterfaceVersionEPi"
  },
  {
   "name" : "_ZN4aidl7android8hardware5radio7network28IRadioNetworkResponseDefault19getOperatorResponseERKNS2_17RadioResponseInfoERKNSt3__112basic_stringIcNS8_11char_traitsIcEENS8_9allocatorIcEEEESG_SG_"
  },
  {
   "name" : "_ZN4aidl7android8hardware5radio7network28IRadioNetworkResponseDefault19setBandModeResponseERKNS2_17RadioResponseInfoE"
  },
  {
   "name" : "_ZN4aidl7android8hardware5radio7network28IRadioNetworkResponseDefault22getBarringInfoResponseERKNS2_17RadioResponseInfoERKNS3_12CellIdentityERKNSt3__16vectorINS3_11BarringInfoENSB_9allocatorISD_EEEE"
  },
  {
   "name" : "_ZN4aidl7android8hardware5radio7network28IRadioNetworkResponseDefault23getCellInfoListResponseERKNS2_17RadioResponseInfoERKNSt3__16vectorINS3_8CellInfoENS8_9allocatorISA_EEEE"
  },
  {
   "name" : "_ZN4aidl7android8hardware5radio7network28IRadioNetworkResponseDefault23getUsageSettingResponseERKNS2_17RadioResponseInfoENS3_12UsageSettingE"
  },
  {
   "name" : "_ZN4aidl7android8hardware5radio7network28IRadioNetworkResponseDefault23setUsageSettingResponseERKNS2_17RadioResponseInfoE"
  },
  {
   "name" : "_ZN4aidl7android8hardware5radio7network28IRadioNetworkResponseDefault23stopNetworkScanResponseERKNS2_17RadioResponseInfoE"
  },
  {
   "name" : "_ZN4aidl7android8hardware5radio7network28IRadioNetworkResponseDefault24startNetworkScanResponseERKNS2_17RadioResponseInfoE"
  },
  {
   "name" : "_ZN4aidl7android8hardware5radio7network28IRadioNetworkResponseDefault25getSignalStrengthResponseERKNS2_17RadioResponseInfoERKNS3_14SignalStrengthE"
  },
  {
   "name" : "_ZN4aidl7android8hardware5radio7network28IRadioNetworkResponseDefault26setBarringPasswordResponseERKNS2_17RadioResponseInfoE"
  },
  {
   "name" : "_ZN4aidl7android8hardware5radio7network28IRadioNetworkResponseDefault26setLocationUpdatesResponseERKNS2_17RadioResponseInfoE"
  },
  {
   "name" : "_ZN4aidl7android8hardware5radio7network28IRadioNetworkResponseDefault27setCellInfoListRateResponseERKNS2_17RadioResponseInfoE"
  },
  {
   "name" : "_ZN4aidl7android8hardware5radio7network28IRadioNetworkResponseDefault27setIndicationFilterResponseERKNS2_17RadioResponseInfoE"
  },
  {
   "name" : "_ZN4aidl7android8hardware5radio7network28IRadioNetworkResponseDefault28getAvailableNetworksResponseERKNS2_17RadioResponseInfoERKNSt3__16vectorINS3_12OperatorInfoENS8_9allocatorISA_EEEE"
  },
  {
   "name" : "_ZN4aidl7android8hardware5radio7network28IRadioNetworkResponseDefault29getAvailableBandModesResponseERKNS2_17RadioResponseInfoERKNSt3__16vectorINS3_13RadioBandModeENS8_9allocatorISA_EEEE"
  },
  {
   "name" : "_ZN4aidl7android8hardware5radio7network28IRadioNetworkResponseDefault31getImsRegistrationStateResponseERKNS2_17RadioResponseInfoEbNS2_21RadioTechnologyFamilyE"
  },
  {
   "name" : "_ZN4aidl7android8hardware5radio7network28IRadioNetworkResponseDefault31getNetworkSelectionModeResponseERKNS2_17RadioResponseInfoEb"
  },
  {
   "name" : "_ZN4aidl7android8hardware5radio7network28IRadioNetworkResponseDefault31getVoiceRadioTechnologyResponseERKNS2_17RadioResponseInfoENS2_15RadioTechnologyE"
  },
  {
   "name" : "_ZN4aidl7android8hardware5radio7network28IRadioNetworkResponseDefault32getCdmaRoamingPreferenceResponseERKNS2_17RadioResponseInfoENS3_15CdmaRoamingTypeE"
  },
  {
   "name" : "_ZN4aidl7android8hardware5radio7network28IRadioNetworkResponseDefault32getDataRegistrationStateResponseERKNS2_17RadioResponseInfoERKNS3_14RegStateResultE"
  },
  {
   "name" : "_ZN4aidl7android8hardware5radio7network28IRadioNetworkResponseDefault32setCdmaRoamingPreferenceResponseERKNS2_17RadioResponseInfoE"
  },
  {
   "name" : "_ZN4aidl7android8hardware5radio7network28IRadioNetworkResponseDefault33getVoiceRegistrationStateResponseERKNS2_17RadioResponseInfoERKNS3_14RegStateResultE"
  },
  {
   "name" : "_ZN4aidl7android8hardware5radio7network28IRadioNetworkResponseDefault34getSystemSelectionChannelsResponseERKNS2_17RadioResponseInfoERKNSt3__16vectorINS3_20RadioAccessSpecifierENS8_9allocatorISA_EEEE"
  },
  {
   "name" : "_ZN4aidl7android8hardware5radio7network28IRadioNetworkResponseDefault34setNrDualConnectivityStateResponseERKNS2_17RadioResponseInfoE"
  },
  {
   "name" : "_ZN4aidl7android8hardware5radio7network28IRadioNetworkResponseDefault34setSystemSelectionChannelsResponseERKNS2_17RadioResponseInfoE"
  },
  {
   "name" : "_ZN4aidl7android8hardware5radio7network28IRadioNetworkResponseDefault35isNrDualConnectivityEnabledResponseERKNS2_17RadioResponseInfoEb"
  },
  {
   "name" : "_ZN4aidl7android8hardware5radio7network28IRadioNetworkResponseDefault35setSuppServiceNotificationsResponseERKNS2_17RadioResponseInfoE"
  },
  {
   "name" : "_ZN4aidl7android8hardware5radio7network28IRadioNetworkResponseDefault36getAllowedNetworkTypesBitmapResponseERKNS2_17RadioResponseInfoEi"
  },
  {
   "name" : "_ZN4aidl7android8hardware5radio7network28IRadioNetworkResponseDefault36setAllowedNetworkTypesBitmapResponseERKNS2_17RadioResponseInfoE"
  },
  {
   "name" : "_ZN4aidl7android8hardware5radio7network28IRadioNetworkResponseDefault37setNetworkSelectionModeManualResponseERKNS2_17RadioResponseInfoE"
  },
  {
   "name" : "_ZN4aidl7android8hardware5radio7network28IRadioNetworkResponseDefault38supplyNetworkDepersonalizationResponseERKNS2_17RadioResponseInfoEi"
  },
  {
   "name" : "_ZN4aidl7android8hardware5radio7network28IRadioNetworkResponseDefault40setLinkCapacityReportingCriteriaResponseERKNS2_17RadioResponseInfoE"
  },
  {
   "name" : "_ZN4aidl7android8hardware5radio7network28IRadioNetworkResponseDefault40setNetworkSelectionModeAutomaticResponseERKNS2_17RadioResponseInfoE"
  },
  {
   "name" : "_ZN4aidl7android8hardware5radio7network28IRadioNetworkResponseDefault42setSignalStrengthReportingCriteriaResponseERKNS2_17RadioResponseInfoE"
  },
  {
   "name" : "_ZN4aidl7android8hardware5radio7network28IRadioNetworkResponseDefault8asBinderEv"
  },
  {
   "name" : "_ZN4aidl7android8hardware5radio7network28IRadioNetworkResponseDefault8isRemoteEv"
  },
  {
   "name" : "_ZN4aidl7android8hardware5radio7network30IRadioNetworkIndicationDefault12cellInfoListENS2_19RadioIndicationTypeERKNSt3__16vectorINS3_8CellInfoENS6_9allocatorIS8_EEEE"
  },
  {
   "name" : "_ZN4aidl7android8hardware5radio7network30IRadioNetworkIndicationDefault13suppSvcNotifyENS2_19RadioIndicationTypeERKNS3_19SuppSvcNotificationE"
  },
  {
   "name" : "_ZN4aidl7android8hardware5radio7network30IRadioNetworkIndicationDefault14cdmaPrlChangedENS2_19RadioIndicationTypeEi"
  },
  {
   "name" : "_ZN4aidl7android8hardware5radio7network30IRadioNetworkIndicationDefault16getInterfaceHashEPNSt3__112basic_stringIcNS5_11char_traitsIcEENS5_9allocatorIcEEEE"
  },
  {
   "name" : "_ZN4aidl7android8hardware5radio7network30IRadioNetworkIndicationDefault16nitzTimeReceivedENS2_19RadioIndicationTypeERKNSt3__112basic_stringIcNS6_11char_traitsIcEENS6_9allocatorIcEEEExx"
  },
  {
   "name" : "_ZN4aidl7android8hardware5radio7network30IRadioNetworkIndicationDefault17networkScanResultENS2_19RadioIndicationTypeERKNS3_17NetworkScanResultE"
  },
  {
   "name" : "_ZN4aidl7android8hardware5radio7network30IRadioNetworkIndicationDefault18barringInfoChangedENS2_19RadioIndicationTypeERKNS3_12CellIdentityERKNSt3__16vectorINS3_11BarringInfoENS9_9allocatorISB_EEEE"
  },
  {
   "name" : "_ZN4aidl7android8hardware5radio7network30IRadioNetworkIndicationDefault18registrationFailedENS2_19RadioIndicationTypeERKNS3_12CellIdentityERKNSt3__112basic_stringIcNS9_11char_traitsIcEENS9_9allocatorIcEEEEiii"
  },
  {
   "name" : "_ZN4aidl7android8hardware5radio7network30IRadioNetworkIndicationDefault19getInterfaceVersionEPi"
  },
  {
   "name" : "_ZN4aidl7android8hardware5radio7network30IRadioNetworkIndicationDefault19networkStateChangedENS2_19RadioIndicationTypeE"
  },
  {
   "name" : "_ZN4aidl7android8hardware5radio7network30IRadioNetworkIndicationDefault21currentSignalStrengthENS2_19RadioIndicationTypeERKNS3_14SignalStrengthE"
  },
  {
   "name" : "_ZN4aidl7android8hardware5radio7network30IRadioNetworkIndicationDefault21voiceRadioTechChangedENS2_19RadioIndicationTypeENS2_15RadioTechnologyE"
  },
  {
   "name" : "_ZN4aidl7android8hardware5radio7network30IRadioNetworkIndicationDefault22imsNetworkStateChangedENS2_19RadioIndicationTypeE"
  },
  {
   "name" : "_ZN4aidl7android8hardware5radio7network30IRadioNetworkIndicationDefault22restrictedStateChangedENS2_19RadioIndicationTypeENS3_20PhoneRestrictedStateE"
  },
  {
   "name" : "_ZN4aidl7android8hardware5radio7network30IRadioNetworkIndicationDefault27currentLinkCapacityEstimateENS2_19RadioIndicationTypeERKNS3_20LinkCapacityEstimateE"
  },
  {
   "name" : "_ZN4aidl7android8hardware5radio7network30IRadioNetworkIndicationDefault29currentPhysicalChannelConfigsENS2_19RadioIndicationTypeERKNSt3__16vectorINS3_21PhysicalChannelConfigENS6_9allocatorIS8_EEEE"
  },
  {
   "name" : "_ZN4aidl7android8hardware5radio7network30IRadioNetworkIndicationDefault8asBinderEv"
  },
  {
   "name" : "_ZN4aidl7android8hardware5radio7network30IRadioNetworkIndicationDefault8isRemoteEv"
  },
  {
   "name" : "_ZN4aidl7android8hardware5radio7network8CellInfo14readFromParcelEPK7AParcel"
  },
  {
   "name" : "_ZNK4aidl7android8hardware5radio7network10CellInfoNr13writeToParcelEP7AParcel"
  },
  {
   "name" : "_ZNK4aidl7android8hardware5radio7network10NrVopsInfo13writeToParcelEP7AParcel"
  },
  {
   "name" : "_ZNK4aidl7android8hardware5radio7network11BarringInfo13writeToParcelEP7AParcel"
  },
  {
   "name" : "_ZNK4aidl7android8hardware5radio7network11CellInfoGsm13writeToParcelEP7AParcel"
  },
  {
   "name" : "_ZNK4aidl7android8hardware5radio7network11CellInfoLte13writeToParcelEP7AParcel"
  },
  {
   "name" : "_ZNK4aidl7android8hardware5radio7network11LceDataInfo13writeToParcelEP7AParcel"
  },
  {
   "name" : "_ZNK4aidl7android8hardware5radio7network11LteVopsInfo13writeToParcelEP7AParcel"
  },
  {
   "name" : "_ZNK4aidl7android8hardware5radio7network12CellIdentity13writeToParcelEP7AParcel"
  },
  {
   "name" : "_ZNK4aidl7android8hardware5radio7network12CellInfoCdma13writeToParcelEP7AParcel"
  },
  {
   "name" : "_ZNK4aidl7android8hardware5radio7network12NrIndicators13writeToParcelEP7AParcel"
  },
  {
   "name" : "_ZNK4aidl7android8hardware5radio7network12OperatorInfo13writeToParcelEP7AParcel"
  },
  {
   "name" : "_ZNK4aidl7android8hardware5radio7network13CellInfoWcdma13writeToParcelEP7AParcel"
  },
  {
   "name" : "_ZNK4aidl7android8hardware5radio7network14CellIdentityNr13writeToParcelEP7AParcel"
  },
  {
   "name" : "_ZNK4aidl7android8hardware5radio7network14RegStateResult13writeToParcelEP7AParcel"
  },
  {
   "name" : "_ZNK4aidl7android8hardware5radio7network14SignalStrength13writeToParcelEP7AParcel"
  },
  {
   "name" : "_ZNK4aidl7android8hardware5radio7network15CellIdentityGsm13writeToParcelEP7AParcel"
  },
  {
   "name" : "_ZNK4aidl7android8hardware5radio7network15CellIdentityLte13writeToParcelEP7AParcel"
  },
  {
   "name" : "_ZNK4aidl7android8hardware5radio7network15CellInfoTdscdma13writeToParcelEP7AParcel"
  },
  {
   "name" : "_ZNK4aidl7android8hardware5radio7network16CellIdentityCdma13writeToParcelEP7AParcel"
  },
  {
   "name" : "_ZNK4aidl7android8hardware5radio7network16NrSignalStrength13writeToParcelEP7AParcel"
  },
  {
   "name" : "_ZNK4aidl7android8hardware5radio7network17CellIdentityWcdma13writeToParcelEP7AParcel"
  },
  {
   "name" : "_ZNK4aidl7android8hardware5radio7network17GsmSignalStrength13writeToParcelEP7AParcel"
  },
  {
   "name" : "_ZNK4aidl7android8hardware5radio7network17LteSignalStrength13writeToParcelEP7AParcel"
  },
  {
   "name" : "_ZNK4aidl7android8hardware5radio7network17NetworkScanResult13writeToParcelEP7AParcel"
  },
  {
   "name" : "_ZNK4aidl7android8hardware5radio7network18CdmaSignalStrength13writeToParcelEP7AParcel"
  },
  {
   "name" : "_ZNK4aidl7android8hardware5radio7network18EvdoSignalStrength13writeToParcelEP7AParcel"
  },
  {
   "name" : "_ZNK4aidl7android8hardware5radio7network18NetworkScanRequest13writeToParcelEP7AParcel"
  },
  {
   "name" : "_ZNK4aidl7android8hardware5radio7network19CellIdentityTdscdma13writeToParcelEP7AParcel"
  },
  {
   "name" : "_ZNK4aidl7android8hardware5radio7network19SignalThresholdInfo13writeToParcelEP7AParcel"
  },
  {
   "name" : "_ZNK4aidl7android8hardware5radio7network19SuppSvcNotification13writeToParcelEP7AParcel"
  },
  {
   "name" : "_ZNK4aidl7android8hardware5radio7network19WcdmaSignalStrength13writeToParcelEP7AParcel"
  },
  {
   "name" : "_ZNK4aidl7android8hardware5radio7network20LinkCapacityEstimate13writeToParcelEP7AParcel"
  },
  {
   "name" : "_ZNK4aidl7android8hardware5radio7network20RadioAccessSpecifier13writeToParcelEP7AParcel"
  },
  {
   "name" : "_ZNK4aidl7android8hardware5radio7network21PhysicalChannelConfig13writeToParcelEP7AParcel"
  },
  {
   "name" : "_ZNK4aidl7android8hardware5radio7network21TdscdmaSignalStrength13writeToParcelEP7AParcel"
  },
  {
   "name" : "_ZNK4aidl7android8hardware5radio7network22EutranRegistrationInfo13writeToParcelEP7AParcel"
  },
  {
   "name" : "_ZNK4aidl7android8hardware5radio7network23BarringTypeSpecificInfo13writeToParcelEP7AParcel"
  },
  {
   "name" : "_ZNK4aidl7android8hardware5radio7network23CellInfoRatSpecificInfo13writeToParcelEP7AParcel"
  },
  {
   "name" : "_ZNK4aidl7android8hardware5radio7network24Cdma2000RegistrationInfo13writeToParcelEP7AParcel"
  },
  {
   "name" : "_ZNK4aidl7android8hardware5radio7network25ClosedSubscriberGroupInfo13writeToParcelEP7AParcel"
  },
  {
   "name" : "_ZNK4aidl7android8hardware5radio7network25PhysicalChannelConfigBand13writeToParcelEP7AParcel"
  },
  {
   "name" : "_ZNK4aidl7android8hardware5radio7network25RadioAccessSpecifierBands13writeToParcelEP7AParcel"
  },
  {
   "name" : "_ZNK4aidl7android8hardware5radio7network28AccessTechnologySpecificInfo13writeToParcelEP7AParcel"
  },
  {
   "name" : "_ZNK4aidl7android8hardware5radio7network8CellInfo13writeToParcelEP7AParcel"
  },
  {
   "binding" : "weak",
   "name" : "_ZNSt3__110shared_ptrIN4aidl7android8hardware5radio7network13IRadioNetworkEED2Ev"
  },
  {
   "binding" : "weak",
   "name" : "_ZNSt3__110shared_ptrIN4aidl7android8hardware5radio7network21IRadioNetworkResponseEED2Ev"
  },
  {
   "binding" : "weak",
   "name" : "_ZNSt3__110shared_ptrIN4aidl7android8hardware5radio7network23IRadioNetworkIndicationEED2Ev"
  },
  {
   "binding" : "weak",
   "name" : "_ZNSt3__120__shared_ptr_pointerIPN3ndk13SharedRefBaseENS_14default_deleteIS2_EENS_9allocatorIS2_EEE16__on_zero_sharedEv"
  },
  {
   "binding" : "weak",
   "name" : "_ZNSt3__120__shared_ptr_pointerIPN3ndk13SharedRefBaseENS_14default_deleteIS2_EENS_9allocatorIS2_EEE21__on_zero_shared_weakEv"
  },
  {
   "binding" : "weak",
   "name" : "_ZNSt3__16vectorIN4aidl7android8hardware5radio7network11BarringInfoENS_9allocatorIS6_EEE8__appendEj"
  },
  {
   "binding" : "weak",
   "name" : "_ZNSt3__16vectorIN4aidl7android8hardware5radio7network12OperatorInfoENS_9allocatorIS6_EEE8__appendEj"
  },
  {
   "binding" : "weak",
   "name" : "_ZNSt3__16vectorIN4aidl7android8hardware5radio7network19SignalThresholdInfoENS_9allocatorIS6_EEE8__appendEj"
  },
  {
   "binding" : "weak",
   "name" : "_ZNSt3__16vectorIN4aidl7android8hardware5radio7network20RadioAccessSpecifierENS_9allocatorIS6_EEE8__appendEj"
  },
  {
   "binding" : "weak",
   "name" : "_ZNSt3__16vectorIN4aidl7android8hardware5radio7network21PhysicalChannelConfigENS_9allocatorIS6_EEE8__appendEj"
  },
  {
   "binding" : "weak",
   "name" : "_ZNSt3__16vectorIN4aidl7android8hardware5radio7network8CellInfoENS_9allocatorIS6_EEE8__appendEj"
  },
  {
   "binding" : "weak",
   "name" : "_ZNSt3__16vectorINS_12basic_stringIcNS_11char_traitsIcEENS_9allocatorIcEEEENS4_IS6_EEE8__appendEj"
  },
  {
   "binding" : "weak",
   "name" : "_ZNSt3__16vectorIaNS_9allocatorIaEEE8__appendEj"
  },
  {
   "binding" : "weak",
   "name" : "_ZNSt3__16vectorIiNS_9allocatorIiEEE8__appendEj"
  }
 ],
 "elf_objects" :
 [
  {
   "binding" : "weak",
   "name" : "_ZGVN4aidl7android8hardware5radio7network13IRadioNetwork4hashE"
  },
  {
   "binding" : "weak",
   "name" : "_ZGVN4aidl7android8hardware5radio7network21IRadioNetworkResponse4hashE"
  },
  {
   "binding" : "weak",
   "name" : "_ZGVN4aidl7android8hardware5radio7network23IRadioNetworkIndication4hashE"
  },
  {
   "name" : "_ZN4aidl7android8hardware5radio7network10CellInfoNr10descriptorE"
  },
  {
   "name" : "_ZN4aidl7android8hardware5radio7network10NrVopsInfo10descriptorE"
  },
  {
   "name" : "_ZN4aidl7android8hardware5radio7network11BarringInfo10descriptorE"
  },
  {
   "name" : "_ZN4aidl7android8hardware5radio7network11CellInfoGsm10descriptorE"
  },
  {
   "name" : "_ZN4aidl7android8hardware5radio7network11CellInfoLte10descriptorE"
  },
  {
   "name" : "_ZN4aidl7android8hardware5radio7network11LceDataInfo10descriptorE"
  },
  {
   "name" : "_ZN4aidl7android8hardware5radio7network11LteVopsInfo10descriptorE"
  },
  {
   "name" : "_ZN4aidl7android8hardware5radio7network12CellIdentity10descriptorE"
  },
  {
   "name" : "_ZN4aidl7android8hardware5radio7network12CellInfoCdma10descriptorE"
  },
  {
   "name" : "_ZN4aidl7android8hardware5radio7network12NrIndicators10descriptorE"
  },
  {
   "name" : "_ZN4aidl7android8hardware5radio7network12OperatorInfo10descriptorE"
  },
  {
   "name" : "_ZN4aidl7android8hardware5radio7network13CellInfoWcdma10descriptorE"
  },
  {
   "name" : "_ZN4aidl7android8hardware5radio7network13IRadioNetwork10descriptorE"
  },
  {
   "name" : "_ZN4aidl7android8hardware5radio7network13IRadioNetwork12default_implE"
  },
  {
   "binding" : "weak",
   "name" : "_ZN4aidl7android8hardware5radio7network13IRadioNetwork4hashE"
  },
  {
   "name" : "_ZN4aidl7android8hardware5radio7network14CellIdentityNr10descriptorE"
  },
  {
   "name" : "_ZN4aidl7android8hardware5radio7network14RegStateResult10descriptorE"
  },
  {
   "name" : "_ZN4aidl7android8hardware5radio7network14SignalStrength10descriptorE"
  },
  {
   "name" : "_ZN4aidl7android8hardware5radio7network15CellIdentityGsm10descriptorE"
  },
  {
   "name" : "_ZN4aidl7android8hardware5radio7network15CellIdentityLte10descriptorE"
  },
  {
   "name" : "_ZN4aidl7android8hardware5radio7network15CellInfoTdscdma10descriptorE"
  },
  {
   "name" : "_ZN4aidl7android8hardware5radio7network16CellIdentityCdma10descriptorE"
  },
  {
   "name" : "_ZN4aidl7android8hardware5radio7network16NrSignalStrength10descriptorE"
  },
  {
   "name" : "_ZN4aidl7android8hardware5radio7network17CellIdentityWcdma10descriptorE"
  },
  {
   "name" : "_ZN4aidl7android8hardware5radio7network17GsmSignalStrength10descriptorE"
  },
  {
   "name" : "_ZN4aidl7android8hardware5radio7network17LteSignalStrength10descriptorE"
  },
  {
   "name" : "_ZN4aidl7android8hardware5radio7network17NetworkScanResult10descriptorE"
  },
  {
   "name" : "_ZN4aidl7android8hardware5radio7network18CdmaSignalStrength10descriptorE"
  },
  {
   "name" : "_ZN4aidl7android8hardware5radio7network18EvdoSignalStrength10descriptorE"
  },
  {
   "name" : "_ZN4aidl7android8hardware5radio7network18NetworkScanRequest10descriptorE"
  },
  {
   "name" : "_ZN4aidl7android8hardware5radio7network19CellIdentityTdscdma10descriptorE"
  },
  {
   "name" : "_ZN4aidl7android8hardware5radio7network19SignalThresholdInfo10descriptorE"
  },
  {
   "name" : "_ZN4aidl7android8hardware5radio7network19SuppSvcNotification10descriptorE"
  },
  {
   "name" : "_ZN4aidl7android8hardware5radio7network19WcdmaSignalStrength10descriptorE"
  },
  {
   "name" : "_ZN4aidl7android8hardware5radio7network20LinkCapacityEstimate10descriptorE"
  },
  {
   "name" : "_ZN4aidl7android8hardware5radio7network20RadioAccessSpecifier10descriptorE"
  },
  {
   "name" : "_ZN4aidl7android8hardware5radio7network21IRadioNetworkResponse10descriptorE"
  },
  {
   "name" : "_ZN4aidl7android8hardware5radio7network21IRadioNetworkResponse12default_implE"
  },
  {
   "binding" : "weak",
   "name" : "_ZN4aidl7android8hardware5radio7network21IRadioNetworkResponse4hashE"
  },
  {
   "name" : "_ZN4aidl7android8hardware5radio7network21PhysicalChannelConfig10descriptorE"
  },
  {
   "name" : "_ZN4aidl7android8hardware5radio7network21TdscdmaSignalStrength10descriptorE"
  },
  {
   "name" : "_ZN4aidl7android8hardware5radio7network22EutranRegistrationInfo10descriptorE"
  },
  {
   "name" : "_ZN4aidl7android8hardware5radio7network23BarringTypeSpecificInfo10descriptorE"
  },
  {
   "name" : "_ZN4aidl7android8hardware5radio7network23CellInfoRatSpecificInfo10descriptorE"
  },
  {
   "name" : "_ZN4aidl7android8hardware5radio7network23IRadioNetworkIndication10descriptorE"
  },
  {
   "name" : "_ZN4aidl7android8hardware5radio7network23IRadioNetworkIndication12default_implE"
  },
  {
   "binding" : "weak",
   "name" : "_ZN4aidl7android8hardware5radio7network23IRadioNetworkIndication4hashE"
  },
  {
   "name" : "_ZN4aidl7android8hardware5radio7network24Cdma2000RegistrationInfo10descriptorE"
  },
  {
   "name" : "_ZN4aidl7android8hardware5radio7network25ClosedSubscriberGroupInfo10descriptorE"
  },
  {
   "name" : "_ZN4aidl7android8hardware5radio7network25PhysicalChannelConfigBand10descriptorE"
  },
  {
   "name" : "_ZN4aidl7android8hardware5radio7network25RadioAccessSpecifierBands10descriptorE"
  },
  {
   "name" : "_ZN4aidl7android8hardware5radio7network28AccessTechnologySpecificInfo10descriptorE"
  },
  {
   "name" : "_ZN4aidl7android8hardware5radio7network8CellInfo10descriptorE"
  },
  {
   "binding" : "weak",
   "name" : "_ZTVN3ndk12BnCInterfaceIN4aidl7android8hardware5radio7network13IRadioNetworkEEE"
  },
  {
   "binding" : "weak",
   "name" : "_ZTVN3ndk12BnCInterfaceIN4aidl7android8hardware5radio7network21IRadioNetworkResponseEEE"
  },
  {
   "binding" : "weak",
   "name" : "_ZTVN3ndk12BnCInterfaceIN4aidl7android8hardware5radio7network23IRadioNetworkIndicationEEE"
  },
  {
   "binding" : "weak",
   "name" : "_ZTVN3ndk12BpCInterfaceIN4aidl7android8hardware5radio7network13IRadioNetworkEEE"
  },
  {
   "binding" : "weak",
   "name" : "_ZTVN3ndk12BpCInterfaceIN4aidl7android8hardware5radio7network21IRadioNetworkResponseEEE"
  },
  {
   "binding" : "weak",
   "name" : "_ZTVN3ndk12BpCInterfaceIN4aidl7android8hardware5radio7network23IRadioNetworkIndicationEEE"
  },
  {
   "binding" : "weak",
   "name" : "_ZTVN3ndk13SharedRefBaseE"
  },
  {
   "name" : "_ZTVN4aidl7android8hardware5radio7network13IRadioNetworkE"
  },
  {
   "name" : "_ZTVN4aidl7android8hardware5radio7network14BnRadioNetworkE"
  },
  {
   "name" : "_ZTVN4aidl7android8hardware5radio7network14BpRadioNetworkE"
  },
  {
   "name" : "_ZTVN4aidl7android8hardware5radio7network20IRadioNetworkDefaultE"
  },
  {
   "name" : "_ZTVN4aidl7android8hardware5radio7network21IRadioNetworkResponseE"
  },
  {
   "name" : "_ZTVN4aidl7android8hardware5radio7network22BnRadioNetworkResponseE"
  },
  {
   "name" : "_ZTVN4aidl7android8hardware5radio7network22BpRadioNetworkResponseE"
  },
  {
   "name" : "_ZTVN4aidl7android8hardware5radio7network23IRadioNetworkIndicationE"
  },
  {
   "name" : "_ZTVN4aidl7android8hardware5radio7network24BnRadioNetworkIndicationE"
  },
  {
   "name" : "_ZTVN4aidl7android8hardware5radio7network24BpRadioNetworkIndicationE"
  },
  {
   "name" : "_ZTVN4aidl7android8hardware5radio7network28IRadioNetworkResponseDefaultE"
  },
  {
   "name" : "_ZTVN4aidl7android8hardware5radio7network30IRadioNetworkIndicationDefaultE"
  },
  {
   "binding" : "weak",
   "name" : "_ZTVNSt3__120__shared_ptr_pointerIPN3ndk13SharedRefBaseENS_14default_deleteIS2_EENS_9allocatorIS2_EEEE"
  }
 ],
 "enum_types" :
 [
  {
   "alignment" : 4,
   "enum_fields" :
   [
    {
     "enum_field_value" : 1,
     "name" : "FLAG_ONEWAY"
    }
   ],
   "linker_set_key" : "_ZTI12$FLAG_ONEWAY",
   "name" : "(unnamed enum at frameworks/native/libs/binder/ndk/include_ndk/android/binder_ibinder.h:43:1)",
   "referenced_type" : "_ZTI12$FLAG_ONEWAY",
   "self_type" : "_ZTI12$FLAG_ONEWAY",
   "size" : 4,
   "source_file" : "frameworks/native/libs/binder/ndk/include_ndk/android/binder_ibinder.h",
   "underlying_type" : "_ZTIj"
  },
  {
   "alignment" : 4,
   "enum_fields" :
   [
    {
     "enum_field_value" : 0,
     "name" : "EX_NONE"
    },
    {
     "enum_field_value" : -1,
     "name" : "EX_SECURITY"
    },
    {
     "enum_field_value" : -2,
     "name" : "EX_BAD_PARCELABLE"
    },
    {
     "enum_field_value" : -3,
     "name" : "EX_ILLEGAL_ARGUMENT"
    },
    {
     "enum_field_value" : -4,
     "name" : "EX_NULL_POINTER"
    },
    {
     "enum_field_value" : -5,
     "name" : "EX_ILLEGAL_STATE"
    },
    {
     "enum_field_value" : -6,
     "name" : "EX_NETWORK_MAIN_THREAD"
    },
    {
     "enum_field_value" : -7,
     "name" : "EX_UNSUPPORTED_OPERATION"
    },
    {
     "enum_field_value" : -8,
     "name" : "EX_SERVICE_SPECIFIC"
    },
    {
     "enum_field_value" : -9,
     "name" : "EX_PARCELABLE"
    },
    {
     "enum_field_value" : -129,
     "name" : "EX_TRANSACTION_FAILED"
    }
   ],
   "linker_set_key" : "_ZTI18$EX_BAD_PARCELABLE",
   "name" : "(unnamed enum at frameworks/native/libs/binder/ndk/include_ndk/android/binder_status.h:94:1)",
   "referenced_type" : "_ZTI18$EX_BAD_PARCELABLE",
   "self_type" : "_ZTI18$EX_BAD_PARCELABLE",
   "size" : 4,
   "source_file" : "frameworks/native/libs/binder/ndk/include_ndk/android/binder_status.h",
   "underlying_type" : "_ZTIi"
  },
  {
   "alignment" : 4,
   "enum_fields" :
   [
    {
     "enum_field_value" : 268435456,
     "name" : "FLAG_PRIVATE_LOCAL"
    }
   ],
   "linker_set_key" : "_ZTI19$FLAG_PRIVATE_LOCAL",
   "name" : "(unnamed enum at frameworks/native/libs/binder/ndk/include_platform/android/binder_stability.h:35:1)",
   "referenced_type" : "_ZTI19$FLAG_PRIVATE_LOCAL",
   "self_type" : "_ZTI19$FLAG_PRIVATE_LOCAL",
   "size" : 4,
   "source_file" : "frameworks/native/libs/binder/ndk/include_platform/android/binder_stability.h",
   "underlying_type" : "_ZTIj"
  },
  {
   "alignment" : 4,
   "enum_fields" :
   [
    {
     "enum_field_value" : 268435456,
     "name" : "FLAG_PRIVATE_VENDOR"
    }
   ],
   "linker_set_key" : "_ZTI20$FLAG_PRIVATE_VENDOR",
   "name" : "(unnamed enum at frameworks/native/libs/binder/ndk/include_platform/android/binder_stability.h:26:1)",
   "referenced_type" : "_ZTI20$FLAG_PRIVATE_VENDOR",
   "self_type" : "_ZTI20$FLAG_PRIVATE_VENDOR",
   "size" : 4,
   "source_file" : "frameworks/native/libs/binder/ndk/include_platform/android/binder_stability.h",
   "underlying_type" : "_ZTIj"
  },
  {
   "alignment" : 4,
   "enum_fields" :
   [
    {
     "enum_field_value" : 0,
     "name" : "STATUS_OK"
    },
    {
     "enum_field_value" : -2147483648,
     "name" : "STATUS_UNKNOWN_ERROR"
    },
    {
     "enum_field_value" : -12,
     "name" : "STATUS_NO_MEMORY"
    },
    {
     "enum_field_value" : -38,
     "name" : "STATUS_INVALID_OPERATION"
    },
    {
     "enum_field_value" : -22,
     "name" : "STATUS_BAD_VALUE"
    },
    {
     "enum_field_value" : -2147483647,
     "name" : "STATUS_BAD_TYPE"
    },
    {
     "enum_field_value" : -2,
     "name" : "STATUS_NAME_NOT_FOUND"
    },
    {
     "enum_field_value" : -1,
     "name" : "STATUS_PERMISSION_DENIED"
    },
    {
     "enum_field_value" : -19,
     "name" : "STATUS_NO_INIT"
    },
    {
     "enum_field_value" : -17,
     "name" : "STATUS_ALREADY_EXISTS"
    },
    {
     "enum_field_value" : -32,
     "name" : "STATUS_DEAD_OBJECT"
    },
    {
     "enum_field_value" : -2147483646,
     "name" : "STATUS_FAILED_TRANSACTION"
    },
    {
     "enum_field_value" : -75,
     "name" : "STATUS_BAD_INDEX"
    },
    {
     "enum_field_value" : -61,
     "name" : "STATUS_NOT_ENOUGH_DATA"
    },
    {
     "enum_field_value" : -11,
     "name" : "STATUS_WOULD_BLOCK"
    },
    {
     "enum_field_value" : -110,
     "name" : "STATUS_TIMED_OUT"
    },
    {
     "enum_field_value" : -74,
     "name" : "STATUS_UNKNOWN_TRANSACTION"
    },
    {
     "enum_field_value" : -2147483641,
     "name" : "STATUS_FDS_NOT_ALLOWED"
    },
    {
     "enum_field_value" : -2147483640,
     "name" : "STATUS_UNEXPECTED_NULL"
    }
   ],
   "linker_set_key" : "_ZTI22$STATUS_ALREADY_EXISTS",
   "name" : "(unnamed enum at frameworks/native/libs/binder/ndk/include_ndk/android/binder_status.h:60:1)",
   "referenced_type" : "_ZTI22$STATUS_ALREADY_EXISTS",
   "self_type" : "_ZTI22$STATUS_ALREADY_EXISTS",
   "size" : 4,
   "source_file" : "frameworks/native/libs/binder/ndk/include_ndk/android/binder_status.h",
   "underlying_type" : "_ZTIi"
  },
  {
   "alignment" : 4,
   "enum_fields" :
   [
    {
     "enum_field_value" : 1,
     "name" : "FIRST_CALL_TRANSACTION"
    },
    {
     "enum_field_value" : 16777215,
     "name" : "LAST_CALL_TRANSACTION"
    }
   ],
   "linker_set_key" : "_ZTI23$FIRST_CALL_TRANSACTION",
   "name" : "(unnamed enum at frameworks/native/libs/binder/ndk/include_ndk/android/binder_ibinder.h:58:1)",
   "referenced_type" : "_ZTI23$FIRST_CALL_TRANSACTION",
   "self_type" : "_ZTI23$FIRST_CALL_TRANSACTION",
   "size" : 4,
   "source_file" : "frameworks/native/libs/binder/ndk/include_ndk/android/binder_ibinder.h",
   "underlying_type" : "_ZTIj"
  },
  {
   "alignment" : 4,
   "enum_fields" :
   [
    {
     "enum_field_value" : 0,
     "name" : "ndk::STABILITY_LOCAL"
    },
    {
     "enum_field_value" : 1,
     "name" : "ndk::STABILITY_VINTF"
    }
   ],
   "linker_set_key" : "_ZTIN3ndk16$STABILITY_LOCALE",
   "name" : "ndk::(unnamed enum at frameworks/native/libs/binder/ndk/include_cpp/android/binder_parcelable_utils.h:34:1)",
   "referenced_type" : "_ZTIN3ndk16$STABILITY_LOCALE",
   "self_type" : "_ZTIN3ndk16$STABILITY_LOCALE",
   "size" : 4,
   "source_file" : "frameworks/native/libs/binder/ndk/include_cpp/android/binder_parcelable_utils.h",
   "underlying_type" : "_ZTIj"
  },
  {
   "alignment" : 4,
   "enum_fields" :
   [
    {
     "enum_field_value" : 0,
     "name" : "aidl::android::hardware::radio::RadioError::NONE"
    },
    {
     "enum_field_value" : 1,
     "name" : "aidl::android::hardware::radio::RadioError::RADIO_NOT_AVAILABLE"
    },
    {
     "enum_field_value" : 2,
     "name" : "aidl::android::hardware::radio::RadioError::GENERIC_FAILURE"
    },
    {
     "enum_field_value" : 3,
     "name" : "aidl::android::hardware::radio::RadioError::PASSWORD_INCORRECT"
    },
    {
     "enum_field_value" : 4,
     "name" : "aidl::android::hardware::radio::RadioError::SIM_PIN2"
    },
    {
     "enum_field_value" : 5,
     "name" : "aidl::android::hardware::radio::RadioError::SIM_PUK2"
    },
    {
     "enum_field_value" : 6,
     "name" : "aidl::android::hardware::radio::RadioError::REQUEST_NOT_SUPPORTED"
    },
    {
     "enum_field_value" : 7,
     "name" : "aidl::android::hardware::radio::RadioError::CANCELLED"
    },
    {
     "enum_field_value" : 8,
     "name" : "aidl::android::hardware::radio::RadioError::OP_NOT_ALLOWED_DURING_VOICE_CALL"
    },
    {
     "enum_field_value" : 9,
     "name" : "aidl::android::hardware::radio::RadioError::OP_NOT_ALLOWED_BEFORE_REG_TO_NW"
    },
    {
     "enum_field_value" : 10,
     "name" : "aidl::android::hardware::radio::RadioError::SMS_SEND_FAIL_RETRY"
    },
    {
     "enum_field_value" : 11,
     "name" : "aidl::android::hardware::radio::RadioError::SIM_ABSENT"
    },
    {
     "enum_field_value" : 12,
     "name" : "aidl::android::hardware::radio::RadioError::SUBSCRIPTION_NOT_AVAILABLE"
    },
    {
     "enum_field_value" : 13,
     "name" : "aidl::android::hardware::radio::RadioError::MODE_NOT_SUPPORTED"
    },
    {
     "enum_field_value" : 14,
     "name" : "aidl::android::hardware::radio::RadioError::FDN_CHECK_FAILURE"
    },
    {
     "enum_field_value" : 15,
     "name" : "aidl::android::hardware::radio::RadioError::ILLEGAL_SIM_OR_ME"
    },
    {
     "enum_field_value" : 16,
     "name" : "aidl::android::hardware::radio::RadioError::MISSING_RESOURCE"
    },
    {
     "enum_field_value" : 17,
     "name" : "aidl::android::hardware::radio::RadioError::NO_SUCH_ELEMENT"
    },
    {
     "enum_field_value" : 18,
     "name" : "aidl::android::hardware::radio::RadioError::DIAL_MODIFIED_TO_USSD"
    },
    {
     "enum_field_value" : 19,
     "name" : "aidl::android::hardware::radio::RadioError::DIAL_MODIFIED_TO_SS"
    },
    {
     "enum_field_value" : 20,
     "name" : "aidl::android::hardware::radio::RadioError::DIAL_MODIFIED_TO_DIAL"
    },
    {
     "enum_field_value" : 21,
     "name" : "aidl::android::hardware::radio::RadioError::USSD_MODIFIED_TO_DIAL"
    },
    {
     "enum_field_value" : 22,
     "name" : "aidl::android::hardware::radio::RadioError::USSD_MODIFIED_TO_SS"
    },
    {
     "enum_field_value" : 23,
     "name" : "aidl::android::hardware::radio::RadioError::USSD_MODIFIED_TO_USSD"
    },
    {
     "enum_field_value" : 24,
     "name" : "aidl::android::hardware::radio::RadioError::SS_MODIFIED_TO_DIAL"
    },
    {
     "enum_field_value" : 25,
     "name" : "aidl::android::hardware::radio::RadioError::SS_MODIFIED_TO_USSD"
    },
    {
     "enum_field_value" : 26,
     "name" : "aidl::android::hardware::radio::RadioError::SUBSCRIPTION_NOT_SUPPORTED"
    },
    {
     "enum_field_value" : 27,
     "name" : "aidl::android::hardware::radio::RadioError::SS_MODIFIED_TO_SS"
    },
    {
     "enum_field_value" : 36,
     "name" : "aidl::android::hardware::radio::RadioError::LCE_NOT_SUPPORTED"
    },
    {
     "enum_field_value" : 37,
     "name" : "aidl::android::hardware::radio::RadioError::NO_MEMORY"
    },
    {
     "enum_field_value" : 38,
     "name" : "aidl::android::hardware::radio::RadioError::INTERNAL_ERR"
    },
    {
     "enum_field_value" : 39,
     "name" : "aidl::android::hardware::radio::RadioError::SYSTEM_ERR"
    },
    {
     "enum_field_value" : 40,
     "name" : "aidl::android::hardware::radio::RadioError::MODEM_ERR"
    },
    {
     "enum_field_value" : 41,
     "name" : "aidl::android::hardware::radio::RadioError::INVALID_STATE"
    },
    {
     "enum_field_value" : 42,
     "name" : "aidl::android::hardware::radio::RadioError::NO_RESOURCES"
    },
    {
     "enum_field_value" : 43,
     "name" : "aidl::android::hardware::radio::RadioError::SIM_ERR"
    },
    {
     "enum_field_value" : 44,
     "name" : "aidl::android::hardware::radio::RadioError::INVALID_ARGUMENTS"
    },
    {
     "enum_field_value" : 45,
     "name" : "aidl::android::hardware::radio::RadioError::INVALID_SIM_STATE"
    },
    {
     "enum_field_value" : 46,
     "name" : "aidl::android::hardware::radio::RadioError::INVALID_MODEM_STATE"
    },
    {
     "enum_field_value" : 47,
     "name" : "aidl::android::hardware::radio::RadioError::INVALID_CALL_ID"
    },
    {
     "enum_field_value" : 48,
     "name" : "aidl::android::hardware::radio::RadioError::NO_SMS_TO_ACK"
    },
    {
     "enum_field_value" : 49,
     "name" : "aidl::android::hardware::radio::RadioError::NETWORK_ERR"
    },
    {
     "enum_field_value" : 50,
     "name" : "aidl::android::hardware::radio::RadioError::REQUEST_RATE_LIMITED"
    },
    {
     "enum_field_value" : 51,
     "name" : "aidl::android::hardware::radio::RadioError::SIM_BUSY"
    },
    {
     "enum_field_value" : 52,
     "name" : "aidl::android::hardware::radio::RadioError::SIM_FULL"
    },
    {
     "enum_field_value" : 53,
     "name" : "aidl::android::hardware::radio::RadioError::NETWORK_REJECT"
    },
    {
     "enum_field_value" : 54,
     "name" : "aidl::android::hardware::radio::RadioError::OPERATION_NOT_ALLOWED"
    },
    {
     "enum_field_value" : 55,
     "name" : "aidl::android::hardware::radio::RadioError::EMPTY_RECORD"
    },
    {
     "enum_field_value" : 56,
     "name" : "aidl::android::hardware::radio::RadioError::INVALID_SMS_FORMAT"
    },
    {
     "enum_field_value" : 57,
     "name" : "aidl::android::hardware::radio::RadioError::ENCODING_ERR"
    },
    {
     "enum_field_value" : 58,
     "name" : "aidl::android::hardware::radio::RadioError::INVALID_SMSC_ADDRESS"
    },
    {
     "enum_field_value" : 59,
     "name" : "aidl::android::hardware::radio::RadioError::NO_SUCH_ENTRY"
    },
    {
     "enum_field_value" : 60,
     "name" : "aidl::android::hardware::radio::RadioError::NETWORK_NOT_READY"
    },
    {
     "enum_field_value" : 61,
     "name" : "aidl::android::hardware::radio::RadioError::NOT_PROVISIONED"
    },
    {
     "enum_field_value" : 62,
     "name" : "aidl::android::hardware::radio::RadioError::NO_SUBSCRIPTION"
    },
    {
     "enum_field_value" : 63,
     "name" : "aidl::android::hardware::radio::RadioError::NO_NETWORK_FOUND"
    },
    {
     "enum_field_value" : 64,
     "name" : "aidl::android::hardware::radio::RadioError::DEVICE_IN_USE"
    },
    {
     "enum_field_value" : 65,
     "name" : "aidl::android::hardware::radio::RadioError::ABORTED"
    },
    {
     "enum_field_value" : 66,
     "name" : "aidl::android::hardware::radio::RadioError::INVALID_RESPONSE"
    },
    {
     "enum_field_value" : 501,
     "name" : "aidl::android::hardware::radio::RadioError::OEM_ERROR_1"
    },
    {
     "enum_field_value" : 502,
     "name" : "aidl::android::hardware::radio::RadioError::OEM_ERROR_2"
    },
    {
     "enum_field_value" : 503,
     "name" : "aidl::android::hardware::radio::RadioError::OEM_ERROR_3"
    },
    {
     "enum_field_value" : 504,
     "name" : "aidl::android::hardware::radio::RadioError::OEM_ERROR_4"
    },
    {
     "enum_field_value" : 505,
     "name" : "aidl::android::hardware::radio::RadioError::OEM_ERROR_5"
    },
    {
     "enum_field_value" : 506,
     "name" : "aidl::android::hardware::radio::RadioError::OEM_ERROR_6"
    },
    {
     "enum_field_value" : 507,
     "name" : "aidl::android::hardware::radio::RadioError::OEM_ERROR_7"
    },
    {
     "enum_field_value" : 508,
     "name" : "aidl::android::hardware::radio::RadioError::OEM_ERROR_8"
    },
    {
     "enum_field_value" : 509,
     "name" : "aidl::android::hardware::radio::RadioError::OEM_ERROR_9"
    },
    {
     "enum_field_value" : 510,
     "name" : "aidl::android::hardware::radio::RadioError::OEM_ERROR_10"
    },
    {
     "enum_field_value" : 511,
     "name" : "aidl::android::hardware::radio::RadioError::OEM_ERROR_11"
    },
    {
     "enum_field_value" : 512,
     "name" : "aidl::android::hardware::radio::RadioError::OEM_ERROR_12"
    },
    {
     "enum_field_value" : 513,
     "name" : "aidl::android::hardware::radio::RadioError::OEM_ERROR_13"
    },
    {
     "enum_field_value" : 514,
     "name" : "aidl::android::hardware::radio::RadioError::OEM_ERROR_14"
    },
    {
     "enum_field_value" : 515,
     "name" : "aidl::android::hardware::radio::RadioError::OEM_ERROR_15"
    },
    {
     "enum_field_value" : 516,
     "name" : "aidl::android::hardware::radio::RadioError::OEM_ERROR_16"
    },
    {
     "enum_field_value" : 517,
     "name" : "aidl::android::hardware::radio::RadioError::OEM_ERROR_17"
    },
    {
     "enum_field_value" : 518,
     "name" : "aidl::android::hardware::radio::RadioError::OEM_ERROR_18"
    },
    {
     "enum_field_value" : 519,
     "name" : "aidl::android::hardware::radio::RadioError::OEM_ERROR_19"
    },
    {
     "enum_field_value" : 520,
     "name" : "aidl::android::hardware::radio::RadioError::OEM_ERROR_20"
    },
    {
     "enum_field_value" : 521,
     "name" : "aidl::android::hardware::radio::RadioError::OEM_ERROR_21"
    },
    {
     "enum_field_value" : 522,
     "name" : "aidl::android::hardware::radio::RadioError::OEM_ERROR_22"
    },
    {
     "enum_field_value" : 523,
     "name" : "aidl::android::hardware::radio::RadioError::OEM_ERROR_23"
    },
    {
     "enum_field_value" : 524,
     "name" : "aidl::android::hardware::radio::RadioError::OEM_ERROR_24"
    },
    {
     "enum_field_value" : 525,
     "name" : "aidl::android::hardware::radio::RadioError::OEM_ERROR_25"
    },
    {
     "enum_field_value" : 67,
     "name" : "aidl::android::hardware::radio::RadioError::SIMULTANEOUS_SMS_AND_CALL_NOT_ALLOWED"
    },
    {
     "enum_field_value" : 68,
     "name" : "aidl::android::hardware::radio::RadioError::ACCESS_BARRED"
    },
    {
     "enum_field_value" : 69,
     "name" : "aidl::android::hardware::radio::RadioError::BLOCKED_DUE_TO_CALL"
    },
    {
     "enum_field_value" : 70,
     "name" : "aidl::android::hardware::radio::RadioError::RF_HARDWARE_ISSUE"
    },
    {
     "enum_field_value" : 71,
     "name" : "aidl::android::hardware::radio::RadioError::NO_RF_CALIBRATION_INFO"
    }
   ],
   "linker_set_key" : "_ZTIN4aidl7android8hardware5radio10RadioErrorE",
   "name" : "aidl::android::hardware::radio::RadioError",
   "referenced_type" : "_ZTIN4aidl7android8hardware5radio10RadioErrorE",
   "self_type" : "_ZTIN4aidl7android8hardware5radio10RadioErrorE",
   "size" : 4,
   "source_file" : "out/soong/.intermediates/hardware/interfaces/radio/aidl/android.hardware.radio-V1-ndk-source/gen/include/aidl/android/hardware/radio/RadioError.h",
   "underlying_type" : "_ZTIi"
  },
  {
   "alignment" : 4,
   "enum_fields" :
   [
    {
     "enum_field_value" : 0,
     "name" : "aidl::android::hardware::radio::AccessNetwork::UNKNOWN"
    },
    {
     "enum_field_value" : 1,
     "name" : "aidl::android::hardware::radio::AccessNetwork::GERAN"
    },
    {
     "enum_field_value" : 2,
     "name" : "aidl::android::hardware::radio::AccessNetwork::UTRAN"
    },
    {
     "enum_field_value" : 3,
     "name" : "aidl::android::hardware::radio::AccessNetwork::EUTRAN"
    },
    {
     "enum_field_value" : 4,
     "name" : "aidl::android::hardware::radio::AccessNetwork::CDMA2000"
    },
    {
     "enum_field_value" : 5,
     "name" : "aidl::android::hardware::radio::AccessNetwork::IWLAN"
    },
    {
     "enum_field_value" : 6,
     "name" : "aidl::android::hardware::radio::AccessNetwork::NGRAN"
    }
   ],
   "linker_set_key" : "_ZTIN4aidl7android8hardware5radio13AccessNetworkE",
   "name" : "aidl::android::hardware::radio::AccessNetwork",
   "referenced_type" : "_ZTIN4aidl7android8hardware5radio13AccessNetworkE",
   "self_type" : "_ZTIN4aidl7android8hardware5radio13AccessNetworkE",
   "size" : 4,
   "source_file" : "out/soong/.intermediates/hardware/interfaces/radio/aidl/android.hardware.radio-V1-ndk-source/gen/include/aidl/android/hardware/radio/AccessNetwork.h",
   "underlying_type" : "_ZTIi"
  },
  {
   "alignment" : 4,
   "enum_fields" :
   [
    {
     "enum_field_value" : 0,
     "name" : "aidl::android::hardware::radio::RadioTechnology::UNKNOWN"
    },
    {
     "enum_field_value" : 1,
     "name" : "aidl::android::hardware::radio::RadioTechnology::GPRS"
    },
    {
     "enum_field_value" : 2,
     "name" : "aidl::android::hardware::radio::RadioTechnology::EDGE"
    },
    {
     "enum_field_value" : 3,
     "name" : "aidl::android::hardware::radio::RadioTechnology::UMTS"
    },
    {
     "enum_field_value" : 4,
     "name" : "aidl::android::hardware::radio::RadioTechnology::IS95A"
    },
    {
     "enum_field_value" : 5,
     "name" : "aidl::android::hardware::radio::RadioTechnology::IS95B"
    },
    {
     "enum_field_value" : 6,
     "name" : "aidl::android::hardware::radio::RadioTechnology::ONE_X_RTT"
    },
    {
     "enum_field_value" : 7,
     "name" : "aidl::android::hardware::radio::RadioTechnology::EVDO_0"
    },
    {
     "enum_field_value" : 8,
     "name" : "aidl::android::hardware::radio::RadioTechnology::EVDO_A"
    },
    {
     "enum_field_value" : 9,
     "name" : "aidl::android::hardware::radio::RadioTechnology::HSDPA"
    },
    {
     "enum_field_value" : 10,
     "name" : "aidl::android::hardware::radio::RadioTechnology::HSUPA"
    },
    {
     "enum_field_value" : 11,
     "name" : "aidl::android::hardware::radio::RadioTechnology::HSPA"
    },
    {
     "enum_field_value" : 12,
     "name" : "aidl::android::hardware::radio::RadioTechnology::EVDO_B"
    },
    {
     "enum_field_value" : 13,
     "name" : "aidl::android::hardware::radio::RadioTechnology::EHRPD"
    },
    {
     "enum_field_value" : 14,
     "name" : "aidl::android::hardware::radio::RadioTechnology::LTE"
    },
    {
     "enum_field_value" : 15,
     "name" : "aidl::android::hardware::radio::RadioTechnology::HSPAP"
    },
    {
     "enum_field_value" : 16,
     "name" : "aidl::android::hardware::radio::RadioTechnology::GSM"
    },
    {
     "enum_field_value" : 17,
     "name" : "aidl::android::hardware::radio::RadioTechnology::TD_SCDMA"
    },
    {
     "enum_field_value" : 18,
     "name" : "aidl::android::hardware::radio::RadioTechnology::IWLAN"
    },
    {
     "enum_field_value" : 19,
     "name" : "aidl::android::hardware::radio::RadioTechnology::LTE_CA"
    },
    {
     "enum_field_value" : 20,
     "name" : "aidl::android::hardware::radio::RadioTechnology::NR"
    }
   ],
   "linker_set_key" : "_ZTIN4aidl7android8hardware5radio15RadioTechnologyE",
   "name" : "aidl::android::hardware::radio::RadioTechnology",
   "referenced_type" : "_ZTIN4aidl7android8hardware5radio15RadioTechnologyE",
   "self_type" : "_ZTIN4aidl7android8hardware5radio15RadioTechnologyE",
   "size" : 4,
   "source_file" : "out/soong/.intermediates/hardware/interfaces/radio/aidl/android.hardware.radio-V1-ndk-source/gen/include/aidl/android/hardware/radio/RadioTechnology.h",
   "underlying_type" : "_ZTIi"
  },
  {
   "alignment" : 4,
   "enum_fields" :
   [
    {
     "enum_field_value" : 0,
     "name" : "aidl::android::hardware::radio::RadioResponseType::SOLICITED"
    },
    {
     "enum_field_value" : 1,
     "name" : "aidl::android::hardware::radio::RadioResponseType::SOLICITED_ACK"
    },
    {
     "enum_field_value" : 2,
     "name" : "aidl::android::hardware::radio::RadioResponseType::SOLICITED_ACK_EXP"
    }
   ],
   "linker_set_key" : "_ZTIN4aidl7android8hardware5radio17RadioResponseTypeE",
   "name" : "aidl::android::hardware::radio::RadioResponseType",
   "referenced_type" : "_ZTIN4aidl7android8hardware5radio17RadioResponseTypeE",
   "self_type" : "_ZTIN4aidl7android8hardware5radio17RadioResponseTypeE",
   "size" : 4,
   "source_file" : "out/soong/.intermediates/hardware/interfaces/radio/aidl/android.hardware.radio-V1-ndk-source/gen/include/aidl/android/hardware/radio/RadioResponseType.h",
   "underlying_type" : "_ZTIi"
  },
  {
   "alignment" : 4,
   "enum_fields" :
   [
    {
     "enum_field_value" : 0,
     "name" : "aidl::android::hardware::radio::RadioIndicationType::UNSOLICITED"
    },
    {
     "enum_field_value" : 1,
     "name" : "aidl::android::hardware::radio::RadioIndicationType::UNSOLICITED_ACK_EXP"
    }
   ],
   "linker_set_key" : "_ZTIN4aidl7android8hardware5radio19RadioIndicationTypeE",
   "name" : "aidl::android::hardware::radio::RadioIndicationType",
   "referenced_type" : "_ZTIN4aidl7android8hardware5radio19RadioIndicationTypeE",
   "self_type" : "_ZTIN4aidl7android8hardware5radio19RadioIndicationTypeE",
   "size" : 4,
   "source_file" : "out/soong/.intermediates/hardware/interfaces/radio/aidl/android.hardware.radio-V1-ndk-source/gen/include/aidl/android/hardware/radio/RadioIndicationType.h",
   "underlying_type" : "_ZTIi"
  },
  {
   "alignment" : 4,
   "enum_fields" :
   [
    {
     "enum_field_value" : 0,
     "name" : "aidl::android::hardware::radio::RadioTechnologyFamily::THREE_GPP"
    },
    {
     "enum_field_value" : 1,
     "name" : "aidl::android::hardware::radio::RadioTechnologyFamily::THREE_GPP2"
    }
   ],
   "linker_set_key" : "_ZTIN4aidl7android8hardware5radio21RadioTechnologyFamilyE",
   "name" : "aidl::android::hardware::radio::RadioTechnologyFamily",
   "referenced_type" : "_ZTIN4aidl7android8hardware5radio21RadioTechnologyFamilyE",
   "self_type" : "_ZTIN4aidl7android8hardware5radio21RadioTechnologyFamilyE",
   "size" : 4,
   "source_file" : "out/soong/.intermediates/hardware/interfaces/radio/aidl/android.hardware.radio-V1-ndk-source/gen/include/aidl/android/hardware/radio/RadioTechnologyFamily.h",
   "underlying_type" : "_ZTIi"
  },
  {
   "alignment" : 4,
   "enum_fields" :
   [
    {
     "enum_field_value" : 1,
     "name" : "aidl::android::hardware::radio::network::GeranBands::BAND_T380"
    },
    {
     "enum_field_value" : 2,
     "name" : "aidl::android::hardware::radio::network::GeranBands::BAND_T410"
    },
    {
     "enum_field_value" : 3,
     "name" : "aidl::android::hardware::radio::network::GeranBands::BAND_450"
    },
    {
     "enum_field_value" : 4,
     "name" : "aidl::android::hardware::radio::network::GeranBands::BAND_480"
    },
    {
     "enum_field_value" : 5,
     "name" : "aidl::android::hardware::radio::network::GeranBands::BAND_710"
    },
    {
     "enum_field_value" : 6,
     "name" : "aidl::android::hardware::radio::network::GeranBands::BAND_750"
    },
    {
     "enum_field_value" : 7,
     "name" : "aidl::android::hardware::radio::network::GeranBands::BAND_T810"
    },
    {
     "enum_field_value" : 8,
     "name" : "aidl::android::hardware::radio::network::GeranBands::BAND_850"
    },
    {
     "enum_field_value" : 9,
     "name" : "aidl::android::hardware::radio::network::GeranBands::BAND_P900"
    },
    {
     "enum_field_value" : 10,
     "name" : "aidl::android::hardware::radio::network::GeranBands::BAND_E900"
    },
    {
     "enum_field_value" : 11,
     "name" : "aidl::android::hardware::radio::network::GeranBands::BAND_R900"
    },
    {
     "enum_field_value" : 12,
     "name" : "aidl::android::hardware::radio::network::GeranBands::BAND_DCS1800"
    },
    {
     "enum_field_value" : 13,
     "name" : "aidl::android::hardware::radio::network::GeranBands::BAND_PCS1900"
    },
    {
     "enum_field_value" : 14,
     "name" : "aidl::android::hardware::radio::network::GeranBands::BAND_ER900"
    }
   ],
   "linker_set_key" : "_ZTIN4aidl7android8hardware5radio7network10GeranBandsE",
   "name" : "aidl::android::hardware::radio::network::GeranBands",
   "referenced_type" : "_ZTIN4aidl7android8hardware5radio7network10GeranBandsE",
   "self_type" : "_ZTIN4aidl7android8hardware5radio7network10GeranBandsE",
   "size" : 4,
   "source_file" : "out/soong/.intermediates/hardware/interfaces/radio/aidl/android.hardware.radio.network-V1-ndk-source/gen/include/aidl/android/hardware/radio/network/GeranBands.h",
   "underlying_type" : "_ZTIi"
  },
  {
   "alignment" : 4,
   "enum_fields" :
   [
    {
     "enum_field_value" : 1,
     "name" : "aidl::android::hardware::radio::network::NgranBands::BAND_1"
    },
    {
     "enum_field_value" : 2,
     "name" : "aidl::android::hardware::radio::network::NgranBands::BAND_2"
    },
    {
     "enum_field_value" : 3,
     "name" : "aidl::android::hardware::radio::network::NgranBands::BAND_3"
    },
    {
     "enum_field_value" : 5,
     "name" : "aidl::android::hardware::radio::network::NgranBands::BAND_5"
    },
    {
     "enum_field_value" : 7,
     "name" : "aidl::android::hardware::radio::network::NgranBands::BAND_7"
    },
    {
     "enum_field_value" : 8,
     "name" : "aidl::android::hardware::radio::network::NgranBands::BAND_8"
    },
    {
     "enum_field_value" : 12,
     "name" : "aidl::android::hardware::radio::network::NgranBands::BAND_12"
    },
    {
     "enum_field_value" : 14,
     "name" : "aidl::android::hardware::radio::network::NgranBands::BAND_14"
    },
    {
     "enum_field_value" : 18,
     "name" : "aidl::android::hardware::radio::network::NgranBands::BAND_18"
    },
    {
     "enum_field_value" : 20,
     "name" : "aidl::android::hardware::radio::network::NgranBands::BAND_20"
    },
    {
     "enum_field_value" : 25,
     "name" : "aidl::android::hardware::radio::network::NgranBands::BAND_25"
    },
    {
     "enum_field_value" : 26,
     "name" : "aidl::android::hardware::radio::network::NgranBands::BAND_26"
    },
    {
     "enum_field_value" : 28,
     "name" : "aidl::android::hardware::radio::network::NgranBands::BAND_28"
    },
    {
     "enum_field_value" : 29,
     "name" : "aidl::android::hardware::radio::network::NgranBands::BAND_29"
    },
    {
     "enum_field_value" : 30,
     "name" : "aidl::android::hardware::radio::network::NgranBands::BAND_30"
    },
    {
     "enum_field_value" : 34,
     "name" : "aidl::android::hardware::radio::network::NgranBands::BAND_34"
    },
    {
     "enum_field_value" : 38,
     "name" : "aidl::android::hardware::radio::network::NgranBands::BAND_38"
    },
    {
     "enum_field_value" : 39,
     "name" : "aidl::android::hardware::radio::network::NgranBands::BAND_39"
    },
    {
     "enum_field_value" : 40,
     "name" : "aidl::android::hardware::radio::network::NgranBands::BAND_40"
    },
    {
     "enum_field_value" : 41,
     "name" : "aidl::android::hardware::radio::network::NgranBands::BAND_41"
    },
    {
     "enum_field_value" : 46,
     "name" : "aidl::android::hardware::radio::network::NgranBands::BAND_46"
    },
    {
     "enum_field_value" : 48,
     "name" : "aidl::android::hardware::radio::network::NgranBands::BAND_48"
    },
    {
     "enum_field_value" : 50,
     "name" : "aidl::android::hardware::radio::network::NgranBands::BAND_50"
    },
    {
     "enum_field_value" : 51,
     "name" : "aidl::android::hardware::radio::network::NgranBands::BAND_51"
    },
    {
     "enum_field_value" : 53,
     "name" : "aidl::android::hardware::radio::network::NgranBands::BAND_53"
    },
    {
     "enum_field_value" : 65,
     "name" : "aidl::android::hardware::radio::network::NgranBands::BAND_65"
    },
    {
     "enum_field_value" : 66,
     "name" : "aidl::android::hardware::radio::network::NgranBands::BAND_66"
    },
    {
     "enum_field_value" : 70,
     "name" : "aidl::android::hardware::radio::network::NgranBands::BAND_70"
    },
    {
     "enum_field_value" : 71,
     "name" : "aidl::android::hardware::radio::network::NgranBands::BAND_71"
    },
    {
     "enum_field_value" : 74,
     "name" : "aidl::android::hardware::radio::network::NgranBands::BAND_74"
    },
    {
     "enum_field_value" : 75,
     "name" : "aidl::android::hardware::radio::network::NgranBands::BAND_75"
    },
    {
     "enum_field_value" : 76,
     "name" : "aidl::android::hardware::radio::network::NgranBands::BAND_76"
    },
    {
     "enum_field_value" : 77,
     "name" : "aidl::android::hardware::radio::network::NgranBands::BAND_77"
    },
    {
     "enum_field_value" : 78,
     "name" : "aidl::android::hardware::radio::network::NgranBands::BAND_78"
    },
    {
     "enum_field_value" : 79,
     "name" : "aidl::android::hardware::radio::network::NgranBands::BAND_79"
    },
    {
     "enum_field_value" : 80,
     "name" : "aidl::android::hardware::radio::network::NgranBands::BAND_80"
    },
    {
     "enum_field_value" : 81,
     "name" : "aidl::android::hardware::radio::network::NgranBands::BAND_81"
    },
    {
     "enum_field_value" : 82,
     "name" : "aidl::android::hardware::radio::network::NgranBands::BAND_82"
    },
    {
     "enum_field_value" : 83,
     "name" : "aidl::android::hardware::radio::network::NgranBands::BAND_83"
    },
    {
     "enum_field_value" : 84,
     "name" : "aidl::android::hardware::radio::network::NgranBands::BAND_84"
    },
    {
     "enum_field_value" : 86,
     "name" : "aidl::android::hardware::radio::network::NgranBands::BAND_86"
    },
    {
     "enum_field_value" : 89,
     "name" : "aidl::android::hardware::radio::network::NgranBands::BAND_89"
    },
    {
     "enum_field_value" : 90,
     "name" : "aidl::android::hardware::radio::network::NgranBands::BAND_90"
    },
    {
     "enum_field_value" : 91,
     "name" : "aidl::android::hardware::radio::network::NgranBands::BAND_91"
    },
    {
     "enum_field_value" : 92,
     "name" : "aidl::android::hardware::radio::network::NgranBands::BAND_92"
    },
    {
     "enum_field_value" : 93,
     "name" : "aidl::android::hardware::radio::network::NgranBands::BAND_93"
    },
    {
     "enum_field_value" : 94,
     "name" : "aidl::android::hardware::radio::network::NgranBands::BAND_94"
    },
    {
     "enum_field_value" : 95,
     "name" : "aidl::android::hardware::radio::network::NgranBands::BAND_95"
    },
    {
     "enum_field_value" : 96,
     "name" : "aidl::android::hardware::radio::network::NgranBands::BAND_96"
    },
    {
     "enum_field_value" : 257,
     "name" : "aidl::android::hardware::radio::network::NgranBands::BAND_257"
    },
    {
     "enum_field_value" : 258,
     "name" : "aidl::android::hardware::radio::network::NgranBands::BAND_258"
    },
    {
     "enum_field_value" : 260,
     "name" : "aidl::android::hardware::radio::network::NgranBands::BAND_260"
    },
    {
     "enum_field_value" : 261,
     "name" : "aidl::android::hardware::radio::network::NgranBands::BAND_261"
    }
   ],
   "linker_set_key" : "_ZTIN4aidl7android8hardware5radio7network10NgranBandsE",
   "name" : "aidl::android::hardware::radio::network::NgranBands",
   "referenced_type" : "_ZTIN4aidl7android8hardware5radio7network10NgranBandsE",
   "self_type" : "_ZTIN4aidl7android8hardware5radio7network10NgranBandsE",
   "size" : 4,
   "source_file" : "out/soong/.intermediates/hardware/interfaces/radio/aidl/android.hardware.radio.network-V1-ndk-source/gen/include/aidl/android/hardware/radio/network/NgranBands.h",
   "underlying_type" : "_ZTIi"
  },
  {
   "alignment" : 1,
   "enum_fields" :
   [
    {
     "enum_field_value" : 0,
     "name" : "aidl::android::hardware::radio::network::NrVopsInfo::EMC_INDICATOR_NOT_SUPPORTED"
    }
   ],
   "linker_set_key" : "_ZTIN4aidl7android8hardware5radio7network10NrVopsInfo28$EMC_INDICATOR_NOT_SUPPORTEDE",
   "name" : "aidl::android::hardware::radio::network::NrVopsInfo::(unnamed enum at out/soong/.intermediates/hardware/interfaces/radio/aidl/android.hardware.radio.network-V1-ndk-source/gen/include/aidl/android/hardware/radio/network/NrVopsInfo.h:52:3)",
   "referenced_type" : "_ZTIN4aidl7android8hardware5radio7network10NrVopsInfo28$EMC_INDICATOR_NOT_SUPPORTEDE",
   "self_type" : "_ZTIN4aidl7android8hardware5radio7network10NrVopsInfo28$EMC_INDICATOR_NOT_SUPPORTEDE",
   "size" : 1,
   "source_file" : "out/soong/.intermediates/hardware/interfaces/radio/aidl/android.hardware.radio.network-V1-ndk-source/gen/include/aidl/android/hardware/radio/network/NrVopsInfo.h",
   "underlying_type" : "_ZTIa"
  },
  {
   "alignment" : 1,
   "enum_fields" :
   [
    {
     "enum_field_value" : 0,
     "name" : "aidl::android::hardware::radio::network::NrVopsInfo::EMF_INDICATOR_NOT_SUPPORTED"
    }
   ],
   "linker_set_key" : "_ZTIN4aidl7android8hardware5radio7network10NrVopsInfo28$EMF_INDICATOR_NOT_SUPPORTEDE",
   "name" : "aidl::android::hardware::radio::network::NrVopsInfo::(unnamed enum at out/soong/.intermediates/hardware/interfaces/radio/aidl/android.hardware.radio.network-V1-ndk-source/gen/include/aidl/android/hardware/radio/network/NrVopsInfo.h:56:3)",
   "referenced_type" : "_ZTIN4aidl7android8hardware5radio7network10NrVopsInfo28$EMF_INDICATOR_NOT_SUPPORTEDE",
   "self_type" : "_ZTIN4aidl7android8hardware5radio7network10NrVopsInfo28$EMF_INDICATOR_NOT_SUPPORTEDE",
   "size" : 1,
   "source_file" : "out/soong/.intermediates/hardware/interfaces/radio/aidl/android.hardware.radio.network-V1-ndk-source/gen/include/aidl/android/hardware/radio/network/NrVopsInfo.h",
   "underlying_type" : "_ZTIa"
  },
  {
   "alignment" : 1,
   "enum_fields" :
   [
    {
     "enum_field_value" : 1,
     "name" : "aidl::android::hardware::radio::network::NrVopsInfo::VOPS_INDICATOR_VOPS_OVER_3GPP"
    }
   ],
   "linker_set_key" : "_ZTIN4aidl7android8hardware5radio7network10NrVopsInfo30$VOPS_INDICATOR_VOPS_OVER_3GPPE",
   "name" : "aidl::android::hardware::radio::network::NrVopsInfo::(unnamed enum at out/soong/.intermediates/hardware/interfaces/radio/aidl/android.hardware.radio.network-V1-ndk-source/gen/include/aidl/android/hardware/radio/network/NrVopsInfo.h:61:3)",
   "referenced_type" : "_ZTIN4aidl7android8hardware5radio7network10NrVopsInfo30$VOPS_INDICATOR_VOPS_OVER_3GPPE",
   "self_type" : "_ZTIN4aidl7android8hardware5radio7network10NrVopsInfo30$VOPS_INDICATOR_VOPS_OVER_3GPPE",
   "size" : 1,
   "source_file" : "out/soong/.intermediates/hardware/interfaces/radio/aidl/android.hardware.radio.network-V1-ndk-source/gen/include/aidl/android/hardware/radio/network/NrVopsInfo.h",
   "underlying_type" : "_ZTIa"
  },
  {
   "alignment" : 1,
   "enum_fields" :
   [
    {
     "enum_field_value" : 0,
     "name" : "aidl::android::hardware::radio::network::NrVopsInfo::VOPS_INDICATOR_VOPS_NOT_SUPPORTED"
    }
   ],
   "linker_set_key" : "_ZTIN4aidl7android8hardware5radio7network10NrVopsInfo34$VOPS_INDICATOR_VOPS_NOT_SUPPORTEDE",
   "name" : "aidl::android::hardware::radio::network::NrVopsInfo::(unnamed enum at out/soong/.intermediates/hardware/interfaces/radio/aidl/android.hardware.radio.network-V1-ndk-source/gen/include/aidl/android/hardware/radio/network/NrVopsInfo.h:60:3)",
   "referenced_type" : "_ZTIN4aidl7android8hardware5radio7network10NrVopsInfo34$VOPS_INDICATOR_VOPS_NOT_SUPPORTEDE",
   "self_type" : "_ZTIN4aidl7android8hardware5radio7network10NrVopsInfo34$VOPS_INDICATOR_VOPS_NOT_SUPPORTEDE",
   "size" : 1,
   "source_file" : "out/soong/.intermediates/hardware/interfaces/radio/aidl/android.hardware.radio.network-V1-ndk-source/gen/include/aidl/android/hardware/radio/network/NrVopsInfo.h",
   "underlying_type" : "_ZTIa"
  },
  {
   "alignment" : 1,
   "enum_fields" :
   [
    {
     "enum_field_value" : 2,
     "name" : "aidl::android::hardware::radio::network::NrVopsInfo::VOPS_INDICATOR_VOPS_OVER_NON_3GPP"
    }
   ],
   "linker_set_key" : "_ZTIN4aidl7android8hardware5radio7network10NrVopsInfo34$VOPS_INDICATOR_VOPS_OVER_NON_3GPPE",
   "name" : "aidl::android::hardware::radio::network::NrVopsInfo::(unnamed enum at out/soong/.intermediates/hardware/interfaces/radio/aidl/android.hardware.radio.network-V1-ndk-source/gen/include/aidl/android/hardware/radio/network/NrVopsInfo.h:62:3)",
   "referenced_type" : "_ZTIN4aidl7android8hardware5radio7network10NrVopsInfo34$VOPS_INDICATOR_VOPS_OVER_NON_3GPPE",
   "self_type" : "_ZTIN4aidl7android8hardware5radio7network10NrVopsInfo34$VOPS_INDICATOR_VOPS_OVER_NON_3GPPE",
   "size" : 1,
   "source_file" : "out/soong/.intermediates/hardware/interfaces/radio/aidl/android.hardware.radio.network-V1-ndk-source/gen/include/aidl/android/hardware/radio/network/NrVopsInfo.h",
   "underlying_type" : "_ZTIa"
  },
  {
   "alignment" : 1,
   "enum_fields" :
   [
    {
     "enum_field_value" : 1,
     "name" : "aidl::android::hardware::radio::network::NrVopsInfo::EMC_INDICATOR_NR_CONNECTED_TO_5GCN"
    }
   ],
   "linker_set_key" : "_ZTIN4aidl7android8hardware5radio7network10NrVopsInfo35$EMC_INDICATOR_NR_CONNECTED_TO_5GCNE",
   "name" : "aidl::android::hardware::radio::network::NrVopsInfo::(unnamed enum at out/soong/.intermediates/hardware/interfaces/radio/aidl/android.hardware.radio.network-V1-ndk-source/gen/include/aidl/android/hardware/radio/network/NrVopsInfo.h:53:3)",
   "referenced_type" : "_ZTIN4aidl7android8hardware5radio7network10NrVopsInfo35$EMC_INDICATOR_NR_CONNECTED_TO_5GCNE",
   "self_type" : "_ZTIN4aidl7android8hardware5radio7network10NrVopsInfo35$EMC_INDICATOR_NR_CONNECTED_TO_5GCNE",
   "size" : 1,
   "source_file" : "out/soong/.intermediates/hardware/interfaces/radio/aidl/android.hardware.radio.network-V1-ndk-source/gen/include/aidl/android/hardware/radio/network/NrVopsInfo.h",
   "underlying_type" : "_ZTIa"
  },
  {
   "alignment" : 1,
   "enum_fields" :
   [
    {
     "enum_field_value" : 1,
     "name" : "aidl::android::hardware::radio::network::NrVopsInfo::EMF_INDICATOR_NR_CONNECTED_TO_5GCN"
    }
   ],
   "linker_set_key" : "_ZTIN4aidl7android8hardware5radio7network10NrVopsInfo35$EMF_INDICATOR_NR_CONNECTED_TO_5GCNE",
   "name" : "aidl::android::hardware::radio::network::NrVopsInfo::(unnamed enum at out/soong/.intermediates/hardware/interfaces/radio/aidl/android.hardware.radio.network-V1-ndk-source/gen/include/aidl/android/hardware/radio/network/NrVopsInfo.h:57:3)",
   "referenced_type" : "_ZTIN4aidl7android8hardware5radio7network10NrVopsInfo35$EMF_INDICATOR_NR_CONNECTED_TO_5GCNE",
   "self_type" : "_ZTIN4aidl7android8hardware5radio7network10NrVopsInfo35$EMF_INDICATOR_NR_CONNECTED_TO_5GCNE",
   "size" : 1,
   "source_file" : "out/soong/.intermediates/hardware/interfaces/radio/aidl/android.hardware.radio.network-V1-ndk-source/gen/include/aidl/android/hardware/radio/network/NrVopsInfo.h",
   "underlying_type" : "_ZTIa"
  },
  {
   "alignment" : 1,
   "enum_fields" :
   [
    {
     "enum_field_value" : 2,
     "name" : "aidl::android::hardware::radio::network::NrVopsInfo::EMC_INDICATOR_EUTRA_CONNECTED_TO_5GCN"
    }
   ],
   "linker_set_key" : "_ZTIN4aidl7android8hardware5radio7network10NrVopsInfo38$EMC_INDICATOR_EUTRA_CONNECTED_TO_5GCNE",
   "name" : "aidl::android::hardware::radio::network::NrVopsInfo::(unnamed enum at out/soong/.intermediates/hardware/interfaces/radio/aidl/android.hardware.radio.network-V1-ndk-source/gen/include/aidl/android/hardware/radio/network/NrVopsInfo.h:54:3)",
   "referenced_type" : "_ZTIN4aidl7android8hardware5radio7network10NrVopsInfo38$EMC_INDICATOR_EUTRA_CONNECTED_TO_5GCNE",
   "self_type" : "_ZTIN4aidl7android8hardware5radio7network10NrVopsInfo38$EMC_INDICATOR_EUTRA_CONNECTED_TO_5GCNE",
   "size" : 1,
   "source_file" : "out/soong/.intermediates/hardware/interfaces/radio/aidl/android.hardware.radio.network-V1-ndk-source/gen/include/aidl/android/hardware/radio/network/NrVopsInfo.h",
   "underlying_type" : "_ZTIa"
  },
  {
   "alignment" : 1,
   "enum_fields" :
   [
    {
     "enum_field_value" : 2,
     "name" : "aidl::android::hardware::radio::network::NrVopsInfo::EMF_INDICATOR_EUTRA_CONNECTED_TO_5GCN"
    }
   ],
   "linker_set_key" : "_ZTIN4aidl7android8hardware5radio7network10NrVopsInfo38$EMF_INDICATOR_EUTRA_CONNECTED_TO_5GCNE",
   "name" : "aidl::android::hardware::radio::network::NrVopsInfo::(unnamed enum at out/soong/.intermediates/hardware/interfaces/radio/aidl/android.hardware.radio.network-V1-ndk-source/gen/include/aidl/android/hardware/radio/network/NrVopsInfo.h:58:3)",
   "referenced_type" : "_ZTIN4aidl7android8hardware5radio7network10NrVopsInfo38$EMF_INDICATOR_EUTRA_CONNECTED_TO_5GCNE",
   "self_type" : "_ZTIN4aidl7android8hardware5radio7network10NrVopsInfo38$EMF_INDICATOR_EUTRA_CONNECTED_TO_5GCNE",
   "size" : 1,
   "source_file" : "out/soong/.intermediates/hardware/interfaces/radio/aidl/android.hardware.radio.network-V1-ndk-source/gen/include/aidl/android/hardware/radio/network/NrVopsInfo.h",
   "underlying_type" : "_ZTIa"
  },
  {
   "alignment" : 1,
   "enum_fields" :
   [
    {
     "enum_field_value" : 3,
     "name" : "aidl::android::hardware::radio::network::NrVopsInfo::EMC_INDICATOR_BOTH_NR_EUTRA_CONNECTED_TO_5GCN"
    }
   ],
   "linker_set_key" : "_ZTIN4aidl7android8hardware5radio7network10NrVopsInfo46$EMC_INDICATOR_BOTH_NR_EUTRA_CONNECTED_TO_5GCNE",
   "name" : "aidl::android::hardware::radio::network::NrVopsInfo::(unnamed enum at out/soong/.intermediates/hardware/interfaces/radio/aidl/android.hardware.radio.network-V1-ndk-source/gen/include/aidl/android/hardware/radio/network/NrVopsInfo.h:55:3)",
   "referenced_type" : "_ZTIN4aidl7android8hardware5radio7network10NrVopsInfo46$EMC_INDICATOR_BOTH_NR_EUTRA_CONNECTED_TO_5GCNE",
   "self_type" : "_ZTIN4aidl7android8hardware5radio7network10NrVopsInfo46$EMC_INDICATOR_BOTH_NR_EUTRA_CONNECTED_TO_5GCNE",
   "size" : 1,
   "source_file" : "out/soong/.intermediates/hardware/interfaces/radio/aidl/android.hardware.radio.network-V1-ndk-source/gen/include/aidl/android/hardware/radio/network/NrVopsInfo.h",
   "underlying_type" : "_ZTIa"
  },
  {
   "alignment" : 1,
   "enum_fields" :
   [
    {
     "enum_field_value" : 3,
     "name" : "aidl::android::hardware::radio::network::NrVopsInfo::EMF_INDICATOR_BOTH_NR_EUTRA_CONNECTED_TO_5GCN"
    }
   ],
   "linker_set_key" : "_ZTIN4aidl7android8hardware5radio7network10NrVopsInfo46$EMF_INDICATOR_BOTH_NR_EUTRA_CONNECTED_TO_5GCNE",
   "name" : "aidl::android::hardware::radio::network::NrVopsInfo::(unnamed enum at out/soong/.intermediates/hardware/interfaces/radio/aidl/android.hardware.radio.network-V1-ndk-source/gen/include/aidl/android/hardware/radio/network/NrVopsInfo.h:59:3)",
   "referenced_type" : "_ZTIN4aidl7android8hardware5radio7network10NrVopsInfo46$EMF_INDICATOR_BOTH_NR_EUTRA_CONNECTED_TO_5GCNE",
   "self_type" : "_ZTIN4aidl7android8hardware5radio7network10NrVopsInfo46$EMF_INDICATOR_BOTH_NR_EUTRA_CONNECTED_TO_5GCNE",
   "size" : 1,
   "source_file" : "out/soong/.intermediates/hardware/interfaces/radio/aidl/android.hardware.radio.network-V1-ndk-source/gen/include/aidl/android/hardware/radio/network/NrVopsInfo.h",
   "underlying_type" : "_ZTIa"
  },
  {
   "alignment" : 4,
   "enum_fields" :
   [
    {
     "enum_field_value" : 1,
     "name" : "aidl::android::hardware::radio::network::UtranBands::BAND_1"
    },
    {
     "enum_field_value" : 2,
     "name" : "aidl::android::hardware::radio::network::UtranBands::BAND_2"
    },
    {
     "enum_field_value" : 3,
     "name" : "aidl::android::hardware::radio::network::UtranBands::BAND_3"
    },
    {
     "enum_field_value" : 4,
     "name" : "aidl::android::hardware::radio::network::UtranBands::BAND_4"
    },
    {
     "enum_field_value" : 5,
     "name" : "aidl::android::hardware::radio::network::UtranBands::BAND_5"
    },
    {
     "enum_field_value" : 6,
     "name" : "aidl::android::hardware::radio::network::UtranBands::BAND_6"
    },
    {
     "enum_field_value" : 7,
     "name" : "aidl::android::hardware::radio::network::UtranBands::BAND_7"
    },
    {
     "enum_field_value" : 8,
     "name" : "aidl::android::hardware::radio::network::UtranBands::BAND_8"
    },
    {
     "enum_field_value" : 9,
     "name" : "aidl::android::hardware::radio::network::UtranBands::BAND_9"
    },
    {
     "enum_field_value" : 10,
     "name" : "aidl::android::hardware::radio::network::UtranBands::BAND_10"
    },
    {
     "enum_field_value" : 11,
     "name" : "aidl::android::hardware::radio::network::UtranBands::BAND_11"
    },
    {
     "enum_field_value" : 12,
     "name" : "aidl::android::hardware::radio::network::UtranBands::BAND_12"
    },
    {
     "enum_field_value" : 13,
     "name" : "aidl::android::hardware::radio::network::UtranBands::BAND_13"
    },
    {
     "enum_field_value" : 14,
     "name" : "aidl::android::hardware::radio::network::UtranBands::BAND_14"
    },
    {
     "enum_field_value" : 19,
     "name" : "aidl::android::hardware::radio::network::UtranBands::BAND_19"
    },
    {
     "enum_field_value" : 20,
     "name" : "aidl::android::hardware::radio::network::UtranBands::BAND_20"
    },
    {
     "enum_field_value" : 21,
     "name" : "aidl::android::hardware::radio::network::UtranBands::BAND_21"
    },
    {
     "enum_field_value" : 22,
     "name" : "aidl::android::hardware::radio::network::UtranBands::BAND_22"
    },
    {
     "enum_field_value" : 25,
     "name" : "aidl::android::hardware::radio::network::UtranBands::BAND_25"
    },
    {
     "enum_field_value" : 26,
     "name" : "aidl::android::hardware::radio::network::UtranBands::BAND_26"
    },
    {
     "enum_field_value" : 101,
     "name" : "aidl::android::hardware::radio::network::UtranBands::BAND_A"
    },
    {
     "enum_field_value" : 102,
     "name" : "aidl::android::hardware::radio::network::UtranBands::BAND_B"
    },
    {
     "enum_field_value" : 103,
     "name" : "aidl::android::hardware::radio::network::UtranBands::BAND_C"
    },
    {
     "enum_field_value" : 104,
     "name" : "aidl::android::hardware::radio::network::UtranBands::BAND_D"
    },
    {
     "enum_field_value" : 105,
     "name" : "aidl::android::hardware::radio::network::UtranBands::BAND_E"
    },
    {
     "enum_field_value" : 106,
     "name" : "aidl::android::hardware::radio::network::UtranBands::BAND_F"
    }
   ],
   "linker_set_key" : "_ZTIN4aidl7android8hardware5radio7network10UtranBandsE",
   "name" : "aidl::android::hardware::radio::network::UtranBands",
   "referenced_type" : "_ZTIN4aidl7android8hardware5radio7network10UtranBandsE",
   "self_type" : "_ZTIN4aidl7android8hardware5radio7network10UtranBandsE",
   "size" : 4,
   "source_file" : "out/soong/.intermediates/hardware/interfaces/radio/aidl/android.hardware.radio.network-V1-ndk-source/gen/include/aidl/android/hardware/radio/network/UtranBands.h",
   "underlying_type" : "_ZTIi"
  },
  {
   "alignment" : 4,
   "enum_fields" :
   [
    {
     "enum_field_value" : 9,
     "name" : "aidl::android::hardware::radio::network::BarringInfo::SERVICE_TYPE_SMS"
    }
   ],
   "linker_set_key" : "_ZTIN4aidl7android8hardware5radio7network11BarringInfo17$SERVICE_TYPE_SMSE",
   "name" : "aidl::android::hardware::radio::network::BarringInfo::(unnamed enum at out/soong/.intermediates/hardware/interfaces/radio/aidl/android.hardware.radio.network-V1-ndk-source/gen/include/aidl/android/hardware/radio/network/BarringInfo.h:65:3)",
   "referenced_type" : "_ZTIN4aidl7android8hardware5radio7network11BarringInfo17$SERVICE_TYPE_SMSE",
   "self_type" : "_ZTIN4aidl7android8hardware5radio7network11BarringInfo17$SERVICE_TYPE_SMSE",
   "size" : 4,
   "source_file" : "out/soong/.intermediates/hardware/interfaces/radio/aidl/android.hardware.radio.network-V1-ndk-source/gen/include/aidl/android/hardware/radio/network/BarringInfo.h",
   "underlying_type" : "_ZTIi"
  },
  {
   "alignment" : 4,
   "enum_fields" :
   [
    {
     "enum_field_value" : 0,
     "name" : "aidl::android::hardware::radio::network::BarringInfo::BARRING_TYPE_NONE"
    }
   ],
   "linker_set_key" : "_ZTIN4aidl7android8hardware5radio7network11BarringInfo18$BARRING_TYPE_NONEE",
   "name" : "aidl::android::hardware::radio::network::BarringInfo::(unnamed enum at out/soong/.intermediates/hardware/interfaces/radio/aidl/android.hardware.radio.network-V1-ndk-source/gen/include/aidl/android/hardware/radio/network/BarringInfo.h:53:3)",
   "referenced_type" : "_ZTIN4aidl7android8hardware5radio7network11BarringInfo18$BARRING_TYPE_NONEE",
   "self_type" : "_ZTIN4aidl7android8hardware5radio7network11BarringInfo18$BARRING_TYPE_NONEE",
   "size" : 4,
   "source_file" : "out/soong/.intermediates/hardware/interfaces/radio/aidl/android.hardware.radio.network-V1-ndk-source/gen/include/aidl/android/hardware/radio/network/BarringInfo.h",
   "underlying_type" : "_ZTIi"
  },
  {
   "alignment" : 4,
   "enum_fields" :
   [
    {
     "enum_field_value" : 4,
     "name" : "aidl::android::hardware::radio::network::BarringInfo::SERVICE_TYPE_MO_DATA"
    }
   ],
   "linker_set_key" : "_ZTIN4aidl7android8hardware5radio7network11BarringInfo21$SERVICE_TYPE_MO_DATAE",
   "name" : "aidl::android::hardware::radio::network::BarringInfo::(unnamed enum at out/soong/.intermediates/hardware/interfaces/radio/aidl/android.hardware.radio.network-V1-ndk-source/gen/include/aidl/android/hardware/radio/network/BarringInfo.h:60:3)",
   "referenced_type" : "_ZTIN4aidl7android8hardware5radio7network11BarringInfo21$SERVICE_TYPE_MO_DATAE",
   "self_type" : "_ZTIN4aidl7android8hardware5radio7network11BarringInfo21$SERVICE_TYPE_MO_DATAE",
   "size" : 4,
   "source_file" : "out/soong/.intermediates/hardware/interfaces/radio/aidl/android.hardware.radio.network-V1-ndk-source/gen/include/aidl/android/hardware/radio/network/BarringInfo.h",
   "underlying_type" : "_ZTIi"
  },
  {
   "alignment" : 4,
   "enum_fields" :
   [
    {
     "enum_field_value" : 2,
     "name" : "aidl::android::hardware::radio::network::BarringInfo::SERVICE_TYPE_CS_VOICE"
    }
   ],
   "linker_set_key" : "_ZTIN4aidl7android8hardware5radio7network11BarringInfo22$SERVICE_TYPE_CS_VOICEE",
   "name" : "aidl::android::hardware::radio::network::BarringInfo::(unnamed enum at out/soong/.intermediates/hardware/interfaces/radio/aidl/android.hardware.radio.network-V1-ndk-source/gen/include/aidl/android/hardware/radio/network/BarringInfo.h:58:3)",
   "referenced_type" : "_ZTIN4aidl7android8hardware5radio7network11BarringInfo22$SERVICE_TYPE_CS_VOICEE",
   "self_type" : "_ZTIN4aidl7android8hardware5radio7network11BarringInfo22$SERVICE_TYPE_CS_VOICEE",
   "size" : 4,
   "source_file" : "out/soong/.intermediates/hardware/interfaces/radio/aidl/android.hardware.radio.network-V1-ndk-source/gen/include/aidl/android/hardware/radio/network/BarringInfo.h",
   "underlying_type" : "_ZTIi"
  },
  {
   "alignment" : 4,
   "enum_fields" :
   [
    {
     "enum_field_value" : 8,
     "name" : "aidl::android::hardware::radio::network::BarringInfo::SERVICE_TYPE_EMERGENCY"
    }
   ],
   "linker_set_key" : "_ZTIN4aidl7android8hardware5radio7network11BarringInfo23$SERVICE_TYPE_EMERGENCYE",
   "name" : "aidl::android::hardware::radio::network::BarringInfo::(unnamed enum at out/soong/.intermediates/hardware/interfaces/radio/aidl/android.hardware.radio.network-V1-ndk-source/gen/include/aidl/android/hardware/radio/network/BarringInfo.h:64:3)",
   "referenced_type" : "_ZTIN4aidl7android8hardware5radio7network11BarringInfo23$SERVICE_TYPE_EMERGENCYE",
   "self_type" : "_ZTIN4aidl7android8hardware5radio7network11BarringInfo23$SERVICE_TYPE_EMERGENCYE",
   "size" : 4,
   "source_file" : "out/soong/.intermediates/hardware/interfaces/radio/aidl/android.hardware.radio.network-V1-ndk-source/gen/include/aidl/android/hardware/radio/network/BarringInfo.h",
   "underlying_type" : "_ZTIi"
  },
  {
   "alignment" : 4,
   "enum_fields" :
   [
    {
     "enum_field_value" : 0,
     "name" : "aidl::android::hardware::radio::network::BarringInfo::SERVICE_TYPE_CS_SERVICE"
    }
   ],
   "linker_set_key" : "_ZTIN4aidl7android8hardware5radio7network11BarringInfo24$SERVICE_TYPE_CS_SERVICEE",
   "name" : "aidl::android::hardware::radio::network::BarringInfo::(unnamed enum at out/soong/.intermediates/hardware/interfaces/radio/aidl/android.hardware.radio.network-V1-ndk-source/gen/include/aidl/android/hardware/radio/network/BarringInfo.h:56:3)",
   "referenced_type" : "_ZTIN4aidl7android8hardware5radio7network11BarringInfo24$SERVICE_TYPE_CS_SERVICEE",
   "self_type" : "_ZTIN4aidl7android8hardware5radio7network11BarringInfo24$SERVICE_TYPE_CS_SERVICEE",
   "size" : 4,
   "source_file" : "out/soong/.intermediates/hardware/interfaces/radio/aidl/android.hardware.radio.network-V1-ndk-source/gen/include/aidl/android/hardware/radio/network/BarringInfo.h",
   "underlying_type" : "_ZTIi"
  },
  {
   "alignment" : 4,
   "enum_fields" :
   [
    {
     "enum_field_value" : 1001,
     "name" : "aidl::android::hardware::radio::network::BarringInfo::SERVICE_TYPE_OPERATOR_1"
    }
   ],
   "linker_set_key" : "_ZTIN4aidl7android8hardware5radio7network11BarringInfo24$SERVICE_TYPE_OPERATOR_1E",
   "name" : "aidl::android::hardware::radio::network::BarringInfo::(unnamed enum at out/soong/.intermediates/hardware/interfaces/radio/aidl/android.hardware.radio.network-V1-ndk-source/gen/include/aidl/android/hardware/radio/network/BarringInfo.h:66:3)",
   "referenced_type" : "_ZTIN4aidl7android8hardware5radio7network11BarringInfo24$SERVICE_TYPE_OPERATOR_1E",
   "self_type" : "_ZTIN4aidl7android8hardware5radio7network11BarringInfo24$SERVICE_TYPE_OPERATOR_1E",
   "size" : 4,
   "source_file" : "out/soong/.intermediates/hardware/interfaces/radio/aidl/android.hardware.radio.network-V1-ndk-source/gen/include/aidl/android/hardware/radio/network/BarringInfo.h",
   "underlying_type" : "_ZTIi"
  },
  {
   "alignment" : 4,
   "enum_fields" :
   [
    {
     "enum_field_value" : 1002,
     "name" : "aidl::android::hardware::radio::network::BarringInfo::SERVICE_TYPE_OPERATOR_2"
    }
   ],
   "linker_set_key" : "_ZTIN4aidl7android8hardware5radio7network11BarringInfo24$SERVICE_TYPE_OPERATOR_2E",
   "name" : "aidl::android::hardware::radio::network::BarringInfo::(unnamed enum at out/soong/.intermediates/hardware/interfaces/radio/aidl/android.hardware.radio.network-V1-ndk-source/gen/include/aidl/android/hardware/radio/network/BarringInfo.h:67:3)",
   "referenced_type" : "_ZTIN4aidl7android8hardware5radio7network11BarringInfo24$SERVICE_TYPE_OPERATOR_2E",
   "self_type" : "_ZTIN4aidl7android8hardware5radio7network11BarringInfo24$SERVICE_TYPE_OPERATOR_2E",
   "size" : 4,
   "source_file" : "out/soong/.intermediates/hardware/interfaces/radio/aidl/android.hardware.radio.network-V1-ndk-source/gen/include/aidl/android/hardware/radio/network/BarringInfo.h",
   "underlying_type" : "_ZTIi"
  },
  {
   "alignment" : 4,
   "enum_fields" :
   [
    {
     "enum_field_value" : 1003,
     "name" : "aidl::android::hardware::radio::network::BarringInfo::SERVICE_TYPE_OPERATOR_3"
    }
   ],
   "linker_set_key" : "_ZTIN4aidl7android8hardware5radio7network11BarringInfo24$SERVICE_TYPE_OPERATOR_3E",
   "name" : "aidl::android::hardware::radio::network::BarringInfo::(unnamed enum at out/soong/.intermediates/hardware/interfaces/radio/aidl/android.hardware.radio.network-V1-ndk-source/gen/include/aidl/android/hardware/radio/network/BarringInfo.h:68:3)",
   "referenced_type" : "_ZTIN4aidl7android8hardware5radio7network11BarringInfo24$SERVICE_TYPE_OPERATOR_3E",
   "self_type" : "_ZTIN4aidl7android8hardware5radio7network11BarringInfo24$SERVICE_TYPE_OPERATOR_3E",
   "size" : 4,
   "source_file" : "out/soong/.intermediates/hardware/interfaces/radio/aidl/android.hardware.radio.network-V1-ndk-source/gen/include/aidl/android/hardware/radio/network/BarringInfo.h",
   "underlying_type" : "_ZTIi"
  },
  {
   "alignment" : 4,
   "enum_fields" :
   [
    {
     "enum_field_value" : 1004,
     "name" : "aidl::android::hardware::radio::network::BarringInfo::SERVICE_TYPE_OPERATOR_4"
    }
   ],
   "linker_set_key" : "_ZTIN4aidl7android8hardware5radio7network11BarringInfo24$SERVICE_TYPE_OPERATOR_4E",
   "name" : "aidl::android::hardware::radio::network::BarringInfo::(unnamed enum at out/soong/.intermediates/hardware/interfaces/radio/aidl/android.hardware.radio.network-V1-ndk-source/gen/include/aidl/android/hardware/radio/network/BarringInfo.h:69:3)",
   "referenced_type" : "_ZTIN4aidl7android8hardware5radio7network11BarringInfo24$SERVICE_TYPE_OPERATOR_4E",
   "self_type" : "_ZTIN4aidl7android8hardware5radio7network11BarringInfo24$SERVICE_TYPE_OPERATOR_4E",
   "size" : 4,
   "source_file" : "out/soong/.intermediates/hardware/interfaces/radio/aidl/android.hardware.radio.network-V1-ndk-source/gen/include/aidl/android/hardware/radio/network/BarringInfo.h",
   "underlying_type" : "_ZTIi"
  },
  {
   "alignment" : 4,
   "enum_fields" :
   [
    {
     "enum_field_value" : 1005,
     "name" : "aidl::android::hardware::radio::network::BarringInfo::SERVICE_TYPE_OPERATOR_5"
    }
   ],
   "linker_set_key" : "_ZTIN4aidl7android8hardware5radio7network11BarringInfo24$SERVICE_TYPE_OPERATOR_5E",
   "name" : "aidl::android::hardware::radio::network::BarringInfo::(unnamed enum at out/soong/.intermediates/hardware/interfaces/radio/aidl/android.hardware.radio.network-V1-ndk-source/gen/include/aidl/android/hardware/radio/network/BarringInfo.h:70:3)",
   "referenced_type" : "_ZTIN4aidl7android8hardware5radio7network11BarringInfo24$SERVICE_TYPE_OPERATOR_5E",
   "self_type" : "_ZTIN4aidl7android8hardware5radio7network11BarringInfo24$SERVICE_TYPE_OPERATOR_5E",
   "size" : 4,
   "source_file" : "out/soong/.intermediates/hardware/interfaces/radio/aidl/android.hardware.radio.network-V1-ndk-source/gen/include/aidl/android/hardware/radio/network/BarringInfo.h",
   "underlying_type" : "_ZTIi"
  },
  {
   "alignment" : 4,
   "enum_fields" :
   [
    {
     "enum_field_value" : 1006,
     "name" : "aidl::android::hardware::radio::network::BarringInfo::SERVICE_TYPE_OPERATOR_6"
    }
   ],
   "linker_set_key" : "_ZTIN4aidl7android8hardware5radio7network11BarringInfo24$SERVICE_TYPE_OPERATOR_6E",
   "name" : "aidl::android::hardware::radio::network::BarringInfo::(unnamed enum at out/soong/.intermediates/hardware/interfaces/radio/aidl/android.hardware.radio.network-V1-ndk-source/gen/include/aidl/android/hardware/radio/network/BarringInfo.h:71:3)",
   "referenced_type" : "_ZTIN4aidl7android8hardware5radio7network11BarringInfo24$SERVICE_TYPE_OPERATOR_6E",
   "self_type" : "_ZTIN4aidl7android8hardware5radio7network11BarringInfo24$SERVICE_TYPE_OPERATOR_6E",
   "size" : 4,
   "source_file" : "out/soong/.intermediates/hardware/interfaces/radio/aidl/android.hardware.radio.network-V1-ndk-source/gen/include/aidl/android/hardware/radio/network/BarringInfo.h",
   "underlying_type" : "_ZTIi"
  },
  {
   "alignment" : 4,
   "enum_fields" :
   [
    {
     "enum_field_value" : 1007,
     "name" : "aidl::android::hardware::radio::network::BarringInfo::SERVICE_TYPE_OPERATOR_7"
    }
   ],
   "linker_set_key" : "_ZTIN4aidl7android8hardware5radio7network11BarringInfo24$SERVICE_TYPE_OPERATOR_7E",
   "name" : "aidl::android::hardware::radio::network::BarringInfo::(unnamed enum at out/soong/.intermediates/hardware/interfaces/radio/aidl/android.hardware.radio.network-V1-ndk-source/gen/include/aidl/android/hardware/radio/network/BarringInfo.h:72:3)",
   "referenced_type" : "_ZTIN4aidl7android8hardware5radio7network11BarringInfo24$SERVICE_TYPE_OPERATOR_7E",
   "self_type" : "_ZTIN4aidl7android8hardware5radio7network11BarringInfo24$SERVICE_TYPE_OPERATOR_7E",
   "size" : 4,
   "source_file" : "out/soong/.intermediates/hardware/interfaces/radio/aidl/android.hardware.radio.network-V1-ndk-source/gen/include/aidl/android/hardware/radio/network/BarringInfo.h",
   "underlying_type" : "_ZTIi"
  },
  {
   "alignment" : 4,
   "enum_fields" :
   [
    {
     "enum_field_value" : 1008,
     "name" : "aidl::android::hardware::radio::network::BarringInfo::SERVICE_TYPE_OPERATOR_8"
    }
   ],
   "linker_set_key" : "_ZTIN4aidl7android8hardware5radio7network11BarringInfo24$SERVICE_TYPE_OPERATOR_8E",
   "name" : "aidl::android::hardware::radio::network::BarringInfo::(unnamed enum at out/soong/.intermediates/hardware/interfaces/radio/aidl/android.hardware.radio.network-V1-ndk-source/gen/include/aidl/android/hardware/radio/network/BarringInfo.h:73:3)",
   "referenced_type" : "_ZTIN4aidl7android8hardware5radio7network11BarringInfo24$SERVICE_TYPE_OPERATOR_8E",
   "self_type" : "_ZTIN4aidl7android8hardware5radio7network11BarringInfo24$SERVICE_TYPE_OPERATOR_8E",
   "size" : 4,
   "source_file" : "out/soong/.intermediates/hardware/interfaces/radio/aidl/android.hardware.radio.network-V1-ndk-source/gen/include/aidl/android/hardware/radio/network/BarringInfo.h",
   "underlying_type" : "_ZTIi"
  },
  {
   "alignment" : 4,
   "enum_fields" :
   [
    {
     "enum_field_value" : 1009,
     "name" : "aidl::android::hardware::radio::network::BarringInfo::SERVICE_TYPE_OPERATOR_9"
    }
   ],
   "linker_set_key" : "_ZTIN4aidl7android8hardware5radio7network11BarringInfo24$SERVICE_TYPE_OPERATOR_9E",
   "name" : "aidl::android::hardware::radio::network::BarringInfo::(unnamed enum at out/soong/.intermediates/hardware/interfaces/radio/aidl/android.hardware.radio.network-V1-ndk-source/gen/include/aidl/android/hardware/radio/network/BarringInfo.h:74:3)",
   "referenced_type" : "_ZTIN4aidl7android8hardware5radio7network11BarringInfo24$SERVICE_TYPE_OPERATOR_9E",
   "self_type" : "_ZTIN4aidl7android8hardware5radio7network11BarringInfo24$SERVICE_TYPE_OPERATOR_9E",
   "size" : 4,
   "source_file" : "out/soong/.intermediates/hardware/interfaces/radio/aidl/android.hardware.radio.network-V1-ndk-source/gen/include/aidl/android/hardware/radio/network/BarringInfo.h",
   "underlying_type" : "_ZTIi"
  },
  {
   "alignment" : 4,
   "enum_fields" :
   [
    {
     "enum_field_value" : 1,
     "name" : "aidl::android::hardware::radio::network::BarringInfo::SERVICE_TYPE_PS_SERVICE"
    }
   ],
   "linker_set_key" : "_ZTIN4aidl7android8hardware5radio7network11BarringInfo24$SERVICE_TYPE_PS_SERVICEE",
   "name" : "aidl::android::hardware::radio::network::BarringInfo::(unnamed enum at out/soong/.intermediates/hardware/interfaces/radio/aidl/android.hardware.radio.network-V1-ndk-source/gen/include/aidl/android/hardware/radio/network/BarringInfo.h:57:3)",
   "referenced_type" : "_ZTIN4aidl7android8hardware5radio7network11BarringInfo24$SERVICE_TYPE_PS_SERVICEE",
   "self_type" : "_ZTIN4aidl7android8hardware5radio7network11BarringInfo24$SERVICE_TYPE_PS_SERVICEE",
   "size" : 4,
   "source_file" : "out/soong/.intermediates/hardware/interfaces/radio/aidl/android.hardware.radio.network-V1-ndk-source/gen/include/aidl/android/hardware/radio/network/BarringInfo.h",
   "underlying_type" : "_ZTIi"
  },
  {
   "alignment" : 4,
   "enum_fields" :
   [
    {
     "enum_field_value" : 1,
     "name" : "aidl::android::hardware::radio::network::BarringInfo::BARRING_TYPE_CONDITIONAL"
    }
   ],
   "linker_set_key" : "_ZTIN4aidl7android8hardware5radio7network11BarringInfo25$BARRING_TYPE_CONDITIONALE",
   "name" : "aidl::android::hardware::radio::network::BarringInfo::(unnamed enum at out/soong/.intermediates/hardware/interfaces/radio/aidl/android.hardware.radio.network-V1-ndk-source/gen/include/aidl/android/hardware/radio/network/BarringInfo.h:54:3)",
   "referenced_type" : "_ZTIN4aidl7android8hardware5radio7network11BarringInfo25$BARRING_TYPE_CONDITIONALE",
   "self_type" : "_ZTIN4aidl7android8hardware5radio7network11BarringInfo25$BARRING_TYPE_CONDITIONALE",
   "size" : 4,
   "source_file" : "out/soong/.intermediates/hardware/interfaces/radio/aidl/android.hardware.radio.network-V1-ndk-source/gen/include/aidl/android/hardware/radio/network/BarringInfo.h",
   "underlying_type" : "_ZTIi"
  },
  {
   "alignment" : 4,
   "enum_fields" :
   [
    {
     "enum_field_value" : 5,
     "name" : "aidl::android::hardware::radio::network::BarringInfo::SERVICE_TYPE_CS_FALLBACK"
    }
   ],
   "linker_set_key" : "_ZTIN4aidl7android8hardware5radio7network11BarringInfo25$SERVICE_TYPE_CS_FALLBACKE",
   "name" : "aidl::android::hardware::radio::network::BarringInfo::(unnamed enum at out/soong/.intermediates/hardware/interfaces/radio/aidl/android.hardware.radio.network-V1-ndk-source/gen/include/aidl/android/hardware/radio/network/BarringInfo.h:61:3)",
   "referenced_type" : "_ZTIN4aidl7android8hardware5radio7network11BarringInfo25$SERVICE_TYPE_CS_FALLBACKE",
   "self_type" : "_ZTIN4aidl7android8hardware5radio7network11BarringInfo25$SERVICE_TYPE_CS_FALLBACKE",
   "size" : 4,
   "source_file" : "out/soong/.intermediates/hardware/interfaces/radio/aidl/android.hardware.radio.network-V1-ndk-source/gen/include/aidl/android/hardware/radio/network/BarringInfo.h",
   "underlying_type" : "_ZTIi"
  },
  {
   "alignment" : 4,
   "enum_fields" :
   [
    {
     "enum_field_value" : 7,
     "name" : "aidl::android::hardware::radio::network::BarringInfo::SERVICE_TYPE_MMTEL_VIDEO"
    }
   ],
   "linker_set_key" : "_ZTIN4aidl7android8hardware5radio7network11BarringInfo25$SERVICE_TYPE_MMTEL_VIDEOE",
   "name" : "aidl::android::hardware::radio::network::BarringInfo::(unnamed enum at out/soong/.intermediates/hardware/interfaces/radio/aidl/android.hardware.radio.network-V1-ndk-source/gen/include/aidl/android/hardware/radio/network/BarringInfo.h:63:3)",
   "referenced_type" : "_ZTIN4aidl7android8hardware5radio7network11BarringInfo25$SERVICE_TYPE_MMTEL_VIDEOE",
   "self_type" : "_ZTIN4aidl7android8hardware5radio7network11BarringInfo25$SERVICE_TYPE_MMTEL_VIDEOE",
   "size" : 4,
   "source_file" : "out/soong/.intermediates/hardware/interfaces/radio/aidl/android.hardware.radio.network-V1-ndk-source/gen/include/aidl/android/hardware/radio/network/BarringInfo.h",
   "underlying_type" : "_ZTIi"
  },
  {
   "alignment" : 4,
   "enum_fields" :
   [
    {
     "enum_field_value" : 6,
     "name" : "aidl::android::hardware::radio::network::BarringInfo::SERVICE_TYPE_MMTEL_VOICE"
    }
   ],
   "linker_set_key" : "_ZTIN4aidl7android8hardware5radio7network11BarringInfo25$SERVICE_TYPE_MMTEL_VOICEE",
   "name" : "aidl::android::hardware::radio::network::BarringInfo::(unnamed enum at out/soong/.intermediates/hardware/interfaces/radio/aidl/android.hardware.radio.network-V1-ndk-source/gen/include/aidl/android/hardware/radio/network/BarringInfo.h:62:3)",
   "referenced_type" : "_ZTIN4aidl7android8hardware5radio7network11BarringInfo25$SERVICE_TYPE_MMTEL_VOICEE",
   "self_type" : "_ZTIN4aidl7android8hardware5radio7network11BarringInfo25$SERVICE_TYPE_MMTEL_VOICEE",
   "size" : 4,
   "source_file" : "out/soong/.intermediates/hardware/interfaces/radio/aidl/android.hardware.radio.network-V1-ndk-source/gen/include/aidl/android/hardware/radio/network/BarringInfo.h",
   "underlying_type" : "_ZTIi"
  },
  {
   "alignment" : 4,
   "enum_fields" :
   [
    {
     "enum_field_value" : 1010,
     "name" : "aidl::android::hardware::radio::network::BarringInfo::SERVICE_TYPE_OPERATOR_10"
    }
   ],
   "linker_set_key" : "_ZTIN4aidl7android8hardware5radio7network11BarringInfo25$SERVICE_TYPE_OPERATOR_10E",
   "name" : "aidl::android::hardware::radio::network::BarringInfo::(unnamed enum at out/soong/.intermediates/hardware/interfaces/radio/aidl/android.hardware.radio.network-V1-ndk-source/gen/include/aidl/android/hardware/radio/network/BarringInfo.h:75:3)",
   "referenced_type" : "_ZTIN4aidl7android8hardware5radio7network11BarringInfo25$SERVICE_TYPE_OPERATOR_10E",
   "self_type" : "_ZTIN4aidl7android8hardware5radio7network11BarringInfo25$SERVICE_TYPE_OPERATOR_10E",
   "size" : 4,
   "source_file" : "out/soong/.intermediates/hardware/interfaces/radio/aidl/android.hardware.radio.network-V1-ndk-source/gen/include/aidl/android/hardware/radio/network/BarringInfo.h",
   "underlying_type" : "_ZTIi"
  },
  {
   "alignment" : 4,
   "enum_fields" :
   [
    {
     "enum_field_value" : 1011,
     "name" : "aidl::android::hardware::radio::network::BarringInfo::SERVICE_TYPE_OPERATOR_11"
    }
   ],
   "linker_set_key" : "_ZTIN4aidl7android8hardware5radio7network11BarringInfo25$SERVICE_TYPE_OPERATOR_11E",
   "name" : "aidl::android::hardware::radio::network::BarringInfo::(unnamed enum at out/soong/.intermediates/hardware/interfaces/radio/aidl/android.hardware.radio.network-V1-ndk-source/gen/include/aidl/android/hardware/radio/network/BarringInfo.h:76:3)",
   "referenced_type" : "_ZTIN4aidl7android8hardware5radio7network11BarringInfo25$SERVICE_TYPE_OPERATOR_11E",
   "self_type" : "_ZTIN4aidl7android8hardware5radio7network11BarringInfo25$SERVICE_TYPE_OPERATOR_11E",
   "size" : 4,
   "source_file" : "out/soong/.intermediates/hardware/interfaces/radio/aidl/android.hardware.radio.network-V1-ndk-source/gen/include/aidl/android/hardware/radio/network/BarringInfo.h",
   "underlying_type" : "_ZTIi"
  },
  {
   "alignment" : 4,
   "enum_fields" :
   [
    {
     "enum_field_value" : 1012,
     "name" : "aidl::android::hardware::radio::network::BarringInfo::SERVICE_TYPE_OPERATOR_12"
    }
   ],
   "linker_set_key" : "_ZTIN4aidl7android8hardware5radio7network11BarringInfo25$SERVICE_TYPE_OPERATOR_12E",
   "name" : "aidl::android::hardware::radio::network::BarringInfo::(unnamed enum at out/soong/.intermediates/hardware/interfaces/radio/aidl/android.hardware.radio.network-V1-ndk-source/gen/include/aidl/android/hardware/radio/network/BarringInfo.h:77:3)",
   "referenced_type" : "_ZTIN4aidl7android8hardware5radio7network11BarringInfo25$SERVICE_TYPE_OPERATOR_12E",
   "self_type" : "_ZTIN4aidl7android8hardware5radio7network11BarringInfo25$SERVICE_TYPE_OPERATOR_12E",
   "size" : 4,
   "source_file" : "out/soong/.intermediates/hardware/interfaces/radio/aidl/android.hardware.radio.network-V1-ndk-source/gen/include/aidl/android/hardware/radio/network/BarringInfo.h",
   "underlying_type" : "_ZTIi"
  },
  {
   "alignment" : 4,
   "enum_fields" :
   [
    {
     "enum_field_value" : 1013,
     "name" : "aidl::android::hardware::radio::network::BarringInfo::SERVICE_TYPE_OPERATOR_13"
    }
   ],
   "linker_set_key" : "_ZTIN4aidl7android8hardware5radio7network11BarringInfo25$SERVICE_TYPE_OPERATOR_13E",
   "name" : "aidl::android::hardware::radio::network::BarringInfo::(unnamed enum at out/soong/.intermediates/hardware/interfaces/radio/aidl/android.hardware.radio.network-V1-ndk-source/gen/include/aidl/android/hardware/radio/network/BarringInfo.h:78:3)",
   "referenced_type" : "_ZTIN4aidl7android8hardware5radio7network11BarringInfo25$SERVICE_TYPE_OPERATOR_13E",
   "self_type" : "_ZTIN4aidl7android8hardware5radio7network11BarringInfo25$SERVICE_TYPE_OPERATOR_13E",
   "size" : 4,
   "source_file" : "out/soong/.intermediates/hardware/interfaces/radio/aidl/android.hardware.radio.network-V1-ndk-source/gen/include/aidl/android/hardware/radio/network/BarringInfo.h",
   "underlying_type" : "_ZTIi"
  },
  {
   "alignment" : 4,
   "enum_fields" :
   [
    {
     "enum_field_value" : 1014,
     "name" : "aidl::android::hardware::radio::network::BarringInfo::SERVICE_TYPE_OPERATOR_14"
    }
   ],
   "linker_set_key" : "_ZTIN4aidl7android8hardware5radio7network11BarringInfo25$SERVICE_TYPE_OPERATOR_14E",
   "name" : "aidl::android::hardware::radio::network::BarringInfo::(unnamed enum at out/soong/.intermediates/hardware/interfaces/radio/aidl/android.hardware.radio.network-V1-ndk-source/gen/include/aidl/android/hardware/radio/network/BarringInfo.h:79:3)",
   "referenced_type" : "_ZTIN4aidl7android8hardware5radio7network11BarringInfo25$SERVICE_TYPE_OPERATOR_14E",
   "self_type" : "_ZTIN4aidl7android8hardware5radio7network11BarringInfo25$SERVICE_TYPE_OPERATOR_14E",
   "size" : 4,
   "source_file" : "out/soong/.intermediates/hardware/interfaces/radio/aidl/android.hardware.radio.network-V1-ndk-source/gen/include/aidl/android/hardware/radio/network/BarringInfo.h",
   "underlying_type" : "_ZTIi"
  },
  {
   "alignment" : 4,
   "enum_fields" :
   [
    {
     "enum_field_value" : 1015,
     "name" : "aidl::android::hardware::radio::network::BarringInfo::SERVICE_TYPE_OPERATOR_15"
    }
   ],
   "linker_set_key" : "_ZTIN4aidl7android8hardware5radio7network11BarringInfo25$SERVICE_TYPE_OPERATOR_15E",
   "name" : "aidl::android::hardware::radio::network::BarringInfo::(unnamed enum at out/soong/.intermediates/hardware/interfaces/radio/aidl/android.hardware.radio.network-V1-ndk-source/gen/include/aidl/android/hardware/radio/network/BarringInfo.h:80:3)",
   "referenced_type" : "_ZTIN4aidl7android8hardware5radio7network11BarringInfo25$SERVICE_TYPE_OPERATOR_15E",
   "self_type" : "_ZTIN4aidl7android8hardware5radio7network11BarringInfo25$SERVICE_TYPE_OPERATOR_15E",
   "size" : 4,
   "source_file" : "out/soong/.intermediates/hardware/interfaces/radio/aidl/android.hardware.radio.network-V1-ndk-source/gen/include/aidl/android/hardware/radio/network/BarringInfo.h",
   "underlying_type" : "_ZTIi"
  },
  {
   "alignment" : 4,
   "enum_fields" :
   [
    {
     "enum_field_value" : 1016,
     "name" : "aidl::android::hardware::radio::network::BarringInfo::SERVICE_TYPE_OPERATOR_16"
    }
   ],
   "linker_set_key" : "_ZTIN4aidl7android8hardware5radio7network11BarringInfo25$SERVICE_TYPE_OPERATOR_16E",
   "name" : "aidl::android::hardware::radio::network::BarringInfo::(unnamed enum at out/soong/.intermediates/hardware/interfaces/radio/aidl/android.hardware.radio.network-V1-ndk-source/gen/include/aidl/android/hardware/radio/network/BarringInfo.h:81:3)",
   "referenced_type" : "_ZTIN4aidl7android8hardware5radio7network11BarringInfo25$SERVICE_TYPE_OPERATOR_16E",
   "self_type" : "_ZTIN4aidl7android8hardware5radio7network11BarringInfo25$SERVICE_TYPE_OPERATOR_16E",
   "size" : 4,
   "source_file" : "out/soong/.intermediates/hardware/interfaces/radio/aidl/android.hardware.radio.network-V1-ndk-source/gen/include/aidl/android/hardware/radio/network/BarringInfo.h",
   "underlying_type" : "_ZTIi"
  },
  {
   "alignment" : 4,
   "enum_fields" :
   [
    {
     "enum_field_value" : 1017,
     "name" : "aidl::android::hardware::radio::network::BarringInfo::SERVICE_TYPE_OPERATOR_17"
    }
   ],
   "linker_set_key" : "_ZTIN4aidl7android8hardware5radio7network11BarringInfo25$SERVICE_TYPE_OPERATOR_17E",
   "name" : "aidl::android::hardware::radio::network::BarringInfo::(unnamed enum at out/soong/.intermediates/hardware/interfaces/radio/aidl/android.hardware.radio.network-V1-ndk-source/gen/include/aidl/android/hardware/radio/network/BarringInfo.h:82:3)",
   "referenced_type" : "_ZTIN4aidl7android8hardware5radio7network11BarringInfo25$SERVICE_TYPE_OPERATOR_17E",
   "self_type" : "_ZTIN4aidl7android8hardware5radio7network11BarringInfo25$SERVICE_TYPE_OPERATOR_17E",
   "size" : 4,
   "source_file" : "out/soong/.intermediates/hardware/interfaces/radio/aidl/android.hardware.radio.network-V1-ndk-source/gen/include/aidl/android/hardware/radio/network/BarringInfo.h",
   "underlying_type" : "_ZTIi"
  },
  {
   "alignment" : 4,
   "enum_fields" :
   [
    {
     "enum_field_value" : 1018,
     "name" : "aidl::android::hardware::radio::network::BarringInfo::SERVICE_TYPE_OPERATOR_18"
    }
   ],
   "linker_set_key" : "_ZTIN4aidl7android8hardware5radio7network11BarringInfo25$SERVICE_TYPE_OPERATOR_18E",
   "name" : "aidl::android::hardware::radio::network::BarringInfo::(unnamed enum at out/soong/.intermediates/hardware/interfaces/radio/aidl/android.hardware.radio.network-V1-ndk-source/gen/include/aidl/android/hardware/radio/network/BarringInfo.h:83:3)",
   "referenced_type" : "_ZTIN4aidl7android8hardware5radio7network11BarringInfo25$SERVICE_TYPE_OPERATOR_18E",
   "self_type" : "_ZTIN4aidl7android8hardware5radio7network11BarringInfo25$SERVICE_TYPE_OPERATOR_18E",
   "size" : 4,
   "source_file" : "out/soong/.intermediates/hardware/interfaces/radio/aidl/android.hardware.radio.network-V1-ndk-source/gen/include/aidl/android/hardware/radio/network/BarringInfo.h",
   "underlying_type" : "_ZTIi"
  },
  {
   "alignment" : 4,
   "enum_fields" :
   [
    {
     "enum_field_value" : 1019,
     "name" : "aidl::android::hardware::radio::network::BarringInfo::SERVICE_TYPE_OPERATOR_19"
    }
   ],
   "linker_set_key" : "_ZTIN4aidl7android8hardware5radio7network11BarringInfo25$SERVICE_TYPE_OPERATOR_19E",
   "name" : "aidl::android::hardware::radio::network::BarringInfo::(unnamed enum at out/soong/.intermediates/hardware/interfaces/radio/aidl/android.hardware.radio.network-V1-ndk-source/gen/include/aidl/android/hardware/radio/network/BarringInfo.h:84:3)",
   "referenced_type" : "_ZTIN4aidl7android8hardware5radio7network11BarringInfo25$SERVICE_TYPE_OPERATOR_19E",
   "self_type" : "_ZTIN4aidl7android8hardware5radio7network11BarringInfo25$SERVICE_TYPE_OPERATOR_19E",
   "size" : 4,
   "source_file" : "out/soong/.intermediates/hardware/interfaces/radio/aidl/android.hardware.radio.network-V1-ndk-source/gen/include/aidl/android/hardware/radio/network/BarringInfo.h",
   "underlying_type" : "_ZTIi"
  },
  {
   "alignment" : 4,
   "enum_fields" :
   [
    {
     "enum_field_value" : 1020,
     "name" : "aidl::android::hardware::radio::network::BarringInfo::SERVICE_TYPE_OPERATOR_20"
    }
   ],
   "linker_set_key" : "_ZTIN4aidl7android8hardware5radio7network11BarringInfo25$SERVICE_TYPE_OPERATOR_20E",
   "name" : "aidl::android::hardware::radio::network::BarringInfo::(unnamed enum at out/soong/.intermediates/hardware/interfaces/radio/aidl/android.hardware.radio.network-V1-ndk-source/gen/include/aidl/android/hardware/radio/network/BarringInfo.h:85:3)",
   "referenced_type" : "_ZTIN4aidl7android8hardware5radio7network11BarringInfo25$SERVICE_TYPE_OPERATOR_20E",
   "self_type" : "_ZTIN4aidl7android8hardware5radio7network11BarringInfo25$SERVICE_TYPE_OPERATOR_20E",
   "size" : 4,
   "source_file" : "out/soong/.intermediates/hardware/interfaces/radio/aidl/android.hardware.radio.network-V1-ndk-source/gen/include/aidl/android/hardware/radio/network/BarringInfo.h",
   "underlying_type" : "_ZTIi"
  },
  {
   "alignment" : 4,
   "enum_fields" :
   [
    {
     "enum_field_value" : 1021,
     "name" : "aidl::android::hardware::radio::network::BarringInfo::SERVICE_TYPE_OPERATOR_21"
    }
   ],
   "linker_set_key" : "_ZTIN4aidl7android8hardware5radio7network11BarringInfo25$SERVICE_TYPE_OPERATOR_21E",
   "name" : "aidl::android::hardware::radio::network::BarringInfo::(unnamed enum at out/soong/.intermediates/hardware/interfaces/radio/aidl/android.hardware.radio.network-V1-ndk-source/gen/include/aidl/android/hardware/radio/network/BarringInfo.h:86:3)",
   "referenced_type" : "_ZTIN4aidl7android8hardware5radio7network11BarringInfo25$SERVICE_TYPE_OPERATOR_21E",
   "self_type" : "_ZTIN4aidl7android8hardware5radio7network11BarringInfo25$SERVICE_TYPE_OPERATOR_21E",
   "size" : 4,
   "source_file" : "out/soong/.intermediates/hardware/interfaces/radio/aidl/android.hardware.radio.network-V1-ndk-source/gen/include/aidl/android/hardware/radio/network/BarringInfo.h",
   "underlying_type" : "_ZTIi"
  },
  {
   "alignment" : 4,
   "enum_fields" :
   [
    {
     "enum_field_value" : 1022,
     "name" : "aidl::android::hardware::radio::network::BarringInfo::SERVICE_TYPE_OPERATOR_22"
    }
   ],
   "linker_set_key" : "_ZTIN4aidl7android8hardware5radio7network11BarringInfo25$SERVICE_TYPE_OPERATOR_22E",
   "name" : "aidl::android::hardware::radio::network::BarringInfo::(unnamed enum at out/soong/.intermediates/hardware/interfaces/radio/aidl/android.hardware.radio.network-V1-ndk-source/gen/include/aidl/android/hardware/radio/network/BarringInfo.h:87:3)",
   "referenced_type" : "_ZTIN4aidl7android8hardware5radio7network11BarringInfo25$SERVICE_TYPE_OPERATOR_22E",
   "self_type" : "_ZTIN4aidl7android8hardware5radio7network11BarringInfo25$SERVICE_TYPE_OPERATOR_22E",
   "size" : 4,
   "source_file" : "out/soong/.intermediates/hardware/interfaces/radio/aidl/android.hardware.radio.network-V1-ndk-source/gen/include/aidl/android/hardware/radio/network/BarringInfo.h",
   "underlying_type" : "_ZTIi"
  },
  {
   "alignment" : 4,
   "enum_fields" :
   [
    {
     "enum_field_value" : 1023,
     "name" : "aidl::android::hardware::radio::network::BarringInfo::SERVICE_TYPE_OPERATOR_23"
    }
   ],
   "linker_set_key" : "_ZTIN4aidl7android8hardware5radio7network11BarringInfo25$SERVICE_TYPE_OPERATOR_23E",
   "name" : "aidl::android::hardware::radio::network::BarringInfo::(unnamed enum at out/soong/.intermediates/hardware/interfaces/radio/aidl/android.hardware.radio.network-V1-ndk-source/gen/include/aidl/android/hardware/radio/network/BarringInfo.h:88:3)",
   "referenced_type" : "_ZTIN4aidl7android8hardware5radio7network11BarringInfo25$SERVICE_TYPE_OPERATOR_23E",
   "self_type" : "_ZTIN4aidl7android8hardware5radio7network11BarringInfo25$SERVICE_TYPE_OPERATOR_23E",
   "size" : 4,
   "source_file" : "out/soong/.intermediates/hardware/interfaces/radio/aidl/android.hardware.radio.network-V1-ndk-source/gen/include/aidl/android/hardware/radio/network/BarringInfo.h",
   "underlying_type" : "_ZTIi"
  },
  {
   "alignment" : 4,
   "enum_fields" :
   [
    {
     "enum_field_value" : 1024,
     "name" : "aidl::android::hardware::radio::network::BarringInfo::SERVICE_TYPE_OPERATOR_24"
    }
   ],
   "linker_set_key" : "_ZTIN4aidl7android8hardware5radio7network11BarringInfo25$SERVICE_TYPE_OPERATOR_24E",
   "name" : "aidl::android::hardware::radio::network::BarringInfo::(unnamed enum at out/soong/.intermediates/hardware/interfaces/radio/aidl/android.hardware.radio.network-V1-ndk-source/gen/include/aidl/android/hardware/radio/network/BarringInfo.h:89:3)",
   "referenced_type" : "_ZTIN4aidl7android8hardware5radio7network11BarringInfo25$SERVICE_TYPE_OPERATOR_24E",
   "self_type" : "_ZTIN4aidl7android8hardware5radio7network11BarringInfo25$SERVICE_TYPE_OPERATOR_24E",
   "size" : 4,
   "source_file" : "out/soong/.intermediates/hardware/interfaces/radio/aidl/android.hardware.radio.network-V1-ndk-source/gen/include/aidl/android/hardware/radio/network/BarringInfo.h",
   "underlying_type" : "_ZTIi"
  },
  {
   "alignment" : 4,
   "enum_fields" :
   [
    {
     "enum_field_value" : 1025,
     "name" : "aidl::android::hardware::radio::network::BarringInfo::SERVICE_TYPE_OPERATOR_25"
    }
   ],
   "linker_set_key" : "_ZTIN4aidl7android8hardware5radio7network11BarringInfo25$SERVICE_TYPE_OPERATOR_25E",
   "name" : "aidl::android::hardware::radio::network::BarringInfo::(unnamed enum at out/soong/.intermediates/hardware/interfaces/radio/aidl/android.hardware.radio.network-V1-ndk-source/gen/include/aidl/android/hardware/radio/network/BarringInfo.h:90:3)",
   "referenced_type" : "_ZTIN4aidl7android8hardware5radio7network11BarringInfo25$SERVICE_TYPE_OPERATOR_25E",
   "self_type" : "_ZTIN4aidl7android8hardware5radio7network11BarringInfo25$SERVICE_TYPE_OPERATOR_25E",
   "size" : 4,
   "source_file" : "out/soong/.intermediates/hardware/interfaces/radio/aidl/android.hardware.radio.network-V1-ndk-source/gen/include/aidl/android/hardware/radio/network/BarringInfo.h",
   "underlying_type" : "_ZTIi"
  },
  {
   "alignment" : 4,
   "enum_fields" :
   [
    {
     "enum_field_value" : 1026,
     "name" : "aidl::android::hardware::radio::network::BarringInfo::SERVICE_TYPE_OPERATOR_26"
    }
   ],
   "linker_set_key" : "_ZTIN4aidl7android8hardware5radio7network11BarringInfo25$SERVICE_TYPE_OPERATOR_26E",
   "name" : "aidl::android::hardware::radio::network::BarringInfo::(unnamed enum at out/soong/.intermediates/hardware/interfaces/radio/aidl/android.hardware.radio.network-V1-ndk-source/gen/include/aidl/android/hardware/radio/network/BarringInfo.h:91:3)",
   "referenced_type" : "_ZTIN4aidl7android8hardware5radio7network11BarringInfo25$SERVICE_TYPE_OPERATOR_26E",
   "self_type" : "_ZTIN4aidl7android8hardware5radio7network11BarringInfo25$SERVICE_TYPE_OPERATOR_26E",
   "size" : 4,
   "source_file" : "out/soong/.intermediates/hardware/interfaces/radio/aidl/android.hardware.radio.network-V1-ndk-source/gen/include/aidl/android/hardware/radio/network/BarringInfo.h",
   "underlying_type" : "_ZTIi"
  },
  {
   "alignment" : 4,
   "enum_fields" :
   [
    {
     "enum_field_value" : 1027,
     "name" : "aidl::android::hardware::radio::network::BarringInfo::SERVICE_TYPE_OPERATOR_27"
    }
   ],
   "linker_set_key" : "_ZTIN4aidl7android8hardware5radio7network11BarringInfo25$SERVICE_TYPE_OPERATOR_27E",
   "name" : "aidl::android::hardware::radio::network::BarringInfo::(unnamed enum at out/soong/.intermediates/hardware/interfaces/radio/aidl/android.hardware.radio.network-V1-ndk-source/gen/include/aidl/android/hardware/radio/network/BarringInfo.h:92:3)",
   "referenced_type" : "_ZTIN4aidl7android8hardware5radio7network11BarringInfo25$SERVICE_TYPE_OPERATOR_27E",
   "self_type" : "_ZTIN4aidl7android8hardware5radio7network11BarringInfo25$SERVICE_TYPE_OPERATOR_27E",
   "size" : 4,
   "source_file" : "out/soong/.intermediates/hardware/interfaces/radio/aidl/android.hardware.radio.network-V1-ndk-source/gen/include/aidl/android/hardware/radio/network/BarringInfo.h",
   "underlying_type" : "_ZTIi"
  },
  {
   "alignment" : 4,
   "enum_fields" :
   [
    {
     "enum_field_value" : 1028,
     "name" : "aidl::android::hardware::radio::network::BarringInfo::SERVICE_TYPE_OPERATOR_28"
    }
   ],
   "linker_set_key" : "_ZTIN4aidl7android8hardware5radio7network11BarringInfo25$SERVICE_TYPE_OPERATOR_28E",
   "name" : "aidl::android::hardware::radio::network::BarringInfo::(unnamed enum at out/soong/.intermediates/hardware/interfaces/radio/aidl/android.hardware.radio.network-V1-ndk-source/gen/include/aidl/android/hardware/radio/network/BarringInfo.h:93:3)",
   "referenced_type" : "_ZTIN4aidl7android8hardware5radio7network11BarringInfo25$SERVICE_TYPE_OPERATOR_28E",
   "self_type" : "_ZTIN4aidl7android8hardware5radio7network11BarringInfo25$SERVICE_TYPE_OPERATOR_28E",
   "size" : 4,
   "source_file" : "out/soong/.intermediates/hardware/interfaces/radio/aidl/android.hardware.radio.network-V1-ndk-source/gen/include/aidl/android/hardware/radio/network/BarringInfo.h",
   "underlying_type" : "_ZTIi"
  },
  {
   "alignment" : 4,
   "enum_fields" :
   [
    {
     "enum_field_value" : 1029,
     "name" : "aidl::android::hardware::radio::network::BarringInfo::SERVICE_TYPE_OPERATOR_29"
    }
   ],
   "linker_set_key" : "_ZTIN4aidl7android8hardware5radio7network11BarringInfo25$SERVICE_TYPE_OPERATOR_29E",
   "name" : "aidl::android::hardware::radio::network::BarringInfo::(unnamed enum at out/soong/.intermediates/hardware/interfaces/radio/aidl/android.hardware.radio.network-V1-ndk-source/gen/include/aidl/android/hardware/radio/network/BarringInfo.h:94:3)",
   "referenced_type" : "_ZTIN4aidl7android8hardware5radio7network11BarringInfo25$SERVICE_TYPE_OPERATOR_29E",
   "self_type" : "_ZTIN4aidl7android8hardware5radio7network11BarringInfo25$SERVICE_TYPE_OPERATOR_29E",
   "size" : 4,
   "source_file" : "out/soong/.intermediates/hardware/interfaces/radio/aidl/android.hardware.radio.network-V1-ndk-source/gen/include/aidl/android/hardware/radio/network/BarringInfo.h",
   "underlying_type" : "_ZTIi"
  },
  {
   "alignment" : 4,
   "enum_fields" :
   [
    {
     "enum_field_value" : 1030,
     "name" : "aidl::android::hardware::radio::network::BarringInfo::SERVICE_TYPE_OPERATOR_30"
    }
   ],
   "linker_set_key" : "_ZTIN4aidl7android8hardware5radio7network11BarringInfo25$SERVICE_TYPE_OPERATOR_30E",
   "name" : "aidl::android::hardware::radio::network::BarringInfo::(unnamed enum at out/soong/.intermediates/hardware/interfaces/radio/aidl/android.hardware.radio.network-V1-ndk-source/gen/include/aidl/android/hardware/radio/network/BarringInfo.h:95:3)",
   "referenced_type" : "_ZTIN4aidl7android8hardware5radio7network11BarringInfo25$SERVICE_TYPE_OPERATOR_30E",
   "self_type" : "_ZTIN4aidl7android8hardware5radio7network11BarringInfo25$SERVICE_TYPE_OPERATOR_30E",
   "size" : 4,
   "source_file" : "out/soong/.intermediates/hardware/interfaces/radio/aidl/android.hardware.radio.network-V1-ndk-source/gen/include/aidl/android/hardware/radio/network/BarringInfo.h",
   "underlying_type" : "_ZTIi"
  },
  {
   "alignment" : 4,
   "enum_fields" :
   [
    {
     "enum_field_value" : 1031,
     "name" : "aidl::android::hardware::radio::network::BarringInfo::SERVICE_TYPE_OPERATOR_31"
    }
   ],
   "linker_set_key" : "_ZTIN4aidl7android8hardware5radio7network11BarringInfo25$SERVICE_TYPE_OPERATOR_31E",
   "name" : "aidl::android::hardware::radio::network::BarringInfo::(unnamed enum at out/soong/.intermediates/hardware/interfaces/radio/aidl/android.hardware.radio.network-V1-ndk-source/gen/include/aidl/android/hardware/radio/network/BarringInfo.h:96:3)",
   "referenced_type" : "_ZTIN4aidl7android8hardware5radio7network11BarringInfo25$SERVICE_TYPE_OPERATOR_31E",
   "self_type" : "_ZTIN4aidl7android8hardware5radio7network11BarringInfo25$SERVICE_TYPE_OPERATOR_31E",
   "size" : 4,
   "source_file" : "out/soong/.intermediates/hardware/interfaces/radio/aidl/android.hardware.radio.network-V1-ndk-source/gen/include/aidl/android/hardware/radio/network/BarringInfo.h",
   "underlying_type" : "_ZTIi"
  },
  {
   "alignment" : 4,
   "enum_fields" :
   [
    {
     "enum_field_value" : 1032,
     "name" : "aidl::android::hardware::radio::network::BarringInfo::SERVICE_TYPE_OPERATOR_32"
    }
   ],
   "linker_set_key" : "_ZTIN4aidl7android8hardware5radio7network11BarringInfo25$SERVICE_TYPE_OPERATOR_32E",
   "name" : "aidl::android::hardware::radio::network::BarringInfo::(unnamed enum at out/soong/.intermediates/hardware/interfaces/radio/aidl/android.hardware.radio.network-V1-ndk-source/gen/include/aidl/android/hardware/radio/network/BarringInfo.h:97:3)",
   "referenced_type" : "_ZTIN4aidl7android8hardware5radio7network11BarringInfo25$SERVICE_TYPE_OPERATOR_32E",
   "self_type" : "_ZTIN4aidl7android8hardware5radio7network11BarringInfo25$SERVICE_TYPE_OPERATOR_32E",
   "size" : 4,
   "source_file" : "out/soong/.intermediates/hardware/interfaces/radio/aidl/android.hardware.radio.network-V1-ndk-source/gen/include/aidl/android/hardware/radio/network/BarringInfo.h",
   "underlying_type" : "_ZTIi"
  },
  {
   "alignment" : 4,
   "enum_fields" :
   [
    {
     "enum_field_value" : 2,
     "name" : "aidl::android::hardware::radio::network::BarringInfo::BARRING_TYPE_UNCONDITIONAL"
    }
   ],
   "linker_set_key" : "_ZTIN4aidl7android8hardware5radio7network11BarringInfo27$BARRING_TYPE_UNCONDITIONALE",
   "name" : "aidl::android::hardware::radio::network::BarringInfo::(unnamed enum at out/soong/.intermediates/hardware/interfaces/radio/aidl/android.hardware.radio.network-V1-ndk-source/gen/include/aidl/android/hardware/radio/network/BarringInfo.h:55:3)",
   "referenced_type" : "_ZTIN4aidl7android8hardware5radio7network11BarringInfo27$BARRING_TYPE_UNCONDITIONALE",
   "self_type" : "_ZTIN4aidl7android8hardware5radio7network11BarringInfo27$BARRING_TYPE_UNCONDITIONALE",
   "size" : 4,
   "source_file" : "out/soong/.intermediates/hardware/interfaces/radio/aidl/android.hardware.radio.network-V1-ndk-source/gen/include/aidl/android/hardware/radio/network/BarringInfo.h",
   "underlying_type" : "_ZTIi"
  },
  {
   "alignment" : 4,
   "enum_fields" :
   [
    {
     "enum_field_value" : 3,
     "name" : "aidl::android::hardware::radio::network::BarringInfo::SERVICE_TYPE_MO_SIGNALLING"
    }
   ],
   "linker_set_key" : "_ZTIN4aidl7android8hardware5radio7network11BarringInfo27$SERVICE_TYPE_MO_SIGNALLINGE",
   "name" : "aidl::android::hardware::radio::network::BarringInfo::(unnamed enum at out/soong/.intermediates/hardware/interfaces/radio/aidl/android.hardware.radio.network-V1-ndk-source/gen/include/aidl/android/hardware/radio/network/BarringInfo.h:59:3)",
   "referenced_type" : "_ZTIN4aidl7android8hardware5radio7network11BarringInfo27$SERVICE_TYPE_MO_SIGNALLINGE",
   "self_type" : "_ZTIN4aidl7android8hardware5radio7network11BarringInfo27$SERVICE_TYPE_MO_SIGNALLINGE",
   "size" : 4,
   "source_file" : "out/soong/.intermediates/hardware/interfaces/radio/aidl/android.hardware.radio.network-V1-ndk-source/gen/include/aidl/android/hardware/radio/network/BarringInfo.h",
   "underlying_type" : "_ZTIi"
  },
  {
   "alignment" : 4,
   "enum_fields" :
   [
    {
     "enum_field_value" : 1,
     "name" : "aidl::android::hardware::radio::network::EutranBands::BAND_1"
    },
    {
     "enum_field_value" : 2,
     "name" : "aidl::android::hardware::radio::network::EutranBands::BAND_2"
    },
    {
     "enum_field_value" : 3,
     "name" : "aidl::android::hardware::radio::network::EutranBands::BAND_3"
    },
    {
     "enum_field_value" : 4,
     "name" : "aidl::android::hardware::radio::network::EutranBands::BAND_4"
    },
    {
     "enum_field_value" : 5,
     "name" : "aidl::android::hardware::radio::network::EutranBands::BAND_5"
    },
    {
     "enum_field_value" : 6,
     "name" : "aidl::android::hardware::radio::network::EutranBands::BAND_6"
    },
    {
     "enum_field_value" : 7,
     "name" : "aidl::android::hardware::radio::network::EutranBands::BAND_7"
    },
    {
     "enum_field_value" : 8,
     "name" : "aidl::android::hardware::radio::network::EutranBands::BAND_8"
    },
    {
     "enum_field_value" : 9,
     "name" : "aidl::android::hardware::radio::network::EutranBands::BAND_9"
    },
    {
     "enum_field_value" : 10,
     "name" : "aidl::android::hardware::radio::network::EutranBands::BAND_10"
    },
    {
     "enum_field_value" : 11,
     "name" : "aidl::android::hardware::radio::network::EutranBands::BAND_11"
    },
    {
     "enum_field_value" : 12,
     "name" : "aidl::android::hardware::radio::network::EutranBands::BAND_12"
    },
    {
     "enum_field_value" : 13,
     "name" : "aidl::android::hardware::radio::network::EutranBands::BAND_13"
    },
    {
     "enum_field_value" : 14,
     "name" : "aidl::android::hardware::radio::network::EutranBands::BAND_14"
    },
    {
     "enum_field_value" : 17,
     "name" : "aidl::android::hardware::radio::network::EutranBands::BAND_17"
    },
    {
     "enum_field_value" : 18,
     "name" : "aidl::android::hardware::radio::network::EutranBands::BAND_18"
    },
    {
     "enum_field_value" : 19,
     "name" : "aidl::android::hardware::radio::network::EutranBands::BAND_19"
    },
    {
     "enum_field_value" : 20,
     "name" : "aidl::android::hardware::radio::network::EutranBands::BAND_20"
    },
    {
     "enum_field_value" : 21,
     "name" : "aidl::android::hardware::radio::network::EutranBands::BAND_21"
    },
    {
     "enum_field_value" : 22,
     "name" : "aidl::android::hardware::radio::network::EutranBands::BAND_22"
    },
    {
     "enum_field_value" : 23,
     "name" : "aidl::android::hardware::radio::network::EutranBands::BAND_23"
    },
    {
     "enum_field_value" : 24,
     "name" : "aidl::android::hardware::radio::network::EutranBands::BAND_24"
    },
    {
     "enum_field_value" : 25,
     "name" : "aidl::android::hardware::radio::network::EutranBands::BAND_25"
    },
    {
     "enum_field_value" : 26,
     "name" : "aidl::android::hardware::radio::network::EutranBands::BAND_26"
    },
    {
     "enum_field_value" : 27,
     "name" : "aidl::android::hardware::radio::network::EutranBands::BAND_27"
    },
    {
     "enum_field_value" : 28,
     "name" : "aidl::android::hardware::radio::network::EutranBands::BAND_28"
    },
    {
     "enum_field_value" : 30,
     "name" : "aidl::android::hardware::radio::network::EutranBands::BAND_30"
    },
    {
     "enum_field_value" : 31,
     "name" : "aidl::android::hardware::radio::network::EutranBands::BAND_31"
    },
    {
     "enum_field_value" : 33,
     "name" : "aidl::android::hardware::radio::network::EutranBands::BAND_33"
    },
    {
     "enum_field_value" : 34,
     "name" : "aidl::android::hardware::radio::network::EutranBands::BAND_34"
    },
    {
     "enum_field_value" : 35,
     "name" : "aidl::android::hardware::radio::network::EutranBands::BAND_35"
    },
    {
     "enum_field_value" : 36,
     "name" : "aidl::android::hardware::radio::network::EutranBands::BAND_36"
    },
    {
     "enum_field_value" : 37,
     "name" : "aidl::android::hardware::radio::network::EutranBands::BAND_37"
    },
    {
     "enum_field_value" : 38,
     "name" : "aidl::android::hardware::radio::network::EutranBands::BAND_38"
    },
    {
     "enum_field_value" : 39,
     "name" : "aidl::android::hardware::radio::network::EutranBands::BAND_39"
    },
    {
     "enum_field_value" : 40,
     "name" : "aidl::android::hardware::radio::network::EutranBands::BAND_40"
    },
    {
     "enum_field_value" : 41,
     "name" : "aidl::android::hardware::radio::network::EutranBands::BAND_41"
    },
    {
     "enum_field_value" : 42,
     "name" : "aidl::android::hardware::radio::network::EutranBands::BAND_42"
    },
    {
     "enum_field_value" : 43,
     "name" : "aidl::android::hardware::radio::network::EutranBands::BAND_43"
    },
    {
     "enum_field_value" : 44,
     "name" : "aidl::android::hardware::radio::network::EutranBands::BAND_44"
    },
    {
     "enum_field_value" : 45,
     "name" : "aidl::android::hardware::radio::network::EutranBands::BAND_45"
    },
    {
     "enum_field_value" : 46,
     "name" : "aidl::android::hardware::radio::network::EutranBands::BAND_46"
    },
    {
     "enum_field_value" : 47,
     "name" : "aidl::android::hardware::radio::network::EutranBands::BAND_47"
    },
    {
     "enum_field_value" : 48,
     "name" : "aidl::android::hardware::radio::network::EutranBands::BAND_48"
    },
    {
     "enum_field_value" : 65,
     "name" : "aidl::android::hardware::radio::network::EutranBands::BAND_65"
    },
    {
     "enum_field_value" : 66,
     "name" : "aidl::android::hardware::radio::network::EutranBands::BAND_66"
    },
    {
     "enum_field_value" : 68,
     "name" : "aidl::android::hardware::radio::network::EutranBands::BAND_68"
    },
    {
     "enum_field_value" : 70,
     "name" : "aidl::android::hardware::radio::network::EutranBands::BAND_70"
    },
    {
     "enum_field_value" : 49,
     "name" : "aidl::android::hardware::radio::network::EutranBands::BAND_49"
    },
    {
     "enum_field_value" : 50,
     "name" : "aidl::android::hardware::radio::network::EutranBands::BAND_50"
    },
    {
     "enum_field_value" : 51,
     "name" : "aidl::android::hardware::radio::network::EutranBands::BAND_51"
    },
    {
     "enum_field_value" : 52,
     "name" : "aidl::android::hardware::radio::network::EutranBands::BAND_52"
    },
    {
     "enum_field_value" : 53,
     "name" : "aidl::android::hardware::radio::network::EutranBands::BAND_53"
    },
    {
     "enum_field_value" : 71,
     "name" : "aidl::android::hardware::radio::network::EutranBands::BAND_71"
    },
    {
     "enum_field_value" : 72,
     "name" : "aidl::android::hardware::radio::network::EutranBands::BAND_72"
    },
    {
     "enum_field_value" : 73,
     "name" : "aidl::android::hardware::radio::network::EutranBands::BAND_73"
    },
    {
     "enum_field_value" : 74,
     "name" : "aidl::android::hardware::radio::network::EutranBands::BAND_74"
    },
    {
     "enum_field_value" : 85,
     "name" : "aidl::android::hardware::radio::network::EutranBands::BAND_85"
    },
    {
     "enum_field_value" : 87,
     "name" : "aidl::android::hardware::radio::network::EutranBands::BAND_87"
    },
    {
     "enum_field_value" : 88,
     "name" : "aidl::android::hardware::radio::network::EutranBands::BAND_88"
    }
   ],
   "linker_set_key" : "_ZTIN4aidl7android8hardware5radio7network11EutranBandsE",
   "name" : "aidl::android::hardware::radio::network::EutranBands",
   "referenced_type" : "_ZTIN4aidl7android8hardware5radio7network11EutranBandsE",
   "self_type" : "_ZTIN4aidl7android8hardware5radio7network11EutranBandsE",
   "size" : 4,
   "source_file" : "out/soong/.intermediates/hardware/interfaces/radio/aidl/android.hardware.radio.network-V1-ndk-source/gen/include/aidl/android/hardware/radio/network/EutranBands.h",
   "underlying_type" : "_ZTIi"
  },
  {
   "alignment" : 4,
   "enum_fields" :
   [
    {
     "enum_field_value" : 0,
     "name" : "aidl::android::hardware::radio::network::CellIdentity::Tag::noinit"
    },
    {
     "enum_field_value" : 1,
     "name" : "aidl::android::hardware::radio::network::CellIdentity::Tag::gsm"
    },
    {
     "enum_field_value" : 2,
     "name" : "aidl::android::hardware::radio::network::CellIdentity::Tag::wcdma"
    },
    {
     "enum_field_value" : 3,
     "name" : "aidl::android::hardware::radio::network::CellIdentity::Tag::tdscdma"
    },
    {
     "enum_field_value" : 4,
     "name" : "aidl::android::hardware::radio::network::CellIdentity::Tag::cdma"
    },
    {
     "enum_field_value" : 5,
     "name" : "aidl::android::hardware::radio::network::CellIdentity::Tag::lte"
    },
    {
     "enum_field_value" : 6,
     "name" : "aidl::android::hardware::radio::network::CellIdentity::Tag::nr"
    }
   ],
   "linker_set_key" : "_ZTIN4aidl7android8hardware5radio7network12CellIdentity3TagE",
   "name" : "aidl::android::hardware::radio::network::CellIdentity::Tag",
   "referenced_type" : "_ZTIN4aidl7android8hardware5radio7network12CellIdentity3TagE",
   "self_type" : "_ZTIN4aidl7android8hardware5radio7network12CellIdentity3TagE",
   "size" : 4,
   "source_file" : "out/soong/.intermediates/hardware/interfaces/radio/aidl/android.hardware.radio.network-V1-ndk-source/gen/include/aidl/android/hardware/radio/network/CellIdentity.h",
   "underlying_type" : "_ZTIi"
  },
  {
   "alignment" : 4,
   "enum_fields" :
   [
    {
     "enum_field_value" : 2,
     "name" : "aidl::android::hardware::radio::network::OperatorInfo::STATUS_CURRENT"
    }
   ],
   "linker_set_key" : "_ZTIN4aidl7android8hardware5radio7network12OperatorInfo15$STATUS_CURRENTE",
   "name" : "aidl::android::hardware::radio::network::OperatorInfo::(unnamed enum at out/soong/.intermediates/hardware/interfaces/radio/aidl/android.hardware.radio.network-V1-ndk-source/gen/include/aidl/android/hardware/radio/network/OperatorInfo.h:55:3)",
   "referenced_type" : "_ZTIN4aidl7android8hardware5radio7network12OperatorInfo15$STATUS_CURRENTE",
   "self_type" : "_ZTIN4aidl7android8hardware5radio7network12OperatorInfo15$STATUS_CURRENTE",
   "size" : 4,
   "source_file" : "out/soong/.intermediates/hardware/interfaces/radio/aidl/android.hardware.radio.network-V1-ndk-source/gen/include/aidl/android/hardware/radio/network/OperatorInfo.h",
   "underlying_type" : "_ZTIi"
  },
  {
   "alignment" : 4,
   "enum_fields" :
   [
    {
     "enum_field_value" : 0,
     "name" : "aidl::android::hardware::radio::network::OperatorInfo::STATUS_UNKNOWN"
    }
   ],
   "linker_set_key" : "_ZTIN4aidl7android8hardware5radio7network12OperatorInfo15$STATUS_UNKNOWNE",
   "name" : "aidl::android::hardware::radio::network::OperatorInfo::(unnamed enum at out/soong/.intermediates/hardware/interfaces/radio/aidl/android.hardware.radio.network-V1-ndk-source/gen/include/aidl/android/hardware/radio/network/OperatorInfo.h:53:3)",
   "referenced_type" : "_ZTIN4aidl7android8hardware5radio7network12OperatorInfo15$STATUS_UNKNOWNE",
   "self_type" : "_ZTIN4aidl7android8hardware5radio7network12OperatorInfo15$STATUS_UNKNOWNE",
   "size" : 4,
   "source_file" : "out/soong/.intermediates/hardware/interfaces/radio/aidl/android.hardware.radio.network-V1-ndk-source/gen/include/aidl/android/hardware/radio/network/OperatorInfo.h",
   "underlying_type" : "_ZTIi"
  },
  {
   "alignment" : 4,
   "enum_fields" :
   [
    {
     "enum_field_value" : 1,
     "name" : "aidl::android::hardware::radio::network::OperatorInfo::STATUS_AVAILABLE"
    }
   ],
   "linker_set_key" : "_ZTIN4aidl7android8hardware5radio7network12OperatorInfo17$STATUS_AVAILABLEE",
   "name" : "aidl::android::hardware::radio::network::OperatorInfo::(unnamed enum at out/soong/.intermediates/hardware/interfaces/radio/aidl/android.hardware.radio.network-V1-ndk-source/gen/include/aidl/android/hardware/radio/network/OperatorInfo.h:54:3)",
   "referenced_type" : "_ZTIN4aidl7android8hardware5radio7network12OperatorInfo17$STATUS_AVAILABLEE",
   "self_type" : "_ZTIN4aidl7android8hardware5radio7network12OperatorInfo17$STATUS_AVAILABLEE",
   "size" : 4,
   "source_file" : "out/soong/.intermediates/hardware/interfaces/radio/aidl/android.hardware.radio.network-V1-ndk-source/gen/include/aidl/android/hardware/radio/network/OperatorInfo.h",
   "underlying_type" : "_ZTIi"
  },
  {
   "alignment" : 4,
   "enum_fields" :
   [
    {
     "enum_field_value" : 3,
     "name" : "aidl::android::hardware::radio::network::OperatorInfo::STATUS_FORBIDDEN"
    }
   ],
   "linker_set_key" : "_ZTIN4aidl7android8hardware5radio7network12OperatorInfo17$STATUS_FORBIDDENE",
   "name" : "aidl::android::hardware::radio::network::OperatorInfo::(unnamed enum at out/soong/.intermediates/hardware/interfaces/radio/aidl/android.hardware.radio.network-V1-ndk-source/gen/include/aidl/android/hardware/radio/network/OperatorInfo.h:56:3)",
   "referenced_type" : "_ZTIN4aidl7android8hardware5radio7network12OperatorInfo17$STATUS_FORBIDDENE",
   "self_type" : "_ZTIN4aidl7android8hardware5radio7network12OperatorInfo17$STATUS_FORBIDDENE",
   "size" : 4,
   "source_file" : "out/soong/.intermediates/hardware/interfaces/radio/aidl/android.hardware.radio.network-V1-ndk-source/gen/include/aidl/android/hardware/radio/network/OperatorInfo.h",
   "underlying_type" : "_ZTIi"
  },
  {
   "alignment" : 4,
   "enum_fields" :
   [
    {
     "enum_field_value" : 1,
     "name" : "aidl::android::hardware::radio::network::UsageSetting::VOICE_CENTRIC"
    },
    {
     "enum_field_value" : 2,
     "name" : "aidl::android::hardware::radio::network::UsageSetting::DATA_CENTRIC"
    }
   ],
   "linker_set_key" : "_ZTIN4aidl7android8hardware5radio7network12UsageSettingE",
   "name" : "aidl::android::hardware::radio::network::UsageSetting",
   "referenced_type" : "_ZTIN4aidl7android8hardware5radio7network12UsageSettingE",
   "self_type" : "_ZTIN4aidl7android8hardware5radio7network12UsageSettingE",
   "size" : 4,
   "source_file" : "out/soong/.intermediates/hardware/interfaces/radio/aidl/android.hardware.radio.network-V1-ndk-source/gen/include/aidl/android/hardware/radio/network/UsageSetting.h",
   "underlying_type" : "_ZTIi"
  },
  {
   "alignment" : 4,
   "enum_fields" :
   [
    {
     "enum_field_value" : 0,
     "name" : "aidl::android::hardware::radio::network::RadioBandMode::BAND_MODE_UNSPECIFIED"
    },
    {
     "enum_field_value" : 1,
     "name" : "aidl::android::hardware::radio::network::RadioBandMode::BAND_MODE_EURO"
    },
    {
     "enum_field_value" : 2,
     "name" : "aidl::android::hardware::radio::network::RadioBandMode::BAND_MODE_USA"
    },
    {
     "enum_field_value" : 3,
     "name" : "aidl::android::hardware::radio::network::RadioBandMode::BAND_MODE_JPN"
    },
    {
     "enum_field_value" : 4,
     "name" : "aidl::android::hardware::radio::network::RadioBandMode::BAND_MODE_AUS"
    },
    {
     "enum_field_value" : 5,
     "name" : "aidl::android::hardware::radio::network::RadioBandMode::BAND_MODE_AUS_2"
    },
    {
     "enum_field_value" : 6,
     "name" : "aidl::android::hardware::radio::network::RadioBandMode::BAND_MODE_CELL_800"
    },
    {
     "enum_field_value" : 7,
     "name" : "aidl::android::hardware::radio::network::RadioBandMode::BAND_MODE_PCS"
    },
    {
     "enum_field_value" : 8,
     "name" : "aidl::android::hardware::radio::network::RadioBandMode::BAND_MODE_JTACS"
    },
    {
     "enum_field_value" : 9,
     "name" : "aidl::android::hardware::radio::network::RadioBandMode::BAND_MODE_KOREA_PCS"
    },
    {
     "enum_field_value" : 10,
     "name" : "aidl::android::hardware::radio::network::RadioBandMode::BAND_MODE_5_450M"
    },
    {
     "enum_field_value" : 11,
     "name" : "aidl::android::hardware::radio::network::RadioBandMode::BAND_MODE_IMT2000"
    },
    {
     "enum_field_value" : 12,
     "name" : "aidl::android::hardware::radio::network::RadioBandMode::BAND_MODE_7_700M_2"
    },
    {
     "enum_field_value" : 13,
     "name" : "aidl::android::hardware::radio::network::RadioBandMode::BAND_MODE_8_1800M"
    },
    {
     "enum_field_value" : 14,
     "name" : "aidl::android::hardware::radio::network::RadioBandMode::BAND_MODE_9_900M"
    },
    {
     "enum_field_value" : 15,
     "name" : "aidl::android::hardware::radio::network::RadioBandMode::BAND_MODE_10_800M_2"
    },
    {
     "enum_field_value" : 16,
     "name" : "aidl::android::hardware::radio::network::RadioBandMode::BAND_MODE_EURO_PAMR_400M"
    },
    {
     "enum_field_value" : 17,
     "name" : "aidl::android::hardware::radio::network::RadioBandMode::BAND_MODE_AWS"
    },
    {
     "enum_field_value" : 18,
     "name" : "aidl::android::hardware::radio::network::RadioBandMode::BAND_MODE_USA_2500M"
    }
   ],
   "linker_set_key" : "_ZTIN4aidl7android8hardware5radio7network13RadioBandModeE",
   "name" : "aidl::android::hardware::radio::network::RadioBandMode",
   "referenced_type" : "_ZTIN4aidl7android8hardware5radio7network13RadioBandModeE",
   "self_type" : "_ZTIN4aidl7android8hardware5radio7network13RadioBandModeE",
   "size" : 4,
   "source_file" : "out/soong/.intermediates/hardware/interfaces/radio/aidl/android.hardware.radio.network-V1-ndk-source/gen/include/aidl/android/hardware/radio/network/RadioBandMode.h",
   "underlying_type" : "_ZTIi"
  },
  {
   "alignment" : 4,
   "enum_fields" :
   [
    {
     "enum_field_value" : 0,
     "name" : "aidl::android::hardware::radio::network::CdmaRoamingType::HOME_NETWORK"
    },
    {
     "enum_field_value" : 1,
     "name" : "aidl::android::hardware::radio::network::CdmaRoamingType::AFFILIATED_ROAM"
    },
    {
     "enum_field_value" : 2,
     "name" : "aidl::android::hardware::radio::network::CdmaRoamingType::ANY_ROAM"
    }
   ],
   "linker_set_key" : "_ZTIN4aidl7android8hardware5radio7network15CdmaRoamingTypeE",
   "name" : "aidl::android::hardware::radio::network::CdmaRoamingType",
   "referenced_type" : "_ZTIN4aidl7android8hardware5radio7network15CdmaRoamingTypeE",
   "self_type" : "_ZTIN4aidl7android8hardware5radio7network15CdmaRoamingTypeE",
   "size" : 4,
   "source_file" : "out/soong/.intermediates/hardware/interfaces/radio/aidl/android.hardware.radio.network-V1-ndk-source/gen/include/aidl/android/hardware/radio/network/CdmaRoamingType.h",
   "underlying_type" : "_ZTIi"
  },
  {
   "alignment" : 4,
   "enum_fields" :
   [
    {
     "enum_field_value" : 1,
     "name" : "aidl::android::hardware::radio::network::NetworkScanResult::SCAN_STATUS_PARTIAL"
    }
   ],
   "linker_set_key" : "_ZTIN4aidl7android8hardware5radio7network17NetworkScanResult20$SCAN_STATUS_PARTIALE",
   "name" : "aidl::android::hardware::radio::network::NetworkScanResult::(unnamed enum at out/soong/.intermediates/hardware/interfaces/radio/aidl/android.hardware.radio.network-V1-ndk-source/gen/include/aidl/android/hardware/radio/network/NetworkScanResult.h:54:3)",
   "referenced_type" : "_ZTIN4aidl7android8hardware5radio7network17NetworkScanResult20$SCAN_STATUS_PARTIALE",
   "self_type" : "_ZTIN4aidl7android8hardware5radio7network17NetworkScanResult20$SCAN_STATUS_PARTIALE",
   "size" : 4,
   "source_file" : "out/soong/.intermediates/hardware/interfaces/radio/aidl/android.hardware.radio.network-V1-ndk-source/gen/include/aidl/android/hardware/radio/network/NetworkScanResult.h",
   "underlying_type" : "_ZTIi"
  },
  {
   "alignment" : 4,
   "enum_fields" :
   [
    {
     "enum_field_value" : 2,
     "name" : "aidl::android::hardware::radio::network::NetworkScanResult::SCAN_STATUS_COMPLETE"
    }
   ],
   "linker_set_key" : "_ZTIN4aidl7android8hardware5radio7network17NetworkScanResult21$SCAN_STATUS_COMPLETEE",
   "name" : "aidl::android::hardware::radio::network::NetworkScanResult::(unnamed enum at out/soong/.intermediates/hardware/interfaces/radio/aidl/android.hardware.radio.network-V1-ndk-source/gen/include/aidl/android/hardware/radio/network/NetworkScanResult.h:55:3)",
   "referenced_type" : "_ZTIN4aidl7android8hardware5radio7network17NetworkScanResult21$SCAN_STATUS_COMPLETEE",
   "self_type" : "_ZTIN4aidl7android8hardware5radio7network17NetworkScanResult21$SCAN_STATUS_COMPLETEE",
   "size" : 4,
   "source_file" : "out/soong/.intermediates/hardware/interfaces/radio/aidl/android.hardware.radio.network-V1-ndk-source/gen/include/aidl/android/hardware/radio/network/NetworkScanResult.h",
   "underlying_type" : "_ZTIi"
  },
  {
   "alignment" : 4,
   "enum_fields" :
   [
    {
     "enum_field_value" : 0,
     "name" : "aidl::android::hardware::radio::network::NetworkScanRequest::SCAN_TYPE_ONE_SHOT"
    }
   ],
   "linker_set_key" : "_ZTIN4aidl7android8hardware5radio7network18NetworkScanRequest19$SCAN_TYPE_ONE_SHOTE",
   "name" : "aidl::android::hardware::radio::network::NetworkScanRequest::(unnamed enum at out/soong/.intermediates/hardware/interfaces/radio/aidl/android.hardware.radio.network-V1-ndk-source/gen/include/aidl/android/hardware/radio/network/NetworkScanRequest.h:64:3)",
   "referenced_type" : "_ZTIN4aidl7android8hardware5radio7network18NetworkScanRequest19$SCAN_TYPE_ONE_SHOTE",
   "self_type" : "_ZTIN4aidl7android8hardware5radio7network18NetworkScanRequest19$SCAN_TYPE_ONE_SHOTE",
   "size" : 4,
   "source_file" : "out/soong/.intermediates/hardware/interfaces/radio/aidl/android.hardware.radio.network-V1-ndk-source/gen/include/aidl/android/hardware/radio/network/NetworkScanRequest.h",
   "underlying_type" : "_ZTIi"
  },
  {
   "alignment" : 4,
   "enum_fields" :
   [
    {
     "enum_field_value" : 1,
     "name" : "aidl::android::hardware::radio::network::NetworkScanRequest::SCAN_TYPE_PERIODIC"
    }
   ],
   "linker_set_key" : "_ZTIN4aidl7android8hardware5radio7network18NetworkScanRequest19$SCAN_TYPE_PERIODICE",
   "name" : "aidl::android::hardware::radio::network::NetworkScanRequest::(unnamed enum at out/soong/.intermediates/hardware/interfaces/radio/aidl/android.hardware.radio.network-V1-ndk-source/gen/include/aidl/android/hardware/radio/network/NetworkScanRequest.h:65:3)",
   "referenced_type" : "_ZTIN4aidl7android8hardware5radio7network18NetworkScanRequest19$SCAN_TYPE_PERIODICE",
   "self_type" : "_ZTIN4aidl7android8hardware5radio7network18NetworkScanRequest19$SCAN_TYPE_PERIODICE",
   "size" : 4,
   "source_file" : "out/soong/.intermediates/hardware/interfaces/radio/aidl/android.hardware.radio.network-V1-ndk-source/gen/include/aidl/android/hardware/radio/network/NetworkScanRequest.h",
   "underlying_type" : "_ZTIi"
  },
  {
   "alignment" : 4,
   "enum_fields" :
   [
    {
     "enum_field_value" : 300,
     "name" : "aidl::android::hardware::radio::network::NetworkScanRequest::SCAN_INTERVAL_RANGE_MAX"
    }
   ],
   "linker_set_key" : "_ZTIN4aidl7android8hardware5radio7network18NetworkScanRequest24$SCAN_INTERVAL_RANGE_MAXE",
   "name" : "aidl::android::hardware::radio::network::NetworkScanRequest::(unnamed enum at out/soong/.intermediates/hardware/interfaces/radio/aidl/android.hardware.radio.network-V1-ndk-source/gen/include/aidl/android/hardware/radio/network/NetworkScanRequest.h:63:3)",
   "referenced_type" : "_ZTIN4aidl7android8hardware5radio7network18NetworkScanRequest24$SCAN_INTERVAL_RANGE_MAXE",
   "self_type" : "_ZTIN4aidl7android8hardware5radio7network18NetworkScanRequest24$SCAN_INTERVAL_RANGE_MAXE",
   "size" : 4,
   "source_file" : "out/soong/.intermediates/hardware/interfaces/radio/aidl/android.hardware.radio.network-V1-ndk-source/gen/include/aidl/android/hardware/radio/network/NetworkScanRequest.h",
   "underlying_type" : "_ZTIi"
  },
  {
   "alignment" : 4,
   "enum_fields" :
   [
    {
     "enum_field_value" : 5,
     "name" : "aidl::android::hardware::radio::network::NetworkScanRequest::SCAN_INTERVAL_RANGE_MIN"
    }
   ],
   "linker_set_key" : "_ZTIN4aidl7android8hardware5radio7network18NetworkScanRequest24$SCAN_INTERVAL_RANGE_MINE",
   "name" : "aidl::android::hardware::radio::network::NetworkScanRequest::(unnamed enum at out/soong/.intermediates/hardware/interfaces/radio/aidl/android.hardware.radio.network-V1-ndk-source/gen/include/aidl/android/hardware/radio/network/NetworkScanRequest.h:62:3)",
   "referenced_type" : "_ZTIN4aidl7android8hardware5radio7network18NetworkScanRequest24$SCAN_INTERVAL_RANGE_MINE",
   "self_type" : "_ZTIN4aidl7android8hardware5radio7network18NetworkScanRequest24$SCAN_INTERVAL_RANGE_MINE",
   "size" : 4,
   "source_file" : "out/soong/.intermediates/hardware/interfaces/radio/aidl/android.hardware.radio.network-V1-ndk-source/gen/include/aidl/android/hardware/radio/network/NetworkScanRequest.h",
   "underlying_type" : "_ZTIi"
  },
  {
   "alignment" : 4,
   "enum_fields" :
   [
    {
     "enum_field_value" : 3600,
     "name" : "aidl::android::hardware::radio::network::NetworkScanRequest::MAX_SEARCH_TIME_RANGE_MAX"
    }
   ],
   "linker_set_key" : "_ZTIN4aidl7android8hardware5radio7network18NetworkScanRequest26$MAX_SEARCH_TIME_RANGE_MAXE",
   "name" : "aidl::android::hardware::radio::network::NetworkScanRequest::(unnamed enum at out/soong/.intermediates/hardware/interfaces/radio/aidl/android.hardware.radio.network-V1-ndk-source/gen/include/aidl/android/hardware/radio/network/NetworkScanRequest.h:61:3)",
   "referenced_type" : "_ZTIN4aidl7android8hardware5radio7network18NetworkScanRequest26$MAX_SEARCH_TIME_RANGE_MAXE",
   "self_type" : "_ZTIN4aidl7android8hardware5radio7network18NetworkScanRequest26$MAX_SEARCH_TIME_RANGE_MAXE",
   "size" : 4,
   "source_file" : "out/soong/.intermediates/hardware/interfaces/radio/aidl/android.hardware.radio.network-V1-ndk-source/gen/include/aidl/android/hardware/radio/network/NetworkScanRequest.h",
   "underlying_type" : "_ZTIi"
  },
  {
   "alignment" : 4,
   "enum_fields" :
   [
    {
     "enum_field_value" : 60,
     "name" : "aidl::android::hardware::radio::network::NetworkScanRequest::MAX_SEARCH_TIME_RANGE_MIN"
    }
   ],
   "linker_set_key" : "_ZTIN4aidl7android8hardware5radio7network18NetworkScanRequest26$MAX_SEARCH_TIME_RANGE_MINE",
   "name" : "aidl::android::hardware::radio::network::NetworkScanRequest::(unnamed enum at out/soong/.intermediates/hardware/interfaces/radio/aidl/android.hardware.radio.network-V1-ndk-source/gen/include/aidl/android/hardware/radio/network/NetworkScanRequest.h:60:3)",
   "referenced_type" : "_ZTIN4aidl7android8hardware5radio7network18NetworkScanRequest26$MAX_SEARCH_TIME_RANGE_MINE",
   "self_type" : "_ZTIN4aidl7android8hardware5radio7network18NetworkScanRequest26$MAX_SEARCH_TIME_RANGE_MINE",
   "size" : 4,
   "source_file" : "out/soong/.intermediates/hardware/interfaces/radio/aidl/android.hardware.radio.network-V1-ndk-source/gen/include/aidl/android/hardware/radio/network/NetworkScanRequest.h",
   "underlying_type" : "_ZTIi"
  },
  {
   "alignment" : 4,
   "enum_fields" :
   [
    {
     "enum_field_value" : 8,
     "name" : "aidl::android::hardware::radio::network::NetworkScanRequest::RADIO_ACCESS_SPECIFIER_MAX_SIZE"
    }
   ],
   "linker_set_key" : "_ZTIN4aidl7android8hardware5radio7network18NetworkScanRequest32$RADIO_ACCESS_SPECIFIER_MAX_SIZEE",
   "name" : "aidl::android::hardware::radio::network::NetworkScanRequest::(unnamed enum at out/soong/.intermediates/hardware/interfaces/radio/aidl/android.hardware.radio.network-V1-ndk-source/gen/include/aidl/android/hardware/radio/network/NetworkScanRequest.h:57:3)",
   "referenced_type" : "_ZTIN4aidl7android8hardware5radio7network18NetworkScanRequest32$RADIO_ACCESS_SPECIFIER_MAX_SIZEE",
   "self_type" : "_ZTIN4aidl7android8hardware5radio7network18NetworkScanRequest32$RADIO_ACCESS_SPECIFIER_MAX_SIZEE",
   "size" : 4,
   "source_file" : "out/soong/.intermediates/hardware/interfaces/radio/aidl/android.hardware.radio.network-V1-ndk-source/gen/include/aidl/android/hardware/radio/network/NetworkScanRequest.h",
   "underlying_type" : "_ZTIi"
  },
  {
   "alignment" : 4,
   "enum_fields" :
   [
    {
     "enum_field_value" : 10,
     "name" : "aidl::android::hardware::radio::network::NetworkScanRequest::INCREMENTAL_RESULTS_PREIODICITY_RANGE_MAX"
    }
   ],
   "linker_set_key" : "_ZTIN4aidl7android8hardware5radio7network18NetworkScanRequest42$INCREMENTAL_RESULTS_PREIODICITY_RANGE_MAXE",
   "name" : "aidl::android::hardware::radio::network::NetworkScanRequest::(unnamed enum at out/soong/.intermediates/hardware/interfaces/radio/aidl/android.hardware.radio.network-V1-ndk-source/gen/include/aidl/android/hardware/radio/network/NetworkScanRequest.h:59:3)",
   "referenced_type" : "_ZTIN4aidl7android8hardware5radio7network18NetworkScanRequest42$INCREMENTAL_RESULTS_PREIODICITY_RANGE_MAXE",
   "self_type" : "_ZTIN4aidl7android8hardware5radio7network18NetworkScanRequest42$INCREMENTAL_RESULTS_PREIODICITY_RANGE_MAXE",
   "size" : 4,
   "source_file" : "out/soong/.intermediates/hardware/interfaces/radio/aidl/android.hardware.radio.network-V1-ndk-source/gen/include/aidl/android/hardware/radio/network/NetworkScanRequest.h",
   "underlying_type" : "_ZTIi"
  },
  {
   "alignment" : 4,
   "enum_fields" :
   [
    {
     "enum_field_value" : 1,
     "name" : "aidl::android::hardware::radio::network::NetworkScanRequest::INCREMENTAL_RESULTS_PREIODICITY_RANGE_MIN"
    }
   ],
   "linker_set_key" : "_ZTIN4aidl7android8hardware5radio7network18NetworkScanRequest42$INCREMENTAL_RESULTS_PREIODICITY_RANGE_MINE",
   "name" : "aidl::android::hardware::radio::network::NetworkScanRequest::(unnamed enum at out/soong/.intermediates/hardware/interfaces/radio/aidl/android.hardware.radio.network-V1-ndk-source/gen/include/aidl/android/hardware/radio/network/NetworkScanRequest.h:58:3)",
   "referenced_type" : "_ZTIN4aidl7android8hardware5radio7network18NetworkScanRequest42$INCREMENTAL_RESULTS_PREIODICITY_RANGE_MINE",
   "self_type" : "_ZTIN4aidl7android8hardware5radio7network18NetworkScanRequest42$INCREMENTAL_RESULTS_PREIODICITY_RANGE_MINE",
   "size" : 4,
   "source_file" : "out/soong/.intermediates/hardware/interfaces/radio/aidl/android.hardware.radio.network-V1-ndk-source/gen/include/aidl/android/hardware/radio/network/NetworkScanRequest.h",
   "underlying_type" : "_ZTIi"
  },
  {
   "alignment" : 4,
   "enum_fields" :
   [
    {
     "enum_field_value" : 2,
     "name" : "aidl::android::hardware::radio::network::SignalThresholdInfo::SIGNAL_MEASUREMENT_TYPE_RSCP"
    }
   ],
   "linker_set_key" : "_ZTIN4aidl7android8hardware5radio7network19SignalThresholdInfo29$SIGNAL_MEASUREMENT_TYPE_RSCPE",
   "name" : "aidl::android::hardware::radio::network::SignalThresholdInfo::(unnamed enum at out/soong/.intermediates/hardware/interfaces/radio/aidl/android.hardware.radio.network-V1-ndk-source/gen/include/aidl/android/hardware/radio/network/SignalThresholdInfo.h:57:3)",
   "referenced_type" : "_ZTIN4aidl7android8hardware5radio7network19SignalThresholdInfo29$SIGNAL_MEASUREMENT_TYPE_RSCPE",
   "self_type" : "_ZTIN4aidl7android8hardware5radio7network19SignalThresholdInfo29$SIGNAL_MEASUREMENT_TYPE_RSCPE",
   "size" : 4,
   "source_file" : "out/soong/.intermediates/hardware/interfaces/radio/aidl/android.hardware.radio.network-V1-ndk-source/gen/include/aidl/android/hardware/radio/network/SignalThresholdInfo.h",
   "underlying_type" : "_ZTIi"
  },
  {
   "alignment" : 4,
   "enum_fields" :
   [
    {
     "enum_field_value" : 3,
     "name" : "aidl::android::hardware::radio::network::SignalThresholdInfo::SIGNAL_MEASUREMENT_TYPE_RSRP"
    }
   ],
   "linker_set_key" : "_ZTIN4aidl7android8hardware5radio7network19SignalThresholdInfo29$SIGNAL_MEASUREMENT_TYPE_RSRPE",
   "name" : "aidl::android::hardware::radio::network::SignalThresholdInfo::(unnamed enum at out/soong/.intermediates/hardware/interfaces/radio/aidl/android.hardware.radio.network-V1-ndk-source/gen/include/aidl/android/hardware/radio/network/SignalThresholdInfo.h:58:3)",
   "referenced_type" : "_ZTIN4aidl7android8hardware5radio7network19SignalThresholdInfo29$SIGNAL_MEASUREMENT_TYPE_RSRPE",
   "self_type" : "_ZTIN4aidl7android8hardware5radio7network19SignalThresholdInfo29$SIGNAL_MEASUREMENT_TYPE_RSRPE",
   "size" : 4,
   "source_file" : "out/soong/.intermediates/hardware/interfaces/radio/aidl/android.hardware.radio.network-V1-ndk-source/gen/include/aidl/android/hardware/radio/network/SignalThresholdInfo.h",
   "underlying_type" : "_ZTIi"
  },
  {
   "alignment" : 4,
   "enum_fields" :
   [
    {
     "enum_field_value" : 4,
     "name" : "aidl::android::hardware::radio::network::SignalThresholdInfo::SIGNAL_MEASUREMENT_TYPE_RSRQ"
    }
   ],
   "linker_set_key" : "_ZTIN4aidl7android8hardware5radio7network19SignalThresholdInfo29$SIGNAL_MEASUREMENT_TYPE_RSRQE",
   "name" : "aidl::android::hardware::radio::network::SignalThresholdInfo::(unnamed enum at out/soong/.intermediates/hardware/interfaces/radio/aidl/android.hardware.radio.network-V1-ndk-source/gen/include/aidl/android/hardware/radio/network/SignalThresholdInfo.h:59:3)",
   "referenced_type" : "_ZTIN4aidl7android8hardware5radio7network19SignalThresholdInfo29$SIGNAL_MEASUREMENT_TYPE_RSRQE",
   "self_type" : "_ZTIN4aidl7android8hardware5radio7network19SignalThresholdInfo29$SIGNAL_MEASUREMENT_TYPE_RSRQE",
   "size" : 4,
   "source_file" : "out/soong/.intermediates/hardware/interfaces/radio/aidl/android.hardware.radio.network-V1-ndk-source/gen/include/aidl/android/hardware/radio/network/SignalThresholdInfo.h",
   "underlying_type" : "_ZTIi"
  },
  {
   "alignment" : 4,
   "enum_fields" :
   [
    {
     "enum_field_value" : 1,
     "name" : "aidl::android::hardware::radio::network::SignalThresholdInfo::SIGNAL_MEASUREMENT_TYPE_RSSI"
    }
   ],
   "linker_set_key" : "_ZTIN4aidl7android8hardware5radio7network19SignalThresholdInfo29$SIGNAL_MEASUREMENT_TYPE_RSSIE",
   "name" : "aidl::android::hardware::radio::network::SignalThresholdInfo::(unnamed enum at out/soong/.intermediates/hardware/interfaces/radio/aidl/android.hardware.radio.network-V1-ndk-source/gen/include/aidl/android/hardware/radio/network/SignalThresholdInfo.h:56:3)",
   "referenced_type" : "_ZTIN4aidl7android8hardware5radio7network19SignalThresholdInfo29$SIGNAL_MEASUREMENT_TYPE_RSSIE",
   "self_type" : "_ZTIN4aidl7android8hardware5radio7network19SignalThresholdInfo29$SIGNAL_MEASUREMENT_TYPE_RSSIE",
   "size" : 4,
   "source_file" : "out/soong/.intermediates/hardware/interfaces/radio/aidl/android.hardware.radio.network-V1-ndk-source/gen/include/aidl/android/hardware/radio/network/SignalThresholdInfo.h",
   "underlying_type" : "_ZTIi"
  },
  {
   "alignment" : 4,
   "enum_fields" :
   [
    {
     "enum_field_value" : 5,
     "name" : "aidl::android::hardware::radio::network::SignalThresholdInfo::SIGNAL_MEASUREMENT_TYPE_RSSNR"
    }
   ],
   "linker_set_key" : "_ZTIN4aidl7android8hardware5radio7network19SignalThresholdInfo30$SIGNAL_MEASUREMENT_TYPE_RSSNRE",
   "name" : "aidl::android::hardware::radio::network::SignalThresholdInfo::(unnamed enum at out/soong/.intermediates/hardware/interfaces/radio/aidl/android.hardware.radio.network-V1-ndk-source/gen/include/aidl/android/hardware/radio/network/SignalThresholdInfo.h:60:3)",
   "referenced_type" : "_ZTIN4aidl7android8hardware5radio7network19SignalThresholdInfo30$SIGNAL_MEASUREMENT_TYPE_RSSNRE",
   "self_type" : "_ZTIN4aidl7android8hardware5radio7network19SignalThresholdInfo30$SIGNAL_MEASUREMENT_TYPE_RSSNRE",
   "size" : 4,
   "source_file" : "out/soong/.intermediates/hardware/interfaces/radio/aidl/android.hardware.radio.network-V1-ndk-source/gen/include/aidl/android/hardware/radio/network/SignalThresholdInfo.h",
   "underlying_type" : "_ZTIi"
  },
  {
   "alignment" : 4,
   "enum_fields" :
   [
    {
     "enum_field_value" : 6,
     "name" : "aidl::android::hardware::radio::network::SignalThresholdInfo::SIGNAL_MEASUREMENT_TYPE_SSRSRP"
    }
   ],
   "linker_set_key" : "_ZTIN4aidl7android8hardware5radio7network19SignalThresholdInfo31$SIGNAL_MEASUREMENT_TYPE_SSRSRPE",
   "name" : "aidl::android::hardware::radio::network::SignalThresholdInfo::(unnamed enum at out/soong/.intermediates/hardware/interfaces/radio/aidl/android.hardware.radio.network-V1-ndk-source/gen/include/aidl/android/hardware/radio/network/SignalThresholdInfo.h:61:3)",
   "referenced_type" : "_ZTIN4aidl7android8hardware5radio7network19SignalThresholdInfo31$SIGNAL_MEASUREMENT_TYPE_SSRSRPE",
   "self_type" : "_ZTIN4aidl7android8hardware5radio7network19SignalThresholdInfo31$SIGNAL_MEASUREMENT_TYPE_SSRSRPE",
   "size" : 4,
   "source_file" : "out/soong/.intermediates/hardware/interfaces/radio/aidl/android.hardware.radio.network-V1-ndk-source/gen/include/aidl/android/hardware/radio/network/SignalThresholdInfo.h",
   "underlying_type" : "_ZTIi"
  },
  {
   "alignment" : 4,
   "enum_fields" :
   [
    {
     "enum_field_value" : 7,
     "name" : "aidl::android::hardware::radio::network::SignalThresholdInfo::SIGNAL_MEASUREMENT_TYPE_SSRSRQ"
    }
   ],
   "linker_set_key" : "_ZTIN4aidl7android8hardware5radio7network19SignalThresholdInfo31$SIGNAL_MEASUREMENT_TYPE_SSRSRQE",
   "name" : "aidl::android::hardware::radio::network::SignalThresholdInfo::(unnamed enum at out/soong/.intermediates/hardware/interfaces/radio/aidl/android.hardware.radio.network-V1-ndk-source/gen/include/aidl/android/hardware/radio/network/SignalThresholdInfo.h:62:3)",
   "referenced_type" : "_ZTIN4aidl7android8hardware5radio7network19SignalThresholdInfo31$SIGNAL_MEASUREMENT_TYPE_SSRSRQE",
   "self_type" : "_ZTIN4aidl7android8hardware5radio7network19SignalThresholdInfo31$SIGNAL_MEASUREMENT_TYPE_SSRSRQE",
   "size" : 4,
   "source_file" : "out/soong/.intermediates/hardware/interfaces/radio/aidl/android.hardware.radio.network-V1-ndk-source/gen/include/aidl/android/hardware/radio/network/SignalThresholdInfo.h",
   "underlying_type" : "_ZTIi"
  },
  {
   "alignment" : 4,
   "enum_fields" :
   [
    {
     "enum_field_value" : 8,
     "name" : "aidl::android::hardware::radio::network::SignalThresholdInfo::SIGNAL_MEASUREMENT_TYPE_SSSINR"
    }
   ],
   "linker_set_key" : "_ZTIN4aidl7android8hardware5radio7network19SignalThresholdInfo31$SIGNAL_MEASUREMENT_TYPE_SSSINRE",
   "name" : "aidl::android::hardware::radio::network::SignalThresholdInfo::(unnamed enum at out/soong/.intermediates/hardware/interfaces/radio/aidl/android.hardware.radio.network-V1-ndk-source/gen/include/aidl/android/hardware/radio/network/SignalThresholdInfo.h:63:3)",
   "referenced_type" : "_ZTIN4aidl7android8hardware5radio7network19SignalThresholdInfo31$SIGNAL_MEASUREMENT_TYPE_SSSINRE",
   "self_type" : "_ZTIN4aidl7android8hardware5radio7network19SignalThresholdInfo31$SIGNAL_MEASUREMENT_TYPE_SSSINRE",
   "size" : 4,
   "source_file" : "out/soong/.intermediates/hardware/interfaces/radio/aidl/android.hardware.radio.network-V1-ndk-source/gen/include/aidl/android/hardware/radio/network/SignalThresholdInfo.h",
   "underlying_type" : "_ZTIi"
  },
  {
   "alignment" : 4,
   "enum_fields" :
   [
    {
     "enum_field_value" : 0,
     "name" : "aidl::android::hardware::radio::network::CellConnectionStatus::NONE"
    },
    {
     "enum_field_value" : 1,
     "name" : "aidl::android::hardware::radio::network::CellConnectionStatus::PRIMARY_SERVING"
    },
    {
     "enum_field_value" : 2,
     "name" : "aidl::android::hardware::radio::network::CellConnectionStatus::SECONDARY_SERVING"
    }
   ],
   "linker_set_key" : "_ZTIN4aidl7android8hardware5radio7network20CellConnectionStatusE",
   "name" : "aidl::android::hardware::radio::network::CellConnectionStatus",
   "referenced_type" : "_ZTIN4aidl7android8hardware5radio7network20CellConnectionStatusE",
   "self_type" : "_ZTIN4aidl7android8hardware5radio7network20CellConnectionStatusE",
   "size" : 4,
   "source_file" : "out/soong/.intermediates/hardware/interfaces/radio/aidl/android.hardware.radio.network-V1-ndk-source/gen/include/aidl/android/hardware/radio/network/CellConnectionStatus.h",
   "underlying_type" : "_ZTIi"
  },
  {
   "alignment" : 4,
   "enum_fields" :
   [
    {
     "enum_field_value" : 0,
     "name" : "aidl::android::hardware::radio::network::PhoneRestrictedState::NONE"
    },
    {
     "enum_field_value" : 1,
     "name" : "aidl::android::hardware::radio::network::PhoneRestrictedState::CS_EMERGENCY"
    },
    {
     "enum_field_value" : 2,
     "name" : "aidl::android::hardware::radio::network::PhoneRestrictedState::CS_NORMAL"
    },
    {
     "enum_field_value" : 4,
     "name" : "aidl::android::hardware::radio::network::PhoneRestrictedState::CS_ALL"
    },
    {
     "enum_field_value" : 16,
     "name" : "aidl::android::hardware::radio::network::PhoneRestrictedState::PS_ALL"
    }
   ],
   "linker_set_key" : "_ZTIN4aidl7android8hardware5radio7network20PhoneRestrictedStateE",
   "name" : "aidl::android::hardware::radio::network::PhoneRestrictedState",
   "referenced_type" : "_ZTIN4aidl7android8hardware5radio7network20PhoneRestrictedStateE",
   "self_type" : "_ZTIN4aidl7android8hardware5radio7network20PhoneRestrictedStateE",
   "size" : 4,
   "source_file" : "out/soong/.intermediates/hardware/interfaces/radio/aidl/android.hardware.radio.network-V1-ndk-source/gen/include/aidl/android/hardware/radio/network/PhoneRestrictedState.h",
   "underlying_type" : "_ZTIi"
  },
  {
   "alignment" : 4,
   "enum_fields" :
   [
    {
     "enum_field_value" : 0,
     "name" : "aidl::android::hardware::radio::network::RegistrationFailCause::NONE"
    },
    {
     "enum_field_value" : 2,
     "name" : "aidl::android::hardware::radio::network::RegistrationFailCause::IMSI_UNKNOWN_IN_HLR"
    },
    {
     "enum_field_value" : 3,
     "name" : "aidl::android::hardware::radio::network::RegistrationFailCause::ILLEGAL_MS"
    },
    {
     "enum_field_value" : 4,
     "name" : "aidl::android::hardware::radio::network::RegistrationFailCause::IMSI_UNKNOWN_IN_VLR"
    },
    {
     "enum_field_value" : 5,
     "name" : "aidl::android::hardware::radio::network::RegistrationFailCause::IMEI_NOT_ACCEPTED"
    },
    {
     "enum_field_value" : 6,
     "name" : "aidl::android::hardware::radio::network::RegistrationFailCause::ILLEGAL_ME"
    },
    {
     "enum_field_value" : 7,
     "name" : "aidl::android::hardware::radio::network::RegistrationFailCause::GPRS_SERVICES_NOT_ALLOWED"
    },
    {
     "enum_field_value" : 8,
     "name" : "aidl::android::hardware::radio::network::RegistrationFailCause::GPRS_AND_NON_GPRS_SERVICES_NOT_ALLOWED"
    },
    {
     "enum_field_value" : 9,
     "name" : "aidl::android::hardware::radio::network::RegistrationFailCause::MS_IDENTITY_CANNOT_BE_DERIVED_BY_NETWORK"
    },
    {
     "enum_field_value" : 10,
     "name" : "aidl::android::hardware::radio::network::RegistrationFailCause::IMPLICITLY_DETACHED"
    },
    {
     "enum_field_value" : 11,
     "name" : "aidl::android::hardware::radio::network::RegistrationFailCause::PLMN_NOT_ALLOWED"
    },
    {
     "enum_field_value" : 12,
     "name" : "aidl::android::hardware::radio::network::RegistrationFailCause::LOCATION_AREA_NOT_ALLOWED"
    },
    {
     "enum_field_value" : 13,
     "name" : "aidl::android::hardware::radio::network::RegistrationFailCause::ROAMING_NOT_ALLOWED"
    },
    {
     "enum_field_value" : 14,
     "name" : "aidl::android::hardware::radio::network::RegistrationFailCause::GPRS_SERVICES_NOT_ALLOWED_IN_PLMN"
    },
    {
     "enum_field_value" : 15,
     "name" : "aidl::android::hardware::radio::network::RegistrationFailCause::NO_SUITABLE_CELLS"
    },
    {
     "enum_field_value" : 15,
     "name" : "aidl::android::hardware::radio::network::RegistrationFailCause::MSC_TEMPORARILY_NOT_REACHABLE"
    },
    {
     "enum_field_value" : 17,
     "name" : "aidl::android::hardware::radio::network::RegistrationFailCause::NETWORK_FAILURE"
    },
    {
     "enum_field_value" : 20,
     "name" : "aidl::android::hardware::radio::network::RegistrationFailCause::MAC_FAILURE"
    },
    {
     "enum_field_value" : 21,
     "name" : "aidl::android::hardware::radio::network::RegistrationFailCause::SYNC_FAILURE"
    },
    {
     "enum_field_value" : 22,
     "name" : "aidl::android::hardware::radio::network::RegistrationFailCause::CONGESTION"
    },
    {
     "enum_field_value" : 23,
     "name" : "aidl::android::hardware::radio::network::RegistrationFailCause::GSM_AUTHENTICATION_UNACCEPTABLE"
    },
    {
     "enum_field_value" : 25,
     "name" : "aidl::android::hardware::radio::network::RegistrationFailCause::NOT_AUTHORIZED_FOR_THIS_CSG"
    },
    {
     "enum_field_value" : 26,
     "name" : "aidl::android::hardware::radio::network::RegistrationFailCause::SMS_PROVIDED_BY_GPRS_IN_ROUTING_AREA"
    },
    {
     "enum_field_value" : 32,
     "name" : "aidl::android::hardware::radio::network::RegistrationFailCause::SERVICE_OPTION_NOT_SUPPORTED"
    },
    {
     "enum_field_value" : 33,
     "name" : "aidl::android::hardware::radio::network::RegistrationFailCause::SERVICE_OPTION_NOT_SUBSCRIBED"
    },
    {
     "enum_field_value" : 34,
     "name" : "aidl::android::hardware::radio::network::RegistrationFailCause::SERVICE_OPTION_TEMPORARILY_OUT_OF_ORDER"
    },
    {
     "enum_field_value" : 38,
     "name" : "aidl::android::hardware::radio::network::RegistrationFailCause::CALL_CANNOT_BE_IDENTIFIED"
    },
    {
     "enum_field_value" : 40,
     "name" : "aidl::android::hardware::radio::network::RegistrationFailCause::NO_PDP_CONTEXT_ACTIVATED"
    },
    {
     "enum_field_value" : 48,
     "name" : "aidl::android::hardware::radio::network::RegistrationFailCause::RETRY_UPON_ENTRY_INTO_NEW_CELL_1"
    },
    {
     "enum_field_value" : 49,
     "name" : "aidl::android::hardware::radio::network::RegistrationFailCause::RETRY_UPON_ENTRY_INTO_NEW_CELL_2"
    },
    {
     "enum_field_value" : 50,
     "name" : "aidl::android::hardware::radio::network::RegistrationFailCause::RETRY_UPON_ENTRY_INTO_NEW_CELL_3"
    },
    {
     "enum_field_value" : 51,
     "name" : "aidl::android::hardware::radio::network::RegistrationFailCause::RETRY_UPON_ENTRY_INTO_NEW_CELL_4"
    },
    {
     "enum_field_value" : 52,
     "name" : "aidl::android::hardware::radio::network::RegistrationFailCause::RETRY_UPON_ENTRY_INTO_NEW_CELL_5"
    },
    {
     "enum_field_value" : 53,
     "name" : "aidl::android::hardware::radio::network::RegistrationFailCause::RETRY_UPON_ENTRY_INTO_NEW_CELL_6"
    },
    {
     "enum_field_value" : 54,
     "name" : "aidl::android::hardware::radio::network::RegistrationFailCause::RETRY_UPON_ENTRY_INTO_NEW_CELL_7"
    },
    {
     "enum_field_value" : 55,
     "name" : "aidl::android::hardware::radio::network::RegistrationFailCause::RETRY_UPON_ENTRY_INTO_NEW_CELL_8"
    },
    {
     "enum_field_value" : 56,
     "name" : "aidl::android::hardware::radio::network::RegistrationFailCause::RETRY_UPON_ENTRY_INTO_NEW_CELL_9"
    },
    {
     "enum_field_value" : 57,
     "name" : "aidl::android::hardware::radio::network::RegistrationFailCause::RETRY_UPON_ENTRY_INTO_NEW_CELL_10"
    },
    {
     "enum_field_value" : 58,
     "name" : "aidl::android::hardware::radio::network::RegistrationFailCause::RETRY_UPON_ENTRY_INTO_NEW_CELL_11"
    },
    {
     "enum_field_value" : 59,
     "name" : "aidl::android::hardware::radio::network::RegistrationFailCause::RETRY_UPON_ENTRY_INTO_NEW_CELL_12"
    },
    {
     "enum_field_value" : 60,
     "name" : "aidl::android::hardware::radio::network::RegistrationFailCause::RETRY_UPON_ENTRY_INTO_NEW_CELL_13"
    },
    {
     "enum_field_value" : 61,
     "name" : "aidl::android::hardware::radio::network::RegistrationFailCause::RETRY_UPON_ENTRY_INTO_NEW_CELL_14"
    },
    {
     "enum_field_value" : 62,
     "name" : "aidl::android::hardware::radio::network::RegistrationFailCause::RETRY_UPON_ENTRY_INTO_NEW_CELL_15"
    },
    {
     "enum_field_value" : 63,
     "name" : "aidl::android::hardware::radio::network::RegistrationFailCause::RETRY_UPON_ENTRY_INTO_NEW_CELL_16"
    },
    {
     "enum_field_value" : 95,
     "name" : "aidl::android::hardware::radio::network::RegistrationFailCause::SEMANTICALLY_INCORRECT_MESSAGE"
    },
    {
     "enum_field_value" : 96,
     "name" : "aidl::android::hardware::radio::network::RegistrationFailCause::INVALID_MANDATORY_INFORMATION"
    },
    {
     "enum_field_value" : 97,
     "name" : "aidl::android::hardware::radio::network::RegistrationFailCause::MESSAGE_TYPE_NON_EXISTENT_OR_NOT_IMPLEMENTED"
    },
    {
     "enum_field_value" : 98,
     "name" : "aidl::android::hardware::radio::network::RegistrationFailCause::MESSAGE_TYPE_NOT_COMPATIBLE_WITH_PROTOCOL_STATE"
    },
    {
     "enum_field_value" : 99,
     "name" : "aidl::android::hardware::radio::network::RegistrationFailCause::INFORMATION_ELEMENT_NON_EXISTENT_OR_NOT_IMPLEMENTED"
    },
    {
     "enum_field_value" : 100,
     "name" : "aidl::android::hardware::radio::network::RegistrationFailCause::CONDITIONAL_IE_ERROR"
    },
    {
     "enum_field_value" : 101,
     "name" : "aidl::android::hardware::radio::network::RegistrationFailCause::MESSAGE_NOT_COMPATIBLE_WITH_PROTOCOL_STATE"
    },
    {
     "enum_field_value" : 111,
     "name" : "aidl::android::hardware::radio::network::RegistrationFailCause::PROTOCOL_ERROR_UNSPECIFIED"
    }
   ],
   "linker_set_key" : "_ZTIN4aidl7android8hardware5radio7network21RegistrationFailCauseE",
   "name" : "aidl::android::hardware::radio::network::RegistrationFailCause",
   "referenced_type" : "_ZTIN4aidl7android8hardware5radio7network21RegistrationFailCauseE",
   "self_type" : "_ZTIN4aidl7android8hardware5radio7network21RegistrationFailCauseE",
   "size" : 4,
   "source_file" : "out/soong/.intermediates/hardware/interfaces/radio/aidl/android.hardware.radio.network-V1-ndk-source/gen/include/aidl/android/hardware/radio/network/RegistrationFailCause.h",
   "underlying_type" : "_ZTIi"
  },
  {
   "alignment" : 4,
   "enum_fields" :
   [
    {
     "enum_field_value" : 0,
     "name" : "aidl::android::hardware::radio::network::CellInfoRatSpecificInfo::Tag::gsm"
    },
    {
     "enum_field_value" : 1,
     "name" : "aidl::android::hardware::radio::network::CellInfoRatSpecificInfo::Tag::wcdma"
    },
    {
     "enum_field_value" : 2,
     "name" : "aidl::android::hardware::radio::network::CellInfoRatSpecificInfo::Tag::tdscdma"
    },
    {
     "enum_field_value" : 3,
     "name" : "aidl::android::hardware::radio::network::CellInfoRatSpecificInfo::Tag::lte"
    },
    {
     "enum_field_value" : 4,
     "name" : "aidl::android::hardware::radio::network::CellInfoRatSpecificInfo::Tag::nr"
    },
    {
     "enum_field_value" : 5,
     "name" : "aidl::android::hardware::radio::network::CellInfoRatSpecificInfo::Tag::cdma"
    }
   ],
   "linker_set_key" : "_ZTIN4aidl7android8hardware5radio7network23CellInfoRatSpecificInfo3TagE",
   "name" : "aidl::android::hardware::radio::network::CellInfoRatSpecificInfo::Tag",
   "referenced_type" : "_ZTIN4aidl7android8hardware5radio7network23CellInfoRatSpecificInfo3TagE",
   "self_type" : "_ZTIN4aidl7android8hardware5radio7network23CellInfoRatSpecificInfo3TagE",
   "size" : 4,
   "source_file" : "out/soong/.intermediates/hardware/interfaces/radio/aidl/android.hardware.radio.network-V1-ndk-source/gen/include/aidl/android/hardware/radio/network/CellInfoRatSpecificInfo.h",
   "underlying_type" : "_ZTIi"
  },
  {
   "alignment" : 1,
   "enum_fields" :
   [
    {
     "enum_field_value" : 1,
     "name" : "aidl::android::hardware::radio::network::NrDualConnectivityState::ENABLE"
    },
    {
     "enum_field_value" : 2,
     "name" : "aidl::android::hardware::radio::network::NrDualConnectivityState::DISABLE"
    },
    {
     "enum_field_value" : 3,
     "name" : "aidl::android::hardware::radio::network::NrDualConnectivityState::DISABLE_IMMEDIATE"
    }
   ],
   "linker_set_key" : "_ZTIN4aidl7android8hardware5radio7network23NrDualConnectivityStateE",
   "name" : "aidl::android::hardware::radio::network::NrDualConnectivityState",
   "referenced_type" : "_ZTIN4aidl7android8hardware5radio7network23NrDualConnectivityStateE",
   "self_type" : "_ZTIN4aidl7android8hardware5radio7network23NrDualConnectivityStateE",
   "size" : 1,
   "source_file" : "out/soong/.intermediates/hardware/interfaces/radio/aidl/android.hardware.radio.network-V1-ndk-source/gen/include/aidl/android/hardware/radio/network/NrDualConnectivityState.h",
   "underlying_type" : "_ZTIa"
  },
  {
   "alignment" : 4,
   "enum_fields" :
   [
    {
     "enum_field_value" : 1,
     "name" : "aidl::android::hardware::radio::network::Cdma2000RegistrationInfo::PRL_INDICATOR_IN_PRL"
    }
   ],
   "linker_set_key" : "_ZTIN4aidl7android8hardware5radio7network24Cdma2000RegistrationInfo21$PRL_INDICATOR_IN_PRLE",
   "name" : "aidl::android::hardware::radio::network::Cdma2000RegistrationInfo::(unnamed enum at out/soong/.intermediates/hardware/interfaces/radio/aidl/android.hardware.radio.network-V1-ndk-source/gen/include/aidl/android/hardware/radio/network/Cdma2000RegistrationInfo.h:55:3)",
   "referenced_type" : "_ZTIN4aidl7android8hardware5radio7network24Cdma2000RegistrationInfo21$PRL_INDICATOR_IN_PRLE",
   "self_type" : "_ZTIN4aidl7android8hardware5radio7network24Cdma2000RegistrationInfo21$PRL_INDICATOR_IN_PRLE",
   "size" : 4,
   "source_file" : "out/soong/.intermediates/hardware/interfaces/radio/aidl/android.hardware.radio.network-V1-ndk-source/gen/include/aidl/android/hardware/radio/network/Cdma2000RegistrationInfo.h",
   "underlying_type" : "_ZTIi"
  },
  {
   "alignment" : 4,
   "enum_fields" :
   [
    {
     "enum_field_value" : 0,
     "name" : "aidl::android::hardware::radio::network::Cdma2000RegistrationInfo::PRL_INDICATOR_NOT_IN_PRL"
    }
   ],
   "linker_set_key" : "_ZTIN4aidl7android8hardware5radio7network24Cdma2000RegistrationInfo25$PRL_INDICATOR_NOT_IN_PRLE",
   "name" : "aidl::android::hardware::radio::network::Cdma2000RegistrationInfo::(unnamed enum at out/soong/.intermediates/hardware/interfaces/radio/aidl/android.hardware.radio.network-V1-ndk-source/gen/include/aidl/android/hardware/radio/network/Cdma2000RegistrationInfo.h:54:3)",
   "referenced_type" : "_ZTIN4aidl7android8hardware5radio7network24Cdma2000RegistrationInfo25$PRL_INDICATOR_NOT_IN_PRLE",
   "self_type" : "_ZTIN4aidl7android8hardware5radio7network24Cdma2000RegistrationInfo25$PRL_INDICATOR_NOT_IN_PRLE",
   "size" : 4,
   "source_file" : "out/soong/.intermediates/hardware/interfaces/radio/aidl/android.hardware.radio.network-V1-ndk-source/gen/include/aidl/android/hardware/radio/network/Cdma2000RegistrationInfo.h",
   "underlying_type" : "_ZTIi"
  },
  {
   "alignment" : 4,
   "enum_fields" :
   [
    {
     "enum_field_value" : -1,
     "name" : "aidl::android::hardware::radio::network::Cdma2000RegistrationInfo::PRL_INDICATOR_NOT_REGISTERED"
    }
   ],
   "linker_set_key" : "_ZTIN4aidl7android8hardware5radio7network24Cdma2000RegistrationInfo29$PRL_INDICATOR_NOT_REGISTEREDE",
   "name" : "aidl::android::hardware::radio::network::Cdma2000RegistrationInfo::(unnamed enum at out/soong/.intermediates/hardware/interfaces/radio/aidl/android.hardware.radio.network-V1-ndk-source/gen/include/aidl/android/hardware/radio/network/Cdma2000RegistrationInfo.h:53:3)",
   "referenced_type" : "_ZTIN4aidl7android8hardware5radio7network24Cdma2000RegistrationInfo29$PRL_INDICATOR_NOT_REGISTEREDE",
   "self_type" : "_ZTIN4aidl7android8hardware5radio7network24Cdma2000RegistrationInfo29$PRL_INDICATOR_NOT_REGISTEREDE",
   "size" : 4,
   "source_file" : "out/soong/.intermediates/hardware/interfaces/radio/aidl/android.hardware.radio.network-V1-ndk-source/gen/include/aidl/android/hardware/radio/network/Cdma2000RegistrationInfo.h",
   "underlying_type" : "_ZTIi"
  },
  {
   "alignment" : 4,
   "enum_fields" :
   [
    {
     "enum_field_value" : 0,
     "name" : "aidl::android::hardware::radio::network::PhysicalChannelConfigBand::Tag::noinit"
    },
    {
     "enum_field_value" : 1,
     "name" : "aidl::android::hardware::radio::network::PhysicalChannelConfigBand::Tag::geranBand"
    },
    {
     "enum_field_value" : 2,
     "name" : "aidl::android::hardware::radio::network::PhysicalChannelConfigBand::Tag::utranBand"
    },
    {
     "enum_field_value" : 3,
     "name" : "aidl::android::hardware::radio::network::PhysicalChannelConfigBand::Tag::eutranBand"
    },
    {
     "enum_field_value" : 4,
     "name" : "aidl::android::hardware::radio::network::PhysicalChannelConfigBand::Tag::ngranBand"
    }
   ],
   "linker_set_key" : "_ZTIN4aidl7android8hardware5radio7network25PhysicalChannelConfigBand3TagE",
   "name" : "aidl::android::hardware::radio::network::PhysicalChannelConfigBand::Tag",
   "referenced_type" : "_ZTIN4aidl7android8hardware5radio7network25PhysicalChannelConfigBand3TagE",
   "self_type" : "_ZTIN4aidl7android8hardware5radio7network25PhysicalChannelConfigBand3TagE",
   "size" : 4,
   "source_file" : "out/soong/.intermediates/hardware/interfaces/radio/aidl/android.hardware.radio.network-V1-ndk-source/gen/include/aidl/android/hardware/radio/network/PhysicalChannelConfigBand.h",
   "underlying_type" : "_ZTIi"
  },
  {
   "alignment" : 4,
   "enum_fields" :
   [
    {
     "enum_field_value" : 0,
     "name" : "aidl::android::hardware::radio::network::RadioAccessSpecifierBands::Tag::noinit"
    },
    {
     "enum_field_value" : 1,
     "name" : "aidl::android::hardware::radio::network::RadioAccessSpecifierBands::Tag::geranBands"
    },
    {
     "enum_field_value" : 2,
     "name" : "aidl::android::hardware::radio::network::RadioAccessSpecifierBands::Tag::utranBands"
    },
    {
     "enum_field_value" : 3,
     "name" : "aidl::android::hardware::radio::network::RadioAccessSpecifierBands::Tag::eutranBands"
    },
    {
     "enum_field_value" : 4,
     "name" : "aidl::android::hardware::radio::network::RadioAccessSpecifierBands::Tag::ngranBands"
    }
   ],
   "linker_set_key" : "_ZTIN4aidl7android8hardware5radio7network25RadioAccessSpecifierBands3TagE",
   "name" : "aidl::android::hardware::radio::network::RadioAccessSpecifierBands::Tag",
   "referenced_type" : "_ZTIN4aidl7android8hardware5radio7network25RadioAccessSpecifierBands3TagE",
   "self_type" : "_ZTIN4aidl7android8hardware5radio7network25RadioAccessSpecifierBands3TagE",
   "size" : 4,
   "source_file" : "out/soong/.intermediates/hardware/interfaces/radio/aidl/android.hardware.radio.network-V1-ndk-source/gen/include/aidl/android/hardware/radio/network/RadioAccessSpecifierBands.h",
   "underlying_type" : "_ZTIi"
  },
  {
   "alignment" : 4,
   "enum_fields" :
   [
    {
     "enum_field_value" : 0,
     "name" : "aidl::android::hardware::radio::network::AccessTechnologySpecificInfo::Tag::noinit"
    },
    {
     "enum_field_value" : 1,
     "name" : "aidl::android::hardware::radio::network::AccessTechnologySpecificInfo::Tag::cdmaInfo"
    },
    {
     "enum_field_value" : 2,
     "name" : "aidl::android::hardware::radio::network::AccessTechnologySpecificInfo::Tag::eutranInfo"
    },
    {
     "enum_field_value" : 3,
     "name" : "aidl::android::hardware::radio::network::AccessTechnologySpecificInfo::Tag::ngranNrVopsInfo"
    },
    {
     "enum_field_value" : 4,
     "name" : "aidl::android::hardware::radio::network::AccessTechnologySpecificInfo::Tag::geranDtmSupported"
    }
   ],
   "linker_set_key" : "_ZTIN4aidl7android8hardware5radio7network28AccessTechnologySpecificInfo3TagE",
   "name" : "aidl::android::hardware::radio::network::AccessTechnologySpecificInfo::Tag",
   "referenced_type" : "_ZTIN4aidl7android8hardware5radio7network28AccessTechnologySpecificInfo3TagE",
   "self_type" : "_ZTIN4aidl7android8hardware5radio7network28AccessTechnologySpecificInfo3TagE",
   "size" : 4,
   "source_file" : "out/soong/.intermediates/hardware/interfaces/radio/aidl/android.hardware.radio.network-V1-ndk-source/gen/include/aidl/android/hardware/radio/network/AccessTechnologySpecificInfo.h",
   "underlying_type" : "_ZTIi"
  },
  {
   "alignment" : 4,
   "enum_fields" :
   [
    {
     "enum_field_value" : 0,
     "name" : "aidl::android::hardware::radio::network::RegState::NOT_REG_MT_NOT_SEARCHING_OP"
    },
    {
     "enum_field_value" : 1,
     "name" : "aidl::android::hardware::radio::network::RegState::REG_HOME"
    },
    {
     "enum_field_value" : 2,
     "name" : "aidl::android::hardware::radio::network::RegState::NOT_REG_MT_SEARCHING_OP"
    },
    {
     "enum_field_value" : 3,
     "name" : "aidl::android::hardware::radio::network::RegState::REG_DENIED"
    },
    {
     "enum_field_value" : 4,
     "name" : "aidl::android::hardware::radio::network::RegState::UNKNOWN"
    },
    {
     "enum_field_value" : 5,
     "name" : "aidl::android::hardware::radio::network::RegState::REG_ROAMING"
    },
    {
     "enum_field_value" : 10,
     "name" : "aidl::android::hardware::radio::network::RegState::NOT_REG_MT_NOT_SEARCHING_OP_EM"
    },
    {
     "enum_field_value" : 12,
     "name" : "aidl::android::hardware::radio::network::RegState::NOT_REG_MT_SEARCHING_OP_EM"
    },
    {
     "enum_field_value" : 13,
     "name" : "aidl::android::hardware::radio::network::RegState::REG_DENIED_EM"
    },
    {
     "enum_field_value" : 14,
     "name" : "aidl::android::hardware::radio::network::RegState::UNKNOWN_EM"
    }
   ],
   "linker_set_key" : "_ZTIN4aidl7android8hardware5radio7network8RegStateE",
   "name" : "aidl::android::hardware::radio::network::RegState",
   "referenced_type" : "_ZTIN4aidl7android8hardware5radio7network8RegStateE",
   "self_type" : "_ZTIN4aidl7android8hardware5radio7network8RegStateE",
   "size" : 4,
   "source_file" : "out/soong/.intermediates/hardware/interfaces/radio/aidl/android.hardware.radio.network-V1-ndk-source/gen/include/aidl/android/hardware/radio/network/RegState.h",
   "underlying_type" : "_ZTIi"
  },
  {
   "alignment" : 4,
   "enum_fields" :
   [
    {
     "enum_field_value" : 1,
     "name" : "android::internal::details::IsIterable<std::vector<aidl::android::hardware::radio::network::GeranBands>>::value"
    }
   ],
   "linker_set_key" : "_ZTIN7android8internal7details10IsIterableINSt3__16vectorIN4aidl7android8hardware5radio7network10GeranBandsENS3_9allocatorISA_EEEEE6$valueE",
   "name" : "android::internal::details::IsIterable<std::vector<aidl::android::hardware::radio::network::GeranBands, std::allocator<aidl::android::hardware::radio::network::GeranBands>>>::(unnamed enum at frameworks/native/libs/binder/ndk/include_cpp/android/binder_to_string.h:131:5)",
   "referenced_type" : "_ZTIN7android8internal7details10IsIterableINSt3__16vectorIN4aidl7android8hardware5radio7network10GeranBandsENS3_9allocatorISA_EEEEE6$valueE",
   "self_type" : "_ZTIN7android8internal7details10IsIterableINSt3__16vectorIN4aidl7android8hardware5radio7network10GeranBandsENS3_9allocatorISA_EEEEE6$valueE",
   "size" : 4,
   "source_file" : "frameworks/native/libs/binder/ndk/include_cpp/android/binder_to_string.h",
   "underlying_type" : "_ZTIj"
  },
  {
   "alignment" : 4,
   "enum_fields" :
   [
    {
     "enum_field_value" : 1,
     "name" : "android::internal::details::IsIterable<std::vector<aidl::android::hardware::radio::network::NgranBands>>::value"
    }
   ],
   "linker_set_key" : "_ZTIN7android8internal7details10IsIterableINSt3__16vectorIN4aidl7android8hardware5radio7network10NgranBandsENS3_9allocatorISA_EEEEE6$valueE",
   "name" : "android::internal::details::IsIterable<std::vector<aidl::android::hardware::radio::network::NgranBands, std::allocator<aidl::android::hardware::radio::network::NgranBands>>>::(unnamed enum at frameworks/native/libs/binder/ndk/include_cpp/android/binder_to_string.h:131:5)",
   "referenced_type" : "_ZTIN7android8internal7details10IsIterableINSt3__16vectorIN4aidl7android8hardware5radio7network10NgranBandsENS3_9allocatorISA_EEEEE6$valueE",
   "self_type" : "_ZTIN7android8internal7details10IsIterableINSt3__16vectorIN4aidl7android8hardware5radio7network10NgranBandsENS3_9allocatorISA_EEEEE6$valueE",
   "size" : 4,
   "source_file" : "frameworks/native/libs/binder/ndk/include_cpp/android/binder_to_string.h",
   "underlying_type" : "_ZTIj"
  },
  {
   "alignment" : 4,
   "enum_fields" :
   [
    {
     "enum_field_value" : 1,
     "name" : "android::internal::details::IsIterable<std::vector<aidl::android::hardware::radio::network::UtranBands>>::value"
    }
   ],
   "linker_set_key" : "_ZTIN7android8internal7details10IsIterableINSt3__16vectorIN4aidl7android8hardware5radio7network10UtranBandsENS3_9allocatorISA_EEEEE6$valueE",
   "name" : "android::internal::details::IsIterable<std::vector<aidl::android::hardware::radio::network::UtranBands, std::allocator<aidl::android::hardware::radio::network::UtranBands>>>::(unnamed enum at frameworks/native/libs/binder/ndk/include_cpp/android/binder_to_string.h:131:5)",
   "referenced_type" : "_ZTIN7android8internal7details10IsIterableINSt3__16vectorIN4aidl7android8hardware5radio7network10UtranBandsENS3_9allocatorISA_EEEEE6$valueE",
   "self_type" : "_ZTIN7android8internal7details10IsIterableINSt3__16vectorIN4aidl7android8hardware5radio7network10UtranBandsENS3_9allocatorISA_EEEEE6$valueE",
   "size" : 4,
   "source_file" : "frameworks/native/libs/binder/ndk/include_cpp/android/binder_to_string.h",
   "underlying_type" : "_ZTIj"
  },
  {
   "alignment" : 4,
   "enum_fields" :
   [
    {
     "enum_field_value" : 1,
     "name" : "android::internal::details::IsIterable<std::vector<aidl::android::hardware::radio::network::EutranBands>>::value"
    }
   ],
   "linker_set_key" : "_ZTIN7android8internal7details10IsIterableINSt3__16vectorIN4aidl7android8hardware5radio7network11EutranBandsENS3_9allocatorISA_EEEEE6$valueE",
   "name" : "android::internal::details::IsIterable<std::vector<aidl::android::hardware::radio::network::EutranBands, std::allocator<aidl::android::hardware::radio::network::EutranBands>>>::(unnamed enum at frameworks/native/libs/binder/ndk/include_cpp/android/binder_to_string.h:131:5)",
   "referenced_type" : "_ZTIN7android8internal7details10IsIterableINSt3__16vectorIN4aidl7android8hardware5radio7network11EutranBandsENS3_9allocatorISA_EEEEE6$valueE",
   "self_type" : "_ZTIN7android8internal7details10IsIterableINSt3__16vectorIN4aidl7android8hardware5radio7network11EutranBandsENS3_9allocatorISA_EEEEE6$valueE",
   "size" : 4,
   "source_file" : "frameworks/native/libs/binder/ndk/include_cpp/android/binder_to_string.h",
   "underlying_type" : "_ZTIj"
  },
  {
   "alignment" : 4,
   "enum_fields" :
   [
    {
     "enum_field_value" : 1,
     "name" : "android::internal::details::IsIterable<std::vector<aidl::android::hardware::radio::network::RadioAccessSpecifier>>::value"
    }
   ],
   "linker_set_key" : "_ZTIN7android8internal7details10IsIterableINSt3__16vectorIN4aidl7android8hardware5radio7network20RadioAccessSpecifierENS3_9allocatorISA_EEEEE6$valueE",
   "name" : "android::internal::details::IsIterable<std::vector<aidl::android::hardware::radio::network::RadioAccessSpecifier, std::allocator<aidl::android::hardware::radio::network::RadioAccessSpecifier>>>::(unnamed enum at frameworks/native/libs/binder/ndk/include_cpp/android/binder_to_string.h:131:5)",
   "referenced_type" : "_ZTIN7android8internal7details10IsIterableINSt3__16vectorIN4aidl7android8hardware5radio7network20RadioAccessSpecifierENS3_9allocatorISA_EEEEE6$valueE",
   "self_type" : "_ZTIN7android8internal7details10IsIterableINSt3__16vectorIN4aidl7android8hardware5radio7network20RadioAccessSpecifierENS3_9allocatorISA_EEEEE6$valueE",
   "size" : 4,
   "source_file" : "frameworks/native/libs/binder/ndk/include_cpp/android/binder_to_string.h",
   "underlying_type" : "_ZTIj"
  },
  {
   "alignment" : 4,
   "enum_fields" :
   [
    {
     "enum_field_value" : 1,
     "name" : "android::internal::details::IsIterable<std::vector<aidl::android::hardware::radio::network::CellInfo>>::value"
    }
   ],
   "linker_set_key" : "_ZTIN7android8internal7details10IsIterableINSt3__16vectorIN4aidl7android8hardware5radio7network8CellInfoENS3_9allocatorISA_EEEEE6$valueE",
   "name" : "android::internal::details::IsIterable<std::vector<aidl::android::hardware::radio::network::CellInfo, std::allocator<aidl::android::hardware::radio::network::CellInfo>>>::(unnamed enum at frameworks/native/libs/binder/ndk/include_cpp/android/binder_to_string.h:131:5)",
   "referenced_type" : "_ZTIN7android8internal7details10IsIterableINSt3__16vectorIN4aidl7android8hardware5radio7network8CellInfoENS3_9allocatorISA_EEEEE6$valueE",
   "self_type" : "_ZTIN7android8internal7details10IsIterableINSt3__16vectorIN4aidl7android8hardware5radio7network8CellInfoENS3_9allocatorISA_EEEEE6$valueE",
   "size" : 4,
   "source_file" : "frameworks/native/libs/binder/ndk/include_cpp/android/binder_to_string.h",
   "underlying_type" : "_ZTIj"
  },
  {
   "alignment" : 4,
   "enum_fields" :
   [
    {
     "enum_field_value" : 1,
     "name" : "android::internal::details::IsIterable<std::vector<std::basic_string<char>>>::value"
    }
   ],
   "linker_set_key" : "_ZTIN7android8internal7details10IsIterableINSt3__16vectorINS3_12basic_stringIcNS3_11char_traitsIcEENS3_9allocatorIcEEEENS8_ISA_EEEEE6$valueE",
   "name" : "android::internal::details::IsIterable<std::vector<std::basic_string<char, std::char_traits<char>, std::allocator<char>>, std::allocator<std::basic_string<char, std::char_traits<char>, std::allocator<char>>>>>::(unnamed enum at frameworks/native/libs/binder/ndk/include_cpp/android/binder_to_string.h:131:5)",
   "referenced_type" : "_ZTIN7android8internal7details10IsIterableINSt3__16vectorINS3_12basic_stringIcNS3_11char_traitsIcEENS3_9allocatorIcEEEENS8_ISA_EEEEE6$valueE",
   "self_type" : "_ZTIN7android8internal7details10IsIterableINSt3__16vectorINS3_12basic_stringIcNS3_11char_traitsIcEENS3_9allocatorIcEEEENS8_ISA_EEEEE6$valueE",
   "size" : 4,
   "source_file" : "frameworks/native/libs/binder/ndk/include_cpp/android/binder_to_string.h",
   "underlying_type" : "_ZTIj"
  },
  {
   "alignment" : 4,
   "enum_fields" :
   [
    {
     "enum_field_value" : 1,
     "name" : "android::internal::details::IsIterable<std::vector<unsigned char>>::value"
    }
   ],
   "linker_set_key" : "_ZTIN7android8internal7details10IsIterableINSt3__16vectorIhNS3_9allocatorIhEEEEE6$valueE",
   "name" : "android::internal::details::IsIterable<std::vector<unsigned char, std::allocator<unsigned char>>>::(unnamed enum at frameworks/native/libs/binder/ndk/include_cpp/android/binder_to_string.h:131:5)",
   "referenced_type" : "_ZTIN7android8internal7details10IsIterableINSt3__16vectorIhNS3_9allocatorIhEEEEE6$valueE",
   "self_type" : "_ZTIN7android8internal7details10IsIterableINSt3__16vectorIhNS3_9allocatorIhEEEEE6$valueE",
   "size" : 4,
   "source_file" : "frameworks/native/libs/binder/ndk/include_cpp/android/binder_to_string.h",
   "underlying_type" : "_ZTIj"
  },
  {
   "alignment" : 4,
   "enum_fields" :
   [
    {
     "enum_field_value" : 1,
     "name" : "android::internal::details::IsIterable<std::vector<int>>::value"
    }
   ],
   "linker_set_key" : "_ZTIN7android8internal7details10IsIterableINSt3__16vectorIiNS3_9allocatorIiEEEEE6$valueE",
   "name" : "android::internal::details::IsIterable<std::vector<int, std::allocator<int>>>::(unnamed enum at frameworks/native/libs/binder/ndk/include_cpp/android/binder_to_string.h:131:5)",
   "referenced_type" : "_ZTIN7android8internal7details10IsIterableINSt3__16vectorIiNS3_9allocatorIiEEEEE6$valueE",
   "self_type" : "_ZTIN7android8internal7details10IsIterableINSt3__16vectorIiNS3_9allocatorIiEEEEE6$valueE",
   "size" : 4,
   "source_file" : "frameworks/native/libs/binder/ndk/include_cpp/android/binder_to_string.h",
   "underlying_type" : "_ZTIj"
  },
  {
   "alignment" : 4,
   "enum_fields" :
   [
    {
     "enum_field_value" : 0,
     "name" : "android::internal::details::IsPointerLike<aidl::android::hardware::radio::RadioError>::value"
    }
   ],
   "linker_set_key" : "_ZTIN7android8internal7details13IsPointerLikeIN4aidl7android8hardware5radio10RadioErrorEE6$valueE",
   "name" : "android::internal::details::IsPointerLike<aidl::android::hardware::radio::RadioError>::(unnamed enum at frameworks/native/libs/binder/ndk/include_cpp/android/binder_to_string.h:118:5)",
   "referenced_type" : "_ZTIN7android8internal7details13IsPointerLikeIN4aidl7android8hardware5radio10RadioErrorEE6$valueE",
   "self_type" : "_ZTIN7android8internal7details13IsPointerLikeIN4aidl7android8hardware5radio10RadioErrorEE6$valueE",
   "size" : 4,
   "source_file" : "frameworks/native/libs/binder/ndk/include_cpp/android/binder_to_string.h",
   "underlying_type" : "_ZTIj"
  },
  {
   "alignment" : 4,
   "enum_fields" :
   [
    {
     "enum_field_value" : 0,
     "name" : "android::internal::details::IsPointerLike<aidl::android::hardware::radio::AccessNetwork>::value"
    }
   ],
   "linker_set_key" : "_ZTIN7android8internal7details13IsPointerLikeIN4aidl7android8hardware5radio13AccessNetworkEE6$valueE",
   "name" : "android::internal::details::IsPointerLike<aidl::android::hardware::radio::AccessNetwork>::(unnamed enum at frameworks/native/libs/binder/ndk/include_cpp/android/binder_to_string.h:118:5)",
   "referenced_type" : "_ZTIN7android8internal7details13IsPointerLikeIN4aidl7android8hardware5radio13AccessNetworkEE6$valueE",
   "self_type" : "_ZTIN7android8internal7details13IsPointerLikeIN4aidl7android8hardware5radio13AccessNetworkEE6$valueE",
   "size" : 4,
   "source_file" : "frameworks/native/libs/binder/ndk/include_cpp/android/binder_to_string.h",
   "underlying_type" : "_ZTIj"
  },
  {
   "alignment" : 4,
   "enum_fields" :
   [
    {
     "enum_field_value" : 0,
     "name" : "android::internal::details::IsPointerLike<aidl::android::hardware::radio::RadioTechnology>::value"
    }
   ],
   "linker_set_key" : "_ZTIN7android8internal7details13IsPointerLikeIN4aidl7android8hardware5radio15RadioTechnologyEE6$valueE",
   "name" : "android::internal::details::IsPointerLike<aidl::android::hardware::radio::RadioTechnology>::(unnamed enum at frameworks/native/libs/binder/ndk/include_cpp/android/binder_to_string.h:118:5)",
   "referenced_type" : "_ZTIN7android8internal7details13IsPointerLikeIN4aidl7android8hardware5radio15RadioTechnologyEE6$valueE",
   "self_type" : "_ZTIN7android8internal7details13IsPointerLikeIN4aidl7android8hardware5radio15RadioTechnologyEE6$valueE",
   "size" : 4,
   "source_file" : "frameworks/native/libs/binder/ndk/include_cpp/android/binder_to_string.h",
   "underlying_type" : "_ZTIj"
  },
  {
   "alignment" : 4,
   "enum_fields" :
   [
    {
     "enum_field_value" : 0,
     "name" : "android::internal::details::IsPointerLike<aidl::android::hardware::radio::RadioResponseType>::value"
    }
   ],
   "linker_set_key" : "_ZTIN7android8internal7details13IsPointerLikeIN4aidl7android8hardware5radio17RadioResponseTypeEE6$valueE",
   "name" : "android::internal::details::IsPointerLike<aidl::android::hardware::radio::RadioResponseType>::(unnamed enum at frameworks/native/libs/binder/ndk/include_cpp/android/binder_to_string.h:118:5)",
   "referenced_type" : "_ZTIN7android8internal7details13IsPointerLikeIN4aidl7android8hardware5radio17RadioResponseTypeEE6$valueE",
   "self_type" : "_ZTIN7android8internal7details13IsPointerLikeIN4aidl7android8hardware5radio17RadioResponseTypeEE6$valueE",
   "size" : 4,
   "source_file" : "frameworks/native/libs/binder/ndk/include_cpp/android/binder_to_string.h",
   "underlying_type" : "_ZTIj"
  },
  {
   "alignment" : 4,
   "enum_fields" :
   [
    {
     "enum_field_value" : 0,
     "name" : "android::internal::details::IsPointerLike<aidl::android::hardware::radio::network::CellInfoNr>::value"
    }
   ],
   "linker_set_key" : "_ZTIN7android8internal7details13IsPointerLikeIN4aidl7android8hardware5radio7network10CellInfoNrEE6$valueE",
   "name" : "android::internal::details::IsPointerLike<aidl::android::hardware::radio::network::CellInfoNr>::(unnamed enum at frameworks/native/libs/binder/ndk/include_cpp/android/binder_to_string.h:118:5)",
   "referenced_type" : "_ZTIN7android8internal7details13IsPointerLikeIN4aidl7android8hardware5radio7network10CellInfoNrEE6$valueE",
   "self_type" : "_ZTIN7android8internal7details13IsPointerLikeIN4aidl7android8hardware5radio7network10CellInfoNrEE6$valueE",
   "size" : 4,
   "source_file" : "frameworks/native/libs/binder/ndk/include_cpp/android/binder_to_string.h",
   "underlying_type" : "_ZTIj"
  },
  {
   "alignment" : 4,
   "enum_fields" :
   [
    {
     "enum_field_value" : 0,
     "name" : "android::internal::details::IsPointerLike<aidl::android::hardware::radio::network::GeranBands>::value"
    }
   ],
   "linker_set_key" : "_ZTIN7android8internal7details13IsPointerLikeIN4aidl7android8hardware5radio7network10GeranBandsEE6$valueE",
   "name" : "android::internal::details::IsPointerLike<aidl::android::hardware::radio::network::GeranBands>::(unnamed enum at frameworks/native/libs/binder/ndk/include_cpp/android/binder_to_string.h:118:5)",
   "referenced_type" : "_ZTIN7android8internal7details13IsPointerLikeIN4aidl7android8hardware5radio7network10GeranBandsEE6$valueE",
   "self_type" : "_ZTIN7android8internal7details13IsPointerLikeIN4aidl7android8hardware5radio7network10GeranBandsEE6$valueE",
   "size" : 4,
   "source_file" : "frameworks/native/libs/binder/ndk/include_cpp/android/binder_to_string.h",
   "underlying_type" : "_ZTIj"
  },
  {
   "alignment" : 4,
   "enum_fields" :
   [
    {
     "enum_field_value" : 0,
     "name" : "android::internal::details::IsPointerLike<aidl::android::hardware::radio::network::NgranBands>::value"
    }
   ],
   "linker_set_key" : "_ZTIN7android8internal7details13IsPointerLikeIN4aidl7android8hardware5radio7network10NgranBandsEE6$valueE",
   "name" : "android::internal::details::IsPointerLike<aidl::android::hardware::radio::network::NgranBands>::(unnamed enum at frameworks/native/libs/binder/ndk/include_cpp/android/binder_to_string.h:118:5)",
   "referenced_type" : "_ZTIN7android8internal7details13IsPointerLikeIN4aidl7android8hardware5radio7network10NgranBandsEE6$valueE",
   "self_type" : "_ZTIN7android8internal7details13IsPointerLikeIN4aidl7android8hardware5radio7network10NgranBandsEE6$valueE",
   "size" : 4,
   "source_file" : "frameworks/native/libs/binder/ndk/include_cpp/android/binder_to_string.h",
   "underlying_type" : "_ZTIj"
  },
  {
   "alignment" : 4,
   "enum_fields" :
   [
    {
     "enum_field_value" : 0,
     "name" : "android::internal::details::IsPointerLike<aidl::android::hardware::radio::network::NrVopsInfo>::value"
    }
   ],
   "linker_set_key" : "_ZTIN7android8internal7details13IsPointerLikeIN4aidl7android8hardware5radio7network10NrVopsInfoEE6$valueE",
   "name" : "android::internal::details::IsPointerLike<aidl::android::hardware::radio::network::NrVopsInfo>::(unnamed enum at frameworks/native/libs/binder/ndk/include_cpp/android/binder_to_string.h:118:5)",
   "referenced_type" : "_ZTIN7android8internal7details13IsPointerLikeIN4aidl7android8hardware5radio7network10NrVopsInfoEE6$valueE",
   "self_type" : "_ZTIN7android8internal7details13IsPointerLikeIN4aidl7android8hardware5radio7network10NrVopsInfoEE6$valueE",
   "size" : 4,
   "source_file" : "frameworks/native/libs/binder/ndk/include_cpp/android/binder_to_string.h",
   "underlying_type" : "_ZTIj"
  },
  {
   "alignment" : 4,
   "enum_fields" :
   [
    {
     "enum_field_value" : 0,
     "name" : "android::internal::details::IsPointerLike<aidl::android::hardware::radio::network::UtranBands>::value"
    }
   ],
   "linker_set_key" : "_ZTIN7android8internal7details13IsPointerLikeIN4aidl7android8hardware5radio7network10UtranBandsEE6$valueE",
   "name" : "android::internal::details::IsPointerLike<aidl::android::hardware::radio::network::UtranBands>::(unnamed enum at frameworks/native/libs/binder/ndk/include_cpp/android/binder_to_string.h:118:5)",
   "referenced_type" : "_ZTIN7android8internal7details13IsPointerLikeIN4aidl7android8hardware5radio7network10UtranBandsEE6$valueE",
   "self_type" : "_ZTIN7android8internal7details13IsPointerLikeIN4aidl7android8hardware5radio7network10UtranBandsEE6$valueE",
   "size" : 4,
   "source_file" : "frameworks/native/libs/binder/ndk/include_cpp/android/binder_to_string.h",
   "underlying_type" : "_ZTIj"
  },
  {
   "alignment" : 4,
   "enum_fields" :
   [
    {
     "enum_field_value" : 0,
     "name" : "android::internal::details::IsPointerLike<aidl::android::hardware::radio::network::CellInfoGsm>::value"
    }
   ],
   "linker_set_key" : "_ZTIN7android8internal7details13IsPointerLikeIN4aidl7android8hardware5radio7network11CellInfoGsmEE6$valueE",
   "name" : "android::internal::details::IsPointerLike<aidl::android::hardware::radio::network::CellInfoGsm>::(unnamed enum at frameworks/native/libs/binder/ndk/include_cpp/android/binder_to_string.h:118:5)",
   "referenced_type" : "_ZTIN7android8internal7details13IsPointerLikeIN4aidl7android8hardware5radio7network11CellInfoGsmEE6$valueE",
   "self_type" : "_ZTIN7android8internal7details13IsPointerLikeIN4aidl7android8hardware5radio7network11CellInfoGsmEE6$valueE",
   "size" : 4,
   "source_file" : "frameworks/native/libs/binder/ndk/include_cpp/android/binder_to_string.h",
   "underlying_type" : "_ZTIj"
  },
  {
   "alignment" : 4,
   "enum_fields" :
   [
    {
     "enum_field_value" : 0,
     "name" : "android::internal::details::IsPointerLike<aidl::android::hardware::radio::network::CellInfoLte>::value"
    }
   ],
   "linker_set_key" : "_ZTIN7android8internal7details13IsPointerLikeIN4aidl7android8hardware5radio7network11CellInfoLteEE6$valueE",
   "name" : "android::internal::details::IsPointerLike<aidl::android::hardware::radio::network::CellInfoLte>::(unnamed enum at frameworks/native/libs/binder/ndk/include_cpp/android/binder_to_string.h:118:5)",
   "referenced_type" : "_ZTIN7android8internal7details13IsPointerLikeIN4aidl7android8hardware5radio7network11CellInfoLteEE6$valueE",
   "self_type" : "_ZTIN7android8internal7details13IsPointerLikeIN4aidl7android8hardware5radio7network11CellInfoLteEE6$valueE",
   "size" : 4,
   "source_file" : "frameworks/native/libs/binder/ndk/include_cpp/android/binder_to_string.h",
   "underlying_type" : "_ZTIj"
  },
  {
   "alignment" : 4,
   "enum_fields" :
   [
    {
     "enum_field_value" : 0,
     "name" : "android::internal::details::IsPointerLike<aidl::android::hardware::radio::network::EutranBands>::value"
    }
   ],
   "linker_set_key" : "_ZTIN7android8internal7details13IsPointerLikeIN4aidl7android8hardware5radio7network11EutranBandsEE6$valueE",
   "name" : "android::internal::details::IsPointerLike<aidl::android::hardware::radio::network::EutranBands>::(unnamed enum at frameworks/native/libs/binder/ndk/include_cpp/android/binder_to_string.h:118:5)",
   "referenced_type" : "_ZTIN7android8internal7details13IsPointerLikeIN4aidl7android8hardware5radio7network11EutranBandsEE6$valueE",
   "self_type" : "_ZTIN7android8internal7details13IsPointerLikeIN4aidl7android8hardware5radio7network11EutranBandsEE6$valueE",
   "size" : 4,
   "source_file" : "frameworks/native/libs/binder/ndk/include_cpp/android/binder_to_string.h",
   "underlying_type" : "_ZTIj"
  },
  {
   "alignment" : 4,
   "enum_fields" :
   [
    {
     "enum_field_value" : 0,
     "name" : "android::internal::details::IsPointerLike<aidl::android::hardware::radio::network::LteVopsInfo>::value"
    }
   ],
   "linker_set_key" : "_ZTIN7android8internal7details13IsPointerLikeIN4aidl7android8hardware5radio7network11LteVopsInfoEE6$valueE",
   "name" : "android::internal::details::IsPointerLike<aidl::android::hardware::radio::network::LteVopsInfo>::(unnamed enum at frameworks/native/libs/binder/ndk/include_cpp/android/binder_to_string.h:118:5)",
   "referenced_type" : "_ZTIN7android8internal7details13IsPointerLikeIN4aidl7android8hardware5radio7network11LteVopsInfoEE6$valueE",
   "self_type" : "_ZTIN7android8internal7details13IsPointerLikeIN4aidl7android8hardware5radio7network11LteVopsInfoEE6$valueE",
   "size" : 4,
   "source_file" : "frameworks/native/libs/binder/ndk/include_cpp/android/binder_to_string.h",
   "underlying_type" : "_ZTIj"
  },
  {
   "alignment" : 4,
   "enum_fields" :
   [
    {
     "enum_field_value" : 0,
     "name" : "android::internal::details::IsPointerLike<aidl::android::hardware::radio::network::CellIdentity>::value"
    }
   ],
   "linker_set_key" : "_ZTIN7android8internal7details13IsPointerLikeIN4aidl7android8hardware5radio7network12CellIdentityEE6$valueE",
   "name" : "android::internal::details::IsPointerLike<aidl::android::hardware::radio::network::CellIdentity>::(unnamed enum at frameworks/native/libs/binder/ndk/include_cpp/android/binder_to_string.h:118:5)",
   "referenced_type" : "_ZTIN7android8internal7details13IsPointerLikeIN4aidl7android8hardware5radio7network12CellIdentityEE6$valueE",
   "self_type" : "_ZTIN7android8internal7details13IsPointerLikeIN4aidl7android8hardware5radio7network12CellIdentityEE6$valueE",
   "size" : 4,
   "source_file" : "frameworks/native/libs/binder/ndk/include_cpp/android/binder_to_string.h",
   "underlying_type" : "_ZTIj"
  },
  {
   "alignment" : 4,
   "enum_fields" :
   [
    {
     "enum_field_value" : 0,
     "name" : "android::internal::details::IsPointerLike<aidl::android::hardware::radio::network::CellInfoCdma>::value"
    }
   ],
   "linker_set_key" : "_ZTIN7android8internal7details13IsPointerLikeIN4aidl7android8hardware5radio7network12CellInfoCdmaEE6$valueE",
   "name" : "android::internal::details::IsPointerLike<aidl::android::hardware::radio::network::CellInfoCdma>::(unnamed enum at frameworks/native/libs/binder/ndk/include_cpp/android/binder_to_string.h:118:5)",
   "referenced_type" : "_ZTIN7android8internal7details13IsPointerLikeIN4aidl7android8hardware5radio7network12CellInfoCdmaEE6$valueE",
   "self_type" : "_ZTIN7android8internal7details13IsPointerLikeIN4aidl7android8hardware5radio7network12CellInfoCdmaEE6$valueE",
   "size" : 4,
   "source_file" : "frameworks/native/libs/binder/ndk/include_cpp/android/binder_to_string.h",
   "underlying_type" : "_ZTIj"
  },
  {
   "alignment" : 4,
   "enum_fields" :
   [
    {
     "enum_field_value" : 0,
     "name" : "android::internal::details::IsPointerLike<aidl::android::hardware::radio::network::NrIndicators>::value"
    }
   ],
   "linker_set_key" : "_ZTIN7android8internal7details13IsPointerLikeIN4aidl7android8hardware5radio7network12NrIndicatorsEE6$valueE",
   "name" : "android::internal::details::IsPointerLike<aidl::android::hardware::radio::network::NrIndicators>::(unnamed enum at frameworks/native/libs/binder/ndk/include_cpp/android/binder_to_string.h:118:5)",
   "referenced_type" : "_ZTIN7android8internal7details13IsPointerLikeIN4aidl7android8hardware5radio7network12NrIndicatorsEE6$valueE",
   "self_type" : "_ZTIN7android8internal7details13IsPointerLikeIN4aidl7android8hardware5radio7network12NrIndicatorsEE6$valueE",
   "size" : 4,
   "source_file" : "frameworks/native/libs/binder/ndk/include_cpp/android/binder_to_string.h",
   "underlying_type" : "_ZTIj"
  },
  {
   "alignment" : 4,
   "enum_fields" :
   [
    {
     "enum_field_value" : 0,
     "name" : "android::internal::details::IsPointerLike<aidl::android::hardware::radio::network::OperatorInfo>::value"
    }
   ],
   "linker_set_key" : "_ZTIN7android8internal7details13IsPointerLikeIN4aidl7android8hardware5radio7network12OperatorInfoEE6$valueE",
   "name" : "android::internal::details::IsPointerLike<aidl::android::hardware::radio::network::OperatorInfo>::(unnamed enum at frameworks/native/libs/binder/ndk/include_cpp/android/binder_to_string.h:118:5)",
   "referenced_type" : "_ZTIN7android8internal7details13IsPointerLikeIN4aidl7android8hardware5radio7network12OperatorInfoEE6$valueE",
   "self_type" : "_ZTIN7android8internal7details13IsPointerLikeIN4aidl7android8hardware5radio7network12OperatorInfoEE6$valueE",
   "size" : 4,
   "source_file" : "frameworks/native/libs/binder/ndk/include_cpp/android/binder_to_string.h",
   "underlying_type" : "_ZTIj"
  },
  {
   "alignment" : 4,
   "enum_fields" :
   [
    {
     "enum_field_value" : 0,
     "name" : "android::internal::details::IsPointerLike<aidl::android::hardware::radio::network::CellInfoWcdma>::value"
    }
   ],
   "linker_set_key" : "_ZTIN7android8internal7details13IsPointerLikeIN4aidl7android8hardware5radio7network13CellInfoWcdmaEE6$valueE",
   "name" : "android::internal::details::IsPointerLike<aidl::android::hardware::radio::network::CellInfoWcdma>::(unnamed enum at frameworks/native/libs/binder/ndk/include_cpp/android/binder_to_string.h:118:5)",
   "referenced_type" : "_ZTIN7android8internal7details13IsPointerLikeIN4aidl7android8hardware5radio7network13CellInfoWcdmaEE6$valueE",
   "self_type" : "_ZTIN7android8internal7details13IsPointerLikeIN4aidl7android8hardware5radio7network13CellInfoWcdmaEE6$valueE",
   "size" : 4,
   "source_file" : "frameworks/native/libs/binder/ndk/include_cpp/android/binder_to_string.h",
   "underlying_type" : "_ZTIj"
  },
  {
   "alignment" : 4,
   "enum_fields" :
   [
    {
     "enum_field_value" : 0,
     "name" : "android::internal::details::IsPointerLike<aidl::android::hardware::radio::network::CellIdentityNr>::value"
    }
   ],
   "linker_set_key" : "_ZTIN7android8internal7details13IsPointerLikeIN4aidl7android8hardware5radio7network14CellIdentityNrEE6$valueE",
   "name" : "android::internal::details::IsPointerLike<aidl::android::hardware::radio::network::CellIdentityNr>::(unnamed enum at frameworks/native/libs/binder/ndk/include_cpp/android/binder_to_string.h:118:5)",
   "referenced_type" : "_ZTIN7android8internal7details13IsPointerLikeIN4aidl7android8hardware5radio7network14CellIdentityNrEE6$valueE",
   "self_type" : "_ZTIN7android8internal7details13IsPointerLikeIN4aidl7android8hardware5radio7network14CellIdentityNrEE6$valueE",
   "size" : 4,
   "source_file" : "frameworks/native/libs/binder/ndk/include_cpp/android/binder_to_string.h",
   "underlying_type" : "_ZTIj"
  },
  {
   "alignment" : 4,
   "enum_fields" :
   [
    {
     "enum_field_value" : 0,
     "name" : "android::internal::details::IsPointerLike<aidl::android::hardware::radio::network::CellIdentityGsm>::value"
    }
   ],
   "linker_set_key" : "_ZTIN7android8internal7details13IsPointerLikeIN4aidl7android8hardware5radio7network15CellIdentityGsmEE6$valueE",
   "name" : "android::internal::details::IsPointerLike<aidl::android::hardware::radio::network::CellIdentityGsm>::(unnamed enum at frameworks/native/libs/binder/ndk/include_cpp/android/binder_to_string.h:118:5)",
   "referenced_type" : "_ZTIN7android8internal7details13IsPointerLikeIN4aidl7android8hardware5radio7network15CellIdentityGsmEE6$valueE",
   "self_type" : "_ZTIN7android8internal7details13IsPointerLikeIN4aidl7android8hardware5radio7network15CellIdentityGsmEE6$valueE",
   "size" : 4,
   "source_file" : "frameworks/native/libs/binder/ndk/include_cpp/android/binder_to_string.h",
   "underlying_type" : "_ZTIj"
  },
  {
   "alignment" : 4,
   "enum_fields" :
   [
    {
     "enum_field_value" : 0,
     "name" : "android::internal::details::IsPointerLike<aidl::android::hardware::radio::network::CellIdentityLte>::value"
    }
   ],
   "linker_set_key" : "_ZTIN7android8internal7details13IsPointerLikeIN4aidl7android8hardware5radio7network15CellIdentityLteEE6$valueE",
   "name" : "android::internal::details::IsPointerLike<aidl::android::hardware::radio::network::CellIdentityLte>::(unnamed enum at frameworks/native/libs/binder/ndk/include_cpp/android/binder_to_string.h:118:5)",
   "referenced_type" : "_ZTIN7android8internal7details13IsPointerLikeIN4aidl7android8hardware5radio7network15CellIdentityLteEE6$valueE",
   "self_type" : "_ZTIN7android8internal7details13IsPointerLikeIN4aidl7android8hardware5radio7network15CellIdentityLteEE6$valueE",
   "size" : 4,
   "source_file" : "frameworks/native/libs/binder/ndk/include_cpp/android/binder_to_string.h",
   "underlying_type" : "_ZTIj"
  },
  {
   "alignment" : 4,
   "enum_fields" :
   [
    {
     "enum_field_value" : 0,
     "name" : "android::internal::details::IsPointerLike<aidl::android::hardware::radio::network::CellInfoTdscdma>::value"
    }
   ],
   "linker_set_key" : "_ZTIN7android8internal7details13IsPointerLikeIN4aidl7android8hardware5radio7network15CellInfoTdscdmaEE6$valueE",
   "name" : "android::internal::details::IsPointerLike<aidl::android::hardware::radio::network::CellInfoTdscdma>::(unnamed enum at frameworks/native/libs/binder/ndk/include_cpp/android/binder_to_string.h:118:5)",
   "referenced_type" : "_ZTIN7android8internal7details13IsPointerLikeIN4aidl7android8hardware5radio7network15CellInfoTdscdmaEE6$valueE",
   "self_type" : "_ZTIN7android8internal7details13IsPointerLikeIN4aidl7android8hardware5radio7network15CellInfoTdscdmaEE6$valueE",
   "size" : 4,
   "source_file" : "frameworks/native/libs/binder/ndk/include_cpp/android/binder_to_string.h",
   "underlying_type" : "_ZTIj"
  },
  {
   "alignment" : 4,
   "enum_fields" :
   [
    {
     "enum_field_value" : 0,
     "name" : "android::internal::details::IsPointerLike<aidl::android::hardware::radio::network::CellIdentityCdma>::value"
    }
   ],
   "linker_set_key" : "_ZTIN7android8internal7details13IsPointerLikeIN4aidl7android8hardware5radio7network16CellIdentityCdmaEE6$valueE",
   "name" : "android::internal::details::IsPointerLike<aidl::android::hardware::radio::network::CellIdentityCdma>::(unnamed enum at frameworks/native/libs/binder/ndk/include_cpp/android/binder_to_string.h:118:5)",
   "referenced_type" : "_ZTIN7android8internal7details13IsPointerLikeIN4aidl7android8hardware5radio7network16CellIdentityCdmaEE6$valueE",
   "self_type" : "_ZTIN7android8internal7details13IsPointerLikeIN4aidl7android8hardware5radio7network16CellIdentityCdmaEE6$valueE",
   "size" : 4,
   "source_file" : "frameworks/native/libs/binder/ndk/include_cpp/android/binder_to_string.h",
   "underlying_type" : "_ZTIj"
  },
  {
   "alignment" : 4,
   "enum_fields" :
   [
    {
     "enum_field_value" : 0,
     "name" : "android::internal::details::IsPointerLike<aidl::android::hardware::radio::network::NrSignalStrength>::value"
    }
   ],
   "linker_set_key" : "_ZTIN7android8internal7details13IsPointerLikeIN4aidl7android8hardware5radio7network16NrSignalStrengthEE6$valueE",
   "name" : "android::internal::details::IsPointerLike<aidl::android::hardware::radio::network::NrSignalStrength>::(unnamed enum at frameworks/native/libs/binder/ndk/include_cpp/android/binder_to_string.h:118:5)",
   "referenced_type" : "_ZTIN7android8internal7details13IsPointerLikeIN4aidl7android8hardware5radio7network16NrSignalStrengthEE6$valueE",
   "self_type" : "_ZTIN7android8internal7details13IsPointerLikeIN4aidl7android8hardware5radio7network16NrSignalStrengthEE6$valueE",
   "size" : 4,
   "source_file" : "frameworks/native/libs/binder/ndk/include_cpp/android/binder_to_string.h",
   "underlying_type" : "_ZTIj"
  },
  {
   "alignment" : 4,
   "enum_fields" :
   [
    {
     "enum_field_value" : 0,
     "name" : "android::internal::details::IsPointerLike<aidl::android::hardware::radio::network::CellIdentityWcdma>::value"
    }
   ],
   "linker_set_key" : "_ZTIN7android8internal7details13IsPointerLikeIN4aidl7android8hardware5radio7network17CellIdentityWcdmaEE6$valueE",
   "name" : "android::internal::details::IsPointerLike<aidl::android::hardware::radio::network::CellIdentityWcdma>::(unnamed enum at frameworks/native/libs/binder/ndk/include_cpp/android/binder_to_string.h:118:5)",
   "referenced_type" : "_ZTIN7android8internal7details13IsPointerLikeIN4aidl7android8hardware5radio7network17CellIdentityWcdmaEE6$valueE",
   "self_type" : "_ZTIN7android8internal7details13IsPointerLikeIN4aidl7android8hardware5radio7network17CellIdentityWcdmaEE6$valueE",
   "size" : 4,
   "source_file" : "frameworks/native/libs/binder/ndk/include_cpp/android/binder_to_string.h",
   "underlying_type" : "_ZTIj"
  },
  {
   "alignment" : 4,
   "enum_fields" :
   [
    {
     "enum_field_value" : 0,
     "name" : "android::internal::details::IsPointerLike<aidl::android::hardware::radio::network::GsmSignalStrength>::value"
    }
   ],
   "linker_set_key" : "_ZTIN7android8internal7details13IsPointerLikeIN4aidl7android8hardware5radio7network17GsmSignalStrengthEE6$valueE",
   "name" : "android::internal::details::IsPointerLike<aidl::android::hardware::radio::network::GsmSignalStrength>::(unnamed enum at frameworks/native/libs/binder/ndk/include_cpp/android/binder_to_string.h:118:5)",
   "referenced_type" : "_ZTIN7android8internal7details13IsPointerLikeIN4aidl7android8hardware5radio7network17GsmSignalStrengthEE6$valueE",
   "self_type" : "_ZTIN7android8internal7details13IsPointerLikeIN4aidl7android8hardware5radio7network17GsmSignalStrengthEE6$valueE",
   "size" : 4,
   "source_file" : "frameworks/native/libs/binder/ndk/include_cpp/android/binder_to_string.h",
   "underlying_type" : "_ZTIj"
  },
  {
   "alignment" : 4,
   "enum_fields" :
   [
    {
     "enum_field_value" : 0,
     "name" : "android::internal::details::IsPointerLike<aidl::android::hardware::radio::network::LteSignalStrength>::value"
    }
   ],
   "linker_set_key" : "_ZTIN7android8internal7details13IsPointerLikeIN4aidl7android8hardware5radio7network17LteSignalStrengthEE6$valueE",
   "name" : "android::internal::details::IsPointerLike<aidl::android::hardware::radio::network::LteSignalStrength>::(unnamed enum at frameworks/native/libs/binder/ndk/include_cpp/android/binder_to_string.h:118:5)",
   "referenced_type" : "_ZTIN7android8internal7details13IsPointerLikeIN4aidl7android8hardware5radio7network17LteSignalStrengthEE6$valueE",
   "self_type" : "_ZTIN7android8internal7details13IsPointerLikeIN4aidl7android8hardware5radio7network17LteSignalStrengthEE6$valueE",
   "size" : 4,
   "source_file" : "frameworks/native/libs/binder/ndk/include_cpp/android/binder_to_string.h",
   "underlying_type" : "_ZTIj"
  },
  {
   "alignment" : 4,
   "enum_fields" :
   [
    {
     "enum_field_value" : 0,
     "name" : "android::internal::details::IsPointerLike<aidl::android::hardware::radio::network::CdmaSignalStrength>::value"
    }
   ],
   "linker_set_key" : "_ZTIN7android8internal7details13IsPointerLikeIN4aidl7android8hardware5radio7network18CdmaSignalStrengthEE6$valueE",
   "name" : "android::internal::details::IsPointerLike<aidl::android::hardware::radio::network::CdmaSignalStrength>::(unnamed enum at frameworks/native/libs/binder/ndk/include_cpp/android/binder_to_string.h:118:5)",
   "referenced_type" : "_ZTIN7android8internal7details13IsPointerLikeIN4aidl7android8hardware5radio7network18CdmaSignalStrengthEE6$valueE",
   "self_type" : "_ZTIN7android8internal7details13IsPointerLikeIN4aidl7android8hardware5radio7network18CdmaSignalStrengthEE6$valueE",
   "size" : 4,
   "source_file" : "frameworks/native/libs/binder/ndk/include_cpp/android/binder_to_string.h",
   "underlying_type" : "_ZTIj"
  },
  {
   "alignment" : 4,
   "enum_fields" :
   [
    {
     "enum_field_value" : 0,
     "name" : "android::internal::details::IsPointerLike<aidl::android::hardware::radio::network::EvdoSignalStrength>::value"
    }
   ],
   "linker_set_key" : "_ZTIN7android8internal7details13IsPointerLikeIN4aidl7android8hardware5radio7network18EvdoSignalStrengthEE6$valueE",
   "name" : "android::internal::details::IsPointerLike<aidl::android::hardware::radio::network::EvdoSignalStrength>::(unnamed enum at frameworks/native/libs/binder/ndk/include_cpp/android/binder_to_string.h:118:5)",
   "referenced_type" : "_ZTIN7android8internal7details13IsPointerLikeIN4aidl7android8hardware5radio7network18EvdoSignalStrengthEE6$valueE",
   "self_type" : "_ZTIN7android8internal7details13IsPointerLikeIN4aidl7android8hardware5radio7network18EvdoSignalStrengthEE6$valueE",
   "size" : 4,
   "source_file" : "frameworks/native/libs/binder/ndk/include_cpp/android/binder_to_string.h",
   "underlying_type" : "_ZTIj"
  },
  {
   "alignment" : 4,
   "enum_fields" :
   [
    {
     "enum_field_value" : 0,
     "name" : "android::internal::details::IsPointerLike<aidl::android::hardware::radio::network::CellIdentityTdscdma>::value"
    }
   ],
   "linker_set_key" : "_ZTIN7android8internal7details13IsPointerLikeIN4aidl7android8hardware5radio7network19CellIdentityTdscdmaEE6$valueE",
   "name" : "android::internal::details::IsPointerLike<aidl::android::hardware::radio::network::CellIdentityTdscdma>::(unnamed enum at frameworks/native/libs/binder/ndk/include_cpp/android/binder_to_string.h:118:5)",
   "referenced_type" : "_ZTIN7android8internal7details13IsPointerLikeIN4aidl7android8hardware5radio7network19CellIdentityTdscdmaEE6$valueE",
   "self_type" : "_ZTIN7android8internal7details13IsPointerLikeIN4aidl7android8hardware5radio7network19CellIdentityTdscdmaEE6$valueE",
   "size" : 4,
   "source_file" : "frameworks/native/libs/binder/ndk/include_cpp/android/binder_to_string.h",
   "underlying_type" : "_ZTIj"
  },
  {
   "alignment" : 4,
   "enum_fields" :
   [
    {
     "enum_field_value" : 0,
     "name" : "android::internal::details::IsPointerLike<aidl::android::hardware::radio::network::WcdmaSignalStrength>::value"
    }
   ],
   "linker_set_key" : "_ZTIN7android8internal7details13IsPointerLikeIN4aidl7android8hardware5radio7network19WcdmaSignalStrengthEE6$valueE",
   "name" : "android::internal::details::IsPointerLike<aidl::android::hardware::radio::network::WcdmaSignalStrength>::(unnamed enum at frameworks/native/libs/binder/ndk/include_cpp/android/binder_to_string.h:118:5)",
   "referenced_type" : "_ZTIN7android8internal7details13IsPointerLikeIN4aidl7android8hardware5radio7network19WcdmaSignalStrengthEE6$valueE",
   "self_type" : "_ZTIN7android8internal7details13IsPointerLikeIN4aidl7android8hardware5radio7network19WcdmaSignalStrengthEE6$valueE",
   "size" : 4,
   "source_file" : "frameworks/native/libs/binder/ndk/include_cpp/android/binder_to_string.h",
   "underlying_type" : "_ZTIj"
  },
  {
   "alignment" : 4,
   "enum_fields" :
   [
    {
     "enum_field_value" : 0,
     "name" : "android::internal::details::IsPointerLike<aidl::android::hardware::radio::network::CellConnectionStatus>::value"
    }
   ],
   "linker_set_key" : "_ZTIN7android8internal7details13IsPointerLikeIN4aidl7android8hardware5radio7network20CellConnectionStatusEE6$valueE",
   "name" : "android::internal::details::IsPointerLike<aidl::android::hardware::radio::network::CellConnectionStatus>::(unnamed enum at frameworks/native/libs/binder/ndk/include_cpp/android/binder_to_string.h:118:5)",
   "referenced_type" : "_ZTIN7android8internal7details13IsPointerLikeIN4aidl7android8hardware5radio7network20CellConnectionStatusEE6$valueE",
   "self_type" : "_ZTIN7android8internal7details13IsPointerLikeIN4aidl7android8hardware5radio7network20CellConnectionStatusEE6$valueE",
   "size" : 4,
   "source_file" : "frameworks/native/libs/binder/ndk/include_cpp/android/binder_to_string.h",
   "underlying_type" : "_ZTIj"
  },
  {
   "alignment" : 4,
   "enum_fields" :
   [
    {
     "enum_field_value" : 0,
     "name" : "android::internal::details::IsPointerLike<aidl::android::hardware::radio::network::RadioAccessSpecifier>::value"
    }
   ],
   "linker_set_key" : "_ZTIN7android8internal7details13IsPointerLikeIN4aidl7android8hardware5radio7network20RadioAccessSpecifierEE6$valueE",
   "name" : "android::internal::details::IsPointerLike<aidl::android::hardware::radio::network::RadioAccessSpecifier>::(unnamed enum at frameworks/native/libs/binder/ndk/include_cpp/android/binder_to_string.h:118:5)",
   "referenced_type" : "_ZTIN7android8internal7details13IsPointerLikeIN4aidl7android8hardware5radio7network20RadioAccessSpecifierEE6$valueE",
   "self_type" : "_ZTIN7android8internal7details13IsPointerLikeIN4aidl7android8hardware5radio7network20RadioAccessSpecifierEE6$valueE",
   "size" : 4,
   "source_file" : "frameworks/native/libs/binder/ndk/include_cpp/android/binder_to_string.h",
   "underlying_type" : "_ZTIj"
  },
  {
   "alignment" : 4,
   "enum_fields" :
   [
    {
     "enum_field_value" : 0,
     "name" : "android::internal::details::IsPointerLike<aidl::android::hardware::radio::network::RegistrationFailCause>::value"
    }
   ],
   "linker_set_key" : "_ZTIN7android8internal7details13IsPointerLikeIN4aidl7android8hardware5radio7network21RegistrationFailCauseEE6$valueE",
   "name" : "android::internal::details::IsPointerLike<aidl::android::hardware::radio::network::RegistrationFailCause>::(unnamed enum at frameworks/native/libs/binder/ndk/include_cpp/android/binder_to_string.h:118:5)",
   "referenced_type" : "_ZTIN7android8internal7details13IsPointerLikeIN4aidl7android8hardware5radio7network21RegistrationFailCauseEE6$valueE",
   "self_type" : "_ZTIN7android8internal7details13IsPointerLikeIN4aidl7android8hardware5radio7network21RegistrationFailCauseEE6$valueE",
   "size" : 4,
   "source_file" : "frameworks/native/libs/binder/ndk/include_cpp/android/binder_to_string.h",
   "underlying_type" : "_ZTIj"
  },
  {
   "alignment" : 4,
   "enum_fields" :
   [
    {
     "enum_field_value" : 0,
     "name" : "android::internal::details::IsPointerLike<aidl::android::hardware::radio::network::TdscdmaSignalStrength>::value"
    }
   ],
   "linker_set_key" : "_ZTIN7android8internal7details13IsPointerLikeIN4aidl7android8hardware5radio7network21TdscdmaSignalStrengthEE6$valueE",
   "name" : "android::internal::details::IsPointerLike<aidl::android::hardware::radio::network::TdscdmaSignalStrength>::(unnamed enum at frameworks/native/libs/binder/ndk/include_cpp/android/binder_to_string.h:118:5)",
   "referenced_type" : "_ZTIN7android8internal7details13IsPointerLikeIN4aidl7android8hardware5radio7network21TdscdmaSignalStrengthEE6$valueE",
   "self_type" : "_ZTIN7android8internal7details13IsPointerLikeIN4aidl7android8hardware5radio7network21TdscdmaSignalStrengthEE6$valueE",
   "size" : 4,
   "source_file" : "frameworks/native/libs/binder/ndk/include_cpp/android/binder_to_string.h",
   "underlying_type" : "_ZTIj"
  },
  {
   "alignment" : 4,
   "enum_fields" :
   [
    {
     "enum_field_value" : 0,
     "name" : "android::internal::details::IsPointerLike<aidl::android::hardware::radio::network::EutranRegistrationInfo>::value"
    }
   ],
   "linker_set_key" : "_ZTIN7android8internal7details13IsPointerLikeIN4aidl7android8hardware5radio7network22EutranRegistrationInfoEE6$valueE",
   "name" : "android::internal::details::IsPointerLike<aidl::android::hardware::radio::network::EutranRegistrationInfo>::(unnamed enum at frameworks/native/libs/binder/ndk/include_cpp/android/binder_to_string.h:118:5)",
   "referenced_type" : "_ZTIN7android8internal7details13IsPointerLikeIN4aidl7android8hardware5radio7network22EutranRegistrationInfoEE6$valueE",
   "self_type" : "_ZTIN7android8internal7details13IsPointerLikeIN4aidl7android8hardware5radio7network22EutranRegistrationInfoEE6$valueE",
   "size" : 4,
   "source_file" : "frameworks/native/libs/binder/ndk/include_cpp/android/binder_to_string.h",
   "underlying_type" : "_ZTIj"
  },
  {
   "alignment" : 4,
   "enum_fields" :
   [
    {
     "enum_field_value" : 0,
     "name" : "android::internal::details::IsPointerLike<aidl::android::hardware::radio::network::BarringTypeSpecificInfo>::value"
    }
   ],
   "linker_set_key" : "_ZTIN7android8internal7details13IsPointerLikeIN4aidl7android8hardware5radio7network23BarringTypeSpecificInfoEE6$valueE",
   "name" : "android::internal::details::IsPointerLike<aidl::android::hardware::radio::network::BarringTypeSpecificInfo>::(unnamed enum at frameworks/native/libs/binder/ndk/include_cpp/android/binder_to_string.h:118:5)",
   "referenced_type" : "_ZTIN7android8internal7details13IsPointerLikeIN4aidl7android8hardware5radio7network23BarringTypeSpecificInfoEE6$valueE",
   "self_type" : "_ZTIN7android8internal7details13IsPointerLikeIN4aidl7android8hardware5radio7network23BarringTypeSpecificInfoEE6$valueE",
   "size" : 4,
   "source_file" : "frameworks/native/libs/binder/ndk/include_cpp/android/binder_to_string.h",
   "underlying_type" : "_ZTIj"
  },
  {
   "alignment" : 4,
   "enum_fields" :
   [
    {
     "enum_field_value" : 0,
     "name" : "android::internal::details::IsPointerLike<aidl::android::hardware::radio::network::CellInfoRatSpecificInfo>::value"
    }
   ],
   "linker_set_key" : "_ZTIN7android8internal7details13IsPointerLikeIN4aidl7android8hardware5radio7network23CellInfoRatSpecificInfoEE6$valueE",
   "name" : "android::internal::details::IsPointerLike<aidl::android::hardware::radio::network::CellInfoRatSpecificInfo>::(unnamed enum at frameworks/native/libs/binder/ndk/include_cpp/android/binder_to_string.h:118:5)",
   "referenced_type" : "_ZTIN7android8internal7details13IsPointerLikeIN4aidl7android8hardware5radio7network23CellInfoRatSpecificInfoEE6$valueE",
   "self_type" : "_ZTIN7android8internal7details13IsPointerLikeIN4aidl7android8hardware5radio7network23CellInfoRatSpecificInfoEE6$valueE",
   "size" : 4,
   "source_file" : "frameworks/native/libs/binder/ndk/include_cpp/android/binder_to_string.h",
   "underlying_type" : "_ZTIj"
  },
  {
   "alignment" : 4,
   "enum_fields" :
   [
    {
     "enum_field_value" : 0,
     "name" : "android::internal::details::IsPointerLike<aidl::android::hardware::radio::network::Cdma2000RegistrationInfo>::value"
    }
   ],
   "linker_set_key" : "_ZTIN7android8internal7details13IsPointerLikeIN4aidl7android8hardware5radio7network24Cdma2000RegistrationInfoEE6$valueE",
   "name" : "android::internal::details::IsPointerLike<aidl::android::hardware::radio::network::Cdma2000RegistrationInfo>::(unnamed enum at frameworks/native/libs/binder/ndk/include_cpp/android/binder_to_string.h:118:5)",
   "referenced_type" : "_ZTIN7android8internal7details13IsPointerLikeIN4aidl7android8hardware5radio7network24Cdma2000RegistrationInfoEE6$valueE",
   "self_type" : "_ZTIN7android8internal7details13IsPointerLikeIN4aidl7android8hardware5radio7network24Cdma2000RegistrationInfoEE6$valueE",
   "size" : 4,
   "source_file" : "frameworks/native/libs/binder/ndk/include_cpp/android/binder_to_string.h",
   "underlying_type" : "_ZTIj"
  },
  {
   "alignment" : 4,
   "enum_fields" :
   [
    {
     "enum_field_value" : 0,
     "name" : "android::internal::details::IsPointerLike<aidl::android::hardware::radio::network::ClosedSubscriberGroupInfo>::value"
    }
   ],
   "linker_set_key" : "_ZTIN7android8internal7details13IsPointerLikeIN4aidl7android8hardware5radio7network25ClosedSubscriberGroupInfoEE6$valueE",
   "name" : "android::internal::details::IsPointerLike<aidl::android::hardware::radio::network::ClosedSubscriberGroupInfo>::(unnamed enum at frameworks/native/libs/binder/ndk/include_cpp/android/binder_to_string.h:118:5)",
   "referenced_type" : "_ZTIN7android8internal7details13IsPointerLikeIN4aidl7android8hardware5radio7network25ClosedSubscriberGroupInfoEE6$valueE",
   "self_type" : "_ZTIN7android8internal7details13IsPointerLikeIN4aidl7android8hardware5radio7network25ClosedSubscriberGroupInfoEE6$valueE",
   "size" : 4,
   "source_file" : "frameworks/native/libs/binder/ndk/include_cpp/android/binder_to_string.h",
   "underlying_type" : "_ZTIj"
  },
  {
   "alignment" : 4,
   "enum_fields" :
   [
    {
     "enum_field_value" : 0,
     "name" : "android::internal::details::IsPointerLike<aidl::android::hardware::radio::network::PhysicalChannelConfigBand>::value"
    }
   ],
   "linker_set_key" : "_ZTIN7android8internal7details13IsPointerLikeIN4aidl7android8hardware5radio7network25PhysicalChannelConfigBandEE6$valueE",
   "name" : "android::internal::details::IsPointerLike<aidl::android::hardware::radio::network::PhysicalChannelConfigBand>::(unnamed enum at frameworks/native/libs/binder/ndk/include_cpp/android/binder_to_string.h:118:5)",
   "referenced_type" : "_ZTIN7android8internal7details13IsPointerLikeIN4aidl7android8hardware5radio7network25PhysicalChannelConfigBandEE6$valueE",
   "self_type" : "_ZTIN7android8internal7details13IsPointerLikeIN4aidl7android8hardware5radio7network25PhysicalChannelConfigBandEE6$valueE",
   "size" : 4,
   "source_file" : "frameworks/native/libs/binder/ndk/include_cpp/android/binder_to_string.h",
   "underlying_type" : "_ZTIj"
  },
  {
   "alignment" : 4,
   "enum_fields" :
   [
    {
     "enum_field_value" : 0,
     "name" : "android::internal::details::IsPointerLike<aidl::android::hardware::radio::network::RadioAccessSpecifierBands>::value"
    }
   ],
   "linker_set_key" : "_ZTIN7android8internal7details13IsPointerLikeIN4aidl7android8hardware5radio7network25RadioAccessSpecifierBandsEE6$valueE",
   "name" : "android::internal::details::IsPointerLike<aidl::android::hardware::radio::network::RadioAccessSpecifierBands>::(unnamed enum at frameworks/native/libs/binder/ndk/include_cpp/android/binder_to_string.h:118:5)",
   "referenced_type" : "_ZTIN7android8internal7details13IsPointerLikeIN4aidl7android8hardware5radio7network25RadioAccessSpecifierBandsEE6$valueE",
   "self_type" : "_ZTIN7android8internal7details13IsPointerLikeIN4aidl7android8hardware5radio7network25RadioAccessSpecifierBandsEE6$valueE",
   "size" : 4,
   "source_file" : "frameworks/native/libs/binder/ndk/include_cpp/android/binder_to_string.h",
   "underlying_type" : "_ZTIj"
  },
  {
   "alignment" : 4,
   "enum_fields" :
   [
    {
     "enum_field_value" : 0,
     "name" : "android::internal::details::IsPointerLike<aidl::android::hardware::radio::network::AccessTechnologySpecificInfo>::value"
    }
   ],
   "linker_set_key" : "_ZTIN7android8internal7details13IsPointerLikeIN4aidl7android8hardware5radio7network28AccessTechnologySpecificInfoEE6$valueE",
   "name" : "android::internal::details::IsPointerLike<aidl::android::hardware::radio::network::AccessTechnologySpecificInfo>::(unnamed enum at frameworks/native/libs/binder/ndk/include_cpp/android/binder_to_string.h:118:5)",
   "referenced_type" : "_ZTIN7android8internal7details13IsPointerLikeIN4aidl7android8hardware5radio7network28AccessTechnologySpecificInfoEE6$valueE",
   "self_type" : "_ZTIN7android8internal7details13IsPointerLikeIN4aidl7android8hardware5radio7network28AccessTechnologySpecificInfoEE6$valueE",
   "size" : 4,
   "source_file" : "frameworks/native/libs/binder/ndk/include_cpp/android/binder_to_string.h",
   "underlying_type" : "_ZTIj"
  },
  {
   "alignment" : 4,
   "enum_fields" :
   [
    {
     "enum_field_value" : 0,
     "name" : "android::internal::details::IsPointerLike<aidl::android::hardware::radio::network::CellInfo>::value"
    }
   ],
   "linker_set_key" : "_ZTIN7android8internal7details13IsPointerLikeIN4aidl7android8hardware5radio7network8CellInfoEE6$valueE",
   "name" : "android::internal::details::IsPointerLike<aidl::android::hardware::radio::network::CellInfo>::(unnamed enum at frameworks/native/libs/binder/ndk/include_cpp/android/binder_to_string.h:118:5)",
   "referenced_type" : "_ZTIN7android8internal7details13IsPointerLikeIN4aidl7android8hardware5radio7network8CellInfoEE6$valueE",
   "self_type" : "_ZTIN7android8internal7details13IsPointerLikeIN4aidl7android8hardware5radio7network8CellInfoEE6$valueE",
   "size" : 4,
   "source_file" : "frameworks/native/libs/binder/ndk/include_cpp/android/binder_to_string.h",
   "underlying_type" : "_ZTIj"
  },
  {
   "alignment" : 4,
   "enum_fields" :
   [
    {
     "enum_field_value" : 0,
     "name" : "android::internal::details::IsPointerLike<aidl::android::hardware::radio::network::RegState>::value"
    }
   ],
   "linker_set_key" : "_ZTIN7android8internal7details13IsPointerLikeIN4aidl7android8hardware5radio7network8RegStateEE6$valueE",
   "name" : "android::internal::details::IsPointerLike<aidl::android::hardware::radio::network::RegState>::(unnamed enum at frameworks/native/libs/binder/ndk/include_cpp/android/binder_to_string.h:118:5)",
   "referenced_type" : "_ZTIN7android8internal7details13IsPointerLikeIN4aidl7android8hardware5radio7network8RegStateEE6$valueE",
   "self_type" : "_ZTIN7android8internal7details13IsPointerLikeIN4aidl7android8hardware5radio7network8RegStateEE6$valueE",
   "size" : 4,
   "source_file" : "frameworks/native/libs/binder/ndk/include_cpp/android/binder_to_string.h",
   "underlying_type" : "_ZTIj"
  },
  {
   "alignment" : 4,
   "enum_fields" :
   [
    {
     "enum_field_value" : 0,
     "name" : "android::internal::details::IsPointerLike<std::vector<aidl::android::hardware::radio::network::GeranBands>>::value"
    }
   ],
   "linker_set_key" : "_ZTIN7android8internal7details13IsPointerLikeINSt3__16vectorIN4aidl7android8hardware5radio7network10GeranBandsENS3_9allocatorISA_EEEEE6$valueE",
   "name" : "android::internal::details::IsPointerLike<std::vector<aidl::android::hardware::radio::network::GeranBands, std::allocator<aidl::android::hardware::radio::network::GeranBands>>>::(unnamed enum at frameworks/native/libs/binder/ndk/include_cpp/android/binder_to_string.h:118:5)",
   "referenced_type" : "_ZTIN7android8internal7details13IsPointerLikeINSt3__16vectorIN4aidl7android8hardware5radio7network10GeranBandsENS3_9allocatorISA_EEEEE6$valueE",
   "self_type" : "_ZTIN7android8internal7details13IsPointerLikeINSt3__16vectorIN4aidl7android8hardware5radio7network10GeranBandsENS3_9allocatorISA_EEEEE6$valueE",
   "size" : 4,
   "source_file" : "frameworks/native/libs/binder/ndk/include_cpp/android/binder_to_string.h",
   "underlying_type" : "_ZTIj"
  },
  {
   "alignment" : 4,
   "enum_fields" :
   [
    {
     "enum_field_value" : 0,
     "name" : "android::internal::details::IsPointerLike<std::vector<aidl::android::hardware::radio::network::NgranBands>>::value"
    }
   ],
   "linker_set_key" : "_ZTIN7android8internal7details13IsPointerLikeINSt3__16vectorIN4aidl7android8hardware5radio7network10NgranBandsENS3_9allocatorISA_EEEEE6$valueE",
   "name" : "android::internal::details::IsPointerLike<std::vector<aidl::android::hardware::radio::network::NgranBands, std::allocator<aidl::android::hardware::radio::network::NgranBands>>>::(unnamed enum at frameworks/native/libs/binder/ndk/include_cpp/android/binder_to_string.h:118:5)",
   "referenced_type" : "_ZTIN7android8internal7details13IsPointerLikeINSt3__16vectorIN4aidl7android8hardware5radio7network10NgranBandsENS3_9allocatorISA_EEEEE6$valueE",
   "self_type" : "_ZTIN7android8internal7details13IsPointerLikeINSt3__16vectorIN4aidl7android8hardware5radio7network10NgranBandsENS3_9allocatorISA_EEEEE6$valueE",
   "size" : 4,
   "source_file" : "frameworks/native/libs/binder/ndk/include_cpp/android/binder_to_string.h",
   "underlying_type" : "_ZTIj"
  },
  {
   "alignment" : 4,
   "enum_fields" :
   [
    {
     "enum_field_value" : 0,
     "name" : "android::internal::details::IsPointerLike<std::vector<aidl::android::hardware::radio::network::UtranBands>>::value"
    }
   ],
   "linker_set_key" : "_ZTIN7android8internal7details13IsPointerLikeINSt3__16vectorIN4aidl7android8hardware5radio7network10UtranBandsENS3_9allocatorISA_EEEEE6$valueE",
   "name" : "android::internal::details::IsPointerLike<std::vector<aidl::android::hardware::radio::network::UtranBands, std::allocator<aidl::android::hardware::radio::network::UtranBands>>>::(unnamed enum at frameworks/native/libs/binder/ndk/include_cpp/android/binder_to_string.h:118:5)",
   "referenced_type" : "_ZTIN7android8internal7details13IsPointerLikeINSt3__16vectorIN4aidl7android8hardware5radio7network10UtranBandsENS3_9allocatorISA_EEEEE6$valueE",
   "self_type" : "_ZTIN7android8internal7details13IsPointerLikeINSt3__16vectorIN4aidl7android8hardware5radio7network10UtranBandsENS3_9allocatorISA_EEEEE6$valueE",
   "size" : 4,
   "source_file" : "frameworks/native/libs/binder/ndk/include_cpp/android/binder_to_string.h",
   "underlying_type" : "_ZTIj"
  },
  {
   "alignment" : 4,
   "enum_fields" :
   [
    {
     "enum_field_value" : 0,
     "name" : "android::internal::details::IsPointerLike<std::vector<aidl::android::hardware::radio::network::EutranBands>>::value"
    }
   ],
   "linker_set_key" : "_ZTIN7android8internal7details13IsPointerLikeINSt3__16vectorIN4aidl7android8hardware5radio7network11EutranBandsENS3_9allocatorISA_EEEEE6$valueE",
   "name" : "android::internal::details::IsPointerLike<std::vector<aidl::android::hardware::radio::network::EutranBands, std::allocator<aidl::android::hardware::radio::network::EutranBands>>>::(unnamed enum at frameworks/native/libs/binder/ndk/include_cpp/android/binder_to_string.h:118:5)",
   "referenced_type" : "_ZTIN7android8internal7details13IsPointerLikeINSt3__16vectorIN4aidl7android8hardware5radio7network11EutranBandsENS3_9allocatorISA_EEEEE6$valueE",
   "self_type" : "_ZTIN7android8internal7details13IsPointerLikeINSt3__16vectorIN4aidl7android8hardware5radio7network11EutranBandsENS3_9allocatorISA_EEEEE6$valueE",
   "size" : 4,
   "source_file" : "frameworks/native/libs/binder/ndk/include_cpp/android/binder_to_string.h",
   "underlying_type" : "_ZTIj"
  },
  {
   "alignment" : 4,
   "enum_fields" :
   [
    {
     "enum_field_value" : 0,
     "name" : "android::internal::details::IsPointerLike<std::vector<aidl::android::hardware::radio::network::RadioAccessSpecifier>>::value"
    }
   ],
   "linker_set_key" : "_ZTIN7android8internal7details13IsPointerLikeINSt3__16vectorIN4aidl7android8hardware5radio7network20RadioAccessSpecifierENS3_9allocatorISA_EEEEE6$valueE",
   "name" : "android::internal::details::IsPointerLike<std::vector<aidl::android::hardware::radio::network::RadioAccessSpecifier, std::allocator<aidl::android::hardware::radio::network::RadioAccessSpecifier>>>::(unnamed enum at frameworks/native/libs/binder/ndk/include_cpp/android/binder_to_string.h:118:5)",
   "referenced_type" : "_ZTIN7android8internal7details13IsPointerLikeINSt3__16vectorIN4aidl7android8hardware5radio7network20RadioAccessSpecifierENS3_9allocatorISA_EEEEE6$valueE",
   "self_type" : "_ZTIN7android8internal7details13IsPointerLikeINSt3__16vectorIN4aidl7android8hardware5radio7network20RadioAccessSpecifierENS3_9allocatorISA_EEEEE6$valueE",
   "size" : 4,
   "source_file" : "frameworks/native/libs/binder/ndk/include_cpp/android/binder_to_string.h",
   "underlying_type" : "_ZTIj"
  },
  {
   "alignment" : 4,
   "enum_fields" :
   [
    {
     "enum_field_value" : 0,
     "name" : "android::internal::details::IsPointerLike<std::vector<aidl::android::hardware::radio::network::CellInfo>>::value"
    }
   ],
   "linker_set_key" : "_ZTIN7android8internal7details13IsPointerLikeINSt3__16vectorIN4aidl7android8hardware5radio7network8CellInfoENS3_9allocatorISA_EEEEE6$valueE",
   "name" : "android::internal::details::IsPointerLike<std::vector<aidl::android::hardware::radio::network::CellInfo, std::allocator<aidl::android::hardware::radio::network::CellInfo>>>::(unnamed enum at frameworks/native/libs/binder/ndk/include_cpp/android/binder_to_string.h:118:5)",
   "referenced_type" : "_ZTIN7android8internal7details13IsPointerLikeINSt3__16vectorIN4aidl7android8hardware5radio7network8CellInfoENS3_9allocatorISA_EEEEE6$valueE",
   "self_type" : "_ZTIN7android8internal7details13IsPointerLikeINSt3__16vectorIN4aidl7android8hardware5radio7network8CellInfoENS3_9allocatorISA_EEEEE6$valueE",
   "size" : 4,
   "source_file" : "frameworks/native/libs/binder/ndk/include_cpp/android/binder_to_string.h",
   "underlying_type" : "_ZTIj"
  },
  {
   "alignment" : 4,
   "enum_fields" :
   [
    {
     "enum_field_value" : 0,
     "name" : "android::internal::details::IsPointerLike<std::vector<std::basic_string<char>>>::value"
    }
   ],
   "linker_set_key" : "_ZTIN7android8internal7details13IsPointerLikeINSt3__16vectorINS3_12basic_stringIcNS3_11char_traitsIcEENS3_9allocatorIcEEEENS8_ISA_EEEEE6$valueE",
   "name" : "android::internal::details::IsPointerLike<std::vector<std::basic_string<char, std::char_traits<char>, std::allocator<char>>, std::allocator<std::basic_string<char, std::char_traits<char>, std::allocator<char>>>>>::(unnamed enum at frameworks/native/libs/binder/ndk/include_cpp/android/binder_to_string.h:118:5)",
   "referenced_type" : "_ZTIN7android8internal7details13IsPointerLikeINSt3__16vectorINS3_12basic_stringIcNS3_11char_traitsIcEENS3_9allocatorIcEEEENS8_ISA_EEEEE6$valueE",
   "self_type" : "_ZTIN7android8internal7details13IsPointerLikeINSt3__16vectorINS3_12basic_stringIcNS3_11char_traitsIcEENS3_9allocatorIcEEEENS8_ISA_EEEEE6$valueE",
   "size" : 4,
   "source_file" : "frameworks/native/libs/binder/ndk/include_cpp/android/binder_to_string.h",
   "underlying_type" : "_ZTIj"
  },
  {
   "alignment" : 4,
   "enum_fields" :
   [
    {
     "enum_field_value" : 0,
     "name" : "android::internal::details::IsPointerLike<std::vector<unsigned char>>::value"
    }
   ],
   "linker_set_key" : "_ZTIN7android8internal7details13IsPointerLikeINSt3__16vectorIhNS3_9allocatorIhEEEEE6$valueE",
   "name" : "android::internal::details::IsPointerLike<std::vector<unsigned char, std::allocator<unsigned char>>>::(unnamed enum at frameworks/native/libs/binder/ndk/include_cpp/android/binder_to_string.h:118:5)",
   "referenced_type" : "_ZTIN7android8internal7details13IsPointerLikeINSt3__16vectorIhNS3_9allocatorIhEEEEE6$valueE",
   "self_type" : "_ZTIN7android8internal7details13IsPointerLikeINSt3__16vectorIhNS3_9allocatorIhEEEEE6$valueE",
   "size" : 4,
   "source_file" : "frameworks/native/libs/binder/ndk/include_cpp/android/binder_to_string.h",
   "underlying_type" : "_ZTIj"
  },
  {
   "alignment" : 4,
   "enum_fields" :
   [
    {
     "enum_field_value" : 0,
     "name" : "android::internal::details::IsPointerLike<std::vector<int>>::value"
    }
   ],
   "linker_set_key" : "_ZTIN7android8internal7details13IsPointerLikeINSt3__16vectorIiNS3_9allocatorIiEEEEE6$valueE",
   "name" : "android::internal::details::IsPointerLike<std::vector<int, std::allocator<int>>>::(unnamed enum at frameworks/native/libs/binder/ndk/include_cpp/android/binder_to_string.h:118:5)",
   "referenced_type" : "_ZTIN7android8internal7details13IsPointerLikeINSt3__16vectorIiNS3_9allocatorIiEEEEE6$valueE",
   "self_type" : "_ZTIN7android8internal7details13IsPointerLikeINSt3__16vectorIiNS3_9allocatorIiEEEEE6$valueE",
   "size" : 4,
   "source_file" : "frameworks/native/libs/binder/ndk/include_cpp/android/binder_to_string.h",
   "underlying_type" : "_ZTIj"
  },
  {
   "alignment" : 4,
   "enum_fields" :
   [
    {
     "enum_field_value" : 1,
     "name" : "android::internal::details::IsPointerLike<std::optional<aidl::android::hardware::radio::network::BarringTypeSpecificInfo>>::value"
    }
   ],
   "linker_set_key" : "_ZTIN7android8internal7details13IsPointerLikeINSt3__18optionalIN4aidl7android8hardware5radio7network23BarringTypeSpecificInfoEEEE6$valueE",
   "name" : "android::internal::details::IsPointerLike<std::optional<aidl::android::hardware::radio::network::BarringTypeSpecificInfo>>::(unnamed enum at frameworks/native/libs/binder/ndk/include_cpp/android/binder_to_string.h:118:5)",
   "referenced_type" : "_ZTIN7android8internal7details13IsPointerLikeINSt3__18optionalIN4aidl7android8hardware5radio7network23BarringTypeSpecificInfoEEEE6$valueE",
   "self_type" : "_ZTIN7android8internal7details13IsPointerLikeINSt3__18optionalIN4aidl7android8hardware5radio7network23BarringTypeSpecificInfoEEEE6$valueE",
   "size" : 4,
   "source_file" : "frameworks/native/libs/binder/ndk/include_cpp/android/binder_to_string.h",
   "underlying_type" : "_ZTIj"
  },
  {
   "alignment" : 4,
   "enum_fields" :
   [
    {
     "enum_field_value" : 1,
     "name" : "android::internal::details::IsPointerLike<std::optional<aidl::android::hardware::radio::network::ClosedSubscriberGroupInfo>>::value"
    }
   ],
   "linker_set_key" : "_ZTIN7android8internal7details13IsPointerLikeINSt3__18optionalIN4aidl7android8hardware5radio7network25ClosedSubscriberGroupInfoEEEE6$valueE",
   "name" : "android::internal::details::IsPointerLike<std::optional<aidl::android::hardware::radio::network::ClosedSubscriberGroupInfo>>::(unnamed enum at frameworks/native/libs/binder/ndk/include_cpp/android/binder_to_string.h:118:5)",
   "referenced_type" : "_ZTIN7android8internal7details13IsPointerLikeINSt3__18optionalIN4aidl7android8hardware5radio7network25ClosedSubscriberGroupInfoEEEE6$valueE",
   "self_type" : "_ZTIN7android8internal7details13IsPointerLikeINSt3__18optionalIN4aidl7android8hardware5radio7network25ClosedSubscriberGroupInfoEEEE6$valueE",
   "size" : 4,
   "source_file" : "frameworks/native/libs/binder/ndk/include_cpp/android/binder_to_string.h",
   "underlying_type" : "_ZTIj"
  },
  {
   "alignment" : 4,
   "enum_fields" :
   [
    {
     "enum_field_value" : 0,
     "name" : "android::internal::details::ToEmptyString<aidl::android::hardware::radio::RadioError>::value"
    }
   ],
   "linker_set_key" : "_ZTIN7android8internal7details13ToEmptyStringIN4aidl7android8hardware5radio10RadioErrorEE6$valueE",
   "name" : "android::internal::details::ToEmptyString<aidl::android::hardware::radio::RadioError>::(unnamed enum at frameworks/native/libs/binder/ndk/include_cpp/android/binder_to_string.h:153:5)",
   "referenced_type" : "_ZTIN7android8internal7details13ToEmptyStringIN4aidl7android8hardware5radio10RadioErrorEE6$valueE",
   "self_type" : "_ZTIN7android8internal7details13ToEmptyStringIN4aidl7android8hardware5radio10RadioErrorEE6$valueE",
   "size" : 4,
   "source_file" : "frameworks/native/libs/binder/ndk/include_cpp/android/binder_to_string.h",
   "underlying_type" : "_ZTIj"
  },
  {
   "alignment" : 4,
   "enum_fields" :
   [
    {
     "enum_field_value" : 0,
     "name" : "android::internal::details::ToEmptyString<aidl::android::hardware::radio::AccessNetwork>::value"
    }
   ],
   "linker_set_key" : "_ZTIN7android8internal7details13ToEmptyStringIN4aidl7android8hardware5radio13AccessNetworkEE6$valueE",
   "name" : "android::internal::details::ToEmptyString<aidl::android::hardware::radio::AccessNetwork>::(unnamed enum at frameworks/native/libs/binder/ndk/include_cpp/android/binder_to_string.h:153:5)",
   "referenced_type" : "_ZTIN7android8internal7details13ToEmptyStringIN4aidl7android8hardware5radio13AccessNetworkEE6$valueE",
   "self_type" : "_ZTIN7android8internal7details13ToEmptyStringIN4aidl7android8hardware5radio13AccessNetworkEE6$valueE",
   "size" : 4,
   "source_file" : "frameworks/native/libs/binder/ndk/include_cpp/android/binder_to_string.h",
   "underlying_type" : "_ZTIj"
  },
  {
   "alignment" : 4,
   "enum_fields" :
   [
    {
     "enum_field_value" : 0,
     "name" : "android::internal::details::ToEmptyString<aidl::android::hardware::radio::RadioTechnology>::value"
    }
   ],
   "linker_set_key" : "_ZTIN7android8internal7details13ToEmptyStringIN4aidl7android8hardware5radio15RadioTechnologyEE6$valueE",
   "name" : "android::internal::details::ToEmptyString<aidl::android::hardware::radio::RadioTechnology>::(unnamed enum at frameworks/native/libs/binder/ndk/include_cpp/android/binder_to_string.h:153:5)",
   "referenced_type" : "_ZTIN7android8internal7details13ToEmptyStringIN4aidl7android8hardware5radio15RadioTechnologyEE6$valueE",
   "self_type" : "_ZTIN7android8internal7details13ToEmptyStringIN4aidl7android8hardware5radio15RadioTechnologyEE6$valueE",
   "size" : 4,
   "source_file" : "frameworks/native/libs/binder/ndk/include_cpp/android/binder_to_string.h",
   "underlying_type" : "_ZTIj"
  },
  {
   "alignment" : 4,
   "enum_fields" :
   [
    {
     "enum_field_value" : 0,
     "name" : "android::internal::details::ToEmptyString<aidl::android::hardware::radio::RadioResponseType>::value"
    }
   ],
   "linker_set_key" : "_ZTIN7android8internal7details13ToEmptyStringIN4aidl7android8hardware5radio17RadioResponseTypeEE6$valueE",
   "name" : "android::internal::details::ToEmptyString<aidl::android::hardware::radio::RadioResponseType>::(unnamed enum at frameworks/native/libs/binder/ndk/include_cpp/android/binder_to_string.h:153:5)",
   "referenced_type" : "_ZTIN7android8internal7details13ToEmptyStringIN4aidl7android8hardware5radio17RadioResponseTypeEE6$valueE",
   "self_type" : "_ZTIN7android8internal7details13ToEmptyStringIN4aidl7android8hardware5radio17RadioResponseTypeEE6$valueE",
   "size" : 4,
   "source_file" : "frameworks/native/libs/binder/ndk/include_cpp/android/binder_to_string.h",
   "underlying_type" : "_ZTIj"
  },
  {
   "alignment" : 4,
   "enum_fields" :
   [
    {
     "enum_field_value" : 0,
     "name" : "android::internal::details::ToEmptyString<aidl::android::hardware::radio::network::CellInfoNr>::value"
    }
   ],
   "linker_set_key" : "_ZTIN7android8internal7details13ToEmptyStringIN4aidl7android8hardware5radio7network10CellInfoNrEE6$valueE",
   "name" : "android::internal::details::ToEmptyString<aidl::android::hardware::radio::network::CellInfoNr>::(unnamed enum at frameworks/native/libs/binder/ndk/include_cpp/android/binder_to_string.h:153:5)",
   "referenced_type" : "_ZTIN7android8internal7details13ToEmptyStringIN4aidl7android8hardware5radio7network10CellInfoNrEE6$valueE",
   "self_type" : "_ZTIN7android8internal7details13ToEmptyStringIN4aidl7android8hardware5radio7network10CellInfoNrEE6$valueE",
   "size" : 4,
   "source_file" : "frameworks/native/libs/binder/ndk/include_cpp/android/binder_to_string.h",
   "underlying_type" : "_ZTIj"
  },
  {
   "alignment" : 4,
   "enum_fields" :
   [
    {
     "enum_field_value" : 0,
     "name" : "android::internal::details::ToEmptyString<aidl::android::hardware::radio::network::GeranBands>::value"
    }
   ],
   "linker_set_key" : "_ZTIN7android8internal7details13ToEmptyStringIN4aidl7android8hardware5radio7network10GeranBandsEE6$valueE",
   "name" : "android::internal::details::ToEmptyString<aidl::android::hardware::radio::network::GeranBands>::(unnamed enum at frameworks/native/libs/binder/ndk/include_cpp/android/binder_to_string.h:153:5)",
   "referenced_type" : "_ZTIN7android8internal7details13ToEmptyStringIN4aidl7android8hardware5radio7network10GeranBandsEE6$valueE",
   "self_type" : "_ZTIN7android8internal7details13ToEmptyStringIN4aidl7android8hardware5radio7network10GeranBandsEE6$valueE",
   "size" : 4,
   "source_file" : "frameworks/native/libs/binder/ndk/include_cpp/android/binder_to_string.h",
   "underlying_type" : "_ZTIj"
  },
  {
   "alignment" : 4,
   "enum_fields" :
   [
    {
     "enum_field_value" : 0,
     "name" : "android::internal::details::ToEmptyString<aidl::android::hardware::radio::network::NgranBands>::value"
    }
   ],
   "linker_set_key" : "_ZTIN7android8internal7details13ToEmptyStringIN4aidl7android8hardware5radio7network10NgranBandsEE6$valueE",
   "name" : "android::internal::details::ToEmptyString<aidl::android::hardware::radio::network::NgranBands>::(unnamed enum at frameworks/native/libs/binder/ndk/include_cpp/android/binder_to_string.h:153:5)",
   "referenced_type" : "_ZTIN7android8internal7details13ToEmptyStringIN4aidl7android8hardware5radio7network10NgranBandsEE6$valueE",
   "self_type" : "_ZTIN7android8internal7details13ToEmptyStringIN4aidl7android8hardware5radio7network10NgranBandsEE6$valueE",
   "size" : 4,
   "source_file" : "frameworks/native/libs/binder/ndk/include_cpp/android/binder_to_string.h",
   "underlying_type" : "_ZTIj"
  },
  {
   "alignment" : 4,
   "enum_fields" :
   [
    {
     "enum_field_value" : 0,
     "name" : "android::internal::details::ToEmptyString<aidl::android::hardware::radio::network::NrVopsInfo>::value"
    }
   ],
   "linker_set_key" : "_ZTIN7android8internal7details13ToEmptyStringIN4aidl7android8hardware5radio7network10NrVopsInfoEE6$valueE",
   "name" : "android::internal::details::ToEmptyString<aidl::android::hardware::radio::network::NrVopsInfo>::(unnamed enum at frameworks/native/libs/binder/ndk/include_cpp/android/binder_to_string.h:153:5)",
   "referenced_type" : "_ZTIN7android8internal7details13ToEmptyStringIN4aidl7android8hardware5radio7network10NrVopsInfoEE6$valueE",
   "self_type" : "_ZTIN7android8internal7details13ToEmptyStringIN4aidl7android8hardware5radio7network10NrVopsInfoEE6$valueE",
   "size" : 4,
   "source_file" : "frameworks/native/libs/binder/ndk/include_cpp/android/binder_to_string.h",
   "underlying_type" : "_ZTIj"
  },
  {
   "alignment" : 4,
   "enum_fields" :
   [
    {
     "enum_field_value" : 0,
     "name" : "android::internal::details::ToEmptyString<aidl::android::hardware::radio::network::UtranBands>::value"
    }
   ],
   "linker_set_key" : "_ZTIN7android8internal7details13ToEmptyStringIN4aidl7android8hardware5radio7network10UtranBandsEE6$valueE",
   "name" : "android::internal::details::ToEmptyString<aidl::android::hardware::radio::network::UtranBands>::(unnamed enum at frameworks/native/libs/binder/ndk/include_cpp/android/binder_to_string.h:153:5)",
   "referenced_type" : "_ZTIN7android8internal7details13ToEmptyStringIN4aidl7android8hardware5radio7network10UtranBandsEE6$valueE",
   "self_type" : "_ZTIN7android8internal7details13ToEmptyStringIN4aidl7android8hardware5radio7network10UtranBandsEE6$valueE",
   "size" : 4,
   "source_file" : "frameworks/native/libs/binder/ndk/include_cpp/android/binder_to_string.h",
   "underlying_type" : "_ZTIj"
  },
  {
   "alignment" : 4,
   "enum_fields" :
   [
    {
     "enum_field_value" : 0,
     "name" : "android::internal::details::ToEmptyString<aidl::android::hardware::radio::network::CellInfoGsm>::value"
    }
   ],
   "linker_set_key" : "_ZTIN7android8internal7details13ToEmptyStringIN4aidl7android8hardware5radio7network11CellInfoGsmEE6$valueE",
   "name" : "android::internal::details::ToEmptyString<aidl::android::hardware::radio::network::CellInfoGsm>::(unnamed enum at frameworks/native/libs/binder/ndk/include_cpp/android/binder_to_string.h:153:5)",
   "referenced_type" : "_ZTIN7android8internal7details13ToEmptyStringIN4aidl7android8hardware5radio7network11CellInfoGsmEE6$valueE",
   "self_type" : "_ZTIN7android8internal7details13ToEmptyStringIN4aidl7android8hardware5radio7network11CellInfoGsmEE6$valueE",
   "size" : 4,
   "source_file" : "frameworks/native/libs/binder/ndk/include_cpp/android/binder_to_string.h",
   "underlying_type" : "_ZTIj"
  },
  {
   "alignment" : 4,
   "enum_fields" :
   [
    {
     "enum_field_value" : 0,
     "name" : "android::internal::details::ToEmptyString<aidl::android::hardware::radio::network::CellInfoLte>::value"
    }
   ],
   "linker_set_key" : "_ZTIN7android8internal7details13ToEmptyStringIN4aidl7android8hardware5radio7network11CellInfoLteEE6$valueE",
   "name" : "android::internal::details::ToEmptyString<aidl::android::hardware::radio::network::CellInfoLte>::(unnamed enum at frameworks/native/libs/binder/ndk/include_cpp/android/binder_to_string.h:153:5)",
   "referenced_type" : "_ZTIN7android8internal7details13ToEmptyStringIN4aidl7android8hardware5radio7network11CellInfoLteEE6$valueE",
   "self_type" : "_ZTIN7android8internal7details13ToEmptyStringIN4aidl7android8hardware5radio7network11CellInfoLteEE6$valueE",
   "size" : 4,
   "source_file" : "frameworks/native/libs/binder/ndk/include_cpp/android/binder_to_string.h",
   "underlying_type" : "_ZTIj"
  },
  {
   "alignment" : 4,
   "enum_fields" :
   [
    {
     "enum_field_value" : 0,
     "name" : "android::internal::details::ToEmptyString<aidl::android::hardware::radio::network::EutranBands>::value"
    }
   ],
   "linker_set_key" : "_ZTIN7android8internal7details13ToEmptyStringIN4aidl7android8hardware5radio7network11EutranBandsEE6$valueE",
   "name" : "android::internal::details::ToEmptyString<aidl::android::hardware::radio::network::EutranBands>::(unnamed enum at frameworks/native/libs/binder/ndk/include_cpp/android/binder_to_string.h:153:5)",
   "referenced_type" : "_ZTIN7android8internal7details13ToEmptyStringIN4aidl7android8hardware5radio7network11EutranBandsEE6$valueE",
   "self_type" : "_ZTIN7android8internal7details13ToEmptyStringIN4aidl7android8hardware5radio7network11EutranBandsEE6$valueE",
   "size" : 4,
   "source_file" : "frameworks/native/libs/binder/ndk/include_cpp/android/binder_to_string.h",
   "underlying_type" : "_ZTIj"
  },
  {
   "alignment" : 4,
   "enum_fields" :
   [
    {
     "enum_field_value" : 0,
     "name" : "android::internal::details::ToEmptyString<aidl::android::hardware::radio::network::LteVopsInfo>::value"
    }
   ],
   "linker_set_key" : "_ZTIN7android8internal7details13ToEmptyStringIN4aidl7android8hardware5radio7network11LteVopsInfoEE6$valueE",
   "name" : "android::internal::details::ToEmptyString<aidl::android::hardware::radio::network::LteVopsInfo>::(unnamed enum at frameworks/native/libs/binder/ndk/include_cpp/android/binder_to_string.h:153:5)",
   "referenced_type" : "_ZTIN7android8internal7details13ToEmptyStringIN4aidl7android8hardware5radio7network11LteVopsInfoEE6$valueE",
   "self_type" : "_ZTIN7android8internal7details13ToEmptyStringIN4aidl7android8hardware5radio7network11LteVopsInfoEE6$valueE",
   "size" : 4,
   "source_file" : "frameworks/native/libs/binder/ndk/include_cpp/android/binder_to_string.h",
   "underlying_type" : "_ZTIj"
  },
  {
   "alignment" : 4,
   "enum_fields" :
   [
    {
     "enum_field_value" : 0,
     "name" : "android::internal::details::ToEmptyString<aidl::android::hardware::radio::network::CellIdentity>::value"
    }
   ],
   "linker_set_key" : "_ZTIN7android8internal7details13ToEmptyStringIN4aidl7android8hardware5radio7network12CellIdentityEE6$valueE",
   "name" : "android::internal::details::ToEmptyString<aidl::android::hardware::radio::network::CellIdentity>::(unnamed enum at frameworks/native/libs/binder/ndk/include_cpp/android/binder_to_string.h:153:5)",
   "referenced_type" : "_ZTIN7android8internal7details13ToEmptyStringIN4aidl7android8hardware5radio7network12CellIdentityEE6$valueE",
   "self_type" : "_ZTIN7android8internal7details13ToEmptyStringIN4aidl7android8hardware5radio7network12CellIdentityEE6$valueE",
   "size" : 4,
   "source_file" : "frameworks/native/libs/binder/ndk/include_cpp/android/binder_to_string.h",
   "underlying_type" : "_ZTIj"
  },
  {
   "alignment" : 4,
   "enum_fields" :
   [
    {
     "enum_field_value" : 0,
     "name" : "android::internal::details::ToEmptyString<aidl::android::hardware::radio::network::CellInfoCdma>::value"
    }
   ],
   "linker_set_key" : "_ZTIN7android8internal7details13ToEmptyStringIN4aidl7android8hardware5radio7network12CellInfoCdmaEE6$valueE",
   "name" : "android::internal::details::ToEmptyString<aidl::android::hardware::radio::network::CellInfoCdma>::(unnamed enum at frameworks/native/libs/binder/ndk/include_cpp/android/binder_to_string.h:153:5)",
   "referenced_type" : "_ZTIN7android8internal7details13ToEmptyStringIN4aidl7android8hardware5radio7network12CellInfoCdmaEE6$valueE",
   "self_type" : "_ZTIN7android8internal7details13ToEmptyStringIN4aidl7android8hardware5radio7network12CellInfoCdmaEE6$valueE",
   "size" : 4,
   "source_file" : "frameworks/native/libs/binder/ndk/include_cpp/android/binder_to_string.h",
   "underlying_type" : "_ZTIj"
  },
  {
   "alignment" : 4,
   "enum_fields" :
   [
    {
     "enum_field_value" : 0,
     "name" : "android::internal::details::ToEmptyString<aidl::android::hardware::radio::network::NrIndicators>::value"
    }
   ],
   "linker_set_key" : "_ZTIN7android8internal7details13ToEmptyStringIN4aidl7android8hardware5radio7network12NrIndicatorsEE6$valueE",
   "name" : "android::internal::details::ToEmptyString<aidl::android::hardware::radio::network::NrIndicators>::(unnamed enum at frameworks/native/libs/binder/ndk/include_cpp/android/binder_to_string.h:153:5)",
   "referenced_type" : "_ZTIN7android8internal7details13ToEmptyStringIN4aidl7android8hardware5radio7network12NrIndicatorsEE6$valueE",
   "self_type" : "_ZTIN7android8internal7details13ToEmptyStringIN4aidl7android8hardware5radio7network12NrIndicatorsEE6$valueE",
   "size" : 4,
   "source_file" : "frameworks/native/libs/binder/ndk/include_cpp/android/binder_to_string.h",
   "underlying_type" : "_ZTIj"
  },
  {
   "alignment" : 4,
   "enum_fields" :
   [
    {
     "enum_field_value" : 0,
     "name" : "android::internal::details::ToEmptyString<aidl::android::hardware::radio::network::OperatorInfo>::value"
    }
   ],
   "linker_set_key" : "_ZTIN7android8internal7details13ToEmptyStringIN4aidl7android8hardware5radio7network12OperatorInfoEE6$valueE",
   "name" : "android::internal::details::ToEmptyString<aidl::android::hardware::radio::network::OperatorInfo>::(unnamed enum at frameworks/native/libs/binder/ndk/include_cpp/android/binder_to_string.h:153:5)",
   "referenced_type" : "_ZTIN7android8internal7details13ToEmptyStringIN4aidl7android8hardware5radio7network12OperatorInfoEE6$valueE",
   "self_type" : "_ZTIN7android8internal7details13ToEmptyStringIN4aidl7android8hardware5radio7network12OperatorInfoEE6$valueE",
   "size" : 4,
   "source_file" : "frameworks/native/libs/binder/ndk/include_cpp/android/binder_to_string.h",
   "underlying_type" : "_ZTIj"
  },
  {
   "alignment" : 4,
   "enum_fields" :
   [
    {
     "enum_field_value" : 0,
     "name" : "android::internal::details::ToEmptyString<aidl::android::hardware::radio::network::CellInfoWcdma>::value"
    }
   ],
   "linker_set_key" : "_ZTIN7android8internal7details13ToEmptyStringIN4aidl7android8hardware5radio7network13CellInfoWcdmaEE6$valueE",
   "name" : "android::internal::details::ToEmptyString<aidl::android::hardware::radio::network::CellInfoWcdma>::(unnamed enum at frameworks/native/libs/binder/ndk/include_cpp/android/binder_to_string.h:153:5)",
   "referenced_type" : "_ZTIN7android8internal7details13ToEmptyStringIN4aidl7android8hardware5radio7network13CellInfoWcdmaEE6$valueE",
   "self_type" : "_ZTIN7android8internal7details13ToEmptyStringIN4aidl7android8hardware5radio7network13CellInfoWcdmaEE6$valueE",
   "size" : 4,
   "source_file" : "frameworks/native/libs/binder/ndk/include_cpp/android/binder_to_string.h",
   "underlying_type" : "_ZTIj"
  },
  {
   "alignment" : 4,
   "enum_fields" :
   [
    {
     "enum_field_value" : 0,
     "name" : "android::internal::details::ToEmptyString<aidl::android::hardware::radio::network::CellIdentityNr>::value"
    }
   ],
   "linker_set_key" : "_ZTIN7android8internal7details13ToEmptyStringIN4aidl7android8hardware5radio7network14CellIdentityNrEE6$valueE",
   "name" : "android::internal::details::ToEmptyString<aidl::android::hardware::radio::network::CellIdentityNr>::(unnamed enum at frameworks/native/libs/binder/ndk/include_cpp/android/binder_to_string.h:153:5)",
   "referenced_type" : "_ZTIN7android8internal7details13ToEmptyStringIN4aidl7android8hardware5radio7network14CellIdentityNrEE6$valueE",
   "self_type" : "_ZTIN7android8internal7details13ToEmptyStringIN4aidl7android8hardware5radio7network14CellIdentityNrEE6$valueE",
   "size" : 4,
   "source_file" : "frameworks/native/libs/binder/ndk/include_cpp/android/binder_to_string.h",
   "underlying_type" : "_ZTIj"
  },
  {
   "alignment" : 4,
   "enum_fields" :
   [
    {
     "enum_field_value" : 0,
     "name" : "android::internal::details::ToEmptyString<aidl::android::hardware::radio::network::CellIdentityGsm>::value"
    }
   ],
   "linker_set_key" : "_ZTIN7android8internal7details13ToEmptyStringIN4aidl7android8hardware5radio7network15CellIdentityGsmEE6$valueE",
   "name" : "android::internal::details::ToEmptyString<aidl::android::hardware::radio::network::CellIdentityGsm>::(unnamed enum at frameworks/native/libs/binder/ndk/include_cpp/android/binder_to_string.h:153:5)",
   "referenced_type" : "_ZTIN7android8internal7details13ToEmptyStringIN4aidl7android8hardware5radio7network15CellIdentityGsmEE6$valueE",
   "self_type" : "_ZTIN7android8internal7details13ToEmptyStringIN4aidl7android8hardware5radio7network15CellIdentityGsmEE6$valueE",
   "size" : 4,
   "source_file" : "frameworks/native/libs/binder/ndk/include_cpp/android/binder_to_string.h",
   "underlying_type" : "_ZTIj"
  },
  {
   "alignment" : 4,
   "enum_fields" :
   [
    {
     "enum_field_value" : 0,
     "name" : "android::internal::details::ToEmptyString<aidl::android::hardware::radio::network::CellIdentityLte>::value"
    }
   ],
   "linker_set_key" : "_ZTIN7android8internal7details13ToEmptyStringIN4aidl7android8hardware5radio7network15CellIdentityLteEE6$valueE",
   "name" : "android::internal::details::ToEmptyString<aidl::android::hardware::radio::network::CellIdentityLte>::(unnamed enum at frameworks/native/libs/binder/ndk/include_cpp/android/binder_to_string.h:153:5)",
   "referenced_type" : "_ZTIN7android8internal7details13ToEmptyStringIN4aidl7android8hardware5radio7network15CellIdentityLteEE6$valueE",
   "self_type" : "_ZTIN7android8internal7details13ToEmptyStringIN4aidl7android8hardware5radio7network15CellIdentityLteEE6$valueE",
   "size" : 4,
   "source_file" : "frameworks/native/libs/binder/ndk/include_cpp/android/binder_to_string.h",
   "underlying_type" : "_ZTIj"
  },
  {
   "alignment" : 4,
   "enum_fields" :
   [
    {
     "enum_field_value" : 0,
     "name" : "android::internal::details::ToEmptyString<aidl::android::hardware::radio::network::CellInfoTdscdma>::value"
    }
   ],
   "linker_set_key" : "_ZTIN7android8internal7details13ToEmptyStringIN4aidl7android8hardware5radio7network15CellInfoTdscdmaEE6$valueE",
   "name" : "android::internal::details::ToEmptyString<aidl::android::hardware::radio::network::CellInfoTdscdma>::(unnamed enum at frameworks/native/libs/binder/ndk/include_cpp/android/binder_to_string.h:153:5)",
   "referenced_type" : "_ZTIN7android8internal7details13ToEmptyStringIN4aidl7android8hardware5radio7network15CellInfoTdscdmaEE6$valueE",
   "self_type" : "_ZTIN7android8internal7details13ToEmptyStringIN4aidl7android8hardware5radio7network15CellInfoTdscdmaEE6$valueE",
   "size" : 4,
   "source_file" : "frameworks/native/libs/binder/ndk/include_cpp/android/binder_to_string.h",
   "underlying_type" : "_ZTIj"
  },
  {
   "alignment" : 4,
   "enum_fields" :
   [
    {
     "enum_field_value" : 0,
     "name" : "android::internal::details::ToEmptyString<aidl::android::hardware::radio::network::CellIdentityCdma>::value"
    }
   ],
   "linker_set_key" : "_ZTIN7android8internal7details13ToEmptyStringIN4aidl7android8hardware5radio7network16CellIdentityCdmaEE6$valueE",
   "name" : "android::internal::details::ToEmptyString<aidl::android::hardware::radio::network::CellIdentityCdma>::(unnamed enum at frameworks/native/libs/binder/ndk/include_cpp/android/binder_to_string.h:153:5)",
   "referenced_type" : "_ZTIN7android8internal7details13ToEmptyStringIN4aidl7android8hardware5radio7network16CellIdentityCdmaEE6$valueE",
   "self_type" : "_ZTIN7android8internal7details13ToEmptyStringIN4aidl7android8hardware5radio7network16CellIdentityCdmaEE6$valueE",
   "size" : 4,
   "source_file" : "frameworks/native/libs/binder/ndk/include_cpp/android/binder_to_string.h",
   "underlying_type" : "_ZTIj"
  },
  {
   "alignment" : 4,
   "enum_fields" :
   [
    {
     "enum_field_value" : 0,
     "name" : "android::internal::details::ToEmptyString<aidl::android::hardware::radio::network::NrSignalStrength>::value"
    }
   ],
   "linker_set_key" : "_ZTIN7android8internal7details13ToEmptyStringIN4aidl7android8hardware5radio7network16NrSignalStrengthEE6$valueE",
   "name" : "android::internal::details::ToEmptyString<aidl::android::hardware::radio::network::NrSignalStrength>::(unnamed enum at frameworks/native/libs/binder/ndk/include_cpp/android/binder_to_string.h:153:5)",
   "referenced_type" : "_ZTIN7android8internal7details13ToEmptyStringIN4aidl7android8hardware5radio7network16NrSignalStrengthEE6$valueE",
   "self_type" : "_ZTIN7android8internal7details13ToEmptyStringIN4aidl7android8hardware5radio7network16NrSignalStrengthEE6$valueE",
   "size" : 4,
   "source_file" : "frameworks/native/libs/binder/ndk/include_cpp/android/binder_to_string.h",
   "underlying_type" : "_ZTIj"
  },
  {
   "alignment" : 4,
   "enum_fields" :
   [
    {
     "enum_field_value" : 0,
     "name" : "android::internal::details::ToEmptyString<aidl::android::hardware::radio::network::CellIdentityWcdma>::value"
    }
   ],
   "linker_set_key" : "_ZTIN7android8internal7details13ToEmptyStringIN4aidl7android8hardware5radio7network17CellIdentityWcdmaEE6$valueE",
   "name" : "android::internal::details::ToEmptyString<aidl::android::hardware::radio::network::CellIdentityWcdma>::(unnamed enum at frameworks/native/libs/binder/ndk/include_cpp/android/binder_to_string.h:153:5)",
   "referenced_type" : "_ZTIN7android8internal7details13ToEmptyStringIN4aidl7android8hardware5radio7network17CellIdentityWcdmaEE6$valueE",
   "self_type" : "_ZTIN7android8internal7details13ToEmptyStringIN4aidl7android8hardware5radio7network17CellIdentityWcdmaEE6$valueE",
   "size" : 4,
   "source_file" : "frameworks/native/libs/binder/ndk/include_cpp/android/binder_to_string.h",
   "underlying_type" : "_ZTIj"
  },
  {
   "alignment" : 4,
   "enum_fields" :
   [
    {
     "enum_field_value" : 0,
     "name" : "android::internal::details::ToEmptyString<aidl::android::hardware::radio::network::GsmSignalStrength>::value"
    }
   ],
   "linker_set_key" : "_ZTIN7android8internal7details13ToEmptyStringIN4aidl7android8hardware5radio7network17GsmSignalStrengthEE6$valueE",
   "name" : "android::internal::details::ToEmptyString<aidl::android::hardware::radio::network::GsmSignalStrength>::(unnamed enum at frameworks/native/libs/binder/ndk/include_cpp/android/binder_to_string.h:153:5)",
   "referenced_type" : "_ZTIN7android8internal7details13ToEmptyStringIN4aidl7android8hardware5radio7network17GsmSignalStrengthEE6$valueE",
   "self_type" : "_ZTIN7android8internal7details13ToEmptyStringIN4aidl7android8hardware5radio7network17GsmSignalStrengthEE6$valueE",
   "size" : 4,
   "source_file" : "frameworks/native/libs/binder/ndk/include_cpp/android/binder_to_string.h",
   "underlying_type" : "_ZTIj"
  },
  {
   "alignment" : 4,
   "enum_fields" :
   [
    {
     "enum_field_value" : 0,
     "name" : "android::internal::details::ToEmptyString<aidl::android::hardware::radio::network::LteSignalStrength>::value"
    }
   ],
   "linker_set_key" : "_ZTIN7android8internal7details13ToEmptyStringIN4aidl7android8hardware5radio7network17LteSignalStrengthEE6$valueE",
   "name" : "android::internal::details::ToEmptyString<aidl::android::hardware::radio::network::LteSignalStrength>::(unnamed enum at frameworks/native/libs/binder/ndk/include_cpp/android/binder_to_string.h:153:5)",
   "referenced_type" : "_ZTIN7android8internal7details13ToEmptyStringIN4aidl7android8hardware5radio7network17LteSignalStrengthEE6$valueE",
   "self_type" : "_ZTIN7android8internal7details13ToEmptyStringIN4aidl7android8hardware5radio7network17LteSignalStrengthEE6$valueE",
   "size" : 4,
   "source_file" : "frameworks/native/libs/binder/ndk/include_cpp/android/binder_to_string.h",
   "underlying_type" : "_ZTIj"
  },
  {
   "alignment" : 4,
   "enum_fields" :
   [
    {
     "enum_field_value" : 0,
     "name" : "android::internal::details::ToEmptyString<aidl::android::hardware::radio::network::CdmaSignalStrength>::value"
    }
   ],
   "linker_set_key" : "_ZTIN7android8internal7details13ToEmptyStringIN4aidl7android8hardware5radio7network18CdmaSignalStrengthEE6$valueE",
   "name" : "android::internal::details::ToEmptyString<aidl::android::hardware::radio::network::CdmaSignalStrength>::(unnamed enum at frameworks/native/libs/binder/ndk/include_cpp/android/binder_to_string.h:153:5)",
   "referenced_type" : "_ZTIN7android8internal7details13ToEmptyStringIN4aidl7android8hardware5radio7network18CdmaSignalStrengthEE6$valueE",
   "self_type" : "_ZTIN7android8internal7details13ToEmptyStringIN4aidl7android8hardware5radio7network18CdmaSignalStrengthEE6$valueE",
   "size" : 4,
   "source_file" : "frameworks/native/libs/binder/ndk/include_cpp/android/binder_to_string.h",
   "underlying_type" : "_ZTIj"
  },
  {
   "alignment" : 4,
   "enum_fields" :
   [
    {
     "enum_field_value" : 0,
     "name" : "android::internal::details::ToEmptyString<aidl::android::hardware::radio::network::EvdoSignalStrength>::value"
    }
   ],
   "linker_set_key" : "_ZTIN7android8internal7details13ToEmptyStringIN4aidl7android8hardware5radio7network18EvdoSignalStrengthEE6$valueE",
   "name" : "android::internal::details::ToEmptyString<aidl::android::hardware::radio::network::EvdoSignalStrength>::(unnamed enum at frameworks/native/libs/binder/ndk/include_cpp/android/binder_to_string.h:153:5)",
   "referenced_type" : "_ZTIN7android8internal7details13ToEmptyStringIN4aidl7android8hardware5radio7network18EvdoSignalStrengthEE6$valueE",
   "self_type" : "_ZTIN7android8internal7details13ToEmptyStringIN4aidl7android8hardware5radio7network18EvdoSignalStrengthEE6$valueE",
   "size" : 4,
   "source_file" : "frameworks/native/libs/binder/ndk/include_cpp/android/binder_to_string.h",
   "underlying_type" : "_ZTIj"
  },
  {
   "alignment" : 4,
   "enum_fields" :
   [
    {
     "enum_field_value" : 0,
     "name" : "android::internal::details::ToEmptyString<aidl::android::hardware::radio::network::CellIdentityTdscdma>::value"
    }
   ],
   "linker_set_key" : "_ZTIN7android8internal7details13ToEmptyStringIN4aidl7android8hardware5radio7network19CellIdentityTdscdmaEE6$valueE",
   "name" : "android::internal::details::ToEmptyString<aidl::android::hardware::radio::network::CellIdentityTdscdma>::(unnamed enum at frameworks/native/libs/binder/ndk/include_cpp/android/binder_to_string.h:153:5)",
   "referenced_type" : "_ZTIN7android8internal7details13ToEmptyStringIN4aidl7android8hardware5radio7network19CellIdentityTdscdmaEE6$valueE",
   "self_type" : "_ZTIN7android8internal7details13ToEmptyStringIN4aidl7android8hardware5radio7network19CellIdentityTdscdmaEE6$valueE",
   "size" : 4,
   "source_file" : "frameworks/native/libs/binder/ndk/include_cpp/android/binder_to_string.h",
   "underlying_type" : "_ZTIj"
  },
  {
   "alignment" : 4,
   "enum_fields" :
   [
    {
     "enum_field_value" : 0,
     "name" : "android::internal::details::ToEmptyString<aidl::android::hardware::radio::network::WcdmaSignalStrength>::value"
    }
   ],
   "linker_set_key" : "_ZTIN7android8internal7details13ToEmptyStringIN4aidl7android8hardware5radio7network19WcdmaSignalStrengthEE6$valueE",
   "name" : "android::internal::details::ToEmptyString<aidl::android::hardware::radio::network::WcdmaSignalStrength>::(unnamed enum at frameworks/native/libs/binder/ndk/include_cpp/android/binder_to_string.h:153:5)",
   "referenced_type" : "_ZTIN7android8internal7details13ToEmptyStringIN4aidl7android8hardware5radio7network19WcdmaSignalStrengthEE6$valueE",
   "self_type" : "_ZTIN7android8internal7details13ToEmptyStringIN4aidl7android8hardware5radio7network19WcdmaSignalStrengthEE6$valueE",
   "size" : 4,
   "source_file" : "frameworks/native/libs/binder/ndk/include_cpp/android/binder_to_string.h",
   "underlying_type" : "_ZTIj"
  },
  {
   "alignment" : 4,
   "enum_fields" :
   [
    {
     "enum_field_value" : 0,
     "name" : "android::internal::details::ToEmptyString<aidl::android::hardware::radio::network::CellConnectionStatus>::value"
    }
   ],
   "linker_set_key" : "_ZTIN7android8internal7details13ToEmptyStringIN4aidl7android8hardware5radio7network20CellConnectionStatusEE6$valueE",
   "name" : "android::internal::details::ToEmptyString<aidl::android::hardware::radio::network::CellConnectionStatus>::(unnamed enum at frameworks/native/libs/binder/ndk/include_cpp/android/binder_to_string.h:153:5)",
   "referenced_type" : "_ZTIN7android8internal7details13ToEmptyStringIN4aidl7android8hardware5radio7network20CellConnectionStatusEE6$valueE",
   "self_type" : "_ZTIN7android8internal7details13ToEmptyStringIN4aidl7android8hardware5radio7network20CellConnectionStatusEE6$valueE",
   "size" : 4,
   "source_file" : "frameworks/native/libs/binder/ndk/include_cpp/android/binder_to_string.h",
   "underlying_type" : "_ZTIj"
  },
  {
   "alignment" : 4,
   "enum_fields" :
   [
    {
     "enum_field_value" : 0,
     "name" : "android::internal::details::ToEmptyString<aidl::android::hardware::radio::network::RadioAccessSpecifier>::value"
    }
   ],
   "linker_set_key" : "_ZTIN7android8internal7details13ToEmptyStringIN4aidl7android8hardware5radio7network20RadioAccessSpecifierEE6$valueE",
   "name" : "android::internal::details::ToEmptyString<aidl::android::hardware::radio::network::RadioAccessSpecifier>::(unnamed enum at frameworks/native/libs/binder/ndk/include_cpp/android/binder_to_string.h:153:5)",
   "referenced_type" : "_ZTIN7android8internal7details13ToEmptyStringIN4aidl7android8hardware5radio7network20RadioAccessSpecifierEE6$valueE",
   "self_type" : "_ZTIN7android8internal7details13ToEmptyStringIN4aidl7android8hardware5radio7network20RadioAccessSpecifierEE6$valueE",
   "size" : 4,
   "source_file" : "frameworks/native/libs/binder/ndk/include_cpp/android/binder_to_string.h",
   "underlying_type" : "_ZTIj"
  },
  {
   "alignment" : 4,
   "enum_fields" :
   [
    {
     "enum_field_value" : 0,
     "name" : "android::internal::details::ToEmptyString<aidl::android::hardware::radio::network::RegistrationFailCause>::value"
    }
   ],
   "linker_set_key" : "_ZTIN7android8internal7details13ToEmptyStringIN4aidl7android8hardware5radio7network21RegistrationFailCauseEE6$valueE",
   "name" : "android::internal::details::ToEmptyString<aidl::android::hardware::radio::network::RegistrationFailCause>::(unnamed enum at frameworks/native/libs/binder/ndk/include_cpp/android/binder_to_string.h:153:5)",
   "referenced_type" : "_ZTIN7android8internal7details13ToEmptyStringIN4aidl7android8hardware5radio7network21RegistrationFailCauseEE6$valueE",
   "self_type" : "_ZTIN7android8internal7details13ToEmptyStringIN4aidl7android8hardware5radio7network21RegistrationFailCauseEE6$valueE",
   "size" : 4,
   "source_file" : "frameworks/native/libs/binder/ndk/include_cpp/android/binder_to_string.h",
   "underlying_type" : "_ZTIj"
  },
  {
   "alignment" : 4,
   "enum_fields" :
   [
    {
     "enum_field_value" : 0,
     "name" : "android::internal::details::ToEmptyString<aidl::android::hardware::radio::network::TdscdmaSignalStrength>::value"
    }
   ],
   "linker_set_key" : "_ZTIN7android8internal7details13ToEmptyStringIN4aidl7android8hardware5radio7network21TdscdmaSignalStrengthEE6$valueE",
   "name" : "android::internal::details::ToEmptyString<aidl::android::hardware::radio::network::TdscdmaSignalStrength>::(unnamed enum at frameworks/native/libs/binder/ndk/include_cpp/android/binder_to_string.h:153:5)",
   "referenced_type" : "_ZTIN7android8internal7details13ToEmptyStringIN4aidl7android8hardware5radio7network21TdscdmaSignalStrengthEE6$valueE",
   "self_type" : "_ZTIN7android8internal7details13ToEmptyStringIN4aidl7android8hardware5radio7network21TdscdmaSignalStrengthEE6$valueE",
   "size" : 4,
   "source_file" : "frameworks/native/libs/binder/ndk/include_cpp/android/binder_to_string.h",
   "underlying_type" : "_ZTIj"
  },
  {
   "alignment" : 4,
   "enum_fields" :
   [
    {
     "enum_field_value" : 0,
     "name" : "android::internal::details::ToEmptyString<aidl::android::hardware::radio::network::EutranRegistrationInfo>::value"
    }
   ],
   "linker_set_key" : "_ZTIN7android8internal7details13ToEmptyStringIN4aidl7android8hardware5radio7network22EutranRegistrationInfoEE6$valueE",
   "name" : "android::internal::details::ToEmptyString<aidl::android::hardware::radio::network::EutranRegistrationInfo>::(unnamed enum at frameworks/native/libs/binder/ndk/include_cpp/android/binder_to_string.h:153:5)",
   "referenced_type" : "_ZTIN7android8internal7details13ToEmptyStringIN4aidl7android8hardware5radio7network22EutranRegistrationInfoEE6$valueE",
   "self_type" : "_ZTIN7android8internal7details13ToEmptyStringIN4aidl7android8hardware5radio7network22EutranRegistrationInfoEE6$valueE",
   "size" : 4,
   "source_file" : "frameworks/native/libs/binder/ndk/include_cpp/android/binder_to_string.h",
   "underlying_type" : "_ZTIj"
  },
  {
   "alignment" : 4,
   "enum_fields" :
   [
    {
     "enum_field_value" : 0,
     "name" : "android::internal::details::ToEmptyString<aidl::android::hardware::radio::network::BarringTypeSpecificInfo>::value"
    }
   ],
   "linker_set_key" : "_ZTIN7android8internal7details13ToEmptyStringIN4aidl7android8hardware5radio7network23BarringTypeSpecificInfoEE6$valueE",
   "name" : "android::internal::details::ToEmptyString<aidl::android::hardware::radio::network::BarringTypeSpecificInfo>::(unnamed enum at frameworks/native/libs/binder/ndk/include_cpp/android/binder_to_string.h:153:5)",
   "referenced_type" : "_ZTIN7android8internal7details13ToEmptyStringIN4aidl7android8hardware5radio7network23BarringTypeSpecificInfoEE6$valueE",
   "self_type" : "_ZTIN7android8internal7details13ToEmptyStringIN4aidl7android8hardware5radio7network23BarringTypeSpecificInfoEE6$valueE",
   "size" : 4,
   "source_file" : "frameworks/native/libs/binder/ndk/include_cpp/android/binder_to_string.h",
   "underlying_type" : "_ZTIj"
  },
  {
   "alignment" : 4,
   "enum_fields" :
   [
    {
     "enum_field_value" : 0,
     "name" : "android::internal::details::ToEmptyString<aidl::android::hardware::radio::network::CellInfoRatSpecificInfo>::value"
    }
   ],
   "linker_set_key" : "_ZTIN7android8internal7details13ToEmptyStringIN4aidl7android8hardware5radio7network23CellInfoRatSpecificInfoEE6$valueE",
   "name" : "android::internal::details::ToEmptyString<aidl::android::hardware::radio::network::CellInfoRatSpecificInfo>::(unnamed enum at frameworks/native/libs/binder/ndk/include_cpp/android/binder_to_string.h:153:5)",
   "referenced_type" : "_ZTIN7android8internal7details13ToEmptyStringIN4aidl7android8hardware5radio7network23CellInfoRatSpecificInfoEE6$valueE",
   "self_type" : "_ZTIN7android8internal7details13ToEmptyStringIN4aidl7android8hardware5radio7network23CellInfoRatSpecificInfoEE6$valueE",
   "size" : 4,
   "source_file" : "frameworks/native/libs/binder/ndk/include_cpp/android/binder_to_string.h",
   "underlying_type" : "_ZTIj"
  },
  {
   "alignment" : 4,
   "enum_fields" :
   [
    {
     "enum_field_value" : 0,
     "name" : "android::internal::details::ToEmptyString<aidl::android::hardware::radio::network::Cdma2000RegistrationInfo>::value"
    }
   ],
   "linker_set_key" : "_ZTIN7android8internal7details13ToEmptyStringIN4aidl7android8hardware5radio7network24Cdma2000RegistrationInfoEE6$valueE",
   "name" : "android::internal::details::ToEmptyString<aidl::android::hardware::radio::network::Cdma2000RegistrationInfo>::(unnamed enum at frameworks/native/libs/binder/ndk/include_cpp/android/binder_to_string.h:153:5)",
   "referenced_type" : "_ZTIN7android8internal7details13ToEmptyStringIN4aidl7android8hardware5radio7network24Cdma2000RegistrationInfoEE6$valueE",
   "self_type" : "_ZTIN7android8internal7details13ToEmptyStringIN4aidl7android8hardware5radio7network24Cdma2000RegistrationInfoEE6$valueE",
   "size" : 4,
   "source_file" : "frameworks/native/libs/binder/ndk/include_cpp/android/binder_to_string.h",
   "underlying_type" : "_ZTIj"
  },
  {
   "alignment" : 4,
   "enum_fields" :
   [
    {
     "enum_field_value" : 0,
     "name" : "android::internal::details::ToEmptyString<aidl::android::hardware::radio::network::ClosedSubscriberGroupInfo>::value"
    }
   ],
   "linker_set_key" : "_ZTIN7android8internal7details13ToEmptyStringIN4aidl7android8hardware5radio7network25ClosedSubscriberGroupInfoEE6$valueE",
   "name" : "android::internal::details::ToEmptyString<aidl::android::hardware::radio::network::ClosedSubscriberGroupInfo>::(unnamed enum at frameworks/native/libs/binder/ndk/include_cpp/android/binder_to_string.h:153:5)",
   "referenced_type" : "_ZTIN7android8internal7details13ToEmptyStringIN4aidl7android8hardware5radio7network25ClosedSubscriberGroupInfoEE6$valueE",
   "self_type" : "_ZTIN7android8internal7details13ToEmptyStringIN4aidl7android8hardware5radio7network25ClosedSubscriberGroupInfoEE6$valueE",
   "size" : 4,
   "source_file" : "frameworks/native/libs/binder/ndk/include_cpp/android/binder_to_string.h",
   "underlying_type" : "_ZTIj"
  },
  {
   "alignment" : 4,
   "enum_fields" :
   [
    {
     "enum_field_value" : 0,
     "name" : "android::internal::details::ToEmptyString<aidl::android::hardware::radio::network::PhysicalChannelConfigBand>::value"
    }
   ],
   "linker_set_key" : "_ZTIN7android8internal7details13ToEmptyStringIN4aidl7android8hardware5radio7network25PhysicalChannelConfigBandEE6$valueE",
   "name" : "android::internal::details::ToEmptyString<aidl::android::hardware::radio::network::PhysicalChannelConfigBand>::(unnamed enum at frameworks/native/libs/binder/ndk/include_cpp/android/binder_to_string.h:153:5)",
   "referenced_type" : "_ZTIN7android8internal7details13ToEmptyStringIN4aidl7android8hardware5radio7network25PhysicalChannelConfigBandEE6$valueE",
   "self_type" : "_ZTIN7android8internal7details13ToEmptyStringIN4aidl7android8hardware5radio7network25PhysicalChannelConfigBandEE6$valueE",
   "size" : 4,
   "source_file" : "frameworks/native/libs/binder/ndk/include_cpp/android/binder_to_string.h",
   "underlying_type" : "_ZTIj"
  },
  {
   "alignment" : 4,
   "enum_fields" :
   [
    {
     "enum_field_value" : 0,
     "name" : "android::internal::details::ToEmptyString<aidl::android::hardware::radio::network::RadioAccessSpecifierBands>::value"
    }
   ],
   "linker_set_key" : "_ZTIN7android8internal7details13ToEmptyStringIN4aidl7android8hardware5radio7network25RadioAccessSpecifierBandsEE6$valueE",
   "name" : "android::internal::details::ToEmptyString<aidl::android::hardware::radio::network::RadioAccessSpecifierBands>::(unnamed enum at frameworks/native/libs/binder/ndk/include_cpp/android/binder_to_string.h:153:5)",
   "referenced_type" : "_ZTIN7android8internal7details13ToEmptyStringIN4aidl7android8hardware5radio7network25RadioAccessSpecifierBandsEE6$valueE",
   "self_type" : "_ZTIN7android8internal7details13ToEmptyStringIN4aidl7android8hardware5radio7network25RadioAccessSpecifierBandsEE6$valueE",
   "size" : 4,
   "source_file" : "frameworks/native/libs/binder/ndk/include_cpp/android/binder_to_string.h",
   "underlying_type" : "_ZTIj"
  },
  {
   "alignment" : 4,
   "enum_fields" :
   [
    {
     "enum_field_value" : 0,
     "name" : "android::internal::details::ToEmptyString<aidl::android::hardware::radio::network::AccessTechnologySpecificInfo>::value"
    }
   ],
   "linker_set_key" : "_ZTIN7android8internal7details13ToEmptyStringIN4aidl7android8hardware5radio7network28AccessTechnologySpecificInfoEE6$valueE",
   "name" : "android::internal::details::ToEmptyString<aidl::android::hardware::radio::network::AccessTechnologySpecificInfo>::(unnamed enum at frameworks/native/libs/binder/ndk/include_cpp/android/binder_to_string.h:153:5)",
   "referenced_type" : "_ZTIN7android8internal7details13ToEmptyStringIN4aidl7android8hardware5radio7network28AccessTechnologySpecificInfoEE6$valueE",
   "self_type" : "_ZTIN7android8internal7details13ToEmptyStringIN4aidl7android8hardware5radio7network28AccessTechnologySpecificInfoEE6$valueE",
   "size" : 4,
   "source_file" : "frameworks/native/libs/binder/ndk/include_cpp/android/binder_to_string.h",
   "underlying_type" : "_ZTIj"
  },
  {
   "alignment" : 4,
   "enum_fields" :
   [
    {
     "enum_field_value" : 0,
     "name" : "android::internal::details::ToEmptyString<aidl::android::hardware::radio::network::CellInfo>::value"
    }
   ],
   "linker_set_key" : "_ZTIN7android8internal7details13ToEmptyStringIN4aidl7android8hardware5radio7network8CellInfoEE6$valueE",
   "name" : "android::internal::details::ToEmptyString<aidl::android::hardware::radio::network::CellInfo>::(unnamed enum at frameworks/native/libs/binder/ndk/include_cpp/android/binder_to_string.h:153:5)",
   "referenced_type" : "_ZTIN7android8internal7details13ToEmptyStringIN4aidl7android8hardware5radio7network8CellInfoEE6$valueE",
   "self_type" : "_ZTIN7android8internal7details13ToEmptyStringIN4aidl7android8hardware5radio7network8CellInfoEE6$valueE",
   "size" : 4,
   "source_file" : "frameworks/native/libs/binder/ndk/include_cpp/android/binder_to_string.h",
   "underlying_type" : "_ZTIj"
  },
  {
   "alignment" : 4,
   "enum_fields" :
   [
    {
     "enum_field_value" : 0,
     "name" : "android::internal::details::ToEmptyString<aidl::android::hardware::radio::network::RegState>::value"
    }
   ],
   "linker_set_key" : "_ZTIN7android8internal7details13ToEmptyStringIN4aidl7android8hardware5radio7network8RegStateEE6$valueE",
   "name" : "android::internal::details::ToEmptyString<aidl::android::hardware::radio::network::RegState>::(unnamed enum at frameworks/native/libs/binder/ndk/include_cpp/android/binder_to_string.h:153:5)",
   "referenced_type" : "_ZTIN7android8internal7details13ToEmptyStringIN4aidl7android8hardware5radio7network8RegStateEE6$valueE",
   "self_type" : "_ZTIN7android8internal7details13ToEmptyStringIN4aidl7android8hardware5radio7network8RegStateEE6$valueE",
   "size" : 4,
   "source_file" : "frameworks/native/libs/binder/ndk/include_cpp/android/binder_to_string.h",
   "underlying_type" : "_ZTIj"
  },
  {
   "alignment" : 4,
   "enum_fields" :
   [
    {
     "enum_field_value" : 0,
     "name" : "android::internal::details::ToEmptyString<std::basic_string<char>>::value"
    }
   ],
   "linker_set_key" : "_ZTIN7android8internal7details13ToEmptyStringINSt3__112basic_stringIcNS3_11char_traitsIcEENS3_9allocatorIcEEEEE6$valueE",
   "name" : "android::internal::details::ToEmptyString<std::basic_string<char, std::char_traits<char>, std::allocator<char>>>::(unnamed enum at frameworks/native/libs/binder/ndk/include_cpp/android/binder_to_string.h:153:5)",
   "referenced_type" : "_ZTIN7android8internal7details13ToEmptyStringINSt3__112basic_stringIcNS3_11char_traitsIcEENS3_9allocatorIcEEEEE6$valueE",
   "self_type" : "_ZTIN7android8internal7details13ToEmptyStringINSt3__112basic_stringIcNS3_11char_traitsIcEENS3_9allocatorIcEEEEE6$valueE",
   "size" : 4,
   "source_file" : "frameworks/native/libs/binder/ndk/include_cpp/android/binder_to_string.h",
   "underlying_type" : "_ZTIj"
  },
  {
   "alignment" : 4,
   "enum_fields" :
   [
    {
     "enum_field_value" : 0,
     "name" : "android::internal::details::ToEmptyString<std::vector<aidl::android::hardware::radio::network::GeranBands>>::value"
    }
   ],
   "linker_set_key" : "_ZTIN7android8internal7details13ToEmptyStringINSt3__16vectorIN4aidl7android8hardware5radio7network10GeranBandsENS3_9allocatorISA_EEEEE6$valueE",
   "name" : "android::internal::details::ToEmptyString<std::vector<aidl::android::hardware::radio::network::GeranBands, std::allocator<aidl::android::hardware::radio::network::GeranBands>>>::(unnamed enum at frameworks/native/libs/binder/ndk/include_cpp/android/binder_to_string.h:153:5)",
   "referenced_type" : "_ZTIN7android8internal7details13ToEmptyStringINSt3__16vectorIN4aidl7android8hardware5radio7network10GeranBandsENS3_9allocatorISA_EEEEE6$valueE",
   "self_type" : "_ZTIN7android8internal7details13ToEmptyStringINSt3__16vectorIN4aidl7android8hardware5radio7network10GeranBandsENS3_9allocatorISA_EEEEE6$valueE",
   "size" : 4,
   "source_file" : "frameworks/native/libs/binder/ndk/include_cpp/android/binder_to_string.h",
   "underlying_type" : "_ZTIj"
  },
  {
   "alignment" : 4,
   "enum_fields" :
   [
    {
     "enum_field_value" : 0,
     "name" : "android::internal::details::ToEmptyString<std::vector<aidl::android::hardware::radio::network::NgranBands>>::value"
    }
   ],
   "linker_set_key" : "_ZTIN7android8internal7details13ToEmptyStringINSt3__16vectorIN4aidl7android8hardware5radio7network10NgranBandsENS3_9allocatorISA_EEEEE6$valueE",
   "name" : "android::internal::details::ToEmptyString<std::vector<aidl::android::hardware::radio::network::NgranBands, std::allocator<aidl::android::hardware::radio::network::NgranBands>>>::(unnamed enum at frameworks/native/libs/binder/ndk/include_cpp/android/binder_to_string.h:153:5)",
   "referenced_type" : "_ZTIN7android8internal7details13ToEmptyStringINSt3__16vectorIN4aidl7android8hardware5radio7network10NgranBandsENS3_9allocatorISA_EEEEE6$valueE",
   "self_type" : "_ZTIN7android8internal7details13ToEmptyStringINSt3__16vectorIN4aidl7android8hardware5radio7network10NgranBandsENS3_9allocatorISA_EEEEE6$valueE",
   "size" : 4,
   "source_file" : "frameworks/native/libs/binder/ndk/include_cpp/android/binder_to_string.h",
   "underlying_type" : "_ZTIj"
  },
  {
   "alignment" : 4,
   "enum_fields" :
   [
    {
     "enum_field_value" : 0,
     "name" : "android::internal::details::ToEmptyString<std::vector<aidl::android::hardware::radio::network::UtranBands>>::value"
    }
   ],
   "linker_set_key" : "_ZTIN7android8internal7details13ToEmptyStringINSt3__16vectorIN4aidl7android8hardware5radio7network10UtranBandsENS3_9allocatorISA_EEEEE6$valueE",
   "name" : "android::internal::details::ToEmptyString<std::vector<aidl::android::hardware::radio::network::UtranBands, std::allocator<aidl::android::hardware::radio::network::UtranBands>>>::(unnamed enum at frameworks/native/libs/binder/ndk/include_cpp/android/binder_to_string.h:153:5)",
   "referenced_type" : "_ZTIN7android8internal7details13ToEmptyStringINSt3__16vectorIN4aidl7android8hardware5radio7network10UtranBandsENS3_9allocatorISA_EEEEE6$valueE",
   "self_type" : "_ZTIN7android8internal7details13ToEmptyStringINSt3__16vectorIN4aidl7android8hardware5radio7network10UtranBandsENS3_9allocatorISA_EEEEE6$valueE",
   "size" : 4,
   "source_file" : "frameworks/native/libs/binder/ndk/include_cpp/android/binder_to_string.h",
   "underlying_type" : "_ZTIj"
  },
  {
   "alignment" : 4,
   "enum_fields" :
   [
    {
     "enum_field_value" : 0,
     "name" : "android::internal::details::ToEmptyString<std::vector<aidl::android::hardware::radio::network::EutranBands>>::value"
    }
   ],
   "linker_set_key" : "_ZTIN7android8internal7details13ToEmptyStringINSt3__16vectorIN4aidl7android8hardware5radio7network11EutranBandsENS3_9allocatorISA_EEEEE6$valueE",
   "name" : "android::internal::details::ToEmptyString<std::vector<aidl::android::hardware::radio::network::EutranBands, std::allocator<aidl::android::hardware::radio::network::EutranBands>>>::(unnamed enum at frameworks/native/libs/binder/ndk/include_cpp/android/binder_to_string.h:153:5)",
   "referenced_type" : "_ZTIN7android8internal7details13ToEmptyStringINSt3__16vectorIN4aidl7android8hardware5radio7network11EutranBandsENS3_9allocatorISA_EEEEE6$valueE",
   "self_type" : "_ZTIN7android8internal7details13ToEmptyStringINSt3__16vectorIN4aidl7android8hardware5radio7network11EutranBandsENS3_9allocatorISA_EEEEE6$valueE",
   "size" : 4,
   "source_file" : "frameworks/native/libs/binder/ndk/include_cpp/android/binder_to_string.h",
   "underlying_type" : "_ZTIj"
  },
  {
   "alignment" : 4,
   "enum_fields" :
   [
    {
     "enum_field_value" : 0,
     "name" : "android::internal::details::ToEmptyString<std::vector<aidl::android::hardware::radio::network::RadioAccessSpecifier>>::value"
    }
   ],
   "linker_set_key" : "_ZTIN7android8internal7details13ToEmptyStringINSt3__16vectorIN4aidl7android8hardware5radio7network20RadioAccessSpecifierENS3_9allocatorISA_EEEEE6$valueE",
   "name" : "android::internal::details::ToEmptyString<std::vector<aidl::android::hardware::radio::network::RadioAccessSpecifier, std::allocator<aidl::android::hardware::radio::network::RadioAccessSpecifier>>>::(unnamed enum at frameworks/native/libs/binder/ndk/include_cpp/android/binder_to_string.h:153:5)",
   "referenced_type" : "_ZTIN7android8internal7details13ToEmptyStringINSt3__16vectorIN4aidl7android8hardware5radio7network20RadioAccessSpecifierENS3_9allocatorISA_EEEEE6$valueE",
   "self_type" : "_ZTIN7android8internal7details13ToEmptyStringINSt3__16vectorIN4aidl7android8hardware5radio7network20RadioAccessSpecifierENS3_9allocatorISA_EEEEE6$valueE",
   "size" : 4,
   "source_file" : "frameworks/native/libs/binder/ndk/include_cpp/android/binder_to_string.h",
   "underlying_type" : "_ZTIj"
  },
  {
   "alignment" : 4,
   "enum_fields" :
   [
    {
     "enum_field_value" : 0,
     "name" : "android::internal::details::ToEmptyString<std::vector<aidl::android::hardware::radio::network::CellInfo>>::value"
    }
   ],
   "linker_set_key" : "_ZTIN7android8internal7details13ToEmptyStringINSt3__16vectorIN4aidl7android8hardware5radio7network8CellInfoENS3_9allocatorISA_EEEEE6$valueE",
   "name" : "android::internal::details::ToEmptyString<std::vector<aidl::android::hardware::radio::network::CellInfo, std::allocator<aidl::android::hardware::radio::network::CellInfo>>>::(unnamed enum at frameworks/native/libs/binder/ndk/include_cpp/android/binder_to_string.h:153:5)",
   "referenced_type" : "_ZTIN7android8internal7details13ToEmptyStringINSt3__16vectorIN4aidl7android8hardware5radio7network8CellInfoENS3_9allocatorISA_EEEEE6$valueE",
   "self_type" : "_ZTIN7android8internal7details13ToEmptyStringINSt3__16vectorIN4aidl7android8hardware5radio7network8CellInfoENS3_9allocatorISA_EEEEE6$valueE",
   "size" : 4,
   "source_file" : "frameworks/native/libs/binder/ndk/include_cpp/android/binder_to_string.h",
   "underlying_type" : "_ZTIj"
  },
  {
   "alignment" : 4,
   "enum_fields" :
   [
    {
     "enum_field_value" : 0,
     "name" : "android::internal::details::ToEmptyString<std::vector<std::basic_string<char>>>::value"
    }
   ],
   "linker_set_key" : "_ZTIN7android8internal7details13ToEmptyStringINSt3__16vectorINS3_12basic_stringIcNS3_11char_traitsIcEENS3_9allocatorIcEEEENS8_ISA_EEEEE6$valueE",
   "name" : "android::internal::details::ToEmptyString<std::vector<std::basic_string<char, std::char_traits<char>, std::allocator<char>>, std::allocator<std::basic_string<char, std::char_traits<char>, std::allocator<char>>>>>::(unnamed enum at frameworks/native/libs/binder/ndk/include_cpp/android/binder_to_string.h:153:5)",
   "referenced_type" : "_ZTIN7android8internal7details13ToEmptyStringINSt3__16vectorINS3_12basic_stringIcNS3_11char_traitsIcEENS3_9allocatorIcEEEENS8_ISA_EEEEE6$valueE",
   "self_type" : "_ZTIN7android8internal7details13ToEmptyStringINSt3__16vectorINS3_12basic_stringIcNS3_11char_traitsIcEENS3_9allocatorIcEEEENS8_ISA_EEEEE6$valueE",
   "size" : 4,
   "source_file" : "frameworks/native/libs/binder/ndk/include_cpp/android/binder_to_string.h",
   "underlying_type" : "_ZTIj"
  },
  {
   "alignment" : 4,
   "enum_fields" :
   [
    {
     "enum_field_value" : 0,
     "name" : "android::internal::details::ToEmptyString<std::vector<unsigned char>>::value"
    }
   ],
   "linker_set_key" : "_ZTIN7android8internal7details13ToEmptyStringINSt3__16vectorIhNS3_9allocatorIhEEEEE6$valueE",
   "name" : "android::internal::details::ToEmptyString<std::vector<unsigned char, std::allocator<unsigned char>>>::(unnamed enum at frameworks/native/libs/binder/ndk/include_cpp/android/binder_to_string.h:153:5)",
   "referenced_type" : "_ZTIN7android8internal7details13ToEmptyStringINSt3__16vectorIhNS3_9allocatorIhEEEEE6$valueE",
   "self_type" : "_ZTIN7android8internal7details13ToEmptyStringINSt3__16vectorIhNS3_9allocatorIhEEEEE6$valueE",
   "size" : 4,
   "source_file" : "frameworks/native/libs/binder/ndk/include_cpp/android/binder_to_string.h",
   "underlying_type" : "_ZTIj"
  },
  {
   "alignment" : 4,
   "enum_fields" :
   [
    {
     "enum_field_value" : 0,
     "name" : "android::internal::details::ToEmptyString<std::vector<int>>::value"
    }
   ],
   "linker_set_key" : "_ZTIN7android8internal7details13ToEmptyStringINSt3__16vectorIiNS3_9allocatorIiEEEEE6$valueE",
   "name" : "android::internal::details::ToEmptyString<std::vector<int, std::allocator<int>>>::(unnamed enum at frameworks/native/libs/binder/ndk/include_cpp/android/binder_to_string.h:153:5)",
   "referenced_type" : "_ZTIN7android8internal7details13ToEmptyStringINSt3__16vectorIiNS3_9allocatorIiEEEEE6$valueE",
   "self_type" : "_ZTIN7android8internal7details13ToEmptyStringINSt3__16vectorIiNS3_9allocatorIiEEEEE6$valueE",
   "size" : 4,
   "source_file" : "frameworks/native/libs/binder/ndk/include_cpp/android/binder_to_string.h",
   "underlying_type" : "_ZTIj"
  },
  {
   "alignment" : 4,
   "enum_fields" :
   [
    {
     "enum_field_value" : 0,
     "name" : "android::internal::details::ToEmptyString<std::optional<aidl::android::hardware::radio::network::BarringTypeSpecificInfo>>::value"
    }
   ],
   "linker_set_key" : "_ZTIN7android8internal7details13ToEmptyStringINSt3__18optionalIN4aidl7android8hardware5radio7network23BarringTypeSpecificInfoEEEE6$valueE",
   "name" : "android::internal::details::ToEmptyString<std::optional<aidl::android::hardware::radio::network::BarringTypeSpecificInfo>>::(unnamed enum at frameworks/native/libs/binder/ndk/include_cpp/android/binder_to_string.h:153:5)",
   "referenced_type" : "_ZTIN7android8internal7details13ToEmptyStringINSt3__18optionalIN4aidl7android8hardware5radio7network23BarringTypeSpecificInfoEEEE6$valueE",
   "self_type" : "_ZTIN7android8internal7details13ToEmptyStringINSt3__18optionalIN4aidl7android8hardware5radio7network23BarringTypeSpecificInfoEEEE6$valueE",
   "size" : 4,
   "source_file" : "frameworks/native/libs/binder/ndk/include_cpp/android/binder_to_string.h",
   "underlying_type" : "_ZTIj"
  },
  {
   "alignment" : 4,
   "enum_fields" :
   [
    {
     "enum_field_value" : 0,
     "name" : "android::internal::details::ToEmptyString<std::optional<aidl::android::hardware::radio::network::ClosedSubscriberGroupInfo>>::value"
    }
   ],
   "linker_set_key" : "_ZTIN7android8internal7details13ToEmptyStringINSt3__18optionalIN4aidl7android8hardware5radio7network25ClosedSubscriberGroupInfoEEEE6$valueE",
   "name" : "android::internal::details::ToEmptyString<std::optional<aidl::android::hardware::radio::network::ClosedSubscriberGroupInfo>>::(unnamed enum at frameworks/native/libs/binder/ndk/include_cpp/android/binder_to_string.h:153:5)",
   "referenced_type" : "_ZTIN7android8internal7details13ToEmptyStringINSt3__18optionalIN4aidl7android8hardware5radio7network25ClosedSubscriberGroupInfoEEEE6$valueE",
   "self_type" : "_ZTIN7android8internal7details13ToEmptyStringINSt3__18optionalIN4aidl7android8hardware5radio7network25ClosedSubscriberGroupInfoEEEE6$valueE",
   "size" : 4,
   "source_file" : "frameworks/native/libs/binder/ndk/include_cpp/android/binder_to_string.h",
   "underlying_type" : "_ZTIj"
  },
  {
   "alignment" : 4,
   "enum_fields" :
   [
    {
     "enum_field_value" : 0,
     "name" : "android::internal::details::ToEmptyString<signed char>::value"
    }
   ],
   "linker_set_key" : "_ZTIN7android8internal7details13ToEmptyStringIaE6$valueE",
   "name" : "android::internal::details::ToEmptyString<signed char>::(unnamed enum at frameworks/native/libs/binder/ndk/include_cpp/android/binder_to_string.h:153:5)",
   "referenced_type" : "_ZTIN7android8internal7details13ToEmptyStringIaE6$valueE",
   "self_type" : "_ZTIN7android8internal7details13ToEmptyStringIaE6$valueE",
   "size" : 4,
   "source_file" : "frameworks/native/libs/binder/ndk/include_cpp/android/binder_to_string.h",
   "underlying_type" : "_ZTIj"
  },
  {
   "alignment" : 4,
   "enum_fields" :
   [
    {
     "enum_field_value" : 0,
     "name" : "android::internal::details::ToEmptyString<bool>::value"
    }
   ],
   "linker_set_key" : "_ZTIN7android8internal7details13ToEmptyStringIbE6$valueE",
   "name" : "android::internal::details::ToEmptyString<bool>::(unnamed enum at frameworks/native/libs/binder/ndk/include_cpp/android/binder_to_string.h:153:5)",
   "referenced_type" : "_ZTIN7android8internal7details13ToEmptyStringIbE6$valueE",
   "self_type" : "_ZTIN7android8internal7details13ToEmptyStringIbE6$valueE",
   "size" : 4,
   "source_file" : "frameworks/native/libs/binder/ndk/include_cpp/android/binder_to_string.h",
   "underlying_type" : "_ZTIj"
  },
  {
   "alignment" : 4,
   "enum_fields" :
   [
    {
     "enum_field_value" : 0,
     "name" : "android::internal::details::ToEmptyString<unsigned char>::value"
    }
   ],
   "linker_set_key" : "_ZTIN7android8internal7details13ToEmptyStringIhE6$valueE",
   "name" : "android::internal::details::ToEmptyString<unsigned char>::(unnamed enum at frameworks/native/libs/binder/ndk/include_cpp/android/binder_to_string.h:153:5)",
   "referenced_type" : "_ZTIN7android8internal7details13ToEmptyStringIhE6$valueE",
   "self_type" : "_ZTIN7android8internal7details13ToEmptyStringIhE6$valueE",
   "size" : 4,
   "source_file" : "frameworks/native/libs/binder/ndk/include_cpp/android/binder_to_string.h",
   "underlying_type" : "_ZTIj"
  },
  {
   "alignment" : 4,
   "enum_fields" :
   [
    {
     "enum_field_value" : 0,
     "name" : "android::internal::details::ToEmptyString<int>::value"
    }
   ],
   "linker_set_key" : "_ZTIN7android8internal7details13ToEmptyStringIiE6$valueE",
   "name" : "android::internal::details::ToEmptyString<int>::(unnamed enum at frameworks/native/libs/binder/ndk/include_cpp/android/binder_to_string.h:153:5)",
   "referenced_type" : "_ZTIN7android8internal7details13ToEmptyStringIiE6$valueE",
   "self_type" : "_ZTIN7android8internal7details13ToEmptyStringIiE6$valueE",
   "size" : 4,
   "source_file" : "frameworks/native/libs/binder/ndk/include_cpp/android/binder_to_string.h",
   "underlying_type" : "_ZTIj"
  },
  {
   "alignment" : 4,
   "enum_fields" :
   [
    {
     "enum_field_value" : 0,
     "name" : "android::internal::details::ToEmptyString<long long>::value"
    }
   ],
   "linker_set_key" : "_ZTIN7android8internal7details13ToEmptyStringIxE6$valueE",
   "name" : "android::internal::details::ToEmptyString<long long>::(unnamed enum at frameworks/native/libs/binder/ndk/include_cpp/android/binder_to_string.h:153:5)",
   "referenced_type" : "_ZTIN7android8internal7details13ToEmptyStringIxE6$valueE",
   "self_type" : "_ZTIN7android8internal7details13ToEmptyStringIxE6$valueE",
   "size" : 4,
   "source_file" : "frameworks/native/libs/binder/ndk/include_cpp/android/binder_to_string.h",
   "underlying_type" : "_ZTIj"
  },
  {
   "alignment" : 4,
   "enum_fields" :
   [
    {
     "enum_field_value" : 0,
     "name" : "android::internal::details::HasToStringMethod<aidl::android::hardware::radio::RadioError>::value"
    }
   ],
   "linker_set_key" : "_ZTIN7android8internal7details17HasToStringMethodIN4aidl7android8hardware5radio10RadioErrorEE6$valueE",
   "name" : "android::internal::details::HasToStringMethod<aidl::android::hardware::radio::RadioError>::(unnamed enum at frameworks/native/libs/binder/ndk/include_cpp/android/binder_to_string.h:77:5)",
   "referenced_type" : "_ZTIN7android8internal7details17HasToStringMethodIN4aidl7android8hardware5radio10RadioErrorEE6$valueE",
   "self_type" : "_ZTIN7android8internal7details17HasToStringMethodIN4aidl7android8hardware5radio10RadioErrorEE6$valueE",
   "size" : 4,
   "source_file" : "frameworks/native/libs/binder/ndk/include_cpp/android/binder_to_string.h",
   "underlying_type" : "_ZTIj"
  },
  {
   "alignment" : 4,
   "enum_fields" :
   [
    {
     "enum_field_value" : 0,
     "name" : "android::internal::details::HasToStringMethod<aidl::android::hardware::radio::AccessNetwork>::value"
    }
   ],
   "linker_set_key" : "_ZTIN7android8internal7details17HasToStringMethodIN4aidl7android8hardware5radio13AccessNetworkEE6$valueE",
   "name" : "android::internal::details::HasToStringMethod<aidl::android::hardware::radio::AccessNetwork>::(unnamed enum at frameworks/native/libs/binder/ndk/include_cpp/android/binder_to_string.h:77:5)",
   "referenced_type" : "_ZTIN7android8internal7details17HasToStringMethodIN4aidl7android8hardware5radio13AccessNetworkEE6$valueE",
   "self_type" : "_ZTIN7android8internal7details17HasToStringMethodIN4aidl7android8hardware5radio13AccessNetworkEE6$valueE",
   "size" : 4,
   "source_file" : "frameworks/native/libs/binder/ndk/include_cpp/android/binder_to_string.h",
   "underlying_type" : "_ZTIj"
  },
  {
   "alignment" : 4,
   "enum_fields" :
   [
    {
     "enum_field_value" : 0,
     "name" : "android::internal::details::HasToStringMethod<aidl::android::hardware::radio::RadioTechnology>::value"
    }
   ],
   "linker_set_key" : "_ZTIN7android8internal7details17HasToStringMethodIN4aidl7android8hardware5radio15RadioTechnologyEE6$valueE",
   "name" : "android::internal::details::HasToStringMethod<aidl::android::hardware::radio::RadioTechnology>::(unnamed enum at frameworks/native/libs/binder/ndk/include_cpp/android/binder_to_string.h:77:5)",
   "referenced_type" : "_ZTIN7android8internal7details17HasToStringMethodIN4aidl7android8hardware5radio15RadioTechnologyEE6$valueE",
   "self_type" : "_ZTIN7android8internal7details17HasToStringMethodIN4aidl7android8hardware5radio15RadioTechnologyEE6$valueE",
   "size" : 4,
   "source_file" : "frameworks/native/libs/binder/ndk/include_cpp/android/binder_to_string.h",
   "underlying_type" : "_ZTIj"
  },
  {
   "alignment" : 4,
   "enum_fields" :
   [
    {
     "enum_field_value" : 0,
     "name" : "android::internal::details::HasToStringMethod<aidl::android::hardware::radio::RadioResponseType>::value"
    }
   ],
   "linker_set_key" : "_ZTIN7android8internal7details17HasToStringMethodIN4aidl7android8hardware5radio17RadioResponseTypeEE6$valueE",
   "name" : "android::internal::details::HasToStringMethod<aidl::android::hardware::radio::RadioResponseType>::(unnamed enum at frameworks/native/libs/binder/ndk/include_cpp/android/binder_to_string.h:77:5)",
   "referenced_type" : "_ZTIN7android8internal7details17HasToStringMethodIN4aidl7android8hardware5radio17RadioResponseTypeEE6$valueE",
   "self_type" : "_ZTIN7android8internal7details17HasToStringMethodIN4aidl7android8hardware5radio17RadioResponseTypeEE6$valueE",
   "size" : 4,
   "source_file" : "frameworks/native/libs/binder/ndk/include_cpp/android/binder_to_string.h",
   "underlying_type" : "_ZTIj"
  },
  {
   "alignment" : 4,
   "enum_fields" :
   [
    {
     "enum_field_value" : 1,
     "name" : "android::internal::details::HasToStringMethod<aidl::android::hardware::radio::network::CellInfoNr>::value"
    }
   ],
   "linker_set_key" : "_ZTIN7android8internal7details17HasToStringMethodIN4aidl7android8hardware5radio7network10CellInfoNrEE6$valueE",
   "name" : "android::internal::details::HasToStringMethod<aidl::android::hardware::radio::network::CellInfoNr>::(unnamed enum at frameworks/native/libs/binder/ndk/include_cpp/android/binder_to_string.h:77:5)",
   "referenced_type" : "_ZTIN7android8internal7details17HasToStringMethodIN4aidl7android8hardware5radio7network10CellInfoNrEE6$valueE",
   "self_type" : "_ZTIN7android8internal7details17HasToStringMethodIN4aidl7android8hardware5radio7network10CellInfoNrEE6$valueE",
   "size" : 4,
   "source_file" : "frameworks/native/libs/binder/ndk/include_cpp/android/binder_to_string.h",
   "underlying_type" : "_ZTIj"
  },
  {
   "alignment" : 4,
   "enum_fields" :
   [
    {
     "enum_field_value" : 0,
     "name" : "android::internal::details::HasToStringMethod<aidl::android::hardware::radio::network::GeranBands>::value"
    }
   ],
   "linker_set_key" : "_ZTIN7android8internal7details17HasToStringMethodIN4aidl7android8hardware5radio7network10GeranBandsEE6$valueE",
   "name" : "android::internal::details::HasToStringMethod<aidl::android::hardware::radio::network::GeranBands>::(unnamed enum at frameworks/native/libs/binder/ndk/include_cpp/android/binder_to_string.h:77:5)",
   "referenced_type" : "_ZTIN7android8internal7details17HasToStringMethodIN4aidl7android8hardware5radio7network10GeranBandsEE6$valueE",
   "self_type" : "_ZTIN7android8internal7details17HasToStringMethodIN4aidl7android8hardware5radio7network10GeranBandsEE6$valueE",
   "size" : 4,
   "source_file" : "frameworks/native/libs/binder/ndk/include_cpp/android/binder_to_string.h",
   "underlying_type" : "_ZTIj"
  },
  {
   "alignment" : 4,
   "enum_fields" :
   [
    {
     "enum_field_value" : 0,
     "name" : "android::internal::details::HasToStringMethod<aidl::android::hardware::radio::network::NgranBands>::value"
    }
   ],
   "linker_set_key" : "_ZTIN7android8internal7details17HasToStringMethodIN4aidl7android8hardware5radio7network10NgranBandsEE6$valueE",
   "name" : "android::internal::details::HasToStringMethod<aidl::android::hardware::radio::network::NgranBands>::(unnamed enum at frameworks/native/libs/binder/ndk/include_cpp/android/binder_to_string.h:77:5)",
   "referenced_type" : "_ZTIN7android8internal7details17HasToStringMethodIN4aidl7android8hardware5radio7network10NgranBandsEE6$valueE",
   "self_type" : "_ZTIN7android8internal7details17HasToStringMethodIN4aidl7android8hardware5radio7network10NgranBandsEE6$valueE",
   "size" : 4,
   "source_file" : "frameworks/native/libs/binder/ndk/include_cpp/android/binder_to_string.h",
   "underlying_type" : "_ZTIj"
  },
  {
   "alignment" : 4,
   "enum_fields" :
   [
    {
     "enum_field_value" : 1,
     "name" : "android::internal::details::HasToStringMethod<aidl::android::hardware::radio::network::NrVopsInfo>::value"
    }
   ],
   "linker_set_key" : "_ZTIN7android8internal7details17HasToStringMethodIN4aidl7android8hardware5radio7network10NrVopsInfoEE6$valueE",
   "name" : "android::internal::details::HasToStringMethod<aidl::android::hardware::radio::network::NrVopsInfo>::(unnamed enum at frameworks/native/libs/binder/ndk/include_cpp/android/binder_to_string.h:77:5)",
   "referenced_type" : "_ZTIN7android8internal7details17HasToStringMethodIN4aidl7android8hardware5radio7network10NrVopsInfoEE6$valueE",
   "self_type" : "_ZTIN7android8internal7details17HasToStringMethodIN4aidl7android8hardware5radio7network10NrVopsInfoEE6$valueE",
   "size" : 4,
   "source_file" : "frameworks/native/libs/binder/ndk/include_cpp/android/binder_to_string.h",
   "underlying_type" : "_ZTIj"
  },
  {
   "alignment" : 4,
   "enum_fields" :
   [
    {
     "enum_field_value" : 0,
     "name" : "android::internal::details::HasToStringMethod<aidl::android::hardware::radio::network::UtranBands>::value"
    }
   ],
   "linker_set_key" : "_ZTIN7android8internal7details17HasToStringMethodIN4aidl7android8hardware5radio7network10UtranBandsEE6$valueE",
   "name" : "android::internal::details::HasToStringMethod<aidl::android::hardware::radio::network::UtranBands>::(unnamed enum at frameworks/native/libs/binder/ndk/include_cpp/android/binder_to_string.h:77:5)",
   "referenced_type" : "_ZTIN7android8internal7details17HasToStringMethodIN4aidl7android8hardware5radio7network10UtranBandsEE6$valueE",
   "self_type" : "_ZTIN7android8internal7details17HasToStringMethodIN4aidl7android8hardware5radio7network10UtranBandsEE6$valueE",
   "size" : 4,
   "source_file" : "frameworks/native/libs/binder/ndk/include_cpp/android/binder_to_string.h",
   "underlying_type" : "_ZTIj"
  },
  {
   "alignment" : 4,
   "enum_fields" :
   [
    {
     "enum_field_value" : 1,
     "name" : "android::internal::details::HasToStringMethod<aidl::android::hardware::radio::network::CellInfoGsm>::value"
    }
   ],
   "linker_set_key" : "_ZTIN7android8internal7details17HasToStringMethodIN4aidl7android8hardware5radio7network11CellInfoGsmEE6$valueE",
   "name" : "android::internal::details::HasToStringMethod<aidl::android::hardware::radio::network::CellInfoGsm>::(unnamed enum at frameworks/native/libs/binder/ndk/include_cpp/android/binder_to_string.h:77:5)",
   "referenced_type" : "_ZTIN7android8internal7details17HasToStringMethodIN4aidl7android8hardware5radio7network11CellInfoGsmEE6$valueE",
   "self_type" : "_ZTIN7android8internal7details17HasToStringMethodIN4aidl7android8hardware5radio7network11CellInfoGsmEE6$valueE",
   "size" : 4,
   "source_file" : "frameworks/native/libs/binder/ndk/include_cpp/android/binder_to_string.h",
   "underlying_type" : "_ZTIj"
  },
  {
   "alignment" : 4,
   "enum_fields" :
   [
    {
     "enum_field_value" : 1,
     "name" : "android::internal::details::HasToStringMethod<aidl::android::hardware::radio::network::CellInfoLte>::value"
    }
   ],
   "linker_set_key" : "_ZTIN7android8internal7details17HasToStringMethodIN4aidl7android8hardware5radio7network11CellInfoLteEE6$valueE",
   "name" : "android::internal::details::HasToStringMethod<aidl::android::hardware::radio::network::CellInfoLte>::(unnamed enum at frameworks/native/libs/binder/ndk/include_cpp/android/binder_to_string.h:77:5)",
   "referenced_type" : "_ZTIN7android8internal7details17HasToStringMethodIN4aidl7android8hardware5radio7network11CellInfoLteEE6$valueE",
   "self_type" : "_ZTIN7android8internal7details17HasToStringMethodIN4aidl7android8hardware5radio7network11CellInfoLteEE6$valueE",
   "size" : 4,
   "source_file" : "frameworks/native/libs/binder/ndk/include_cpp/android/binder_to_string.h",
   "underlying_type" : "_ZTIj"
  },
  {
   "alignment" : 4,
   "enum_fields" :
   [
    {
     "enum_field_value" : 0,
     "name" : "android::internal::details::HasToStringMethod<aidl::android::hardware::radio::network::EutranBands>::value"
    }
   ],
   "linker_set_key" : "_ZTIN7android8internal7details17HasToStringMethodIN4aidl7android8hardware5radio7network11EutranBandsEE6$valueE",
   "name" : "android::internal::details::HasToStringMethod<aidl::android::hardware::radio::network::EutranBands>::(unnamed enum at frameworks/native/libs/binder/ndk/include_cpp/android/binder_to_string.h:77:5)",
   "referenced_type" : "_ZTIN7android8internal7details17HasToStringMethodIN4aidl7android8hardware5radio7network11EutranBandsEE6$valueE",
   "self_type" : "_ZTIN7android8internal7details17HasToStringMethodIN4aidl7android8hardware5radio7network11EutranBandsEE6$valueE",
   "size" : 4,
   "source_file" : "frameworks/native/libs/binder/ndk/include_cpp/android/binder_to_string.h",
   "underlying_type" : "_ZTIj"
  },
  {
   "alignment" : 4,
   "enum_fields" :
   [
    {
     "enum_field_value" : 1,
     "name" : "android::internal::details::HasToStringMethod<aidl::android::hardware::radio::network::LteVopsInfo>::value"
    }
   ],
   "linker_set_key" : "_ZTIN7android8internal7details17HasToStringMethodIN4aidl7android8hardware5radio7network11LteVopsInfoEE6$valueE",
   "name" : "android::internal::details::HasToStringMethod<aidl::android::hardware::radio::network::LteVopsInfo>::(unnamed enum at frameworks/native/libs/binder/ndk/include_cpp/android/binder_to_string.h:77:5)",
   "referenced_type" : "_ZTIN7android8internal7details17HasToStringMethodIN4aidl7android8hardware5radio7network11LteVopsInfoEE6$valueE",
   "self_type" : "_ZTIN7android8internal7details17HasToStringMethodIN4aidl7android8hardware5radio7network11LteVopsInfoEE6$valueE",
   "size" : 4,
   "source_file" : "frameworks/native/libs/binder/ndk/include_cpp/android/binder_to_string.h",
   "underlying_type" : "_ZTIj"
  },
  {
   "alignment" : 4,
   "enum_fields" :
   [
    {
     "enum_field_value" : 1,
     "name" : "android::internal::details::HasToStringMethod<aidl::android::hardware::radio::network::CellIdentity>::value"
    }
   ],
   "linker_set_key" : "_ZTIN7android8internal7details17HasToStringMethodIN4aidl7android8hardware5radio7network12CellIdentityEE6$valueE",
   "name" : "android::internal::details::HasToStringMethod<aidl::android::hardware::radio::network::CellIdentity>::(unnamed enum at frameworks/native/libs/binder/ndk/include_cpp/android/binder_to_string.h:77:5)",
   "referenced_type" : "_ZTIN7android8internal7details17HasToStringMethodIN4aidl7android8hardware5radio7network12CellIdentityEE6$valueE",
   "self_type" : "_ZTIN7android8internal7details17HasToStringMethodIN4aidl7android8hardware5radio7network12CellIdentityEE6$valueE",
   "size" : 4,
   "source_file" : "frameworks/native/libs/binder/ndk/include_cpp/android/binder_to_string.h",
   "underlying_type" : "_ZTIj"
  },
  {
   "alignment" : 4,
   "enum_fields" :
   [
    {
     "enum_field_value" : 1,
     "name" : "android::internal::details::HasToStringMethod<aidl::android::hardware::radio::network::CellInfoCdma>::value"
    }
   ],
   "linker_set_key" : "_ZTIN7android8internal7details17HasToStringMethodIN4aidl7android8hardware5radio7network12CellInfoCdmaEE6$valueE",
   "name" : "android::internal::details::HasToStringMethod<aidl::android::hardware::radio::network::CellInfoCdma>::(unnamed enum at frameworks/native/libs/binder/ndk/include_cpp/android/binder_to_string.h:77:5)",
   "referenced_type" : "_ZTIN7android8internal7details17HasToStringMethodIN4aidl7android8hardware5radio7network12CellInfoCdmaEE6$valueE",
   "self_type" : "_ZTIN7android8internal7details17HasToStringMethodIN4aidl7android8hardware5radio7network12CellInfoCdmaEE6$valueE",
   "size" : 4,
   "source_file" : "frameworks/native/libs/binder/ndk/include_cpp/android/binder_to_string.h",
   "underlying_type" : "_ZTIj"
  },
  {
   "alignment" : 4,
   "enum_fields" :
   [
    {
     "enum_field_value" : 1,
     "name" : "android::internal::details::HasToStringMethod<aidl::android::hardware::radio::network::NrIndicators>::value"
    }
   ],
   "linker_set_key" : "_ZTIN7android8internal7details17HasToStringMethodIN4aidl7android8hardware5radio7network12NrIndicatorsEE6$valueE",
   "name" : "android::internal::details::HasToStringMethod<aidl::android::hardware::radio::network::NrIndicators>::(unnamed enum at frameworks/native/libs/binder/ndk/include_cpp/android/binder_to_string.h:77:5)",
   "referenced_type" : "_ZTIN7android8internal7details17HasToStringMethodIN4aidl7android8hardware5radio7network12NrIndicatorsEE6$valueE",
   "self_type" : "_ZTIN7android8internal7details17HasToStringMethodIN4aidl7android8hardware5radio7network12NrIndicatorsEE6$valueE",
   "size" : 4,
   "source_file" : "frameworks/native/libs/binder/ndk/include_cpp/android/binder_to_string.h",
   "underlying_type" : "_ZTIj"
  },
  {
   "alignment" : 4,
   "enum_fields" :
   [
    {
     "enum_field_value" : 1,
     "name" : "android::internal::details::HasToStringMethod<aidl::android::hardware::radio::network::OperatorInfo>::value"
    }
   ],
   "linker_set_key" : "_ZTIN7android8internal7details17HasToStringMethodIN4aidl7android8hardware5radio7network12OperatorInfoEE6$valueE",
   "name" : "android::internal::details::HasToStringMethod<aidl::android::hardware::radio::network::OperatorInfo>::(unnamed enum at frameworks/native/libs/binder/ndk/include_cpp/android/binder_to_string.h:77:5)",
   "referenced_type" : "_ZTIN7android8internal7details17HasToStringMethodIN4aidl7android8hardware5radio7network12OperatorInfoEE6$valueE",
   "self_type" : "_ZTIN7android8internal7details17HasToStringMethodIN4aidl7android8hardware5radio7network12OperatorInfoEE6$valueE",
   "size" : 4,
   "source_file" : "frameworks/native/libs/binder/ndk/include_cpp/android/binder_to_string.h",
   "underlying_type" : "_ZTIj"
  },
  {
   "alignment" : 4,
   "enum_fields" :
   [
    {
     "enum_field_value" : 1,
     "name" : "android::internal::details::HasToStringMethod<aidl::android::hardware::radio::network::CellInfoWcdma>::value"
    }
   ],
   "linker_set_key" : "_ZTIN7android8internal7details17HasToStringMethodIN4aidl7android8hardware5radio7network13CellInfoWcdmaEE6$valueE",
   "name" : "android::internal::details::HasToStringMethod<aidl::android::hardware::radio::network::CellInfoWcdma>::(unnamed enum at frameworks/native/libs/binder/ndk/include_cpp/android/binder_to_string.h:77:5)",
   "referenced_type" : "_ZTIN7android8internal7details17HasToStringMethodIN4aidl7android8hardware5radio7network13CellInfoWcdmaEE6$valueE",
   "self_type" : "_ZTIN7android8internal7details17HasToStringMethodIN4aidl7android8hardware5radio7network13CellInfoWcdmaEE6$valueE",
   "size" : 4,
   "source_file" : "frameworks/native/libs/binder/ndk/include_cpp/android/binder_to_string.h",
   "underlying_type" : "_ZTIj"
  },
  {
   "alignment" : 4,
   "enum_fields" :
   [
    {
     "enum_field_value" : 1,
     "name" : "android::internal::details::HasToStringMethod<aidl::android::hardware::radio::network::CellIdentityNr>::value"
    }
   ],
   "linker_set_key" : "_ZTIN7android8internal7details17HasToStringMethodIN4aidl7android8hardware5radio7network14CellIdentityNrEE6$valueE",
   "name" : "android::internal::details::HasToStringMethod<aidl::android::hardware::radio::network::CellIdentityNr>::(unnamed enum at frameworks/native/libs/binder/ndk/include_cpp/android/binder_to_string.h:77:5)",
   "referenced_type" : "_ZTIN7android8internal7details17HasToStringMethodIN4aidl7android8hardware5radio7network14CellIdentityNrEE6$valueE",
   "self_type" : "_ZTIN7android8internal7details17HasToStringMethodIN4aidl7android8hardware5radio7network14CellIdentityNrEE6$valueE",
   "size" : 4,
   "source_file" : "frameworks/native/libs/binder/ndk/include_cpp/android/binder_to_string.h",
   "underlying_type" : "_ZTIj"
  },
  {
   "alignment" : 4,
   "enum_fields" :
   [
    {
     "enum_field_value" : 1,
     "name" : "android::internal::details::HasToStringMethod<aidl::android::hardware::radio::network::CellIdentityGsm>::value"
    }
   ],
   "linker_set_key" : "_ZTIN7android8internal7details17HasToStringMethodIN4aidl7android8hardware5radio7network15CellIdentityGsmEE6$valueE",
   "name" : "android::internal::details::HasToStringMethod<aidl::android::hardware::radio::network::CellIdentityGsm>::(unnamed enum at frameworks/native/libs/binder/ndk/include_cpp/android/binder_to_string.h:77:5)",
   "referenced_type" : "_ZTIN7android8internal7details17HasToStringMethodIN4aidl7android8hardware5radio7network15CellIdentityGsmEE6$valueE",
   "self_type" : "_ZTIN7android8internal7details17HasToStringMethodIN4aidl7android8hardware5radio7network15CellIdentityGsmEE6$valueE",
   "size" : 4,
   "source_file" : "frameworks/native/libs/binder/ndk/include_cpp/android/binder_to_string.h",
   "underlying_type" : "_ZTIj"
  },
  {
   "alignment" : 4,
   "enum_fields" :
   [
    {
     "enum_field_value" : 1,
     "name" : "android::internal::details::HasToStringMethod<aidl::android::hardware::radio::network::CellIdentityLte>::value"
    }
   ],
   "linker_set_key" : "_ZTIN7android8internal7details17HasToStringMethodIN4aidl7android8hardware5radio7network15CellIdentityLteEE6$valueE",
   "name" : "android::internal::details::HasToStringMethod<aidl::android::hardware::radio::network::CellIdentityLte>::(unnamed enum at frameworks/native/libs/binder/ndk/include_cpp/android/binder_to_string.h:77:5)",
   "referenced_type" : "_ZTIN7android8internal7details17HasToStringMethodIN4aidl7android8hardware5radio7network15CellIdentityLteEE6$valueE",
   "self_type" : "_ZTIN7android8internal7details17HasToStringMethodIN4aidl7android8hardware5radio7network15CellIdentityLteEE6$valueE",
   "size" : 4,
   "source_file" : "frameworks/native/libs/binder/ndk/include_cpp/android/binder_to_string.h",
   "underlying_type" : "_ZTIj"
  },
  {
   "alignment" : 4,
   "enum_fields" :
   [
    {
     "enum_field_value" : 1,
     "name" : "android::internal::details::HasToStringMethod<aidl::android::hardware::radio::network::CellInfoTdscdma>::value"
    }
   ],
   "linker_set_key" : "_ZTIN7android8internal7details17HasToStringMethodIN4aidl7android8hardware5radio7network15CellInfoTdscdmaEE6$valueE",
   "name" : "android::internal::details::HasToStringMethod<aidl::android::hardware::radio::network::CellInfoTdscdma>::(unnamed enum at frameworks/native/libs/binder/ndk/include_cpp/android/binder_to_string.h:77:5)",
   "referenced_type" : "_ZTIN7android8internal7details17HasToStringMethodIN4aidl7android8hardware5radio7network15CellInfoTdscdmaEE6$valueE",
   "self_type" : "_ZTIN7android8internal7details17HasToStringMethodIN4aidl7android8hardware5radio7network15CellInfoTdscdmaEE6$valueE",
   "size" : 4,
   "source_file" : "frameworks/native/libs/binder/ndk/include_cpp/android/binder_to_string.h",
   "underlying_type" : "_ZTIj"
  },
  {
   "alignment" : 4,
   "enum_fields" :
   [
    {
     "enum_field_value" : 1,
     "name" : "android::internal::details::HasToStringMethod<aidl::android::hardware::radio::network::CellIdentityCdma>::value"
    }
   ],
   "linker_set_key" : "_ZTIN7android8internal7details17HasToStringMethodIN4aidl7android8hardware5radio7network16CellIdentityCdmaEE6$valueE",
   "name" : "android::internal::details::HasToStringMethod<aidl::android::hardware::radio::network::CellIdentityCdma>::(unnamed enum at frameworks/native/libs/binder/ndk/include_cpp/android/binder_to_string.h:77:5)",
   "referenced_type" : "_ZTIN7android8internal7details17HasToStringMethodIN4aidl7android8hardware5radio7network16CellIdentityCdmaEE6$valueE",
   "self_type" : "_ZTIN7android8internal7details17HasToStringMethodIN4aidl7android8hardware5radio7network16CellIdentityCdmaEE6$valueE",
   "size" : 4,
   "source_file" : "frameworks/native/libs/binder/ndk/include_cpp/android/binder_to_string.h",
   "underlying_type" : "_ZTIj"
  },
  {
   "alignment" : 4,
   "enum_fields" :
   [
    {
     "enum_field_value" : 1,
     "name" : "android::internal::details::HasToStringMethod<aidl::android::hardware::radio::network::NrSignalStrength>::value"
    }
   ],
   "linker_set_key" : "_ZTIN7android8internal7details17HasToStringMethodIN4aidl7android8hardware5radio7network16NrSignalStrengthEE6$valueE",
   "name" : "android::internal::details::HasToStringMethod<aidl::android::hardware::radio::network::NrSignalStrength>::(unnamed enum at frameworks/native/libs/binder/ndk/include_cpp/android/binder_to_string.h:77:5)",
   "referenced_type" : "_ZTIN7android8internal7details17HasToStringMethodIN4aidl7android8hardware5radio7network16NrSignalStrengthEE6$valueE",
   "self_type" : "_ZTIN7android8internal7details17HasToStringMethodIN4aidl7android8hardware5radio7network16NrSignalStrengthEE6$valueE",
   "size" : 4,
   "source_file" : "frameworks/native/libs/binder/ndk/include_cpp/android/binder_to_string.h",
   "underlying_type" : "_ZTIj"
  },
  {
   "alignment" : 4,
   "enum_fields" :
   [
    {
     "enum_field_value" : 1,
     "name" : "android::internal::details::HasToStringMethod<aidl::android::hardware::radio::network::CellIdentityWcdma>::value"
    }
   ],
   "linker_set_key" : "_ZTIN7android8internal7details17HasToStringMethodIN4aidl7android8hardware5radio7network17CellIdentityWcdmaEE6$valueE",
   "name" : "android::internal::details::HasToStringMethod<aidl::android::hardware::radio::network::CellIdentityWcdma>::(unnamed enum at frameworks/native/libs/binder/ndk/include_cpp/android/binder_to_string.h:77:5)",
   "referenced_type" : "_ZTIN7android8internal7details17HasToStringMethodIN4aidl7android8hardware5radio7network17CellIdentityWcdmaEE6$valueE",
   "self_type" : "_ZTIN7android8internal7details17HasToStringMethodIN4aidl7android8hardware5radio7network17CellIdentityWcdmaEE6$valueE",
   "size" : 4,
   "source_file" : "frameworks/native/libs/binder/ndk/include_cpp/android/binder_to_string.h",
   "underlying_type" : "_ZTIj"
  },
  {
   "alignment" : 4,
   "enum_fields" :
   [
    {
     "enum_field_value" : 1,
     "name" : "android::internal::details::HasToStringMethod<aidl::android::hardware::radio::network::GsmSignalStrength>::value"
    }
   ],
   "linker_set_key" : "_ZTIN7android8internal7details17HasToStringMethodIN4aidl7android8hardware5radio7network17GsmSignalStrengthEE6$valueE",
   "name" : "android::internal::details::HasToStringMethod<aidl::android::hardware::radio::network::GsmSignalStrength>::(unnamed enum at frameworks/native/libs/binder/ndk/include_cpp/android/binder_to_string.h:77:5)",
   "referenced_type" : "_ZTIN7android8internal7details17HasToStringMethodIN4aidl7android8hardware5radio7network17GsmSignalStrengthEE6$valueE",
   "self_type" : "_ZTIN7android8internal7details17HasToStringMethodIN4aidl7android8hardware5radio7network17GsmSignalStrengthEE6$valueE",
   "size" : 4,
   "source_file" : "frameworks/native/libs/binder/ndk/include_cpp/android/binder_to_string.h",
   "underlying_type" : "_ZTIj"
  },
  {
   "alignment" : 4,
   "enum_fields" :
   [
    {
     "enum_field_value" : 1,
     "name" : "android::internal::details::HasToStringMethod<aidl::android::hardware::radio::network::LteSignalStrength>::value"
    }
   ],
   "linker_set_key" : "_ZTIN7android8internal7details17HasToStringMethodIN4aidl7android8hardware5radio7network17LteSignalStrengthEE6$valueE",
   "name" : "android::internal::details::HasToStringMethod<aidl::android::hardware::radio::network::LteSignalStrength>::(unnamed enum at frameworks/native/libs/binder/ndk/include_cpp/android/binder_to_string.h:77:5)",
   "referenced_type" : "_ZTIN7android8internal7details17HasToStringMethodIN4aidl7android8hardware5radio7network17LteSignalStrengthEE6$valueE",
   "self_type" : "_ZTIN7android8internal7details17HasToStringMethodIN4aidl7android8hardware5radio7network17LteSignalStrengthEE6$valueE",
   "size" : 4,
   "source_file" : "frameworks/native/libs/binder/ndk/include_cpp/android/binder_to_string.h",
   "underlying_type" : "_ZTIj"
  },
  {
   "alignment" : 4,
   "enum_fields" :
   [
    {
     "enum_field_value" : 1,
     "name" : "android::internal::details::HasToStringMethod<aidl::android::hardware::radio::network::CdmaSignalStrength>::value"
    }
   ],
   "linker_set_key" : "_ZTIN7android8internal7details17HasToStringMethodIN4aidl7android8hardware5radio7network18CdmaSignalStrengthEE6$valueE",
   "name" : "android::internal::details::HasToStringMethod<aidl::android::hardware::radio::network::CdmaSignalStrength>::(unnamed enum at frameworks/native/libs/binder/ndk/include_cpp/android/binder_to_string.h:77:5)",
   "referenced_type" : "_ZTIN7android8internal7details17HasToStringMethodIN4aidl7android8hardware5radio7network18CdmaSignalStrengthEE6$valueE",
   "self_type" : "_ZTIN7android8internal7details17HasToStringMethodIN4aidl7android8hardware5radio7network18CdmaSignalStrengthEE6$valueE",
   "size" : 4,
   "source_file" : "frameworks/native/libs/binder/ndk/include_cpp/android/binder_to_string.h",
   "underlying_type" : "_ZTIj"
  },
  {
   "alignment" : 4,
   "enum_fields" :
   [
    {
     "enum_field_value" : 1,
     "name" : "android::internal::details::HasToStringMethod<aidl::android::hardware::radio::network::EvdoSignalStrength>::value"
    }
   ],
   "linker_set_key" : "_ZTIN7android8internal7details17HasToStringMethodIN4aidl7android8hardware5radio7network18EvdoSignalStrengthEE6$valueE",
   "name" : "android::internal::details::HasToStringMethod<aidl::android::hardware::radio::network::EvdoSignalStrength>::(unnamed enum at frameworks/native/libs/binder/ndk/include_cpp/android/binder_to_string.h:77:5)",
   "referenced_type" : "_ZTIN7android8internal7details17HasToStringMethodIN4aidl7android8hardware5radio7network18EvdoSignalStrengthEE6$valueE",
   "self_type" : "_ZTIN7android8internal7details17HasToStringMethodIN4aidl7android8hardware5radio7network18EvdoSignalStrengthEE6$valueE",
   "size" : 4,
   "source_file" : "frameworks/native/libs/binder/ndk/include_cpp/android/binder_to_string.h",
   "underlying_type" : "_ZTIj"
  },
  {
   "alignment" : 4,
   "enum_fields" :
   [
    {
     "enum_field_value" : 1,
     "name" : "android::internal::details::HasToStringMethod<aidl::android::hardware::radio::network::CellIdentityTdscdma>::value"
    }
   ],
   "linker_set_key" : "_ZTIN7android8internal7details17HasToStringMethodIN4aidl7android8hardware5radio7network19CellIdentityTdscdmaEE6$valueE",
   "name" : "android::internal::details::HasToStringMethod<aidl::android::hardware::radio::network::CellIdentityTdscdma>::(unnamed enum at frameworks/native/libs/binder/ndk/include_cpp/android/binder_to_string.h:77:5)",
   "referenced_type" : "_ZTIN7android8internal7details17HasToStringMethodIN4aidl7android8hardware5radio7network19CellIdentityTdscdmaEE6$valueE",
   "self_type" : "_ZTIN7android8internal7details17HasToStringMethodIN4aidl7android8hardware5radio7network19CellIdentityTdscdmaEE6$valueE",
   "size" : 4,
   "source_file" : "frameworks/native/libs/binder/ndk/include_cpp/android/binder_to_string.h",
   "underlying_type" : "_ZTIj"
  },
  {
   "alignment" : 4,
   "enum_fields" :
   [
    {
     "enum_field_value" : 1,
     "name" : "android::internal::details::HasToStringMethod<aidl::android::hardware::radio::network::WcdmaSignalStrength>::value"
    }
   ],
   "linker_set_key" : "_ZTIN7android8internal7details17HasToStringMethodIN4aidl7android8hardware5radio7network19WcdmaSignalStrengthEE6$valueE",
   "name" : "android::internal::details::HasToStringMethod<aidl::android::hardware::radio::network::WcdmaSignalStrength>::(unnamed enum at frameworks/native/libs/binder/ndk/include_cpp/android/binder_to_string.h:77:5)",
   "referenced_type" : "_ZTIN7android8internal7details17HasToStringMethodIN4aidl7android8hardware5radio7network19WcdmaSignalStrengthEE6$valueE",
   "self_type" : "_ZTIN7android8internal7details17HasToStringMethodIN4aidl7android8hardware5radio7network19WcdmaSignalStrengthEE6$valueE",
   "size" : 4,
   "source_file" : "frameworks/native/libs/binder/ndk/include_cpp/android/binder_to_string.h",
   "underlying_type" : "_ZTIj"
  },
  {
   "alignment" : 4,
   "enum_fields" :
   [
    {
     "enum_field_value" : 0,
     "name" : "android::internal::details::HasToStringMethod<aidl::android::hardware::radio::network::CellConnectionStatus>::value"
    }
   ],
   "linker_set_key" : "_ZTIN7android8internal7details17HasToStringMethodIN4aidl7android8hardware5radio7network20CellConnectionStatusEE6$valueE",
   "name" : "android::internal::details::HasToStringMethod<aidl::android::hardware::radio::network::CellConnectionStatus>::(unnamed enum at frameworks/native/libs/binder/ndk/include_cpp/android/binder_to_string.h:77:5)",
   "referenced_type" : "_ZTIN7android8internal7details17HasToStringMethodIN4aidl7android8hardware5radio7network20CellConnectionStatusEE6$valueE",
   "self_type" : "_ZTIN7android8internal7details17HasToStringMethodIN4aidl7android8hardware5radio7network20CellConnectionStatusEE6$valueE",
   "size" : 4,
   "source_file" : "frameworks/native/libs/binder/ndk/include_cpp/android/binder_to_string.h",
   "underlying_type" : "_ZTIj"
  },
  {
   "alignment" : 4,
   "enum_fields" :
   [
    {
     "enum_field_value" : 1,
     "name" : "android::internal::details::HasToStringMethod<aidl::android::hardware::radio::network::RadioAccessSpecifier>::value"
    }
   ],
   "linker_set_key" : "_ZTIN7android8internal7details17HasToStringMethodIN4aidl7android8hardware5radio7network20RadioAccessSpecifierEE6$valueE",
   "name" : "android::internal::details::HasToStringMethod<aidl::android::hardware::radio::network::RadioAccessSpecifier>::(unnamed enum at frameworks/native/libs/binder/ndk/include_cpp/android/binder_to_string.h:77:5)",
   "referenced_type" : "_ZTIN7android8internal7details17HasToStringMethodIN4aidl7android8hardware5radio7network20RadioAccessSpecifierEE6$valueE",
   "self_type" : "_ZTIN7android8internal7details17HasToStringMethodIN4aidl7android8hardware5radio7network20RadioAccessSpecifierEE6$valueE",
   "size" : 4,
   "source_file" : "frameworks/native/libs/binder/ndk/include_cpp/android/binder_to_string.h",
   "underlying_type" : "_ZTIj"
  },
  {
   "alignment" : 4,
   "enum_fields" :
   [
    {
     "enum_field_value" : 0,
     "name" : "android::internal::details::HasToStringMethod<aidl::android::hardware::radio::network::RegistrationFailCause>::value"
    }
   ],
   "linker_set_key" : "_ZTIN7android8internal7details17HasToStringMethodIN4aidl7android8hardware5radio7network21RegistrationFailCauseEE6$valueE",
   "name" : "android::internal::details::HasToStringMethod<aidl::android::hardware::radio::network::RegistrationFailCause>::(unnamed enum at frameworks/native/libs/binder/ndk/include_cpp/android/binder_to_string.h:77:5)",
   "referenced_type" : "_ZTIN7android8internal7details17HasToStringMethodIN4aidl7android8hardware5radio7network21RegistrationFailCauseEE6$valueE",
   "self_type" : "_ZTIN7android8internal7details17HasToStringMethodIN4aidl7android8hardware5radio7network21RegistrationFailCauseEE6$valueE",
   "size" : 4,
   "source_file" : "frameworks/native/libs/binder/ndk/include_cpp/android/binder_to_string.h",
   "underlying_type" : "_ZTIj"
  },
  {
   "alignment" : 4,
   "enum_fields" :
   [
    {
     "enum_field_value" : 1,
     "name" : "android::internal::details::HasToStringMethod<aidl::android::hardware::radio::network::TdscdmaSignalStrength>::value"
    }
   ],
   "linker_set_key" : "_ZTIN7android8internal7details17HasToStringMethodIN4aidl7android8hardware5radio7network21TdscdmaSignalStrengthEE6$valueE",
   "name" : "android::internal::details::HasToStringMethod<aidl::android::hardware::radio::network::TdscdmaSignalStrength>::(unnamed enum at frameworks/native/libs/binder/ndk/include_cpp/android/binder_to_string.h:77:5)",
   "referenced_type" : "_ZTIN7android8internal7details17HasToStringMethodIN4aidl7android8hardware5radio7network21TdscdmaSignalStrengthEE6$valueE",
   "self_type" : "_ZTIN7android8internal7details17HasToStringMethodIN4aidl7android8hardware5radio7network21TdscdmaSignalStrengthEE6$valueE",
   "size" : 4,
   "source_file" : "frameworks/native/libs/binder/ndk/include_cpp/android/binder_to_string.h",
   "underlying_type" : "_ZTIj"
  },
  {
   "alignment" : 4,
   "enum_fields" :
   [
    {
     "enum_field_value" : 1,
     "name" : "android::internal::details::HasToStringMethod<aidl::android::hardware::radio::network::EutranRegistrationInfo>::value"
    }
   ],
   "linker_set_key" : "_ZTIN7android8internal7details17HasToStringMethodIN4aidl7android8hardware5radio7network22EutranRegistrationInfoEE6$valueE",
   "name" : "android::internal::details::HasToStringMethod<aidl::android::hardware::radio::network::EutranRegistrationInfo>::(unnamed enum at frameworks/native/libs/binder/ndk/include_cpp/android/binder_to_string.h:77:5)",
   "referenced_type" : "_ZTIN7android8internal7details17HasToStringMethodIN4aidl7android8hardware5radio7network22EutranRegistrationInfoEE6$valueE",
   "self_type" : "_ZTIN7android8internal7details17HasToStringMethodIN4aidl7android8hardware5radio7network22EutranRegistrationInfoEE6$valueE",
   "size" : 4,
   "source_file" : "frameworks/native/libs/binder/ndk/include_cpp/android/binder_to_string.h",
   "underlying_type" : "_ZTIj"
  },
  {
   "alignment" : 4,
   "enum_fields" :
   [
    {
     "enum_field_value" : 1,
     "name" : "android::internal::details::HasToStringMethod<aidl::android::hardware::radio::network::BarringTypeSpecificInfo>::value"
    }
   ],
   "linker_set_key" : "_ZTIN7android8internal7details17HasToStringMethodIN4aidl7android8hardware5radio7network23BarringTypeSpecificInfoEE6$valueE",
   "name" : "android::internal::details::HasToStringMethod<aidl::android::hardware::radio::network::BarringTypeSpecificInfo>::(unnamed enum at frameworks/native/libs/binder/ndk/include_cpp/android/binder_to_string.h:77:5)",
   "referenced_type" : "_ZTIN7android8internal7details17HasToStringMethodIN4aidl7android8hardware5radio7network23BarringTypeSpecificInfoEE6$valueE",
   "self_type" : "_ZTIN7android8internal7details17HasToStringMethodIN4aidl7android8hardware5radio7network23BarringTypeSpecificInfoEE6$valueE",
   "size" : 4,
   "source_file" : "frameworks/native/libs/binder/ndk/include_cpp/android/binder_to_string.h",
   "underlying_type" : "_ZTIj"
  },
  {
   "alignment" : 4,
   "enum_fields" :
   [
    {
     "enum_field_value" : 1,
     "name" : "android::internal::details::HasToStringMethod<aidl::android::hardware::radio::network::CellInfoRatSpecificInfo>::value"
    }
   ],
   "linker_set_key" : "_ZTIN7android8internal7details17HasToStringMethodIN4aidl7android8hardware5radio7network23CellInfoRatSpecificInfoEE6$valueE",
   "name" : "android::internal::details::HasToStringMethod<aidl::android::hardware::radio::network::CellInfoRatSpecificInfo>::(unnamed enum at frameworks/native/libs/binder/ndk/include_cpp/android/binder_to_string.h:77:5)",
   "referenced_type" : "_ZTIN7android8internal7details17HasToStringMethodIN4aidl7android8hardware5radio7network23CellInfoRatSpecificInfoEE6$valueE",
   "self_type" : "_ZTIN7android8internal7details17HasToStringMethodIN4aidl7android8hardware5radio7network23CellInfoRatSpecificInfoEE6$valueE",
   "size" : 4,
   "source_file" : "frameworks/native/libs/binder/ndk/include_cpp/android/binder_to_string.h",
   "underlying_type" : "_ZTIj"
  },
  {
   "alignment" : 4,
   "enum_fields" :
   [
    {
     "enum_field_value" : 1,
     "name" : "android::internal::details::HasToStringMethod<aidl::android::hardware::radio::network::Cdma2000RegistrationInfo>::value"
    }
   ],
   "linker_set_key" : "_ZTIN7android8internal7details17HasToStringMethodIN4aidl7android8hardware5radio7network24Cdma2000RegistrationInfoEE6$valueE",
   "name" : "android::internal::details::HasToStringMethod<aidl::android::hardware::radio::network::Cdma2000RegistrationInfo>::(unnamed enum at frameworks/native/libs/binder/ndk/include_cpp/android/binder_to_string.h:77:5)",
   "referenced_type" : "_ZTIN7android8internal7details17HasToStringMethodIN4aidl7android8hardware5radio7network24Cdma2000RegistrationInfoEE6$valueE",
   "self_type" : "_ZTIN7android8internal7details17HasToStringMethodIN4aidl7android8hardware5radio7network24Cdma2000RegistrationInfoEE6$valueE",
   "size" : 4,
   "source_file" : "frameworks/native/libs/binder/ndk/include_cpp/android/binder_to_string.h",
   "underlying_type" : "_ZTIj"
  },
  {
   "alignment" : 4,
   "enum_fields" :
   [
    {
     "enum_field_value" : 1,
     "name" : "android::internal::details::HasToStringMethod<aidl::android::hardware::radio::network::ClosedSubscriberGroupInfo>::value"
    }
   ],
   "linker_set_key" : "_ZTIN7android8internal7details17HasToStringMethodIN4aidl7android8hardware5radio7network25ClosedSubscriberGroupInfoEE6$valueE",
   "name" : "android::internal::details::HasToStringMethod<aidl::android::hardware::radio::network::ClosedSubscriberGroupInfo>::(unnamed enum at frameworks/native/libs/binder/ndk/include_cpp/android/binder_to_string.h:77:5)",
   "referenced_type" : "_ZTIN7android8internal7details17HasToStringMethodIN4aidl7android8hardware5radio7network25ClosedSubscriberGroupInfoEE6$valueE",
   "self_type" : "_ZTIN7android8internal7details17HasToStringMethodIN4aidl7android8hardware5radio7network25ClosedSubscriberGroupInfoEE6$valueE",
   "size" : 4,
   "source_file" : "frameworks/native/libs/binder/ndk/include_cpp/android/binder_to_string.h",
   "underlying_type" : "_ZTIj"
  },
  {
   "alignment" : 4,
   "enum_fields" :
   [
    {
     "enum_field_value" : 1,
     "name" : "android::internal::details::HasToStringMethod<aidl::android::hardware::radio::network::PhysicalChannelConfigBand>::value"
    }
   ],
   "linker_set_key" : "_ZTIN7android8internal7details17HasToStringMethodIN4aidl7android8hardware5radio7network25PhysicalChannelConfigBandEE6$valueE",
   "name" : "android::internal::details::HasToStringMethod<aidl::android::hardware::radio::network::PhysicalChannelConfigBand>::(unnamed enum at frameworks/native/libs/binder/ndk/include_cpp/android/binder_to_string.h:77:5)",
   "referenced_type" : "_ZTIN7android8internal7details17HasToStringMethodIN4aidl7android8hardware5radio7network25PhysicalChannelConfigBandEE6$valueE",
   "self_type" : "_ZTIN7android8internal7details17HasToStringMethodIN4aidl7android8hardware5radio7network25PhysicalChannelConfigBandEE6$valueE",
   "size" : 4,
   "source_file" : "frameworks/native/libs/binder/ndk/include_cpp/android/binder_to_string.h",
   "underlying_type" : "_ZTIj"
  },
  {
   "alignment" : 4,
   "enum_fields" :
   [
    {
     "enum_field_value" : 1,
     "name" : "android::internal::details::HasToStringMethod<aidl::android::hardware::radio::network::RadioAccessSpecifierBands>::value"
    }
   ],
   "linker_set_key" : "_ZTIN7android8internal7details17HasToStringMethodIN4aidl7android8hardware5radio7network25RadioAccessSpecifierBandsEE6$valueE",
   "name" : "android::internal::details::HasToStringMethod<aidl::android::hardware::radio::network::RadioAccessSpecifierBands>::(unnamed enum at frameworks/native/libs/binder/ndk/include_cpp/android/binder_to_string.h:77:5)",
   "referenced_type" : "_ZTIN7android8internal7details17HasToStringMethodIN4aidl7android8hardware5radio7network25RadioAccessSpecifierBandsEE6$valueE",
   "self_type" : "_ZTIN7android8internal7details17HasToStringMethodIN4aidl7android8hardware5radio7network25RadioAccessSpecifierBandsEE6$valueE",
   "size" : 4,
   "source_file" : "frameworks/native/libs/binder/ndk/include_cpp/android/binder_to_string.h",
   "underlying_type" : "_ZTIj"
  },
  {
   "alignment" : 4,
   "enum_fields" :
   [
    {
     "enum_field_value" : 1,
     "name" : "android::internal::details::HasToStringMethod<aidl::android::hardware::radio::network::AccessTechnologySpecificInfo>::value"
    }
   ],
   "linker_set_key" : "_ZTIN7android8internal7details17HasToStringMethodIN4aidl7android8hardware5radio7network28AccessTechnologySpecificInfoEE6$valueE",
   "name" : "android::internal::details::HasToStringMethod<aidl::android::hardware::radio::network::AccessTechnologySpecificInfo>::(unnamed enum at frameworks/native/libs/binder/ndk/include_cpp/android/binder_to_string.h:77:5)",
   "referenced_type" : "_ZTIN7android8internal7details17HasToStringMethodIN4aidl7android8hardware5radio7network28AccessTechnologySpecificInfoEE6$valueE",
   "self_type" : "_ZTIN7android8internal7details17HasToStringMethodIN4aidl7android8hardware5radio7network28AccessTechnologySpecificInfoEE6$valueE",
   "size" : 4,
   "source_file" : "frameworks/native/libs/binder/ndk/include_cpp/android/binder_to_string.h",
   "underlying_type" : "_ZTIj"
  },
  {
   "alignment" : 4,
   "enum_fields" :
   [
    {
     "enum_field_value" : 1,
     "name" : "android::internal::details::HasToStringMethod<aidl::android::hardware::radio::network::CellInfo>::value"
    }
   ],
   "linker_set_key" : "_ZTIN7android8internal7details17HasToStringMethodIN4aidl7android8hardware5radio7network8CellInfoEE6$valueE",
   "name" : "android::internal::details::HasToStringMethod<aidl::android::hardware::radio::network::CellInfo>::(unnamed enum at frameworks/native/libs/binder/ndk/include_cpp/android/binder_to_string.h:77:5)",
   "referenced_type" : "_ZTIN7android8internal7details17HasToStringMethodIN4aidl7android8hardware5radio7network8CellInfoEE6$valueE",
   "self_type" : "_ZTIN7android8internal7details17HasToStringMethodIN4aidl7android8hardware5radio7network8CellInfoEE6$valueE",
   "size" : 4,
   "source_file" : "frameworks/native/libs/binder/ndk/include_cpp/android/binder_to_string.h",
   "underlying_type" : "_ZTIj"
  },
  {
   "alignment" : 4,
   "enum_fields" :
   [
    {
     "enum_field_value" : 0,
     "name" : "android::internal::details::HasToStringMethod<aidl::android::hardware::radio::network::RegState>::value"
    }
   ],
   "linker_set_key" : "_ZTIN7android8internal7details17HasToStringMethodIN4aidl7android8hardware5radio7network8RegStateEE6$valueE",
   "name" : "android::internal::details::HasToStringMethod<aidl::android::hardware::radio::network::RegState>::(unnamed enum at frameworks/native/libs/binder/ndk/include_cpp/android/binder_to_string.h:77:5)",
   "referenced_type" : "_ZTIN7android8internal7details17HasToStringMethodIN4aidl7android8hardware5radio7network8RegStateEE6$valueE",
   "self_type" : "_ZTIN7android8internal7details17HasToStringMethodIN4aidl7android8hardware5radio7network8RegStateEE6$valueE",
   "size" : 4,
   "source_file" : "frameworks/native/libs/binder/ndk/include_cpp/android/binder_to_string.h",
   "underlying_type" : "_ZTIj"
  },
  {
   "alignment" : 4,
   "enum_fields" :
   [
    {
     "enum_field_value" : 0,
     "name" : "android::internal::details::HasToStringMethod<std::vector<aidl::android::hardware::radio::network::GeranBands>>::value"
    }
   ],
   "linker_set_key" : "_ZTIN7android8internal7details17HasToStringMethodINSt3__16vectorIN4aidl7android8hardware5radio7network10GeranBandsENS3_9allocatorISA_EEEEE6$valueE",
   "name" : "android::internal::details::HasToStringMethod<std::vector<aidl::android::hardware::radio::network::GeranBands, std::allocator<aidl::android::hardware::radio::network::GeranBands>>>::(unnamed enum at frameworks/native/libs/binder/ndk/include_cpp/android/binder_to_string.h:77:5)",
   "referenced_type" : "_ZTIN7android8internal7details17HasToStringMethodINSt3__16vectorIN4aidl7android8hardware5radio7network10GeranBandsENS3_9allocatorISA_EEEEE6$valueE",
   "self_type" : "_ZTIN7android8internal7details17HasToStringMethodINSt3__16vectorIN4aidl7android8hardware5radio7network10GeranBandsENS3_9allocatorISA_EEEEE6$valueE",
   "size" : 4,
   "source_file" : "frameworks/native/libs/binder/ndk/include_cpp/android/binder_to_string.h",
   "underlying_type" : "_ZTIj"
  },
  {
   "alignment" : 4,
   "enum_fields" :
   [
    {
     "enum_field_value" : 0,
     "name" : "android::internal::details::HasToStringMethod<std::vector<aidl::android::hardware::radio::network::NgranBands>>::value"
    }
   ],
   "linker_set_key" : "_ZTIN7android8internal7details17HasToStringMethodINSt3__16vectorIN4aidl7android8hardware5radio7network10NgranBandsENS3_9allocatorISA_EEEEE6$valueE",
   "name" : "android::internal::details::HasToStringMethod<std::vector<aidl::android::hardware::radio::network::NgranBands, std::allocator<aidl::android::hardware::radio::network::NgranBands>>>::(unnamed enum at frameworks/native/libs/binder/ndk/include_cpp/android/binder_to_string.h:77:5)",
   "referenced_type" : "_ZTIN7android8internal7details17HasToStringMethodINSt3__16vectorIN4aidl7android8hardware5radio7network10NgranBandsENS3_9allocatorISA_EEEEE6$valueE",
   "self_type" : "_ZTIN7android8internal7details17HasToStringMethodINSt3__16vectorIN4aidl7android8hardware5radio7network10NgranBandsENS3_9allocatorISA_EEEEE6$valueE",
   "size" : 4,
   "source_file" : "frameworks/native/libs/binder/ndk/include_cpp/android/binder_to_string.h",
   "underlying_type" : "_ZTIj"
  },
  {
   "alignment" : 4,
   "enum_fields" :
   [
    {
     "enum_field_value" : 0,
     "name" : "android::internal::details::HasToStringMethod<std::vector<aidl::android::hardware::radio::network::UtranBands>>::value"
    }
   ],
   "linker_set_key" : "_ZTIN7android8internal7details17HasToStringMethodINSt3__16vectorIN4aidl7android8hardware5radio7network10UtranBandsENS3_9allocatorISA_EEEEE6$valueE",
   "name" : "android::internal::details::HasToStringMethod<std::vector<aidl::android::hardware::radio::network::UtranBands, std::allocator<aidl::android::hardware::radio::network::UtranBands>>>::(unnamed enum at frameworks/native/libs/binder/ndk/include_cpp/android/binder_to_string.h:77:5)",
   "referenced_type" : "_ZTIN7android8internal7details17HasToStringMethodINSt3__16vectorIN4aidl7android8hardware5radio7network10UtranBandsENS3_9allocatorISA_EEEEE6$valueE",
   "self_type" : "_ZTIN7android8internal7details17HasToStringMethodINSt3__16vectorIN4aidl7android8hardware5radio7network10UtranBandsENS3_9allocatorISA_EEEEE6$valueE",
   "size" : 4,
   "source_file" : "frameworks/native/libs/binder/ndk/include_cpp/android/binder_to_string.h",
   "underlying_type" : "_ZTIj"
  },
  {
   "alignment" : 4,
   "enum_fields" :
   [
    {
     "enum_field_value" : 0,
     "name" : "android::internal::details::HasToStringMethod<std::vector<aidl::android::hardware::radio::network::EutranBands>>::value"
    }
   ],
   "linker_set_key" : "_ZTIN7android8internal7details17HasToStringMethodINSt3__16vectorIN4aidl7android8hardware5radio7network11EutranBandsENS3_9allocatorISA_EEEEE6$valueE",
   "name" : "android::internal::details::HasToStringMethod<std::vector<aidl::android::hardware::radio::network::EutranBands, std::allocator<aidl::android::hardware::radio::network::EutranBands>>>::(unnamed enum at frameworks/native/libs/binder/ndk/include_cpp/android/binder_to_string.h:77:5)",
   "referenced_type" : "_ZTIN7android8internal7details17HasToStringMethodINSt3__16vectorIN4aidl7android8hardware5radio7network11EutranBandsENS3_9allocatorISA_EEEEE6$valueE",
   "self_type" : "_ZTIN7android8internal7details17HasToStringMethodINSt3__16vectorIN4aidl7android8hardware5radio7network11EutranBandsENS3_9allocatorISA_EEEEE6$valueE",
   "size" : 4,
   "source_file" : "frameworks/native/libs/binder/ndk/include_cpp/android/binder_to_string.h",
   "underlying_type" : "_ZTIj"
  },
  {
   "alignment" : 4,
   "enum_fields" :
   [
    {
     "enum_field_value" : 0,
     "name" : "android::internal::details::HasToStringMethod<std::vector<aidl::android::hardware::radio::network::RadioAccessSpecifier>>::value"
    }
   ],
   "linker_set_key" : "_ZTIN7android8internal7details17HasToStringMethodINSt3__16vectorIN4aidl7android8hardware5radio7network20RadioAccessSpecifierENS3_9allocatorISA_EEEEE6$valueE",
   "name" : "android::internal::details::HasToStringMethod<std::vector<aidl::android::hardware::radio::network::RadioAccessSpecifier, std::allocator<aidl::android::hardware::radio::network::RadioAccessSpecifier>>>::(unnamed enum at frameworks/native/libs/binder/ndk/include_cpp/android/binder_to_string.h:77:5)",
   "referenced_type" : "_ZTIN7android8internal7details17HasToStringMethodINSt3__16vectorIN4aidl7android8hardware5radio7network20RadioAccessSpecifierENS3_9allocatorISA_EEEEE6$valueE",
   "self_type" : "_ZTIN7android8internal7details17HasToStringMethodINSt3__16vectorIN4aidl7android8hardware5radio7network20RadioAccessSpecifierENS3_9allocatorISA_EEEEE6$valueE",
   "size" : 4,
   "source_file" : "frameworks/native/libs/binder/ndk/include_cpp/android/binder_to_string.h",
   "underlying_type" : "_ZTIj"
  },
  {
   "alignment" : 4,
   "enum_fields" :
   [
    {
     "enum_field_value" : 0,
     "name" : "android::internal::details::HasToStringMethod<std::vector<aidl::android::hardware::radio::network::CellInfo>>::value"
    }
   ],
   "linker_set_key" : "_ZTIN7android8internal7details17HasToStringMethodINSt3__16vectorIN4aidl7android8hardware5radio7network8CellInfoENS3_9allocatorISA_EEEEE6$valueE",
   "name" : "android::internal::details::HasToStringMethod<std::vector<aidl::android::hardware::radio::network::CellInfo, std::allocator<aidl::android::hardware::radio::network::CellInfo>>>::(unnamed enum at frameworks/native/libs/binder/ndk/include_cpp/android/binder_to_string.h:77:5)",
   "referenced_type" : "_ZTIN7android8internal7details17HasToStringMethodINSt3__16vectorIN4aidl7android8hardware5radio7network8CellInfoENS3_9allocatorISA_EEEEE6$valueE",
   "self_type" : "_ZTIN7android8internal7details17HasToStringMethodINSt3__16vectorIN4aidl7android8hardware5radio7network8CellInfoENS3_9allocatorISA_EEEEE6$valueE",
   "size" : 4,
   "source_file" : "frameworks/native/libs/binder/ndk/include_cpp/android/binder_to_string.h",
   "underlying_type" : "_ZTIj"
  },
  {
   "alignment" : 4,
   "enum_fields" :
   [
    {
     "enum_field_value" : 0,
     "name" : "android::internal::details::HasToStringMethod<std::vector<std::basic_string<char>>>::value"
    }
   ],
   "linker_set_key" : "_ZTIN7android8internal7details17HasToStringMethodINSt3__16vectorINS3_12basic_stringIcNS3_11char_traitsIcEENS3_9allocatorIcEEEENS8_ISA_EEEEE6$valueE",
   "name" : "android::internal::details::HasToStringMethod<std::vector<std::basic_string<char, std::char_traits<char>, std::allocator<char>>, std::allocator<std::basic_string<char, std::char_traits<char>, std::allocator<char>>>>>::(unnamed enum at frameworks/native/libs/binder/ndk/include_cpp/android/binder_to_string.h:77:5)",
   "referenced_type" : "_ZTIN7android8internal7details17HasToStringMethodINSt3__16vectorINS3_12basic_stringIcNS3_11char_traitsIcEENS3_9allocatorIcEEEENS8_ISA_EEEEE6$valueE",
   "self_type" : "_ZTIN7android8internal7details17HasToStringMethodINSt3__16vectorINS3_12basic_stringIcNS3_11char_traitsIcEENS3_9allocatorIcEEEENS8_ISA_EEEEE6$valueE",
   "size" : 4,
   "source_file" : "frameworks/native/libs/binder/ndk/include_cpp/android/binder_to_string.h",
   "underlying_type" : "_ZTIj"
  },
  {
   "alignment" : 4,
   "enum_fields" :
   [
    {
     "enum_field_value" : 0,
     "name" : "android::internal::details::HasToStringMethod<std::vector<unsigned char>>::value"
    }
   ],
   "linker_set_key" : "_ZTIN7android8internal7details17HasToStringMethodINSt3__16vectorIhNS3_9allocatorIhEEEEE6$valueE",
   "name" : "android::internal::details::HasToStringMethod<std::vector<unsigned char, std::allocator<unsigned char>>>::(unnamed enum at frameworks/native/libs/binder/ndk/include_cpp/android/binder_to_string.h:77:5)",
   "referenced_type" : "_ZTIN7android8internal7details17HasToStringMethodINSt3__16vectorIhNS3_9allocatorIhEEEEE6$valueE",
   "self_type" : "_ZTIN7android8internal7details17HasToStringMethodINSt3__16vectorIhNS3_9allocatorIhEEEEE6$valueE",
   "size" : 4,
   "source_file" : "frameworks/native/libs/binder/ndk/include_cpp/android/binder_to_string.h",
   "underlying_type" : "_ZTIj"
  },
  {
   "alignment" : 4,
   "enum_fields" :
   [
    {
     "enum_field_value" : 0,
     "name" : "android::internal::details::HasToStringMethod<std::vector<int>>::value"
    }
   ],
   "linker_set_key" : "_ZTIN7android8internal7details17HasToStringMethodINSt3__16vectorIiNS3_9allocatorIiEEEEE6$valueE",
   "name" : "android::internal::details::HasToStringMethod<std::vector<int, std::allocator<int>>>::(unnamed enum at frameworks/native/libs/binder/ndk/include_cpp/android/binder_to_string.h:77:5)",
   "referenced_type" : "_ZTIN7android8internal7details17HasToStringMethodINSt3__16vectorIiNS3_9allocatorIiEEEEE6$valueE",
   "self_type" : "_ZTIN7android8internal7details17HasToStringMethodINSt3__16vectorIiNS3_9allocatorIiEEEEE6$valueE",
   "size" : 4,
   "source_file" : "frameworks/native/libs/binder/ndk/include_cpp/android/binder_to_string.h",
   "underlying_type" : "_ZTIj"
  },
  {
   "alignment" : 4,
   "enum_fields" :
   [
    {
     "enum_field_value" : 1,
     "name" : "android::internal::details::HasToStringFunction<aidl::android::hardware::radio::RadioError>::value"
    }
   ],
   "linker_set_key" : "_ZTIN7android8internal7details19HasToStringFunctionIN4aidl7android8hardware5radio10RadioErrorEE6$valueE",
   "name" : "android::internal::details::HasToStringFunction<aidl::android::hardware::radio::RadioError>::(unnamed enum at frameworks/native/libs/binder/ndk/include_cpp/android/binder_to_string.h:89:5)",
   "referenced_type" : "_ZTIN7android8internal7details19HasToStringFunctionIN4aidl7android8hardware5radio10RadioErrorEE6$valueE",
   "self_type" : "_ZTIN7android8internal7details19HasToStringFunctionIN4aidl7android8hardware5radio10RadioErrorEE6$valueE",
   "size" : 4,
   "source_file" : "frameworks/native/libs/binder/ndk/include_cpp/android/binder_to_string.h",
   "underlying_type" : "_ZTIj"
  },
  {
   "alignment" : 4,
   "enum_fields" :
   [
    {
     "enum_field_value" : 1,
     "name" : "android::internal::details::HasToStringFunction<aidl::android::hardware::radio::AccessNetwork>::value"
    }
   ],
   "linker_set_key" : "_ZTIN7android8internal7details19HasToStringFunctionIN4aidl7android8hardware5radio13AccessNetworkEE6$valueE",
   "name" : "android::internal::details::HasToStringFunction<aidl::android::hardware::radio::AccessNetwork>::(unnamed enum at frameworks/native/libs/binder/ndk/include_cpp/android/binder_to_string.h:89:5)",
   "referenced_type" : "_ZTIN7android8internal7details19HasToStringFunctionIN4aidl7android8hardware5radio13AccessNetworkEE6$valueE",
   "self_type" : "_ZTIN7android8internal7details19HasToStringFunctionIN4aidl7android8hardware5radio13AccessNetworkEE6$valueE",
   "size" : 4,
   "source_file" : "frameworks/native/libs/binder/ndk/include_cpp/android/binder_to_string.h",
   "underlying_type" : "_ZTIj"
  },
  {
   "alignment" : 4,
   "enum_fields" :
   [
    {
     "enum_field_value" : 1,
     "name" : "android::internal::details::HasToStringFunction<aidl::android::hardware::radio::RadioTechnology>::value"
    }
   ],
   "linker_set_key" : "_ZTIN7android8internal7details19HasToStringFunctionIN4aidl7android8hardware5radio15RadioTechnologyEE6$valueE",
   "name" : "android::internal::details::HasToStringFunction<aidl::android::hardware::radio::RadioTechnology>::(unnamed enum at frameworks/native/libs/binder/ndk/include_cpp/android/binder_to_string.h:89:5)",
   "referenced_type" : "_ZTIN7android8internal7details19HasToStringFunctionIN4aidl7android8hardware5radio15RadioTechnologyEE6$valueE",
   "self_type" : "_ZTIN7android8internal7details19HasToStringFunctionIN4aidl7android8hardware5radio15RadioTechnologyEE6$valueE",
   "size" : 4,
   "source_file" : "frameworks/native/libs/binder/ndk/include_cpp/android/binder_to_string.h",
   "underlying_type" : "_ZTIj"
  },
  {
   "alignment" : 4,
   "enum_fields" :
   [
    {
     "enum_field_value" : 1,
     "name" : "android::internal::details::HasToStringFunction<aidl::android::hardware::radio::RadioResponseType>::value"
    }
   ],
   "linker_set_key" : "_ZTIN7android8internal7details19HasToStringFunctionIN4aidl7android8hardware5radio17RadioResponseTypeEE6$valueE",
   "name" : "android::internal::details::HasToStringFunction<aidl::android::hardware::radio::RadioResponseType>::(unnamed enum at frameworks/native/libs/binder/ndk/include_cpp/android/binder_to_string.h:89:5)",
   "referenced_type" : "_ZTIN7android8internal7details19HasToStringFunctionIN4aidl7android8hardware5radio17RadioResponseTypeEE6$valueE",
   "self_type" : "_ZTIN7android8internal7details19HasToStringFunctionIN4aidl7android8hardware5radio17RadioResponseTypeEE6$valueE",
   "size" : 4,
   "source_file" : "frameworks/native/libs/binder/ndk/include_cpp/android/binder_to_string.h",
   "underlying_type" : "_ZTIj"
  },
  {
   "alignment" : 4,
   "enum_fields" :
   [
    {
     "enum_field_value" : 1,
     "name" : "android::internal::details::HasToStringFunction<aidl::android::hardware::radio::network::GeranBands>::value"
    }
   ],
   "linker_set_key" : "_ZTIN7android8internal7details19HasToStringFunctionIN4aidl7android8hardware5radio7network10GeranBandsEE6$valueE",
   "name" : "android::internal::details::HasToStringFunction<aidl::android::hardware::radio::network::GeranBands>::(unnamed enum at frameworks/native/libs/binder/ndk/include_cpp/android/binder_to_string.h:89:5)",
   "referenced_type" : "_ZTIN7android8internal7details19HasToStringFunctionIN4aidl7android8hardware5radio7network10GeranBandsEE6$valueE",
   "self_type" : "_ZTIN7android8internal7details19HasToStringFunctionIN4aidl7android8hardware5radio7network10GeranBandsEE6$valueE",
   "size" : 4,
   "source_file" : "frameworks/native/libs/binder/ndk/include_cpp/android/binder_to_string.h",
   "underlying_type" : "_ZTIj"
  },
  {
   "alignment" : 4,
   "enum_fields" :
   [
    {
     "enum_field_value" : 1,
     "name" : "android::internal::details::HasToStringFunction<aidl::android::hardware::radio::network::NgranBands>::value"
    }
   ],
   "linker_set_key" : "_ZTIN7android8internal7details19HasToStringFunctionIN4aidl7android8hardware5radio7network10NgranBandsEE6$valueE",
   "name" : "android::internal::details::HasToStringFunction<aidl::android::hardware::radio::network::NgranBands>::(unnamed enum at frameworks/native/libs/binder/ndk/include_cpp/android/binder_to_string.h:89:5)",
   "referenced_type" : "_ZTIN7android8internal7details19HasToStringFunctionIN4aidl7android8hardware5radio7network10NgranBandsEE6$valueE",
   "self_type" : "_ZTIN7android8internal7details19HasToStringFunctionIN4aidl7android8hardware5radio7network10NgranBandsEE6$valueE",
   "size" : 4,
   "source_file" : "frameworks/native/libs/binder/ndk/include_cpp/android/binder_to_string.h",
   "underlying_type" : "_ZTIj"
  },
  {
   "alignment" : 4,
   "enum_fields" :
   [
    {
     "enum_field_value" : 1,
     "name" : "android::internal::details::HasToStringFunction<aidl::android::hardware::radio::network::UtranBands>::value"
    }
   ],
   "linker_set_key" : "_ZTIN7android8internal7details19HasToStringFunctionIN4aidl7android8hardware5radio7network10UtranBandsEE6$valueE",
   "name" : "android::internal::details::HasToStringFunction<aidl::android::hardware::radio::network::UtranBands>::(unnamed enum at frameworks/native/libs/binder/ndk/include_cpp/android/binder_to_string.h:89:5)",
   "referenced_type" : "_ZTIN7android8internal7details19HasToStringFunctionIN4aidl7android8hardware5radio7network10UtranBandsEE6$valueE",
   "self_type" : "_ZTIN7android8internal7details19HasToStringFunctionIN4aidl7android8hardware5radio7network10UtranBandsEE6$valueE",
   "size" : 4,
   "source_file" : "frameworks/native/libs/binder/ndk/include_cpp/android/binder_to_string.h",
   "underlying_type" : "_ZTIj"
  },
  {
   "alignment" : 4,
   "enum_fields" :
   [
    {
     "enum_field_value" : 1,
     "name" : "android::internal::details::HasToStringFunction<aidl::android::hardware::radio::network::EutranBands>::value"
    }
   ],
   "linker_set_key" : "_ZTIN7android8internal7details19HasToStringFunctionIN4aidl7android8hardware5radio7network11EutranBandsEE6$valueE",
   "name" : "android::internal::details::HasToStringFunction<aidl::android::hardware::radio::network::EutranBands>::(unnamed enum at frameworks/native/libs/binder/ndk/include_cpp/android/binder_to_string.h:89:5)",
   "referenced_type" : "_ZTIN7android8internal7details19HasToStringFunctionIN4aidl7android8hardware5radio7network11EutranBandsEE6$valueE",
   "self_type" : "_ZTIN7android8internal7details19HasToStringFunctionIN4aidl7android8hardware5radio7network11EutranBandsEE6$valueE",
   "size" : 4,
   "source_file" : "frameworks/native/libs/binder/ndk/include_cpp/android/binder_to_string.h",
   "underlying_type" : "_ZTIj"
  },
  {
   "alignment" : 4,
   "enum_fields" :
   [
    {
     "enum_field_value" : 1,
     "name" : "android::internal::details::HasToStringFunction<aidl::android::hardware::radio::network::CellConnectionStatus>::value"
    }
   ],
   "linker_set_key" : "_ZTIN7android8internal7details19HasToStringFunctionIN4aidl7android8hardware5radio7network20CellConnectionStatusEE6$valueE",
   "name" : "android::internal::details::HasToStringFunction<aidl::android::hardware::radio::network::CellConnectionStatus>::(unnamed enum at frameworks/native/libs/binder/ndk/include_cpp/android/binder_to_string.h:89:5)",
   "referenced_type" : "_ZTIN7android8internal7details19HasToStringFunctionIN4aidl7android8hardware5radio7network20CellConnectionStatusEE6$valueE",
   "self_type" : "_ZTIN7android8internal7details19HasToStringFunctionIN4aidl7android8hardware5radio7network20CellConnectionStatusEE6$valueE",
   "size" : 4,
   "source_file" : "frameworks/native/libs/binder/ndk/include_cpp/android/binder_to_string.h",
   "underlying_type" : "_ZTIj"
  },
  {
   "alignment" : 4,
   "enum_fields" :
   [
    {
     "enum_field_value" : 1,
     "name" : "android::internal::details::HasToStringFunction<aidl::android::hardware::radio::network::RegistrationFailCause>::value"
    }
   ],
   "linker_set_key" : "_ZTIN7android8internal7details19HasToStringFunctionIN4aidl7android8hardware5radio7network21RegistrationFailCauseEE6$valueE",
   "name" : "android::internal::details::HasToStringFunction<aidl::android::hardware::radio::network::RegistrationFailCause>::(unnamed enum at frameworks/native/libs/binder/ndk/include_cpp/android/binder_to_string.h:89:5)",
   "referenced_type" : "_ZTIN7android8internal7details19HasToStringFunctionIN4aidl7android8hardware5radio7network21RegistrationFailCauseEE6$valueE",
   "self_type" : "_ZTIN7android8internal7details19HasToStringFunctionIN4aidl7android8hardware5radio7network21RegistrationFailCauseEE6$valueE",
   "size" : 4,
   "source_file" : "frameworks/native/libs/binder/ndk/include_cpp/android/binder_to_string.h",
   "underlying_type" : "_ZTIj"
  },
  {
   "alignment" : 4,
   "enum_fields" :
   [
    {
     "enum_field_value" : 1,
     "name" : "android::internal::details::HasToStringFunction<aidl::android::hardware::radio::network::RegState>::value"
    }
   ],
   "linker_set_key" : "_ZTIN7android8internal7details19HasToStringFunctionIN4aidl7android8hardware5radio7network8RegStateEE6$valueE",
   "name" : "android::internal::details::HasToStringFunction<aidl::android::hardware::radio::network::RegState>::(unnamed enum at frameworks/native/libs/binder/ndk/include_cpp/android/binder_to_string.h:89:5)",
   "referenced_type" : "_ZTIN7android8internal7details19HasToStringFunctionIN4aidl7android8hardware5radio7network8RegStateEE6$valueE",
   "self_type" : "_ZTIN7android8internal7details19HasToStringFunctionIN4aidl7android8hardware5radio7network8RegStateEE6$valueE",
   "size" : 4,
   "source_file" : "frameworks/native/libs/binder/ndk/include_cpp/android/binder_to_string.h",
   "underlying_type" : "_ZTIj"
  },
  {
   "alignment" : 4,
   "enum_fields" :
   [
    {
     "enum_field_value" : 0,
     "name" : "android::internal::details::HasToStringFunction<std::vector<aidl::android::hardware::radio::network::GeranBands>>::value"
    }
   ],
   "linker_set_key" : "_ZTIN7android8internal7details19HasToStringFunctionINSt3__16vectorIN4aidl7android8hardware5radio7network10GeranBandsENS3_9allocatorISA_EEEEE6$valueE",
   "name" : "android::internal::details::HasToStringFunction<std::vector<aidl::android::hardware::radio::network::GeranBands, std::allocator<aidl::android::hardware::radio::network::GeranBands>>>::(unnamed enum at frameworks/native/libs/binder/ndk/include_cpp/android/binder_to_string.h:89:5)",
   "referenced_type" : "_ZTIN7android8internal7details19HasToStringFunctionINSt3__16vectorIN4aidl7android8hardware5radio7network10GeranBandsENS3_9allocatorISA_EEEEE6$valueE",
   "self_type" : "_ZTIN7android8internal7details19HasToStringFunctionINSt3__16vectorIN4aidl7android8hardware5radio7network10GeranBandsENS3_9allocatorISA_EEEEE6$valueE",
   "size" : 4,
   "source_file" : "frameworks/native/libs/binder/ndk/include_cpp/android/binder_to_string.h",
   "underlying_type" : "_ZTIj"
  },
  {
   "alignment" : 4,
   "enum_fields" :
   [
    {
     "enum_field_value" : 0,
     "name" : "android::internal::details::HasToStringFunction<std::vector<aidl::android::hardware::radio::network::NgranBands>>::value"
    }
   ],
   "linker_set_key" : "_ZTIN7android8internal7details19HasToStringFunctionINSt3__16vectorIN4aidl7android8hardware5radio7network10NgranBandsENS3_9allocatorISA_EEEEE6$valueE",
   "name" : "android::internal::details::HasToStringFunction<std::vector<aidl::android::hardware::radio::network::NgranBands, std::allocator<aidl::android::hardware::radio::network::NgranBands>>>::(unnamed enum at frameworks/native/libs/binder/ndk/include_cpp/android/binder_to_string.h:89:5)",
   "referenced_type" : "_ZTIN7android8internal7details19HasToStringFunctionINSt3__16vectorIN4aidl7android8hardware5radio7network10NgranBandsENS3_9allocatorISA_EEEEE6$valueE",
   "self_type" : "_ZTIN7android8internal7details19HasToStringFunctionINSt3__16vectorIN4aidl7android8hardware5radio7network10NgranBandsENS3_9allocatorISA_EEEEE6$valueE",
   "size" : 4,
   "source_file" : "frameworks/native/libs/binder/ndk/include_cpp/android/binder_to_string.h",
   "underlying_type" : "_ZTIj"
  },
  {
   "alignment" : 4,
   "enum_fields" :
   [
    {
     "enum_field_value" : 0,
     "name" : "android::internal::details::HasToStringFunction<std::vector<aidl::android::hardware::radio::network::UtranBands>>::value"
    }
   ],
   "linker_set_key" : "_ZTIN7android8internal7details19HasToStringFunctionINSt3__16vectorIN4aidl7android8hardware5radio7network10UtranBandsENS3_9allocatorISA_EEEEE6$valueE",
   "name" : "android::internal::details::HasToStringFunction<std::vector<aidl::android::hardware::radio::network::UtranBands, std::allocator<aidl::android::hardware::radio::network::UtranBands>>>::(unnamed enum at frameworks/native/libs/binder/ndk/include_cpp/android/binder_to_string.h:89:5)",
   "referenced_type" : "_ZTIN7android8internal7details19HasToStringFunctionINSt3__16vectorIN4aidl7android8hardware5radio7network10UtranBandsENS3_9allocatorISA_EEEEE6$valueE",
   "self_type" : "_ZTIN7android8internal7details19HasToStringFunctionINSt3__16vectorIN4aidl7android8hardware5radio7network10UtranBandsENS3_9allocatorISA_EEEEE6$valueE",
   "size" : 4,
   "source_file" : "frameworks/native/libs/binder/ndk/include_cpp/android/binder_to_string.h",
   "underlying_type" : "_ZTIj"
  },
  {
   "alignment" : 4,
   "enum_fields" :
   [
    {
     "enum_field_value" : 0,
     "name" : "android::internal::details::HasToStringFunction<std::vector<aidl::android::hardware::radio::network::EutranBands>>::value"
    }
   ],
   "linker_set_key" : "_ZTIN7android8internal7details19HasToStringFunctionINSt3__16vectorIN4aidl7android8hardware5radio7network11EutranBandsENS3_9allocatorISA_EEEEE6$valueE",
   "name" : "android::internal::details::HasToStringFunction<std::vector<aidl::android::hardware::radio::network::EutranBands, std::allocator<aidl::android::hardware::radio::network::EutranBands>>>::(unnamed enum at frameworks/native/libs/binder/ndk/include_cpp/android/binder_to_string.h:89:5)",
   "referenced_type" : "_ZTIN7android8internal7details19HasToStringFunctionINSt3__16vectorIN4aidl7android8hardware5radio7network11EutranBandsENS3_9allocatorISA_EEEEE6$valueE",
   "self_type" : "_ZTIN7android8internal7details19HasToStringFunctionINSt3__16vectorIN4aidl7android8hardware5radio7network11EutranBandsENS3_9allocatorISA_EEEEE6$valueE",
   "size" : 4,
   "source_file" : "frameworks/native/libs/binder/ndk/include_cpp/android/binder_to_string.h",
   "underlying_type" : "_ZTIj"
  },
  {
   "alignment" : 4,
   "enum_fields" :
   [
    {
     "enum_field_value" : 0,
     "name" : "android::internal::details::HasToStringFunction<std::vector<aidl::android::hardware::radio::network::RadioAccessSpecifier>>::value"
    }
   ],
   "linker_set_key" : "_ZTIN7android8internal7details19HasToStringFunctionINSt3__16vectorIN4aidl7android8hardware5radio7network20RadioAccessSpecifierENS3_9allocatorISA_EEEEE6$valueE",
   "name" : "android::internal::details::HasToStringFunction<std::vector<aidl::android::hardware::radio::network::RadioAccessSpecifier, std::allocator<aidl::android::hardware::radio::network::RadioAccessSpecifier>>>::(unnamed enum at frameworks/native/libs/binder/ndk/include_cpp/android/binder_to_string.h:89:5)",
   "referenced_type" : "_ZTIN7android8internal7details19HasToStringFunctionINSt3__16vectorIN4aidl7android8hardware5radio7network20RadioAccessSpecifierENS3_9allocatorISA_EEEEE6$valueE",
   "self_type" : "_ZTIN7android8internal7details19HasToStringFunctionINSt3__16vectorIN4aidl7android8hardware5radio7network20RadioAccessSpecifierENS3_9allocatorISA_EEEEE6$valueE",
   "size" : 4,
   "source_file" : "frameworks/native/libs/binder/ndk/include_cpp/android/binder_to_string.h",
   "underlying_type" : "_ZTIj"
  },
  {
   "alignment" : 4,
   "enum_fields" :
   [
    {
     "enum_field_value" : 0,
     "name" : "android::internal::details::HasToStringFunction<std::vector<aidl::android::hardware::radio::network::CellInfo>>::value"
    }
   ],
   "linker_set_key" : "_ZTIN7android8internal7details19HasToStringFunctionINSt3__16vectorIN4aidl7android8hardware5radio7network8CellInfoENS3_9allocatorISA_EEEEE6$valueE",
   "name" : "android::internal::details::HasToStringFunction<std::vector<aidl::android::hardware::radio::network::CellInfo, std::allocator<aidl::android::hardware::radio::network::CellInfo>>>::(unnamed enum at frameworks/native/libs/binder/ndk/include_cpp/android/binder_to_string.h:89:5)",
   "referenced_type" : "_ZTIN7android8internal7details19HasToStringFunctionINSt3__16vectorIN4aidl7android8hardware5radio7network8CellInfoENS3_9allocatorISA_EEEEE6$valueE",
   "self_type" : "_ZTIN7android8internal7details19HasToStringFunctionINSt3__16vectorIN4aidl7android8hardware5radio7network8CellInfoENS3_9allocatorISA_EEEEE6$valueE",
   "size" : 4,
   "source_file" : "frameworks/native/libs/binder/ndk/include_cpp/android/binder_to_string.h",
   "underlying_type" : "_ZTIj"
  },
  {
   "alignment" : 4,
   "enum_fields" :
   [
    {
     "enum_field_value" : 0,
     "name" : "android::internal::details::HasToStringFunction<std::vector<std::basic_string<char>>>::value"
    }
   ],
   "linker_set_key" : "_ZTIN7android8internal7details19HasToStringFunctionINSt3__16vectorINS3_12basic_stringIcNS3_11char_traitsIcEENS3_9allocatorIcEEEENS8_ISA_EEEEE6$valueE",
   "name" : "android::internal::details::HasToStringFunction<std::vector<std::basic_string<char, std::char_traits<char>, std::allocator<char>>, std::allocator<std::basic_string<char, std::char_traits<char>, std::allocator<char>>>>>::(unnamed enum at frameworks/native/libs/binder/ndk/include_cpp/android/binder_to_string.h:89:5)",
   "referenced_type" : "_ZTIN7android8internal7details19HasToStringFunctionINSt3__16vectorINS3_12basic_stringIcNS3_11char_traitsIcEENS3_9allocatorIcEEEENS8_ISA_EEEEE6$valueE",
   "self_type" : "_ZTIN7android8internal7details19HasToStringFunctionINSt3__16vectorINS3_12basic_stringIcNS3_11char_traitsIcEENS3_9allocatorIcEEEENS8_ISA_EEEEE6$valueE",
   "size" : 4,
   "source_file" : "frameworks/native/libs/binder/ndk/include_cpp/android/binder_to_string.h",
   "underlying_type" : "_ZTIj"
  },
  {
   "alignment" : 4,
   "enum_fields" :
   [
    {
     "enum_field_value" : 0,
     "name" : "android::internal::details::HasToStringFunction<std::vector<unsigned char>>::value"
    }
   ],
   "linker_set_key" : "_ZTIN7android8internal7details19HasToStringFunctionINSt3__16vectorIhNS3_9allocatorIhEEEEE6$valueE",
   "name" : "android::internal::details::HasToStringFunction<std::vector<unsigned char, std::allocator<unsigned char>>>::(unnamed enum at frameworks/native/libs/binder/ndk/include_cpp/android/binder_to_string.h:89:5)",
   "referenced_type" : "_ZTIN7android8internal7details19HasToStringFunctionINSt3__16vectorIhNS3_9allocatorIhEEEEE6$valueE",
   "self_type" : "_ZTIN7android8internal7details19HasToStringFunctionINSt3__16vectorIhNS3_9allocatorIhEEEEE6$valueE",
   "size" : 4,
   "source_file" : "frameworks/native/libs/binder/ndk/include_cpp/android/binder_to_string.h",
   "underlying_type" : "_ZTIj"
  },
  {
   "alignment" : 4,
   "enum_fields" :
   [
    {
     "enum_field_value" : 0,
     "name" : "android::internal::details::HasToStringFunction<std::vector<int>>::value"
    }
   ],
   "linker_set_key" : "_ZTIN7android8internal7details19HasToStringFunctionINSt3__16vectorIiNS3_9allocatorIiEEEEE6$valueE",
   "name" : "android::internal::details::HasToStringFunction<std::vector<int, std::allocator<int>>>::(unnamed enum at frameworks/native/libs/binder/ndk/include_cpp/android/binder_to_string.h:89:5)",
   "referenced_type" : "_ZTIN7android8internal7details19HasToStringFunctionINSt3__16vectorIiNS3_9allocatorIiEEEEE6$valueE",
   "self_type" : "_ZTIN7android8internal7details19HasToStringFunctionINSt3__16vectorIiNS3_9allocatorIiEEEEE6$valueE",
   "size" : 4,
   "source_file" : "frameworks/native/libs/binder/ndk/include_cpp/android/binder_to_string.h",
   "underlying_type" : "_ZTIj"
  }
 ],
 "function_types" :
 [
  {
   "alignment" : 4,
   "linker_set_key" : "_ZTIFiP8AIBinderjPK7AParcelPS1_E",
   "name" : "int (AIBinder *, unsigned int, const AParcel *, AParcel *)",
   "parameters" :
   [
    {
     "referenced_type" : "_ZTIP8AIBinder"
    },
    {
     "referenced_type" : "_ZTIj"
    },
    {
     "referenced_type" : "_ZTIPK7AParcel"
    },
    {
     "referenced_type" : "_ZTIP7AParcel"
    }
   ],
   "referenced_type" : "_ZTIFiP8AIBinderjPK7AParcelPS1_E",
   "return_type" : "_ZTIi",
   "self_type" : "_ZTIFiP8AIBinderjPK7AParcelPS1_E",
   "source_file" : "frameworks/native/libs/binder/ndk/include_cpp/android/binder_interface_utils.h"
  }
 ],
 "functions" :
 [
  {
   "function_name" : "ndk::BnCInterface<aidl::android::hardware::radio::network::IRadioNetwork>::asBinder",
   "linker_set_key" : "_ZN3ndk12BnCInterfaceIN4aidl7android8hardware5radio7network13IRadioNetworkEE8asBinderEv",
   "parameters" :
   [
    {
     "is_this_ptr" : true,
     "referenced_type" : "_ZTIPN3ndk12BnCInterfaceIN4aidl7android8hardware5radio7network13IRadioNetworkEEE"
    }
   ],
   "return_type" : "_ZTIN3ndk10SpAIBinderE",
   "source_file" : "frameworks/native/libs/binder/ndk/include_cpp/android/binder_interface_utils.h"
  },
  {
   "function_name" : "ndk::BnCInterface<aidl::android::hardware::radio::network::IRadioNetworkResponse>::asBinder",
   "linker_set_key" : "_ZN3ndk12BnCInterfaceIN4aidl7android8hardware5radio7network21IRadioNetworkResponseEE8asBinderEv",
   "parameters" :
   [
    {
     "is_this_ptr" : true,
     "referenced_type" : "_ZTIPN3ndk12BnCInterfaceIN4aidl7android8hardware5radio7network21IRadioNetworkResponseEEE"
    }
   ],
   "return_type" : "_ZTIN3ndk10SpAIBinderE",
   "source_file" : "frameworks/native/libs/binder/ndk/include_cpp/android/binder_interface_utils.h"
  },
  {
   "function_name" : "ndk::BnCInterface<aidl::android::hardware::radio::network::IRadioNetworkIndication>::asBinder",
   "linker_set_key" : "_ZN3ndk12BnCInterfaceIN4aidl7android8hardware5radio7network23IRadioNetworkIndicationEE8asBinderEv",
   "parameters" :
   [
    {
     "is_this_ptr" : true,
     "referenced_type" : "_ZTIPN3ndk12BnCInterfaceIN4aidl7android8hardware5radio7network23IRadioNetworkIndicationEEE"
    }
   ],
   "return_type" : "_ZTIN3ndk10SpAIBinderE",
   "source_file" : "frameworks/native/libs/binder/ndk/include_cpp/android/binder_interface_utils.h"
  },
  {
   "function_name" : "ndk::BpCInterface<aidl::android::hardware::radio::network::IRadioNetwork>::asBinder",
   "linker_set_key" : "_ZN3ndk12BpCInterfaceIN4aidl7android8hardware5radio7network13IRadioNetworkEE8asBinderEv",
   "parameters" :
   [
    {
     "is_this_ptr" : true,
     "referenced_type" : "_ZTIPN3ndk12BpCInterfaceIN4aidl7android8hardware5radio7network13IRadioNetworkEEE"
    }
   ],
   "return_type" : "_ZTIN3ndk10SpAIBinderE",
   "source_file" : "frameworks/native/libs/binder/ndk/include_cpp/android/binder_interface_utils.h"
  },
  {
   "function_name" : "ndk::BpCInterface<aidl::android::hardware::radio::network::IRadioNetworkResponse>::asBinder",
   "linker_set_key" : "_ZN3ndk12BpCInterfaceIN4aidl7android8hardware5radio7network21IRadioNetworkResponseEE8asBinderEv",
   "parameters" :
   [
    {
     "is_this_ptr" : true,
     "referenced_type" : "_ZTIPN3ndk12BpCInterfaceIN4aidl7android8hardware5radio7network21IRadioNetworkResponseEEE"
    }
   ],
   "return_type" : "_ZTIN3ndk10SpAIBinderE",
   "source_file" : "frameworks/native/libs/binder/ndk/include_cpp/android/binder_interface_utils.h"
  },
  {
   "function_name" : "ndk::BpCInterface<aidl::android::hardware::radio::network::IRadioNetworkIndication>::asBinder",
   "linker_set_key" : "_ZN3ndk12BpCInterfaceIN4aidl7android8hardware5radio7network23IRadioNetworkIndicationEE8asBinderEv",
   "parameters" :
   [
    {
     "is_this_ptr" : true,
     "referenced_type" : "_ZTIPN3ndk12BpCInterfaceIN4aidl7android8hardware5radio7network23IRadioNetworkIndicationEEE"
    }
   ],
   "return_type" : "_ZTIN3ndk10SpAIBinderE",
   "source_file" : "frameworks/native/libs/binder/ndk/include_cpp/android/binder_interface_utils.h"
  },
  {
   "function_name" : "ndk::AParcel_readStdVectorParcelableElement",
   "linker_set_key" : "_ZN3ndk38AParcel_readStdVectorParcelableElementIN4aidl7android8hardware5radio7network11BarringInfoEEEiPK7AParcelPvj",
   "parameters" :
   [
    {
     "referenced_type" : "_ZTIPK7AParcel"
    },
    {
     "referenced_type" : "_ZTIPv"
    },
    {
     "referenced_type" : "_ZTIj"
    }
   ],
   "return_type" : "_ZTIi",
   "source_file" : "frameworks/native/libs/binder/ndk/include_cpp/android/binder_parcel_utils.h",
   "template_args" :
   [
    "_ZTIN4aidl7android8hardware5radio7network11BarringInfoE"
   ]
  },
  {
   "function_name" : "ndk::AParcel_readStdVectorParcelableElement",
   "linker_set_key" : "_ZN3ndk38AParcel_readStdVectorParcelableElementIN4aidl7android8hardware5radio7network12OperatorInfoEEEiPK7AParcelPvj",
   "parameters" :
   [
    {
     "referenced_type" : "_ZTIPK7AParcel"
    },
    {
     "referenced_type" : "_ZTIPv"
    },
    {
     "referenced_type" : "_ZTIj"
    }
   ],
   "return_type" : "_ZTIi",
   "source_file" : "frameworks/native/libs/binder/ndk/include_cpp/android/binder_parcel_utils.h",
   "template_args" :
   [
    "_ZTIN4aidl7android8hardware5radio7network12OperatorInfoE"
   ]
  },
  {
   "function_name" : "ndk::AParcel_readStdVectorParcelableElement",
   "linker_set_key" : "_ZN3ndk38AParcel_readStdVectorParcelableElementIN4aidl7android8hardware5radio7network19SignalThresholdInfoEEEiPK7AParcelPvj",
   "parameters" :
   [
    {
     "referenced_type" : "_ZTIPK7AParcel"
    },
    {
     "referenced_type" : "_ZTIPv"
    },
    {
     "referenced_type" : "_ZTIj"
    }
   ],
   "return_type" : "_ZTIi",
   "source_file" : "frameworks/native/libs/binder/ndk/include_cpp/android/binder_parcel_utils.h",
   "template_args" :
   [
    "_ZTIN4aidl7android8hardware5radio7network19SignalThresholdInfoE"
   ]
  },
  {
   "function_name" : "ndk::AParcel_readStdVectorParcelableElement",
   "linker_set_key" : "_ZN3ndk38AParcel_readStdVectorParcelableElementIN4aidl7android8hardware5radio7network20RadioAccessSpecifierEEEiPK7AParcelPvj",
   "parameters" :
   [
    {
     "referenced_type" : "_ZTIPK7AParcel"
    },
    {
     "referenced_type" : "_ZTIPv"
    },
    {
     "referenced_type" : "_ZTIj"
    }
   ],
   "return_type" : "_ZTIi",
   "source_file" : "frameworks/native/libs/binder/ndk/include_cpp/android/binder_parcel_utils.h",
   "template_args" :
   [
    "_ZTIN4aidl7android8hardware5radio7network20RadioAccessSpecifierE"
   ]
  },
  {
   "function_name" : "ndk::AParcel_readStdVectorParcelableElement",
   "linker_set_key" : "_ZN3ndk38AParcel_readStdVectorParcelableElementIN4aidl7android8hardware5radio7network21PhysicalChannelConfigEEEiPK7AParcelPvj",
   "parameters" :
   [
    {
     "referenced_type" : "_ZTIPK7AParcel"
    },
    {
     "referenced_type" : "_ZTIPv"
    },
    {
     "referenced_type" : "_ZTIj"
    }
   ],
   "return_type" : "_ZTIi",
   "source_file" : "frameworks/native/libs/binder/ndk/include_cpp/android/binder_parcel_utils.h",
   "template_args" :
   [
    "_ZTIN4aidl7android8hardware5radio7network21PhysicalChannelConfigE"
   ]
  },
  {
   "function_name" : "ndk::AParcel_readStdVectorParcelableElement",
   "linker_set_key" : "_ZN3ndk38AParcel_readStdVectorParcelableElementIN4aidl7android8hardware5radio7network8CellInfoEEEiPK7AParcelPvj",
   "parameters" :
   [
    {
     "referenced_type" : "_ZTIPK7AParcel"
    },
    {
     "referenced_type" : "_ZTIPv"
    },
    {
     "referenced_type" : "_ZTIj"
    }
   ],
   "return_type" : "_ZTIi",
   "source_file" : "frameworks/native/libs/binder/ndk/include_cpp/android/binder_parcel_utils.h",
   "template_args" :
   [
    "_ZTIN4aidl7android8hardware5radio7network8CellInfoE"
   ]
  },
  {
   "function_name" : "ndk::AParcel_writeStdVectorParcelableElement",
   "linker_set_key" : "_ZN3ndk39AParcel_writeStdVectorParcelableElementIN4aidl7android8hardware5radio7network11BarringInfoEEEiP7AParcelPKvj",
   "parameters" :
   [
    {
     "referenced_type" : "_ZTIP7AParcel"
    },
    {
     "referenced_type" : "_ZTIPKv"
    },
    {
     "referenced_type" : "_ZTIj"
    }
   ],
   "return_type" : "_ZTIi",
   "source_file" : "frameworks/native/libs/binder/ndk/include_cpp/android/binder_parcel_utils.h",
   "template_args" :
   [
    "_ZTIN4aidl7android8hardware5radio7network11BarringInfoE"
   ]
  },
  {
   "function_name" : "ndk::AParcel_writeStdVectorParcelableElement",
   "linker_set_key" : "_ZN3ndk39AParcel_writeStdVectorParcelableElementIN4aidl7android8hardware5radio7network12OperatorInfoEEEiP7AParcelPKvj",
   "parameters" :
   [
    {
     "referenced_type" : "_ZTIP7AParcel"
    },
    {
     "referenced_type" : "_ZTIPKv"
    },
    {
     "referenced_type" : "_ZTIj"
    }
   ],
   "return_type" : "_ZTIi",
   "source_file" : "frameworks/native/libs/binder/ndk/include_cpp/android/binder_parcel_utils.h",
   "template_args" :
   [
    "_ZTIN4aidl7android8hardware5radio7network12OperatorInfoE"
   ]
  },
  {
   "function_name" : "ndk::AParcel_writeStdVectorParcelableElement",
   "linker_set_key" : "_ZN3ndk39AParcel_writeStdVectorParcelableElementIN4aidl7android8hardware5radio7network19SignalThresholdInfoEEEiP7AParcelPKvj",
   "parameters" :
   [
    {
     "referenced_type" : "_ZTIP7AParcel"
    },
    {
     "referenced_type" : "_ZTIPKv"
    },
    {
     "referenced_type" : "_ZTIj"
    }
   ],
   "return_type" : "_ZTIi",
   "source_file" : "frameworks/native/libs/binder/ndk/include_cpp/android/binder_parcel_utils.h",
   "template_args" :
   [
    "_ZTIN4aidl7android8hardware5radio7network19SignalThresholdInfoE"
   ]
  },
  {
   "function_name" : "ndk::AParcel_writeStdVectorParcelableElement",
   "linker_set_key" : "_ZN3ndk39AParcel_writeStdVectorParcelableElementIN4aidl7android8hardware5radio7network20RadioAccessSpecifierEEEiP7AParcelPKvj",
   "parameters" :
   [
    {
     "referenced_type" : "_ZTIP7AParcel"
    },
    {
     "referenced_type" : "_ZTIPKv"
    },
    {
     "referenced_type" : "_ZTIj"
    }
   ],
   "return_type" : "_ZTIi",
   "source_file" : "frameworks/native/libs/binder/ndk/include_cpp/android/binder_parcel_utils.h",
   "template_args" :
   [
    "_ZTIN4aidl7android8hardware5radio7network20RadioAccessSpecifierE"
   ]
  },
  {
   "function_name" : "ndk::AParcel_writeStdVectorParcelableElement",
   "linker_set_key" : "_ZN3ndk39AParcel_writeStdVectorParcelableElementIN4aidl7android8hardware5radio7network21PhysicalChannelConfigEEEiP7AParcelPKvj",
   "parameters" :
   [
    {
     "referenced_type" : "_ZTIP7AParcel"
    },
    {
     "referenced_type" : "_ZTIPKv"
    },
    {
     "referenced_type" : "_ZTIj"
    }
   ],
   "return_type" : "_ZTIi",
   "source_file" : "frameworks/native/libs/binder/ndk/include_cpp/android/binder_parcel_utils.h",
   "template_args" :
   [
    "_ZTIN4aidl7android8hardware5radio7network21PhysicalChannelConfigE"
   ]
  },
  {
   "function_name" : "ndk::AParcel_writeStdVectorParcelableElement",
   "linker_set_key" : "_ZN3ndk39AParcel_writeStdVectorParcelableElementIN4aidl7android8hardware5radio7network8CellInfoEEEiP7AParcelPKvj",
   "parameters" :
   [
    {
     "referenced_type" : "_ZTIP7AParcel"
    },
    {
     "referenced_type" : "_ZTIPKv"
    },
    {
     "referenced_type" : "_ZTIj"
    }
   ],
   "return_type" : "_ZTIi",
   "source_file" : "frameworks/native/libs/binder/ndk/include_cpp/android/binder_parcel_utils.h",
   "template_args" :
   [
    "_ZTIN4aidl7android8hardware5radio7network8CellInfoE"
   ]
  },
  {
   "function_name" : "aidl::android::hardware::radio::network::CellInfoNr::readFromParcel",
   "linker_set_key" : "_ZN4aidl7android8hardware5radio7network10CellInfoNr14readFromParcelEPK7AParcel",
   "parameters" :
   [
    {
     "is_this_ptr" : true,
     "referenced_type" : "_ZTIPN4aidl7android8hardware5radio7network10CellInfoNrE"
    },
    {
     "referenced_type" : "_ZTIPK7AParcel"
    }
   ],
   "return_type" : "_ZTIi",
   "source_file" : "out/soong/.intermediates/hardware/interfaces/radio/aidl/android.hardware.radio.network-V1-ndk-source/gen/include/aidl/android/hardware/radio/network/CellInfoNr.h"
  },
  {
   "function_name" : "aidl::android::hardware::radio::network::NrVopsInfo::readFromParcel",
   "linker_set_key" : "_ZN4aidl7android8hardware5radio7network10NrVopsInfo14readFromParcelEPK7AParcel",
   "parameters" :
   [
    {
     "is_this_ptr" : true,
     "referenced_type" : "_ZTIPN4aidl7android8hardware5radio7network10NrVopsInfoE"
    },
    {
     "referenced_type" : "_ZTIPK7AParcel"
    }
   ],
   "return_type" : "_ZTIi",
   "source_file" : "out/soong/.intermediates/hardware/interfaces/radio/aidl/android.hardware.radio.network-V1-ndk-source/gen/include/aidl/android/hardware/radio/network/NrVopsInfo.h"
  },
  {
   "function_name" : "aidl::android::hardware::radio::network::BarringInfo::readFromParcel",
   "linker_set_key" : "_ZN4aidl7android8hardware5radio7network11BarringInfo14readFromParcelEPK7AParcel",
   "parameters" :
   [
    {
     "is_this_ptr" : true,
     "referenced_type" : "_ZTIPN4aidl7android8hardware5radio7network11BarringInfoE"
    },
    {
     "referenced_type" : "_ZTIPK7AParcel"
    }
   ],
   "return_type" : "_ZTIi",
   "source_file" : "out/soong/.intermediates/hardware/interfaces/radio/aidl/android.hardware.radio.network-V1-ndk-source/gen/include/aidl/android/hardware/radio/network/BarringInfo.h"
  },
  {
   "function_name" : "aidl::android::hardware::radio::network::CellInfoGsm::readFromParcel",
   "linker_set_key" : "_ZN4aidl7android8hardware5radio7network11CellInfoGsm14readFromParcelEPK7AParcel",
   "parameters" :
   [
    {
     "is_this_ptr" : true,
     "referenced_type" : "_ZTIPN4aidl7android8hardware5radio7network11CellInfoGsmE"
    },
    {
     "referenced_type" : "_ZTIPK7AParcel"
    }
   ],
   "return_type" : "_ZTIi",
   "source_file" : "out/soong/.intermediates/hardware/interfaces/radio/aidl/android.hardware.radio.network-V1-ndk-source/gen/include/aidl/android/hardware/radio/network/CellInfoGsm.h"
  },
  {
   "function_name" : "aidl::android::hardware::radio::network::CellInfoLte::readFromParcel",
   "linker_set_key" : "_ZN4aidl7android8hardware5radio7network11CellInfoLte14readFromParcelEPK7AParcel",
   "parameters" :
   [
    {
     "is_this_ptr" : true,
     "referenced_type" : "_ZTIPN4aidl7android8hardware5radio7network11CellInfoLteE"
    },
    {
     "referenced_type" : "_ZTIPK7AParcel"
    }
   ],
   "return_type" : "_ZTIi",
   "source_file" : "out/soong/.intermediates/hardware/interfaces/radio/aidl/android.hardware.radio.network-V1-ndk-source/gen/include/aidl/android/hardware/radio/network/CellInfoLte.h"
  },
  {
   "function_name" : "aidl::android::hardware::radio::network::LceDataInfo::readFromParcel",
   "linker_set_key" : "_ZN4aidl7android8hardware5radio7network11LceDataInfo14readFromParcelEPK7AParcel",
   "parameters" :
   [
    {
     "is_this_ptr" : true,
     "referenced_type" : "_ZTIPN4aidl7android8hardware5radio7network11LceDataInfoE"
    },
    {
     "referenced_type" : "_ZTIPK7AParcel"
    }
   ],
   "return_type" : "_ZTIi",
   "source_file" : "out/soong/.intermediates/hardware/interfaces/radio/aidl/android.hardware.radio.network-V1-ndk-source/gen/include/aidl/android/hardware/radio/network/LceDataInfo.h"
  },
  {
   "function_name" : "aidl::android::hardware::radio::network::LteVopsInfo::readFromParcel",
   "linker_set_key" : "_ZN4aidl7android8hardware5radio7network11LteVopsInfo14readFromParcelEPK7AParcel",
   "parameters" :
   [
    {
     "is_this_ptr" : true,
     "referenced_type" : "_ZTIPN4aidl7android8hardware5radio7network11LteVopsInfoE"
    },
    {
     "referenced_type" : "_ZTIPK7AParcel"
    }
   ],
   "return_type" : "_ZTIi",
   "source_file" : "out/soong/.intermediates/hardware/interfaces/radio/aidl/android.hardware.radio.network-V1-ndk-source/gen/include/aidl/android/hardware/radio/network/LteVopsInfo.h"
  },
  {
   "function_name" : "aidl::android::hardware::radio::network::CellIdentity::readFromParcel",
   "linker_set_key" : "_ZN4aidl7android8hardware5radio7network12CellIdentity14readFromParcelEPK7AParcel",
   "parameters" :
   [
    {
     "is_this_ptr" : true,
     "referenced_type" : "_ZTIPN4aidl7android8hardware5radio7network12CellIdentityE"
    },
    {
     "referenced_type" : "_ZTIPK7AParcel"
    }
   ],
   "return_type" : "_ZTIi",
   "source_file" : "out/soong/.intermediates/hardware/interfaces/radio/aidl/android.hardware.radio.network-V1-ndk-source/gen/include/aidl/android/hardware/radio/network/CellIdentity.h"
  },
  {
   "function_name" : "aidl::android::hardware::radio::network::CellInfoCdma::readFromParcel",
   "linker_set_key" : "_ZN4aidl7android8hardware5radio7network12CellInfoCdma14readFromParcelEPK7AParcel",
   "parameters" :
   [
    {
     "is_this_ptr" : true,
     "referenced_type" : "_ZTIPN4aidl7android8hardware5radio7network12CellInfoCdmaE"
    },
    {
     "referenced_type" : "_ZTIPK7AParcel"
    }
   ],
   "return_type" : "_ZTIi",
   "source_file" : "out/soong/.intermediates/hardware/interfaces/radio/aidl/android.hardware.radio.network-V1-ndk-source/gen/include/aidl/android/hardware/radio/network/CellInfoCdma.h"
  },
  {
   "function_name" : "aidl::android::hardware::radio::network::NrIndicators::readFromParcel",
   "linker_set_key" : "_ZN4aidl7android8hardware5radio7network12NrIndicators14readFromParcelEPK7AParcel",
   "parameters" :
   [
    {
     "is_this_ptr" : true,
     "referenced_type" : "_ZTIPN4aidl7android8hardware5radio7network12NrIndicatorsE"
    },
    {
     "referenced_type" : "_ZTIPK7AParcel"
    }
   ],
   "return_type" : "_ZTIi",
   "source_file" : "out/soong/.intermediates/hardware/interfaces/radio/aidl/android.hardware.radio.network-V1-ndk-source/gen/include/aidl/android/hardware/radio/network/NrIndicators.h"
  },
  {
   "function_name" : "aidl::android::hardware::radio::network::OperatorInfo::readFromParcel",
   "linker_set_key" : "_ZN4aidl7android8hardware5radio7network12OperatorInfo14readFromParcelEPK7AParcel",
   "parameters" :
   [
    {
     "is_this_ptr" : true,
     "referenced_type" : "_ZTIPN4aidl7android8hardware5radio7network12OperatorInfoE"
    },
    {
     "referenced_type" : "_ZTIPK7AParcel"
    }
   ],
   "return_type" : "_ZTIi",
   "source_file" : "out/soong/.intermediates/hardware/interfaces/radio/aidl/android.hardware.radio.network-V1-ndk-source/gen/include/aidl/android/hardware/radio/network/OperatorInfo.h"
  },
  {
   "function_name" : "aidl::android::hardware::radio::network::CellInfoWcdma::readFromParcel",
   "linker_set_key" : "_ZN4aidl7android8hardware5radio7network13CellInfoWcdma14readFromParcelEPK7AParcel",
   "parameters" :
   [
    {
     "is_this_ptr" : true,
     "referenced_type" : "_ZTIPN4aidl7android8hardware5radio7network13CellInfoWcdmaE"
    },
    {
     "referenced_type" : "_ZTIPK7AParcel"
    }
   ],
   "return_type" : "_ZTIi",
   "source_file" : "out/soong/.intermediates/hardware/interfaces/radio/aidl/android.hardware.radio.network-V1-ndk-source/gen/include/aidl/android/hardware/radio/network/CellInfoWcdma.h"
  },
  {
   "function_name" : "aidl::android::hardware::radio::network::IRadioNetwork::fromBinder",
   "linker_set_key" : "_ZN4aidl7android8hardware5radio7network13IRadioNetwork10fromBinderERKN3ndk10SpAIBinderE",
   "parameters" :
   [
    {
     "referenced_type" : "_ZTIRKN3ndk10SpAIBinderE"
    }
   ],
   "return_type" : "_ZTINSt3__110shared_ptrIN4aidl7android8hardware5radio7network13IRadioNetworkEEE",
   "source_file" : "out/soong/.intermediates/hardware/interfaces/radio/aidl/android.hardware.radio.network-V1-ndk-source/gen/include/aidl/android/hardware/radio/network/IRadioNetwork.h"
  },
  {
   "function_name" : "aidl::android::hardware::radio::network::IRadioNetwork::writeToParcel",
   "linker_set_key" : "_ZN4aidl7android8hardware5radio7network13IRadioNetwork13writeToParcelEP7AParcelRKNSt3__110shared_ptrIS4_EE",
   "parameters" :
   [
    {
     "referenced_type" : "_ZTIP7AParcel"
    },
    {
     "referenced_type" : "_ZTIRKNSt3__110shared_ptrIN4aidl7android8hardware5radio7network13IRadioNetworkEEE"
    }
   ],
   "return_type" : "_ZTIi",
   "source_file" : "out/soong/.intermediates/hardware/interfaces/radio/aidl/android.hardware.radio.network-V1-ndk-source/gen/include/aidl/android/hardware/radio/network/IRadioNetwork.h"
  },
  {
   "function_name" : "aidl::android::hardware::radio::network::IRadioNetwork::getDefaultImpl",
   "linker_set_key" : "_ZN4aidl7android8hardware5radio7network13IRadioNetwork14getDefaultImplEv",
   "return_type" : "_ZTIRKNSt3__110shared_ptrIN4aidl7android8hardware5radio7network13IRadioNetworkEEE",
   "source_file" : "out/soong/.intermediates/hardware/interfaces/radio/aidl/android.hardware.radio.network-V1-ndk-source/gen/include/aidl/android/hardware/radio/network/IRadioNetwork.h"
  },
  {
   "function_name" : "aidl::android::hardware::radio::network::IRadioNetwork::readFromParcel",
   "linker_set_key" : "_ZN4aidl7android8hardware5radio7network13IRadioNetwork14readFromParcelEPK7AParcelPNSt3__110shared_ptrIS4_EE",
   "parameters" :
   [
    {
     "referenced_type" : "_ZTIPK7AParcel"
    },
    {
     "referenced_type" : "_ZTIPNSt3__110shared_ptrIN4aidl7android8hardware5radio7network13IRadioNetworkEEE"
    }
   ],
   "return_type" : "_ZTIi",
   "source_file" : "out/soong/.intermediates/hardware/interfaces/radio/aidl/android.hardware.radio.network-V1-ndk-source/gen/include/aidl/android/hardware/radio/network/IRadioNetwork.h"
  },
  {
   "function_name" : "aidl::android::hardware::radio::network::IRadioNetwork::setDefaultImpl",
   "linker_set_key" : "_ZN4aidl7android8hardware5radio7network13IRadioNetwork14setDefaultImplERKNSt3__110shared_ptrIS4_EE",
   "parameters" :
   [
    {
     "referenced_type" : "_ZTIRKNSt3__110shared_ptrIN4aidl7android8hardware5radio7network13IRadioNetworkEEE"
    }
   ],
   "return_type" : "_ZTIb",
   "source_file" : "out/soong/.intermediates/hardware/interfaces/radio/aidl/android.hardware.radio.network-V1-ndk-source/gen/include/aidl/android/hardware/radio/network/IRadioNetwork.h"
  },
  {
   "function_name" : "aidl::android::hardware::radio::network::IRadioNetwork::IRadioNetwork",
   "linker_set_key" : "_ZN4aidl7android8hardware5radio7network13IRadioNetworkC2Ev",
   "parameters" :
   [
    {
     "is_this_ptr" : true,
     "referenced_type" : "_ZTIPN4aidl7android8hardware5radio7network13IRadioNetworkE"
    }
   ],
   "return_type" : "_ZTIv",
   "source_file" : "out/soong/.intermediates/hardware/interfaces/radio/aidl/android.hardware.radio.network-V1-ndk-source/gen/include/aidl/android/hardware/radio/network/IRadioNetwork.h"
  },
  {
   "function_name" : "aidl::android::hardware::radio::network::IRadioNetwork::~IRadioNetwork",
   "linker_set_key" : "_ZN4aidl7android8hardware5radio7network13IRadioNetworkD0Ev",
   "parameters" :
   [
    {
     "is_this_ptr" : true,
     "referenced_type" : "_ZTIPN4aidl7android8hardware5radio7network13IRadioNetworkE"
    }
   ],
   "return_type" : "_ZTIv",
   "source_file" : "out/soong/.intermediates/hardware/interfaces/radio/aidl/android.hardware.radio.network-V1-ndk-source/gen/include/aidl/android/hardware/radio/network/IRadioNetwork.h"
  },
  {
   "function_name" : "aidl::android::hardware::radio::network::IRadioNetwork::~IRadioNetwork",
   "linker_set_key" : "_ZN4aidl7android8hardware5radio7network13IRadioNetworkD1Ev",
   "parameters" :
   [
    {
     "is_this_ptr" : true,
     "referenced_type" : "_ZTIPN4aidl7android8hardware5radio7network13IRadioNetworkE"
    }
   ],
   "return_type" : "_ZTIv",
   "source_file" : "out/soong/.intermediates/hardware/interfaces/radio/aidl/android.hardware.radio.network-V1-ndk-source/gen/include/aidl/android/hardware/radio/network/IRadioNetwork.h"
  },
  {
   "function_name" : "aidl::android::hardware::radio::network::IRadioNetwork::~IRadioNetwork",
   "linker_set_key" : "_ZN4aidl7android8hardware5radio7network13IRadioNetworkD2Ev",
   "parameters" :
   [
    {
     "is_this_ptr" : true,
     "referenced_type" : "_ZTIPN4aidl7android8hardware5radio7network13IRadioNetworkE"
    }
   ],
   "return_type" : "_ZTIv",
   "source_file" : "out/soong/.intermediates/hardware/interfaces/radio/aidl/android.hardware.radio.network-V1-ndk-source/gen/include/aidl/android/hardware/radio/network/IRadioNetwork.h"
  },
  {
   "access" : "protected",
   "function_name" : "aidl::android::hardware::radio::network::BnRadioNetwork::createBinder",
   "linker_set_key" : "_ZN4aidl7android8hardware5radio7network14BnRadioNetwork12createBinderEv",
   "parameters" :
   [
    {
     "is_this_ptr" : true,
     "referenced_type" : "_ZTIPN4aidl7android8hardware5radio7network14BnRadioNetworkE"
    }
   ],
   "return_type" : "_ZTIN3ndk10SpAIBinderE",
   "source_file" : "out/soong/.intermediates/hardware/interfaces/radio/aidl/android.hardware.radio.network-V1-ndk-source/gen/include/aidl/android/hardware/radio/network/BnRadioNetwork.h"
  },
  {
   "function_name" : "aidl::android::hardware::radio::network::BnRadioNetwork::getInterfaceHash",
   "linker_set_key" : "_ZN4aidl7android8hardware5radio7network14BnRadioNetwork16getInterfaceHashEPNSt3__112basic_stringIcNS5_11char_traitsIcEENS5_9allocatorIcEEEE",
   "parameters" :
   [
    {
     "is_this_ptr" : true,
     "referenced_type" : "_ZTIPN4aidl7android8hardware5radio7network14BnRadioNetworkE"
    },
    {
     "referenced_type" : "_ZTIPNSt3__112basic_stringIcNS_11char_traitsIcEENS_9allocatorIcEEEE"
    }
   ],
   "return_type" : "_ZTIN3ndk13ScopedAStatusE",
   "source_file" : "out/soong/.intermediates/hardware/interfaces/radio/aidl/android.hardware.radio.network-V1-ndk-source/gen/include/aidl/android/hardware/radio/network/BnRadioNetwork.h"
  },
  {
   "function_name" : "aidl::android::hardware::radio::network::BnRadioNetwork::getInterfaceVersion",
   "linker_set_key" : "_ZN4aidl7android8hardware5radio7network14BnRadioNetwork19getInterfaceVersionEPi",
   "parameters" :
   [
    {
     "is_this_ptr" : true,
     "referenced_type" : "_ZTIPN4aidl7android8hardware5radio7network14BnRadioNetworkE"
    },
    {
     "referenced_type" : "_ZTIPi"
    }
   ],
   "return_type" : "_ZTIN3ndk13ScopedAStatusE",
   "source_file" : "out/soong/.intermediates/hardware/interfaces/radio/aidl/android.hardware.radio.network-V1-ndk-source/gen/include/aidl/android/hardware/radio/network/BnRadioNetwork.h"
  },
  {
   "function_name" : "aidl::android::hardware::radio::network::BnRadioNetwork::BnRadioNetwork",
   "linker_set_key" : "_ZN4aidl7android8hardware5radio7network14BnRadioNetworkC2Ev",
   "parameters" :
   [
    {
     "is_this_ptr" : true,
     "referenced_type" : "_ZTIPN4aidl7android8hardware5radio7network14BnRadioNetworkE"
    }
   ],
   "return_type" : "_ZTIv",
   "source_file" : "out/soong/.intermediates/hardware/interfaces/radio/aidl/android.hardware.radio.network-V1-ndk-source/gen/include/aidl/android/hardware/radio/network/BnRadioNetwork.h"
  },
  {
   "function_name" : "aidl::android::hardware::radio::network::BnRadioNetwork::~BnRadioNetwork",
   "linker_set_key" : "_ZN4aidl7android8hardware5radio7network14BnRadioNetworkD0Ev",
   "parameters" :
   [
    {
     "is_this_ptr" : true,
     "referenced_type" : "_ZTIPN4aidl7android8hardware5radio7network14BnRadioNetworkE"
    }
   ],
   "return_type" : "_ZTIv",
   "source_file" : "out/soong/.intermediates/hardware/interfaces/radio/aidl/android.hardware.radio.network-V1-ndk-source/gen/include/aidl/android/hardware/radio/network/BnRadioNetwork.h"
  },
  {
   "function_name" : "aidl::android::hardware::radio::network::BnRadioNetwork::~BnRadioNetwork",
   "linker_set_key" : "_ZN4aidl7android8hardware5radio7network14BnRadioNetworkD1Ev",
   "parameters" :
   [
    {
     "is_this_ptr" : true,
     "referenced_type" : "_ZTIPN4aidl7android8hardware5radio7network14BnRadioNetworkE"
    }
   ],
   "return_type" : "_ZTIv",
   "source_file" : "out/soong/.intermediates/hardware/interfaces/radio/aidl/android.hardware.radio.network-V1-ndk-source/gen/include/aidl/android/hardware/radio/network/BnRadioNetwork.h"
  },
  {
   "function_name" : "aidl::android::hardware::radio::network::BnRadioNetwork::~BnRadioNetwork",
   "linker_set_key" : "_ZN4aidl7android8hardware5radio7network14BnRadioNetworkD2Ev",
   "parameters" :
   [
    {
     "is_this_ptr" : true,
     "referenced_type" : "_ZTIPN4aidl7android8hardware5radio7network14BnRadioNetworkE"
    }
   ],
   "return_type" : "_ZTIv",
   "source_file" : "out/soong/.intermediates/hardware/interfaces/radio/aidl/android.hardware.radio.network-V1-ndk-source/gen/include/aidl/android/hardware/radio/network/BnRadioNetwork.h"
  },
  {
   "function_name" : "aidl::android::hardware::radio::network::BpRadioNetwork::getOperator",
   "linker_set_key" : "_ZN4aidl7android8hardware5radio7network14BpRadioNetwork11getOperatorEi",
   "parameters" :
   [
    {
     "is_this_ptr" : true,
     "referenced_type" : "_ZTIPN4aidl7android8hardware5radio7network14BpRadioNetworkE"
    },
    {
     "referenced_type" : "_ZTIi"
    }
   ],
   "return_type" : "_ZTIN3ndk13ScopedAStatusE",
   "source_file" : "out/soong/.intermediates/hardware/interfaces/radio/aidl/android.hardware.radio.network-V1-ndk-source/gen/include/aidl/android/hardware/radio/network/BpRadioNetwork.h"
  },
  {
   "function_name" : "aidl::android::hardware::radio::network::BpRadioNetwork::setBandMode",
   "linker_set_key" : "_ZN4aidl7android8hardware5radio7network14BpRadioNetwork11setBandModeEiNS3_13RadioBandModeE",
   "parameters" :
   [
    {
     "is_this_ptr" : true,
     "referenced_type" : "_ZTIPN4aidl7android8hardware5radio7network14BpRadioNetworkE"
    },
    {
     "referenced_type" : "_ZTIi"
    },
    {
     "referenced_type" : "_ZTIN4aidl7android8hardware5radio7network13RadioBandModeE"
    }
   ],
   "return_type" : "_ZTIN3ndk13ScopedAStatusE",
   "source_file" : "out/soong/.intermediates/hardware/interfaces/radio/aidl/android.hardware.radio.network-V1-ndk-source/gen/include/aidl/android/hardware/radio/network/BpRadioNetwork.h"
  },
  {
   "function_name" : "aidl::android::hardware::radio::network::BpRadioNetwork::getBarringInfo",
   "linker_set_key" : "_ZN4aidl7android8hardware5radio7network14BpRadioNetwork14getBarringInfoEi",
   "parameters" :
   [
    {
     "is_this_ptr" : true,
     "referenced_type" : "_ZTIPN4aidl7android8hardware5radio7network14BpRadioNetworkE"
    },
    {
     "referenced_type" : "_ZTIi"
    }
   ],
   "return_type" : "_ZTIN3ndk13ScopedAStatusE",
   "source_file" : "out/soong/.intermediates/hardware/interfaces/radio/aidl/android.hardware.radio.network-V1-ndk-source/gen/include/aidl/android/hardware/radio/network/BpRadioNetwork.h"
  },
  {
   "function_name" : "aidl::android::hardware::radio::network::BpRadioNetwork::getCellInfoList",
   "linker_set_key" : "_ZN4aidl7android8hardware5radio7network14BpRadioNetwork15getCellInfoListEi",
   "parameters" :
   [
    {
     "is_this_ptr" : true,
     "referenced_type" : "_ZTIPN4aidl7android8hardware5radio7network14BpRadioNetworkE"
    },
    {
     "referenced_type" : "_ZTIi"
    }
   ],
   "return_type" : "_ZTIN3ndk13ScopedAStatusE",
   "source_file" : "out/soong/.intermediates/hardware/interfaces/radio/aidl/android.hardware.radio.network-V1-ndk-source/gen/include/aidl/android/hardware/radio/network/BpRadioNetwork.h"
  },
  {
   "function_name" : "aidl::android::hardware::radio::network::BpRadioNetwork::getUsageSetting",
   "linker_set_key" : "_ZN4aidl7android8hardware5radio7network14BpRadioNetwork15getUsageSettingEi",
   "parameters" :
   [
    {
     "is_this_ptr" : true,
     "referenced_type" : "_ZTIPN4aidl7android8hardware5radio7network14BpRadioNetworkE"
    },
    {
     "referenced_type" : "_ZTIi"
    }
   ],
   "return_type" : "_ZTIN3ndk13ScopedAStatusE",
   "source_file" : "out/soong/.intermediates/hardware/interfaces/radio/aidl/android.hardware.radio.network-V1-ndk-source/gen/include/aidl/android/hardware/radio/network/BpRadioNetwork.h"
  },
  {
   "function_name" : "aidl::android::hardware::radio::network::BpRadioNetwork::setUsageSetting",
   "linker_set_key" : "_ZN4aidl7android8hardware5radio7network14BpRadioNetwork15setUsageSettingEiNS3_12UsageSettingE",
   "parameters" :
   [
    {
     "is_this_ptr" : true,
     "referenced_type" : "_ZTIPN4aidl7android8hardware5radio7network14BpRadioNetworkE"
    },
    {
     "referenced_type" : "_ZTIi"
    },
    {
     "referenced_type" : "_ZTIN4aidl7android8hardware5radio7network12UsageSettingE"
    }
   ],
   "return_type" : "_ZTIN3ndk13ScopedAStatusE",
   "source_file" : "out/soong/.intermediates/hardware/interfaces/radio/aidl/android.hardware.radio.network-V1-ndk-source/gen/include/aidl/android/hardware/radio/network/BpRadioNetwork.h"
  },
  {
   "function_name" : "aidl::android::hardware::radio::network::BpRadioNetwork::stopNetworkScan",
   "linker_set_key" : "_ZN4aidl7android8hardware5radio7network14BpRadioNetwork15stopNetworkScanEi",
   "parameters" :
   [
    {
     "is_this_ptr" : true,
     "referenced_type" : "_ZTIPN4aidl7android8hardware5radio7network14BpRadioNetworkE"
    },
    {
     "referenced_type" : "_ZTIi"
    }
   ],
   "return_type" : "_ZTIN3ndk13ScopedAStatusE",
   "source_file" : "out/soong/.intermediates/hardware/interfaces/radio/aidl/android.hardware.radio.network-V1-ndk-source/gen/include/aidl/android/hardware/radio/network/BpRadioNetwork.h"
  },
  {
   "function_name" : "aidl::android::hardware::radio::network::BpRadioNetwork::getInterfaceHash",
   "linker_set_key" : "_ZN4aidl7android8hardware5radio7network14BpRadioNetwork16getInterfaceHashEPNSt3__112basic_stringIcNS5_11char_traitsIcEENS5_9allocatorIcEEEE",
   "parameters" :
   [
    {
     "is_this_ptr" : true,
     "referenced_type" : "_ZTIPN4aidl7android8hardware5radio7network14BpRadioNetworkE"
    },
    {
     "referenced_type" : "_ZTIPNSt3__112basic_stringIcNS_11char_traitsIcEENS_9allocatorIcEEEE"
    }
   ],
   "return_type" : "_ZTIN3ndk13ScopedAStatusE",
   "source_file" : "out/soong/.intermediates/hardware/interfaces/radio/aidl/android.hardware.radio.network-V1-ndk-source/gen/include/aidl/android/hardware/radio/network/BpRadioNetwork.h"
  },
  {
   "function_name" : "aidl::android::hardware::radio::network::BpRadioNetwork::startNetworkScan",
   "linker_set_key" : "_ZN4aidl7android8hardware5radio7network14BpRadioNetwork16startNetworkScanEiRKNS3_18NetworkScanRequestE",
   "parameters" :
   [
    {
     "is_this_ptr" : true,
     "referenced_type" : "_ZTIPN4aidl7android8hardware5radio7network14BpRadioNetworkE"
    },
    {
     "referenced_type" : "_ZTIi"
    },
    {
     "referenced_type" : "_ZTIRKN4aidl7android8hardware5radio7network18NetworkScanRequestE"
    }
   ],
   "return_type" : "_ZTIN3ndk13ScopedAStatusE",
   "source_file" : "out/soong/.intermediates/hardware/interfaces/radio/aidl/android.hardware.radio.network-V1-ndk-source/gen/include/aidl/android/hardware/radio/network/BpRadioNetwork.h"
  },
  {
   "function_name" : "aidl::android::hardware::radio::network::BpRadioNetwork::getSignalStrength",
   "linker_set_key" : "_ZN4aidl7android8hardware5radio7network14BpRadioNetwork17getSignalStrengthEi",
   "parameters" :
   [
    {
     "is_this_ptr" : true,
     "referenced_type" : "_ZTIPN4aidl7android8hardware5radio7network14BpRadioNetworkE"
    },
    {
     "referenced_type" : "_ZTIi"
    }
   ],
   "return_type" : "_ZTIN3ndk13ScopedAStatusE",
   "source_file" : "out/soong/.intermediates/hardware/interfaces/radio/aidl/android.hardware.radio.network-V1-ndk-source/gen/include/aidl/android/hardware/radio/network/BpRadioNetwork.h"
  },
  {
   "function_name" : "aidl::android::hardware::radio::network::BpRadioNetwork::setBarringPassword",
   "linker_set_key" : "_ZN4aidl7android8hardware5radio7network14BpRadioNetwork18setBarringPasswordEiRKNSt3__112basic_stringIcNS5_11char_traitsIcEENS5_9allocatorIcEEEESD_SD_",
   "parameters" :
   [
    {
     "is_this_ptr" : true,
     "referenced_type" : "_ZTIPN4aidl7android8hardware5radio7network14BpRadioNetworkE"
    },
    {
     "referenced_type" : "_ZTIi"
    },
    {
     "referenced_type" : "_ZTIRKNSt3__112basic_stringIcNS_11char_traitsIcEENS_9allocatorIcEEEE"
    },
    {
     "referenced_type" : "_ZTIRKNSt3__112basic_stringIcNS_11char_traitsIcEENS_9allocatorIcEEEE"
    },
    {
     "referenced_type" : "_ZTIRKNSt3__112basic_stringIcNS_11char_traitsIcEENS_9allocatorIcEEEE"
    }
   ],
   "return_type" : "_ZTIN3ndk13ScopedAStatusE",
   "source_file" : "out/soong/.intermediates/hardware/interfaces/radio/aidl/android.hardware.radio.network-V1-ndk-source/gen/include/aidl/android/hardware/radio/network/BpRadioNetwork.h"
  },
  {
   "function_name" : "aidl::android::hardware::radio::network::BpRadioNetwork::setLocationUpdates",
   "linker_set_key" : "_ZN4aidl7android8hardware5radio7network14BpRadioNetwork18setLocationUpdatesEib",
   "parameters" :
   [
    {
     "is_this_ptr" : true,
     "referenced_type" : "_ZTIPN4aidl7android8hardware5radio7network14BpRadioNetworkE"
    },
    {
     "referenced_type" : "_ZTIi"
    },
    {
     "referenced_type" : "_ZTIb"
    }
   ],
   "return_type" : "_ZTIN3ndk13ScopedAStatusE",
   "source_file" : "out/soong/.intermediates/hardware/interfaces/radio/aidl/android.hardware.radio.network-V1-ndk-source/gen/include/aidl/android/hardware/radio/network/BpRadioNetwork.h"
  },
  {
   "function_name" : "aidl::android::hardware::radio::network::BpRadioNetwork::getInterfaceVersion",
   "linker_set_key" : "_ZN4aidl7android8hardware5radio7network14BpRadioNetwork19getInterfaceVersionEPi",
   "parameters" :
   [
    {
     "is_this_ptr" : true,
     "referenced_type" : "_ZTIPN4aidl7android8hardware5radio7network14BpRadioNetworkE"
    },
    {
     "referenced_type" : "_ZTIPi"
    }
   ],
   "return_type" : "_ZTIN3ndk13ScopedAStatusE",
   "source_file" : "out/soong/.intermediates/hardware/interfaces/radio/aidl/android.hardware.radio.network-V1-ndk-source/gen/include/aidl/android/hardware/radio/network/BpRadioNetwork.h"
  },
  {
   "function_name" : "aidl::android::hardware::radio::network::BpRadioNetwork::setCellInfoListRate",
   "linker_set_key" : "_ZN4aidl7android8hardware5radio7network14BpRadioNetwork19setCellInfoListRateEii",
   "parameters" :
   [
    {
     "is_this_ptr" : true,
     "referenced_type" : "_ZTIPN4aidl7android8hardware5radio7network14BpRadioNetworkE"
    },
    {
     "referenced_type" : "_ZTIi"
    },
    {
     "referenced_type" : "_ZTIi"
    }
   ],
   "return_type" : "_ZTIN3ndk13ScopedAStatusE",
   "source_file" : "out/soong/.intermediates/hardware/interfaces/radio/aidl/android.hardware.radio.network-V1-ndk-source/gen/include/aidl/android/hardware/radio/network/BpRadioNetwork.h"
  },
  {
   "function_name" : "aidl::android::hardware::radio::network::BpRadioNetwork::setIndicationFilter",
   "linker_set_key" : "_ZN4aidl7android8hardware5radio7network14BpRadioNetwork19setIndicationFilterEii",
   "parameters" :
   [
    {
     "is_this_ptr" : true,
     "referenced_type" : "_ZTIPN4aidl7android8hardware5radio7network14BpRadioNetworkE"
    },
    {
     "referenced_type" : "_ZTIi"
    },
    {
     "referenced_type" : "_ZTIi"
    }
   ],
   "return_type" : "_ZTIN3ndk13ScopedAStatusE",
   "source_file" : "out/soong/.intermediates/hardware/interfaces/radio/aidl/android.hardware.radio.network-V1-ndk-source/gen/include/aidl/android/hardware/radio/network/BpRadioNetwork.h"
  },
  {
   "function_name" : "aidl::android::hardware::radio::network::BpRadioNetwork::getAvailableNetworks",
   "linker_set_key" : "_ZN4aidl7android8hardware5radio7network14BpRadioNetwork20getAvailableNetworksEi",
   "parameters" :
   [
    {
     "is_this_ptr" : true,
     "referenced_type" : "_ZTIPN4aidl7android8hardware5radio7network14BpRadioNetworkE"
    },
    {
     "referenced_type" : "_ZTIi"
    }
   ],
   "return_type" : "_ZTIN3ndk13ScopedAStatusE",
   "source_file" : "out/soong/.intermediates/hardware/interfaces/radio/aidl/android.hardware.radio.network-V1-ndk-source/gen/include/aidl/android/hardware/radio/network/BpRadioNetwork.h"
  },
  {
   "function_name" : "aidl::android::hardware::radio::network::BpRadioNetwork::setResponseFunctions",
   "linker_set_key" : "_ZN4aidl7android8hardware5radio7network14BpRadioNetwork20setResponseFunctionsERKNSt3__110shared_ptrINS3_21IRadioNetworkResponseEEERKNS6_INS3_23IRadioNetworkIndicationEEE",
   "parameters" :
   [
    {
     "is_this_ptr" : true,
     "referenced_type" : "_ZTIPN4aidl7android8hardware5radio7network14BpRadioNetworkE"
    },
    {
     "referenced_type" : "_ZTIRKNSt3__110shared_ptrIN4aidl7android8hardware5radio7network21IRadioNetworkResponseEEE"
    },
    {
     "referenced_type" : "_ZTIRKNSt3__110shared_ptrIN4aidl7android8hardware5radio7network23IRadioNetworkIndicationEEE"
    }
   ],
   "return_type" : "_ZTIN3ndk13ScopedAStatusE",
   "source_file" : "out/soong/.intermediates/hardware/interfaces/radio/aidl/android.hardware.radio.network-V1-ndk-source/gen/include/aidl/android/hardware/radio/network/BpRadioNetwork.h"
  },
  {
   "function_name" : "aidl::android::hardware::radio::network::BpRadioNetwork::getAvailableBandModes",
   "linker_set_key" : "_ZN4aidl7android8hardware5radio7network14BpRadioNetwork21getAvailableBandModesEi",
   "parameters" :
   [
    {
     "is_this_ptr" : true,
     "referenced_type" : "_ZTIPN4aidl7android8hardware5radio7network14BpRadioNetworkE"
    },
    {
     "referenced_type" : "_ZTIi"
    }
   ],
   "return_type" : "_ZTIN3ndk13ScopedAStatusE",
   "source_file" : "out/soong/.intermediates/hardware/interfaces/radio/aidl/android.hardware.radio.network-V1-ndk-source/gen/include/aidl/android/hardware/radio/network/BpRadioNetwork.h"
  },
  {
   "function_name" : "aidl::android::hardware::radio::network::BpRadioNetwork::getImsRegistrationState",
   "linker_set_key" : "_ZN4aidl7android8hardware5radio7network14BpRadioNetwork23getImsRegistrationStateEi",
   "parameters" :
   [
    {
     "is_this_ptr" : true,
     "referenced_type" : "_ZTIPN4aidl7android8hardware5radio7network14BpRadioNetworkE"
    },
    {
     "referenced_type" : "_ZTIi"
    }
   ],
   "return_type" : "_ZTIN3ndk13ScopedAStatusE",
   "source_file" : "out/soong/.intermediates/hardware/interfaces/radio/aidl/android.hardware.radio.network-V1-ndk-source/gen/include/aidl/android/hardware/radio/network/BpRadioNetwork.h"
  },
  {
   "function_name" : "aidl::android::hardware::radio::network::BpRadioNetwork::getNetworkSelectionMode",
   "linker_set_key" : "_ZN4aidl7android8hardware5radio7network14BpRadioNetwork23getNetworkSelectionModeEi",
   "parameters" :
   [
    {
     "is_this_ptr" : true,
     "referenced_type" : "_ZTIPN4aidl7android8hardware5radio7network14BpRadioNetworkE"
    },
    {
     "referenced_type" : "_ZTIi"
    }
   ],
   "return_type" : "_ZTIN3ndk13ScopedAStatusE",
   "source_file" : "out/soong/.intermediates/hardware/interfaces/radio/aidl/android.hardware.radio.network-V1-ndk-source/gen/include/aidl/android/hardware/radio/network/BpRadioNetwork.h"
  },
  {
   "function_name" : "aidl::android::hardware::radio::network::BpRadioNetwork::getVoiceRadioTechnology",
   "linker_set_key" : "_ZN4aidl7android8hardware5radio7network14BpRadioNetwork23getVoiceRadioTechnologyEi",
   "parameters" :
   [
    {
     "is_this_ptr" : true,
     "referenced_type" : "_ZTIPN4aidl7android8hardware5radio7network14BpRadioNetworkE"
    },
    {
     "referenced_type" : "_ZTIi"
    }
   ],
   "return_type" : "_ZTIN3ndk13ScopedAStatusE",
   "source_file" : "out/soong/.intermediates/hardware/interfaces/radio/aidl/android.hardware.radio.network-V1-ndk-source/gen/include/aidl/android/hardware/radio/network/BpRadioNetwork.h"
  },
  {
   "function_name" : "aidl::android::hardware::radio::network::BpRadioNetwork::responseAcknowledgement",
   "linker_set_key" : "_ZN4aidl7android8hardware5radio7network14BpRadioNetwork23responseAcknowledgementEv",
   "parameters" :
   [
    {
     "is_this_ptr" : true,
     "referenced_type" : "_ZTIPN4aidl7android8hardware5radio7network14BpRadioNetworkE"
    }
   ],
   "return_type" : "_ZTIN3ndk13ScopedAStatusE",
   "source_file" : "out/soong/.intermediates/hardware/interfaces/radio/aidl/android.hardware.radio.network-V1-ndk-source/gen/include/aidl/android/hardware/radio/network/BpRadioNetwork.h"
  },
  {
   "function_name" : "aidl::android::hardware::radio::network::BpRadioNetwork::getCdmaRoamingPreference",
   "linker_set_key" : "_ZN4aidl7android8hardware5radio7network14BpRadioNetwork24getCdmaRoamingPreferenceEi",
   "parameters" :
   [
    {
     "is_this_ptr" : true,
     "referenced_type" : "_ZTIPN4aidl7android8hardware5radio7network14BpRadioNetworkE"
    },
    {
     "referenced_type" : "_ZTIi"
    }
   ],
   "return_type" : "_ZTIN3ndk13ScopedAStatusE",
   "source_file" : "out/soong/.intermediates/hardware/interfaces/radio/aidl/android.hardware.radio.network-V1-ndk-source/gen/include/aidl/android/hardware/radio/network/BpRadioNetwork.h"
  },
  {
   "function_name" : "aidl::android::hardware::radio::network::BpRadioNetwork::getDataRegistrationState",
   "linker_set_key" : "_ZN4aidl7android8hardware5radio7network14BpRadioNetwork24getDataRegistrationStateEi",
   "parameters" :
   [
    {
     "is_this_ptr" : true,
     "referenced_type" : "_ZTIPN4aidl7android8hardware5radio7network14BpRadioNetworkE"
    },
    {
     "referenced_type" : "_ZTIi"
    }
   ],
   "return_type" : "_ZTIN3ndk13ScopedAStatusE",
   "source_file" : "out/soong/.intermediates/hardware/interfaces/radio/aidl/android.hardware.radio.network-V1-ndk-source/gen/include/aidl/android/hardware/radio/network/BpRadioNetwork.h"
  },
  {
   "function_name" : "aidl::android::hardware::radio::network::BpRadioNetwork::setCdmaRoamingPreference",
   "linker_set_key" : "_ZN4aidl7android8hardware5radio7network14BpRadioNetwork24setCdmaRoamingPreferenceEiNS3_15CdmaRoamingTypeE",
   "parameters" :
   [
    {
     "is_this_ptr" : true,
     "referenced_type" : "_ZTIPN4aidl7android8hardware5radio7network14BpRadioNetworkE"
    },
    {
     "referenced_type" : "_ZTIi"
    },
    {
     "referenced_type" : "_ZTIN4aidl7android8hardware5radio7network15CdmaRoamingTypeE"
    }
   ],
   "return_type" : "_ZTIN3ndk13ScopedAStatusE",
   "source_file" : "out/soong/.intermediates/hardware/interfaces/radio/aidl/android.hardware.radio.network-V1-ndk-source/gen/include/aidl/android/hardware/radio/network/BpRadioNetwork.h"
  },
  {
   "function_name" : "aidl::android::hardware::radio::network::BpRadioNetwork::getVoiceRegistrationState",
   "linker_set_key" : "_ZN4aidl7android8hardware5radio7network14BpRadioNetwork25getVoiceRegistrationStateEi",
   "parameters" :
   [
    {
     "is_this_ptr" : true,
     "referenced_type" : "_ZTIPN4aidl7android8hardware5radio7network14BpRadioNetworkE"
    },
    {
     "referenced_type" : "_ZTIi"
    }
   ],
   "return_type" : "_ZTIN3ndk13ScopedAStatusE",
   "source_file" : "out/soong/.intermediates/hardware/interfaces/radio/aidl/android.hardware.radio.network-V1-ndk-source/gen/include/aidl/android/hardware/radio/network/BpRadioNetwork.h"
  },
  {
   "function_name" : "aidl::android::hardware::radio::network::BpRadioNetwork::getSystemSelectionChannels",
   "linker_set_key" : "_ZN4aidl7android8hardware5radio7network14BpRadioNetwork26getSystemSelectionChannelsEi",
   "parameters" :
   [
    {
     "is_this_ptr" : true,
     "referenced_type" : "_ZTIPN4aidl7android8hardware5radio7network14BpRadioNetworkE"
    },
    {
     "referenced_type" : "_ZTIi"
    }
   ],
   "return_type" : "_ZTIN3ndk13ScopedAStatusE",
   "source_file" : "out/soong/.intermediates/hardware/interfaces/radio/aidl/android.hardware.radio.network-V1-ndk-source/gen/include/aidl/android/hardware/radio/network/BpRadioNetwork.h"
  },
  {
   "function_name" : "aidl::android::hardware::radio::network::BpRadioNetwork::setNrDualConnectivityState",
   "linker_set_key" : "_ZN4aidl7android8hardware5radio7network14BpRadioNetwork26setNrDualConnectivityStateEiNS3_23NrDualConnectivityStateE",
   "parameters" :
   [
    {
     "is_this_ptr" : true,
     "referenced_type" : "_ZTIPN4aidl7android8hardware5radio7network14BpRadioNetworkE"
    },
    {
     "referenced_type" : "_ZTIi"
    },
    {
     "referenced_type" : "_ZTIN4aidl7android8hardware5radio7network23NrDualConnectivityStateE"
    }
   ],
   "return_type" : "_ZTIN3ndk13ScopedAStatusE",
   "source_file" : "out/soong/.intermediates/hardware/interfaces/radio/aidl/android.hardware.radio.network-V1-ndk-source/gen/include/aidl/android/hardware/radio/network/BpRadioNetwork.h"
  },
  {
   "function_name" : "aidl::android::hardware::radio::network::BpRadioNetwork::setSystemSelectionChannels",
   "linker_set_key" : "_ZN4aidl7android8hardware5radio7network14BpRadioNetwork26setSystemSelectionChannelsEibRKNSt3__16vectorINS3_20RadioAccessSpecifierENS5_9allocatorIS7_EEEE",
   "parameters" :
   [
    {
     "is_this_ptr" : true,
     "referenced_type" : "_ZTIPN4aidl7android8hardware5radio7network14BpRadioNetworkE"
    },
    {
     "referenced_type" : "_ZTIi"
    },
    {
     "referenced_type" : "_ZTIb"
    },
    {
     "referenced_type" : "_ZTIRKNSt3__16vectorIN4aidl7android8hardware5radio7network20RadioAccessSpecifierENS_9allocatorIS6_EEEE"
    }
   ],
   "return_type" : "_ZTIN3ndk13ScopedAStatusE",
   "source_file" : "out/soong/.intermediates/hardware/interfaces/radio/aidl/android.hardware.radio.network-V1-ndk-source/gen/include/aidl/android/hardware/radio/network/BpRadioNetwork.h"
  },
  {
   "function_name" : "aidl::android::hardware::radio::network::BpRadioNetwork::isNrDualConnectivityEnabled",
   "linker_set_key" : "_ZN4aidl7android8hardware5radio7network14BpRadioNetwork27isNrDualConnectivityEnabledEi",
   "parameters" :
   [
    {
     "is_this_ptr" : true,
     "referenced_type" : "_ZTIPN4aidl7android8hardware5radio7network14BpRadioNetworkE"
    },
    {
     "referenced_type" : "_ZTIi"
    }
   ],
   "return_type" : "_ZTIN3ndk13ScopedAStatusE",
   "source_file" : "out/soong/.intermediates/hardware/interfaces/radio/aidl/android.hardware.radio.network-V1-ndk-source/gen/include/aidl/android/hardware/radio/network/BpRadioNetwork.h"
  },
  {
   "function_name" : "aidl::android::hardware::radio::network::BpRadioNetwork::setSuppServiceNotifications",
   "linker_set_key" : "_ZN4aidl7android8hardware5radio7network14BpRadioNetwork27setSuppServiceNotificationsEib",
   "parameters" :
   [
    {
     "is_this_ptr" : true,
     "referenced_type" : "_ZTIPN4aidl7android8hardware5radio7network14BpRadioNetworkE"
    },
    {
     "referenced_type" : "_ZTIi"
    },
    {
     "referenced_type" : "_ZTIb"
    }
   ],
   "return_type" : "_ZTIN3ndk13ScopedAStatusE",
   "source_file" : "out/soong/.intermediates/hardware/interfaces/radio/aidl/android.hardware.radio.network-V1-ndk-source/gen/include/aidl/android/hardware/radio/network/BpRadioNetwork.h"
  },
  {
   "function_name" : "aidl::android::hardware::radio::network::BpRadioNetwork::getAllowedNetworkTypesBitmap",
   "linker_set_key" : "_ZN4aidl7android8hardware5radio7network14BpRadioNetwork28getAllowedNetworkTypesBitmapEi",
   "parameters" :
   [
    {
     "is_this_ptr" : true,
     "referenced_type" : "_ZTIPN4aidl7android8hardware5radio7network14BpRadioNetworkE"
    },
    {
     "referenced_type" : "_ZTIi"
    }
   ],
   "return_type" : "_ZTIN3ndk13ScopedAStatusE",
   "source_file" : "out/soong/.intermediates/hardware/interfaces/radio/aidl/android.hardware.radio.network-V1-ndk-source/gen/include/aidl/android/hardware/radio/network/BpRadioNetwork.h"
  },
  {
   "function_name" : "aidl::android::hardware::radio::network::BpRadioNetwork::setAllowedNetworkTypesBitmap",
   "linker_set_key" : "_ZN4aidl7android8hardware5radio7network14BpRadioNetwork28setAllowedNetworkTypesBitmapEii",
   "parameters" :
   [
    {
     "is_this_ptr" : true,
     "referenced_type" : "_ZTIPN4aidl7android8hardware5radio7network14BpRadioNetworkE"
    },
    {
     "referenced_type" : "_ZTIi"
    },
    {
     "referenced_type" : "_ZTIi"
    }
   ],
   "return_type" : "_ZTIN3ndk13ScopedAStatusE",
   "source_file" : "out/soong/.intermediates/hardware/interfaces/radio/aidl/android.hardware.radio.network-V1-ndk-source/gen/include/aidl/android/hardware/radio/network/BpRadioNetwork.h"
  },
  {
   "function_name" : "aidl::android::hardware::radio::network::BpRadioNetwork::setNetworkSelectionModeManual",
   "linker_set_key" : "_ZN4aidl7android8hardware5radio7network14BpRadioNetwork29setNetworkSelectionModeManualEiRKNSt3__112basic_stringIcNS5_11char_traitsIcEENS5_9allocatorIcEEEENS2_13AccessNetworkE",
   "parameters" :
   [
    {
     "is_this_ptr" : true,
     "referenced_type" : "_ZTIPN4aidl7android8hardware5radio7network14BpRadioNetworkE"
    },
    {
     "referenced_type" : "_ZTIi"
    },
    {
     "referenced_type" : "_ZTIRKNSt3__112basic_stringIcNS_11char_traitsIcEENS_9allocatorIcEEEE"
    },
    {
     "referenced_type" : "_ZTIN4aidl7android8hardware5radio13AccessNetworkE"
    }
   ],
   "return_type" : "_ZTIN3ndk13ScopedAStatusE",
   "source_file" : "out/soong/.intermediates/hardware/interfaces/radio/aidl/android.hardware.radio.network-V1-ndk-source/gen/include/aidl/android/hardware/radio/network/BpRadioNetwork.h"
  },
  {
   "function_name" : "aidl::android::hardware::radio::network::BpRadioNetwork::supplyNetworkDepersonalization",
   "linker_set_key" : "_ZN4aidl7android8hardware5radio7network14BpRadioNetwork30supplyNetworkDepersonalizationEiRKNSt3__112basic_stringIcNS5_11char_traitsIcEENS5_9allocatorIcEEEE",
   "parameters" :
   [
    {
     "is_this_ptr" : true,
     "referenced_type" : "_ZTIPN4aidl7android8hardware5radio7network14BpRadioNetworkE"
    },
    {
     "referenced_type" : "_ZTIi"
    },
    {
     "referenced_type" : "_ZTIRKNSt3__112basic_stringIcNS_11char_traitsIcEENS_9allocatorIcEEEE"
    }
   ],
   "return_type" : "_ZTIN3ndk13ScopedAStatusE",
   "source_file" : "out/soong/.intermediates/hardware/interfaces/radio/aidl/android.hardware.radio.network-V1-ndk-source/gen/include/aidl/android/hardware/radio/network/BpRadioNetwork.h"
  },
  {
   "function_name" : "aidl::android::hardware::radio::network::BpRadioNetwork::setLinkCapacityReportingCriteria",
   "linker_set_key" : "_ZN4aidl7android8hardware5radio7network14BpRadioNetwork32setLinkCapacityReportingCriteriaEiiiiRKNSt3__16vectorIiNS5_9allocatorIiEEEESB_NS2_13AccessNetworkE",
   "parameters" :
   [
    {
     "is_this_ptr" : true,
     "referenced_type" : "_ZTIPN4aidl7android8hardware5radio7network14BpRadioNetworkE"
    },
    {
     "referenced_type" : "_ZTIi"
    },
    {
     "referenced_type" : "_ZTIi"
    },
    {
     "referenced_type" : "_ZTIi"
    },
    {
     "referenced_type" : "_ZTIi"
    },
    {
     "referenced_type" : "_ZTIRKNSt3__16vectorIiNS_9allocatorIiEEEE"
    },
    {
     "referenced_type" : "_ZTIRKNSt3__16vectorIiNS_9allocatorIiEEEE"
    },
    {
     "referenced_type" : "_ZTIN4aidl7android8hardware5radio13AccessNetworkE"
    }
   ],
   "return_type" : "_ZTIN3ndk13ScopedAStatusE",
   "source_file" : "out/soong/.intermediates/hardware/interfaces/radio/aidl/android.hardware.radio.network-V1-ndk-source/gen/include/aidl/android/hardware/radio/network/BpRadioNetwork.h"
  },
  {
   "function_name" : "aidl::android::hardware::radio::network::BpRadioNetwork::setNetworkSelectionModeAutomatic",
   "linker_set_key" : "_ZN4aidl7android8hardware5radio7network14BpRadioNetwork32setNetworkSelectionModeAutomaticEi",
   "parameters" :
   [
    {
     "is_this_ptr" : true,
     "referenced_type" : "_ZTIPN4aidl7android8hardware5radio7network14BpRadioNetworkE"
    },
    {
     "referenced_type" : "_ZTIi"
    }
   ],
   "return_type" : "_ZTIN3ndk13ScopedAStatusE",
   "source_file" : "out/soong/.intermediates/hardware/interfaces/radio/aidl/android.hardware.radio.network-V1-ndk-source/gen/include/aidl/android/hardware/radio/network/BpRadioNetwork.h"
  },
  {
   "function_name" : "aidl::android::hardware::radio::network::BpRadioNetwork::setSignalStrengthReportingCriteria",
   "linker_set_key" : "_ZN4aidl7android8hardware5radio7network14BpRadioNetwork34setSignalStrengthReportingCriteriaEiRKNSt3__16vectorINS3_19SignalThresholdInfoENS5_9allocatorIS7_EEEE",
   "parameters" :
   [
    {
     "is_this_ptr" : true,
     "referenced_type" : "_ZTIPN4aidl7android8hardware5radio7network14BpRadioNetworkE"
    },
    {
     "referenced_type" : "_ZTIi"
    },
    {
     "referenced_type" : "_ZTIRKNSt3__16vectorIN4aidl7android8hardware5radio7network19SignalThresholdInfoENS_9allocatorIS6_EEEE"
    }
   ],
   "return_type" : "_ZTIN3ndk13ScopedAStatusE",
   "source_file" : "out/soong/.intermediates/hardware/interfaces/radio/aidl/android.hardware.radio.network-V1-ndk-source/gen/include/aidl/android/hardware/radio/network/BpRadioNetwork.h"
  },
  {
   "function_name" : "aidl::android::hardware::radio::network::BpRadioNetwork::BpRadioNetwork",
   "linker_set_key" : "_ZN4aidl7android8hardware5radio7network14BpRadioNetworkC1ERKN3ndk10SpAIBinderE",
   "parameters" :
   [
    {
     "is_this_ptr" : true,
     "referenced_type" : "_ZTIPN4aidl7android8hardware5radio7network14BpRadioNetworkE"
    },
    {
     "referenced_type" : "_ZTIRKN3ndk10SpAIBinderE"
    }
   ],
   "return_type" : "_ZTIv",
   "source_file" : "out/soong/.intermediates/hardware/interfaces/radio/aidl/android.hardware.radio.network-V1-ndk-source/gen/include/aidl/android/hardware/radio/network/BpRadioNetwork.h"
  },
  {
   "function_name" : "aidl::android::hardware::radio::network::BpRadioNetwork::BpRadioNetwork",
   "linker_set_key" : "_ZN4aidl7android8hardware5radio7network14BpRadioNetworkC2ERKN3ndk10SpAIBinderE",
   "parameters" :
   [
    {
     "is_this_ptr" : true,
     "referenced_type" : "_ZTIPN4aidl7android8hardware5radio7network14BpRadioNetworkE"
    },
    {
     "referenced_type" : "_ZTIRKN3ndk10SpAIBinderE"
    }
   ],
   "return_type" : "_ZTIv",
   "source_file" : "out/soong/.intermediates/hardware/interfaces/radio/aidl/android.hardware.radio.network-V1-ndk-source/gen/include/aidl/android/hardware/radio/network/BpRadioNetwork.h"
  },
  {
   "function_name" : "aidl::android::hardware::radio::network::BpRadioNetwork::~BpRadioNetwork",
   "linker_set_key" : "_ZN4aidl7android8hardware5radio7network14BpRadioNetworkD0Ev",
   "parameters" :
   [
    {
     "is_this_ptr" : true,
     "referenced_type" : "_ZTIPN4aidl7android8hardware5radio7network14BpRadioNetworkE"
    }
   ],
   "return_type" : "_ZTIv",
   "source_file" : "out/soong/.intermediates/hardware/interfaces/radio/aidl/android.hardware.radio.network-V1-ndk-source/gen/include/aidl/android/hardware/radio/network/BpRadioNetwork.h"
  },
  {
   "function_name" : "aidl::android::hardware::radio::network::BpRadioNetwork::~BpRadioNetwork",
   "linker_set_key" : "_ZN4aidl7android8hardware5radio7network14BpRadioNetworkD1Ev",
   "parameters" :
   [
    {
     "is_this_ptr" : true,
     "referenced_type" : "_ZTIPN4aidl7android8hardware5radio7network14BpRadioNetworkE"
    }
   ],
   "return_type" : "_ZTIv",
   "source_file" : "out/soong/.intermediates/hardware/interfaces/radio/aidl/android.hardware.radio.network-V1-ndk-source/gen/include/aidl/android/hardware/radio/network/BpRadioNetwork.h"
  },
  {
   "function_name" : "aidl::android::hardware::radio::network::BpRadioNetwork::~BpRadioNetwork",
   "linker_set_key" : "_ZN4aidl7android8hardware5radio7network14BpRadioNetworkD2Ev",
   "parameters" :
   [
    {
     "is_this_ptr" : true,
     "referenced_type" : "_ZTIPN4aidl7android8hardware5radio7network14BpRadioNetworkE"
    }
   ],
   "return_type" : "_ZTIv",
   "source_file" : "out/soong/.intermediates/hardware/interfaces/radio/aidl/android.hardware.radio.network-V1-ndk-source/gen/include/aidl/android/hardware/radio/network/BpRadioNetwork.h"
  },
  {
   "function_name" : "aidl::android::hardware::radio::network::CellIdentityNr::readFromParcel",
   "linker_set_key" : "_ZN4aidl7android8hardware5radio7network14CellIdentityNr14readFromParcelEPK7AParcel",
   "parameters" :
   [
    {
     "is_this_ptr" : true,
     "referenced_type" : "_ZTIPN4aidl7android8hardware5radio7network14CellIdentityNrE"
    },
    {
     "referenced_type" : "_ZTIPK7AParcel"
    }
   ],
   "return_type" : "_ZTIi",
   "source_file" : "out/soong/.intermediates/hardware/interfaces/radio/aidl/android.hardware.radio.network-V1-ndk-source/gen/include/aidl/android/hardware/radio/network/CellIdentityNr.h"
  },
  {
   "function_name" : "aidl::android::hardware::radio::network::RegStateResult::readFromParcel",
   "linker_set_key" : "_ZN4aidl7android8hardware5radio7network14RegStateResult14readFromParcelEPK7AParcel",
   "parameters" :
   [
    {
     "is_this_ptr" : true,
     "referenced_type" : "_ZTIPN4aidl7android8hardware5radio7network14RegStateResultE"
    },
    {
     "referenced_type" : "_ZTIPK7AParcel"
    }
   ],
   "return_type" : "_ZTIi",
   "source_file" : "out/soong/.intermediates/hardware/interfaces/radio/aidl/android.hardware.radio.network-V1-ndk-source/gen/include/aidl/android/hardware/radio/network/RegStateResult.h"
  },
  {
   "function_name" : "aidl::android::hardware::radio::network::SignalStrength::readFromParcel",
   "linker_set_key" : "_ZN4aidl7android8hardware5radio7network14SignalStrength14readFromParcelEPK7AParcel",
   "parameters" :
   [
    {
     "is_this_ptr" : true,
     "referenced_type" : "_ZTIPN4aidl7android8hardware5radio7network14SignalStrengthE"
    },
    {
     "referenced_type" : "_ZTIPK7AParcel"
    }
   ],
   "return_type" : "_ZTIi",
   "source_file" : "out/soong/.intermediates/hardware/interfaces/radio/aidl/android.hardware.radio.network-V1-ndk-source/gen/include/aidl/android/hardware/radio/network/SignalStrength.h"
  },
  {
   "function_name" : "aidl::android::hardware::radio::network::CellIdentityGsm::readFromParcel",
   "linker_set_key" : "_ZN4aidl7android8hardware5radio7network15CellIdentityGsm14readFromParcelEPK7AParcel",
   "parameters" :
   [
    {
     "is_this_ptr" : true,
     "referenced_type" : "_ZTIPN4aidl7android8hardware5radio7network15CellIdentityGsmE"
    },
    {
     "referenced_type" : "_ZTIPK7AParcel"
    }
   ],
   "return_type" : "_ZTIi",
   "source_file" : "out/soong/.intermediates/hardware/interfaces/radio/aidl/android.hardware.radio.network-V1-ndk-source/gen/include/aidl/android/hardware/radio/network/CellIdentityGsm.h"
  },
  {
   "function_name" : "aidl::android::hardware::radio::network::CellIdentityLte::readFromParcel",
   "linker_set_key" : "_ZN4aidl7android8hardware5radio7network15CellIdentityLte14readFromParcelEPK7AParcel",
   "parameters" :
   [
    {
     "is_this_ptr" : true,
     "referenced_type" : "_ZTIPN4aidl7android8hardware5radio7network15CellIdentityLteE"
    },
    {
     "referenced_type" : "_ZTIPK7AParcel"
    }
   ],
   "return_type" : "_ZTIi",
   "source_file" : "out/soong/.intermediates/hardware/interfaces/radio/aidl/android.hardware.radio.network-V1-ndk-source/gen/include/aidl/android/hardware/radio/network/CellIdentityLte.h"
  },
  {
   "function_name" : "aidl::android::hardware::radio::network::CellInfoTdscdma::readFromParcel",
   "linker_set_key" : "_ZN4aidl7android8hardware5radio7network15CellInfoTdscdma14readFromParcelEPK7AParcel",
   "parameters" :
   [
    {
     "is_this_ptr" : true,
     "referenced_type" : "_ZTIPN4aidl7android8hardware5radio7network15CellInfoTdscdmaE"
    },
    {
     "referenced_type" : "_ZTIPK7AParcel"
    }
   ],
   "return_type" : "_ZTIi",
   "source_file" : "out/soong/.intermediates/hardware/interfaces/radio/aidl/android.hardware.radio.network-V1-ndk-source/gen/include/aidl/android/hardware/radio/network/CellInfoTdscdma.h"
  },
  {
   "function_name" : "aidl::android::hardware::radio::network::CellIdentityCdma::readFromParcel",
   "linker_set_key" : "_ZN4aidl7android8hardware5radio7network16CellIdentityCdma14readFromParcelEPK7AParcel",
   "parameters" :
   [
    {
     "is_this_ptr" : true,
     "referenced_type" : "_ZTIPN4aidl7android8hardware5radio7network16CellIdentityCdmaE"
    },
    {
     "referenced_type" : "_ZTIPK7AParcel"
    }
   ],
   "return_type" : "_ZTIi",
   "source_file" : "out/soong/.intermediates/hardware/interfaces/radio/aidl/android.hardware.radio.network-V1-ndk-source/gen/include/aidl/android/hardware/radio/network/CellIdentityCdma.h"
  },
  {
   "function_name" : "aidl::android::hardware::radio::network::NrSignalStrength::readFromParcel",
   "linker_set_key" : "_ZN4aidl7android8hardware5radio7network16NrSignalStrength14readFromParcelEPK7AParcel",
   "parameters" :
   [
    {
     "is_this_ptr" : true,
     "referenced_type" : "_ZTIPN4aidl7android8hardware5radio7network16NrSignalStrengthE"
    },
    {
     "referenced_type" : "_ZTIPK7AParcel"
    }
   ],
   "return_type" : "_ZTIi",
   "source_file" : "out/soong/.intermediates/hardware/interfaces/radio/aidl/android.hardware.radio.network-V1-ndk-source/gen/include/aidl/android/hardware/radio/network/NrSignalStrength.h"
  },
  {
   "function_name" : "aidl::android::hardware::radio::network::CellIdentityWcdma::readFromParcel",
   "linker_set_key" : "_ZN4aidl7android8hardware5radio7network17CellIdentityWcdma14readFromParcelEPK7AParcel",
   "parameters" :
   [
    {
     "is_this_ptr" : true,
     "referenced_type" : "_ZTIPN4aidl7android8hardware5radio7network17CellIdentityWcdmaE"
    },
    {
     "referenced_type" : "_ZTIPK7AParcel"
    }
   ],
   "return_type" : "_ZTIi",
   "source_file" : "out/soong/.intermediates/hardware/interfaces/radio/aidl/android.hardware.radio.network-V1-ndk-source/gen/include/aidl/android/hardware/radio/network/CellIdentityWcdma.h"
  },
  {
   "function_name" : "aidl::android::hardware::radio::network::GsmSignalStrength::readFromParcel",
   "linker_set_key" : "_ZN4aidl7android8hardware5radio7network17GsmSignalStrength14readFromParcelEPK7AParcel",
   "parameters" :
   [
    {
     "is_this_ptr" : true,
     "referenced_type" : "_ZTIPN4aidl7android8hardware5radio7network17GsmSignalStrengthE"
    },
    {
     "referenced_type" : "_ZTIPK7AParcel"
    }
   ],
   "return_type" : "_ZTIi",
   "source_file" : "out/soong/.intermediates/hardware/interfaces/radio/aidl/android.hardware.radio.network-V1-ndk-source/gen/include/aidl/android/hardware/radio/network/GsmSignalStrength.h"
  },
  {
   "function_name" : "aidl::android::hardware::radio::network::LteSignalStrength::readFromParcel",
   "linker_set_key" : "_ZN4aidl7android8hardware5radio7network17LteSignalStrength14readFromParcelEPK7AParcel",
   "parameters" :
   [
    {
     "is_this_ptr" : true,
     "referenced_type" : "_ZTIPN4aidl7android8hardware5radio7network17LteSignalStrengthE"
    },
    {
     "referenced_type" : "_ZTIPK7AParcel"
    }
   ],
   "return_type" : "_ZTIi",
   "source_file" : "out/soong/.intermediates/hardware/interfaces/radio/aidl/android.hardware.radio.network-V1-ndk-source/gen/include/aidl/android/hardware/radio/network/LteSignalStrength.h"
  },
  {
   "function_name" : "aidl::android::hardware::radio::network::NetworkScanResult::readFromParcel",
   "linker_set_key" : "_ZN4aidl7android8hardware5radio7network17NetworkScanResult14readFromParcelEPK7AParcel",
   "parameters" :
   [
    {
     "is_this_ptr" : true,
     "referenced_type" : "_ZTIPN4aidl7android8hardware5radio7network17NetworkScanResultE"
    },
    {
     "referenced_type" : "_ZTIPK7AParcel"
    }
   ],
   "return_type" : "_ZTIi",
   "source_file" : "out/soong/.intermediates/hardware/interfaces/radio/aidl/android.hardware.radio.network-V1-ndk-source/gen/include/aidl/android/hardware/radio/network/NetworkScanResult.h"
  },
  {
   "function_name" : "aidl::android::hardware::radio::network::CdmaSignalStrength::readFromParcel",
   "linker_set_key" : "_ZN4aidl7android8hardware5radio7network18CdmaSignalStrength14readFromParcelEPK7AParcel",
   "parameters" :
   [
    {
     "is_this_ptr" : true,
     "referenced_type" : "_ZTIPN4aidl7android8hardware5radio7network18CdmaSignalStrengthE"
    },
    {
     "referenced_type" : "_ZTIPK7AParcel"
    }
   ],
   "return_type" : "_ZTIi",
   "source_file" : "out/soong/.intermediates/hardware/interfaces/radio/aidl/android.hardware.radio.network-V1-ndk-source/gen/include/aidl/android/hardware/radio/network/CdmaSignalStrength.h"
  },
  {
   "function_name" : "aidl::android::hardware::radio::network::EvdoSignalStrength::readFromParcel",
   "linker_set_key" : "_ZN4aidl7android8hardware5radio7network18EvdoSignalStrength14readFromParcelEPK7AParcel",
   "parameters" :
   [
    {
     "is_this_ptr" : true,
     "referenced_type" : "_ZTIPN4aidl7android8hardware5radio7network18EvdoSignalStrengthE"
    },
    {
     "referenced_type" : "_ZTIPK7AParcel"
    }
   ],
   "return_type" : "_ZTIi",
   "source_file" : "out/soong/.intermediates/hardware/interfaces/radio/aidl/android.hardware.radio.network-V1-ndk-source/gen/include/aidl/android/hardware/radio/network/EvdoSignalStrength.h"
  },
  {
   "function_name" : "aidl::android::hardware::radio::network::NetworkScanRequest::readFromParcel",
   "linker_set_key" : "_ZN4aidl7android8hardware5radio7network18NetworkScanRequest14readFromParcelEPK7AParcel",
   "parameters" :
   [
    {
     "is_this_ptr" : true,
     "referenced_type" : "_ZTIPN4aidl7android8hardware5radio7network18NetworkScanRequestE"
    },
    {
     "referenced_type" : "_ZTIPK7AParcel"
    }
   ],
   "return_type" : "_ZTIi",
   "source_file" : "out/soong/.intermediates/hardware/interfaces/radio/aidl/android.hardware.radio.network-V1-ndk-source/gen/include/aidl/android/hardware/radio/network/NetworkScanRequest.h"
  },
  {
   "function_name" : "aidl::android::hardware::radio::network::CellIdentityTdscdma::readFromParcel",
   "linker_set_key" : "_ZN4aidl7android8hardware5radio7network19CellIdentityTdscdma14readFromParcelEPK7AParcel",
   "parameters" :
   [
    {
     "is_this_ptr" : true,
     "referenced_type" : "_ZTIPN4aidl7android8hardware5radio7network19CellIdentityTdscdmaE"
    },
    {
     "referenced_type" : "_ZTIPK7AParcel"
    }
   ],
   "return_type" : "_ZTIi",
   "source_file" : "out/soong/.intermediates/hardware/interfaces/radio/aidl/android.hardware.radio.network-V1-ndk-source/gen/include/aidl/android/hardware/radio/network/CellIdentityTdscdma.h"
  },
  {
   "function_name" : "aidl::android::hardware::radio::network::SignalThresholdInfo::readFromParcel",
   "linker_set_key" : "_ZN4aidl7android8hardware5radio7network19SignalThresholdInfo14readFromParcelEPK7AParcel",
   "parameters" :
   [
    {
     "is_this_ptr" : true,
     "referenced_type" : "_ZTIPN4aidl7android8hardware5radio7network19SignalThresholdInfoE"
    },
    {
     "referenced_type" : "_ZTIPK7AParcel"
    }
   ],
   "return_type" : "_ZTIi",
   "source_file" : "out/soong/.intermediates/hardware/interfaces/radio/aidl/android.hardware.radio.network-V1-ndk-source/gen/include/aidl/android/hardware/radio/network/SignalThresholdInfo.h"
  },
  {
   "function_name" : "aidl::android::hardware::radio::network::SuppSvcNotification::readFromParcel",
   "linker_set_key" : "_ZN4aidl7android8hardware5radio7network19SuppSvcNotification14readFromParcelEPK7AParcel",
   "parameters" :
   [
    {
     "is_this_ptr" : true,
     "referenced_type" : "_ZTIPN4aidl7android8hardware5radio7network19SuppSvcNotificationE"
    },
    {
     "referenced_type" : "_ZTIPK7AParcel"
    }
   ],
   "return_type" : "_ZTIi",
   "source_file" : "out/soong/.intermediates/hardware/interfaces/radio/aidl/android.hardware.radio.network-V1-ndk-source/gen/include/aidl/android/hardware/radio/network/SuppSvcNotification.h"
  },
  {
   "function_name" : "aidl::android::hardware::radio::network::WcdmaSignalStrength::readFromParcel",
   "linker_set_key" : "_ZN4aidl7android8hardware5radio7network19WcdmaSignalStrength14readFromParcelEPK7AParcel",
   "parameters" :
   [
    {
     "is_this_ptr" : true,
     "referenced_type" : "_ZTIPN4aidl7android8hardware5radio7network19WcdmaSignalStrengthE"
    },
    {
     "referenced_type" : "_ZTIPK7AParcel"
    }
   ],
   "return_type" : "_ZTIi",
   "source_file" : "out/soong/.intermediates/hardware/interfaces/radio/aidl/android.hardware.radio.network-V1-ndk-source/gen/include/aidl/android/hardware/radio/network/WcdmaSignalStrength.h"
  },
  {
   "function_name" : "aidl::android::hardware::radio::network::IRadioNetworkDefault::getOperator",
   "linker_set_key" : "_ZN4aidl7android8hardware5radio7network20IRadioNetworkDefault11getOperatorEi",
   "parameters" :
   [
    {
     "is_this_ptr" : true,
     "referenced_type" : "_ZTIPN4aidl7android8hardware5radio7network20IRadioNetworkDefaultE"
    },
    {
     "referenced_type" : "_ZTIi"
    }
   ],
   "return_type" : "_ZTIN3ndk13ScopedAStatusE",
   "source_file" : "out/soong/.intermediates/hardware/interfaces/radio/aidl/android.hardware.radio.network-V1-ndk-source/gen/include/aidl/android/hardware/radio/network/IRadioNetwork.h"
  },
  {
   "function_name" : "aidl::android::hardware::radio::network::IRadioNetworkDefault::setBandMode",
   "linker_set_key" : "_ZN4aidl7android8hardware5radio7network20IRadioNetworkDefault11setBandModeEiNS3_13RadioBandModeE",
   "parameters" :
   [
    {
     "is_this_ptr" : true,
     "referenced_type" : "_ZTIPN4aidl7android8hardware5radio7network20IRadioNetworkDefaultE"
    },
    {
     "referenced_type" : "_ZTIi"
    },
    {
     "referenced_type" : "_ZTIN4aidl7android8hardware5radio7network13RadioBandModeE"
    }
   ],
   "return_type" : "_ZTIN3ndk13ScopedAStatusE",
   "source_file" : "out/soong/.intermediates/hardware/interfaces/radio/aidl/android.hardware.radio.network-V1-ndk-source/gen/include/aidl/android/hardware/radio/network/IRadioNetwork.h"
  },
  {
   "function_name" : "aidl::android::hardware::radio::network::IRadioNetworkDefault::getBarringInfo",
   "linker_set_key" : "_ZN4aidl7android8hardware5radio7network20IRadioNetworkDefault14getBarringInfoEi",
   "parameters" :
   [
    {
     "is_this_ptr" : true,
     "referenced_type" : "_ZTIPN4aidl7android8hardware5radio7network20IRadioNetworkDefaultE"
    },
    {
     "referenced_type" : "_ZTIi"
    }
   ],
   "return_type" : "_ZTIN3ndk13ScopedAStatusE",
   "source_file" : "out/soong/.intermediates/hardware/interfaces/radio/aidl/android.hardware.radio.network-V1-ndk-source/gen/include/aidl/android/hardware/radio/network/IRadioNetwork.h"
  },
  {
   "function_name" : "aidl::android::hardware::radio::network::IRadioNetworkDefault::getCellInfoList",
   "linker_set_key" : "_ZN4aidl7android8hardware5radio7network20IRadioNetworkDefault15getCellInfoListEi",
   "parameters" :
   [
    {
     "is_this_ptr" : true,
     "referenced_type" : "_ZTIPN4aidl7android8hardware5radio7network20IRadioNetworkDefaultE"
    },
    {
     "referenced_type" : "_ZTIi"
    }
   ],
   "return_type" : "_ZTIN3ndk13ScopedAStatusE",
   "source_file" : "out/soong/.intermediates/hardware/interfaces/radio/aidl/android.hardware.radio.network-V1-ndk-source/gen/include/aidl/android/hardware/radio/network/IRadioNetwork.h"
  },
  {
   "function_name" : "aidl::android::hardware::radio::network::IRadioNetworkDefault::getUsageSetting",
   "linker_set_key" : "_ZN4aidl7android8hardware5radio7network20IRadioNetworkDefault15getUsageSettingEi",
   "parameters" :
   [
    {
     "is_this_ptr" : true,
     "referenced_type" : "_ZTIPN4aidl7android8hardware5radio7network20IRadioNetworkDefaultE"
    },
    {
     "referenced_type" : "_ZTIi"
    }
   ],
   "return_type" : "_ZTIN3ndk13ScopedAStatusE",
   "source_file" : "out/soong/.intermediates/hardware/interfaces/radio/aidl/android.hardware.radio.network-V1-ndk-source/gen/include/aidl/android/hardware/radio/network/IRadioNetwork.h"
  },
  {
   "function_name" : "aidl::android::hardware::radio::network::IRadioNetworkDefault::setUsageSetting",
   "linker_set_key" : "_ZN4aidl7android8hardware5radio7network20IRadioNetworkDefault15setUsageSettingEiNS3_12UsageSettingE",
   "parameters" :
   [
    {
     "is_this_ptr" : true,
     "referenced_type" : "_ZTIPN4aidl7android8hardware5radio7network20IRadioNetworkDefaultE"
    },
    {
     "referenced_type" : "_ZTIi"
    },
    {
     "referenced_type" : "_ZTIN4aidl7android8hardware5radio7network12UsageSettingE"
    }
   ],
   "return_type" : "_ZTIN3ndk13ScopedAStatusE",
   "source_file" : "out/soong/.intermediates/hardware/interfaces/radio/aidl/android.hardware.radio.network-V1-ndk-source/gen/include/aidl/android/hardware/radio/network/IRadioNetwork.h"
  },
  {
   "function_name" : "aidl::android::hardware::radio::network::IRadioNetworkDefault::stopNetworkScan",
   "linker_set_key" : "_ZN4aidl7android8hardware5radio7network20IRadioNetworkDefault15stopNetworkScanEi",
   "parameters" :
   [
    {
     "is_this_ptr" : true,
     "referenced_type" : "_ZTIPN4aidl7android8hardware5radio7network20IRadioNetworkDefaultE"
    },
    {
     "referenced_type" : "_ZTIi"
    }
   ],
   "return_type" : "_ZTIN3ndk13ScopedAStatusE",
   "source_file" : "out/soong/.intermediates/hardware/interfaces/radio/aidl/android.hardware.radio.network-V1-ndk-source/gen/include/aidl/android/hardware/radio/network/IRadioNetwork.h"
  },
  {
   "function_name" : "aidl::android::hardware::radio::network::IRadioNetworkDefault::getInterfaceHash",
   "linker_set_key" : "_ZN4aidl7android8hardware5radio7network20IRadioNetworkDefault16getInterfaceHashEPNSt3__112basic_stringIcNS5_11char_traitsIcEENS5_9allocatorIcEEEE",
   "parameters" :
   [
    {
     "is_this_ptr" : true,
     "referenced_type" : "_ZTIPN4aidl7android8hardware5radio7network20IRadioNetworkDefaultE"
    },
    {
     "referenced_type" : "_ZTIPNSt3__112basic_stringIcNS_11char_traitsIcEENS_9allocatorIcEEEE"
    }
   ],
   "return_type" : "_ZTIN3ndk13ScopedAStatusE",
   "source_file" : "out/soong/.intermediates/hardware/interfaces/radio/aidl/android.hardware.radio.network-V1-ndk-source/gen/include/aidl/android/hardware/radio/network/IRadioNetwork.h"
  },
  {
   "function_name" : "aidl::android::hardware::radio::network::IRadioNetworkDefault::startNetworkScan",
   "linker_set_key" : "_ZN4aidl7android8hardware5radio7network20IRadioNetworkDefault16startNetworkScanEiRKNS3_18NetworkScanRequestE",
   "parameters" :
   [
    {
     "is_this_ptr" : true,
     "referenced_type" : "_ZTIPN4aidl7android8hardware5radio7network20IRadioNetworkDefaultE"
    },
    {
     "referenced_type" : "_ZTIi"
    },
    {
     "referenced_type" : "_ZTIRKN4aidl7android8hardware5radio7network18NetworkScanRequestE"
    }
   ],
   "return_type" : "_ZTIN3ndk13ScopedAStatusE",
   "source_file" : "out/soong/.intermediates/hardware/interfaces/radio/aidl/android.hardware.radio.network-V1-ndk-source/gen/include/aidl/android/hardware/radio/network/IRadioNetwork.h"
  },
  {
   "function_name" : "aidl::android::hardware::radio::network::IRadioNetworkDefault::getSignalStrength",
   "linker_set_key" : "_ZN4aidl7android8hardware5radio7network20IRadioNetworkDefault17getSignalStrengthEi",
   "parameters" :
   [
    {
     "is_this_ptr" : true,
     "referenced_type" : "_ZTIPN4aidl7android8hardware5radio7network20IRadioNetworkDefaultE"
    },
    {
     "referenced_type" : "_ZTIi"
    }
   ],
   "return_type" : "_ZTIN3ndk13ScopedAStatusE",
   "source_file" : "out/soong/.intermediates/hardware/interfaces/radio/aidl/android.hardware.radio.network-V1-ndk-source/gen/include/aidl/android/hardware/radio/network/IRadioNetwork.h"
  },
  {
   "function_name" : "aidl::android::hardware::radio::network::IRadioNetworkDefault::setBarringPassword",
   "linker_set_key" : "_ZN4aidl7android8hardware5radio7network20IRadioNetworkDefault18setBarringPasswordEiRKNSt3__112basic_stringIcNS5_11char_traitsIcEENS5_9allocatorIcEEEESD_SD_",
   "parameters" :
   [
    {
     "is_this_ptr" : true,
     "referenced_type" : "_ZTIPN4aidl7android8hardware5radio7network20IRadioNetworkDefaultE"
    },
    {
     "referenced_type" : "_ZTIi"
    },
    {
     "referenced_type" : "_ZTIRKNSt3__112basic_stringIcNS_11char_traitsIcEENS_9allocatorIcEEEE"
    },
    {
     "referenced_type" : "_ZTIRKNSt3__112basic_stringIcNS_11char_traitsIcEENS_9allocatorIcEEEE"
    },
    {
     "referenced_type" : "_ZTIRKNSt3__112basic_stringIcNS_11char_traitsIcEENS_9allocatorIcEEEE"
    }
   ],
   "return_type" : "_ZTIN3ndk13ScopedAStatusE",
   "source_file" : "out/soong/.intermediates/hardware/interfaces/radio/aidl/android.hardware.radio.network-V1-ndk-source/gen/include/aidl/android/hardware/radio/network/IRadioNetwork.h"
  },
  {
   "function_name" : "aidl::android::hardware::radio::network::IRadioNetworkDefault::setLocationUpdates",
   "linker_set_key" : "_ZN4aidl7android8hardware5radio7network20IRadioNetworkDefault18setLocationUpdatesEib",
   "parameters" :
   [
    {
     "is_this_ptr" : true,
     "referenced_type" : "_ZTIPN4aidl7android8hardware5radio7network20IRadioNetworkDefaultE"
    },
    {
     "referenced_type" : "_ZTIi"
    },
    {
     "referenced_type" : "_ZTIb"
    }
   ],
   "return_type" : "_ZTIN3ndk13ScopedAStatusE",
   "source_file" : "out/soong/.intermediates/hardware/interfaces/radio/aidl/android.hardware.radio.network-V1-ndk-source/gen/include/aidl/android/hardware/radio/network/IRadioNetwork.h"
  },
  {
   "function_name" : "aidl::android::hardware::radio::network::IRadioNetworkDefault::getInterfaceVersion",
   "linker_set_key" : "_ZN4aidl7android8hardware5radio7network20IRadioNetworkDefault19getInterfaceVersionEPi",
   "parameters" :
   [
    {
     "is_this_ptr" : true,
     "referenced_type" : "_ZTIPN4aidl7android8hardware5radio7network20IRadioNetworkDefaultE"
    },
    {
     "referenced_type" : "_ZTIPi"
    }
   ],
   "return_type" : "_ZTIN3ndk13ScopedAStatusE",
   "source_file" : "out/soong/.intermediates/hardware/interfaces/radio/aidl/android.hardware.radio.network-V1-ndk-source/gen/include/aidl/android/hardware/radio/network/IRadioNetwork.h"
  },
  {
   "function_name" : "aidl::android::hardware::radio::network::IRadioNetworkDefault::setCellInfoListRate",
   "linker_set_key" : "_ZN4aidl7android8hardware5radio7network20IRadioNetworkDefault19setCellInfoListRateEii",
   "parameters" :
   [
    {
     "is_this_ptr" : true,
     "referenced_type" : "_ZTIPN4aidl7android8hardware5radio7network20IRadioNetworkDefaultE"
    },
    {
     "referenced_type" : "_ZTIi"
    },
    {
     "referenced_type" : "_ZTIi"
    }
   ],
   "return_type" : "_ZTIN3ndk13ScopedAStatusE",
   "source_file" : "out/soong/.intermediates/hardware/interfaces/radio/aidl/android.hardware.radio.network-V1-ndk-source/gen/include/aidl/android/hardware/radio/network/IRadioNetwork.h"
  },
  {
   "function_name" : "aidl::android::hardware::radio::network::IRadioNetworkDefault::setIndicationFilter",
   "linker_set_key" : "_ZN4aidl7android8hardware5radio7network20IRadioNetworkDefault19setIndicationFilterEii",
   "parameters" :
   [
    {
     "is_this_ptr" : true,
     "referenced_type" : "_ZTIPN4aidl7android8hardware5radio7network20IRadioNetworkDefaultE"
    },
    {
     "referenced_type" : "_ZTIi"
    },
    {
     "referenced_type" : "_ZTIi"
    }
   ],
   "return_type" : "_ZTIN3ndk13ScopedAStatusE",
   "source_file" : "out/soong/.intermediates/hardware/interfaces/radio/aidl/android.hardware.radio.network-V1-ndk-source/gen/include/aidl/android/hardware/radio/network/IRadioNetwork.h"
  },
  {
   "function_name" : "aidl::android::hardware::radio::network::IRadioNetworkDefault::getAvailableNetworks",
   "linker_set_key" : "_ZN4aidl7android8hardware5radio7network20IRadioNetworkDefault20getAvailableNetworksEi",
   "parameters" :
   [
    {
     "is_this_ptr" : true,
     "referenced_type" : "_ZTIPN4aidl7android8hardware5radio7network20IRadioNetworkDefaultE"
    },
    {
     "referenced_type" : "_ZTIi"
    }
   ],
   "return_type" : "_ZTIN3ndk13ScopedAStatusE",
   "source_file" : "out/soong/.intermediates/hardware/interfaces/radio/aidl/android.hardware.radio.network-V1-ndk-source/gen/include/aidl/android/hardware/radio/network/IRadioNetwork.h"
  },
  {
   "function_name" : "aidl::android::hardware::radio::network::IRadioNetworkDefault::setResponseFunctions",
   "linker_set_key" : "_ZN4aidl7android8hardware5radio7network20IRadioNetworkDefault20setResponseFunctionsERKNSt3__110shared_ptrINS3_21IRadioNetworkResponseEEERKNS6_INS3_23IRadioNetworkIndicationEEE",
   "parameters" :
   [
    {
     "is_this_ptr" : true,
