{
 "array_types" : [],
 "builtin_types" :
 [
  {
   "alignment" : 4,
   "linker_set_key" : "_ZTIDn",
   "name" : "std::nullptr_t",
   "referenced_type" : "_ZTIDn",
   "self_type" : "_ZTIDn",
   "size" : 4
  },
  {
   "alignment" : 2,
   "is_integral" : true,
   "is_unsigned" : true,
   "linker_set_key" : "_ZTIDs",
   "name" : "char16_t",
   "referenced_type" : "_ZTIDs",
   "self_type" : "_ZTIDs",
   "size" : 2
  },
  {
   "alignment" : 1,
   "is_integral" : true,
   "linker_set_key" : "_ZTIa",
   "name" : "signed char",
   "referenced_type" : "_ZTIa",
   "self_type" : "_ZTIa",
   "size" : 1
  },
  {
   "alignment" : 1,
   "is_integral" : true,
   "is_unsigned" : true,
   "linker_set_key" : "_ZTIb",
   "name" : "bool",
   "referenced_type" : "_ZTIb",
   "self_type" : "_ZTIb",
   "size" : 1
  },
  {
   "alignment" : 1,
   "is_integral" : true,
   "linker_set_key" : "_ZTIc",
   "name" : "char",
   "referenced_type" : "_ZTIc",
   "self_type" : "_ZTIc",
   "size" : 1
  },
  {
   "alignment" : 1,
   "is_integral" : true,
   "is_unsigned" : true,
   "linker_set_key" : "_ZTIh",
   "name" : "unsigned char",
   "referenced_type" : "_ZTIh",
   "self_type" : "_ZTIh",
   "size" : 1
  },
  {
   "alignment" : 4,
   "is_integral" : true,
   "linker_set_key" : "_ZTIi",
   "name" : "int",
   "referenced_type" : "_ZTIi",
   "self_type" : "_ZTIi",
   "size" : 4
  },
  {
   "alignment" : 4,
   "is_integral" : true,
   "is_unsigned" : true,
   "linker_set_key" : "_ZTIj",
   "name" : "unsigned int",
   "referenced_type" : "_ZTIj",
   "self_type" : "_ZTIj",
   "size" : 4
  },
  {
   "linker_set_key" : "_ZTIv",
   "name" : "void",
   "referenced_type" : "_ZTIv",
   "self_type" : "_ZTIv"
  },
  {
   "alignment" : 4,
   "is_integral" : true,
   "linker_set_key" : "_ZTIx",
   "name" : "long long",
   "referenced_type" : "_ZTIx",
   "self_type" : "_ZTIx",
   "size" : 8
  }
 ],
 "elf_functions" :
 [
  {
   "binding" : "weak",
   "name" : "_ZN3ndk12BnCInterfaceIN4aidl7android8hardware4wifi10supplicant11ISupplicantEE8asBinderEv"
  },
  {
   "binding" : "weak",
   "name" : "_ZN3ndk12BnCInterfaceIN4aidl7android8hardware4wifi10supplicant19ISupplicantCallbackEE8asBinderEv"
  },
  {
   "binding" : "weak",
   "name" : "_ZN3ndk12BnCInterfaceIN4aidl7android8hardware4wifi10supplicant19ISupplicantP2pIfaceEE8asBinderEv"
  },
  {
   "binding" : "weak",
   "name" : "_ZN3ndk12BnCInterfaceIN4aidl7android8hardware4wifi10supplicant19ISupplicantStaIfaceEE8asBinderEv"
  },
  {
   "binding" : "weak",
   "name" : "_ZN3ndk12BnCInterfaceIN4aidl7android8hardware4wifi10supplicant21ISupplicantP2pNetworkEE8asBinderEv"
  },
  {
   "binding" : "weak",
   "name" : "_ZN3ndk12BnCInterfaceIN4aidl7android8hardware4wifi10supplicant21ISupplicantStaNetworkEE8asBinderEv"
  },
  {
   "binding" : "weak",
   "name" : "_ZN3ndk12BnCInterfaceIN4aidl7android8hardware4wifi10supplicant27ISupplicantP2pIfaceCallbackEE8asBinderEv"
  },
  {
   "binding" : "weak",
   "name" : "_ZN3ndk12BnCInterfaceIN4aidl7android8hardware4wifi10supplicant27ISupplicantStaIfaceCallbackEE8asBinderEv"
  },
  {
   "binding" : "weak",
   "name" : "_ZN3ndk12BnCInterfaceIN4aidl7android8hardware4wifi10supplicant29ISupplicantStaNetworkCallbackEE8asBinderEv"
  },
  {
   "binding" : "weak",
   "name" : "_ZN3ndk12BpCInterfaceIN4aidl7android8hardware4wifi10supplicant11ISupplicantEE8asBinderEv"
  },
  {
   "binding" : "weak",
   "name" : "_ZN3ndk12BpCInterfaceIN4aidl7android8hardware4wifi10supplicant19ISupplicantCallbackEE8asBinderEv"
  },
  {
   "binding" : "weak",
   "name" : "_ZN3ndk12BpCInterfaceIN4aidl7android8hardware4wifi10supplicant19ISupplicantP2pIfaceEE8asBinderEv"
  },
  {
   "binding" : "weak",
   "name" : "_ZN3ndk12BpCInterfaceIN4aidl7android8hardware4wifi10supplicant19ISupplicantStaIfaceEE8asBinderEv"
  },
  {
   "binding" : "weak",
   "name" : "_ZN3ndk12BpCInterfaceIN4aidl7android8hardware4wifi10supplicant21ISupplicantP2pNetworkEE8asBinderEv"
  },
  {
   "binding" : "weak",
   "name" : "_ZN3ndk12BpCInterfaceIN4aidl7android8hardware4wifi10supplicant21ISupplicantStaNetworkEE8asBinderEv"
  },
  {
   "binding" : "weak",
   "name" : "_ZN3ndk12BpCInterfaceIN4aidl7android8hardware4wifi10supplicant27ISupplicantP2pIfaceCallbackEE8asBinderEv"
  },
  {
   "binding" : "weak",
   "name" : "_ZN3ndk12BpCInterfaceIN4aidl7android8hardware4wifi10supplicant27ISupplicantStaIfaceCallbackEE8asBinderEv"
  },
  {
   "binding" : "weak",
   "name" : "_ZN3ndk12BpCInterfaceIN4aidl7android8hardware4wifi10supplicant29ISupplicantStaNetworkCallbackEE8asBinderEv"
  },
  {
   "binding" : "weak",
   "name" : "_ZN3ndk38AParcel_readStdVectorParcelableElementIN4aidl7android8hardware4wifi10supplicant10MacAddressEEEiPK7AParcelPvj"
  },
  {
   "binding" : "weak",
   "name" : "_ZN3ndk38AParcel_readStdVectorParcelableElementIN4aidl7android8hardware4wifi10supplicant13QosPolicyDataEEEiPK7AParcelPvj"
  },
  {
   "binding" : "weak",
   "name" : "_ZN3ndk38AParcel_readStdVectorParcelableElementIN4aidl7android8hardware4wifi10supplicant15QosPolicyStatusEEEiPK7AParcelPvj"
  },
  {
   "binding" : "weak",
   "name" : "_ZN3ndk38AParcel_readStdVectorParcelableElementIN4aidl7android8hardware4wifi10supplicant34NetworkResponseEapSimGsmAuthParamsEEEiPK7AParcelPvj"
  },
  {
   "binding" : "weak",
   "name" : "_ZN3ndk38AParcel_readStdVectorParcelableElementIN4aidl7android8hardware4wifi10supplicant7GsmRandEEEiPK7AParcelPvj"
  },
  {
   "binding" : "weak",
   "name" : "_ZN3ndk38AParcel_readStdVectorParcelableElementIN4aidl7android8hardware4wifi10supplicant7MloLinkEEEiPK7AParcelPvj"
  },
  {
   "binding" : "weak",
   "name" : "_ZN3ndk38AParcel_readStdVectorParcelableElementIN4aidl7android8hardware4wifi10supplicant9FreqRangeEEEiPK7AParcelPvj"
  },
  {
   "binding" : "weak",
   "name" : "_ZN3ndk38AParcel_readStdVectorParcelableElementIN4aidl7android8hardware4wifi10supplicant9IfaceInfoEEEiPK7AParcelPvj"
  },
  {
   "binding" : "weak",
   "name" : "_ZN3ndk39AParcel_writeStdVectorParcelableElementIN4aidl7android8hardware4wifi10supplicant10MacAddressEEEiP7AParcelPKvj"
  },
  {
   "binding" : "weak",
   "name" : "_ZN3ndk39AParcel_writeStdVectorParcelableElementIN4aidl7android8hardware4wifi10supplicant13QosPolicyDataEEEiP7AParcelPKvj"
  },
  {
   "binding" : "weak",
   "name" : "_ZN3ndk39AParcel_writeStdVectorParcelableElementIN4aidl7android8hardware4wifi10supplicant15QosPolicyStatusEEEiP7AParcelPKvj"
  },
  {
   "binding" : "weak",
   "name" : "_ZN3ndk39AParcel_writeStdVectorParcelableElementIN4aidl7android8hardware4wifi10supplicant34NetworkResponseEapSimGsmAuthParamsEEEiP7AParcelPKvj"
  },
  {
   "binding" : "weak",
   "name" : "_ZN3ndk39AParcel_writeStdVectorParcelableElementIN4aidl7android8hardware4wifi10supplicant7GsmRandEEEiP7AParcelPKvj"
  },
  {
   "binding" : "weak",
   "name" : "_ZN3ndk39AParcel_writeStdVectorParcelableElementIN4aidl7android8hardware4wifi10supplicant7MloLinkEEEiP7AParcelPKvj"
  },
  {
   "binding" : "weak",
   "name" : "_ZN3ndk39AParcel_writeStdVectorParcelableElementIN4aidl7android8hardware4wifi10supplicant9FreqRangeEEEiP7AParcelPKvj"
  },
  {
   "binding" : "weak",
   "name" : "_ZN3ndk39AParcel_writeStdVectorParcelableElementIN4aidl7android8hardware4wifi10supplicant9IfaceInfoEEEiP7AParcelPKvj"
  },
  {
   "name" : "_ZN4aidl7android8hardware4wifi10supplicant10MacAddress14readFromParcelEPK7AParcel"
  },
  {
   "name" : "_ZN4aidl7android8hardware4wifi10supplicant11ISupplicant10fromBinderERKN3ndk10SpAIBinderE"
  },
  {
   "name" : "_ZN4aidl7android8hardware4wifi10supplicant11ISupplicant13writeToParcelEP7AParcelRKNSt3__110shared_ptrIS4_EE"
  },
  {
   "name" : "_ZN4aidl7android8hardware4wifi10supplicant11ISupplicant14getDefaultImplEv"
  },
  {
   "name" : "_ZN4aidl7android8hardware4wifi10supplicant11ISupplicant14readFromParcelEPK7AParcelPNSt3__110shared_ptrIS4_EE"
  },
  {
   "name" : "_ZN4aidl7android8hardware4wifi10supplicant11ISupplicant14setDefaultImplERKNSt3__110shared_ptrIS4_EE"
  },
  {
   "name" : "_ZN4aidl7android8hardware4wifi10supplicant11ISupplicantC2Ev"
  },
  {
   "name" : "_ZN4aidl7android8hardware4wifi10supplicant11ISupplicantD0Ev"
  },
  {
   "name" : "_ZN4aidl7android8hardware4wifi10supplicant11ISupplicantD1Ev"
  },
  {
   "name" : "_ZN4aidl7android8hardware4wifi10supplicant11ISupplicantD2Ev"
  },
  {
   "name" : "_ZN4aidl7android8hardware4wifi10supplicant12BnSupplicant12createBinderEv"
  },
  {
   "name" : "_ZN4aidl7android8hardware4wifi10supplicant12BnSupplicant16getInterfaceHashEPNSt3__112basic_stringIcNS5_11char_traitsIcEENS5_9allocatorIcEEEE"
  },
  {
   "name" : "_ZN4aidl7android8hardware4wifi10supplicant12BnSupplicant19getInterfaceVersionEPi"
  },
  {
   "name" : "_ZN4aidl7android8hardware4wifi10supplicant12BnSupplicantC2Ev"
  },
  {
   "name" : "_ZN4aidl7android8hardware4wifi10supplicant12BnSupplicantD0Ev"
  },
  {
   "name" : "_ZN4aidl7android8hardware4wifi10supplicant12BnSupplicantD1Ev"
  },
  {
   "name" : "_ZN4aidl7android8hardware4wifi10supplicant12BnSupplicantD2Ev"
  },
  {
   "name" : "_ZN4aidl7android8hardware4wifi10supplicant12BpSupplicant13getDebugLevelEPNS3_10DebugLevelE"
  },
  {
   "name" : "_ZN4aidl7android8hardware4wifi10supplicant12BpSupplicant14listInterfacesEPNSt3__16vectorINS3_9IfaceInfoENS5_9allocatorIS7_EEEE"
  },
  {
   "name" : "_ZN4aidl7android8hardware4wifi10supplicant12BpSupplicant14setDebugParamsENS3_10DebugLevelEbb"
  },
  {
   "name" : "_ZN4aidl7android8hardware4wifi10supplicant12BpSupplicant15addP2pInterfaceERKNSt3__112basic_stringIcNS5_11char_traitsIcEENS5_9allocatorIcEEEEPNS5_10shared_ptrINS3_19ISupplicantP2pIfaceEEE"
  },
  {
   "name" : "_ZN4aidl7android8hardware4wifi10supplicant12BpSupplicant15addStaInterfaceERKNSt3__112basic_stringIcNS5_11char_traitsIcEENS5_9allocatorIcEEEEPNS5_10shared_ptrINS3_19ISupplicantStaIfaceEEE"
  },
  {
   "name" : "_ZN4aidl7android8hardware4wifi10supplicant12BpSupplicant15getP2pInterfaceERKNSt3__112basic_stringIcNS5_11char_traitsIcEENS5_9allocatorIcEEEEPNS5_10shared_ptrINS3_19ISupplicantP2pIfaceEEE"
  },
  {
   "name" : "_ZN4aidl7android8hardware4wifi10supplicant12BpSupplicant15getStaInterfaceERKNSt3__112basic_stringIcNS5_11char_traitsIcEENS5_9allocatorIcEEEEPNS5_10shared_ptrINS3_19ISupplicantStaIfaceEEE"
  },
  {
   "name" : "_ZN4aidl7android8hardware4wifi10supplicant12BpSupplicant15removeInterfaceERKNS3_9IfaceInfoE"
  },
  {
   "name" : "_ZN4aidl7android8hardware4wifi10supplicant12BpSupplicant16getInterfaceHashEPNSt3__112basic_stringIcNS5_11char_traitsIcEENS5_9allocatorIcEEEE"
  },
  {
   "name" : "_ZN4aidl7android8hardware4wifi10supplicant12BpSupplicant16registerCallbackERKNSt3__110shared_ptrINS3_19ISupplicantCallbackEEE"
  },
  {
   "name" : "_ZN4aidl7android8hardware4wifi10supplicant12BpSupplicant19getInterfaceVersionEPi"
  },
  {
   "name" : "_ZN4aidl7android8hardware4wifi10supplicant12BpSupplicant22isDebugShowKeysEnabledEPb"
  },
  {
   "name" : "_ZN4aidl7android8hardware4wifi10supplicant12BpSupplicant22setConcurrencyPriorityENS3_9IfaceTypeE"
  },
  {
   "name" : "_ZN4aidl7android8hardware4wifi10supplicant12BpSupplicant27isDebugShowTimestampEnabledEPb"
  },
  {
   "name" : "_ZN4aidl7android8hardware4wifi10supplicant12BpSupplicant9terminateEv"
  },
  {
   "name" : "_ZN4aidl7android8hardware4wifi10supplicant12BpSupplicantC1ERKN3ndk10SpAIBinderE"
  },
  {
   "name" : "_ZN4aidl7android8hardware4wifi10supplicant12BpSupplicantC2ERKN3ndk10SpAIBinderE"
  },
  {
   "name" : "_ZN4aidl7android8hardware4wifi10supplicant12BpSupplicantD0Ev"
  },
  {
   "name" : "_ZN4aidl7android8hardware4wifi10supplicant12BpSupplicantD1Ev"
  },
  {
   "name" : "_ZN4aidl7android8hardware4wifi10supplicant12BpSupplicantD2Ev"
  },
  {
   "name" : "_ZN4aidl7android8hardware4wifi10supplicant12Hs20AnqpData14readFromParcelEPK7AParcel"
  },
  {
   "name" : "_ZN4aidl7android8hardware4wifi10supplicant12MloLinksInfo14readFromParcelEPK7AParcel"
  },
  {
   "name" : "_ZN4aidl7android8hardware4wifi10supplicant13QosPolicyData14readFromParcelEPK7AParcel"
  },
  {
   "name" : "_ZN4aidl7android8hardware4wifi10supplicant15QosPolicyStatus14readFromParcelEPK7AParcel"
  },
  {
   "name" : "_ZN4aidl7android8hardware4wifi10supplicant17DppConnectionKeys14readFromParcelEPK7AParcel"
  },
  {
   "name" : "_ZN4aidl7android8hardware4wifi10supplicant18ISupplicantDefault13getDebugLevelEPNS3_10DebugLevelE"
  },
  {
   "name" : "_ZN4aidl7android8hardware4wifi10supplicant18ISupplicantDefault14listInterfacesEPNSt3__16vectorINS3_9IfaceInfoENS5_9allocatorIS7_EEEE"
  },
  {
   "name" : "_ZN4aidl7android8hardware4wifi10supplicant18ISupplicantDefault14setDebugParamsENS3_10DebugLevelEbb"
  },
  {
   "name" : "_ZN4aidl7android8hardware4wifi10supplicant18ISupplicantDefault15addP2pInterfaceERKNSt3__112basic_stringIcNS5_11char_traitsIcEENS5_9allocatorIcEEEEPNS5_10shared_ptrINS3_19ISupplicantP2pIfaceEEE"
  },
  {
   "name" : "_ZN4aidl7android8hardware4wifi10supplicant18ISupplicantDefault15addStaInterfaceERKNSt3__112basic_stringIcNS5_11char_traitsIcEENS5_9allocatorIcEEEEPNS5_10shared_ptrINS3_19ISupplicantStaIfaceEEE"
  },
  {
   "name" : "_ZN4aidl7android8hardware4wifi10supplicant18ISupplicantDefault15getP2pInterfaceERKNSt3__112basic_stringIcNS5_11char_traitsIcEENS5_9allocatorIcEEEEPNS5_10shared_ptrINS3_19ISupplicantP2pIfaceEEE"
  },
  {
   "name" : "_ZN4aidl7android8hardware4wifi10supplicant18ISupplicantDefault15getStaInterfaceERKNSt3__112basic_stringIcNS5_11char_traitsIcEENS5_9allocatorIcEEEEPNS5_10shared_ptrINS3_19ISupplicantStaIfaceEEE"
  },
  {
   "name" : "_ZN4aidl7android8hardware4wifi10supplicant18ISupplicantDefault15removeInterfaceERKNS3_9IfaceInfoE"
  },
  {
   "name" : "_ZN4aidl7android8hardware4wifi10supplicant18ISupplicantDefault16getInterfaceHashEPNSt3__112basic_stringIcNS5_11char_traitsIcEENS5_9allocatorIcEEEE"
  },
  {
   "name" : "_ZN4aidl7android8hardware4wifi10supplicant18ISupplicantDefault16registerCallbackERKNSt3__110shared_ptrINS3_19ISupplicantCallbackEEE"
  },
  {
   "name" : "_ZN4aidl7android8hardware4wifi10supplicant18ISupplicantDefault19getInterfaceVersionEPi"
  },
  {
   "name" : "_ZN4aidl7android8hardware4wifi10supplicant18ISupplicantDefault22isDebugShowKeysEnabledEPb"
  },
  {
   "name" : "_ZN4aidl7android8hardware4wifi10supplicant18ISupplicantDefault22setConcurrencyPriorityENS3_9IfaceTypeE"
  },
  {
   "name" : "_ZN4aidl7android8hardware4wifi10supplicant18ISupplicantDefault27isDebugShowTimestampEnabledEPb"
  },
  {
   "name" : "_ZN4aidl7android8hardware4wifi10supplicant18ISupplicantDefault8asBinderEv"
  },
  {
   "name" : "_ZN4aidl7android8hardware4wifi10supplicant18ISupplicantDefault8isRemoteEv"
  },
  {
   "name" : "_ZN4aidl7android8hardware4wifi10supplicant18ISupplicantDefault9terminateEv"
  },
  {
   "name" : "_ZN4aidl7android8hardware4wifi10supplicant19ISupplicantCallback10fromBinderERKN3ndk10SpAIBinderE"
  },
  {
   "name" : "_ZN4aidl7android8hardware4wifi10supplicant19ISupplicantCallback13writeToParcelEP7AParcelRKNSt3__110shared_ptrIS4_EE"
  },
  {
   "name" : "_ZN4aidl7android8hardware4wifi10supplicant19ISupplicantCallback14getDefaultImplEv"
  },
  {
   "name" : "_ZN4aidl7android8hardware4wifi10supplicant19ISupplicantCallback14readFromParcelEPK7AParcelPNSt3__110shared_ptrIS4_EE"
  },
  {
   "name" : "_ZN4aidl7android8hardware4wifi10supplicant19ISupplicantCallback14setDefaultImplERKNSt3__110shared_ptrIS4_EE"
  },
  {
   "name" : "_ZN4aidl7android8hardware4wifi10supplicant19ISupplicantCallbackC2Ev"
  },
  {
   "name" : "_ZN4aidl7android8hardware4wifi10supplicant19ISupplicantCallbackD0Ev"
  },
  {
   "name" : "_ZN4aidl7android8hardware4wifi10supplicant19ISupplicantCallbackD1Ev"
  },
  {
   "name" : "_ZN4aidl7android8hardware4wifi10supplicant19ISupplicantCallbackD2Ev"
  },
  {
   "name" : "_ZN4aidl7android8hardware4wifi10supplicant19ISupplicantP2pIface10fromBinderERKN3ndk10SpAIBinderE"
  },
  {
   "name" : "_ZN4aidl7android8hardware4wifi10supplicant19ISupplicantP2pIface13writeToParcelEP7AParcelRKNSt3__110shared_ptrIS4_EE"
  },
  {
   "name" : "_ZN4aidl7android8hardware4wifi10supplicant19ISupplicantP2pIface14getDefaultImplEv"
  },
  {
   "name" : "_ZN4aidl7android8hardware4wifi10supplicant19ISupplicantP2pIface14readFromParcelEPK7AParcelPNSt3__110shared_ptrIS4_EE"
  },
  {
   "name" : "_ZN4aidl7android8hardware4wifi10supplicant19ISupplicantP2pIface14setDefaultImplERKNSt3__110shared_ptrIS4_EE"
  },
  {
   "name" : "_ZN4aidl7android8hardware4wifi10supplicant19ISupplicantP2pIfaceC2Ev"
  },
  {
   "name" : "_ZN4aidl7android8hardware4wifi10supplicant19ISupplicantP2pIfaceD0Ev"
  },
  {
   "name" : "_ZN4aidl7android8hardware4wifi10supplicant19ISupplicantP2pIfaceD1Ev"
  },
  {
   "name" : "_ZN4aidl7android8hardware4wifi10supplicant19ISupplicantP2pIfaceD2Ev"
  },
  {
   "name" : "_ZN4aidl7android8hardware4wifi10supplicant19ISupplicantStaIface10fromBinderERKN3ndk10SpAIBinderE"
  },
  {
   "name" : "_ZN4aidl7android8hardware4wifi10supplicant19ISupplicantStaIface13writeToParcelEP7AParcelRKNSt3__110shared_ptrIS4_EE"
  },
  {
   "name" : "_ZN4aidl7android8hardware4wifi10supplicant19ISupplicantStaIface14getDefaultImplEv"
  },
  {
   "name" : "_ZN4aidl7android8hardware4wifi10supplicant19ISupplicantStaIface14readFromParcelEPK7AParcelPNSt3__110shared_ptrIS4_EE"
  },
  {
   "name" : "_ZN4aidl7android8hardware4wifi10supplicant19ISupplicantStaIface14setDefaultImplERKNSt3__110shared_ptrIS4_EE"
  },
  {
   "name" : "_ZN4aidl7android8hardware4wifi10supplicant19ISupplicantStaIfaceC2Ev"
  },
  {
   "name" : "_ZN4aidl7android8hardware4wifi10supplicant19ISupplicantStaIfaceD0Ev"
  },
  {
   "name" : "_ZN4aidl7android8hardware4wifi10supplicant19ISupplicantStaIfaceD1Ev"
  },
  {
   "name" : "_ZN4aidl7android8hardware4wifi10supplicant19ISupplicantStaIfaceD2Ev"
  },
  {
   "name" : "_ZN4aidl7android8hardware4wifi10supplicant20BnSupplicantCallback12createBinderEv"
  },
  {
   "name" : "_ZN4aidl7android8hardware4wifi10supplicant20BnSupplicantCallback16getInterfaceHashEPNSt3__112basic_stringIcNS5_11char_traitsIcEENS5_9allocatorIcEEEE"
  },
  {
   "name" : "_ZN4aidl7android8hardware4wifi10supplicant20BnSupplicantCallback19getInterfaceVersionEPi"
  },
  {
   "name" : "_ZN4aidl7android8hardware4wifi10supplicant20BnSupplicantCallbackC2Ev"
  },
  {
   "name" : "_ZN4aidl7android8hardware4wifi10supplicant20BnSupplicantCallbackD0Ev"
  },
  {
   "name" : "_ZN4aidl7android8hardware4wifi10supplicant20BnSupplicantCallbackD1Ev"
  },
  {
   "name" : "_ZN4aidl7android8hardware4wifi10supplicant20BnSupplicantCallbackD2Ev"
  },
  {
   "name" : "_ZN4aidl7android8hardware4wifi10supplicant20BnSupplicantP2pIface12createBinderEv"
  },
  {
   "name" : "_ZN4aidl7android8hardware4wifi10supplicant20BnSupplicantP2pIface16getInterfaceHashEPNSt3__112basic_stringIcNS5_11char_traitsIcEENS5_9allocatorIcEEEE"
  },
  {
   "name" : "_ZN4aidl7android8hardware4wifi10supplicant20BnSupplicantP2pIface19getInterfaceVersionEPi"
  },
  {
   "name" : "_ZN4aidl7android8hardware4wifi10supplicant20BnSupplicantP2pIfaceC2Ev"
  },
  {
   "name" : "_ZN4aidl7android8hardware4wifi10supplicant20BnSupplicantP2pIfaceD0Ev"
  },
  {
   "name" : "_ZN4aidl7android8hardware4wifi10supplicant20BnSupplicantP2pIfaceD1Ev"
  },
  {
   "name" : "_ZN4aidl7android8hardware4wifi10supplicant20BnSupplicantP2pIfaceD2Ev"
  },
  {
   "name" : "_ZN4aidl7android8hardware4wifi10supplicant20BnSupplicantStaIface12createBinderEv"
  },
  {
   "name" : "_ZN4aidl7android8hardware4wifi10supplicant20BnSupplicantStaIface16getInterfaceHashEPNSt3__112basic_stringIcNS5_11char_traitsIcEENS5_9allocatorIcEEEE"
  },
  {
   "name" : "_ZN4aidl7android8hardware4wifi10supplicant20BnSupplicantStaIface19getInterfaceVersionEPi"
  },
  {
   "name" : "_ZN4aidl7android8hardware4wifi10supplicant20BnSupplicantStaIfaceC2Ev"
  },
  {
   "name" : "_ZN4aidl7android8hardware4wifi10supplicant20BnSupplicantStaIfaceD0Ev"
  },
  {
   "name" : "_ZN4aidl7android8hardware4wifi10supplicant20BnSupplicantStaIfaceD1Ev"
  },
  {
   "name" : "_ZN4aidl7android8hardware4wifi10supplicant20BnSupplicantStaIfaceD2Ev"
  },
  {
   "name" : "_ZN4aidl7android8hardware4wifi10supplicant20BpSupplicantCallback16getInterfaceHashEPNSt3__112basic_stringIcNS5_11char_traitsIcEENS5_9allocatorIcEEEE"
  },
  {
   "name" : "_ZN4aidl7android8hardware4wifi10supplicant20BpSupplicantCallback18onInterfaceCreatedERKNSt3__112basic_stringIcNS5_11char_traitsIcEENS5_9allocatorIcEEEE"
  },
  {
   "name" : "_ZN4aidl7android8hardware4wifi10supplicant20BpSupplicantCallback18onInterfaceRemovedERKNSt3__112basic_stringIcNS5_11char_traitsIcEENS5_9allocatorIcEEEE"
  },
  {
   "name" : "_ZN4aidl7android8hardware4wifi10supplicant20BpSupplicantCallback19getInterfaceVersionEPi"
  },
  {
   "name" : "_ZN4aidl7android8hardware4wifi10supplicant20BpSupplicantCallbackC1ERKN3ndk10SpAIBinderE"
  },
  {
   "name" : "_ZN4aidl7android8hardware4wifi10supplicant20BpSupplicantCallbackC2ERKN3ndk10SpAIBinderE"
  },
  {
   "name" : "_ZN4aidl7android8hardware4wifi10supplicant20BpSupplicantCallbackD0Ev"
  },
  {
   "name" : "_ZN4aidl7android8hardware4wifi10supplicant20BpSupplicantCallbackD1Ev"
  },
  {
   "name" : "_ZN4aidl7android8hardware4wifi10supplicant20BpSupplicantCallbackD2Ev"
  },
  {
   "name" : "_ZN4aidl7android8hardware4wifi10supplicant20BpSupplicantP2pIface10addNetworkEPNSt3__110shared_ptrINS3_21ISupplicantP2pNetworkEEE"
  },
  {
   "name" : "_ZN4aidl7android8hardware4wifi10supplicant20BpSupplicantP2pIface10getNetworkEiPNSt3__110shared_ptrINS3_21ISupplicantP2pNetworkEEE"
  },
  {
   "name" : "_ZN4aidl7android8hardware4wifi10supplicant20BpSupplicantP2pIface10saveConfigEv"
  },
  {
   "name" : "_ZN4aidl7android8hardware4wifi10supplicant20BpSupplicantP2pIface11removeGroupERKNSt3__112basic_stringIcNS5_11char_traitsIcEENS5_9allocatorIcEEEE"
  },
  {
   "name" : "_ZN4aidl7android8hardware4wifi10supplicant20BpSupplicantP2pIface11startWpsPbcERKNSt3__112basic_stringIcNS5_11char_traitsIcEENS5_9allocatorIcEEEERKNS5_6vectorIhNS9_IhEEEE"
  },
  {
   "name" : "_ZN4aidl7android8hardware4wifi10supplicant20BpSupplicantP2pIface12listNetworksEPNSt3__16vectorIiNS5_9allocatorIiEEEE"
  },
  {
   "name" : "_ZN4aidl7android8hardware4wifi10supplicant20BpSupplicantP2pIface12removeClientERKNSt3__16vectorIhNS5_9allocatorIhEEEEb"
  },
  {
   "name" : "_ZN4aidl7android8hardware4wifi10supplicant20BpSupplicantP2pIface12setGroupIdleERKNSt3__112basic_stringIcNS5_11char_traitsIcEENS5_9allocatorIcEEEEi"
  },
  {
   "name" : "_ZN4aidl7android8hardware4wifi10supplicant20BpSupplicantP2pIface12setPowerSaveERKNSt3__112basic_stringIcNS5_11char_traitsIcEENS5_9allocatorIcEEEEb"
  },
  {
   "name" : "_ZN4aidl7android8hardware4wifi10supplicant20BpSupplicantP2pIface13cancelConnectEv"
  },
  {
   "name" : "_ZN4aidl7android8hardware4wifi10supplicant20BpSupplicantP2pIface13flushServicesEv"
  },
  {
   "name" : "_ZN4aidl7android8hardware4wifi10supplicant20BpSupplicantP2pIface13removeNetworkEi"
  },
  {
   "name" : "_ZN4aidl7android8hardware4wifi10supplicant20BpSupplicantP2pIface14addUpnpServiceEiRKNSt3__112basic_stringIcNS5_11char_traitsIcEENS5_9allocatorIcEEEE"
  },
  {
   "name" : "_ZN4aidl7android8hardware4wifi10supplicant20BpSupplicantP2pIface14setSsidPostfixERKNSt3__16vectorIhNS5_9allocatorIhEEEE"
  },
  {
   "name" : "_ZN4aidl7android8hardware4wifi10supplicant20BpSupplicantP2pIface15setMiracastModeENS3_12MiracastModeE"
  },
  {
   "name" : "_ZN4aidl7android8hardware4wifi10supplicant20BpSupplicantP2pIface15setWpsModelNameERKNSt3__112basic_stringIcNS5_11char_traitsIcEENS5_9allocatorIcEEEE"
  },
  {
   "name" : "_ZN4aidl7android8hardware4wifi10supplicant20BpSupplicantP2pIface16getDeviceAddressEPNSt3__16vectorIhNS5_9allocatorIhEEEE"
  },
  {
   "name" : "_ZN4aidl7android8hardware4wifi10supplicant20BpSupplicantP2pIface16getInterfaceHashEPNSt3__112basic_stringIcNS5_11char_traitsIcEENS5_9allocatorIcEEEE"
  },
  {
   "name" : "_ZN4aidl7android8hardware4wifi10supplicant20BpSupplicantP2pIface16registerCallbackERKNSt3__110shared_ptrINS3_27ISupplicantP2pIfaceCallbackEEE"
  },
  {
   "name" : "_ZN4aidl7android8hardware4wifi10supplicant20BpSupplicantP2pIface16setListenChannelEii"
  },
  {
   "name" : "_ZN4aidl7android8hardware4wifi10supplicant20BpSupplicantP2pIface16setWfdDeviceInfoERKNSt3__16vectorIhNS5_9allocatorIhEEEE"
  },
  {
   "name" : "_ZN4aidl7android8hardware4wifi10supplicant20BpSupplicantP2pIface16setWpsDeviceNameERKNSt3__112basic_stringIcNS5_11char_traitsIcEENS5_9allocatorIcEEEE"
  },
  {
   "name" : "_ZN4aidl7android8hardware4wifi10supplicant20BpSupplicantP2pIface16setWpsDeviceTypeERKNSt3__16vectorIhNS5_9allocatorIhEEEE"
  },
  {
   "name" : "_ZN4aidl7android8hardware4wifi10supplicant20BpSupplicantP2pIface17addBonjourServiceERKNSt3__16vectorIhNS5_9allocatorIhEEEESB_"
  },
  {
   "name" : "_ZN4aidl7android8hardware4wifi10supplicant20BpSupplicantP2pIface17removeUpnpServiceEiRKNSt3__112basic_stringIcNS5_11char_traitsIcEENS5_9allocatorIcEEEE"
  },
  {
   "name" : "_ZN4aidl7android8hardware4wifi10supplicant20BpSupplicantP2pIface17setVendorElementsENS3_16P2pFrameTypeMaskERKNSt3__16vectorIhNS6_9allocatorIhEEEE"
  },
  {
   "name" : "_ZN4aidl7android8hardware4wifi10supplicant20BpSupplicantP2pIface17setWpsModelNumberERKNSt3__112basic_stringIcNS5_11char_traitsIcEENS5_9allocatorIcEEEE"
  },
  {
   "name" : "_ZN4aidl7android8hardware4wifi10supplicant20BpSupplicantP2pIface17startWpsPinKeypadERKNSt3__112basic_stringIcNS5_11char_traitsIcEENS5_9allocatorIcEEEESD_"
  },
  {
   "name" : "_ZN4aidl7android8hardware4wifi10supplicant20BpSupplicantP2pIface18addGroupWithConfigERKNSt3__16vectorIhNS5_9allocatorIhEEEERKNS5_12basic_stringIcNS5_11char_traitsIcEENS7_IcEEEEbiSB_b"
  },
  {
   "name" : "_ZN4aidl7android8hardware4wifi10supplicant20BpSupplicantP2pIface18configureExtListenEii"
  },
  {
   "name" : "_ZN4aidl7android8hardware4wifi10supplicant20BpSupplicantP2pIface18getGroupCapabilityERKNSt3__16vectorIhNS5_9allocatorIhEEEEPNS3_22P2pGroupCapabilityMaskE"
  },
  {
   "name" : "_ZN4aidl7android8hardware4wifi10supplicant20BpSupplicantP2pIface18provisionDiscoveryERKNSt3__16vectorIhNS5_9allocatorIhEEEENS3_18WpsProvisionMethodE"
  },
  {
   "name" : "_ZN4aidl7android8hardware4wifi10supplicant20BpSupplicantP2pIface18setWfdR2DeviceInfoERKNSt3__16vectorIhNS5_9allocatorIhEEEE"
  },
  {
   "name" : "_ZN4aidl7android8hardware4wifi10supplicant20BpSupplicantP2pIface18setWpsManufacturerERKNSt3__112basic_stringIcNS5_11char_traitsIcEENS5_9allocatorIcEEEE"
  },
  {
   "name" : "_ZN4aidl7android8hardware4wifi10supplicant20BpSupplicantP2pIface18setWpsSerialNumberERKNSt3__112basic_stringIcNS5_11char_traitsIcEENS5_9allocatorIcEEEE"
  },
  {
   "name" : "_ZN4aidl7android8hardware4wifi10supplicant20BpSupplicantP2pIface18startWpsPinDisplayERKNSt3__112basic_stringIcNS5_11char_traitsIcEENS5_9allocatorIcEEEERKNS5_6vectorIhNS9_IhEEEEPSB_"
  },
  {
   "name" : "_ZN4aidl7android8hardware4wifi10supplicant20BpSupplicantP2pIface19getInterfaceVersionEPi"
  },
  {
   "name" : "_ZN4aidl7android8hardware4wifi10supplicant20BpSupplicantP2pIface19setMacRandomizationEb"
  },
  {
   "name" : "_ZN4aidl7android8hardware4wifi10supplicant20BpSupplicantP2pIface19setWpsConfigMethodsENS3_16WpsConfigMethodsE"
  },
  {
   "name" : "_ZN4aidl7android8hardware4wifi10supplicant20BpSupplicantP2pIface20findOnSocialChannelsEi"
  },
  {
   "name" : "_ZN4aidl7android8hardware4wifi10supplicant20BpSupplicantP2pIface20removeBonjourServiceERKNSt3__16vectorIhNS5_9allocatorIhEEEE"
  },
  {
   "name" : "_ZN4aidl7android8hardware4wifi10supplicant20BpSupplicantP2pIface22cancelServiceDiscoveryEx"
  },
  {
   "name" : "_ZN4aidl7android8hardware4wifi10supplicant20BpSupplicantP2pIface23findOnSpecificFrequencyEii"
  },
  {
   "name" : "_ZN4aidl7android8hardware4wifi10supplicant20BpSupplicantP2pIface23requestServiceDiscoveryERKNSt3__16vectorIhNS5_9allocatorIhEEEESB_Px"
  },
  {
   "name" : "_ZN4aidl7android8hardware4wifi10supplicant20BpSupplicantP2pIface24setDisallowedFrequenciesERKNSt3__16vectorINS3_9FreqRangeENS5_9allocatorIS7_EEEE"
  },
  {
   "name" : "_ZN4aidl7android8hardware4wifi10supplicant20BpSupplicantP2pIface25reportNfcHandoverResponseERKNSt3__16vectorIhNS5_9allocatorIhEEEE"
  },
  {
   "name" : "_ZN4aidl7android8hardware4wifi10supplicant20BpSupplicantP2pIface27reportNfcHandoverInitiationERKNSt3__16vectorIhNS5_9allocatorIhEEEE"
  },
  {
   "name" : "_ZN4aidl7android8hardware4wifi10supplicant20BpSupplicantP2pIface30createNfcHandoverSelectMessageEPNSt3__16vectorIhNS5_9allocatorIhEEEE"
  },
  {
   "name" : "_ZN4aidl7android8hardware4wifi10supplicant20BpSupplicantP2pIface31createNfcHandoverRequestMessageEPNSt3__16vectorIhNS5_9allocatorIhEEEE"
  },
  {
   "name" : "_ZN4aidl7android8hardware4wifi10supplicant20BpSupplicantP2pIface4findEi"
  },
  {
   "name" : "_ZN4aidl7android8hardware4wifi10supplicant20BpSupplicantP2pIface5flushEv"
  },
  {
   "name" : "_ZN4aidl7android8hardware4wifi10supplicant20BpSupplicantP2pIface6inviteERKNSt3__112basic_stringIcNS5_11char_traitsIcEENS5_9allocatorIcEEEERKNS5_6vectorIhNS9_IhEEEESI_"
  },
  {
   "name" : "_ZN4aidl7android8hardware4wifi10supplicant20BpSupplicantP2pIface6rejectERKNSt3__16vectorIhNS5_9allocatorIhEEEE"
  },
  {
   "name" : "_ZN4aidl7android8hardware4wifi10supplicant20BpSupplicantP2pIface7connectERKNSt3__16vectorIhNS5_9allocatorIhEEEENS3_18WpsProvisionMethodERKNS5_12basic_stringIcNS5_11char_traitsIcEENS7_IcEEEEbbiPSH_"
  },
  {
   "name" : "_ZN4aidl7android8hardware4wifi10supplicant20BpSupplicantP2pIface7getEdmgEPb"
  },
  {
   "name" : "_ZN4aidl7android8hardware4wifi10supplicant20BpSupplicantP2pIface7getNameEPNSt3__112basic_stringIcNS5_11char_traitsIcEENS5_9allocatorIcEEEE"
  },
  {
   "name" : "_ZN4aidl7android8hardware4wifi10supplicant20BpSupplicantP2pIface7getSsidERKNSt3__16vectorIhNS5_9allocatorIhEEEEPS9_"
  },
  {
   "name" : "_ZN4aidl7android8hardware4wifi10supplicant20BpSupplicantP2pIface7getTypeEPNS3_9IfaceTypeE"
  },
  {
   "name" : "_ZN4aidl7android8hardware4wifi10supplicant20BpSupplicantP2pIface7setEdmgEb"
  },
  {
   "name" : "_ZN4aidl7android8hardware4wifi10supplicant20BpSupplicantP2pIface8addGroupEbi"
  },
  {
   "name" : "_ZN4aidl7android8hardware4wifi10supplicant20BpSupplicantP2pIface8reinvokeEiRKNSt3__16vectorIhNS5_9allocatorIhEEEE"
  },
  {
   "name" : "_ZN4aidl7android8hardware4wifi10supplicant20BpSupplicantP2pIface8stopFindEv"
  },
  {
   "name" : "_ZN4aidl7android8hardware4wifi10supplicant20BpSupplicantP2pIface9cancelWpsERKNSt3__112basic_stringIcNS5_11char_traitsIcEENS5_9allocatorIcEEEE"
  },
  {
   "name" : "_ZN4aidl7android8hardware4wifi10supplicant20BpSupplicantP2pIface9enableWfdEb"
  },
  {
   "name" : "_ZN4aidl7android8hardware4wifi10supplicant20BpSupplicantP2pIfaceC1ERKN3ndk10SpAIBinderE"
  },
  {
   "name" : "_ZN4aidl7android8hardware4wifi10supplicant20BpSupplicantP2pIfaceC2ERKN3ndk10SpAIBinderE"
  },
  {
   "name" : "_ZN4aidl7android8hardware4wifi10supplicant20BpSupplicantP2pIfaceD0Ev"
  },
  {
   "name" : "_ZN4aidl7android8hardware4wifi10supplicant20BpSupplicantP2pIfaceD1Ev"
  },
  {
   "name" : "_ZN4aidl7android8hardware4wifi10supplicant20BpSupplicantP2pIfaceD2Ev"
  },
  {
   "name" : "_ZN4aidl7android8hardware4wifi10supplicant20BpSupplicantStaIface10addNetworkEPNSt3__110shared_ptrINS3_21ISupplicantStaNetworkEEE"
  },
  {
   "name" : "_ZN4aidl7android8hardware4wifi10supplicant20BpSupplicantStaIface10disconnectEv"
  },
  {
   "name" : "_ZN4aidl7android8hardware4wifi10supplicant20BpSupplicantStaIface10getNetworkEiPNSt3__110shared_ptrINS3_21ISupplicantStaNetworkEEE"
  },
  {
   "name" : "_ZN4aidl7android8hardware4wifi10supplicant20BpSupplicantStaIface11addRxFilterENS3_12RxFilterTypeE"
  },
  {
   "name" : "_ZN4aidl7android8hardware4wifi10supplicant20BpSupplicantStaIface11reassociateEv"
  },
  {
   "name" : "_ZN4aidl7android8hardware4wifi10supplicant20BpSupplicantStaIface11startWpsPbcERKNSt3__16vectorIhNS5_9allocatorIhEEEE"
  },
  {
   "name" : "_ZN4aidl7android8hardware4wifi10supplicant20BpSupplicantStaIface12listNetworksEPNSt3__16vectorIiNS5_9allocatorIiEEEE"
  },
  {
   "name" : "_ZN4aidl7android8hardware4wifi10supplicant20BpSupplicantStaIface12removeDppUriEi"
  },
  {
   "name" : "_ZN4aidl7android8hardware4wifi10supplicant20BpSupplicantStaIface12setPowerSaveEb"
  },
  {
   "name" : "_ZN4aidl7android8hardware4wifi10supplicant20BpSupplicantStaIface12stopRxFilterEv"
  },
  {
   "name" : "_ZN4aidl7android8hardware4wifi10supplicant20BpSupplicantStaIface13addDppPeerUriERKNSt3__112basic_stringIcNS5_11char_traitsIcEENS5_9allocatorIcEEEEPi"
  },
  {
   "name" : "_ZN4aidl7android8hardware4wifi10supplicant20BpSupplicantStaIface13getMacAddressEPNSt3__16vectorIhNS5_9allocatorIhEEEE"
  },
  {
   "name" : "_ZN4aidl7android8hardware4wifi10supplicant20BpSupplicantStaIface13removeNetworkEi"
  },
  {
   "name" : "_ZN4aidl7android8hardware4wifi10supplicant20BpSupplicantStaIface13startRxFilterEv"
  },
  {
   "name" : "_ZN4aidl7android8hardware4wifi10supplicant20BpSupplicantStaIface14removeRxFilterENS3_12RxFilterTypeE"
  },
  {
   "name" : "_ZN4aidl7android8hardware4wifi10supplicant20BpSupplicantStaIface14setCountryCodeERKNSt3__16vectorIhNS5_9allocatorIhEEEE"
  },
  {
   "name" : "_ZN4aidl7android8hardware4wifi10supplicant20BpSupplicantStaIface14setExternalSimEb"
  },
  {
   "name" : "_ZN4aidl7android8hardware4wifi10supplicant20BpSupplicantStaIface15addExtRadioWorkERKNSt3__112basic_stringIcNS5_11char_traitsIcEENS5_9allocatorIcEEEEiiPi"
  },
  {
   "name" : "_ZN4aidl7android8hardware4wifi10supplicant20BpSupplicantStaIface15setWpsModelNameERKNSt3__112basic_stringIcNS5_11char_traitsIcEENS5_9allocatorIcEEEE"
  },
  {
   "name" : "_ZN4aidl7android8hardware4wifi10supplicant20BpSupplicantStaIface16getInterfaceHashEPNSt3__112basic_stringIcNS5_11char_traitsIcEENS5_9allocatorIcEEEE"
  },
  {
   "name" : "_ZN4aidl7android8hardware4wifi10supplicant20BpSupplicantStaIface16registerCallbackERKNSt3__110shared_ptrINS3_27ISupplicantStaIfaceCallbackEEE"
  },
  {
   "name" : "_ZN4aidl7android8hardware4wifi10supplicant20BpSupplicantStaIface16setWpsDeviceNameERKNSt3__112basic_stringIcNS5_11char_traitsIcEENS5_9allocatorIcEEEE"
  },
  {
   "name" : "_ZN4aidl7android8hardware4wifi10supplicant20BpSupplicantStaIface16setWpsDeviceTypeERKNSt3__16vectorIhNS5_9allocatorIhEEEE"
  },
  {
   "name" : "_ZN4aidl7android8hardware4wifi10supplicant20BpSupplicantStaIface16stopDppInitiatorEv"
  },
  {
   "name" : "_ZN4aidl7android8hardware4wifi10supplicant20BpSupplicantStaIface16stopDppResponderEi"
  },
  {
   "name" : "_ZN4aidl7android8hardware4wifi10supplicant20BpSupplicantStaIface17filsHlpAddRequestERKNSt3__16vectorIhNS5_9allocatorIhEEEESB_"
  },
  {
   "name" : "_ZN4aidl7android8hardware4wifi10supplicant20BpSupplicantStaIface17initiateAnqpQueryERKNSt3__16vectorIhNS5_9allocatorIhEEEERKNS6_INS3_10AnqpInfoIdENS7_ISC_EEEERKNS6_INS3_16Hs20AnqpSubtypesENS7_ISH_EEEE"
  },
  {
   "name" : "_ZN4aidl7android8hardware4wifi10supplicant20BpSupplicantStaIface17initiateTdlsSetupERKNSt3__16vectorIhNS5_9allocatorIhEEEE"
  },
  {
   "name" : "_ZN4aidl7android8hardware4wifi10supplicant20BpSupplicantStaIface17setWpsModelNumberERKNSt3__112basic_stringIcNS5_11char_traitsIcEENS5_9allocatorIcEEEE"
  },
  {
   "name" : "_ZN4aidl7android8hardware4wifi10supplicant20BpSupplicantStaIface17startWpsPinKeypadERKNSt3__112basic_stringIcNS5_11char_traitsIcEENS5_9allocatorIcEEEE"
  },
  {
   "name" : "_ZN4aidl7android8hardware4wifi10supplicant20BpSupplicantStaIface17startWpsRegistrarERKNSt3__16vectorIhNS5_9allocatorIhEEEERKNS5_12basic_stringIcNS5_11char_traitsIcEENS7_IcEEEE"
  },
  {
   "name" : "_ZN4aidl7android8hardware4wifi10supplicant20BpSupplicantStaIface18removeExtRadioWorkEi"
  },
  {
   "name" : "_ZN4aidl7android8hardware4wifi10supplicant20BpSupplicantStaIface18setWpsManufacturerERKNSt3__112basic_stringIcNS5_11char_traitsIcEENS5_9allocatorIcEEEE"
  },
  {
   "name" : "_ZN4aidl7android8hardware4wifi10supplicant20BpSupplicantStaIface18setWpsSerialNumberERKNSt3__112basic_stringIcNS5_11char_traitsIcEENS5_9allocatorIcEEEE"
  },
  {
   "name" : "_ZN4aidl7android8hardware4wifi10supplicant20BpSupplicantStaIface18startWpsPinDisplayERKNSt3__16vectorIhNS5_9allocatorIhEEEEPNS5_12basic_stringIcNS5_11char_traitsIcEENS7_IcEEEE"
  },
  {
   "name" : "_ZN4aidl7android8hardware4wifi10supplicant20BpSupplicantStaIface19enableAutoReconnectEb"
  },
  {
   "name" : "_ZN4aidl7android8hardware4wifi10supplicant20BpSupplicantStaIface19filsHlpFlushRequestEv"
  },
  {
   "name" : "_ZN4aidl7android8hardware4wifi10supplicant20BpSupplicantStaIface19getInterfaceVersionEPi"
  },
  {
   "name" : "_ZN4aidl7android8hardware4wifi10supplicant20BpSupplicantStaIface19setWpsConfigMethodsENS3_16WpsConfigMethodsE"
  },
  {
   "name" : "_ZN4aidl7android8hardware4wifi10supplicant20BpSupplicantStaIface20initiateTdlsDiscoverERKNSt3__16vectorIhNS5_9allocatorIhEEEE"
  },
  {
   "name" : "_ZN4aidl7android8hardware4wifi10supplicant20BpSupplicantStaIface20initiateTdlsTeardownERKNSt3__16vectorIhNS5_9allocatorIhEEEE"
  },
  {
   "name" : "_ZN4aidl7android8hardware4wifi10supplicant20BpSupplicantStaIface20removeAllQosPoliciesEv"
  },
  {
   "name" : "_ZN4aidl7android8hardware4wifi10supplicant20BpSupplicantStaIface20setBtCoexistenceModeENS3_17BtCoexistenceModeE"
  },
  {
   "name" : "_ZN4aidl7android8hardware4wifi10supplicant20BpSupplicantStaIface21initiateHs20IconQueryERKNSt3__16vectorIhNS5_9allocatorIhEEEERKNS5_12basic_stringIcNS5_11char_traitsIcEENS7_IcEEEE"
  },
  {
   "name" : "_ZN4aidl7android8hardware4wifi10supplicant20BpSupplicantStaIface21sendQosPolicyResponseEibRKNSt3__16vectorINS3_15QosPolicyStatusENS5_9allocatorIS7_EEEE"
  },
  {
   "name" : "_ZN4aidl7android8hardware4wifi10supplicant20BpSupplicantStaIface21setSuspendModeEnabledEb"
  },
  {
   "name" : "_ZN4aidl7android8hardware4wifi10supplicant20BpSupplicantStaIface22getKeyMgmtCapabilitiesEPNS3_11KeyMgmtMaskE"
  },
  {
   "name" : "_ZN4aidl7android8hardware4wifi10supplicant20BpSupplicantStaIface24getWpaDriverCapabilitiesEPNS3_25WpaDriverCapabilitiesMaskE"
  },
  {
   "name" : "_ZN4aidl7android8hardware4wifi10supplicant20BpSupplicantStaIface24setMboCellularDataStatusEb"
  },
  {
   "name" : "_ZN4aidl7android8hardware4wifi10supplicant20BpSupplicantStaIface25getConnectionCapabilitiesEPNS3_22ConnectionCapabilitiesE"
  },
  {
   "name" : "_ZN4aidl7android8hardware4wifi10supplicant20BpSupplicantStaIface25getConnectionMloLinksInfoEPNS3_12MloLinksInfoE"
  },
  {
   "name" : "_ZN4aidl7android8hardware4wifi10supplicant20BpSupplicantStaIface25initiateVenueUrlAnqpQueryERKNSt3__16vectorIhNS5_9allocatorIhEEEE"
  },
  {
   "name" : "_ZN4aidl7android8hardware4wifi10supplicant20BpSupplicantStaIface25startDppEnrolleeInitiatorEii"
  },
  {
   "name" : "_ZN4aidl7android8hardware4wifi10supplicant20BpSupplicantStaIface25startDppEnrolleeResponderEi"
  },
  {
   "name" : "_ZN4aidl7android8hardware4wifi10supplicant20BpSupplicantStaIface26setQosPolicyFeatureEnabledEb"
  },
  {
   "name" : "_ZN4aidl7android8hardware4wifi10supplicant20BpSupplicantStaIface28generateSelfDppConfigurationERKNSt3__112basic_stringIcNS5_11char_traitsIcEENS5_9allocatorIcEEEERKNS5_6vectorIhNS9_IhEEEE"
  },
  {
   "name" : "_ZN4aidl7android8hardware4wifi10supplicant20BpSupplicantStaIface29startDppConfiguratorInitiatorEiiRKNSt3__112basic_stringIcNS5_11char_traitsIcEENS5_9allocatorIcEEEESD_SD_NS3_10DppNetRoleENS3_6DppAkmERKNS5_6vectorIhNS9_IhEEEEPSI_"
  },
  {
   "name" : "_ZN4aidl7android8hardware4wifi10supplicant20BpSupplicantStaIface31setBtCoexistenceScanModeEnabledEb"
  },
  {
   "name" : "_ZN4aidl7android8hardware4wifi10supplicant20BpSupplicantStaIface36generateDppBootstrapInfoForResponderERKNSt3__16vectorIhNS5_9allocatorIhEEEERKNS5_12basic_stringIcNS5_11char_traitsIcEENS7_IcEEEENS3_8DppCurveEPNS3_25DppResponderBootstrapInfoE"
  },
  {
   "name" : "_ZN4aidl7android8hardware4wifi10supplicant20BpSupplicantStaIface7getNameEPNSt3__112basic_stringIcNS5_11char_traitsIcEENS5_9allocatorIcEEEE"
  },
  {
   "name" : "_ZN4aidl7android8hardware4wifi10supplicant20BpSupplicantStaIface7getTypeEPNS3_9IfaceTypeE"
  },
  {
   "name" : "_ZN4aidl7android8hardware4wifi10supplicant20BpSupplicantStaIface9cancelWpsEv"
  },
  {
   "name" : "_ZN4aidl7android8hardware4wifi10supplicant20BpSupplicantStaIface9reconnectEv"
  },
  {
   "name" : "_ZN4aidl7android8hardware4wifi10supplicant20BpSupplicantStaIfaceC1ERKN3ndk10SpAIBinderE"
  },
  {
   "name" : "_ZN4aidl7android8hardware4wifi10supplicant20BpSupplicantStaIfaceC2ERKN3ndk10SpAIBinderE"
  },
  {
   "name" : "_ZN4aidl7android8hardware4wifi10supplicant20BpSupplicantStaIfaceD0Ev"
  },
  {
   "name" : "_ZN4aidl7android8hardware4wifi10supplicant20BpSupplicantStaIfaceD1Ev"
  },
  {
   "name" : "_ZN4aidl7android8hardware4wifi10supplicant20BpSupplicantStaIfaceD2Ev"
  },
  {
   "name" : "_ZN4aidl7android8hardware4wifi10supplicant21ISupplicantP2pNetwork10fromBinderERKN3ndk10SpAIBinderE"
  },
  {
   "name" : "_ZN4aidl7android8hardware4wifi10supplicant21ISupplicantP2pNetwork13writeToParcelEP7AParcelRKNSt3__110shared_ptrIS4_EE"
  },
  {
   "name" : "_ZN4aidl7android8hardware4wifi10supplicant21ISupplicantP2pNetwork14getDefaultImplEv"
  },
  {
   "name" : "_ZN4aidl7android8hardware4wifi10supplicant21ISupplicantP2pNetwork14readFromParcelEPK7AParcelPNSt3__110shared_ptrIS4_EE"
  },
  {
   "name" : "_ZN4aidl7android8hardware4wifi10supplicant21ISupplicantP2pNetwork14setDefaultImplERKNSt3__110shared_ptrIS4_EE"
  },
  {
   "name" : "_ZN4aidl7android8hardware4wifi10supplicant21ISupplicantP2pNetworkC2Ev"
  },
  {
   "name" : "_ZN4aidl7android8hardware4wifi10supplicant21ISupplicantP2pNetworkD0Ev"
  },
  {
   "name" : "_ZN4aidl7android8hardware4wifi10supplicant21ISupplicantP2pNetworkD1Ev"
  },
  {
   "name" : "_ZN4aidl7android8hardware4wifi10supplicant21ISupplicantP2pNetworkD2Ev"
  },
  {
   "name" : "_ZN4aidl7android8hardware4wifi10supplicant21ISupplicantStaNetwork10fromBinderERKN3ndk10SpAIBinderE"
  },
  {
   "name" : "_ZN4aidl7android8hardware4wifi10supplicant21ISupplicantStaNetwork13writeToParcelEP7AParcelRKNSt3__110shared_ptrIS4_EE"
  },
  {
   "name" : "_ZN4aidl7android8hardware4wifi10supplicant21ISupplicantStaNetwork14getDefaultImplEv"
  },
  {
   "name" : "_ZN4aidl7android8hardware4wifi10supplicant21ISupplicantStaNetwork14readFromParcelEPK7AParcelPNSt3__110shared_ptrIS4_EE"
  },
  {
   "name" : "_ZN4aidl7android8hardware4wifi10supplicant21ISupplicantStaNetwork14setDefaultImplERKNSt3__110shared_ptrIS4_EE"
  },
  {
   "name" : "_ZN4aidl7android8hardware4wifi10supplicant21ISupplicantStaNetworkC2Ev"
  },
  {
   "name" : "_ZN4aidl7android8hardware4wifi10supplicant21ISupplicantStaNetworkD0Ev"
  },
  {
   "name" : "_ZN4aidl7android8hardware4wifi10supplicant21ISupplicantStaNetworkD1Ev"
  },
  {
   "name" : "_ZN4aidl7android8hardware4wifi10supplicant21ISupplicantStaNetworkD2Ev"
  },
  {
   "name" : "_ZN4aidl7android8hardware4wifi10supplicant22BnSupplicantP2pNetwork12createBinderEv"
  },
  {
   "name" : "_ZN4aidl7android8hardware4wifi10supplicant22BnSupplicantP2pNetwork16getInterfaceHashEPNSt3__112basic_stringIcNS5_11char_traitsIcEENS5_9allocatorIcEEEE"
  },
  {
   "name" : "_ZN4aidl7android8hardware4wifi10supplicant22BnSupplicantP2pNetwork19getInterfaceVersionEPi"
  },
  {
   "name" : "_ZN4aidl7android8hardware4wifi10supplicant22BnSupplicantP2pNetworkC2Ev"
  },
  {
   "name" : "_ZN4aidl7android8hardware4wifi10supplicant22BnSupplicantP2pNetworkD0Ev"
  },
  {
   "name" : "_ZN4aidl7android8hardware4wifi10supplicant22BnSupplicantP2pNetworkD1Ev"
  },
  {
   "name" : "_ZN4aidl7android8hardware4wifi10supplicant22BnSupplicantP2pNetworkD2Ev"
  },
  {
   "name" : "_ZN4aidl7android8hardware4wifi10supplicant22BnSupplicantStaNetwork12createBinderEv"
  },
  {
   "name" : "_ZN4aidl7android8hardware4wifi10supplicant22BnSupplicantStaNetwork16getInterfaceHashEPNSt3__112basic_stringIcNS5_11char_traitsIcEENS5_9allocatorIcEEEE"
  },
  {
   "name" : "_ZN4aidl7android8hardware4wifi10supplicant22BnSupplicantStaNetwork19getInterfaceVersionEPi"
  },
  {
   "name" : "_ZN4aidl7android8hardware4wifi10supplicant22BnSupplicantStaNetworkC2Ev"
  },
  {
   "name" : "_ZN4aidl7android8hardware4wifi10supplicant22BnSupplicantStaNetworkD0Ev"
  },
  {
   "name" : "_ZN4aidl7android8hardware4wifi10supplicant22BnSupplicantStaNetworkD1Ev"
  },
  {
   "name" : "_ZN4aidl7android8hardware4wifi10supplicant22BnSupplicantStaNetworkD2Ev"
  },
  {
   "name" : "_ZN4aidl7android8hardware4wifi10supplicant22BpSupplicantP2pNetwork12isGroupOwnerEPb"
  },
  {
   "name" : "_ZN4aidl7android8hardware4wifi10supplicant22BpSupplicantP2pNetwork12isPersistentEPb"
  },
  {
   "name" : "_ZN4aidl7android8hardware4wifi10supplicant22BpSupplicantP2pNetwork13getClientListEPNSt3__16vectorINS3_10MacAddressENS5_9allocatorIS7_EEEE"
  },
  {
   "name" : "_ZN4aidl7android8hardware4wifi10supplicant22BpSupplicantP2pNetwork13setClientListERKNSt3__16vectorINS3_10MacAddressENS5_9allocatorIS7_EEEE"
  },
  {
   "name" : "_ZN4aidl7android8hardware4wifi10supplicant22BpSupplicantP2pNetwork16getInterfaceHashEPNSt3__112basic_stringIcNS5_11char_traitsIcEENS5_9allocatorIcEEEE"
  },
  {
   "name" : "_ZN4aidl7android8hardware4wifi10supplicant22BpSupplicantP2pNetwork16getInterfaceNameEPNSt3__112basic_stringIcNS5_11char_traitsIcEENS5_9allocatorIcEEEE"
  },
  {
   "name" : "_ZN4aidl7android8hardware4wifi10supplicant22BpSupplicantP2pNetwork19getInterfaceVersionEPi"
  },
  {
   "name" : "_ZN4aidl7android8hardware4wifi10supplicant22BpSupplicantP2pNetwork5getIdEPi"
  },
  {
   "name" : "_ZN4aidl7android8hardware4wifi10supplicant22BpSupplicantP2pNetwork7getSsidEPNSt3__16vectorIhNS5_9allocatorIhEEEE"
  },
  {
   "name" : "_ZN4aidl7android8hardware4wifi10supplicant22BpSupplicantP2pNetwork7getTypeEPNS3_9IfaceTypeE"
  },
  {
   "name" : "_ZN4aidl7android8hardware4wifi10supplicant22BpSupplicantP2pNetwork8getBssidEPNSt3__16vectorIhNS5_9allocatorIhEEEE"
  },
  {
   "name" : "_ZN4aidl7android8hardware4wifi10supplicant22BpSupplicantP2pNetwork9isCurrentEPb"
  },
  {
   "name" : "_ZN4aidl7android8hardware4wifi10supplicant22BpSupplicantP2pNetworkC1ERKN3ndk10SpAIBinderE"
  },
  {
   "name" : "_ZN4aidl7android8hardware4wifi10supplicant22BpSupplicantP2pNetworkC2ERKN3ndk10SpAIBinderE"
  },
  {
   "name" : "_ZN4aidl7android8hardware4wifi10supplicant22BpSupplicantP2pNetworkD0Ev"
  },
  {
   "name" : "_ZN4aidl7android8hardware4wifi10supplicant22BpSupplicantP2pNetworkD1Ev"
  },
  {
   "name" : "_ZN4aidl7android8hardware4wifi10supplicant22BpSupplicantP2pNetworkD2Ev"
  },
  {
   "name" : "_ZN4aidl7android8hardware4wifi10supplicant22BpSupplicantStaNetwork10getAuthAlgEPNS3_11AuthAlgMaskE"
  },
  {
   "name" : "_ZN4aidl7android8hardware4wifi10supplicant22BpSupplicantStaNetwork10getKeyMgmtEPNS3_11KeyMgmtMaskE"
  },
  {
   "name" : "_ZN4aidl7android8hardware4wifi10supplicant22BpSupplicantStaNetwork10setAuthAlgENS3_11AuthAlgMaskE"
  },
  {
   "name" : "_ZN4aidl7android8hardware4wifi10supplicant22BpSupplicantStaNetwork10setDppKeysERKNS3_17DppConnectionKeysE"
  },
  {
   "name" : "_ZN4aidl7android8hardware4wifi10supplicant22BpSupplicantStaNetwork10setKeyMgmtENS3_11KeyMgmtMaskE"
  },
  {
   "name" : "_ZN4aidl7android8hardware4wifi10supplicant22BpSupplicantStaNetwork11getScanSsidEPb"
  },
  {
   "name" : "_ZN4aidl7android8hardware4wifi10supplicant22BpSupplicantStaNetwork11setPmkCacheERKNSt3__16vectorIhNS5_9allocatorIhEEEE"
  },
  {
   "name" : "_ZN4aidl7android8hardware4wifi10supplicant22BpSupplicantStaNetwork11setScanSsidEb"
  },
  {
   "name" : "_ZN4aidl7android8hardware4wifi10supplicant22BpSupplicantStaNetwork12getEapCACertEPNSt3__112basic_stringIcNS5_11char_traitsIcEENS5_9allocatorIcEEEE"
  },
  {
   "name" : "_ZN4aidl7android8hardware4wifi10supplicant22BpSupplicantStaNetwork12getEapCAPathEPNSt3__112basic_stringIcNS5_11char_traitsIcEENS5_9allocatorIcEEEE"
  },
  {
   "name" : "_ZN4aidl7android8hardware4wifi10supplicant22BpSupplicantStaNetwork12getEapEngineEPb"
  },
  {
   "name" : "_ZN4aidl7android8hardware4wifi10supplicant22BpSupplicantStaNetwork12getEapMethodEPNS3_9EapMethodE"
  },
  {
   "name" : "_ZN4aidl7android8hardware4wifi10supplicant22BpSupplicantStaNetwork12setEapCACertERKNSt3__112basic_stringIcNS5_11char_traitsIcEENS5_9allocatorIcEEEE"
  },
  {
   "name" : "_ZN4aidl7android8hardware4wifi10supplicant22BpSupplicantStaNetwork12setEapCAPathERKNSt3__112basic_stringIcNS5_11char_traitsIcEENS5_9allocatorIcEEEE"
  },
  {
   "name" : "_ZN4aidl7android8hardware4wifi10supplicant22BpSupplicantStaNetwork12setEapEngineEb"
  },
  {
   "name" : "_ZN4aidl7android8hardware4wifi10supplicant22BpSupplicantStaNetwork12setEapMethodENS3_9EapMethodE"
  },
  {
   "name" : "_ZN4aidl7android8hardware4wifi10supplicant22BpSupplicantStaNetwork13getRequirePmfEPb"
  },
  {
   "name" : "_ZN4aidl7android8hardware4wifi10supplicant22BpSupplicantStaNetwork13setRequirePmfEb"
  },
  {
   "name" : "_ZN4aidl7android8hardware4wifi10supplicant22BpSupplicantStaNetwork13setSaeH2eModeENS3_10SaeH2eModeE"
  },
  {
   "name" : "_ZN4aidl7android8hardware4wifi10supplicant22BpSupplicantStaNetwork14getEapEngineIdEPNSt3__112basic_stringIcNS5_11char_traitsIcEENS5_9allocatorIcEEEE"
  },
  {
   "name" : "_ZN4aidl7android8hardware4wifi10supplicant22BpSupplicantStaNetwork14getEapIdentityEPNSt3__16vectorIhNS5_9allocatorIhEEEE"
  },
  {
   "name" : "_ZN4aidl7android8hardware4wifi10supplicant22BpSupplicantStaNetwork14getEapPasswordEPNSt3__16vectorIhNS5_9allocatorIhEEEE"
  },
  {
   "name" : "_ZN4aidl7android8hardware4wifi10supplicant22BpSupplicantStaNetwork14getGroupCipherEPNS3_15GroupCipherMaskE"
  },
  {
   "name" : "_ZN4aidl7android8hardware4wifi10supplicant22BpSupplicantStaNetwork14getSaePasswordEPNSt3__112basic_stringIcNS5_11char_traitsIcEENS5_9allocatorIcEEEE"
  },
  {
   "name" : "_ZN4aidl7android8hardware4wifi10supplicant22BpSupplicantStaNetwork14getWepTxKeyIdxEPi"
  },
  {
   "name" : "_ZN4aidl7android8hardware4wifi10supplicant22BpSupplicantStaNetwork14setEapEngineIDERKNSt3__112basic_stringIcNS5_11char_traitsIcEENS5_9allocatorIcEEEE"
  },
  {
   "name" : "_ZN4aidl7android8hardware4wifi10supplicant22BpSupplicantStaNetwork14setEapIdentityERKNSt3__16vectorIhNS5_9allocatorIhEEEE"
  },
  {
   "name" : "_ZN4aidl7android8hardware4wifi10supplicant22BpSupplicantStaNetwork14setEapPasswordERKNSt3__16vectorIhNS5_9allocatorIhEEEE"
  },
  {
   "name" : "_ZN4aidl7android8hardware4wifi10supplicant22BpSupplicantStaNetwork14setGroupCipherENS3_15GroupCipherMaskE"
  },
  {
   "name" : "_ZN4aidl7android8hardware4wifi10supplicant22BpSupplicantStaNetwork14setSaePasswordERKNSt3__112basic_stringIcNS5_11char_traitsIcEENS5_9allocatorIcEEEE"
  },
  {
   "name" : "_ZN4aidl7android8hardware4wifi10supplicant22BpSupplicantStaNetwork14setWepTxKeyIdxEi"
  },
  {
   "name" : "_ZN4aidl7android8hardware4wifi10supplicant22BpSupplicantStaNetwork16getEapClientCertEPNSt3__112basic_stringIcNS5_11char_traitsIcEENS5_9allocatorIcEEEE"
  },
  {
   "name" : "_ZN4aidl7android8hardware4wifi10supplicant22BpSupplicantStaNetwork16getInterfaceHashEPNSt3__112basic_stringIcNS5_11char_traitsIcEENS5_9allocatorIcEEEE"
  },
  {
   "name" : "_ZN4aidl7android8hardware4wifi10supplicant22BpSupplicantStaNetwork16getInterfaceNameEPNSt3__112basic_stringIcNS5_11char_traitsIcEENS5_9allocatorIcEEEE"
  },
  {
   "name" : "_ZN4aidl7android8hardware4wifi10supplicant22BpSupplicantStaNetwork16getPskPassphraseEPNSt3__112basic_stringIcNS5_11char_traitsIcEENS5_9allocatorIcEEEE"
  },
  {
   "name" : "_ZN4aidl7android8hardware4wifi10supplicant22BpSupplicantStaNetwork16getSaePasswordIdEPNSt3__112basic_stringIcNS5_11char_traitsIcEENS5_9allocatorIcEEEE"
  },
  {
   "name" : "_ZN4aidl7android8hardware4wifi10supplicant22BpSupplicantStaNetwork16getWapiCertSuiteEPNSt3__112basic_stringIcNS5_11char_traitsIcEENS5_9allocatorIcEEEE"
  },
  {
   "name" : "_ZN4aidl7android8hardware4wifi10supplicant22BpSupplicantStaNetwork16registerCallbackERKNSt3__110shared_ptrINS3_29ISupplicantStaNetworkCallbackEEE"
  },
  {
   "name" : "_ZN4aidl7android8hardware4wifi10supplicant22BpSupplicantStaNetwork16setEapClientCertERKNSt3__112basic_stringIcNS5_11char_traitsIcEENS5_9allocatorIcEEEE"
  },
  {
   "name" : "_ZN4aidl7android8hardware4wifi10supplicant22BpSupplicantStaNetwork16setPskPassphraseERKNSt3__112basic_stringIcNS5_11char_traitsIcEENS5_9allocatorIcEEEE"
  },
  {
   "name" : "_ZN4aidl7android8hardware4wifi10supplicant22BpSupplicantStaNetwork16setSaePasswordIdERKNSt3__112basic_stringIcNS5_11char_traitsIcEENS5_9allocatorIcEEEE"
  },
  {
   "name" : "_ZN4aidl7android8hardware4wifi10supplicant22BpSupplicantStaNetwork16setWapiCertSuiteERKNSt3__112basic_stringIcNS5_11char_traitsIcEENS5_9allocatorIcEEEE"
  },
  {
   "name" : "_ZN4aidl7android8hardware4wifi10supplicant22BpSupplicantStaNetwork17getPairwiseCipherEPNS3_18PairwiseCipherMaskE"
  },
  {
   "name" : "_ZN4aidl7android8hardware4wifi10supplicant22BpSupplicantStaNetwork17setPairwiseCipherENS3_18PairwiseCipherMaskE"
  },
  {
   "name" : "_ZN4aidl7android8hardware4wifi10supplicant22BpSupplicantStaNetwork18getEapPhase2MethodEPNS3_15EapPhase2MethodE"
  },
  {
   "name" : "_ZN4aidl7android8hardware4wifi10supplicant22BpSupplicantStaNetwork18getEapPrivateKeyIdEPNSt3__112basic_stringIcNS5_11char_traitsIcEENS5_9allocatorIcEEEE"
  },
  {
   "name" : "_ZN4aidl7android8hardware4wifi10supplicant22BpSupplicantStaNetwork18getEapSubjectMatchEPNSt3__112basic_stringIcNS5_11char_traitsIcEENS5_9allocatorIcEEEE"
  },
  {
   "name" : "_ZN4aidl7android8hardware4wifi10supplicant22BpSupplicantStaNetwork18getGroupMgmtCipherEPNS3_19GroupMgmtCipherMaskE"
  },
  {
   "name" : "_ZN4aidl7android8hardware4wifi10supplicant22BpSupplicantStaNetwork18setEapPhase2MethodENS3_15EapPhase2MethodE"
  },
  {
   "name" : "_ZN4aidl7android8hardware4wifi10supplicant22BpSupplicantStaNetwork18setEapPrivateKeyIdERKNSt3__112basic_stringIcNS5_11char_traitsIcEENS5_9allocatorIcEEEE"
  },
  {
   "name" : "_ZN4aidl7android8hardware4wifi10supplicant22BpSupplicantStaNetwork18setEapSubjectMatchERKNSt3__112basic_stringIcNS5_11char_traitsIcEENS5_9allocatorIcEEEE"
  },
  {
   "name" : "_ZN4aidl7android8hardware4wifi10supplicant22BpSupplicantStaNetwork18setGroupMgmtCipherENS3_19GroupMgmtCipherMaskE"
  },
  {
   "name" : "_ZN4aidl7android8hardware4wifi10supplicant22BpSupplicantStaNetwork19enableSaePkOnlyModeEb"
  },
  {
   "name" : "_ZN4aidl7android8hardware4wifi10supplicant22BpSupplicantStaNetwork19getInterfaceVersionEPi"
  },
  {
   "name" : "_ZN4aidl7android8hardware4wifi10supplicant22BpSupplicantStaNetwork19setUpdateIdentifierEi"
  },
  {
   "name" : "_ZN4aidl7android8hardware4wifi10supplicant22BpSupplicantStaNetwork21getEapAltSubjectMatchEPNSt3__112basic_stringIcNS5_11char_traitsIcEENS5_9allocatorIcEEEE"
  },
  {
   "name" : "_ZN4aidl7android8hardware4wifi10supplicant22BpSupplicantStaNetwork21setEapAltSubjectMatchERKNSt3__112basic_stringIcNS5_11char_traitsIcEENS5_9allocatorIcEEEE"
  },
  {
   "name" : "_ZN4aidl7android8hardware4wifi10supplicant22BpSupplicantStaNetwork22setProactiveKeyCachingEb"
  },
  {
   "name" : "_ZN4aidl7android8hardware4wifi10supplicant22BpSupplicantStaNetwork23getEapAnonymousIdentityEPNSt3__16vectorIhNS5_9allocatorIhEEEE"
  },
  {
   "name" : "_ZN4aidl7android8hardware4wifi10supplicant22BpSupplicantStaNetwork23getEapDomainSuffixMatchEPNSt3__112basic_stringIcNS5_11char_traitsIcEENS5_9allocatorIcEEEE"
  },
  {
   "name" : "_ZN4aidl7android8hardware4wifi10supplicant22BpSupplicantStaNetwork23setEapAnonymousIdentityERKNSt3__16vectorIhNS5_9allocatorIhEEEE"
  },
  {
   "name" : "_ZN4aidl7android8hardware4wifi10supplicant22BpSupplicantStaNetwork23setEapDomainSuffixMatchERKNSt3__112basic_stringIcNS5_11char_traitsIcEENS5_9allocatorIcEEEE"
  },
  {
   "name" : "_ZN4aidl7android8hardware4wifi10supplicant22BpSupplicantStaNetwork27getWpsNfcConfigurationTokenEPNSt3__16vectorIhNS5_9allocatorIhEEEE"
  },
  {
   "name" : "_ZN4aidl7android8hardware4wifi10supplicant22BpSupplicantStaNetwork27setEapEncryptedImsiIdentityERKNSt3__16vectorIhNS5_9allocatorIhEEEE"
  },
  {
   "name" : "_ZN4aidl7android8hardware4wifi10supplicant22BpSupplicantStaNetwork29enableSuiteBEapOpenSslCiphersEv"
  },
  {
   "name" : "_ZN4aidl7android8hardware4wifi10supplicant22BpSupplicantStaNetwork29enableTlsSuiteBEapPhase1ParamEb"
  },
  {
   "name" : "_ZN4aidl7android8hardware4wifi10supplicant22BpSupplicantStaNetwork29setRoamingConsortiumSelectionERKNSt3__16vectorIhNS5_9allocatorIhEEEE"
  },
  {
   "name" : "_ZN4aidl7android8hardware4wifi10supplicant22BpSupplicantStaNetwork30sendNetworkEapIdentityResponseERKNSt3__16vectorIhNS5_9allocatorIhEEEESB_"
  },
  {
   "name" : "_ZN4aidl7android8hardware4wifi10supplicant22BpSupplicantStaNetwork31sendNetworkEapSimGsmAuthFailureEv"
  },
  {
   "name" : "_ZN4aidl7android8hardware4wifi10supplicant22BpSupplicantStaNetwork32sendNetworkEapSimGsmAuthResponseERKNSt3__16vectorINS3_34NetworkResponseEapSimGsmAuthParamsENS5_9allocatorIS7_EEEE"
  },
  {
   "name" : "_ZN4aidl7android8hardware4wifi10supplicant22BpSupplicantStaNetwork32sendNetworkEapSimUmtsAuthFailureEv"
  },
  {
   "name" : "_ZN4aidl7android8hardware4wifi10supplicant22BpSupplicantStaNetwork33sendNetworkEapSimUmtsAuthResponseERKNS3_35NetworkResponseEapSimUmtsAuthParamsE"
  },
  {
   "name" : "_ZN4aidl7android8hardware4wifi10supplicant22BpSupplicantStaNetwork33sendNetworkEapSimUmtsAutsResponseERKNSt3__16vectorIhNS5_9allocatorIhEEEE"
  },
  {
   "name" : "_ZN4aidl7android8hardware4wifi10supplicant22BpSupplicantStaNetwork5getIdEPi"
  },
  {
   "name" : "_ZN4aidl7android8hardware4wifi10supplicant22BpSupplicantStaNetwork6enableEb"
  },
  {
   "name" : "_ZN4aidl7android8hardware4wifi10supplicant22BpSupplicantStaNetwork6getPskEPNSt3__16vectorIhNS5_9allocatorIhEEEE"
  },
  {
   "name" : "_ZN4aidl7android8hardware4wifi10supplicant22BpSupplicantStaNetwork6selectEv"
  },
  {
   "name" : "_ZN4aidl7android8hardware4wifi10supplicant22BpSupplicantStaNetwork6setPskERKNSt3__16vectorIhNS5_9allocatorIhEEEE"
  },
  {
   "name" : "_ZN4aidl7android8hardware4wifi10supplicant22BpSupplicantStaNetwork7disableEv"
  },
  {
   "name" : "_ZN4aidl7android8hardware4wifi10supplicant22BpSupplicantStaNetwork7getEdmgEPb"
  },
  {
   "name" : "_ZN4aidl7android8hardware4wifi10supplicant22BpSupplicantStaNetwork7getOcspEPNS3_8OcspTypeE"
  },
  {
   "name" : "_ZN4aidl7android8hardware4wifi10supplicant22BpSupplicantStaNetwork7getSsidEPNSt3__16vectorIhNS5_9allocatorIhEEEE"
  },
  {
   "name" : "_ZN4aidl7android8hardware4wifi10supplicant22BpSupplicantStaNetwork7getTypeEPNS3_9IfaceTypeE"
  },
  {
   "name" : "_ZN4aidl7android8hardware4wifi10supplicant22BpSupplicantStaNetwork7setEdmgEb"
  },
  {
   "name" : "_ZN4aidl7android8hardware4wifi10supplicant22BpSupplicantStaNetwork7setOcspENS3_8OcspTypeE"
  },
  {
   "name" : "_ZN4aidl7android8hardware4wifi10supplicant22BpSupplicantStaNetwork7setSsidERKNSt3__16vectorIhNS5_9allocatorIhEEEE"
  },
  {
   "name" : "_ZN4aidl7android8hardware4wifi10supplicant22BpSupplicantStaNetwork8getBssidEPNSt3__16vectorIhNS5_9allocatorIhEEEE"
  },
  {
   "name" : "_ZN4aidl7android8hardware4wifi10supplicant22BpSupplicantStaNetwork8getIdStrEPNSt3__112basic_stringIcNS5_11char_traitsIcEENS5_9allocatorIcEEEE"
  },
  {
   "name" : "_ZN4aidl7android8hardware4wifi10supplicant22BpSupplicantStaNetwork8getProtoEPNS3_9ProtoMaskE"
  },
  {
   "name" : "_ZN4aidl7android8hardware4wifi10supplicant22BpSupplicantStaNetwork8setBssidERKNSt3__16vectorIhNS5_9allocatorIhEEEE"
  },
  {
   "name" : "_ZN4aidl7android8hardware4wifi10supplicant22BpSupplicantStaNetwork8setIdStrERKNSt3__112basic_stringIcNS5_11char_traitsIcEENS5_9allocatorIcEEEE"
  },
  {
   "name" : "_ZN4aidl7android8hardware4wifi10supplicant22BpSupplicantStaNetwork8setProtoENS3_9ProtoMaskE"
  },
  {
   "name" : "_ZN4aidl7android8hardware4wifi10supplicant22BpSupplicantStaNetwork9getWepKeyEiPNSt3__16vectorIhNS5_9allocatorIhEEEE"
  },
  {
   "name" : "_ZN4aidl7android8hardware4wifi10supplicant22BpSupplicantStaNetwork9setEapErpEb"
  },
  {
   "name" : "_ZN4aidl7android8hardware4wifi10supplicant22BpSupplicantStaNetwork9setWepKeyEiRKNSt3__16vectorIhNS5_9allocatorIhEEEE"
  },
  {
   "name" : "_ZN4aidl7android8hardware4wifi10supplicant22BpSupplicantStaNetworkC1ERKN3ndk10SpAIBinderE"
  },
  {
   "name" : "_ZN4aidl7android8hardware4wifi10supplicant22BpSupplicantStaNetworkC2ERKN3ndk10SpAIBinderE"
  },
  {
   "name" : "_ZN4aidl7android8hardware4wifi10supplicant22BpSupplicantStaNetworkD0Ev"
  },
  {
   "name" : "_ZN4aidl7android8hardware4wifi10supplicant22BpSupplicantStaNetworkD1Ev"
  },
  {
   "name" : "_ZN4aidl7android8hardware4wifi10supplicant22BpSupplicantStaNetworkD2Ev"
  },
  {
   "name" : "_ZN4aidl7android8hardware4wifi10supplicant22ConnectionCapabilities14readFromParcelEPK7AParcel"
  },
  {
   "name" : "_ZN4aidl7android8hardware4wifi10supplicant24AssociationRejectionData14readFromParcelEPK7AParcel"
  },
  {
   "name" : "_ZN4aidl7android8hardware4wifi10supplicant25DppResponderBootstrapInfo14readFromParcelEPK7AParcel"
  },
  {
   "name" : "_ZN4aidl7android8hardware4wifi10supplicant25QosPolicyClassifierParams14readFromParcelEPK7AParcel"
  },
  {
   "name" : "_ZN4aidl7android8hardware4wifi10supplicant26ISupplicantCallbackDefault16getInterfaceHashEPNSt3__112basic_stringIcNS5_11char_traitsIcEENS5_9allocatorIcEEEE"
  },
  {
   "name" : "_ZN4aidl7android8hardware4wifi10supplicant26ISupplicantCallbackDefault18onInterfaceCreatedERKNSt3__112basic_stringIcNS5_11char_traitsIcEENS5_9allocatorIcEEEE"
  },
  {
   "name" : "_ZN4aidl7android8hardware4wifi10supplicant26ISupplicantCallbackDefault18onInterfaceRemovedERKNSt3__112basic_stringIcNS5_11char_traitsIcEENS5_9allocatorIcEEEE"
  },
  {
   "name" : "_ZN4aidl7android8hardware4wifi10supplicant26ISupplicantCallbackDefault19getInterfaceVersionEPi"
  },
  {
   "name" : "_ZN4aidl7android8hardware4wifi10supplicant26ISupplicantCallbackDefault8asBinderEv"
  },
  {
   "name" : "_ZN4aidl7android8hardware4wifi10supplicant26ISupplicantCallbackDefault8isRemoteEv"
  },
  {
   "name" : "_ZN4aidl7android8hardware4wifi10supplicant26ISupplicantP2pIfaceDefault10addNetworkEPNSt3__110shared_ptrINS3_21ISupplicantP2pNetworkEEE"
  },
  {
   "name" : "_ZN4aidl7android8hardware4wifi10supplicant26ISupplicantP2pIfaceDefault10getNetworkEiPNSt3__110shared_ptrINS3_21ISupplicantP2pNetworkEEE"
  },
  {
   "name" : "_ZN4aidl7android8hardware4wifi10supplicant26ISupplicantP2pIfaceDefault10saveConfigEv"
  },
  {
   "name" : "_ZN4aidl7android8hardware4wifi10supplicant26ISupplicantP2pIfaceDefault11removeGroupERKNSt3__112basic_stringIcNS5_11char_traitsIcEENS5_9allocatorIcEEEE"
  },
  {
   "name" : "_ZN4aidl7android8hardware4wifi10supplicant26ISupplicantP2pIfaceDefault11startWpsPbcERKNSt3__112basic_stringIcNS5_11char_traitsIcEENS5_9allocatorIcEEEERKNS5_6vectorIhNS9_IhEEEE"
  },
  {
   "name" : "_ZN4aidl7android8hardware4wifi10supplicant26ISupplicantP2pIfaceDefault12listNetworksEPNSt3__16vectorIiNS5_9allocatorIiEEEE"
  },
  {
   "name" : "_ZN4aidl7android8hardware4wifi10supplicant26ISupplicantP2pIfaceDefault12removeClientERKNSt3__16vectorIhNS5_9allocatorIhEEEEb"
  },
  {
   "name" : "_ZN4aidl7android8hardware4wifi10supplicant26ISupplicantP2pIfaceDefault12setGroupIdleERKNSt3__112basic_stringIcNS5_11char_traitsIcEENS5_9allocatorIcEEEEi"
  },
  {
   "name" : "_ZN4aidl7android8hardware4wifi10supplicant26ISupplicantP2pIfaceDefault12setPowerSaveERKNSt3__112basic_stringIcNS5_11char_traitsIcEENS5_9allocatorIcEEEEb"
  },
  {
   "name" : "_ZN4aidl7android8hardware4wifi10supplicant26ISupplicantP2pIfaceDefault13cancelConnectEv"
  },
  {
   "name" : "_ZN4aidl7android8hardware4wifi10supplicant26ISupplicantP2pIfaceDefault13flushServicesEv"
  },
  {
   "name" : "_ZN4aidl7android8hardware4wifi10supplicant26ISupplicantP2pIfaceDefault13removeNetworkEi"
  },
  {
   "name" : "_ZN4aidl7android8hardware4wifi10supplicant26ISupplicantP2pIfaceDefault14addUpnpServiceEiRKNSt3__112basic_stringIcNS5_11char_traitsIcEENS5_9allocatorIcEEEE"
  },
  {
   "name" : "_ZN4aidl7android8hardware4wifi10supplicant26ISupplicantP2pIfaceDefault14setSsidPostfixERKNSt3__16vectorIhNS5_9allocatorIhEEEE"
  },
  {
   "name" : "_ZN4aidl7android8hardware4wifi10supplicant26ISupplicantP2pIfaceDefault15setMiracastModeENS3_12MiracastModeE"
  },
  {
   "name" : "_ZN4aidl7android8hardware4wifi10supplicant26ISupplicantP2pIfaceDefault15setWpsModelNameERKNSt3__112basic_stringIcNS5_11char_traitsIcEENS5_9allocatorIcEEEE"
  },
  {
   "name" : "_ZN4aidl7android8hardware4wifi10supplicant26ISupplicantP2pIfaceDefault16getDeviceAddressEPNSt3__16vectorIhNS5_9allocatorIhEEEE"
  },
  {
   "name" : "_ZN4aidl7android8hardware4wifi10supplicant26ISupplicantP2pIfaceDefault16getInterfaceHashEPNSt3__112basic_stringIcNS5_11char_traitsIcEENS5_9allocatorIcEEEE"
  },
  {
   "name" : "_ZN4aidl7android8hardware4wifi10supplicant26ISupplicantP2pIfaceDefault16registerCallbackERKNSt3__110shared_ptrINS3_27ISupplicantP2pIfaceCallbackEEE"
  },
  {
   "name" : "_ZN4aidl7android8hardware4wifi10supplicant26ISupplicantP2pIfaceDefault16setListenChannelEii"
  },
  {
   "name" : "_ZN4aidl7android8hardware4wifi10supplicant26ISupplicantP2pIfaceDefault16setWfdDeviceInfoERKNSt3__16vectorIhNS5_9allocatorIhEEEE"
  },
  {
   "name" : "_ZN4aidl7android8hardware4wifi10supplicant26ISupplicantP2pIfaceDefault16setWpsDeviceNameERKNSt3__112basic_stringIcNS5_11char_traitsIcEENS5_9allocatorIcEEEE"
  },
  {
   "name" : "_ZN4aidl7android8hardware4wifi10supplicant26ISupplicantP2pIfaceDefault16setWpsDeviceTypeERKNSt3__16vectorIhNS5_9allocatorIhEEEE"
  },
  {
   "name" : "_ZN4aidl7android8hardware4wifi10supplicant26ISupplicantP2pIfaceDefault17addBonjourServiceERKNSt3__16vectorIhNS5_9allocatorIhEEEESB_"
  },
  {
   "name" : "_ZN4aidl7android8hardware4wifi10supplicant26ISupplicantP2pIfaceDefault17removeUpnpServiceEiRKNSt3__112basic_stringIcNS5_11char_traitsIcEENS5_9allocatorIcEEEE"
  },
  {
   "name" : "_ZN4aidl7android8hardware4wifi10supplicant26ISupplicantP2pIfaceDefault17setVendorElementsENS3_16P2pFrameTypeMaskERKNSt3__16vectorIhNS6_9allocatorIhEEEE"
  },
  {
   "name" : "_ZN4aidl7android8hardware4wifi10supplicant26ISupplicantP2pIfaceDefault17setWpsModelNumberERKNSt3__112basic_stringIcNS5_11char_traitsIcEENS5_9allocatorIcEEEE"
  },
  {
   "name" : "_ZN4aidl7android8hardware4wifi10supplicant26ISupplicantP2pIfaceDefault17startWpsPinKeypadERKNSt3__112basic_stringIcNS5_11char_traitsIcEENS5_9allocatorIcEEEESD_"
  },
  {
   "name" : "_ZN4aidl7android8hardware4wifi10supplicant26ISupplicantP2pIfaceDefault18addGroupWithConfigERKNSt3__16vectorIhNS5_9allocatorIhEEEERKNS5_12basic_stringIcNS5_11char_traitsIcEENS7_IcEEEEbiSB_b"
  },
  {
   "name" : "_ZN4aidl7android8hardware4wifi10supplicant26ISupplicantP2pIfaceDefault18configureExtListenEii"
  },
  {
   "name" : "_ZN4aidl7android8hardware4wifi10supplicant26ISupplicantP2pIfaceDefault18getGroupCapabilityERKNSt3__16vectorIhNS5_9allocatorIhEEEEPNS3_22P2pGroupCapabilityMaskE"
  },
  {
   "name" : "_ZN4aidl7android8hardware4wifi10supplicant26ISupplicantP2pIfaceDefault18provisionDiscoveryERKNSt3__16vectorIhNS5_9allocatorIhEEEENS3_18WpsProvisionMethodE"
  },
  {
   "name" : "_ZN4aidl7android8hardware4wifi10supplicant26ISupplicantP2pIfaceDefault18setWfdR2DeviceInfoERKNSt3__16vectorIhNS5_9allocatorIhEEEE"
  },
  {
   "name" : "_ZN4aidl7android8hardware4wifi10supplicant26ISupplicantP2pIfaceDefault18setWpsManufacturerERKNSt3__112basic_stringIcNS5_11char_traitsIcEENS5_9allocatorIcEEEE"
  },
  {
   "name" : "_ZN4aidl7android8hardware4wifi10supplicant26ISupplicantP2pIfaceDefault18setWpsSerialNumberERKNSt3__112basic_stringIcNS5_11char_traitsIcEENS5_9allocatorIcEEEE"
  },
  {
   "name" : "_ZN4aidl7android8hardware4wifi10supplicant26ISupplicantP2pIfaceDefault18startWpsPinDisplayERKNSt3__112basic_stringIcNS5_11char_traitsIcEENS5_9allocatorIcEEEERKNS5_6vectorIhNS9_IhEEEEPSB_"
  },
  {
   "name" : "_ZN4aidl7android8hardware4wifi10supplicant26ISupplicantP2pIfaceDefault19getInterfaceVersionEPi"
  },
  {
   "name" : "_ZN4aidl7android8hardware4wifi10supplicant26ISupplicantP2pIfaceDefault19setMacRandomizationEb"
  },
  {
   "name" : "_ZN4aidl7android8hardware4wifi10supplicant26ISupplicantP2pIfaceDefault19setWpsConfigMethodsENS3_16WpsConfigMethodsE"
  },
  {
   "name" : "_ZN4aidl7android8hardware4wifi10supplicant26ISupplicantP2pIfaceDefault20findOnSocialChannelsEi"
  },
  {
   "name" : "_ZN4aidl7android8hardware4wifi10supplicant26ISupplicantP2pIfaceDefault20removeBonjourServiceERKNSt3__16vectorIhNS5_9allocatorIhEEEE"
  },
  {
   "name" : "_ZN4aidl7android8hardware4wifi10supplicant26ISupplicantP2pIfaceDefault22cancelServiceDiscoveryEx"
  },
  {
   "name" : "_ZN4aidl7android8hardware4wifi10supplicant26ISupplicantP2pIfaceDefault23findOnSpecificFrequencyEii"
  },
  {
   "name" : "_ZN4aidl7android8hardware4wifi10supplicant26ISupplicantP2pIfaceDefault23requestServiceDiscoveryERKNSt3__16vectorIhNS5_9allocatorIhEEEESB_Px"
  },
  {
   "name" : "_ZN4aidl7android8hardware4wifi10supplicant26ISupplicantP2pIfaceDefault24setDisallowedFrequenciesERKNSt3__16vectorINS3_9FreqRangeENS5_9allocatorIS7_EEEE"
  },
  {
   "name" : "_ZN4aidl7android8hardware4wifi10supplicant26ISupplicantP2pIfaceDefault25reportNfcHandoverResponseERKNSt3__16vectorIhNS5_9allocatorIhEEEE"
  },
  {
   "name" : "_ZN4aidl7android8hardware4wifi10supplicant26ISupplicantP2pIfaceDefault27reportNfcHandoverInitiationERKNSt3__16vectorIhNS5_9allocatorIhEEEE"
  },
  {
   "name" : "_ZN4aidl7android8hardware4wifi10supplicant26ISupplicantP2pIfaceDefault30createNfcHandoverSelectMessageEPNSt3__16vectorIhNS5_9allocatorIhEEEE"
  },
  {
   "name" : "_ZN4aidl7android8hardware4wifi10supplicant26ISupplicantP2pIfaceDefault31createNfcHandoverRequestMessageEPNSt3__16vectorIhNS5_9allocatorIhEEEE"
  },
  {
   "name" : "_ZN4aidl7android8hardware4wifi10supplicant26ISupplicantP2pIfaceDefault4findEi"
  },
  {
   "name" : "_ZN4aidl7android8hardware4wifi10supplicant26ISupplicantP2pIfaceDefault5flushEv"
  },
  {
   "name" : "_ZN4aidl7android8hardware4wifi10supplicant26ISupplicantP2pIfaceDefault6inviteERKNSt3__112basic_stringIcNS5_11char_traitsIcEENS5_9allocatorIcEEEERKNS5_6vectorIhNS9_IhEEEESI_"
  },
  {
   "name" : "_ZN4aidl7android8hardware4wifi10supplicant26ISupplicantP2pIfaceDefault6rejectERKNSt3__16vectorIhNS5_9allocatorIhEEEE"
  },
  {
   "name" : "_ZN4aidl7android8hardware4wifi10supplicant26ISupplicantP2pIfaceDefault7connectERKNSt3__16vectorIhNS5_9allocatorIhEEEENS3_18WpsProvisionMethodERKNS5_12basic_stringIcNS5_11char_traitsIcEENS7_IcEEEEbbiPSH_"
  },
  {
   "name" : "_ZN4aidl7android8hardware4wifi10supplicant26ISupplicantP2pIfaceDefault7getEdmgEPb"
  },
  {
   "name" : "_ZN4aidl7android8hardware4wifi10supplicant26ISupplicantP2pIfaceDefault7getNameEPNSt3__112basic_stringIcNS5_11char_traitsIcEENS5_9allocatorIcEEEE"
  },
  {
   "name" : "_ZN4aidl7android8hardware4wifi10supplicant26ISupplicantP2pIfaceDefault7getSsidERKNSt3__16vectorIhNS5_9allocatorIhEEEEPS9_"
  },
  {
   "name" : "_ZN4aidl7android8hardware4wifi10supplicant26ISupplicantP2pIfaceDefault7getTypeEPNS3_9IfaceTypeE"
  },
  {
   "name" : "_ZN4aidl7android8hardware4wifi10supplicant26ISupplicantP2pIfaceDefault7setEdmgEb"
  },
  {
   "name" : "_ZN4aidl7android8hardware4wifi10supplicant26ISupplicantP2pIfaceDefault8addGroupEbi"
  },
  {
   "name" : "_ZN4aidl7android8hardware4wifi10supplicant26ISupplicantP2pIfaceDefault8asBinderEv"
  },
  {
   "name" : "_ZN4aidl7android8hardware4wifi10supplicant26ISupplicantP2pIfaceDefault8isRemoteEv"
  },
  {
   "name" : "_ZN4aidl7android8hardware4wifi10supplicant26ISupplicantP2pIfaceDefault8reinvokeEiRKNSt3__16vectorIhNS5_9allocatorIhEEEE"
  },
  {
   "name" : "_ZN4aidl7android8hardware4wifi10supplicant26ISupplicantP2pIfaceDefault8stopFindEv"
  },
  {
   "name" : "_ZN4aidl7android8hardware4wifi10supplicant26ISupplicantP2pIfaceDefault9cancelWpsERKNSt3__112basic_stringIcNS5_11char_traitsIcEENS5_9allocatorIcEEEE"
  },
  {
   "name" : "_ZN4aidl7android8hardware4wifi10supplicant26ISupplicantP2pIfaceDefault9enableWfdEb"
  },
  {
   "name" : "_ZN4aidl7android8hardware4wifi10supplicant26ISupplicantStaIfaceDefault10addNetworkEPNSt3__110shared_ptrINS3_21ISupplicantStaNetworkEEE"
  },
  {
   "name" : "_ZN4aidl7android8hardware4wifi10supplicant26ISupplicantStaIfaceDefault10disconnectEv"
  },
  {
   "name" : "_ZN4aidl7android8hardware4wifi10supplicant26ISupplicantStaIfaceDefault10getNetworkEiPNSt3__110shared_ptrINS3_21ISupplicantStaNetworkEEE"
  },
  {
   "name" : "_ZN4aidl7android8hardware4wifi10supplicant26ISupplicantStaIfaceDefault11addRxFilterENS3_12RxFilterTypeE"
  },
  {
   "name" : "_ZN4aidl7android8hardware4wifi10supplicant26ISupplicantStaIfaceDefault11reassociateEv"
  },
  {
   "name" : "_ZN4aidl7android8hardware4wifi10supplicant26ISupplicantStaIfaceDefault11startWpsPbcERKNSt3__16vectorIhNS5_9allocatorIhEEEE"
  },
  {
   "name" : "_ZN4aidl7android8hardware4wifi10supplicant26ISupplicantStaIfaceDefault12listNetworksEPNSt3__16vectorIiNS5_9allocatorIiEEEE"
  },
  {
   "name" : "_ZN4aidl7android8hardware4wifi10supplicant26ISupplicantStaIfaceDefault12removeDppUriEi"
  },
  {
   "name" : "_ZN4aidl7android8hardware4wifi10supplicant26ISupplicantStaIfaceDefault12setPowerSaveEb"
  },
  {
   "name" : "_ZN4aidl7android8hardware4wifi10supplicant26ISupplicantStaIfaceDefault12stopRxFilterEv"
  },
  {
   "name" : "_ZN4aidl7android8hardware4wifi10supplicant26ISupplicantStaIfaceDefault13addDppPeerUriERKNSt3__112basic_stringIcNS5_11char_traitsIcEENS5_9allocatorIcEEEEPi"
  },
  {
   "name" : "_ZN4aidl7android8hardware4wifi10supplicant26ISupplicantStaIfaceDefault13getMacAddressEPNSt3__16vectorIhNS5_9allocatorIhEEEE"
  },
  {
   "name" : "_ZN4aidl7android8hardware4wifi10supplicant26ISupplicantStaIfaceDefault13removeNetworkEi"
  },
  {
   "name" : "_ZN4aidl7android8hardware4wifi10supplicant26ISupplicantStaIfaceDefault13startRxFilterEv"
  },
  {
   "name" : "_ZN4aidl7android8hardware4wifi10supplicant26ISupplicantStaIfaceDefault14removeRxFilterENS3_12RxFilterTypeE"
  },
  {
   "name" : "_ZN4aidl7android8hardware4wifi10supplicant26ISupplicantStaIfaceDefault14setCountryCodeERKNSt3__16vectorIhNS5_9allocatorIhEEEE"
  },
  {
   "name" : "_ZN4aidl7android8hardware4wifi10supplicant26ISupplicantStaIfaceDefault14setExternalSimEb"
  },
  {
   "name" : "_ZN4aidl7android8hardware4wifi10supplicant26ISupplicantStaIfaceDefault15addExtRadioWorkERKNSt3__112basic_stringIcNS5_11char_traitsIcEENS5_9allocatorIcEEEEiiPi"
  },
  {
   "name" : "_ZN4aidl7android8hardware4wifi10supplicant26ISupplicantStaIfaceDefault15setWpsModelNameERKNSt3__112basic_stringIcNS5_11char_traitsIcEENS5_9allocatorIcEEEE"
  },
  {
   "name" : "_ZN4aidl7android8hardware4wifi10supplicant26ISupplicantStaIfaceDefault16getInterfaceHashEPNSt3__112basic_stringIcNS5_11char_traitsIcEENS5_9allocatorIcEEEE"
  },
  {
   "name" : "_ZN4aidl7android8hardware4wifi10supplicant26ISupplicantStaIfaceDefault16registerCallbackERKNSt3__110shared_ptrINS3_27ISupplicantStaIfaceCallbackEEE"
  },
  {
   "name" : "_ZN4aidl7android8hardware4wifi10supplicant26ISupplicantStaIfaceDefault16setWpsDeviceNameERKNSt3__112basic_stringIcNS5_11char_traitsIcEENS5_9allocatorIcEEEE"
  },
  {
   "name" : "_ZN4aidl7android8hardware4wifi10supplicant26ISupplicantStaIfaceDefault16setWpsDeviceTypeERKNSt3__16vectorIhNS5_9allocatorIhEEEE"
  },
  {
   "name" : "_ZN4aidl7android8hardware4wifi10supplicant26ISupplicantStaIfaceDefault16stopDppInitiatorEv"
  },
  {
   "name" : "_ZN4aidl7android8hardware4wifi10supplicant26ISupplicantStaIfaceDefault16stopDppResponderEi"
  },
  {
   "name" : "_ZN4aidl7android8hardware4wifi10supplicant26ISupplicantStaIfaceDefault17filsHlpAddRequestERKNSt3__16vectorIhNS5_9allocatorIhEEEESB_"
  },
  {
   "name" : "_ZN4aidl7android8hardware4wifi10supplicant26ISupplicantStaIfaceDefault17initiateAnqpQueryERKNSt3__16vectorIhNS5_9allocatorIhEEEERKNS6_INS3_10AnqpInfoIdENS7_ISC_EEEERKNS6_INS3_16Hs20AnqpSubtypesENS7_ISH_EEEE"
  },
  {
   "name" : "_ZN4aidl7android8hardware4wifi10supplicant26ISupplicantStaIfaceDefault17initiateTdlsSetupERKNSt3__16vectorIhNS5_9allocatorIhEEEE"
  },
  {
   "name" : "_ZN4aidl7android8hardware4wifi10supplicant26ISupplicantStaIfaceDefault17setWpsModelNumberERKNSt3__112basic_stringIcNS5_11char_traitsIcEENS5_9allocatorIcEEEE"
  },
  {
   "name" : "_ZN4aidl7android8hardware4wifi10supplicant26ISupplicantStaIfaceDefault17startWpsPinKeypadERKNSt3__112basic_stringIcNS5_11char_traitsIcEENS5_9allocatorIcEEEE"
  },
  {
   "name" : "_ZN4aidl7android8hardware4wifi10supplicant26ISupplicantStaIfaceDefault17startWpsRegistrarERKNSt3__16vectorIhNS5_9allocatorIhEEEERKNS5_12basic_stringIcNS5_11char_traitsIcEENS7_IcEEEE"
  },
  {
   "name" : "_ZN4aidl7android8hardware4wifi10supplicant26ISupplicantStaIfaceDefault18removeExtRadioWorkEi"
  },
  {
   "name" : "_ZN4aidl7android8hardware4wifi10supplicant26ISupplicantStaIfaceDefault18setWpsManufacturerERKNSt3__112basic_stringIcNS5_11char_traitsIcEENS5_9allocatorIcEEEE"
  },
  {
   "name" : "_ZN4aidl7android8hardware4wifi10supplicant26ISupplicantStaIfaceDefault18setWpsSerialNumberERKNSt3__112basic_stringIcNS5_11char_traitsIcEENS5_9allocatorIcEEEE"
  },
  {
   "name" : "_ZN4aidl7android8hardware4wifi10supplicant26ISupplicantStaIfaceDefault18startWpsPinDisplayERKNSt3__16vectorIhNS5_9allocatorIhEEEEPNS5_12basic_stringIcNS5_11char_traitsIcEENS7_IcEEEE"
  },
  {
   "name" : "_ZN4aidl7android8hardware4wifi10supplicant26ISupplicantStaIfaceDefault19enableAutoReconnectEb"
  },
  {
   "name" : "_ZN4aidl7android8hardware4wifi10supplicant26ISupplicantStaIfaceDefault19filsHlpFlushRequestEv"
  },
  {
   "name" : "_ZN4aidl7android8hardware4wifi10supplicant26ISupplicantStaIfaceDefault19getInterfaceVersionEPi"
  },
  {
   "name" : "_ZN4aidl7android8hardware4wifi10supplicant26ISupplicantStaIfaceDefault19setWpsConfigMethodsENS3_16WpsConfigMethodsE"
  },
  {
   "name" : "_ZN4aidl7android8hardware4wifi10supplicant26ISupplicantStaIfaceDefault20initiateTdlsDiscoverERKNSt3__16vectorIhNS5_9allocatorIhEEEE"
  },
  {
   "name" : "_ZN4aidl7android8hardware4wifi10supplicant26ISupplicantStaIfaceDefault20initiateTdlsTeardownERKNSt3__16vectorIhNS5_9allocatorIhEEEE"
  },
  {
   "name" : "_ZN4aidl7android8hardware4wifi10supplicant26ISupplicantStaIfaceDefault20removeAllQosPoliciesEv"
  },
  {
   "name" : "_ZN4aidl7android8hardware4wifi10supplicant26ISupplicantStaIfaceDefault20setBtCoexistenceModeENS3_17BtCoexistenceModeE"
  },
  {
   "name" : "_ZN4aidl7android8hardware4wifi10supplicant26ISupplicantStaIfaceDefault21initiateHs20IconQueryERKNSt3__16vectorIhNS5_9allocatorIhEEEERKNS5_12basic_stringIcNS5_11char_traitsIcEENS7_IcEEEE"
  },
  {
   "name" : "_ZN4aidl7android8hardware4wifi10supplicant26ISupplicantStaIfaceDefault21sendQosPolicyResponseEibRKNSt3__16vectorINS3_15QosPolicyStatusENS5_9allocatorIS7_EEEE"
  },
  {
   "name" : "_ZN4aidl7android8hardware4wifi10supplicant26ISupplicantStaIfaceDefault21setSuspendModeEnabledEb"
  },
  {
   "name" : "_ZN4aidl7android8hardware4wifi10supplicant26ISupplicantStaIfaceDefault22getKeyMgmtCapabilitiesEPNS3_11KeyMgmtMaskE"
  },
  {
   "name" : "_ZN4aidl7android8hardware4wifi10supplicant26ISupplicantStaIfaceDefault24getWpaDriverCapabilitiesEPNS3_25WpaDriverCapabilitiesMaskE"
  },
  {
   "name" : "_ZN4aidl7android8hardware4wifi10supplicant26ISupplicantStaIfaceDefault24setMboCellularDataStatusEb"
  },
  {
   "name" : "_ZN4aidl7android8hardware4wifi10supplicant26ISupplicantStaIfaceDefault25getConnectionCapabilitiesEPNS3_22ConnectionCapabilitiesE"
  },
  {
   "name" : "_ZN4aidl7android8hardware4wifi10supplicant26ISupplicantStaIfaceDefault25getConnectionMloLinksInfoEPNS3_12MloLinksInfoE"
  },
  {
   "name" : "_ZN4aidl7android8hardware4wifi10supplicant26ISupplicantStaIfaceDefault25initiateVenueUrlAnqpQueryERKNSt3__16vectorIhNS5_9allocatorIhEEEE"
  },
  {
   "name" : "_ZN4aidl7android8hardware4wifi10supplicant26ISupplicantStaIfaceDefault25startDppEnrolleeInitiatorEii"
  },
  {
   "name" : "_ZN4aidl7android8hardware4wifi10supplicant26ISupplicantStaIfaceDefault25startDppEnrolleeResponderEi"
  },
  {
   "name" : "_ZN4aidl7android8hardware4wifi10supplicant26ISupplicantStaIfaceDefault26setQosPolicyFeatureEnabledEb"
  },
  {
   "name" : "_ZN4aidl7android8hardware4wifi10supplicant26ISupplicantStaIfaceDefault28generateSelfDppConfigurationERKNSt3__112basic_stringIcNS5_11char_traitsIcEENS5_9allocatorIcEEEERKNS5_6vectorIhNS9_IhEEEE"
  },
  {
   "name" : "_ZN4aidl7android8hardware4wifi10supplicant26ISupplicantStaIfaceDefault29startDppConfiguratorInitiatorEiiRKNSt3__112basic_stringIcNS5_11char_traitsIcEENS5_9allocatorIcEEEESD_SD_NS3_10DppNetRoleENS3_6DppAkmERKNS5_6vectorIhNS9_IhEEEEPSI_"
  },
  {
   "name" : "_ZN4aidl7android8hardware4wifi10supplicant26ISupplicantStaIfaceDefault31setBtCoexistenceScanModeEnabledEb"
  },
  {
   "name" : "_ZN4aidl7android8hardware4wifi10supplicant26ISupplicantStaIfaceDefault36generateDppBootstrapInfoForResponderERKNSt3__16vectorIhNS5_9allocatorIhEEEERKNS5_12basic_stringIcNS5_11char_traitsIcEENS7_IcEEEENS3_8DppCurveEPNS3_25DppResponderBootstrapInfoE"
  },
  {
   "name" : "_ZN4aidl7android8hardware4wifi10supplicant26ISupplicantStaIfaceDefault7getNameEPNSt3__112basic_stringIcNS5_11char_traitsIcEENS5_9allocatorIcEEEE"
  },
  {
   "name" : "_ZN4aidl7android8hardware4wifi10supplicant26ISupplicantStaIfaceDefault7getTypeEPNS3_9IfaceTypeE"
  },
  {
   "name" : "_ZN4aidl7android8hardware4wifi10supplicant26ISupplicantStaIfaceDefault8asBinderEv"
  },
  {
   "name" : "_ZN4aidl7android8hardware4wifi10supplicant26ISupplicantStaIfaceDefault8isRemoteEv"
  },
  {
   "name" : "_ZN4aidl7android8hardware4wifi10supplicant26ISupplicantStaIfaceDefault9cancelWpsEv"
  },
  {
   "name" : "_ZN4aidl7android8hardware4wifi10supplicant26ISupplicantStaIfaceDefault9reconnectEv"
  },
  {
   "name" : "_ZN4aidl7android8hardware4wifi10supplicant27ISupplicantP2pIfaceCallback10fromBinderERKN3ndk10SpAIBinderE"
  },
  {
   "name" : "_ZN4aidl7android8hardware4wifi10supplicant27ISupplicantP2pIfaceCallback13writeToParcelEP7AParcelRKNSt3__110shared_ptrIS4_EE"
  },
  {
   "name" : "_ZN4aidl7android8hardware4wifi10supplicant27ISupplicantP2pIfaceCallback14getDefaultImplEv"
  },
  {
   "name" : "_ZN4aidl7android8hardware4wifi10supplicant27ISupplicantP2pIfaceCallback14readFromParcelEPK7AParcelPNSt3__110shared_ptrIS4_EE"
  },
  {
   "name" : "_ZN4aidl7android8hardware4wifi10supplicant27ISupplicantP2pIfaceCallback14setDefaultImplERKNSt3__110shared_ptrIS4_EE"
  },
  {
   "name" : "_ZN4aidl7android8hardware4wifi10supplicant27ISupplicantP2pIfaceCallbackC2Ev"
  },
  {
   "name" : "_ZN4aidl7android8hardware4wifi10supplicant27ISupplicantP2pIfaceCallbackD0Ev"
  },
  {
   "name" : "_ZN4aidl7android8hardware4wifi10supplicant27ISupplicantP2pIfaceCallbackD1Ev"
  },
  {
   "name" : "_ZN4aidl7android8hardware4wifi10supplicant27ISupplicantP2pIfaceCallbackD2Ev"
  },
  {
   "name" : "_ZN4aidl7android8hardware4wifi10supplicant27ISupplicantStaIfaceCallback10fromBinderERKN3ndk10SpAIBinderE"
  },
  {
   "name" : "_ZN4aidl7android8hardware4wifi10supplicant27ISupplicantStaIfaceCallback13writeToParcelEP7AParcelRKNSt3__110shared_ptrIS4_EE"
  },
  {
   "name" : "_ZN4aidl7android8hardware4wifi10supplicant27ISupplicantStaIfaceCallback14getDefaultImplEv"
  },
  {
   "name" : "_ZN4aidl7android8hardware4wifi10supplicant27ISupplicantStaIfaceCallback14readFromParcelEPK7AParcelPNSt3__110shared_ptrIS4_EE"
  },
  {
   "name" : "_ZN4aidl7android8hardware4wifi10supplicant27ISupplicantStaIfaceCallback14setDefaultImplERKNSt3__110shared_ptrIS4_EE"
  },
  {
   "name" : "_ZN4aidl7android8hardware4wifi10supplicant27ISupplicantStaIfaceCallbackC2Ev"
  },
  {
   "name" : "_ZN4aidl7android8hardware4wifi10supplicant27ISupplicantStaIfaceCallbackD0Ev"
  },
  {
   "name" : "_ZN4aidl7android8hardware4wifi10supplicant27ISupplicantStaIfaceCallbackD1Ev"
  },
  {
   "name" : "_ZN4aidl7android8hardware4wifi10supplicant27ISupplicantStaIfaceCallbackD2Ev"
  },
  {
   "name" : "_ZN4aidl7android8hardware4wifi10supplicant27OceRssiBasedAssocRejectAttr14readFromParcelEPK7AParcel"
  },
  {
   "name" : "_ZN4aidl7android8hardware4wifi10supplicant28BnSupplicantP2pIfaceCallback12createBinderEv"
  },
  {
   "name" : "_ZN4aidl7android8hardware4wifi10supplicant28BnSupplicantP2pIfaceCallback16getInterfaceHashEPNSt3__112basic_stringIcNS5_11char_traitsIcEENS5_9allocatorIcEEEE"
  },
  {
   "name" : "_ZN4aidl7android8hardware4wifi10supplicant28BnSupplicantP2pIfaceCallback19getInterfaceVersionEPi"
  },
  {
   "name" : "_ZN4aidl7android8hardware4wifi10supplicant28BnSupplicantP2pIfaceCallbackC2Ev"
  },
  {
   "name" : "_ZN4aidl7android8hardware4wifi10supplicant28BnSupplicantP2pIfaceCallbackD0Ev"
  },
  {
   "name" : "_ZN4aidl7android8hardware4wifi10supplicant28BnSupplicantP2pIfaceCallbackD1Ev"
  },
  {
   "name" : "_ZN4aidl7android8hardware4wifi10supplicant28BnSupplicantP2pIfaceCallbackD2Ev"
  },
  {
   "name" : "_ZN4aidl7android8hardware4wifi10supplicant28BnSupplicantStaIfaceCallback12createBinderEv"
  },
  {
   "name" : "_ZN4aidl7android8hardware4wifi10supplicant28BnSupplicantStaIfaceCallback16getInterfaceHashEPNSt3__112basic_stringIcNS5_11char_traitsIcEENS5_9allocatorIcEEEE"
  },
  {
   "name" : "_ZN4aidl7android8hardware4wifi10supplicant28BnSupplicantStaIfaceCallback19getInterfaceVersionEPi"
  },
  {
   "name" : "_ZN4aidl7android8hardware4wifi10supplicant28BnSupplicantStaIfaceCallbackC2Ev"
  },
  {
   "name" : "_ZN4aidl7android8hardware4wifi10supplicant28BnSupplicantStaIfaceCallbackD0Ev"
  },
  {
   "name" : "_ZN4aidl7android8hardware4wifi10supplicant28BnSupplicantStaIfaceCallbackD1Ev"
  },
  {
   "name" : "_ZN4aidl7android8hardware4wifi10supplicant28BnSupplicantStaIfaceCallbackD2Ev"
  },
  {
   "name" : "_ZN4aidl7android8hardware4wifi10supplicant28BpSupplicantP2pIfaceCallback12onDeviceLostERKNSt3__16vectorIhNS5_9allocatorIhEEEE"
  },
  {
   "name" : "_ZN4aidl7android8hardware4wifi10supplicant28BpSupplicantP2pIfaceCallback13onDeviceFoundERKNSt3__16vectorIhNS5_9allocatorIhEEEESB_SB_RKNS5_12basic_stringIcNS5_11char_traitsIcEENS7_IcEEEENS3_16WpsConfigMethodsEaNS3_22P2pGroupCapabilityMaskESB_"
  },
  {
   "name" : "_ZN4aidl7android8hardware4wifi10supplicant28BpSupplicantP2pIfaceCallback13onFindStoppedEv"
  },
  {
   "name" : "_ZN4aidl7android8hardware4wifi10supplicant28BpSupplicantP2pIfaceCallback14onGroupRemovedERKNSt3__112basic_stringIcNS5_11char_traitsIcEENS5_9allocatorIcEEEEb"
  },
  {
   "name" : "_ZN4aidl7android8hardware4wifi10supplicant28BpSupplicantP2pIfaceCallback14onGroupStartedERKNSt3__112basic_stringIcNS5_11char_traitsIcEENS5_9allocatorIcEEEEbRKNS5_6vectorIhNS9_IhEEEEiSI_SD_SI_b"
  },
  {
   "name" : "_ZN4aidl7android8hardware4wifi10supplicant28BpSupplicantP2pIfaceCallback15onR2DeviceFoundERKNSt3__16vectorIhNS5_9allocatorIhEEEESB_SB_RKNS5_12basic_stringIcNS5_11char_traitsIcEENS7_IcEEEENS3_16WpsConfigMethodsEaNS3_22P2pGroupCapabilityMaskESB_SB_"
  },
  {
   "name" : "_ZN4aidl7android8hardware4wifi10supplicant28BpSupplicantP2pIfaceCallback15onStaAuthorizedERKNSt3__16vectorIhNS5_9allocatorIhEEEESB_"
  },
  {
   "name" : "_ZN4aidl7android8hardware4wifi10supplicant28BpSupplicantP2pIfaceCallback16getInterfaceHashEPNSt3__112basic_stringIcNS5_11char_traitsIcEENS5_9allocatorIcEEEE"
  },
  {
   "name" : "_ZN4aidl7android8hardware4wifi10supplicant28BpSupplicantP2pIfaceCallback17onStaDeauthorizedERKNSt3__16vectorIhNS5_9allocatorIhEEEESB_"
  },
  {
   "name" : "_ZN4aidl7android8hardware4wifi10supplicant28BpSupplicantP2pIfaceCallback18onInvitationResultERKNSt3__16vectorIhNS5_9allocatorIhEEEENS3_13P2pStatusCodeE"
  },
  {
   "name" : "_ZN4aidl7android8hardware4wifi10supplicant28BpSupplicantP2pIfaceCallback19getInterfaceVersionEPi"
  },
  {
   "name" : "_ZN4aidl7android8hardware4wifi10supplicant28BpSupplicantP2pIfaceCallback20onInvitationReceivedERKNSt3__16vectorIhNS5_9allocatorIhEEEESB_SB_ii"
  },
  {
   "name" : "_ZN4aidl7android8hardware4wifi10supplicant28BpSupplicantP2pIfaceCallback22onGoNegotiationRequestERKNSt3__16vectorIhNS5_9allocatorIhEEEENS3_16WpsDevPasswordIdE"
  },
  {
   "name" : "_ZN4aidl7android8hardware4wifi10supplicant28BpSupplicantP2pIfaceCallback23onGroupFormationFailureERKNSt3__112basic_stringIcNS5_11char_traitsIcEENS5_9allocatorIcEEEE"
  },
  {
   "name" : "_ZN4aidl7android8hardware4wifi10supplicant28BpSupplicantP2pIfaceCallback23onGroupFormationSuccessEv"
  },
  {
   "name" : "_ZN4aidl7android8hardware4wifi10supplicant28BpSupplicantP2pIfaceCallback23onGroupFrequencyChangedERKNSt3__112basic_stringIcNS5_11char_traitsIcEENS5_9allocatorIcEEEEi"
  },
  {
   "name" : "_ZN4aidl7android8hardware4wifi10supplicant28BpSupplicantP2pIfaceCallback24onGoNegotiationCompletedENS3_13P2pStatusCodeE"
  },
  {
   "name" : "_ZN4aidl7android8hardware4wifi10supplicant28BpSupplicantP2pIfaceCallback26onServiceDiscoveryResponseERKNSt3__16vectorIhNS5_9allocatorIhEEEEDsSB_"
  },
  {
   "name" : "_ZN4aidl7android8hardware4wifi10supplicant28BpSupplicantP2pIfaceCallback29onProvisionDiscoveryCompletedERKNSt3__16vectorIhNS5_9allocatorIhEEEEbNS3_21P2pProvDiscStatusCodeENS3_16WpsConfigMethodsERKNS5_12basic_stringIcNS5_11char_traitsIcEENS7_IcEEEE"
  },
  {
   "name" : "_ZN4aidl7android8hardware4wifi10supplicant28BpSupplicantP2pIfaceCallback31onDeviceFoundWithVendorElementsERKNSt3__16vectorIhNS5_9allocatorIhEEEESB_SB_RKNS5_12basic_stringIcNS5_11char_traitsIcEENS7_IcEEEENS3_16WpsConfigMethodsEaNS3_22P2pGroupCapabilityMaskESB_SB_SB_"
  },
  {
   "name" : "_ZN4aidl7android8hardware4wifi10supplicant28BpSupplicantP2pIfaceCallbackC1ERKN3ndk10SpAIBinderE"
  },
  {
   "name" : "_ZN4aidl7android8hardware4wifi10supplicant28BpSupplicantP2pIfaceCallbackC2ERKN3ndk10SpAIBinderE"
  },
  {
   "name" : "_ZN4aidl7android8hardware4wifi10supplicant28BpSupplicantP2pIfaceCallbackD0Ev"
  },
  {
   "name" : "_ZN4aidl7android8hardware4wifi10supplicant28BpSupplicantP2pIfaceCallbackD1Ev"
  },
  {
   "name" : "_ZN4aidl7android8hardware4wifi10supplicant28BpSupplicantP2pIfaceCallbackD2Ev"
  },
  {
   "name" : "_ZN4aidl7android8hardware4wifi10supplicant28BpSupplicantStaIfaceCallback12onDppFailureENS3_14DppFailureCodeERKNSt3__112basic_stringIcNS6_11char_traitsIcEENS6_9allocatorIcEEEESE_RKNS6_6vectorIDsNSA_IDsEEEE"
  },
  {
   "name" : "_ZN4aidl7android8hardware4wifi10supplicant28BpSupplicantStaIfaceCallback12onDppSuccessENS3_12DppEventTypeE"
  },
  {
   "name" : "_ZN4aidl7android8hardware4wifi10supplicant28BpSupplicantStaIfaceCallback12onEapFailureERKNSt3__16vectorIhNS5_9allocatorIhEEEEi"
  },
  {
   "name" : "_ZN4aidl7android8hardware4wifi10supplicant28BpSupplicantStaIfaceCallback13onDppProgressENS3_15DppProgressCodeE"
  },
  {
   "name" : "_ZN4aidl7android8hardware4wifi10supplicant28BpSupplicantStaIfaceCallback14onBssidChangedENS3_17BssidChangeReasonERKNSt3__16vectorIhNS6_9allocatorIhEEEE"
  },
  {
   "name" : "_ZN4aidl7android8hardware4wifi10supplicant28BpSupplicantStaIfaceCallback14onDisconnectedERKNSt3__16vectorIhNS5_9allocatorIhEEEEbNS3_18StaIfaceReasonCodeE"
  },
  {
   "name" : "_ZN4aidl7android8hardware4wifi10supplicant28BpSupplicantStaIfaceCallback14onNetworkAddedEi"
  },
  {
   "name" : "_ZN4aidl7android8hardware4wifi10supplicant28BpSupplicantStaIfaceCallback14onStateChangedENS3_21StaIfaceCallbackStateERKNSt3__16vectorIhNS6_9allocatorIhEEEEiSC_b"
  },
  {
   "name" : "_ZN4aidl7android8hardware4wifi10supplicant28BpSupplicantStaIfaceCallback14onWpsEventFailERKNSt3__16vectorIhNS5_9allocatorIhEEEENS3_14WpsConfigErrorENS3_18WpsErrorIndicationE"
  },
  {
   "name" : "_ZN4aidl7android8hardware4wifi10supplicant28BpSupplicantStaIfaceCallback15onAnqpQueryDoneERKNSt3__16vectorIhNS5_9allocatorIhEEEERKNS3_8AnqpDataERKNS3_12Hs20AnqpDataE"
  },
  {
   "name" : "_ZN4aidl7android8hardware4wifi10supplicant28BpSupplicantStaIfaceCallback15onPmkCacheAddedExRKNSt3__16vectorIhNS5_9allocatorIhEEEE"
  },
  {
   "name" : "_ZN4aidl7android8hardware4wifi10supplicant28BpSupplicantStaIfaceCallback16getInterfaceHashEPNSt3__112basic_stringIcNS5_11char_traitsIcEENS5_9allocatorIcEEEE"
  },
  {
   "name" : "_ZN4aidl7android8hardware4wifi10supplicant28BpSupplicantStaIfaceCallback16onNetworkRemovedEi"
  },
  {
   "name" : "_ZN4aidl7android8hardware4wifi10supplicant28BpSupplicantStaIfaceCallback16onQosPolicyResetEv"
  },
  {
   "name" : "_ZN4aidl7android8hardware4wifi10supplicant28BpSupplicantStaIfaceCallback17onNetworkNotFoundERKNSt3__16vectorIhNS5_9allocatorIhEEEE"
  },
  {
   "name" : "_ZN4aidl7android8hardware4wifi10supplicant28BpSupplicantStaIfaceCallback17onWpsEventSuccessEv"
  },
  {
   "name" : "_ZN4aidl7android8hardware4wifi10supplicant28BpSupplicantStaIfaceCallback18onQosPolicyRequestEiRKNSt3__16vectorINS3_13QosPolicyDataENS5_9allocatorIS7_EEEE"
  },
  {
   "name" : "_ZN4aidl7android8hardware4wifi10supplicant28BpSupplicantStaIfaceCallback19getInterfaceVersionEPi"
  },
  {
   "name" : "_ZN4aidl7android8hardware4wifi10supplicant28BpSupplicantStaIfaceCallback19onBssTmHandlingDoneERKNS3_9BssTmDataE"
  },
  {
   "name" : "_ZN4aidl7android8hardware4wifi10supplicant28BpSupplicantStaIfaceCallback19onExtRadioWorkStartEi"
  },
  {
   "name" : "_ZN4aidl7android8hardware4wifi10supplicant28BpSupplicantStaIfaceCallback19onHs20IconQueryDoneERKNSt3__16vectorIhNS5_9allocatorIhEEEERKNS5_12basic_stringIcNS5_11char_traitsIcEENS7_IcEEEESB_"
  },
  {
   "name" : "_ZN4aidl7android8hardware4wifi10supplicant28BpSupplicantStaIfaceCallback20onWpsEventPbcOverlapEv"
  },
  {
   "name" : "_ZN4aidl7android8hardware4wifi10supplicant28BpSupplicantStaIfaceCallback21onAssociationRejectedERKNS3_24AssociationRejectionDataE"
  },
  {
   "name" : "_ZN4aidl7android8hardware4wifi10supplicant28BpSupplicantStaIfaceCallback21onExtRadioWorkTimeoutEi"
  },
  {
   "name" : "_ZN4aidl7android8hardware4wifi10supplicant28BpSupplicantStaIfaceCallback22onDppSuccessConfigSentEv"
  },
  {
   "name" : "_ZN4aidl7android8hardware4wifi10supplicant28BpSupplicantStaIfaceCallback23onAuthenticationTimeoutERKNSt3__16vectorIhNS5_9allocatorIhEEEE"
  },
  {
   "name" : "_ZN4aidl7android8hardware4wifi10supplicant28BpSupplicantStaIfaceCallback26onAuxiliarySupplicantEventENS3_28AuxiliarySupplicantEventCodeERKNSt3__16vectorIhNS6_9allocatorIhEEEERKNS6_12basic_stringIcNS6_11char_traitsIcEENS8_IcEEEE"
  },
  {
   "name" : "_ZN4aidl7android8hardware4wifi10supplicant28BpSupplicantStaIfaceCallback26onDppSuccessConfigReceivedERKNSt3__16vectorIhNS5_9allocatorIhEEEERKNS5_12basic_stringIcNS5_11char_traitsIcEENS7_IcEEEESB_NS3_6DppAkmERKNS3_17DppConnectionKeysE"
  },
  {
   "name" : "_ZN4aidl7android8hardware4wifi10supplicant28BpSupplicantStaIfaceCallback26onHs20DeauthImminentNoticeERKNSt3__16vectorIhNS5_9allocatorIhEEEEiiRKNS5_12basic_stringIcNS5_11char_traitsIcEENS7_IcEEEE"
  },
  {
   "name" : "_ZN4aidl7android8hardware4wifi10supplicant28BpSupplicantStaIfaceCallback29onHs20SubscriptionRemediationERKNSt3__16vectorIhNS5_9allocatorIhEEEENS3_9OsuMethodERKNS5_12basic_stringIcNS5_11char_traitsIcEENS7_IcEEEE"
  },
  {
   "name" : "_ZN4aidl7android8hardware4wifi10supplicant28BpSupplicantStaIfaceCallback55onHs20TermsAndConditionsAcceptanceRequestedNotificationERKNSt3__16vectorIhNS5_9allocatorIhEEEERKNS5_12basic_stringIcNS5_11char_traitsIcEENS7_IcEEEE"
  },
  {
   "name" : "_ZN4aidl7android8hardware4wifi10supplicant28BpSupplicantStaIfaceCallbackC1ERKN3ndk10SpAIBinderE"
  },
  {
   "name" : "_ZN4aidl7android8hardware4wifi10supplicant28BpSupplicantStaIfaceCallbackC2ERKN3ndk10SpAIBinderE"
  },
  {
   "name" : "_ZN4aidl7android8hardware4wifi10supplicant28BpSupplicantStaIfaceCallbackD0Ev"
  },
  {
   "name" : "_ZN4aidl7android8hardware4wifi10supplicant28BpSupplicantStaIfaceCallbackD1Ev"
  },
  {
   "name" : "_ZN4aidl7android8hardware4wifi10supplicant28BpSupplicantStaIfaceCallbackD2Ev"
  },
  {
   "name" : "_ZN4aidl7android8hardware4wifi10supplicant28ISupplicantP2pNetworkDefault12isGroupOwnerEPb"
  },
  {
   "name" : "_ZN4aidl7android8hardware4wifi10supplicant28ISupplicantP2pNetworkDefault12isPersistentEPb"
  },
  {
   "name" : "_ZN4aidl7android8hardware4wifi10supplicant28ISupplicantP2pNetworkDefault13getClientListEPNSt3__16vectorINS3_10MacAddressENS5_9allocatorIS7_EEEE"
  },
  {
   "name" : "_ZN4aidl7android8hardware4wifi10supplicant28ISupplicantP2pNetworkDefault13setClientListERKNSt3__16vectorINS3_10MacAddressENS5_9allocatorIS7_EEEE"
  },
  {
   "name" : "_ZN4aidl7android8hardware4wifi10supplicant28ISupplicantP2pNetworkDefault16getInterfaceHashEPNSt3__112basic_stringIcNS5_11char_traitsIcEENS5_9allocatorIcEEEE"
  },
  {
   "name" : "_ZN4aidl7android8hardware4wifi10supplicant28ISupplicantP2pNetworkDefault16getInterfaceNameEPNSt3__112basic_stringIcNS5_11char_traitsIcEENS5_9allocatorIcEEEE"
  },
  {
   "name" : "_ZN4aidl7android8hardware4wifi10supplicant28ISupplicantP2pNetworkDefault19getInterfaceVersionEPi"
  },
  {
   "name" : "_ZN4aidl7android8hardware4wifi10supplicant28ISupplicantP2pNetworkDefault5getIdEPi"
  },
  {
   "name" : "_ZN4aidl7android8hardware4wifi10supplicant28ISupplicantP2pNetworkDefault7getSsidEPNSt3__16vectorIhNS5_9allocatorIhEEEE"
  },
  {
   "name" : "_ZN4aidl7android8hardware4wifi10supplicant28ISupplicantP2pNetworkDefault7getTypeEPNS3_9IfaceTypeE"
  },
  {
   "name" : "_ZN4aidl7android8hardware4wifi10supplicant28ISupplicantP2pNetworkDefault8asBinderEv"
  },
  {
   "name" : "_ZN4aidl7android8hardware4wifi10supplicant28ISupplicantP2pNetworkDefault8getBssidEPNSt3__16vectorIhNS5_9allocatorIhEEEE"
  },
  {
   "name" : "_ZN4aidl7android8hardware4wifi10supplicant28ISupplicantP2pNetworkDefault8isRemoteEv"
  },
  {
   "name" : "_ZN4aidl7android8hardware4wifi10supplicant28ISupplicantP2pNetworkDefault9isCurrentEPb"
  },
  {
   "name" : "_ZN4aidl7android8hardware4wifi10supplicant28ISupplicantStaNetworkDefault10getAuthAlgEPNS3_11AuthAlgMaskE"
  },
  {
   "name" : "_ZN4aidl7android8hardware4wifi10supplicant28ISupplicantStaNetworkDefault10getKeyMgmtEPNS3_11KeyMgmtMaskE"
  },
  {
   "name" : "_ZN4aidl7android8hardware4wifi10supplicant28ISupplicantStaNetworkDefault10setAuthAlgENS3_11AuthAlgMaskE"
  },
  {
   "name" : "_ZN4aidl7android8hardware4wifi10supplicant28ISupplicantStaNetworkDefault10setDppKeysERKNS3_17DppConnectionKeysE"
  },
  {
   "name" : "_ZN4aidl7android8hardware4wifi10supplicant28ISupplicantStaNetworkDefault10setKeyMgmtENS3_11KeyMgmtMaskE"
  },
  {
   "name" : "_ZN4aidl7android8hardware4wifi10supplicant28ISupplicantStaNetworkDefault11getScanSsidEPb"
  },
  {
   "name" : "_ZN4aidl7android8hardware4wifi10supplicant28ISupplicantStaNetworkDefault11setPmkCacheERKNSt3__16vectorIhNS5_9allocatorIhEEEE"
  },
  {
   "name" : "_ZN4aidl7android8hardware4wifi10supplicant28ISupplicantStaNetworkDefault11setScanSsidEb"
  },
  {
   "name" : "_ZN4aidl7android8hardware4wifi10supplicant28ISupplicantStaNetworkDefault12getEapCACertEPNSt3__112basic_stringIcNS5_11char_traitsIcEENS5_9allocatorIcEEEE"
  },
  {
   "name" : "_ZN4aidl7android8hardware4wifi10supplicant28ISupplicantStaNetworkDefault12getEapCAPathEPNSt3__112basic_stringIcNS5_11char_traitsIcEENS5_9allocatorIcEEEE"
  },
  {
   "name" : "_ZN4aidl7android8hardware4wifi10supplicant28ISupplicantStaNetworkDefault12getEapEngineEPb"
  },
  {
   "name" : "_ZN4aidl7android8hardware4wifi10supplicant28ISupplicantStaNetworkDefault12getEapMethodEPNS3_9EapMethodE"
  },
  {
   "name" : "_ZN4aidl7android8hardware4wifi10supplicant28ISupplicantStaNetworkDefault12setEapCACertERKNSt3__112basic_stringIcNS5_11char_traitsIcEENS5_9allocatorIcEEEE"
  },
  {
   "name" : "_ZN4aidl7android8hardware4wifi10supplicant28ISupplicantStaNetworkDefault12setEapCAPathERKNSt3__112basic_stringIcNS5_11char_traitsIcEENS5_9allocatorIcEEEE"
  },
  {
   "name" : "_ZN4aidl7android8hardware4wifi10supplicant28ISupplicantStaNetworkDefault12setEapEngineEb"
  },
  {
   "name" : "_ZN4aidl7android8hardware4wifi10supplicant28ISupplicantStaNetworkDefault12setEapMethodENS3_9EapMethodE"
  },
  {
   "name" : "_ZN4aidl7android8hardware4wifi10supplicant28ISupplicantStaNetworkDefault13getRequirePmfEPb"
  },
  {
   "name" : "_ZN4aidl7android8hardware4wifi10supplicant28ISupplicantStaNetworkDefault13setRequirePmfEb"
  },
  {
   "name" : "_ZN4aidl7android8hardware4wifi10supplicant28ISupplicantStaNetworkDefault13setSaeH2eModeENS3_10SaeH2eModeE"
  },
  {
   "name" : "_ZN4aidl7android8hardware4wifi10supplicant28ISupplicantStaNetworkDefault14getEapEngineIdEPNSt3__112basic_stringIcNS5_11char_traitsIcEENS5_9allocatorIcEEEE"
  },
  {
   "name" : "_ZN4aidl7android8hardware4wifi10supplicant28ISupplicantStaNetworkDefault14getEapIdentityEPNSt3__16vectorIhNS5_9allocatorIhEEEE"
  },
  {
   "name" : "_ZN4aidl7android8hardware4wifi10supplicant28ISupplicantStaNetworkDefault14getEapPasswordEPNSt3__16vectorIhNS5_9allocatorIhEEEE"
  },
  {
   "name" : "_ZN4aidl7android8hardware4wifi10supplicant28ISupplicantStaNetworkDefault14getGroupCipherEPNS3_15GroupCipherMaskE"
  },
  {
   "name" : "_ZN4aidl7android8hardware4wifi10supplicant28ISupplicantStaNetworkDefault14getSaePasswordEPNSt3__112basic_stringIcNS5_11char_traitsIcEENS5_9allocatorIcEEEE"
  },
  {
   "name" : "_ZN4aidl7android8hardware4wifi10supplicant28ISupplicantStaNetworkDefault14getWepTxKeyIdxEPi"
  },
  {
   "name" : "_ZN4aidl7android8hardware4wifi10supplicant28ISupplicantStaNetworkDefault14setEapEngineIDERKNSt3__112basic_stringIcNS5_11char_traitsIcEENS5_9allocatorIcEEEE"
  },
  {
   "name" : "_ZN4aidl7android8hardware4wifi10supplicant28ISupplicantStaNetworkDefault14setEapIdentityERKNSt3__16vectorIhNS5_9allocatorIhEEEE"
  },
  {
   "name" : "_ZN4aidl7android8hardware4wifi10supplicant28ISupplicantStaNetworkDefault14setEapPasswordERKNSt3__16vectorIhNS5_9allocatorIhEEEE"
  },
  {
   "name" : "_ZN4aidl7android8hardware4wifi10supplicant28ISupplicantStaNetworkDefault14setGroupCipherENS3_15GroupCipherMaskE"
  },
  {
   "name" : "_ZN4aidl7android8hardware4wifi10supplicant28ISupplicantStaNetworkDefault14setSaePasswordERKNSt3__112basic_stringIcNS5_11char_traitsIcEENS5_9allocatorIcEEEE"
  },
  {
   "name" : "_ZN4aidl7android8hardware4wifi10supplicant28ISupplicantStaNetworkDefault14setWepTxKeyIdxEi"
  },
  {
   "name" : "_ZN4aidl7android8hardware4wifi10supplicant28ISupplicantStaNetworkDefault16getEapClientCertEPNSt3__112basic_stringIcNS5_11char_traitsIcEENS5_9allocatorIcEEEE"
  },
  {
   "name" : "_ZN4aidl7android8hardware4wifi10supplicant28ISupplicantStaNetworkDefault16getInterfaceHashEPNSt3__112basic_stringIcNS5_11char_traitsIcEENS5_9allocatorIcEEEE"
  },
  {
   "name" : "_ZN4aidl7android8hardware4wifi10supplicant28ISupplicantStaNetworkDefault16getInterfaceNameEPNSt3__112basic_stringIcNS5_11char_traitsIcEENS5_9allocatorIcEEEE"
  },
  {
   "name" : "_ZN4aidl7android8hardware4wifi10supplicant28ISupplicantStaNetworkDefault16getPskPassphraseEPNSt3__112basic_stringIcNS5_11char_traitsIcEENS5_9allocatorIcEEEE"
  },
  {
   "name" : "_ZN4aidl7android8hardware4wifi10supplicant28ISupplicantStaNetworkDefault16getSaePasswordIdEPNSt3__112basic_stringIcNS5_11char_traitsIcEENS5_9allocatorIcEEEE"
  },
  {
   "name" : "_ZN4aidl7android8hardware4wifi10supplicant28ISupplicantStaNetworkDefault16getWapiCertSuiteEPNSt3__112basic_stringIcNS5_11char_traitsIcEENS5_9allocatorIcEEEE"
  },
  {
   "name" : "_ZN4aidl7android8hardware4wifi10supplicant28ISupplicantStaNetworkDefault16registerCallbackERKNSt3__110shared_ptrINS3_29ISupplicantStaNetworkCallbackEEE"
  },
  {
   "name" : "_ZN4aidl7android8hardware4wifi10supplicant28ISupplicantStaNetworkDefault16setEapClientCertERKNSt3__112basic_stringIcNS5_11char_traitsIcEENS5_9allocatorIcEEEE"
  },
  {
   "name" : "_ZN4aidl7android8hardware4wifi10supplicant28ISupplicantStaNetworkDefault16setPskPassphraseERKNSt3__112basic_stringIcNS5_11char_traitsIcEENS5_9allocatorIcEEEE"
  },
  {
   "name" : "_ZN4aidl7android8hardware4wifi10supplicant28ISupplicantStaNetworkDefault16setSaePasswordIdERKNSt3__112basic_stringIcNS5_11char_traitsIcEENS5_9allocatorIcEEEE"
  },
  {
   "name" : "_ZN4aidl7android8hardware4wifi10supplicant28ISupplicantStaNetworkDefault16setWapiCertSuiteERKNSt3__112basic_stringIcNS5_11char_traitsIcEENS5_9allocatorIcEEEE"
  },
  {
   "name" : "_ZN4aidl7android8hardware4wifi10supplicant28ISupplicantStaNetworkDefault17getPairwiseCipherEPNS3_18PairwiseCipherMaskE"
  },
  {
   "name" : "_ZN4aidl7android8hardware4wifi10supplicant28ISupplicantStaNetworkDefault17setPairwiseCipherENS3_18PairwiseCipherMaskE"
  },
  {
   "name" : "_ZN4aidl7android8hardware4wifi10supplicant28ISupplicantStaNetworkDefault18getEapPhase2MethodEPNS3_15EapPhase2MethodE"
  },
  {
   "name" : "_ZN4aidl7android8hardware4wifi10supplicant28ISupplicantStaNetworkDefault18getEapPrivateKeyIdEPNSt3__112basic_stringIcNS5_11char_traitsIcEENS5_9allocatorIcEEEE"
  },
  {
   "name" : "_ZN4aidl7android8hardware4wifi10supplicant28ISupplicantStaNetworkDefault18getEapSubjectMatchEPNSt3__112basic_stringIcNS5_11char_traitsIcEENS5_9allocatorIcEEEE"
  },
  {
   "name" : "_ZN4aidl7android8hardware4wifi10supplicant28ISupplicantStaNetworkDefault18getGroupMgmtCipherEPNS3_19GroupMgmtCipherMaskE"
  },
  {
   "name" : "_ZN4aidl7android8hardware4wifi10supplicant28ISupplicantStaNetworkDefault18setEapPhase2MethodENS3_15EapPhase2MethodE"
  },
  {
   "name" : "_ZN4aidl7android8hardware4wifi10supplicant28ISupplicantStaNetworkDefault18setEapPrivateKeyIdERKNSt3__112basic_stringIcNS5_11char_traitsIcEENS5_9allocatorIcEEEE"
  },
  {
   "name" : "_ZN4aidl7android8hardware4wifi10supplicant28ISupplicantStaNetworkDefault18setEapSubjectMatchERKNSt3__112basic_stringIcNS5_11char_traitsIcEENS5_9allocatorIcEEEE"
  },
  {
   "name" : "_ZN4aidl7android8hardware4wifi10supplicant28ISupplicantStaNetworkDefault18setGroupMgmtCipherENS3_19GroupMgmtCipherMaskE"
  },
  {
   "name" : "_ZN4aidl7android8hardware4wifi10supplicant28ISupplicantStaNetworkDefault19enableSaePkOnlyModeEb"
  },
  {
   "name" : "_ZN4aidl7android8hardware4wifi10supplicant28ISupplicantStaNetworkDefault19getInterfaceVersionEPi"
  },
  {
   "name" : "_ZN4aidl7android8hardware4wifi10supplicant28ISupplicantStaNetworkDefault19setUpdateIdentifierEi"
  },
  {
   "name" : "_ZN4aidl7android8hardware4wifi10supplicant28ISupplicantStaNetworkDefault21getEapAltSubjectMatchEPNSt3__112basic_stringIcNS5_11char_traitsIcEENS5_9allocatorIcEEEE"
  },
  {
   "name" : "_ZN4aidl7android8hardware4wifi10supplicant28ISupplicantStaNetworkDefault21setEapAltSubjectMatchERKNSt3__112basic_stringIcNS5_11char_traitsIcEENS5_9allocatorIcEEEE"
  },
  {
   "name" : "_ZN4aidl7android8hardware4wifi10supplicant28ISupplicantStaNetworkDefault22setProactiveKeyCachingEb"
  },
  {
   "name" : "_ZN4aidl7android8hardware4wifi10supplicant28ISupplicantStaNetworkDefault23getEapAnonymousIdentityEPNSt3__16vectorIhNS5_9allocatorIhEEEE"
  },
  {
   "name" : "_ZN4aidl7android8hardware4wifi10supplicant28ISupplicantStaNetworkDefault23getEapDomainSuffixMatchEPNSt3__112basic_stringIcNS5_11char_traitsIcEENS5_9allocatorIcEEEE"
  },
  {
   "name" : "_ZN4aidl7android8hardware4wifi10supplicant28ISupplicantStaNetworkDefault23setEapAnonymousIdentityERKNSt3__16vectorIhNS5_9allocatorIhEEEE"
  },
  {
   "name" : "_ZN4aidl7android8hardware4wifi10supplicant28ISupplicantStaNetworkDefault23setEapDomainSuffixMatchERKNSt3__112basic_stringIcNS5_11char_traitsIcEENS5_9allocatorIcEEEE"
  },
  {
   "name" : "_ZN4aidl7android8hardware4wifi10supplicant28ISupplicantStaNetworkDefault27getWpsNfcConfigurationTokenEPNSt3__16vectorIhNS5_9allocatorIhEEEE"
  },
  {
   "name" : "_ZN4aidl7android8hardware4wifi10supplicant28ISupplicantStaNetworkDefault27setEapEncryptedImsiIdentityERKNSt3__16vectorIhNS5_9allocatorIhEEEE"
  },
  {
   "name" : "_ZN4aidl7android8hardware4wifi10supplicant28ISupplicantStaNetworkDefault29enableSuiteBEapOpenSslCiphersEv"
  },
  {
   "name" : "_ZN4aidl7android8hardware4wifi10supplicant28ISupplicantStaNetworkDefault29enableTlsSuiteBEapPhase1ParamEb"
  },
  {
   "name" : "_ZN4aidl7android8hardware4wifi10supplicant28ISupplicantStaNetworkDefault29setRoamingConsortiumSelectionERKNSt3__16vectorIhNS5_9allocatorIhEEEE"
  },
  {
   "name" : "_ZN4aidl7android8hardware4wifi10supplicant28ISupplicantStaNetworkDefault30sendNetworkEapIdentityResponseERKNSt3__16vectorIhNS5_9allocatorIhEEEESB_"
  },
  {
   "name" : "_ZN4aidl7android8hardware4wifi10supplicant28ISupplicantStaNetworkDefault31sendNetworkEapSimGsmAuthFailureEv"
  },
  {
   "name" : "_ZN4aidl7android8hardware4wifi10supplicant28ISupplicantStaNetworkDefault32sendNetworkEapSimGsmAuthResponseERKNSt3__16vectorINS3_34NetworkResponseEapSimGsmAuthParamsENS5_9allocatorIS7_EEEE"
  },
  {
   "name" : "_ZN4aidl7android8hardware4wifi10supplicant28ISupplicantStaNetworkDefault32sendNetworkEapSimUmtsAuthFailureEv"
  },
  {
   "name" : "_ZN4aidl7android8hardware4wifi10supplicant28ISupplicantStaNetworkDefault33sendNetworkEapSimUmtsAuthResponseERKNS3_35NetworkResponseEapSimUmtsAuthParamsE"
  },
  {
   "name" : "_ZN4aidl7android8hardware4wifi10supplicant28ISupplicantStaNetworkDefault33sendNetworkEapSimUmtsAutsResponseERKNSt3__16vectorIhNS5_9allocatorIhEEEE"
  },
  {
   "name" : "_ZN4aidl7android8hardware4wifi10supplicant28ISupplicantStaNetworkDefault5getIdEPi"
  },
  {
   "name" : "_ZN4aidl7android8hardware4wifi10supplicant28ISupplicantStaNetworkDefault6enableEb"
  },
  {
   "name" : "_ZN4aidl7android8hardware4wifi10supplicant28ISupplicantStaNetworkDefault6getPskEPNSt3__16vectorIhNS5_9allocatorIhEEEE"
  },
  {
   "name" : "_ZN4aidl7android8hardware4wifi10supplicant28ISupplicantStaNetworkDefault6selectEv"
  },
  {
   "name" : "_ZN4aidl7android8hardware4wifi10supplicant28ISupplicantStaNetworkDefault6setPskERKNSt3__16vectorIhNS5_9allocatorIhEEEE"
  },
  {
   "name" : "_ZN4aidl7android8hardware4wifi10supplicant28ISupplicantStaNetworkDefault7disableEv"
  },
  {
   "name" : "_ZN4aidl7android8hardware4wifi10supplicant28ISupplicantStaNetworkDefault7getEdmgEPb"
  },
  {
   "name" : "_ZN4aidl7android8hardware4wifi10supplicant28ISupplicantStaNetworkDefault7getOcspEPNS3_8OcspTypeE"
  },
  {
   "name" : "_ZN4aidl7android8hardware4wifi10supplicant28ISupplicantStaNetworkDefault7getSsidEPNSt3__16vectorIhNS5_9allocatorIhEEEE"
  },
  {
   "name" : "_ZN4aidl7android8hardware4wifi10supplicant28ISupplicantStaNetworkDefault7getTypeEPNS3_9IfaceTypeE"
  },
  {
   "name" : "_ZN4aidl7android8hardware4wifi10supplicant28ISupplicantStaNetworkDefault7setEdmgEb"
  },
  {
   "name" : "_ZN4aidl7android8hardware4wifi10supplicant28ISupplicantStaNetworkDefault7setOcspENS3_8OcspTypeE"
  },
  {
   "name" : "_ZN4aidl7android8hardware4wifi10supplicant28ISupplicantStaNetworkDefault7setSsidERKNSt3__16vectorIhNS5_9allocatorIhEEEE"
  },
  {
   "name" : "_ZN4aidl7android8hardware4wifi10supplicant28ISupplicantStaNetworkDefault8asBinderEv"
  },
  {
   "name" : "_ZN4aidl7android8hardware4wifi10supplicant28ISupplicantStaNetworkDefault8getBssidEPNSt3__16vectorIhNS5_9allocatorIhEEEE"
  },
  {
   "name" : "_ZN4aidl7android8hardware4wifi10supplicant28ISupplicantStaNetworkDefault8getIdStrEPNSt3__112basic_stringIcNS5_11char_traitsIcEENS5_9allocatorIcEEEE"
  },
  {
   "name" : "_ZN4aidl7android8hardware4wifi10supplicant28ISupplicantStaNetworkDefault8getProtoEPNS3_9ProtoMaskE"
  },
  {
   "name" : "_ZN4aidl7android8hardware4wifi10supplicant28ISupplicantStaNetworkDefault8isRemoteEv"
  },
  {
   "name" : "_ZN4aidl7android8hardware4wifi10supplicant28ISupplicantStaNetworkDefault8setBssidERKNSt3__16vectorIhNS5_9allocatorIhEEEE"
  },
  {
   "name" : "_ZN4aidl7android8hardware4wifi10supplicant28ISupplicantStaNetworkDefault8setIdStrERKNSt3__112basic_stringIcNS5_11char_traitsIcEENS5_9allocatorIcEEEE"
  },
  {
   "name" : "_ZN4aidl7android8hardware4wifi10supplicant28ISupplicantStaNetworkDefault8setProtoENS3_9ProtoMaskE"
  },
  {
   "name" : "_ZN4aidl7android8hardware4wifi10supplicant28ISupplicantStaNetworkDefault9getWepKeyEiPNSt3__16vectorIhNS5_9allocatorIhEEEE"
  },
  {
   "name" : "_ZN4aidl7android8hardware4wifi10supplicant28ISupplicantStaNetworkDefault9setEapErpEb"
  },
  {
   "name" : "_ZN4aidl7android8hardware4wifi10supplicant28ISupplicantStaNetworkDefault9setWepKeyEiRKNSt3__16vectorIhNS5_9allocatorIhEEEE"
  },
  {
   "name" : "_ZN4aidl7android8hardware4wifi10supplicant29ISupplicantStaNetworkCallback10fromBinderERKN3ndk10SpAIBinderE"
  },
  {
   "name" : "_ZN4aidl7android8hardware4wifi10supplicant29ISupplicantStaNetworkCallback13writeToParcelEP7AParcelRKNSt3__110shared_ptrIS4_EE"
  },
  {
   "name" : "_ZN4aidl7android8hardware4wifi10supplicant29ISupplicantStaNetworkCallback14getDefaultImplEv"
  },
  {
   "name" : "_ZN4aidl7android8hardware4wifi10supplicant29ISupplicantStaNetworkCallback14readFromParcelEPK7AParcelPNSt3__110shared_ptrIS4_EE"
  },
  {
   "name" : "_ZN4aidl7android8hardware4wifi10supplicant29ISupplicantStaNetworkCallback14setDefaultImplERKNSt3__110shared_ptrIS4_EE"
  },
  {
   "name" : "_ZN4aidl7android8hardware4wifi10supplicant29ISupplicantStaNetworkCallbackC2Ev"
  },
  {
   "name" : "_ZN4aidl7android8hardware4wifi10supplicant29ISupplicantStaNetworkCallbackD0Ev"
  },
  {
   "name" : "_ZN4aidl7android8hardware4wifi10supplicant29ISupplicantStaNetworkCallbackD1Ev"
  },
  {
   "name" : "_ZN4aidl7android8hardware4wifi10supplicant29ISupplicantStaNetworkCallbackD2Ev"
  },
  {
   "name" : "_ZN4aidl7android8hardware4wifi10supplicant30BnSupplicantStaNetworkCallback12createBinderEv"
  },
  {
   "name" : "_ZN4aidl7android8hardware4wifi10supplicant30BnSupplicantStaNetworkCallback16getInterfaceHashEPNSt3__112basic_stringIcNS5_11char_traitsIcEENS5_9allocatorIcEEEE"
  },
  {
   "name" : "_ZN4aidl7android8hardware4wifi10supplicant30BnSupplicantStaNetworkCallback19getInterfaceVersionEPi"
  },
  {
   "name" : "_ZN4aidl7android8hardware4wifi10supplicant30BnSupplicantStaNetworkCallbackC2Ev"
  },
  {
   "name" : "_ZN4aidl7android8hardware4wifi10supplicant30BnSupplicantStaNetworkCallbackD0Ev"
  },
  {
   "name" : "_ZN4aidl7android8hardware4wifi10supplicant30BnSupplicantStaNetworkCallbackD1Ev"
  },
  {
   "name" : "_ZN4aidl7android8hardware4wifi10supplicant30BnSupplicantStaNetworkCallbackD2Ev"
  },
  {
   "name" : "_ZN4aidl7android8hardware4wifi10supplicant30BpSupplicantStaNetworkCallback16getInterfaceHashEPNSt3__112basic_stringIcNS5_11char_traitsIcEENS5_9allocatorIcEEEE"
  },
  {
   "name" : "_ZN4aidl7android8hardware4wifi10supplicant30BpSupplicantStaNetworkCallback19getInterfaceVersionEPi"
  },
  {
   "name" : "_ZN4aidl7android8hardware4wifi10supplicant30BpSupplicantStaNetworkCallback19onTransitionDisableENS3_27TransitionDisableIndicationE"
  },
  {
   "name" : "_ZN4aidl7android8hardware4wifi10supplicant30BpSupplicantStaNetworkCallback27onNetworkEapIdentityRequestEv"
  },
  {
   "name" : "_ZN4aidl7android8hardware4wifi10supplicant30BpSupplicantStaNetworkCallback28onServerCertificateAvailableEiRKNSt3__16vectorIhNS5_9allocatorIhEEEESB_SB_"
  },
  {
   "name" : "_ZN4aidl7android8hardware4wifi10supplicant30BpSupplicantStaNetworkCallback29onNetworkEapSimGsmAuthRequestERKNS3_33NetworkRequestEapSimGsmAuthParamsE"
  },
  {
   "name" : "_ZN4aidl7android8hardware4wifi10supplicant30BpSupplicantStaNetworkCallback30onNetworkEapSimUmtsAuthRequestERKNS3_34NetworkRequestEapSimUmtsAuthParamsE"
  },
  {
   "name" : "_ZN4aidl7android8hardware4wifi10supplicant30BpSupplicantStaNetworkCallbackC1ERKN3ndk10SpAIBinderE"
  },
  {
   "name" : "_ZN4aidl7android8hardware4wifi10supplicant30BpSupplicantStaNetworkCallbackC2ERKN3ndk10SpAIBinderE"
  },
  {
   "name" : "_ZN4aidl7android8hardware4wifi10supplicant30BpSupplicantStaNetworkCallbackD0Ev"
  },
  {
   "name" : "_ZN4aidl7android8hardware4wifi10supplicant30BpSupplicantStaNetworkCallbackD1Ev"
  },
  {
   "name" : "_ZN4aidl7android8hardware4wifi10supplicant30BpSupplicantStaNetworkCallbackD2Ev"
  },
  {
   "name" : "_ZN4aidl7android8hardware4wifi10supplicant33NetworkRequestEapSimGsmAuthParams14readFromParcelEPK7AParcel"
  },
  {
   "name" : "_ZN4aidl7android8hardware4wifi10supplicant34ISupplicantP2pIfaceCallbackDefault12onDeviceLostERKNSt3__16vectorIhNS5_9allocatorIhEEEE"
  },
  {
   "name" : "_ZN4aidl7android8hardware4wifi10supplicant34ISupplicantP2pIfaceCallbackDefault13onDeviceFoundERKNSt3__16vectorIhNS5_9allocatorIhEEEESB_SB_RKNS5_12basic_stringIcNS5_11char_traitsIcEENS7_IcEEEENS3_16WpsConfigMethodsEaNS3_22P2pGroupCapabilityMaskESB_"
  },
  {
   "name" : "_ZN4aidl7android8hardware4wifi10supplicant34ISupplicantP2pIfaceCallbackDefault13onFindStoppedEv"
  },
  {
   "name" : "_ZN4aidl7android8hardware4wifi10supplicant34ISupplicantP2pIfaceCallbackDefault14onGroupRemovedERKNSt3__112basic_stringIcNS5_11char_traitsIcEENS5_9allocatorIcEEEEb"
  },
  {
   "name" : "_ZN4aidl7android8hardware4wifi10supplicant34ISupplicantP2pIfaceCallbackDefault14onGroupStartedERKNSt3__112basic_stringIcNS5_11char_traitsIcEENS5_9allocatorIcEEEEbRKNS5_6vectorIhNS9_IhEEEEiSI_SD_SI_b"
  },
  {
   "name" : "_ZN4aidl7android8hardware4wifi10supplicant34ISupplicantP2pIfaceCallbackDefault15onR2DeviceFoundERKNSt3__16vectorIhNS5_9allocatorIhEEEESB_SB_RKNS5_12basic_stringIcNS5_11char_traitsIcEENS7_IcEEEENS3_16WpsConfigMethodsEaNS3_22P2pGroupCapabilityMaskESB_SB_"
  },
  {
   "name" : "_ZN4aidl7android8hardware4wifi10supplicant34ISupplicantP2pIfaceCallbackDefault15onStaAuthorizedERKNSt3__16vectorIhNS5_9allocatorIhEEEESB_"
  },
  {
   "name" : "_ZN4aidl7android8hardware4wifi10supplicant34ISupplicantP2pIfaceCallbackDefault16getInterfaceHashEPNSt3__112basic_stringIcNS5_11char_traitsIcEENS5_9allocatorIcEEEE"
  },
  {
   "name" : "_ZN4aidl7android8hardware4wifi10supplicant34ISupplicantP2pIfaceCallbackDefault17onStaDeauthorizedERKNSt3__16vectorIhNS5_9allocatorIhEEEESB_"
  },
  {
   "name" : "_ZN4aidl7android8hardware4wifi10supplicant34ISupplicantP2pIfaceCallbackDefault18onInvitationResultERKNSt3__16vectorIhNS5_9allocatorIhEEEENS3_13P2pStatusCodeE"
  },
  {
   "name" : "_ZN4aidl7android8hardware4wifi10supplicant34ISupplicantP2pIfaceCallbackDefault19getInterfaceVersionEPi"
  },
  {
   "name" : "_ZN4aidl7android8hardware4wifi10supplicant34ISupplicantP2pIfaceCallbackDefault20onInvitationReceivedERKNSt3__16vectorIhNS5_9allocatorIhEEEESB_SB_ii"
  },
  {
   "name" : "_ZN4aidl7android8hardware4wifi10supplicant34ISupplicantP2pIfaceCallbackDefault22onGoNegotiationRequestERKNSt3__16vectorIhNS5_9allocatorIhEEEENS3_16WpsDevPasswordIdE"
  },
  {
   "name" : "_ZN4aidl7android8hardware4wifi10supplicant34ISupplicantP2pIfaceCallbackDefault23onGroupFormationFailureERKNSt3__112basic_stringIcNS5_11char_traitsIcEENS5_9allocatorIcEEEE"
  },
  {
   "name" : "_ZN4aidl7android8hardware4wifi10supplicant34ISupplicantP2pIfaceCallbackDefault23onGroupFormationSuccessEv"
  },
  {
   "name" : "_ZN4aidl7android8hardware4wifi10supplicant34ISupplicantP2pIfaceCallbackDefault23onGroupFrequencyChangedERKNSt3__112basic_stringIcNS5_11char_traitsIcEENS5_9allocatorIcEEEEi"
  },
  {
   "name" : "_ZN4aidl7android8hardware4wifi10supplicant34ISupplicantP2pIfaceCallbackDefault24onGoNegotiationCompletedENS3_13P2pStatusCodeE"
  },
  {
   "name" : "_ZN4aidl7android8hardware4wifi10supplicant34ISupplicantP2pIfaceCallbackDefault26onServiceDiscoveryResponseERKNSt3__16vectorIhNS5_9allocatorIhEEEEDsSB_"
  },
  {
   "name" : "_ZN4aidl7android8hardware4wifi10supplicant34ISupplicantP2pIfaceCallbackDefault29onProvisionDiscoveryCompletedERKNSt3__16vectorIhNS5_9allocatorIhEEEEbNS3_21P2pProvDiscStatusCodeENS3_16WpsConfigMethodsERKNS5_12basic_stringIcNS5_11char_traitsIcEENS7_IcEEEE"
  },
  {
   "name" : "_ZN4aidl7android8hardware4wifi10supplicant34ISupplicantP2pIfaceCallbackDefault31onDeviceFoundWithVendorElementsERKNSt3__16vectorIhNS5_9allocatorIhEEEESB_SB_RKNS5_12basic_stringIcNS5_11char_traitsIcEENS7_IcEEEENS3_16WpsConfigMethodsEaNS3_22P2pGroupCapabilityMaskESB_SB_SB_"
  },
  {
   "name" : "_ZN4aidl7android8hardware4wifi10supplicant34ISupplicantP2pIfaceCallbackDefault8asBinderEv"
  },
  {
   "name" : "_ZN4aidl7android8hardware4wifi10supplicant34ISupplicantP2pIfaceCallbackDefault8isRemoteEv"
  },
  {
   "name" : "_ZN4aidl7android8hardware4wifi10supplicant34ISupplicantStaIfaceCallbackDefault12onDppFailureENS3_14DppFailureCodeERKNSt3__112basic_stringIcNS6_11char_traitsIcEENS6_9allocatorIcEEEESE_RKNS6_6vectorIDsNSA_IDsEEEE"
  },
  {
   "name" : "_ZN4aidl7android8hardware4wifi10supplicant34ISupplicantStaIfaceCallbackDefault12onDppSuccessENS3_12DppEventTypeE"
  },
  {
   "name" : "_ZN4aidl7android8hardware4wifi10supplicant34ISupplicantStaIfaceCallbackDefault12onEapFailureERKNSt3__16vectorIhNS5_9allocatorIhEEEEi"
  },
  {
   "name" : "_ZN4aidl7android8hardware4wifi10supplicant34ISupplicantStaIfaceCallbackDefault13onDppProgressENS3_15DppProgressCodeE"
  },
  {
   "name" : "_ZN4aidl7android8hardware4wifi10supplicant34ISupplicantStaIfaceCallbackDefault14onBssidChangedENS3_17BssidChangeReasonERKNSt3__16vectorIhNS6_9allocatorIhEEEE"
  },
  {
   "name" : "_ZN4aidl7android8hardware4wifi10supplicant34ISupplicantStaIfaceCallbackDefault14onDisconnectedERKNSt3__16vectorIhNS5_9allocatorIhEEEEbNS3_18StaIfaceReasonCodeE"
  },
  {
   "name" : "_ZN4aidl7android8hardware4wifi10supplicant34ISupplicantStaIfaceCallbackDefault14onNetworkAddedEi"
  },
  {
   "name" : "_ZN4aidl7android8hardware4wifi10supplicant34ISupplicantStaIfaceCallbackDefault14onStateChangedENS3_21StaIfaceCallbackStateERKNSt3__16vectorIhNS6_9allocatorIhEEEEiSC_b"
  },
  {
   "name" : "_ZN4aidl7android8hardware4wifi10supplicant34ISupplicantStaIfaceCallbackDefault14onWpsEventFailERKNSt3__16vectorIhNS5_9allocatorIhEEEENS3_14WpsConfigErrorENS3_18WpsErrorIndicationE"
  },
  {
   "name" : "_ZN4aidl7android8hardware4wifi10supplicant34ISupplicantStaIfaceCallbackDefault15onAnqpQueryDoneERKNSt3__16vectorIhNS5_9allocatorIhEEEERKNS3_8AnqpDataERKNS3_12Hs20AnqpDataE"
  },
  {
   "name" : "_ZN4aidl7android8hardware4wifi10supplicant34ISupplicantStaIfaceCallbackDefault15onPmkCacheAddedExRKNSt3__16vectorIhNS5_9allocatorIhEEEE"
  },
  {
   "name" : "_ZN4aidl7android8hardware4wifi10supplicant34ISupplicantStaIfaceCallbackDefault16getInterfaceHashEPNSt3__112basic_stringIcNS5_11char_traitsIcEENS5_9allocatorIcEEEE"
  },
  {
   "name" : "_ZN4aidl7android8hardware4wifi10supplicant34ISupplicantStaIfaceCallbackDefault16onNetworkRemovedEi"
  },
  {
   "name" : "_ZN4aidl7android8hardware4wifi10supplicant34ISupplicantStaIfaceCallbackDefault16onQosPolicyResetEv"
  },
  {
   "name" : "_ZN4aidl7android8hardware4wifi10supplicant34ISupplicantStaIfaceCallbackDefault17onNetworkNotFoundERKNSt3__16vectorIhNS5_9allocatorIhEEEE"
  },
  {
   "name" : "_ZN4aidl7android8hardware4wifi10supplicant34ISupplicantStaIfaceCallbackDefault17onWpsEventSuccessEv"
  },
  {
   "name" : "_ZN4aidl7android8hardware4wifi10supplicant34ISupplicantStaIfaceCallbackDefault18onQosPolicyRequestEiRKNSt3__16vectorINS3_13QosPolicyDataENS5_9allocatorIS7_EEEE"
  },
  {
   "name" : "_ZN4aidl7android8hardware4wifi10supplicant34ISupplicantStaIfaceCallbackDefault19getInterfaceVersionEPi"
  },
  {
   "name" : "_ZN4aidl7android8hardware4wifi10supplicant34ISupplicantStaIfaceCallbackDefault19onBssTmHandlingDoneERKNS3_9BssTmDataE"
  },
  {
   "name" : "_ZN4aidl7android8hardware4wifi10supplicant34ISupplicantStaIfaceCallbackDefault19onExtRadioWorkStartEi"
  },
  {
   "name" : "_ZN4aidl7android8hardware4wifi10supplicant34ISupplicantStaIfaceCallbackDefault19onHs20IconQueryDoneERKNSt3__16vectorIhNS5_9allocatorIhEEEERKNS5_12basic_stringIcNS5_11char_traitsIcEENS7_IcEEEESB_"
  },
  {
   "name" : "_ZN4aidl7android8hardware4wifi10supplicant34ISupplicantStaIfaceCallbackDefault20onWpsEventPbcOverlapEv"
  },
  {
   "name" : "_ZN4aidl7android8hardware4wifi10supplicant34ISupplicantStaIfaceCallbackDefault21onAssociationRejectedERKNS3_24AssociationRejectionDataE"
  },
  {
   "name" : "_ZN4aidl7android8hardware4wifi10supplicant34ISupplicantStaIfaceCallbackDefault21onExtRadioWorkTimeoutEi"
  },
  {
   "name" : "_ZN4aidl7android8hardware4wifi10supplicant34ISupplicantStaIfaceCallbackDefault22onDppSuccessConfigSentEv"
  },
  {
   "name" : "_ZN4aidl7android8hardware4wifi10supplicant34ISupplicantStaIfaceCallbackDefault23onAuthenticationTimeoutERKNSt3__16vectorIhNS5_9allocatorIhEEEE"
  },
  {
   "name" : "_ZN4aidl7android8hardware4wifi10supplicant34ISupplicantStaIfaceCallbackDefault26onAuxiliarySupplicantEventENS3_28AuxiliarySupplicantEventCodeERKNSt3__16vectorIhNS6_9allocatorIhEEEERKNS6_12basic_stringIcNS6_11char_traitsIcEENS8_IcEEEE"
  },
  {
   "name" : "_ZN4aidl7android8hardware4wifi10supplicant34ISupplicantStaIfaceCallbackDefault26onDppSuccessConfigReceivedERKNSt3__16vectorIhNS5_9allocatorIhEEEERKNS5_12basic_stringIcNS5_11char_traitsIcEENS7_IcEEEESB_NS3_6DppAkmERKNS3_17DppConnectionKeysE"
  },
  {
   "name" : "_ZN4aidl7android8hardware4wifi10supplicant34ISupplicantStaIfaceCallbackDefault26onHs20DeauthImminentNoticeERKNSt3__16vectorIhNS5_9allocatorIhEEEEiiRKNS5_12basic_stringIcNS5_11char_traitsIcEENS7_IcEEEE"
  },
  {
   "name" : "_ZN4aidl7android8hardware4wifi10supplicant34ISupplicantStaIfaceCallbackDefault29onHs20SubscriptionRemediationERKNSt3__16vectorIhNS5_9allocatorIhEEEENS3_9OsuMethodERKNS5_12basic_stringIcNS5_11char_traitsIcEENS7_IcEEEE"
  },
  {
   "name" : "_ZN4aidl7android8hardware4wifi10supplicant34ISupplicantStaIfaceCallbackDefault55onHs20TermsAndConditionsAcceptanceRequestedNotificationERKNSt3__16vectorIhNS5_9allocatorIhEEEERKNS5_12basic_stringIcNS5_11char_traitsIcEENS7_IcEEEE"
  },
  {
   "name" : "_ZN4aidl7android8hardware4wifi10supplicant34ISupplicantStaIfaceCallbackDefault8asBinderEv"
  },
  {
   "name" : "_ZN4aidl7android8hardware4wifi10supplicant34ISupplicantStaIfaceCallbackDefault8isRemoteEv"
  },
  {
   "name" : "_ZN4aidl7android8hardware4wifi10supplicant34NetworkRequestEapSimUmtsAuthParams14readFromParcelEPK7AParcel"
  },
  {
   "name" : "_ZN4aidl7android8hardware4wifi10supplicant34NetworkResponseEapSimGsmAuthParams14readFromParcelEPK7AParcel"
  },
  {
   "name" : "_ZN4aidl7android8hardware4wifi10supplicant35NetworkResponseEapSimUmtsAuthParams14readFromParcelEPK7AParcel"
  },
  {
   "name" : "_ZN4aidl7android8hardware4wifi10supplicant36ISupplicantStaNetworkCallbackDefault16getInterfaceHashEPNSt3__112basic_stringIcNS5_11char_traitsIcEENS5_9allocatorIcEEEE"
  },
  {
   "name" : "_ZN4aidl7android8hardware4wifi10supplicant36ISupplicantStaNetworkCallbackDefault19getInterfaceVersionEPi"
  },
  {
   "name" : "_ZN4aidl7android8hardware4wifi10supplicant36ISupplicantStaNetworkCallbackDefault19onTransitionDisableENS3_27TransitionDisableIndicationE"
  },
  {
   "name" : "_ZN4aidl7android8hardware4wifi10supplicant36ISupplicantStaNetworkCallbackDefault27onNetworkEapIdentityRequestEv"
  },
  {
   "name" : "_ZN4aidl7android8hardware4wifi10supplicant36ISupplicantStaNetworkCallbackDefault28onServerCertificateAvailableEiRKNSt3__16vectorIhNS5_9allocatorIhEEEESB_SB_"
  },
  {
   "name" : "_ZN4aidl7android8hardware4wifi10supplicant36ISupplicantStaNetworkCallbackDefault29onNetworkEapSimGsmAuthRequestERKNS3_33NetworkRequestEapSimGsmAuthParamsE"
  },
  {
   "name" : "_ZN4aidl7android8hardware4wifi10supplicant36ISupplicantStaNetworkCallbackDefault30onNetworkEapSimUmtsAuthRequestERKNS3_34NetworkRequestEapSimUmtsAuthParamsE"
  },
  {
   "name" : "_ZN4aidl7android8hardware4wifi10supplicant36ISupplicantStaNetworkCallbackDefault8asBinderEv"
  },
  {
   "name" : "_ZN4aidl7android8hardware4wifi10supplicant36ISupplicantStaNetworkCallbackDefault8isRemoteEv"
  },
  {
   "name" : "_ZN4aidl7android8hardware4wifi10supplicant7GsmRand14readFromParcelEPK7AParcel"
  },
  {
   "name" : "_ZN4aidl7android8hardware4wifi10supplicant7MloLink14readFromParcelEPK7AParcel"
  },
  {
   "name" : "_ZN4aidl7android8hardware4wifi10supplicant8AnqpData14readFromParcelEPK7AParcel"
  },
  {
   "name" : "_ZN4aidl7android8hardware4wifi10supplicant9BssTmData14readFromParcelEPK7AParcel"
  },
  {
   "name" : "_ZN4aidl7android8hardware4wifi10supplicant9FreqRange14readFromParcelEPK7AParcel"
  },
  {
   "name" : "_ZN4aidl7android8hardware4wifi10supplicant9IfaceInfo14readFromParcelEPK7AParcel"
  },
  {
   "name" : "_ZN4aidl7android8hardware4wifi10supplicant9PortRange14readFromParcelEPK7AParcel"
  },
  {
   "name" : "_ZNK4aidl7android8hardware4wifi10supplicant10MacAddress13writeToParcelEP7AParcel"
  },
  {
   "name" : "_ZNK4aidl7android8hardware4wifi10supplicant12Hs20AnqpData13writeToParcelEP7AParcel"
  },
  {
   "name" : "_ZNK4aidl7android8hardware4wifi10supplicant12MloLinksInfo13writeToParcelEP7AParcel"
  },
  {
   "name" : "_ZNK4aidl7android8hardware4wifi10supplicant13QosPolicyData13writeToParcelEP7AParcel"
  },
  {
   "name" : "_ZNK4aidl7android8hardware4wifi10supplicant15QosPolicyStatus13writeToParcelEP7AParcel"
  },
  {
   "name" : "_ZNK4aidl7android8hardware4wifi10supplicant17DppConnectionKeys13writeToParcelEP7AParcel"
  },
  {
   "name" : "_ZNK4aidl7android8hardware4wifi10supplicant22ConnectionCapabilities13writeToParcelEP7AParcel"
  },
  {
   "name" : "_ZNK4aidl7android8hardware4wifi10supplicant24AssociationRejectionData13writeToParcelEP7AParcel"
  },
  {
   "name" : "_ZNK4aidl7android8hardware4wifi10supplicant25DppResponderBootstrapInfo13writeToParcelEP7AParcel"
  },
  {
   "name" : "_ZNK4aidl7android8hardware4wifi10supplicant25QosPolicyClassifierParams13writeToParcelEP7AParcel"
  },
  {
   "name" : "_ZNK4aidl7android8hardware4wifi10supplicant27OceRssiBasedAssocRejectAttr13writeToParcelEP7AParcel"
  },
  {
   "name" : "_ZNK4aidl7android8hardware4wifi10supplicant33NetworkRequestEapSimGsmAuthParams13writeToParcelEP7AParcel"
  },
  {
   "name" : "_ZNK4aidl7android8hardware4wifi10supplicant34NetworkRequestEapSimUmtsAuthParams13writeToParcelEP7AParcel"
  },
  {
   "name" : "_ZNK4aidl7android8hardware4wifi10supplicant34NetworkResponseEapSimGsmAuthParams13writeToParcelEP7AParcel"
  },
  {
   "name" : "_ZNK4aidl7android8hardware4wifi10supplicant35NetworkResponseEapSimUmtsAuthParams13writeToParcelEP7AParcel"
  },
  {
   "name" : "_ZNK4aidl7android8hardware4wifi10supplicant7GsmRand13writeToParcelEP7AParcel"
  },
  {
   "name" : "_ZNK4aidl7android8hardware4wifi10supplicant7MloLink13writeToParcelEP7AParcel"
  },
  {
   "name" : "_ZNK4aidl7android8hardware4wifi10supplicant8AnqpData13writeToParcelEP7AParcel"
  },
  {
   "name" : "_ZNK4aidl7android8hardware4wifi10supplicant9BssTmData13writeToParcelEP7AParcel"
  },
  {
   "name" : "_ZNK4aidl7android8hardware4wifi10supplicant9FreqRange13writeToParcelEP7AParcel"
  },
  {
   "name" : "_ZNK4aidl7android8hardware4wifi10supplicant9IfaceInfo13writeToParcelEP7AParcel"
  },
  {
   "name" : "_ZNK4aidl7android8hardware4wifi10supplicant9PortRange13writeToParcelEP7AParcel"
  },
  {
   "binding" : "weak",
   "name" : "_ZNSt3__110shared_ptrIN4aidl7android8hardware4wifi10supplicant11ISupplicantEED2Ev"
  },
  {
   "binding" : "weak",
   "name" : "_ZNSt3__110shared_ptrIN4aidl7android8hardware4wifi10supplicant19ISupplicantCallbackEED2Ev"
  },
  {
   "binding" : "weak",
   "name" : "_ZNSt3__110shared_ptrIN4aidl7android8hardware4wifi10supplicant19ISupplicantP2pIfaceEED2Ev"
  },
  {
   "binding" : "weak",
   "name" : "_ZNSt3__110shared_ptrIN4aidl7android8hardware4wifi10supplicant19ISupplicantStaIfaceEED2Ev"
  },
  {
   "binding" : "weak",
   "name" : "_ZNSt3__110shared_ptrIN4aidl7android8hardware4wifi10supplicant21ISupplicantP2pNetworkEED2Ev"
  },
  {
   "binding" : "weak",
   "name" : "_ZNSt3__110shared_ptrIN4aidl7android8hardware4wifi10supplicant21ISupplicantStaNetworkEED2Ev"
  },
  {
   "binding" : "weak",
   "name" : "_ZNSt3__110shared_ptrIN4aidl7android8hardware4wifi10supplicant27ISupplicantP2pIfaceCallbackEED2Ev"
  },
  {
   "binding" : "weak",
   "name" : "_ZNSt3__110shared_ptrIN4aidl7android8hardware4wifi10supplicant27ISupplicantStaIfaceCallbackEED2Ev"
  },
  {
   "binding" : "weak",
   "name" : "_ZNSt3__110shared_ptrIN4aidl7android8hardware4wifi10supplicant29ISupplicantStaNetworkCallbackEED2Ev"
  },
  {
   "binding" : "weak",
   "name" : "_ZNSt3__113__vector_baseIN4aidl7android8hardware4wifi10supplicant34NetworkResponseEapSimGsmAuthParamsENS_9allocatorIS6_EEED2Ev"
  },
  {
   "binding" : "weak",
   "name" : "_ZNSt3__120__shared_ptr_pointerIPN3ndk13SharedRefBaseENS_14default_deleteIS2_EENS_9allocatorIS2_EEE16__on_zero_sharedEv"
  },
  {
   "binding" : "weak",
   "name" : "_ZNSt3__120__shared_ptr_pointerIPN3ndk13SharedRefBaseENS_14default_deleteIS2_EENS_9allocatorIS2_EEE21__on_zero_shared_weakEv"
  },
  {
   "binding" : "weak",
   "name" : "_ZNSt3__16vectorIDsNS_9allocatorIDsEEE8__appendEj"
  },
  {
   "binding" : "weak",
   "name" : "_ZNSt3__16vectorIN4aidl7android8hardware4wifi10supplicant10MacAddressENS_9allocatorIS6_EEE8__appendEj"
  },
  {
   "binding" : "weak",
   "name" : "_ZNSt3__16vectorIN4aidl7android8hardware4wifi10supplicant13QosPolicyDataENS_9allocatorIS6_EEE26__swap_out_circular_bufferERNS_14__split_bufferIS6_RS8_EE"
  },
  {
   "binding" : "weak",
   "name" : "_ZNSt3__16vectorIN4aidl7android8hardware4wifi10supplicant13QosPolicyDataENS_9allocatorIS6_EEE8__appendEj"
  },
  {
   "binding" : "weak",
   "name" : "_ZNSt3__16vectorIN4aidl7android8hardware4wifi10supplicant15QosPolicyStatusENS_9allocatorIS6_EEE8__appendEj"
  },
  {
   "binding" : "weak",
   "name" : "_ZNSt3__16vectorIN4aidl7android8hardware4wifi10supplicant34NetworkResponseEapSimGsmAuthParamsENS_9allocatorIS6_EEE8__appendEj"
  },
  {
   "binding" : "weak",
   "name" : "_ZNSt3__16vectorIN4aidl7android8hardware4wifi10supplicant7GsmRandENS_9allocatorIS6_EEE8__appendEj"
  },
  {
   "binding" : "weak",
   "name" : "_ZNSt3__16vectorIN4aidl7android8hardware4wifi10supplicant7MloLinkENS_9allocatorIS6_EEE8__appendEj"
  },
  {
   "binding" : "weak",
   "name" : "_ZNSt3__16vectorIN4aidl7android8hardware4wifi10supplicant9FreqRangeENS_9allocatorIS6_EEE8__appendEj"
  },
  {
   "binding" : "weak",
   "name" : "_ZNSt3__16vectorIN4aidl7android8hardware4wifi10supplicant9IfaceInfoENS_9allocatorIS6_EEE8__appendEj"
  },
  {
   "binding" : "weak",
   "name" : "_ZNSt3__16vectorIaNS_9allocatorIaEEE8__appendEj"
  },
  {
   "binding" : "weak",
   "name" : "_ZNSt3__16vectorIiNS_9allocatorIiEEE8__appendEj"
  }
 ],
 "elf_objects" :
 [
  {
   "binding" : "weak",
   "name" : "_ZGVN4aidl7android8hardware4wifi10supplicant11ISupplicant4hashE"
  },
  {
   "binding" : "weak",
   "name" : "_ZGVN4aidl7android8hardware4wifi10supplicant19ISupplicantCallback4hashE"
  },
  {
   "binding" : "weak",
   "name" : "_ZGVN4aidl7android8hardware4wifi10supplicant19ISupplicantP2pIface4hashE"
  },
  {
   "binding" : "weak",
   "name" : "_ZGVN4aidl7android8hardware4wifi10supplicant19ISupplicantStaIface4hashE"
  },
  {
   "binding" : "weak",
   "name" : "_ZGVN4aidl7android8hardware4wifi10supplicant21ISupplicantP2pNetwork4hashE"
  },
  {
   "binding" : "weak",
   "name" : "_ZGVN4aidl7android8hardware4wifi10supplicant21ISupplicantStaNetwork4hashE"
  },
  {
   "binding" : "weak",
   "name" : "_ZGVN4aidl7android8hardware4wifi10supplicant27ISupplicantP2pIfaceCallback4hashE"
  },
  {
   "binding" : "weak",
   "name" : "_ZGVN4aidl7android8hardware4wifi10supplicant27ISupplicantStaIfaceCallback4hashE"
  },
  {
   "binding" : "weak",
   "name" : "_ZGVN4aidl7android8hardware4wifi10supplicant29ISupplicantStaNetworkCallback4hashE"
  },
  {
   "name" : "_ZN4aidl7android8hardware4wifi10supplicant10MacAddress10descriptorE"
  },
  {
   "name" : "_ZN4aidl7android8hardware4wifi10supplicant11ISupplicant10descriptorE"
  },
  {
   "name" : "_ZN4aidl7android8hardware4wifi10supplicant11ISupplicant12default_implE"
  },
  {
   "binding" : "weak",
   "name" : "_ZN4aidl7android8hardware4wifi10supplicant11ISupplicant4hashE"
  },
  {
   "name" : "_ZN4aidl7android8hardware4wifi10supplicant12Hs20AnqpData10descriptorE"
  },
  {
   "name" : "_ZN4aidl7android8hardware4wifi10supplicant12MloLinksInfo10descriptorE"
  },
  {
   "name" : "_ZN4aidl7android8hardware4wifi10supplicant13QosPolicyData10descriptorE"
  },
  {
   "name" : "_ZN4aidl7android8hardware4wifi10supplicant15QosPolicyStatus10descriptorE"
  },
  {
   "name" : "_ZN4aidl7android8hardware4wifi10supplicant17DppConnectionKeys10descriptorE"
  },
  {
   "name" : "_ZN4aidl7android8hardware4wifi10supplicant19ISupplicantCallback10descriptorE"
  },
  {
   "name" : "_ZN4aidl7android8hardware4wifi10supplicant19ISupplicantCallback12default_implE"
  },
  {
   "binding" : "weak",
   "name" : "_ZN4aidl7android8hardware4wifi10supplicant19ISupplicantCallback4hashE"
  },
  {
   "name" : "_ZN4aidl7android8hardware4wifi10supplicant19ISupplicantP2pIface10descriptorE"
  },
  {
   "name" : "_ZN4aidl7android8hardware4wifi10supplicant19ISupplicantP2pIface12default_implE"
  },
  {
   "binding" : "weak",
   "name" : "_ZN4aidl7android8hardware4wifi10supplicant19ISupplicantP2pIface4hashE"
  },
  {
   "name" : "_ZN4aidl7android8hardware4wifi10supplicant19ISupplicantStaIface10descriptorE"
  },
  {
   "name" : "_ZN4aidl7android8hardware4wifi10supplicant19ISupplicantStaIface12default_implE"
  },
  {
   "binding" : "weak",
   "name" : "_ZN4aidl7android8hardware4wifi10supplicant19ISupplicantStaIface4hashE"
  },
  {
   "name" : "_ZN4aidl7android8hardware4wifi10supplicant21ISupplicantP2pNetwork10descriptorE"
  },
  {
   "name" : "_ZN4aidl7android8hardware4wifi10supplicant21ISupplicantP2pNetwork12default_implE"
  },
  {
   "binding" : "weak",
   "name" : "_ZN4aidl7android8hardware4wifi10supplicant21ISupplicantP2pNetwork4hashE"
  },
  {
   "name" : "_ZN4aidl7android8hardware4wifi10supplicant21ISupplicantStaNetwork10descriptorE"
  },
  {
   "name" : "_ZN4aidl7android8hardware4wifi10supplicant21ISupplicantStaNetwork12default_implE"
  },
  {
   "binding" : "weak",
   "name" : "_ZN4aidl7android8hardware4wifi10supplicant21ISupplicantStaNetwork4hashE"
  },
  {
   "name" : "_ZN4aidl7android8hardware4wifi10supplicant22ConnectionCapabilities10descriptorE"
  },
  {
   "name" : "_ZN4aidl7android8hardware4wifi10supplicant24AssociationRejectionData10descriptorE"
  },
  {
   "name" : "_ZN4aidl7android8hardware4wifi10supplicant25DppResponderBootstrapInfo10descriptorE"
  },
  {
   "name" : "_ZN4aidl7android8hardware4wifi10supplicant25QosPolicyClassifierParams10descriptorE"
  },
  {
   "name" : "_ZN4aidl7android8hardware4wifi10supplicant27ISupplicantP2pIfaceCallback10descriptorE"
  },
  {
   "name" : "_ZN4aidl7android8hardware4wifi10supplicant27ISupplicantP2pIfaceCallback12default_implE"
  },
  {
   "binding" : "weak",
   "name" : "_ZN4aidl7android8hardware4wifi10supplicant27ISupplicantP2pIfaceCallback4hashE"
  },
  {
   "name" : "_ZN4aidl7android8hardware4wifi10supplicant27ISupplicantStaIfaceCallback10descriptorE"
  },
  {
   "name" : "_ZN4aidl7android8hardware4wifi10supplicant27ISupplicantStaIfaceCallback12default_implE"
  },
  {
   "binding" : "weak",
   "name" : "_ZN4aidl7android8hardware4wifi10supplicant27ISupplicantStaIfaceCallback4hashE"
  },
  {
   "name" : "_ZN4aidl7android8hardware4wifi10supplicant27OceRssiBasedAssocRejectAttr10descriptorE"
  },
  {
   "name" : "_ZN4aidl7android8hardware4wifi10supplicant29ISupplicantStaNetworkCallback10descriptorE"
  },
  {
   "name" : "_ZN4aidl7android8hardware4wifi10supplicant29ISupplicantStaNetworkCallback12default_implE"
  },
  {
   "binding" : "weak",
   "name" : "_ZN4aidl7android8hardware4wifi10supplicant29ISupplicantStaNetworkCallback4hashE"
  },
  {
   "name" : "_ZN4aidl7android8hardware4wifi10supplicant33NetworkRequestEapSimGsmAuthParams10descriptorE"
  },
  {
   "name" : "_ZN4aidl7android8hardware4wifi10supplicant34NetworkRequestEapSimUmtsAuthParams10descriptorE"
  },
  {
   "name" : "_ZN4aidl7android8hardware4wifi10supplicant34NetworkResponseEapSimGsmAuthParams10descriptorE"
  },
  {
   "name" : "_ZN4aidl7android8hardware4wifi10supplicant35NetworkResponseEapSimUmtsAuthParams10descriptorE"
  },
  {
   "name" : "_ZN4aidl7android8hardware4wifi10supplicant7GsmRand10descriptorE"
  },
  {
   "name" : "_ZN4aidl7android8hardware4wifi10supplicant7MloLink10descriptorE"
  },
  {
   "name" : "_ZN4aidl7android8hardware4wifi10supplicant8AnqpData10descriptorE"
  },
  {
   "name" : "_ZN4aidl7android8hardware4wifi10supplicant9BssTmData10descriptorE"
  },
  {
   "name" : "_ZN4aidl7android8hardware4wifi10supplicant9FreqRange10descriptorE"
  },
  {
   "name" : "_ZN4aidl7android8hardware4wifi10supplicant9IfaceInfo10descriptorE"
  },
  {
   "name" : "_ZN4aidl7android8hardware4wifi10supplicant9PortRange10descriptorE"
  },
  {
   "binding" : "weak",
   "name" : "_ZTVN3ndk12BnCInterfaceIN4aidl7android8hardware4wifi10supplicant11ISupplicantEEE"
  },
  {
   "binding" : "weak",
   "name" : "_ZTVN3ndk12BnCInterfaceIN4aidl7android8hardware4wifi10supplicant19ISupplicantCallbackEEE"
  },
  {
   "binding" : "weak",
   "name" : "_ZTVN3ndk12BnCInterfaceIN4aidl7android8hardware4wifi10supplicant19ISupplicantP2pIfaceEEE"
  },
  {
   "binding" : "weak",
   "name" : "_ZTVN3ndk12BnCInterfaceIN4aidl7android8hardware4wifi10supplicant19ISupplicantStaIfaceEEE"
  },
  {
   "binding" : "weak",
   "name" : "_ZTVN3ndk12BnCInterfaceIN4aidl7android8hardware4wifi10supplicant21ISupplicantP2pNetworkEEE"
  },
  {
   "binding" : "weak",
   "name" : "_ZTVN3ndk12BnCInterfaceIN4aidl7android8hardware4wifi10supplicant21ISupplicantStaNetworkEEE"
  },
  {
   "binding" : "weak",
   "name" : "_ZTVN3ndk12BnCInterfaceIN4aidl7android8hardware4wifi10supplicant27ISupplicantP2pIfaceCallbackEEE"
  },
  {
   "binding" : "weak",
   "name" : "_ZTVN3ndk12BnCInterfaceIN4aidl7android8hardware4wifi10supplicant27ISupplicantStaIfaceCallbackEEE"
  },
  {
   "binding" : "weak",
   "name" : "_ZTVN3ndk12BnCInterfaceIN4aidl7android8hardware4wifi10supplicant29ISupplicantStaNetworkCallbackEEE"
  },
  {
   "binding" : "weak",
   "name" : "_ZTVN3ndk12BpCInterfaceIN4aidl7android8hardware4wifi10supplicant11ISupplicantEEE"
  },
  {
   "binding" : "weak",
   "name" : "_ZTVN3ndk12BpCInterfaceIN4aidl7android8hardware4wifi10supplicant19ISupplicantCallbackEEE"
  },
  {
   "binding" : "weak",
   "name" : "_ZTVN3ndk12BpCInterfaceIN4aidl7android8hardware4wifi10supplicant19ISupplicantP2pIfaceEEE"
  },
  {
   "binding" : "weak",
   "name" : "_ZTVN3ndk12BpCInterfaceIN4aidl7android8hardware4wifi10supplicant19ISupplicantStaIfaceEEE"
  },
  {
   "binding" : "weak",
   "name" : "_ZTVN3ndk12BpCInterfaceIN4aidl7android8hardware4wifi10supplicant21ISupplicantP2pNetworkEEE"
  },
  {
   "binding" : "weak",
   "name" : "_ZTVN3ndk12BpCInterfaceIN4aidl7android8hardware4wifi10supplicant21ISupplicantStaNetworkEEE"
  },
  {
   "binding" : "weak",
   "name" : "_ZTVN3ndk12BpCInterfaceIN4aidl7android8hardware4wifi10supplicant27ISupplicantP2pIfaceCallbackEEE"
  },
  {
   "binding" : "weak",
   "name" : "_ZTVN3ndk12BpCInterfaceIN4aidl7android8hardware4wifi10supplicant27ISupplicantStaIfaceCallbackEEE"
  },
  {
   "binding" : "weak",
   "name" : "_ZTVN3ndk12BpCInterfaceIN4aidl7android8hardware4wifi10supplicant29ISupplicantStaNetworkCallbackEEE"
  },
  {
   "binding" : "weak",
   "name" : "_ZTVN3ndk13SharedRefBaseE"
  },
  {
   "name" : "_ZTVN4aidl7android8hardware4wifi10supplicant11ISupplicantE"
  },
  {
   "name" : "_ZTVN4aidl7android8hardware4wifi10supplicant12BnSupplicantE"
  },
  {
   "name" : "_ZTVN4aidl7android8hardware4wifi10supplicant12BpSupplicantE"
  },
  {
   "name" : "_ZTVN4aidl7android8hardware4wifi10supplicant18ISupplicantDefaultE"
  },
  {
   "name" : "_ZTVN4aidl7android8hardware4wifi10supplicant19ISupplicantCallbackE"
  },
  {
   "name" : "_ZTVN4aidl7android8hardware4wifi10supplicant19ISupplicantP2pIfaceE"
  },
  {
   "name" : "_ZTVN4aidl7android8hardware4wifi10supplicant19ISupplicantStaIfaceE"
  },
  {
   "name" : "_ZTVN4aidl7android8hardware4wifi10supplicant20BnSupplicantCallbackE"
  },
  {
   "name" : "_ZTVN4aidl7android8hardware4wifi10supplicant20BnSupplicantP2pIfaceE"
  },
  {
   "name" : "_ZTVN4aidl7android8hardware4wifi10supplicant20BnSupplicantStaIfaceE"
  },
  {
   "name" : "_ZTVN4aidl7android8hardware4wifi10supplicant20BpSupplicantCallbackE"
  },
  {
   "name" : "_ZTVN4aidl7android8hardware4wifi10supplicant20BpSupplicantP2pIfaceE"
  },
  {
   "name" : "_ZTVN4aidl7android8hardware4wifi10supplicant20BpSupplicantStaIfaceE"
  },
  {
   "name" : "_ZTVN4aidl7android8hardware4wifi10supplicant21ISupplicantP2pNetworkE"
  },
  {
   "name" : "_ZTVN4aidl7android8hardware4wifi10supplicant21ISupplicantStaNetworkE"
  },
  {
   "name" : "_ZTVN4aidl7android8hardware4wifi10supplicant22BnSupplicantP2pNetworkE"
  },
  {
   "name" : "_ZTVN4aidl7android8hardware4wifi10supplicant22BnSupplicantStaNetworkE"
  },
  {
   "name" : "_ZTVN4aidl7android8hardware4wifi10supplicant22BpSupplicantP2pNetworkE"
  },
  {
   "name" : "_ZTVN4aidl7android8hardware4wifi10supplicant22BpSupplicantStaNetworkE"
  },
  {
   "name" : "_ZTVN4aidl7android8hardware4wifi10supplicant26ISupplicantCallbackDefaultE"
  },
  {
   "name" : "_ZTVN4aidl7android8hardware4wifi10supplicant26ISupplicantP2pIfaceDefaultE"
  },
  {
   "name" : "_ZTVN4aidl7android8hardware4wifi10supplicant26ISupplicantStaIfaceDefaultE"
  },
  {
   "name" : "_ZTVN4aidl7android8hardware4wifi10supplicant27ISupplicantP2pIfaceCallbackE"
  },
  {
   "name" : "_ZTVN4aidl7android8hardware4wifi10supplicant27ISupplicantStaIfaceCallbackE"
  },
  {
   "name" : "_ZTVN4aidl7android8hardware4wifi10supplicant28BnSupplicantP2pIfaceCallbackE"
  },
  {
   "name" : "_ZTVN4aidl7android8hardware4wifi10supplicant28BnSupplicantStaIfaceCallbackE"
  },
  {
   "name" : "_ZTVN4aidl7android8hardware4wifi10supplicant28BpSupplicantP2pIfaceCallbackE"
  },
  {
   "name" : "_ZTVN4aidl7android8hardware4wifi10supplicant28BpSupplicantStaIfaceCallbackE"
  },
  {
   "name" : "_ZTVN4aidl7android8hardware4wifi10supplicant28ISupplicantP2pNetworkDefaultE"
  },
  {
   "name" : "_ZTVN4aidl7android8hardware4wifi10supplicant28ISupplicantStaNetworkDefaultE"
  },
  {
   "name" : "_ZTVN4aidl7android8hardware4wifi10supplicant29ISupplicantStaNetworkCallbackE"
  },
  {
   "name" : "_ZTVN4aidl7android8hardware4wifi10supplicant30BnSupplicantStaNetworkCallbackE"
  },
  {
   "name" : "_ZTVN4aidl7android8hardware4wifi10supplicant30BpSupplicantStaNetworkCallbackE"
  },
  {
   "name" : "_ZTVN4aidl7android8hardware4wifi10supplicant34ISupplicantP2pIfaceCallbackDefaultE"
  },
  {
   "name" : "_ZTVN4aidl7android8hardware4wifi10supplicant34ISupplicantStaIfaceCallbackDefaultE"
  },
  {
   "name" : "_ZTVN4aidl7android8hardware4wifi10supplicant36ISupplicantStaNetworkCallbackDefaultE"
  },
  {
   "binding" : "weak",
   "name" : "_ZTVNSt3__120__shared_ptr_pointerIPN3ndk13SharedRefBaseENS_14default_deleteIS2_EENS_9allocatorIS2_EEEE"
  }
 ],
 "enum_types" :
 [
  {
   "alignment" : 4,
   "enum_fields" :
   [
    {
     "enum_field_value" : 1,
     "name" : "FLAG_ONEWAY"
    }
   ],
   "linker_set_key" : "_ZTI12$FLAG_ONEWAY",
   "name" : "(unnamed enum at frameworks/native/libs/binder/ndk/include_ndk/android/binder_ibinder.h:43:1)",
   "referenced_type" : "_ZTI12$FLAG_ONEWAY",
   "self_type" : "_ZTI12$FLAG_ONEWAY",
   "size" : 4,
   "source_file" : "frameworks/native/libs/binder/ndk/include_ndk/android/binder_ibinder.h",
   "underlying_type" : "_ZTIj"
  },
  {
   "alignment" : 4,
   "enum_fields" :
   [
    {
     "enum_field_value" : 0,
     "name" : "EX_NONE"
    },
    {
     "enum_field_value" : -1,
     "name" : "EX_SECURITY"
    },
    {
     "enum_field_value" : -2,
     "name" : "EX_BAD_PARCELABLE"
    },
    {
     "enum_field_value" : -3,
     "name" : "EX_ILLEGAL_ARGUMENT"
    },
    {
     "enum_field_value" : -4,
     "name" : "EX_NULL_POINTER"
    },
    {
     "enum_field_value" : -5,
     "name" : "EX_ILLEGAL_STATE"
    },
    {
     "enum_field_value" : -6,
     "name" : "EX_NETWORK_MAIN_THREAD"
    },
    {
     "enum_field_value" : -7,
     "name" : "EX_UNSUPPORTED_OPERATION"
    },
    {
     "enum_field_value" : -8,
     "name" : "EX_SERVICE_SPECIFIC"
    },
    {
     "enum_field_value" : -9,
     "name" : "EX_PARCELABLE"
    },
    {
     "enum_field_value" : -129,
     "name" : "EX_TRANSACTION_FAILED"
    }
   ],
   "linker_set_key" : "_ZTI18$EX_BAD_PARCELABLE",
   "name" : "(unnamed enum at frameworks/native/libs/binder/ndk/include_ndk/android/binder_status.h:94:1)",
   "referenced_type" : "_ZTI18$EX_BAD_PARCELABLE",
   "self_type" : "_ZTI18$EX_BAD_PARCELABLE",
   "size" : 4,
   "source_file" : "frameworks/native/libs/binder/ndk/include_ndk/android/binder_status.h",
   "underlying_type" : "_ZTIi"
  },
  {
   "alignment" : 4,
   "enum_fields" :
   [
    {
     "enum_field_value" : 268435456,
     "name" : "FLAG_PRIVATE_LOCAL"
    }
   ],
   "linker_set_key" : "_ZTI19$FLAG_PRIVATE_LOCAL",
   "name" : "(unnamed enum at frameworks/native/libs/binder/ndk/include_platform/android/binder_stability.h:35:1)",
   "referenced_type" : "_ZTI19$FLAG_PRIVATE_LOCAL",
   "self_type" : "_ZTI19$FLAG_PRIVATE_LOCAL",
   "size" : 4,
   "source_file" : "frameworks/native/libs/binder/ndk/include_platform/android/binder_stability.h",
   "underlying_type" : "_ZTIj"
  },
  {
   "alignment" : 4,
   "enum_fields" :
   [
    {
     "enum_field_value" : 268435456,
     "name" : "FLAG_PRIVATE_VENDOR"
    }
   ],
   "linker_set_key" : "_ZTI20$FLAG_PRIVATE_VENDOR",
   "name" : "(unnamed enum at frameworks/native/libs/binder/ndk/include_platform/android/binder_stability.h:26:1)",
   "referenced_type" : "_ZTI20$FLAG_PRIVATE_VENDOR",
   "self_type" : "_ZTI20$FLAG_PRIVATE_VENDOR",
   "size" : 4,
   "source_file" : "frameworks/native/libs/binder/ndk/include_platform/android/binder_stability.h",
   "underlying_type" : "_ZTIj"
  },
  {
   "alignment" : 4,
   "enum_fields" :
   [
    {
     "enum_field_value" : 0,
     "name" : "STATUS_OK"
    },
    {
     "enum_field_value" : -2147483648,
     "name" : "STATUS_UNKNOWN_ERROR"
    },
    {
     "enum_field_value" : -12,
     "name" : "STATUS_NO_MEMORY"
    },
    {
     "enum_field_value" : -38,
     "name" : "STATUS_INVALID_OPERATION"
    },
    {
     "enum_field_value" : -22,
     "name" : "STATUS_BAD_VALUE"
    },
    {
     "enum_field_value" : -2147483647,
     "name" : "STATUS_BAD_TYPE"
    },
    {
     "enum_field_value" : -2,
     "name" : "STATUS_NAME_NOT_FOUND"
    },
    {
     "enum_field_value" : -1,
     "name" : "STATUS_PERMISSION_DENIED"
    },
    {
     "enum_field_value" : -19,
     "name" : "STATUS_NO_INIT"
    },
    {
     "enum_field_value" : -17,
     "name" : "STATUS_ALREADY_EXISTS"
    },
    {
     "enum_field_value" : -32,
     "name" : "STATUS_DEAD_OBJECT"
    },
    {
     "enum_field_value" : -2147483646,
     "name" : "STATUS_FAILED_TRANSACTION"
    },
    {
     "enum_field_value" : -75,
     "name" : "STATUS_BAD_INDEX"
    },
    {
     "enum_field_value" : -61,
     "name" : "STATUS_NOT_ENOUGH_DATA"
    },
    {
     "enum_field_value" : -11,
     "name" : "STATUS_WOULD_BLOCK"
    },
    {
     "enum_field_value" : -110,
     "name" : "STATUS_TIMED_OUT"
    },
    {
     "enum_field_value" : -74,
     "name" : "STATUS_UNKNOWN_TRANSACTION"
    },
    {
     "enum_field_value" : -2147483641,
     "name" : "STATUS_FDS_NOT_ALLOWED"
    },
    {
     "enum_field_value" : -2147483640,
     "name" : "STATUS_UNEXPECTED_NULL"
    }
   ],
   "linker_set_key" : "_ZTI22$STATUS_ALREADY_EXISTS",
   "name" : "(unnamed enum at frameworks/native/libs/binder/ndk/include_ndk/android/binder_status.h:60:1)",
   "referenced_type" : "_ZTI22$STATUS_ALREADY_EXISTS",
   "self_type" : "_ZTI22$STATUS_ALREADY_EXISTS",
   "size" : 4,
   "source_file" : "frameworks/native/libs/binder/ndk/include_ndk/android/binder_status.h",
   "underlying_type" : "_ZTIi"
  },
  {
   "alignment" : 4,
   "enum_fields" :
   [
    {
     "enum_field_value" : 1,
     "name" : "FIRST_CALL_TRANSACTION"
    },
    {
     "enum_field_value" : 16777215,
     "name" : "LAST_CALL_TRANSACTION"
    }
   ],
   "linker_set_key" : "_ZTI23$FIRST_CALL_TRANSACTION",
   "name" : "(unnamed enum at frameworks/native/libs/binder/ndk/include_ndk/android/binder_ibinder.h:58:1)",
   "referenced_type" : "_ZTI23$FIRST_CALL_TRANSACTION",
   "self_type" : "_ZTI23$FIRST_CALL_TRANSACTION",
   "size" : 4,
   "source_file" : "frameworks/native/libs/binder/ndk/include_ndk/android/binder_ibinder.h",
   "underlying_type" : "_ZTIj"
  },
  {
   "alignment" : 4,
   "enum_fields" :
   [
    {
     "enum_field_value" : 0,
     "name" : "ndk::STABILITY_LOCAL"
    },
    {
     "enum_field_value" : 1,
     "name" : "ndk::STABILITY_VINTF"
    }
   ],
   "linker_set_key" : "_ZTIN3ndk16$STABILITY_LOCALE",
   "name" : "ndk::(unnamed enum at frameworks/native/libs/binder/ndk/include_cpp/android/binder_parcelable_utils.h:34:1)",
   "referenced_type" : "_ZTIN3ndk16$STABILITY_LOCALE",
   "self_type" : "_ZTIN3ndk16$STABILITY_LOCALE",
   "size" : 4,
   "source_file" : "frameworks/native/libs/binder/ndk/include_cpp/android/binder_parcelable_utils.h",
   "underlying_type" : "_ZTIj"
  },
  {
   "alignment" : 4,
   "enum_fields" :
   [
    {
     "enum_field_value" : 258,
     "name" : "aidl::android::hardware::wifi::supplicant::AnqpInfoId::VENUE_NAME"
    },
    {
     "enum_field_value" : 261,
     "name" : "aidl::android::hardware::wifi::supplicant::AnqpInfoId::ROAMING_CONSORTIUM"
    },
    {
     "enum_field_value" : 262,
     "name" : "aidl::android::hardware::wifi::supplicant::AnqpInfoId::IP_ADDR_TYPE_AVAILABILITY"
    },
    {
     "enum_field_value" : 263,
     "name" : "aidl::android::hardware::wifi::supplicant::AnqpInfoId::NAI_REALM"
    },
    {
     "enum_field_value" : 264,
     "name" : "aidl::android::hardware::wifi::supplicant::AnqpInfoId::ANQP_3GPP_CELLULAR_NETWORK"
    },
    {
     "enum_field_value" : 268,
     "name" : "aidl::android::hardware::wifi::supplicant::AnqpInfoId::DOMAIN_NAME"
    }
   ],
   "linker_set_key" : "_ZTIN4aidl7android8hardware4wifi10supplicant10AnqpInfoIdE",
   "name" : "aidl::android::hardware::wifi::supplicant::AnqpInfoId",
   "referenced_type" : "_ZTIN4aidl7android8hardware4wifi10supplicant10AnqpInfoIdE",
   "self_type" : "_ZTIN4aidl7android8hardware4wifi10supplicant10AnqpInfoIdE",
   "size" : 4,
   "source_file" : "out/soong/.intermediates/hardware/interfaces/wifi/supplicant/aidl/android.hardware.wifi.supplicant-V1-ndk-source/gen/include/aidl/android/hardware/wifi/supplicant/AnqpInfoId.h",
   "underlying_type" : "_ZTIi"
  },
  {
   "alignment" : 4,
   "enum_fields" :
   [
    {
     "enum_field_value" : 0,
     "name" : "aidl::android::hardware::wifi::supplicant::DebugLevel::EXCESSIVE"
    },
    {
     "enum_field_value" : 1,
     "name" : "aidl::android::hardware::wifi::supplicant::DebugLevel::MSGDUMP"
    },
    {
     "enum_field_value" : 2,
     "name" : "aidl::android::hardware::wifi::supplicant::DebugLevel::DEBUG"
    },
    {
     "enum_field_value" : 3,
     "name" : "aidl::android::hardware::wifi::supplicant::DebugLevel::INFO"
    },
    {
     "enum_field_value" : 4,
     "name" : "aidl::android::hardware::wifi::supplicant::DebugLevel::WARNING"
    },
    {
     "enum_field_value" : 5,
     "name" : "aidl::android::hardware::wifi::supplicant::DebugLevel::ERROR"
    }
   ],
   "linker_set_key" : "_ZTIN4aidl7android8hardware4wifi10supplicant10DebugLevelE",
   "name" : "aidl::android::hardware::wifi::supplicant::DebugLevel",
   "referenced_type" : "_ZTIN4aidl7android8hardware4wifi10supplicant10DebugLevelE",
   "self_type" : "_ZTIN4aidl7android8hardware4wifi10supplicant10DebugLevelE",
   "size" : 4,
   "source_file" : "out/soong/.intermediates/hardware/interfaces/wifi/supplicant/aidl/android.hardware.wifi.supplicant-V1-ndk-source/gen/include/aidl/android/hardware/wifi/supplicant/DebugLevel.h",
   "underlying_type" : "_ZTIi"
  },
  {
   "alignment" : 4,
   "enum_fields" :
   [
    {
     "enum_field_value" : 0,
     "name" : "aidl::android::hardware::wifi::supplicant::DppNetRole::STA"
    },
    {
     "enum_field_value" : 1,
     "name" : "aidl::android::hardware::wifi::supplicant::DppNetRole::AP"
    }
   ],
   "linker_set_key" : "_ZTIN4aidl7android8hardware4wifi10supplicant10DppNetRoleE",
   "name" : "aidl::android::hardware::wifi::supplicant::DppNetRole",
   "referenced_type" : "_ZTIN4aidl7android8hardware4wifi10supplicant10DppNetRoleE",
   "self_type" : "_ZTIN4aidl7android8hardware4wifi10supplicant10DppNetRoleE",
   "size" : 4,
   "source_file" : "out/soong/.intermediates/hardware/interfaces/wifi/supplicant/aidl/android.hardware.wifi.supplicant-V1-ndk-source/gen/include/aidl/android/hardware/wifi/supplicant/DppNetRole.h",
   "underlying_type" : "_ZTIi"
  },
  {
   "alignment" : 4,
   "enum_fields" :
   [
    {
     "enum_field_value" : 0,
     "name" : "aidl::android::hardware::wifi::supplicant::LegacyMode::UNKNOWN"
    },
    {
     "enum_field_value" : 1,
     "name" : "aidl::android::hardware::wifi::supplicant::LegacyMode::A_MODE"
    },
    {
     "enum_field_value" : 2,
     "name" : "aidl::android::hardware::wifi::supplicant::LegacyMode::B_MODE"
    },
    {
     "enum_field_value" : 3,
     "name" : "aidl::android::hardware::wifi::supplicant::LegacyMode::G_MODE"
    }
   ],
   "linker_set_key" : "_ZTIN4aidl7android8hardware4wifi10supplicant10LegacyModeE",
   "name" : "aidl::android::hardware::wifi::supplicant::LegacyMode",
   "referenced_type" : "_ZTIN4aidl7android8hardware4wifi10supplicant10LegacyModeE",
   "self_type" : "_ZTIN4aidl7android8hardware4wifi10supplicant10LegacyModeE",
   "size" : 4,
   "source_file" : "out/soong/.intermediates/hardware/interfaces/wifi/supplicant/aidl/android.hardware.wifi.supplicant-V1-ndk-source/gen/include/aidl/android/hardware/wifi/supplicant/LegacyMode.h",
   "underlying_type" : "_ZTIi"
  },
  {
   "alignment" : 1,
   "enum_fields" :
   [
    {
     "enum_field_value" : 0,
     "name" : "aidl::android::hardware::wifi::supplicant::SaeH2eMode::DISABLED"
    },
    {
     "enum_field_value" : 1,
     "name" : "aidl::android::hardware::wifi::supplicant::SaeH2eMode::H2E_OPTIONAL"
    },
    {
     "enum_field_value" : 2,
     "name" : "aidl::android::hardware::wifi::supplicant::SaeH2eMode::H2E_MANDATORY"
    }
   ],
   "linker_set_key" : "_ZTIN4aidl7android8hardware4wifi10supplicant10SaeH2eModeE",
   "name" : "aidl::android::hardware::wifi::supplicant::SaeH2eMode",
   "referenced_type" : "_ZTIN4aidl7android8hardware4wifi10supplicant10SaeH2eModeE",
   "self_type" : "_ZTIN4aidl7android8hardware4wifi10supplicant10SaeH2eModeE",
   "size" : 1,
   "source_file" : "out/soong/.intermediates/hardware/interfaces/wifi/supplicant/aidl/android.hardware.wifi.supplicant-V1-ndk-source/gen/include/aidl/android/hardware/wifi/supplicant/SaeH2eMode.h",
   "underlying_type" : "_ZTIa"
  },
  {
   "alignment" : 4,
   "enum_fields" :
   [
    {
     "enum_field_value" : 1,
     "name" : "aidl::android::hardware::wifi::supplicant::AuthAlgMask::OPEN"
    },
    {
     "enum_field_value" : 2,
     "name" : "aidl::android::hardware::wifi::supplicant::AuthAlgMask::SHARED"
    },
    {
     "enum_field_value" : 4,
     "name" : "aidl::android::hardware::wifi::supplicant::AuthAlgMask::LEAP"
    },
    {
     "enum_field_value" : 16,
     "name" : "aidl::android::hardware::wifi::supplicant::AuthAlgMask::SAE"
    }
   ],
   "linker_set_key" : "_ZTIN4aidl7android8hardware4wifi10supplicant11AuthAlgMaskE",
   "name" : "aidl::android::hardware::wifi::supplicant::AuthAlgMask",
   "referenced_type" : "_ZTIN4aidl7android8hardware4wifi10supplicant11AuthAlgMaskE",
   "self_type" : "_ZTIN4aidl7android8hardware4wifi10supplicant11AuthAlgMaskE",
   "size" : 4,
   "source_file" : "out/soong/.intermediates/hardware/interfaces/wifi/supplicant/aidl/android.hardware.wifi.supplicant-V1-ndk-source/gen/include/aidl/android/hardware/wifi/supplicant/AuthAlgMask.h",
   "underlying_type" : "_ZTIi"
  },
  {
   "alignment" : 4,
   "enum_fields" :
   [
    {
     "enum_field_value" : 10,
     "name" : "aidl::android::hardware::wifi::supplicant::ISupplicant::EXT_RADIO_WORK_TIMEOUT_IN_SECS"
    }
   ],
   "linker_set_key" : "_ZTIN4aidl7android8hardware4wifi10supplicant11ISupplicant31$EXT_RADIO_WORK_TIMEOUT_IN_SECSE",
   "name" : "aidl::android::hardware::wifi::supplicant::ISupplicant::(unnamed enum at out/soong/.intermediates/hardware/interfaces/wifi/supplicant/aidl/android.hardware.wifi.supplicant-V1-ndk-source/gen/include/aidl/android/hardware/wifi/supplicant/ISupplicant.h:30:3)",
   "referenced_type" : "_ZTIN4aidl7android8hardware4wifi10supplicant11ISupplicant31$EXT_RADIO_WORK_TIMEOUT_IN_SECSE",
   "self_type" : "_ZTIN4aidl7android8hardware4wifi10supplicant11ISupplicant31$EXT_RADIO_WORK_TIMEOUT_IN_SECSE",
   "size" : 4,
   "source_file" : "out/soong/.intermediates/hardware/interfaces/wifi/supplicant/aidl/android.hardware.wifi.supplicant-V1-ndk-source/gen/include/aidl/android/hardware/wifi/supplicant/ISupplicant.h",
   "underlying_type" : "_ZTIi"
  },
  {
   "alignment" : 4,
   "enum_fields" :
   [
    {
     "enum_field_value" : 1,
     "name" : "aidl::android::hardware::wifi::supplicant::KeyMgmtMask::WPA_EAP"
    },
    {
     "enum_field_value" : 2,
     "name" : "aidl::android::hardware::wifi::supplicant::KeyMgmtMask::WPA_PSK"
    },
    {
     "enum_field_value" : 4,
     "name" : "aidl::android::hardware::wifi::supplicant::KeyMgmtMask::NONE"
    },
    {
     "enum_field_value" : 8,
     "name" : "aidl::android::hardware::wifi::supplicant::KeyMgmtMask::IEEE8021X"
    },
    {
     "enum_field_value" : 32,
     "name" : "aidl::android::hardware::wifi::supplicant::KeyMgmtMask::FT_EAP"
    },
    {
     "enum_field_value" : 64,
     "name" : "aidl::android::hardware::wifi::supplicant::KeyMgmtMask::FT_PSK"
    },
    {
     "enum_field_value" : 32768,
     "name" : "aidl::android::hardware::wifi::supplicant::KeyMgmtMask::OSEN"
    },
    {
     "enum_field_value" : 128,
     "name" : "aidl::android::hardware::wifi::supplicant::KeyMgmtMask::WPA_EAP_SHA256"
    },
    {
     "enum_field_value" : 256,
     "name" : "aidl::android::hardware::wifi::supplicant::KeyMgmtMask::WPA_PSK_SHA256"
    },
    {
     "enum_field_value" : 1024,
     "name" : "aidl::android::hardware::wifi::supplicant::KeyMgmtMask::SAE"
    },
    {
     "enum_field_value" : 131072,
     "name" : "aidl::android::hardware::wifi::supplicant::KeyMgmtMask::SUITE_B_192"
    },
    {
     "enum_field_value" : 4194304,
     "name" : "aidl::android::hardware::wifi::supplicant::KeyMgmtMask::OWE"
    },
    {
     "enum_field_value" : 8388608,
     "name" : "aidl::android::hardware::wifi::supplicant::KeyMgmtMask::DPP"
    },
    {
     "enum_field_value" : 4096,
     "name" : "aidl::android::hardware::wifi::supplicant::KeyMgmtMask::WAPI_PSK"
    },
    {
     "enum_field_value" : 8192,
     "name" : "aidl::android::hardware::wifi::supplicant::KeyMgmtMask::WAPI_CERT"
    },
    {
     "enum_field_value" : 262144,
     "name" : "aidl::android::hardware::wifi::supplicant::KeyMgmtMask::FILS_SHA256"
    },
    {
     "enum_field_value" : 524288,
     "name" : "aidl::android::hardware::wifi::supplicant::KeyMgmtMask::FILS_SHA384"
    }
   ],
   "linker_set_key" : "_ZTIN4aidl7android8hardware4wifi10supplicant11KeyMgmtMaskE",
   "name" : "aidl::android::hardware::wifi::supplicant::KeyMgmtMask",
   "referenced_type" : "_ZTIN4aidl7android8hardware4wifi10supplicant11KeyMgmtMaskE",
   "self_type" : "_ZTIN4aidl7android8hardware4wifi10supplicant11KeyMgmtMaskE",
   "size" : 4,
   "source_file" : "out/soong/.intermediates/hardware/interfaces/wifi/supplicant/aidl/android.hardware.wifi.supplicant-V1-ndk-source/gen/include/aidl/android/hardware/wifi/supplicant/KeyMgmtMask.h",
   "underlying_type" : "_ZTIi"
  },
  {
   "alignment" : 4,
   "enum_fields" :
   [
    {
     "enum_field_value" : 0,
     "name" : "aidl::android::hardware::wifi::supplicant::DppEventType::CONFIGURATION_SENT"
    },
    {
     "enum_field_value" : 1,
     "name" : "aidl::android::hardware::wifi::supplicant::DppEventType::CONFIGURATION_APPLIED"
    }
   ],
   "linker_set_key" : "_ZTIN4aidl7android8hardware4wifi10supplicant12DppEventTypeE",
   "name" : "aidl::android::hardware::wifi::supplicant::DppEventType",
   "referenced_type" : "_ZTIN4aidl7android8hardware4wifi10supplicant12DppEventTypeE",
   "self_type" : "_ZTIN4aidl7android8hardware4wifi10supplicant12DppEventTypeE",
   "size" : 4,
   "source_file" : "out/soong/.intermediates/hardware/interfaces/wifi/supplicant/aidl/android.hardware.wifi.supplicant-V1-ndk-source/gen/include/aidl/android/hardware/wifi/supplicant/DppEventType.h",
   "underlying_type" : "_ZTIi"
  },
  {
   "alignment" : 1,
   "enum_fields" :
   [
    {
     "enum_field_value" : 0,
     "name" : "aidl::android::hardware::wifi::supplicant::MiracastMode::DISABLED"
    },
    {
     "enum_field_value" : 1,
     "name" : "aidl::android::hardware::wifi::supplicant::MiracastMode::SOURCE"
    },
    {
     "enum_field_value" : 2,
     "name" : "aidl::android::hardware::wifi::supplicant::MiracastMode::SINK"
    }
   ],
   "linker_set_key" : "_ZTIN4aidl7android8hardware4wifi10supplicant12MiracastModeE",
   "name" : "aidl::android::hardware::wifi::supplicant::MiracastMode",
   "referenced_type" : "_ZTIN4aidl7android8hardware4wifi10supplicant12MiracastModeE",
   "self_type" : "_ZTIN4aidl7android8hardware4wifi10supplicant12MiracastModeE",
   "size" : 1,
   "source_file" : "out/soong/.intermediates/hardware/interfaces/wifi/supplicant/aidl/android.hardware.wifi.supplicant-V1-ndk-source/gen/include/aidl/android/hardware/wifi/supplicant/MiracastMode.h",
   "underlying_type" : "_ZTIa"
  },
  {
   "alignment" : 1,
   "enum_fields" :
   [
    {
     "enum_field_value" : 0,
     "name" : "aidl::android::hardware::wifi::supplicant::RxFilterType::V4_MULTICAST"
    },
    {
     "enum_field_value" : 1,
     "name" : "aidl::android::hardware::wifi::supplicant::RxFilterType::V6_MULTICAST"
    }
   ],
   "linker_set_key" : "_ZTIN4aidl7android8hardware4wifi10supplicant12RxFilterTypeE",
   "name" : "aidl::android::hardware::wifi::supplicant::RxFilterType",
   "referenced_type" : "_ZTIN4aidl7android8hardware4wifi10supplicant12RxFilterTypeE",
   "self_type" : "_ZTIN4aidl7android8hardware4wifi10supplicant12RxFilterTypeE",
   "size" : 1,
   "source_file" : "out/soong/.intermediates/hardware/interfaces/wifi/supplicant/aidl/android.hardware.wifi.supplicant-V1-ndk-source/gen/include/aidl/android/hardware/wifi/supplicant/RxFilterType.h",
   "underlying_type" : "_ZTIa"
  },
  {
   "alignment" : 4,
   "enum_fields" :
   [
    {
     "enum_field_value" : 0,
     "name" : "aidl::android::hardware::wifi::supplicant::P2pStatusCode::SUCCESS"
    },
    {
     "enum_field_value" : 1,
     "name" : "aidl::android::hardware::wifi::supplicant::P2pStatusCode::FAIL_INFO_CURRENTLY_UNAVAILABLE"
    },
    {
     "enum_field_value" : 2,
     "name" : "aidl::android::hardware::wifi::supplicant::P2pStatusCode::FAIL_INCOMPATIBLE_PARAMS"
    },
    {
     "enum_field_value" : 3,
     "name" : "aidl::android::hardware::wifi::supplicant::P2pStatusCode::FAIL_LIMIT_REACHED"
    },
    {
     "enum_field_value" : 4,
     "name" : "aidl::android::hardware::wifi::supplicant::P2pStatusCode::FAIL_INVALID_PARAMS"
    },
    {
     "enum_field_value" : 5,
     "name" : "aidl::android::hardware::wifi::supplicant::P2pStatusCode::FAIL_UNABLE_TO_ACCOMMODATE"
    },
    {
     "enum_field_value" : 6,
     "name" : "aidl::android::hardware::wifi::supplicant::P2pStatusCode::FAIL_PREV_PROTOCOL_ERROR"
    },
    {
     "enum_field_value" : 7,
     "name" : "aidl::android::hardware::wifi::supplicant::P2pStatusCode::FAIL_NO_COMMON_CHANNELS"
    },
    {
     "enum_field_value" : 8,
     "name" : "aidl::android::hardware::wifi::supplicant::P2pStatusCode::FAIL_UNKNOWN_GROUP"
    },
    {
     "enum_field_value" : 9,
     "name" : "aidl::android::hardware::wifi::supplicant::P2pStatusCode::FAIL_BOTH_GO_INTENT_15"
    },
    {
     "enum_field_value" : 10,
     "name" : "aidl::android::hardware::wifi::supplicant::P2pStatusCode::FAIL_INCOMPATIBLE_PROV_METHOD"
    },
    {
     "enum_field_value" : 11,
     "name" : "aidl::android::hardware::wifi::supplicant::P2pStatusCode::FAIL_REJECTED_BY_USER"
    },
    {
     "enum_field_value" : 12,
     "name" : "aidl::android::hardware::wifi::supplicant::P2pStatusCode::SUCCESS_DEFERRED"
    }
   ],
   "linker_set_key" : "_ZTIN4aidl7android8hardware4wifi10supplicant13P2pStatusCodeE",
   "name" : "aidl::android::hardware::wifi::supplicant::P2pStatusCode",
   "referenced_type" : "_ZTIN4aidl7android8hardware4wifi10supplicant13P2pStatusCodeE",
   "self_type" : "_ZTIN4aidl7android8hardware4wifi10supplicant13P2pStatusCodeE",
   "size" : 4,
   "source_file" : "out/soong/.intermediates/hardware/interfaces/wifi/supplicant/aidl/android.hardware.wifi.supplicant-V1-ndk-source/gen/include/aidl/android/hardware/wifi/supplicant/P2pStatusCode.h",
   "underlying_type" : "_ZTIi"
  },
  {
   "alignment" : 4,
   "enum_fields" :
   [
    {
     "enum_field_value" : 0,
     "name" : "aidl::android::hardware::wifi::supplicant::DppFailureCode::INVALID_URI"
    },
    {
     "enum_field_value" : 1,
     "name" : "aidl::android::hardware::wifi::supplicant::DppFailureCode::AUTHENTICATION"
    },
    {
     "enum_field_value" : 2,
     "name" : "aidl::android::hardware::wifi::supplicant::DppFailureCode::NOT_COMPATIBLE"
    },
    {
     "enum_field_value" : 3,
     "name" : "aidl::android::hardware::wifi::supplicant::DppFailureCode::CONFIGURATION"
    },
    {
     "enum_field_value" : 4,
     "name" : "aidl::android::hardware::wifi::supplicant::DppFailureCode::BUSY"
    },
    {
     "enum_field_value" : 5,
     "name" : "aidl::android::hardware::wifi::supplicant::DppFailureCode::TIMEOUT"
    },
    {
     "enum_field_value" : 6,
     "name" : "aidl::android::hardware::wifi::supplicant::DppFailureCode::FAILURE"
    },
    {
     "enum_field_value" : 7,
     "name" : "aidl::android::hardware::wifi::supplicant::DppFailureCode::NOT_SUPPORTED"
    },
    {
     "enum_field_value" : 8,
     "name" : "aidl::android::hardware::wifi::supplicant::DppFailureCode::CONFIGURATION_REJECTED"
    },
    {
     "enum_field_value" : 9,
     "name" : "aidl::android::hardware::wifi::supplicant::DppFailureCode::CANNOT_FIND_NETWORK"
    },
    {
     "enum_field_value" : 10,
     "name" : "aidl::android::hardware::wifi::supplicant::DppFailureCode::ENROLLEE_AUTHENTICATION"
    },
    {
     "enum_field_value" : 11,
     "name" : "aidl::android::hardware::wifi::supplicant::DppFailureCode::URI_GENERATION"
    }
   ],
   "linker_set_key" : "_ZTIN4aidl7android8hardware4wifi10supplicant14DppFailureCodeE",
   "name" : "aidl::android::hardware::wifi::supplicant::DppFailureCode",
   "referenced_type" : "_ZTIN4aidl7android8hardware4wifi10supplicant14DppFailureCodeE",
   "self_type" : "_ZTIN4aidl7android8hardware4wifi10supplicant14DppFailureCodeE",
   "size" : 4,
   "source_file" : "out/soong/.intermediates/hardware/interfaces/wifi/supplicant/aidl/android.hardware.wifi.supplicant-V1-ndk-source/gen/include/aidl/android/hardware/wifi/supplicant/DppFailureCode.h",
   "underlying_type" : "_ZTIi"
  },
  {
   "alignment" : 4,
   "enum_fields" :
   [
    {
     "enum_field_value" : 0,
     "name" : "aidl::android::hardware::wifi::supplicant::WifiTechnology::UNKNOWN"
    },
    {
     "enum_field_value" : 1,
     "name" : "aidl::android::hardware::wifi::supplicant::WifiTechnology::LEGACY"
    },
    {
     "enum_field_value" : 2,
     "name" : "aidl::android::hardware::wifi::supplicant::WifiTechnology::HT"
    },
    {
     "enum_field_value" : 3,
     "name" : "aidl::android::hardware::wifi::supplicant::WifiTechnology::VHT"
    },
    {
     "enum_field_value" : 4,
     "name" : "aidl::android::hardware::wifi::supplicant::WifiTechnology::HE"
    },
    {
     "enum_field_value" : 5,
     "name" : "aidl::android::hardware::wifi::supplicant::WifiTechnology::EHT"
    }
   ],
   "linker_set_key" : "_ZTIN4aidl7android8hardware4wifi10supplicant14WifiTechnologyE",
   "name" : "aidl::android::hardware::wifi::supplicant::WifiTechnology",
   "referenced_type" : "_ZTIN4aidl7android8hardware4wifi10supplicant14WifiTechnologyE",
   "self_type" : "_ZTIN4aidl7android8hardware4wifi10supplicant14WifiTechnologyE",
   "size" : 4,
   "source_file" : "out/soong/.intermediates/hardware/interfaces/wifi/supplicant/aidl/android.hardware.wifi.supplicant-V1-ndk-source/gen/include/aidl/android/hardware/wifi/supplicant/WifiTechnology.h",
   "underlying_type" : "_ZTIi"
  },
  {
   "alignment" : 4,
   "enum_fields" :
   [
    {
     "enum_field_value" : 0,
     "name" : "aidl::android::hardware::wifi::supplicant::WpsConfigError::NO_ERROR"
    },
    {
     "enum_field_value" : 1,
     "name" : "aidl::android::hardware::wifi::supplicant::WpsConfigError::OOB_IFACE_READ_ERROR"
    },
    {
     "enum_field_value" : 2,
     "name" : "aidl::android::hardware::wifi::supplicant::WpsConfigError::DECRYPTION_CRC_FAILURE"
    },
    {
     "enum_field_value" : 3,
     "name" : "aidl::android::hardware::wifi::supplicant::WpsConfigError::CHAN_24_NOT_SUPPORTED"
    },
    {
     "enum_field_value" : 4,
     "name" : "aidl::android::hardware::wifi::supplicant::WpsConfigError::CHAN_50_NOT_SUPPORTED"
    },
    {
     "enum_field_value" : 5,
     "name" : "aidl::android::hardware::wifi::supplicant::WpsConfigError::SIGNAL_TOO_WEAK"
    },
    {
     "enum_field_value" : 6,
     "name" : "aidl::android::hardware::wifi::supplicant::WpsConfigError::NETWORK_AUTH_FAILURE"
    },
    {
     "enum_field_value" : 7,
     "name" : "aidl::android::hardware::wifi::supplicant::WpsConfigError::NETWORK_ASSOC_FAILURE"
    },
    {
     "enum_field_value" : 8,
     "name" : "aidl::android::hardware::wifi::supplicant::WpsConfigError::NO_DHCP_RESPONSE"
    },
    {
     "enum_field_value" : 9,
     "name" : "aidl::android::hardware::wifi::supplicant::WpsConfigError::FAILED_DHCP_CONFIG"
    },
    {
     "enum_field_value" : 10,
     "name" : "aidl::android::hardware::wifi::supplicant::WpsConfigError::IP_ADDR_CONFLICT"
    },
    {
     "enum_field_value" : 11,
     "name" : "aidl::android::hardware::wifi::supplicant::WpsConfigError::NO_CONN_TO_REGISTRAR"
    },
    {
     "enum_field_value" : 12,
     "name" : "aidl::android::hardware::wifi::supplicant::WpsConfigError::MULTIPLE_PBC_DETECTED"
    },
    {
     "enum_field_value" : 13,
     "name" : "aidl::android::hardware::wifi::supplicant::WpsConfigError::ROGUE_SUSPECTED"
    },
    {
     "enum_field_value" : 14,
     "name" : "aidl::android::hardware::wifi::supplicant::WpsConfigError::DEVICE_BUSY"
    },
    {
     "enum_field_value" : 15,
     "name" : "aidl::android::hardware::wifi::supplicant::WpsConfigError::SETUP_LOCKED"
    },
    {
     "enum_field_value" : 16,
     "name" : "aidl::android::hardware::wifi::supplicant::WpsConfigError::MSG_TIMEOUT"
    },
    {
     "enum_field_value" : 17,
     "name" : "aidl::android::hardware::wifi::supplicant::WpsConfigError::REG_SESS_TIMEOUT"
    },
    {
     "enum_field_value" : 18,
     "name" : "aidl::android::hardware::wifi::supplicant::WpsConfigError::DEV_PASSWORD_AUTH_FAILURE"
    },
    {
     "enum_field_value" : 19,
     "name" : "aidl::android::hardware::wifi::supplicant::WpsConfigError::CHAN_60G_NOT_SUPPORTED"
    },
    {
     "enum_field_value" : 20,
     "name" : "aidl::android::hardware::wifi::supplicant::WpsConfigError::PUBLIC_KEY_HASH_MISMATCH"
    }
   ],
   "linker_set_key" : "_ZTIN4aidl7android8hardware4wifi10supplicant14WpsConfigErrorE",
   "name" : "aidl::android::hardware::wifi::supplicant::WpsConfigError",
   "referenced_type" : "_ZTIN4aidl7android8hardware4wifi10supplicant14WpsConfigErrorE",
   "self_type" : "_ZTIN4aidl7android8hardware4wifi10supplicant14WpsConfigErrorE",
   "size" : 4,
   "source_file" : "out/soong/.intermediates/hardware/interfaces/wifi/supplicant/aidl/android.hardware.wifi.supplicant-V1-ndk-source/gen/include/aidl/android/hardware/wifi/supplicant/WpsConfigError.h",
   "underlying_type" : "_ZTIi"
  },
  {
   "alignment" : 1,
   "enum_fields" :
   [
    {
     "enum_field_value" : 0,
     "name" : "aidl::android::hardware::wifi::supplicant::BssTmStatusCode::ACCEPT"
    },
    {
     "enum_field_value" : 1,
     "name" : "aidl::android::hardware::wifi::supplicant::BssTmStatusCode::REJECT_UNSPECIFIED"
    },
    {
     "enum_field_value" : 2,
     "name" : "aidl::android::hardware::wifi::supplicant::BssTmStatusCode::REJECT_INSUFFICIENT_BEACON"
    },
    {
     "enum_field_value" : 3,
     "name" : "aidl::android::hardware::wifi::supplicant::BssTmStatusCode::REJECT_INSUFFICIENT_CAPABITY"
    },
    {
     "enum_field_value" : 4,
     "name" : "aidl::android::hardware::wifi::supplicant::BssTmStatusCode::REJECT_BSS_TERMINATION_UNDESIRED"
    },
    {
     "enum_field_value" : 5,
     "name" : "aidl::android::hardware::wifi::supplicant::BssTmStatusCode::REJECT_BSS_TERMINATION_DELAY_REQUEST"
    },
    {
     "enum_field_value" : 6,
     "name" : "aidl::android::hardware::wifi::supplicant::BssTmStatusCode::REJECT_STA_CANDIDATE_LIST_PROVIDED"
    },
    {
     "enum_field_value" : 7,
     "name" : "aidl::android::hardware::wifi::supplicant::BssTmStatusCode::REJECT_NO_SUITABLE_CANDIDATES"
    },
    {
     "enum_field_value" : 8,
     "name" : "aidl::android::hardware::wifi::supplicant::BssTmStatusCode::REJECT_LEAVING_ESS"
    }
   ],
   "linker_set_key" : "_ZTIN4aidl7android8hardware4wifi10supplicant15BssTmStatusCodeE",
   "name" : "aidl::android::hardware::wifi::supplicant::BssTmStatusCode",
   "referenced_type" : "_ZTIN4aidl7android8hardware4wifi10supplicant15BssTmStatusCodeE",
   "self_type" : "_ZTIN4aidl7android8hardware4wifi10supplicant15BssTmStatusCodeE",
   "size" : 1,
   "source_file" : "out/soong/.intermediates/hardware/interfaces/wifi/supplicant/aidl/android.hardware.wifi.supplicant-V1-ndk-source/gen/include/aidl/android/hardware/wifi/supplicant/BssTmStatusCode.h",
   "underlying_type" : "_ZTIa"
  },
  {
   "alignment" : 4,
   "enum_fields" :
   [
    {
     "enum_field_value" : 0,
     "name" : "aidl::android::hardware::wifi::supplicant::DppProgressCode::AUTHENTICATION_SUCCESS"
    },
    {
     "enum_field_value" : 1,
     "name" : "aidl::android::hardware::wifi::supplicant::DppProgressCode::RESPONSE_PENDING"
    },
    {
     "enum_field_value" : 2,
     "name" : "aidl::android::hardware::wifi::supplicant::DppProgressCode::CONFIGURATION_SENT_WAITING_RESPONSE"
    },
    {
     "enum_field_value" : 3,
     "name" : "aidl::android::hardware::wifi::supplicant::DppProgressCode::CONFIGURATION_ACCEPTED"
    }
   ],
   "linker_set_key" : "_ZTIN4aidl7android8hardware4wifi10supplicant15DppProgressCodeE",
   "name" : "aidl::android::hardware::wifi::supplicant::DppProgressCode",
   "referenced_type" : "_ZTIN4aidl7android8hardware4wifi10supplicant15DppProgressCodeE",
   "self_type" : "_ZTIN4aidl7android8hardware4wifi10supplicant15DppProgressCodeE",
   "size" : 4,
   "source_file" : "out/soong/.intermediates/hardware/interfaces/wifi/supplicant/aidl/android.hardware.wifi.supplicant-V1-ndk-source/gen/include/aidl/android/hardware/wifi/supplicant/DppProgressCode.h",
   "underlying_type" : "_ZTIi"
  },
  {
   "alignment" : 4,
   "enum_fields" :
   [
    {
     "enum_field_value" : 0,
     "name" : "aidl::android::hardware::wifi::supplicant::EapPhase2Method::NONE"
    },
    {
     "enum_field_value" : 1,
     "name" : "aidl::android::hardware::wifi::supplicant::EapPhase2Method::PAP"
    },
    {
     "enum_field_value" : 2,
     "name" : "aidl::android::hardware::wifi::supplicant::EapPhase2Method::MSPAP"
    },
    {
     "enum_field_value" : 3,
     "name" : "aidl::android::hardware::wifi::supplicant::EapPhase2Method::MSPAPV2"
    },
    {
     "enum_field_value" : 4,
     "name" : "aidl::android::hardware::wifi::supplicant::EapPhase2Method::GTC"
    },
    {
     "enum_field_value" : 5,
     "name" : "aidl::android::hardware::wifi::supplicant::EapPhase2Method::SIM"
    },
    {
     "enum_field_value" : 6,
     "name" : "aidl::android::hardware::wifi::supplicant::EapPhase2Method::AKA"
    },
    {
     "enum_field_value" : 7,
     "name" : "aidl::android::hardware::wifi::supplicant::EapPhase2Method::AKA_PRIME"
    }
   ],
   "linker_set_key" : "_ZTIN4aidl7android8hardware4wifi10supplicant15EapPhase2MethodE",
   "name" : "aidl::android::hardware::wifi::supplicant::EapPhase2Method",
   "referenced_type" : "_ZTIN4aidl7android8hardware4wifi10supplicant15EapPhase2MethodE",
   "self_type" : "_ZTIN4aidl7android8hardware4wifi10supplicant15EapPhase2MethodE",
   "size" : 4,
   "source_file" : "out/soong/.intermediates/hardware/interfaces/wifi/supplicant/aidl/android.hardware.wifi.supplicant-V1-ndk-source/gen/include/aidl/android/hardware/wifi/supplicant/EapPhase2Method.h",
   "underlying_type" : "_ZTIi"
  },
  {
   "alignment" : 4,
   "enum_fields" :
   [
    {
     "enum_field_value" : 2,
     "name" : "aidl::android::hardware::wifi::supplicant::GroupCipherMask::WEP40"
    },
    {
     "enum_field_value" : 4,
     "name" : "aidl::android::hardware::wifi::supplicant::GroupCipherMask::WEP104"
    },
    {
     "enum_field_value" : 8,
     "name" : "aidl::android::hardware::wifi::supplicant::GroupCipherMask::TKIP"
    },
    {
     "enum_field_value" : 16,
     "name" : "aidl::android::hardware::wifi::supplicant::GroupCipherMask::CCMP"
    },
    {
     "enum_field_value" : 16384,
     "name" : "aidl::android::hardware::wifi::supplicant::GroupCipherMask::GTK_NOT_USED"
    },
    {
     "enum_field_value" : 256,
     "name" : "aidl::android::hardware::wifi::supplicant::GroupCipherMask::GCMP_256"
    },
    {
     "enum_field_value" : 128,
     "name" : "aidl::android::hardware::wifi::supplicant::GroupCipherMask::SMS4"
    },
    {
     "enum_field_value" : 64,
     "name" : "aidl::android::hardware::wifi::supplicant::GroupCipherMask::GCMP_128"
    }
   ],
   "linker_set_key" : "_ZTIN4aidl7android8hardware4wifi10supplicant15GroupCipherMaskE",
   "name" : "aidl::android::hardware::wifi::supplicant::GroupCipherMask",
   "referenced_type" : "_ZTIN4aidl7android8hardware4wifi10supplicant15GroupCipherMaskE",
   "self_type" : "_ZTIN4aidl7android8hardware4wifi10supplicant15GroupCipherMaskE",
   "size" : 4,
   "source_file" : "out/soong/.intermediates/hardware/interfaces/wifi/supplicant/aidl/android.hardware.wifi.supplicant-V1-ndk-source/gen/include/aidl/android/hardware/wifi/supplicant/GroupCipherMask.h",
   "underlying_type" : "_ZTIi"
  },
  {
   "alignment" : 4,
   "enum_fields" :
   [
    {
     "enum_field_value" : 3,
     "name" : "aidl::android::hardware::wifi::supplicant::Hs20AnqpSubtypes::OPERATOR_FRIENDLY_NAME"
    },
    {
     "enum_field_value" : 4,
     "name" : "aidl::android::hardware::wifi::supplicant::Hs20AnqpSubtypes::WAN_METRICS"
    },
    {
     "enum_field_value" : 5,
     "name" : "aidl::android::hardware::wifi::supplicant::Hs20AnqpSubtypes::CONNECTION_CAPABILITY"
    },
    {
     "enum_field_value" : 8,
     "name" : "aidl::android::hardware::wifi::supplicant::Hs20AnqpSubtypes::OSU_PROVIDERS_LIST"
    }
   ],
   "linker_set_key" : "_ZTIN4aidl7android8hardware4wifi10supplicant16Hs20AnqpSubtypesE",
   "name" : "aidl::android::hardware::wifi::supplicant::Hs20AnqpSubtypes",
   "referenced_type" : "_ZTIN4aidl7android8hardware4wifi10supplicant16Hs20AnqpSubtypesE",
   "self_type" : "_ZTIN4aidl7android8hardware4wifi10supplicant16Hs20AnqpSubtypesE",
   "size" : 4,
   "source_file" : "out/soong/.intermediates/hardware/interfaces/wifi/supplicant/aidl/android.hardware.wifi.supplicant-V1-ndk-source/gen/include/aidl/android/hardware/wifi/supplicant/Hs20AnqpSubtypes.h",
   "underlying_type" : "_ZTIi"
  },
  {
   "alignment" : 4,
   "enum_fields" :
   [
    {
     "enum_field_value" : 1,
     "name" : "aidl::android::hardware::wifi::supplicant::P2pFrameTypeMask::P2P_FRAME_PROBE_REQ_P2P"
    },
    {
     "enum_field_value" : 2,
     "name" : "aidl::android::hardware::wifi::supplicant::P2pFrameTypeMask::P2P_FRAME_PROBE_RESP_P2P"
    },
    {
     "enum_field_value" : 4,
     "name" : "aidl::android::hardware::wifi::supplicant::P2pFrameTypeMask::P2P_FRAME_PROBE_RESP_P2P_GO"
    },
    {
     "enum_field_value" : 8,
     "name" : "aidl::android::hardware::wifi::supplicant::P2pFrameTypeMask::P2P_FRAME_BEACON_P2P_GO"
    },
    {
     "enum_field_value" : 16,
     "name" : "aidl::android::hardware::wifi::supplicant::P2pFrameTypeMask::P2P_FRAME_P2P_PD_REQ"
    },
    {
     "enum_field_value" : 32,
     "name" : "aidl::android::hardware::wifi::supplicant::P2pFrameTypeMask::P2P_FRAME_P2P_PD_RESP"
    },
    {
     "enum_field_value" : 64,
     "name" : "aidl::android::hardware::wifi::supplicant::P2pFrameTypeMask::P2P_FRAME_P2P_GO_NEG_REQ"
    },
    {
     "enum_field_value" : 128,
     "name" : "aidl::android::hardware::wifi::supplicant::P2pFrameTypeMask::P2P_FRAME_P2P_GO_NEG_RESP"
    },
    {
     "enum_field_value" : 256,
     "name" : "aidl::android::hardware::wifi::supplicant::P2pFrameTypeMask::P2P_FRAME_P2P_GO_NEG_CONF"
    },
    {
     "enum_field_value" : 512,
     "name" : "aidl::android::hardware::wifi::supplicant::P2pFrameTypeMask::P2P_FRAME_P2P_INV_REQ"
    },
    {
     "enum_field_value" : 1024,
     "name" : "aidl::android::hardware::wifi::supplicant::P2pFrameTypeMask::P2P_FRAME_P2P_INV_RESP"
    },
    {
     "enum_field_value" : 2048,
     "name" : "aidl::android::hardware::wifi::supplicant::P2pFrameTypeMask::P2P_FRAME_P2P_ASSOC_REQ"
    },
    {
     "enum_field_value" : 4096,
     "name" : "aidl::android::hardware::wifi::supplicant::P2pFrameTypeMask::P2P_FRAME_P2P_ASSOC_RESP"
    }
   ],
   "linker_set_key" : "_ZTIN4aidl7android8hardware4wifi10supplicant16P2pFrameTypeMaskE",
   "name" : "aidl::android::hardware::wifi::supplicant::P2pFrameTypeMask",
   "referenced_type" : "_ZTIN4aidl7android8hardware4wifi10supplicant16P2pFrameTypeMaskE",
   "self_type" : "_ZTIN4aidl7android8hardware4wifi10supplicant16P2pFrameTypeMaskE",
   "size" : 4,
   "source_file" : "out/soong/.intermediates/hardware/interfaces/wifi/supplicant/aidl/android.hardware.wifi.supplicant-V1-ndk-source/gen/include/aidl/android/hardware/wifi/supplicant/P2pFrameTypeMask.h",
   "underlying_type" : "_ZTIi"
  },
  {
   "alignment" : 4,
   "enum_fields" :
   [
    {
     "enum_field_value" : 1,
     "name" : "aidl::android::hardware::wifi::supplicant::WpsConfigMethods::USBA"
    },
    {
     "enum_field_value" : 2,
     "name" : "aidl::android::hardware::wifi::supplicant::WpsConfigMethods::ETHERNET"
    },
    {
     "enum_field_value" : 4,
     "name" : "aidl::android::hardware::wifi::supplicant::WpsConfigMethods::LABEL"
    },
    {
     "enum_field_value" : 8,
     "name" : "aidl::android::hardware::wifi::supplicant::WpsConfigMethods::DISPLAY"
    },
    {
     "enum_field_value" : 16,
     "name" : "aidl::android::hardware::wifi::supplicant::WpsConfigMethods::EXT_NFC_TOKEN"
    },
    {
     "enum_field_value" : 32,
     "name" : "aidl::android::hardware::wifi::supplicant::WpsConfigMethods::INT_NFC_TOKEN"
    },
    {
     "enum_field_value" : 64,
     "name" : "aidl::android::hardware::wifi::supplicant::WpsConfigMethods::NFC_INTERFACE"
    },
    {
     "enum_field_value" : 128,
     "name" : "aidl::android::hardware::wifi::supplicant::WpsConfigMethods::PUSHBUTTON"
    },
    {
     "enum_field_value" : 256,
     "name" : "aidl::android::hardware::wifi::supplicant::WpsConfigMethods::KEYPAD"
    },
    {
     "enum_field_value" : 640,
     "name" : "aidl::android::hardware::wifi::supplicant::WpsConfigMethods::VIRT_PUSHBUTTON"
    },
    {
     "enum_field_value" : 1152,
     "name" : "aidl::android::hardware::wifi::supplicant::WpsConfigMethods::PHY_PUSHBUTTON"
    },
    {
     "enum_field_value" : 4096,
     "name" : "aidl::android::hardware::wifi::supplicant::WpsConfigMethods::P2PS"
    },
    {
     "enum_field_value" : 8200,
     "name" : "aidl::android::hardware::wifi::supplicant::WpsConfigMethods::VIRT_DISPLAY"
    },
    {
     "enum_field_value" : 16392,
     "name" : "aidl::android::hardware::wifi::supplicant::WpsConfigMethods::PHY_DISPLAY"
    }
   ],
   "linker_set_key" : "_ZTIN4aidl7android8hardware4wifi10supplicant16WpsConfigMethodsE",
   "name" : "aidl::android::hardware::wifi::supplicant::WpsConfigMethods",
   "referenced_type" : "_ZTIN4aidl7android8hardware4wifi10supplicant16WpsConfigMethodsE",
   "self_type" : "_ZTIN4aidl7android8hardware4wifi10supplicant16WpsConfigMethodsE",
   "size" : 4,
   "source_file" : "out/soong/.intermediates/hardware/interfaces/wifi/supplicant/aidl/android.hardware.wifi.supplicant-V1-ndk-source/gen/include/aidl/android/hardware/wifi/supplicant/WpsConfigMethods.h",
   "underlying_type" : "_ZTIi"
  },
  {
   "alignment" : 4,
   "enum_fields" :
   [
    {
     "enum_field_value" : 0,
     "name" : "aidl::android::hardware::wifi::supplicant::WpsDevPasswordId::DEFAULT"
    },
    {
     "enum_field_value" : 1,
     "name" : "aidl::android::hardware::wifi::supplicant::WpsDevPasswordId::USER_SPECIFIED"
    },
    {
     "enum_field_value" : 2,
     "name" : "aidl::android::hardware::wifi::supplicant::WpsDevPasswordId::MACHINE_SPECIFIED"
    },
    {
     "enum_field_value" : 3,
     "name" : "aidl::android::hardware::wifi::supplicant::WpsDevPasswordId::REKEY"
    },
    {
     "enum_field_value" : 4,
     "name" : "aidl::android::hardware::wifi::supplicant::WpsDevPasswordId::PUSHBUTTON"
    },
    {
     "enum_field_value" : 5,
     "name" : "aidl::android::hardware::wifi::supplicant::WpsDevPasswordId::REGISTRAR_SPECIFIED"
    },
    {
     "enum_field_value" : 7,
     "name" : "aidl::android::hardware::wifi::supplicant::WpsDevPasswordId::NFC_CONNECTION_HANDOVER"
    },
    {
     "enum_field_value" : 8,
     "name" : "aidl::android::hardware::wifi::supplicant::WpsDevPasswordId::P2PS_DEFAULT"
    }
   ],
   "linker_set_key" : "_ZTIN4aidl7android8hardware4wifi10supplicant16WpsDevPasswordIdE",
   "name" : "aidl::android::hardware::wifi::supplicant::WpsDevPasswordId",
   "referenced_type" : "_ZTIN4aidl7android8hardware4wifi10supplicant16WpsDevPasswordIdE",
   "self_type" : "_ZTIN4aidl7android8hardware4wifi10supplicant16WpsDevPasswordIdE",
   "size" : 4,
   "source_file" : "out/soong/.intermediates/hardware/interfaces/wifi/supplicant/aidl/android.hardware.wifi.supplicant-V1-ndk-source/gen/include/aidl/android/hardware/wifi/supplicant/WpsDevPasswordId.h",
   "underlying_type" : "_ZTIi"
  },
  {
   "alignment" : 1,
   "enum_fields" :
   [
    {
     "enum_field_value" : 0,
     "name" : "aidl::android::hardware::wifi::supplicant::BssidChangeReason::ASSOC_START"
    },
    {
     "enum_field_value" : 1,
     "name" : "aidl::android::hardware::wifi::supplicant::BssidChangeReason::ASSOC_COMPLETE"
    },
    {
     "enum_field_value" : 2,
     "name" : "aidl::android::hardware::wifi::supplicant::BssidChangeReason::DISASSOC"
    }
   ],
   "linker_set_key" : "_ZTIN4aidl7android8hardware4wifi10supplicant17BssidChangeReasonE",
   "name" : "aidl::android::hardware::wifi::supplicant::BssidChangeReason",
   "referenced_type" : "_ZTIN4aidl7android8hardware4wifi10supplicant17BssidChangeReasonE",
   "self_type" : "_ZTIN4aidl7android8hardware4wifi10supplicant17BssidChangeReasonE",
   "size" : 1,
   "source_file" : "out/soong/.intermediates/hardware/interfaces/wifi/supplicant/aidl/android.hardware.wifi.supplicant-V1-ndk-source/gen/include/aidl/android/hardware/wifi/supplicant/BssidChangeReason.h",
   "underlying_type" : "_ZTIa"
  },
  {
   "alignment" : 1,
   "enum_fields" :
   [
    {
     "enum_field_value" : 0,
     "name" : "aidl::android::hardware::wifi::supplicant::BtCoexistenceMode::ENABLED"
    },
    {
     "enum_field_value" : 1,
     "name" : "aidl::android::hardware::wifi::supplicant::BtCoexistenceMode::DISABLED"
    },
    {
     "enum_field_value" : 2,
     "name" : "aidl::android::hardware::wifi::supplicant::BtCoexistenceMode::SENSE"
    }
   ],
   "linker_set_key" : "_ZTIN4aidl7android8hardware4wifi10supplicant17BtCoexistenceModeE",
   "name" : "aidl::android::hardware::wifi::supplicant::BtCoexistenceMode",
   "referenced_type" : "_ZTIN4aidl7android8hardware4wifi10supplicant17BtCoexistenceModeE",
   "self_type" : "_ZTIN4aidl7android8hardware4wifi10supplicant17BtCoexistenceModeE",
   "size" : 1,
   "source_file" : "out/soong/.intermediates/hardware/interfaces/wifi/supplicant/aidl/android.hardware.wifi.supplicant-V1-ndk-source/gen/include/aidl/android/hardware/wifi/supplicant/BtCoexistenceMode.h",
   "underlying_type" : "_ZTIa"
  },
  {
   "alignment" : 4,
   "enum_fields" :
   [
    {
     "enum_field_value" : 1,
     "name" : "aidl::android::hardware::wifi::supplicant::BssTmDataFlagsMask::WNM_MODE_PREFERRED_CANDIDATE_LIST_INCLUDED"
    },
    {
     "enum_field_value" : 2,
     "name" : "aidl::android::hardware::wifi::supplicant::BssTmDataFlagsMask::WNM_MODE_ABRIDGED"
    },
    {
     "enum_field_value" : 4,
     "name" : "aidl::android::hardware::wifi::supplicant::BssTmDataFlagsMask::WNM_MODE_DISASSOCIATION_IMMINENT"
    },
    {
     "enum_field_value" : 8,
     "name" : "aidl::android::hardware::wifi::supplicant::BssTmDataFlagsMask::WNM_MODE_BSS_TERMINATION_INCLUDED"
    },
    {
     "enum_field_value" : 16,
     "name" : "aidl::android::hardware::wifi::supplicant::BssTmDataFlagsMask::WNM_MODE_ESS_DISASSOCIATION_IMMINENT"
    },
    {
     "enum_field_value" : 32,
     "name" : "aidl::android::hardware::wifi::supplicant::BssTmDataFlagsMask::MBO_TRANSITION_REASON_CODE_INCLUDED"
    },
    {
     "enum_field_value" : 64,
     "name" : "aidl::android::hardware::wifi::supplicant::BssTmDataFlagsMask::MBO_ASSOC_RETRY_DELAY_INCLUDED"
    },
    {
     "enum_field_value" : 128,
     "name" : "aidl::android::hardware::wifi::supplicant::BssTmDataFlagsMask::MBO_CELLULAR_DATA_CONNECTION_PREFERENCE_INCLUDED"
    }
   ],
   "linker_set_key" : "_ZTIN4aidl7android8hardware4wifi10supplicant18BssTmDataFlagsMaskE",
   "name" : "aidl::android::hardware::wifi::supplicant::BssTmDataFlagsMask",
   "referenced_type" : "_ZTIN4aidl7android8hardware4wifi10supplicant18BssTmDataFlagsMaskE",
   "self_type" : "_ZTIN4aidl7android8hardware4wifi10supplicant18BssTmDataFlagsMaskE",
   "size" : 4,
   "source_file" : "out/soong/.intermediates/hardware/interfaces/wifi/supplicant/aidl/android.hardware.wifi.supplicant-V1-ndk-source/gen/include/aidl/android/hardware/wifi/supplicant/BssTmDataFlagsMask.h",
   "underlying_type" : "_ZTIi"
  },
  {
   "alignment" : 4,
   "enum_fields" :
   [
    {
     "enum_field_value" : 1,
     "name" : "aidl::android::hardware::wifi::supplicant::PairwiseCipherMask::NONE"
    },
    {
     "enum_field_value" : 8,
     "name" : "aidl::android::hardware::wifi::supplicant::PairwiseCipherMask::TKIP"
    },
    {
     "enum_field_value" : 16,
     "name" : "aidl::android::hardware::wifi::supplicant::PairwiseCipherMask::CCMP"
    },
    {
     "enum_field_value" : 64,
     "name" : "aidl::android::hardware::wifi::supplicant::PairwiseCipherMask::GCMP_128"
    },
    {
     "enum_field_value" : 128,
     "name" : "aidl::android::hardware::wifi::supplicant::PairwiseCipherMask::SMS4"
    },
    {
     "enum_field_value" : 256,
     "name" : "aidl::android::hardware::wifi::supplicant::PairwiseCipherMask::GCMP_256"
    }
   ],
   "linker_set_key" : "_ZTIN4aidl7android8hardware4wifi10supplicant18PairwiseCipherMaskE",
   "name" : "aidl::android::hardware::wifi::supplicant::PairwiseCipherMask",
   "referenced_type" : "_ZTIN4aidl7android8hardware4wifi10supplicant18PairwiseCipherMaskE",
   "self_type" : "_ZTIN4aidl7android8hardware4wifi10supplicant18PairwiseCipherMaskE",
   "size" : 4,
   "source_file" : "out/soong/.intermediates/hardware/interfaces/wifi/supplicant/aidl/android.hardware.wifi.supplicant-V1-ndk-source/gen/include/aidl/android/hardware/wifi/supplicant/PairwiseCipherMask.h",
   "underlying_type" : "_ZTIi"
  },
  {
   "alignment" : 1,
   "enum_fields" :
   [
    {
     "enum_field_value" : 6,
     "name" : "aidl::android::hardware::wifi::supplicant::ProtocolNextHeader::TCP"
    },
    {
     "enum_field_value" : 17,
     "name" : "aidl::android::hardware::wifi::supplicant::ProtocolNextHeader::UDP"
    },
    {
     "enum_field_value" : 50,
     "name" : "aidl::android::hardware::wifi::supplicant::ProtocolNextHeader::ESP"
    }
   ],
   "linker_set_key" : "_ZTIN4aidl7android8hardware4wifi10supplicant18ProtocolNextHeaderE",
   "name" : "aidl::android::hardware::wifi::supplicant::ProtocolNextHeader",
   "referenced_type" : "_ZTIN4aidl7android8hardware4wifi10supplicant18ProtocolNextHeaderE",
   "self_type" : "_ZTIN4aidl7android8hardware4wifi10supplicant18ProtocolNextHeaderE",
   "size" : 1,
   "source_file" : "out/soong/.intermediates/hardware/interfaces/wifi/supplicant/aidl/android.hardware.wifi.supplicant-V1-ndk-source/gen/include/aidl/android/hardware/wifi/supplicant/ProtocolNextHeader.h",
   "underlying_type" : "_ZTIa"
  },
  {
   "alignment" : 4,
   "enum_fields" :
   [
    {
     "enum_field_value" : 1,
     "name" : "aidl::android::hardware::wifi::supplicant::StaIfaceReasonCode::UNSPECIFIED"
    },
    {
     "enum_field_value" : 2,
     "name" : "aidl::android::hardware::wifi::supplicant::StaIfaceReasonCode::PREV_AUTH_NOT_VALID"
    },
    {
     "enum_field_value" : 3,
     "name" : "aidl::android::hardware::wifi::supplicant::StaIfaceReasonCode::DEAUTH_LEAVING"
    },
    {
     "enum_field_value" : 4,
     "name" : "aidl::android::hardware::wifi::supplicant::StaIfaceReasonCode::DISASSOC_DUE_TO_INACTIVITY"
    },
    {
     "enum_field_value" : 5,
     "name" : "aidl::android::hardware::wifi::supplicant::StaIfaceReasonCode::DISASSOC_AP_BUSY"
    },
    {
     "enum_field_value" : 6,
     "name" : "aidl::android::hardware::wifi::supplicant::StaIfaceReasonCode::CLASS2_FRAME_FROM_NONAUTH_STA"
    },
    {
     "enum_field_value" : 7,
     "name" : "aidl::android::hardware::wifi::supplicant::StaIfaceReasonCode::CLASS3_FRAME_FROM_NONASSOC_STA"
    },
    {
     "enum_field_value" : 8,
     "name" : "aidl::android::hardware::wifi::supplicant::StaIfaceReasonCode::DISASSOC_STA_HAS_LEFT"
    },
    {
     "enum_field_value" : 9,
     "name" : "aidl::android::hardware::wifi::supplicant::StaIfaceReasonCode::STA_REQ_ASSOC_WITHOUT_AUTH"
    },
    {
     "enum_field_value" : 10,
     "name" : "aidl::android::hardware::wifi::supplicant::StaIfaceReasonCode::PWR_CAPABILITY_NOT_VALID"
    },
    {
     "enum_field_value" : 11,
     "name" : "aidl::android::hardware::wifi::supplicant::StaIfaceReasonCode::SUPPORTED_CHANNEL_NOT_VALID"
    },
    {
     "enum_field_value" : 12,
     "name" : "aidl::android::hardware::wifi::supplicant::StaIfaceReasonCode::BSS_TRANSITION_DISASSOC"
    },
    {
     "enum_field_value" : 13,
     "name" : "aidl::android::hardware::wifi::supplicant::StaIfaceReasonCode::INVALID_IE"
    },
    {
     "enum_field_value" : 14,
     "name" : "aidl::android::hardware::wifi::supplicant::StaIfaceReasonCode::MICHAEL_MIC_FAILURE"
    },
    {
     "enum_field_value" : 15,
     "name" : "aidl::android::hardware::wifi::supplicant::StaIfaceReasonCode::FOURWAY_HANDSHAKE_TIMEOUT"
    },
    {
     "enum_field_value" : 16,
     "name" : "aidl::android::hardware::wifi::supplicant::StaIfaceReasonCode::GROUP_KEY_UPDATE_TIMEOUT"
    },
    {
     "enum_field_value" : 17,
     "name" : "aidl::android::hardware::wifi::supplicant::StaIfaceReasonCode::IE_IN_4WAY_DIFFERS"
    },
    {
     "enum_field_value" : 18,
     "name" : "aidl::android::hardware::wifi::supplicant::StaIfaceReasonCode::GROUP_CIPHER_NOT_VALID"
    },
    {
     "enum_field_value" : 19,
     "name" : "aidl::android::hardware::wifi::supplicant::StaIfaceReasonCode::PAIRWISE_CIPHER_NOT_VALID"
    },
    {
     "enum_field_value" : 20,
     "name" : "aidl::android::hardware::wifi::supplicant::StaIfaceReasonCode::AKMP_NOT_VALID"
    },
    {
     "enum_field_value" : 21,
     "name" : "aidl::android::hardware::wifi::supplicant::StaIfaceReasonCode::UNSUPPORTED_RSN_IE_VERSION"
    },
    {
     "enum_field_value" : 22,
     "name" : "aidl::android::hardware::wifi::supplicant::StaIfaceReasonCode::INVALID_RSN_IE_CAPAB"
    },
    {
     "enum_field_value" : 23,
     "name" : "aidl::android::hardware::wifi::supplicant::StaIfaceReasonCode::IEEE_802_1X_AUTH_FAILED"
    },
    {
     "enum_field_value" : 24,
     "name" : "aidl::android::hardware::wifi::supplicant::StaIfaceReasonCode::CIPHER_SUITE_REJECTED"
    },
    {
     "enum_field_value" : 25,
     "name" : "aidl::android::hardware::wifi::supplicant::StaIfaceReasonCode::TDLS_TEARDOWN_UNREACHABLE"
    },
    {
     "enum_field_value" : 26,
     "name" : "aidl::android::hardware::wifi::supplicant::StaIfaceReasonCode::TDLS_TEARDOWN_UNSPECIFIED"
    },
    {
     "enum_field_value" : 27,
     "name" : "aidl::android::hardware::wifi::supplicant::StaIfaceReasonCode::SSP_REQUESTED_DISASSOC"
    },
    {
     "enum_field_value" : 28,
     "name" : "aidl::android::hardware::wifi::supplicant::StaIfaceReasonCode::NO_SSP_ROAMING_AGREEMENT"
    },
    {
     "enum_field_value" : 29,
     "name" : "aidl::android::hardware::wifi::supplicant::StaIfaceReasonCode::BAD_CIPHER_OR_AKM"
    },
    {
     "enum_field_value" : 30,
     "name" : "aidl::android::hardware::wifi::supplicant::StaIfaceReasonCode::NOT_AUTHORIZED_THIS_LOCATION"
    },
    {
     "enum_field_value" : 31,
     "name" : "aidl::android::hardware::wifi::supplicant::StaIfaceReasonCode::SERVICE_CHANGE_PRECLUDES_TS"
    },
    {
     "enum_field_value" : 32,
     "name" : "aidl::android::hardware::wifi::supplicant::StaIfaceReasonCode::UNSPECIFIED_QOS_REASON"
    },
    {
     "enum_field_value" : 33,
     "name" : "aidl::android::hardware::wifi::supplicant::StaIfaceReasonCode::NOT_ENOUGH_BANDWIDTH"
    },
    {
     "enum_field_value" : 34,
     "name" : "aidl::android::hardware::wifi::supplicant::StaIfaceReasonCode::DISASSOC_LOW_ACK"
    },
    {
     "enum_field_value" : 35,
     "name" : "aidl::android::hardware::wifi::supplicant::StaIfaceReasonCode::EXCEEDED_TXOP"
    },
    {
     "enum_field_value" : 36,
     "name" : "aidl::android::hardware::wifi::supplicant::StaIfaceReasonCode::STA_LEAVING"
    },
    {
     "enum_field_value" : 37,
     "name" : "aidl::android::hardware::wifi::supplicant::StaIfaceReasonCode::END_TS_BA_DLS"
    },
    {
     "enum_field_value" : 38,
     "name" : "aidl::android::hardware::wifi::supplicant::StaIfaceReasonCode::UNKNOWN_TS_BA"
    },
    {
     "enum_field_value" : 39,
     "name" : "aidl::android::hardware::wifi::supplicant::StaIfaceReasonCode::TIMEOUT"
    },
    {
     "enum_field_value" : 45,
     "name" : "aidl::android::hardware::wifi::supplicant::StaIfaceReasonCode::PEERKEY_MISMATCH"
    },
    {
     "enum_field_value" : 46,
     "name" : "aidl::android::hardware::wifi::supplicant::StaIfaceReasonCode::AUTHORIZED_ACCESS_LIMIT_REACHED"
    },
    {
     "enum_field_value" : 47,
     "name" : "aidl::android::hardware::wifi::supplicant::StaIfaceReasonCode::EXTERNAL_SERVICE_REQUIREMENTS"
    },
    {
     "enum_field_value" : 48,
     "name" : "aidl::android::hardware::wifi::supplicant::StaIfaceReasonCode::INVALID_FT_ACTION_FRAME_COUNT"
    },
    {
     "enum_field_value" : 49,
     "name" : "aidl::android::hardware::wifi::supplicant::StaIfaceReasonCode::INVALID_PMKID"
    },
    {
     "enum_field_value" : 50,
     "name" : "aidl::android::hardware::wifi::supplicant::StaIfaceReasonCode::INVALID_MDE"
    },
    {
     "enum_field_value" : 51,
     "name" : "aidl::android::hardware::wifi::supplicant::StaIfaceReasonCode::INVALID_FTE"
    },
    {
     "enum_field_value" : 52,
     "name" : "aidl::android::hardware::wifi::supplicant::StaIfaceReasonCode::MESH_PEERING_CANCELLED"
    },
    {
     "enum_field_value" : 53,
     "name" : "aidl::android::hardware::wifi::supplicant::StaIfaceReasonCode::MESH_MAX_PEERS"
    },
    {
     "enum_field_value" : 54,
     "name" : "aidl::android::hardware::wifi::supplicant::StaIfaceReasonCode::MESH_CONFIG_POLICY_VIOLATION"
    },
    {
     "enum_field_value" : 55,
     "name" : "aidl::android::hardware::wifi::supplicant::StaIfaceReasonCode::MESH_CLOSE_RCVD"
    },
    {
     "enum_field_value" : 56,
     "name" : "aidl::android::hardware::wifi::supplicant::StaIfaceReasonCode::MESH_MAX_RETRIES"
    },
    {
     "enum_field_value" : 57,
     "name" : "aidl::android::hardware::wifi::supplicant::StaIfaceReasonCode::MESH_CONFIRM_TIMEOUT"
    },
    {
     "enum_field_value" : 58,
     "name" : "aidl::android::hardware::wifi::supplicant::StaIfaceReasonCode::MESH_INVALID_GTK"
    },
    {
     "enum_field_value" : 59,
     "name" : "aidl::android::hardware::wifi::supplicant::StaIfaceReasonCode::MESH_INCONSISTENT_PARAMS"
    },
    {
     "enum_field_value" : 60,
     "name" : "aidl::android::hardware::wifi::supplicant::StaIfaceReasonCode::MESH_INVALID_SECURITY_CAP"
    },
    {
     "enum_field_value" : 61,
     "name" : "aidl::android::hardware::wifi::supplicant::StaIfaceReasonCode::MESH_PATH_ERROR_NO_PROXY_INFO"
    },
    {
     "enum_field_value" : 62,
     "name" : "aidl::android::hardware::wifi::supplicant::StaIfaceReasonCode::MESH_PATH_ERROR_NO_FORWARDING_INFO"
    },
    {
     "enum_field_value" : 63,
     "name" : "aidl::android::hardware::wifi::supplicant::StaIfaceReasonCode::MESH_PATH_ERROR_DEST_UNREACHABLE"
    },
    {
     "enum_field_value" : 64,
     "name" : "aidl::android::hardware::wifi::supplicant::StaIfaceReasonCode::MAC_ADDRESS_ALREADY_EXISTS_IN_MBSS"
    },
    {
     "enum_field_value" : 65,
     "name" : "aidl::android::hardware::wifi::supplicant::StaIfaceReasonCode::MESH_CHANNEL_SWITCH_REGULATORY_REQ"
    },
    {
     "enum_field_value" : 66,
     "name" : "aidl::android::hardware::wifi::supplicant::StaIfaceReasonCode::MESH_CHANNEL_SWITCH_UNSPECIFIED"
    }
   ],
   "linker_set_key" : "_ZTIN4aidl7android8hardware4wifi10supplicant18StaIfaceReasonCodeE",
   "name" : "aidl::android::hardware::wifi::supplicant::StaIfaceReasonCode",
   "referenced_type" : "_ZTIN4aidl7android8hardware4wifi10supplicant18StaIfaceReasonCodeE",
   "self_type" : "_ZTIN4aidl7android8hardware4wifi10supplicant18StaIfaceReasonCodeE",
   "size" : 4,
   "source_file" : "out/soong/.intermediates/hardware/interfaces/wifi/supplicant/aidl/android.hardware.wifi.supplicant-V1-ndk-source/gen/include/aidl/android/hardware/wifi/supplicant/StaIfaceReasonCode.h",
   "underlying_type" : "_ZTIi"
  },
  {
   "alignment" : 4,
   "enum_fields" :
   [
    {
     "enum_field_value" : 0,
     "name" : "aidl::android::hardware::wifi::supplicant::StaIfaceStatusCode::SUCCESS"
    },
    {
     "enum_field_value" : 1,
     "name" : "aidl::android::hardware::wifi::supplicant::StaIfaceStatusCode::UNSPECIFIED_FAILURE"
    },
    {
     "enum_field_value" : 2,
     "name" : "aidl::android::hardware::wifi::supplicant::StaIfaceStatusCode::TDLS_WAKEUP_ALTERNATE"
    },
    {
     "enum_field_value" : 3,
     "name" : "aidl::android::hardware::wifi::supplicant::StaIfaceStatusCode::TDLS_WAKEUP_REJECT"
    },
    {
     "enum_field_value" : 5,
     "name" : "aidl::android::hardware::wifi::supplicant::StaIfaceStatusCode::SECURITY_DISABLED"
    },
    {
     "enum_field_value" : 6,
     "name" : "aidl::android::hardware::wifi::supplicant::StaIfaceStatusCode::UNACCEPTABLE_LIFETIME"
    },
    {
     "enum_field_value" : 7,
     "name" : "aidl::android::hardware::wifi::supplicant::StaIfaceStatusCode::NOT_IN_SAME_BSS"
    },
    {
     "enum_field_value" : 10,
     "name" : "aidl::android::hardware::wifi::supplicant::StaIfaceStatusCode::CAPS_UNSUPPORTED"
    },
    {
     "enum_field_value" : 11,
     "name" : "aidl::android::hardware::wifi::supplicant::StaIfaceStatusCode::REASSOC_NO_ASSOC"
    },
    {
     "enum_field_value" : 12,
     "name" : "aidl::android::hardware::wifi::supplicant::StaIfaceStatusCode::ASSOC_DENIED_UNSPEC"
    },
    {
     "enum_field_value" : 13,
     "name" : "aidl::android::hardware::wifi::supplicant::StaIfaceStatusCode::NOT_SUPPORTED_AUTH_ALG"
    },
    {
     "enum_field_value" : 14,
     "name" : "aidl::android::hardware::wifi::supplicant::StaIfaceStatusCode::UNKNOWN_AUTH_TRANSACTION"
    },
    {
     "enum_field_value" : 15,
     "name" : "aidl::android::hardware::wifi::supplicant::StaIfaceStatusCode::CHALLENGE_FAIL"
    },
    {
     "enum_field_value" : 16,
     "name" : "aidl::android::hardware::wifi::supplicant::StaIfaceStatusCode::AUTH_TIMEOUT"
    },
    {
     "enum_field_value" : 17,
     "name" : "aidl::android::hardware::wifi::supplicant::StaIfaceStatusCode::AP_UNABLE_TO_HANDLE_NEW_STA"
    },
    {
     "enum_field_value" : 18,
     "name" : "aidl::android::hardware::wifi::supplicant::StaIfaceStatusCode::ASSOC_DENIED_RATES"
    },
    {
     "enum_field_value" : 19,
     "name" : "aidl::android::hardware::wifi::supplicant::StaIfaceStatusCode::ASSOC_DENIED_NOSHORT"
    },
    {
     "enum_field_value" : 22,
     "name" : "aidl::android::hardware::wifi::supplicant::StaIfaceStatusCode::SPEC_MGMT_REQUIRED"
    },
    {
     "enum_field_value" : 23,
     "name" : "aidl::android::hardware::wifi::supplicant::StaIfaceStatusCode::PWR_CAPABILITY_NOT_VALID"
    },
    {
     "enum_field_value" : 24,
     "name" : "aidl::android::hardware::wifi::supplicant::StaIfaceStatusCode::SUPPORTED_CHANNEL_NOT_VALID"
    },
    {
     "enum_field_value" : 25,
     "name" : "aidl::android::hardware::wifi::supplicant::StaIfaceStatusCode::ASSOC_DENIED_NO_SHORT_SLOT_TIME"
    },
    {
     "enum_field_value" : 27,
     "name" : "aidl::android::hardware::wifi::supplicant::StaIfaceStatusCode::ASSOC_DENIED_NO_HT"
    },
    {
     "enum_field_value" : 28,
     "name" : "aidl::android::hardware::wifi::supplicant::StaIfaceStatusCode::R0KH_UNREACHABLE"
    },
    {
     "enum_field_value" : 29,
     "name" : "aidl::android::hardware::wifi::supplicant::StaIfaceStatusCode::ASSOC_DENIED_NO_PCO"
    },
    {
     "enum_field_value" : 30,
     "name" : "aidl::android::hardware::wifi::supplicant::StaIfaceStatusCode::ASSOC_REJECTED_TEMPORARILY"
    },
    {
     "enum_field_value" : 31,
     "name" : "aidl::android::hardware::wifi::supplicant::StaIfaceStatusCode::ROBUST_MGMT_FRAME_POLICY_VIOLATION"
    },
    {
     "enum_field_value" : 32,
     "name" : "aidl::android::hardware::wifi::supplicant::StaIfaceStatusCode::UNSPECIFIED_QOS_FAILURE"
    },
    {
     "enum_field_value" : 33,
     "name" : "aidl::android::hardware::wifi::supplicant::StaIfaceStatusCode::DENIED_INSUFFICIENT_BANDWIDTH"
    },
    {
     "enum_field_value" : 34,
     "name" : "aidl::android::hardware::wifi::supplicant::StaIfaceStatusCode::DENIED_POOR_CHANNEL_CONDITIONS"
    },
    {
     "enum_field_value" : 35,
     "name" : "aidl::android::hardware::wifi::supplicant::StaIfaceStatusCode::DENIED_QOS_NOT_SUPPORTED"
    },
    {
     "enum_field_value" : 37,
     "name" : "aidl::android::hardware::wifi::supplicant::StaIfaceStatusCode::REQUEST_DECLINED"
    },
    {
     "enum_field_value" : 38,
     "name" : "aidl::android::hardware::wifi::supplicant::StaIfaceStatusCode::INVALID_PARAMETERS"
    },
    {
     "enum_field_value" : 39,
     "name" : "aidl::android::hardware::wifi::supplicant::StaIfaceStatusCode::REJECTED_WITH_SUGGESTED_CHANGES"
    },
    {
     "enum_field_value" : 40,
     "name" : "aidl::android::hardware::wifi::supplicant::StaIfaceStatusCode::INVALID_IE"
    },
    {
     "enum_field_value" : 41,
     "name" : "aidl::android::hardware::wifi::supplicant::StaIfaceStatusCode::GROUP_CIPHER_NOT_VALID"
    },
    {
     "enum_field_value" : 42,
     "name" : "aidl::android::hardware::wifi::supplicant::StaIfaceStatusCode::PAIRWISE_CIPHER_NOT_VALID"
    },
    {
     "enum_field_value" : 43,
     "name" : "aidl::android::hardware::wifi::supplicant::StaIfaceStatusCode::AKMP_NOT_VALID"
    },
    {
     "enum_field_value" : 44,
     "name" : "aidl::android::hardware::wifi::supplicant::StaIfaceStatusCode::UNSUPPORTED_RSN_IE_VERSION"
    },
    {
     "enum_field_value" : 45,
     "name" : "aidl::android::hardware::wifi::supplicant::StaIfaceStatusCode::INVALID_RSN_IE_CAPAB"
    },
    {
     "enum_field_value" : 46,
     "name" : "aidl::android::hardware::wifi::supplicant::StaIfaceStatusCode::CIPHER_REJECTED_PER_POLICY"
    },
    {
     "enum_field_value" : 47,
     "name" : "aidl::android::hardware::wifi::supplicant::StaIfaceStatusCode::TS_NOT_CREATED"
    },
    {
     "enum_field_value" : 48,
     "name" : "aidl::android::hardware::wifi::supplicant::StaIfaceStatusCode::DIRECT_LINK_NOT_ALLOWED"
    },
    {
     "enum_field_value" : 49,
     "name" : "aidl::android::hardware::wifi::supplicant::StaIfaceStatusCode::DEST_STA_NOT_PRESENT"
    },
    {
     "enum_field_value" : 50,
     "name" : "aidl::android::hardware::wifi::supplicant::StaIfaceStatusCode::DEST_STA_NOT_QOS_STA"
    },
    {
     "enum_field_value" : 51,
     "name" : "aidl::android::hardware::wifi::supplicant::StaIfaceStatusCode::ASSOC_DENIED_LISTEN_INT_TOO_LARGE"
    },
    {
     "enum_field_value" : 52,
     "name" : "aidl::android::hardware::wifi::supplicant::StaIfaceStatusCode::INVALID_FT_ACTION_FRAME_COUNT"
    },
    {
     "enum_field_value" : 53,
     "name" : "aidl::android::hardware::wifi::supplicant::StaIfaceStatusCode::INVALID_PMKID"
    },
    {
     "enum_field_value" : 54,
     "name" : "aidl::android::hardware::wifi::supplicant::StaIfaceStatusCode::INVALID_MDIE"
    },
    {
     "enum_field_value" : 55,
     "name" : "aidl::android::hardware::wifi::supplicant::StaIfaceStatusCode::INVALID_FTIE"
    },
    {
     "enum_field_value" : 56,
     "name" : "aidl::android::hardware::wifi::supplicant::StaIfaceStatusCode::REQUESTED_TCLAS_NOT_SUPPORTED"
    },
    {
     "enum_field_value" : 57,
     "name" : "aidl::android::hardware::wifi::supplicant::StaIfaceStatusCode::INSUFFICIENT_TCLAS_PROCESSING_RESOURCES"
    },
    {
     "enum_field_value" : 58,
     "name" : "aidl::android::hardware::wifi::supplicant::StaIfaceStatusCode::TRY_ANOTHER_BSS"
    },
    {
     "enum_field_value" : 59,
     "name" : "aidl::android::hardware::wifi::supplicant::StaIfaceStatusCode::GAS_ADV_PROTO_NOT_SUPPORTED"
    },
    {
     "enum_field_value" : 60,
     "name" : "aidl::android::hardware::wifi::supplicant::StaIfaceStatusCode::NO_OUTSTANDING_GAS_REQ"
    },
    {
     "enum_field_value" : 61,
     "name" : "aidl::android::hardware::wifi::supplicant::StaIfaceStatusCode::GAS_RESP_NOT_RECEIVED"
    },
    {
     "enum_field_value" : 62,
     "name" : "aidl::android::hardware::wifi::supplicant::StaIfaceStatusCode::STA_TIMED_OUT_WAITING_FOR_GAS_RESP"
    },
    {
     "enum_field_value" : 63,
     "name" : "aidl::android::hardware::wifi::supplicant::StaIfaceStatusCode::GAS_RESP_LARGER_THAN_LIMIT"
    },
    {
     "enum_field_value" : 64,
     "name" : "aidl::android::hardware::wifi::supplicant::StaIfaceStatusCode::REQ_REFUSED_HOME"
    },
    {
     "enum_field_value" : 65,
     "name" : "aidl::android::hardware::wifi::supplicant::StaIfaceStatusCode::ADV_SRV_UNREACHABLE"
    },
    {
     "enum_field_value" : 67,
     "name" : "aidl::android::hardware::wifi::supplicant::StaIfaceStatusCode::REQ_REFUSED_SSPN"
    },
    {
     "enum_field_value" : 68,
     "name" : "aidl::android::hardware::wifi::supplicant::StaIfaceStatusCode::REQ_REFUSED_UNAUTH_ACCESS"
    },
    {
     "enum_field_value" : 72,
     "name" : "aidl::android::hardware::wifi::supplicant::StaIfaceStatusCode::INVALID_RSNIE"
    },
    {
     "enum_field_value" : 73,
     "name" : "aidl::android::hardware::wifi::supplicant::StaIfaceStatusCode::U_APSD_COEX_NOT_SUPPORTED"
    },
    {
     "enum_field_value" : 74,
     "name" : "aidl::android::hardware::wifi::supplicant::StaIfaceStatusCode::U_APSD_COEX_MODE_NOT_SUPPORTED"
    },
    {
     "enum_field_value" : 75,
     "name" : "aidl::android::hardware::wifi::supplicant::StaIfaceStatusCode::BAD_INTERVAL_WITH_U_APSD_COEX"
    },
    {
     "enum_field_value" : 76,
     "name" : "aidl::android::hardware::wifi::supplicant::StaIfaceStatusCode::ANTI_CLOGGING_TOKEN_REQ"
    },
    {
     "enum_field_value" : 77,
     "name" : "aidl::android::hardware::wifi::supplicant::StaIfaceStatusCode::FINITE_CYCLIC_GROUP_NOT_SUPPORTED"
    },
    {
     "enum_field_value" : 78,
     "name" : "aidl::android::hardware::wifi::supplicant::StaIfaceStatusCode::CANNOT_FIND_ALT_TBTT"
    },
    {
     "enum_field_value" : 79,
     "name" : "aidl::android::hardware::wifi::supplicant::StaIfaceStatusCode::TRANSMISSION_FAILURE"
    },
    {
     "enum_field_value" : 80,
     "name" : "aidl::android::hardware::wifi::supplicant::StaIfaceStatusCode::REQ_TCLAS_NOT_SUPPORTED"
    },
    {
     "enum_field_value" : 81,
     "name" : "aidl::android::hardware::wifi::supplicant::StaIfaceStatusCode::TCLAS_RESOURCES_EXCHAUSTED"
    },
    {
     "enum_field_value" : 82,
     "name" : "aidl::android::hardware::wifi::supplicant::StaIfaceStatusCode::REJECTED_WITH_SUGGESTED_BSS_TRANSITION"
    },
    {
     "enum_field_value" : 83,
     "name" : "aidl::android::hardware::wifi::supplicant::StaIfaceStatusCode::REJECT_WITH_SCHEDULE"
    },
    {
     "enum_field_value" : 84,
     "name" : "aidl::android::hardware::wifi::supplicant::StaIfaceStatusCode::REJECT_NO_WAKEUP_SPECIFIED"
    },
    {
     "enum_field_value" : 85,
     "name" : "aidl::android::hardware::wifi::supplicant::StaIfaceStatusCode::SUCCESS_POWER_SAVE_MODE"
    },
    {
     "enum_field_value" : 86,
     "name" : "aidl::android::hardware::wifi::supplicant::StaIfaceStatusCode::PENDING_ADMITTING_FST_SESSION"
    },
    {
     "enum_field_value" : 87,
     "name" : "aidl::android::hardware::wifi::supplicant::StaIfaceStatusCode::PERFORMING_FST_NOW"
    },
    {
     "enum_field_value" : 88,
     "name" : "aidl::android::hardware::wifi::supplicant::StaIfaceStatusCode::PENDING_GAP_IN_BA_WINDOW"
    },
    {
     "enum_field_value" : 89,
     "name" : "aidl::android::hardware::wifi::supplicant::StaIfaceStatusCode::REJECT_U_PID_SETTING"
    },
    {
     "enum_field_value" : 92,
     "name" : "aidl::android::hardware::wifi::supplicant::StaIfaceStatusCode::REFUSED_EXTERNAL_REASON"
    },
    {
     "enum_field_value" : 93,
     "name" : "aidl::android::hardware::wifi::supplicant::StaIfaceStatusCode::REFUSED_AP_OUT_OF_MEMORY"
    },
    {
     "enum_field_value" : 94,
     "name" : "aidl::android::hardware::wifi::supplicant::StaIfaceStatusCode::REJECTED_EMERGENCY_SERVICE_NOT_SUPPORTED"
    },
    {
     "enum_field_value" : 95,
     "name" : "aidl::android::hardware::wifi::supplicant::StaIfaceStatusCode::QUERY_RESP_OUTSTANDING"
    },
    {
     "enum_field_value" : 96,
     "name" : "aidl::android::hardware::wifi::supplicant::StaIfaceStatusCode::REJECT_DSE_BAND"
    },
    {
     "enum_field_value" : 97,
     "name" : "aidl::android::hardware::wifi::supplicant::StaIfaceStatusCode::TCLAS_PROCESSING_TERMINATED"
    },
    {
     "enum_field_value" : 98,
     "name" : "aidl::android::hardware::wifi::supplicant::StaIfaceStatusCode::TS_SCHEDULE_CONFLICT"
    },
    {
     "enum_field_value" : 99,
     "name" : "aidl::android::hardware::wifi::supplicant::StaIfaceStatusCode::DENIED_WITH_SUGGESTED_BAND_AND_CHANNEL"
    },
    {
     "enum_field_value" : 100,
     "name" : "aidl::android::hardware::wifi::supplicant::StaIfaceStatusCode::MCCAOP_RESERVATION_CONFLICT"
    },
    {
     "enum_field_value" : 101,
     "name" : "aidl::android::hardware::wifi::supplicant::StaIfaceStatusCode::MAF_LIMIT_EXCEEDED"
    },
    {
     "enum_field_value" : 102,
     "name" : "aidl::android::hardware::wifi::supplicant::StaIfaceStatusCode::MCCA_TRACK_LIMIT_EXCEEDED"
    },
    {
     "enum_field_value" : 103,
     "name" : "aidl::android::hardware::wifi::supplicant::StaIfaceStatusCode::DENIED_DUE_TO_SPECTRUM_MANAGEMENT"
    },
    {
     "enum_field_value" : 104,
     "name" : "aidl::android::hardware::wifi::supplicant::StaIfaceStatusCode::ASSOC_DENIED_NO_VHT"
    },
    {
     "enum_field_value" : 105,
     "name" : "aidl::android::hardware::wifi::supplicant::StaIfaceStatusCode::ENABLEMENT_DENIED"
    },
    {
     "enum_field_value" : 106,
     "name" : "aidl::android::hardware::wifi::supplicant::StaIfaceStatusCode::RESTRICTION_FROM_AUTHORIZED_GDB"
    },
    {
     "enum_field_value" : 107,
     "name" : "aidl::android::hardware::wifi::supplicant::StaIfaceStatusCode::AUTHORIZATION_DEENABLED"
    },
    {
     "enum_field_value" : 112,
     "name" : "aidl::android::hardware::wifi::supplicant::StaIfaceStatusCode::FILS_AUTHENTICATION_FAILURE"
    },
    {
     "enum_field_value" : 113,
     "name" : "aidl::android::hardware::wifi::supplicant::StaIfaceStatusCode::UNKNOWN_AUTHENTICATION_SERVER"
    }
   ],
   "linker_set_key" : "_ZTIN4aidl7android8hardware4wifi10supplicant18StaIfaceStatusCodeE",
   "name" : "aidl::android::hardware::wifi::supplicant::StaIfaceStatusCode",
   "referenced_type" : "_ZTIN4aidl7android8hardware4wifi10supplicant18StaIfaceStatusCodeE",
   "self_type" : "_ZTIN4aidl7android8hardware4wifi10supplicant18StaIfaceStatusCodeE",
   "size" : 4,
   "source_file" : "out/soong/.intermediates/hardware/interfaces/wifi/supplicant/aidl/android.hardware.wifi.supplicant-V1-ndk-source/gen/include/aidl/android/hardware/wifi/supplicant/StaIfaceStatusCode.h",
   "underlying_type" : "_ZTIi"
  },
  {
   "alignment" : 4,
   "enum_fields" :
   [
    {
     "enum_field_value" : 0,
     "name" : "aidl::android::hardware::wifi::supplicant::WpsErrorIndication::NO_ERROR"
    },
    {
     "enum_field_value" : 1,
     "name" : "aidl::android::hardware::wifi::supplicant::WpsErrorIndication::SECURITY_TKIP_ONLY_PROHIBITED"
    },
    {
     "enum_field_value" : 2,
     "name" : "aidl::android::hardware::wifi::supplicant::WpsErrorIndication::SECURITY_WEP_PROHIBITED"
    },
    {
     "enum_field_value" : 3,
     "name" : "aidl::android::hardware::wifi::supplicant::WpsErrorIndication::AUTH_FAILURE"
    }
   ],
   "linker_set_key" : "_ZTIN4aidl7android8hardware4wifi10supplicant18WpsErrorIndicationE",
   "name" : "aidl::android::hardware::wifi::supplicant::WpsErrorIndication",
   "referenced_type" : "_ZTIN4aidl7android8hardware4wifi10supplicant18WpsErrorIndicationE",
   "self_type" : "_ZTIN4aidl7android8hardware4wifi10supplicant18WpsErrorIndicationE",
   "size" : 4,
   "source_file" : "out/soong/.intermediates/hardware/interfaces/wifi/supplicant/aidl/android.hardware.wifi.supplicant-V1-ndk-source/gen/include/aidl/android/hardware/wifi/supplicant/WpsErrorIndication.h",
   "underlying_type" : "_ZTIi"
  },
  {
   "alignment" : 4,
   "enum_fields" :
   [
    {
     "enum_field_value" : 0,
     "name" : "aidl::android::hardware::wifi::supplicant::WpsProvisionMethod::PBC"
    },
    {
     "enum_field_value" : 1,
     "name" : "aidl::android::hardware::wifi::supplicant::WpsProvisionMethod::DISPLAY"
    },
    {
     "enum_field_value" : 2,
     "name" : "aidl::android::hardware::wifi::supplicant::WpsProvisionMethod::KEYPAD"
    }
   ],
   "linker_set_key" : "_ZTIN4aidl7android8hardware4wifi10supplicant18WpsProvisionMethodE",
   "name" : "aidl::android::hardware::wifi::supplicant::WpsProvisionMethod",
   "referenced_type" : "_ZTIN4aidl7android8hardware4wifi10supplicant18WpsProvisionMethodE",
   "self_type" : "_ZTIN4aidl7android8hardware4wifi10supplicant18WpsProvisionMethodE",
   "size" : 4,
   "source_file" : "out/soong/.intermediates/hardware/interfaces/wifi/supplicant/aidl/android.hardware.wifi.supplicant-V1-ndk-source/gen/include/aidl/android/hardware/wifi/supplicant/WpsProvisionMethod.h",
   "underlying_type" : "_ZTIi"
  },
  {
   "alignment" : 4,
   "enum_fields" :
   [
    {
     "enum_field_value" : 2048,
     "name" : "aidl::android::hardware::wifi::supplicant::GroupMgmtCipherMask::BIP_GMAC_128"
    },
    {
     "enum_field_value" : 4096,
     "name" : "aidl::android::hardware::wifi::supplicant::GroupMgmtCipherMask::BIP_GMAC_256"
    },
    {
     "enum_field_value" : 8192,
     "name" : "aidl::android::hardware::wifi::supplicant::GroupMgmtCipherMask::BIP_CMAC_256"
    }
   ],
   "linker_set_key" : "_ZTIN4aidl7android8hardware4wifi10supplicant19GroupMgmtCipherMaskE",
   "name" : "aidl::android::hardware::wifi::supplicant::GroupMgmtCipherMask",
   "referenced_type" : "_ZTIN4aidl7android8hardware4wifi10supplicant19GroupMgmtCipherMaskE",
   "self_type" : "_ZTIN4aidl7android8hardware4wifi10supplicant19GroupMgmtCipherMaskE",
   "size" : 4,
   "source_file" : "out/soong/.intermediates/hardware/interfaces/wifi/supplicant/aidl/android.hardware.wifi.supplicant-V1-ndk-source/gen/include/aidl/android/hardware/wifi/supplicant/GroupMgmtCipherMask.h",
   "underlying_type" : "_ZTIi"
  },
  {
   "alignment" : 1,
   "enum_fields" :
   [
    {
     "enum_field_value" : 0,
     "name" : "aidl::android::hardware::wifi::supplicant::QosPolicyStatusCode::QOS_POLICY_SUCCESS"
    },
    {
     "enum_field_value" : 1,
     "name" : "aidl::android::hardware::wifi::supplicant::QosPolicyStatusCode::QOS_POLICY_REQUEST_DECLINED"
    },
    {
     "enum_field_value" : 2,
     "name" : "aidl::android::hardware::wifi::supplicant::QosPolicyStatusCode::QOS_POLICY_CLASSIFIER_NOT_SUPPORTED"
    },
    {
     "enum_field_value" : 3,
     "name" : "aidl::android::hardware::wifi::supplicant::QosPolicyStatusCode::QOS_POLICY_INSUFFICIENT_RESOURCES"
    }
   ],
   "linker_set_key" : "_ZTIN4aidl7android8hardware4wifi10supplicant19QosPolicyStatusCodeE",
   "name" : "aidl::android::hardware::wifi::supplicant::QosPolicyStatusCode",
   "referenced_type" : "_ZTIN4aidl7android8hardware4wifi10supplicant19QosPolicyStatusCodeE",
   "self_type" : "_ZTIN4aidl7android8hardware4wifi10supplicant19QosPolicyStatusCodeE",
   "size" : 1,
   "source_file" : "out/soong/.intermediates/hardware/interfaces/wifi/supplicant/aidl/android.hardware.wifi.supplicant-V1-ndk-source/gen/include/aidl/android/hardware/wifi/supplicant/QosPolicyStatusCode.h",
   "underlying_type" : "_ZTIa"
  },
  {
   "alignment" : 1,
   "enum_fields" :
   [
    {
     "enum_field_value" : 0,
     "name" : "aidl::android::hardware::wifi::supplicant::QosPolicyRequestType::QOS_POLICY_ADD"
    },
    {
     "enum_field_value" : 1,
     "name" : "aidl::android::hardware::wifi::supplicant::QosPolicyRequestType::QOS_POLICY_REMOVE"
    }
   ],
   "linker_set_key" : "_ZTIN4aidl7android8hardware4wifi10supplicant20QosPolicyRequestTypeE",
   "name" : "aidl::android::hardware::wifi::supplicant::QosPolicyRequestType",
   "referenced_type" : "_ZTIN4aidl7android8hardware4wifi10supplicant20QosPolicyRequestTypeE",
   "self_type" : "_ZTIN4aidl7android8hardware4wifi10supplicant20QosPolicyRequestTypeE",
   "size" : 1,
   "source_file" : "out/soong/.intermediates/hardware/interfaces/wifi/supplicant/aidl/android.hardware.wifi.supplicant-V1-ndk-source/gen/include/aidl/android/hardware/wifi/supplicant/QosPolicyRequestType.h",
   "underlying_type" : "_ZTIa"
  },
  {
   "alignment" : 4,
   "enum_fields" :
   [
    {
     "enum_field_value" : 4,
     "name" : "aidl::android::hardware::wifi::supplicant::ISupplicantStaNetwork::WEP_KEYS_MAX_NUM"
    }
   ],
   "linker_set_key" : "_ZTIN4aidl7android8hardware4wifi10supplicant21ISupplicantStaNetwork17$WEP_KEYS_MAX_NUME",
   "name" : "aidl::android::hardware::wifi::supplicant::ISupplicantStaNetwork::(unnamed enum at out/soong/.intermediates/hardware/interfaces/wifi/supplicant/aidl/android.hardware.wifi.supplicant-V1-ndk-source/gen/include/aidl/android/hardware/wifi/supplicant/ISupplicantStaNetwork.h:42:3)",
   "referenced_type" : "_ZTIN4aidl7android8hardware4wifi10supplicant21ISupplicantStaNetwork17$WEP_KEYS_MAX_NUME",
   "self_type" : "_ZTIN4aidl7android8hardware4wifi10supplicant21ISupplicantStaNetwork17$WEP_KEYS_MAX_NUME",
   "size" : 4,
   "source_file" : "out/soong/.intermediates/hardware/interfaces/wifi/supplicant/aidl/android.hardware.wifi.supplicant-V1-ndk-source/gen/include/aidl/android/hardware/wifi/supplicant/ISupplicantStaNetwork.h",
   "underlying_type" : "_ZTIi"
  },
  {
   "alignment" : 4,
   "enum_fields" :
   [
    {
     "enum_field_value" : 32,
     "name" : "aidl::android::hardware::wifi::supplicant::ISupplicantStaNetwork::SSID_MAX_LEN_IN_BYTES"
    }
   ],
   "linker_set_key" : "_ZTIN4aidl7android8hardware4wifi10supplicant21ISupplicantStaNetwork22$SSID_MAX_LEN_IN_BYTESE",
   "name" : "aidl::android::hardware::wifi::supplicant::ISupplicantStaNetwork::(unnamed enum at out/soong/.intermediates/hardware/interfaces/wifi/supplicant/aidl/android.hardware.wifi.supplicant-V1-ndk-source/gen/include/aidl/android/hardware/wifi/supplicant/ISupplicantStaNetwork.h:39:3)",
   "referenced_type" : "_ZTIN4aidl7android8hardware4wifi10supplicant21ISupplicantStaNetwork22$SSID_MAX_LEN_IN_BYTESE",
   "self_type" : "_ZTIN4aidl7android8hardware4wifi10supplicant21ISupplicantStaNetwork22$SSID_MAX_LEN_IN_BYTESE",
   "size" : 4,
   "source_file" : "out/soong/.intermediates/hardware/interfaces/wifi/supplicant/aidl/android.hardware.wifi.supplicant-V1-ndk-source/gen/include/aidl/android/hardware/wifi/supplicant/ISupplicantStaNetwork.h",
   "underlying_type" : "_ZTIi"
  },
  {
   "alignment" : 4,
   "enum_fields" :
   [
    {
     "enum_field_value" : 5,
     "name" : "aidl::android::hardware::wifi::supplicant::ISupplicantStaNetwork::WEP40_KEY_LEN_IN_BYTES"
    }
   ],
   "linker_set_key" : "_ZTIN4aidl7android8hardware4wifi10supplicant21ISupplicantStaNetwork23$WEP40_KEY_LEN_IN_BYTESE",
   "name" : "aidl::android::hardware::wifi::supplicant::ISupplicantStaNetwork::(unnamed enum at out/soong/.intermediates/hardware/interfaces/wifi/supplicant/aidl/android.hardware.wifi.supplicant-V1-ndk-source/gen/include/aidl/android/hardware/wifi/supplicant/ISupplicantStaNetwork.h:43:3)",
   "referenced_type" : "_ZTIN4aidl7android8hardware4wifi10supplicant21ISupplicantStaNetwork23$WEP40_KEY_LEN_IN_BYTESE",
   "self_type" : "_ZTIN4aidl7android8hardware4wifi10supplicant21ISupplicantStaNetwork23$WEP40_KEY_LEN_IN_BYTESE",
   "size" : 4,
   "source_file" : "out/soong/.intermediates/hardware/interfaces/wifi/supplicant/aidl/android.hardware.wifi.supplicant-V1-ndk-source/gen/include/aidl/android/hardware/wifi/supplicant/ISupplicantStaNetwork.h",
   "underlying_type" : "_ZTIi"
  },
  {
   "alignment" : 4,
   "enum_fields" :
   [
    {
     "enum_field_value" : 13,
     "name" : "aidl::android::hardware::wifi::supplicant::ISupplicantStaNetwork::WEP104_KEY_LEN_IN_BYTES"
    }
   ],
   "linker_set_key" : "_ZTIN4aidl7android8hardware4wifi10supplicant21ISupplicantStaNetwork24$WEP104_KEY_LEN_IN_BYTESE",
   "name" : "aidl::android::hardware::wifi::supplicant::ISupplicantStaNetwork::(unnamed enum at out/soong/.intermediates/hardware/interfaces/wifi/supplicant/aidl/android.hardware.wifi.supplicant-V1-ndk-source/gen/include/aidl/android/hardware/wifi/supplicant/ISupplicantStaNetwork.h:44:3)",
   "referenced_type" : "_ZTIN4aidl7android8hardware4wifi10supplicant21ISupplicantStaNetwork24$WEP104_KEY_LEN_IN_BYTESE",
   "self_type" : "_ZTIN4aidl7android8hardware4wifi10supplicant21ISupplicantStaNetwork24$WEP104_KEY_LEN_IN_BYTESE",
   "size" : 4,
   "source_file" : "out/soong/.intermediates/hardware/interfaces/wifi/supplicant/aidl/android.hardware.wifi.supplicant-V1-ndk-source/gen/include/aidl/android/hardware/wifi/supplicant/ISupplicantStaNetwork.h",
   "underlying_type" : "_ZTIi"
  },
  {
   "alignment" : 4,
   "enum_fields" :
   [
    {
     "enum_field_value" : 63,
     "name" : "aidl::android::hardware::wifi::supplicant::ISupplicantStaNetwork::PSK_PASSPHRASE_MAX_LEN_IN_BYTES"
    }
   ],
   "linker_set_key" : "_ZTIN4aidl7android8hardware4wifi10supplicant21ISupplicantStaNetwork32$PSK_PASSPHRASE_MAX_LEN_IN_BYTESE",
   "name" : "aidl::android::hardware::wifi::supplicant::ISupplicantStaNetwork::(unnamed enum at out/soong/.intermediates/hardware/interfaces/wifi/supplicant/aidl/android.hardware.wifi.supplicant-V1-ndk-source/gen/include/aidl/android/hardware/wifi/supplicant/ISupplicantStaNetwork.h:41:3)",
   "referenced_type" : "_ZTIN4aidl7android8hardware4wifi10supplicant21ISupplicantStaNetwork32$PSK_PASSPHRASE_MAX_LEN_IN_BYTESE",
   "self_type" : "_ZTIN4aidl7android8hardware4wifi10supplicant21ISupplicantStaNetwork32$PSK_PASSPHRASE_MAX_LEN_IN_BYTESE",
   "size" : 4,
   "source_file" : "out/soong/.intermediates/hardware/interfaces/wifi/supplicant/aidl/android.hardware.wifi.supplicant-V1-ndk-source/gen/include/aidl/android/hardware/wifi/supplicant/ISupplicantStaNetwork.h",
   "underlying_type" : "_ZTIi"
  },
  {
   "alignment" : 4,
   "enum_fields" :
   [
    {
     "enum_field_value" : 8,
     "name" : "aidl::android::hardware::wifi::supplicant::ISupplicantStaNetwork::PSK_PASSPHRASE_MIN_LEN_IN_BYTES"
    }
   ],
   "linker_set_key" : "_ZTIN4aidl7android8hardware4wifi10supplicant21ISupplicantStaNetwork32$PSK_PASSPHRASE_MIN_LEN_IN_BYTESE",
   "name" : "aidl::android::hardware::wifi::supplicant::ISupplicantStaNetwork::(unnamed enum at out/soong/.intermediates/hardware/interfaces/wifi/supplicant/aidl/android.hardware.wifi.supplicant-V1-ndk-source/gen/include/aidl/android/hardware/wifi/supplicant/ISupplicantStaNetwork.h:40:3)",
   "referenced_type" : "_ZTIN4aidl7android8hardware4wifi10supplicant21ISupplicantStaNetwork32$PSK_PASSPHRASE_MIN_LEN_IN_BYTESE",
   "self_type" : "_ZTIN4aidl7android8hardware4wifi10supplicant21ISupplicantStaNetwork32$PSK_PASSPHRASE_MIN_LEN_IN_BYTESE",
   "size" : 4,
   "source_file" : "out/soong/.intermediates/hardware/interfaces/wifi/supplicant/aidl/android.hardware.wifi.supplicant-V1-ndk-source/gen/include/aidl/android/hardware/wifi/supplicant/ISupplicantStaNetwork.h",
   "underlying_type" : "_ZTIi"
  },
  {
   "alignment" : 1,
   "enum_fields" :
   [
    {
     "enum_field_value" : 0,
     "name" : "aidl::android::hardware::wifi::supplicant::P2pProvDiscStatusCode::SUCCESS"
    },
    {
     "enum_field_value" : 1,
     "name" : "aidl::android::hardware::wifi::supplicant::P2pProvDiscStatusCode::TIMEOUT"
    },
    {
     "enum_field_value" : 2,
     "name" : "aidl::android::hardware::wifi::supplicant::P2pProvDiscStatusCode::REJECTED"
    },
    {
     "enum_field_value" : 3,
     "name" : "aidl::android::hardware::wifi::supplicant::P2pProvDiscStatusCode::TIMEOUT_JOIN"
    },
    {
     "enum_field_value" : 4,
     "name" : "aidl::android::hardware::wifi::supplicant::P2pProvDiscStatusCode::INFO_UNAVAILABLE"
    }
   ],
   "linker_set_key" : "_ZTIN4aidl7android8hardware4wifi10supplicant21P2pProvDiscStatusCodeE",
   "name" : "aidl::android::hardware::wifi::supplicant::P2pProvDiscStatusCode",
   "referenced_type" : "_ZTIN4aidl7android8hardware4wifi10supplicant21P2pProvDiscStatusCodeE",
   "self_type" : "_ZTIN4aidl7android8hardware4wifi10supplicant21P2pProvDiscStatusCodeE",
   "size" : 1,
   "source_file" : "out/soong/.intermediates/hardware/interfaces/wifi/supplicant/aidl/android.hardware.wifi.supplicant-V1-ndk-source/gen/include/aidl/android/hardware/wifi/supplicant/P2pProvDiscStatusCode.h",
   "underlying_type" : "_ZTIa"
  },
  {
   "alignment" : 4,
   "enum_fields" :
   [
    {
     "enum_field_value" : 0,
     "name" : "aidl::android::hardware::wifi::supplicant::StaIfaceCallbackState::DISCONNECTED"
    },
    {
     "enum_field_value" : 1,
     "name" : "aidl::android::hardware::wifi::supplicant::StaIfaceCallbackState::IFACE_DISABLED"
    },
    {
     "enum_field_value" : 2,
     "name" : "aidl::android::hardware::wifi::supplicant::StaIfaceCallbackState::INACTIVE"
    },
    {
     "enum_field_value" : 3,
     "name" : "aidl::android::hardware::wifi::supplicant::StaIfaceCallbackState::SCANNING"
    },
    {
     "enum_field_value" : 4,
     "name" : "aidl::android::hardware::wifi::supplicant::StaIfaceCallbackState::AUTHENTICATING"
    },
    {
     "enum_field_value" : 5,
     "name" : "aidl::android::hardware::wifi::supplicant::StaIfaceCallbackState::ASSOCIATING"
    },
    {
     "enum_field_value" : 6,
     "name" : "aidl::android::hardware::wifi::supplicant::StaIfaceCallbackState::ASSOCIATED"
    },
    {
     "enum_field_value" : 7,
     "name" : "aidl::android::hardware::wifi::supplicant::StaIfaceCallbackState::FOURWAY_HANDSHAKE"
    },
    {
     "enum_field_value" : 8,
     "name" : "aidl::android::hardware::wifi::supplicant::StaIfaceCallbackState::GROUP_HANDSHAKE"
    },
    {
     "enum_field_value" : 9,
     "name" : "aidl::android::hardware::wifi::supplicant::StaIfaceCallbackState::COMPLETED"
    }
   ],
   "linker_set_key" : "_ZTIN4aidl7android8hardware4wifi10supplicant21StaIfaceCallbackStateE",
   "name" : "aidl::android::hardware::wifi::supplicant::StaIfaceCallbackState",
   "referenced_type" : "_ZTIN4aidl7android8hardware4wifi10supplicant21StaIfaceCallbackStateE",
   "self_type" : "_ZTIN4aidl7android8hardware4wifi10supplicant21StaIfaceCallbackStateE",
   "size" : 4,
   "source_file" : "out/soong/.intermediates/hardware/interfaces/wifi/supplicant/aidl/android.hardware.wifi.supplicant-V1-ndk-source/gen/include/aidl/android/hardware/wifi/supplicant/StaIfaceCallbackState.h",
   "underlying_type" : "_ZTIi"
  },
  {
   "alignment" : 4,
   "enum_fields" :
   [
    {
     "enum_field_value" : 1,
     "name" : "aidl::android::hardware::wifi::supplicant::P2pGroupCapabilityMask::GROUP_OWNER"
    },
    {
     "enum_field_value" : 2,
     "name" : "aidl::android::hardware::wifi::supplicant::P2pGroupCapabilityMask::PERSISTENT_GROUP"
    },
    {
     "enum_field_value" : 4,
     "name" : "aidl::android::hardware::wifi::supplicant::P2pGroupCapabilityMask::GROUP_LIMIT"
    },
    {
     "enum_field_value" : 8,
     "name" : "aidl::android::hardware::wifi::supplicant::P2pGroupCapabilityMask::INTRA_BSS_DIST"
    },
    {
     "enum_field_value" : 16,
     "name" : "aidl::android::hardware::wifi::supplicant::P2pGroupCapabilityMask::CROSS_CONN"
    },
    {
     "enum_field_value" : 32,
     "name" : "aidl::android::hardware::wifi::supplicant::P2pGroupCapabilityMask::PERSISTENT_RECONN"
    },
    {
     "enum_field_value" : 64,
     "name" : "aidl::android::hardware::wifi::supplicant::P2pGroupCapabilityMask::GROUP_FORMATION"
    }
   ],
   "linker_set_key" : "_ZTIN4aidl7android8hardware4wifi10supplicant22P2pGroupCapabilityMaskE",
   "name" : "aidl::android::hardware::wifi::supplicant::P2pGroupCapabilityMask",
   "referenced_type" : "_ZTIN4aidl7android8hardware4wifi10supplicant22P2pGroupCapabilityMaskE",
   "self_type" : "_ZTIN4aidl7android8hardware4wifi10supplicant22P2pGroupCapabilityMaskE",
   "size" : 4,
   "source_file" : "out/soong/.intermediates/hardware/interfaces/wifi/supplicant/aidl/android.hardware.wifi.supplicant-V1-ndk-source/gen/include/aidl/android/hardware/wifi/supplicant/P2pGroupCapabilityMask.h",
   "underlying_type" : "_ZTIi"
  },
  {
   "alignment" : 1,
   "enum_fields" :
   [
    {
     "enum_field_value" : 0,
     "name" : "aidl::android::hardware::wifi::supplicant::MboTransitionReasonCode::UNSPECIFIED"
    },
    {
     "enum_field_value" : 1,
     "name" : "aidl::android::hardware::wifi::supplicant::MboTransitionReasonCode::EXCESSIVE_FRAME_LOSS"
    },
    {
     "enum_field_value" : 2,
     "name" : "aidl::android::hardware::wifi::supplicant::MboTransitionReasonCode::EXCESSIVE_TRAFFIC_DELAY"
    },
    {
     "enum_field_value" : 3,
     "name" : "aidl::android::hardware::wifi::supplicant::MboTransitionReasonCode::INSUFFICIENT_BANDWIDTH"
    },
    {
     "enum_field_value" : 4,
     "name" : "aidl::android::hardware::wifi::supplicant::MboTransitionReasonCode::LOAD_BALANCING"
    },
    {
     "enum_field_value" : 5,
     "name" : "aidl::android::hardware::wifi::supplicant::MboTransitionReasonCode::LOW_RSSI"
    },
    {
     "enum_field_value" : 6,
     "name" : "aidl::android::hardware::wifi::supplicant::MboTransitionReasonCode::RX_EXCESSIVE_RETRIES"
    },
    {
     "enum_field_value" : 7,
     "name" : "aidl::android::hardware::wifi::supplicant::MboTransitionReasonCode::HIGH_INTERFERENCE"
    },
    {
     "enum_field_value" : 8,
     "name" : "aidl::android::hardware::wifi::supplicant::MboTransitionReasonCode::GRAY_ZONE"
    },
    {
     "enum_field_value" : 9,
     "name" : "aidl::android::hardware::wifi::supplicant::MboTransitionReasonCode::TRANSITION_TO_PREMIUM_AP"
    }
   ],
   "linker_set_key" : "_ZTIN4aidl7android8hardware4wifi10supplicant23MboTransitionReasonCodeE",
   "name" : "aidl::android::hardware::wifi::supplicant::MboTransitionReasonCode",
   "referenced_type" : "_ZTIN4aidl7android8hardware4wifi10supplicant23MboTransitionReasonCodeE",
   "self_type" : "_ZTIN4aidl7android8hardware4wifi10supplicant23MboTransitionReasonCodeE",
   "size" : 1,
   "source_file" : "out/soong/.intermediates/hardware/interfaces/wifi/supplicant/aidl/android.hardware.wifi.supplicant-V1-ndk-source/gen/include/aidl/android/hardware/wifi/supplicant/MboTransitionReasonCode.h",
   "underlying_type" : "_ZTIa"
  },
  {
   "alignment" : 4,
   "enum_fields" :
   [
    {
     "enum_field_value" : 1,
     "name" : "aidl::android::hardware::wifi::supplicant::WpaDriverCapabilitiesMask::MBO"
    },
    {
     "enum_field_value" : 2,
     "name" : "aidl::android::hardware::wifi::supplicant::WpaDriverCapabilitiesMask::OCE"
    },
    {
     "enum_field_value" : 4,
     "name" : "aidl::android::hardware::wifi::supplicant::WpaDriverCapabilitiesMask::SAE_PK"
    },
    {
     "enum_field_value" : 8,
     "name" : "aidl::android::hardware::wifi::supplicant::WpaDriverCapabilitiesMask::WFD_R2"
    },
    {
     "enum_field_value" : 16,
     "name" : "aidl::android::hardware::wifi::supplicant::WpaDriverCapabilitiesMask::TRUST_ON_FIRST_USE"
    }
   ],
   "linker_set_key" : "_ZTIN4aidl7android8hardware4wifi10supplicant25WpaDriverCapabilitiesMaskE",
   "name" : "aidl::android::hardware::wifi::supplicant::WpaDriverCapabilitiesMask",
   "referenced_type" : "_ZTIN4aidl7android8hardware4wifi10supplicant25WpaDriverCapabilitiesMaskE",
   "self_type" : "_ZTIN4aidl7android8hardware4wifi10supplicant25WpaDriverCapabilitiesMaskE",
   "size" : 4,
   "source_file" : "out/soong/.intermediates/hardware/interfaces/wifi/supplicant/aidl/android.hardware.wifi.supplicant-V1-ndk-source/gen/include/aidl/android/hardware/wifi/supplicant/WpaDriverCapabilitiesMask.h",
   "underlying_type" : "_ZTIi"
  },
  {
   "alignment" : 4,
   "enum_fields" :
   [
    {
     "enum_field_value" : 1,
     "name" : "aidl::android::hardware::wifi::supplicant::TransitionDisableIndication::USE_WPA3_PERSONAL"
    },
    {
     "enum_field_value" : 2,
     "name" : "aidl::android::hardware::wifi::supplicant::TransitionDisableIndication::USE_SAE_PK"
    },
    {
     "enum_field_value" : 4,
     "name" : "aidl::android::hardware::wifi::supplicant::TransitionDisableIndication::USE_WPA3_ENTERPRISE"
    },
    {
     "enum_field_value" : 8,
     "name" : "aidl::android::hardware::wifi::supplicant::TransitionDisableIndication::USE_ENHANCED_OPEN"
    }
   ],
   "linker_set_key" : "_ZTIN4aidl7android8hardware4wifi10supplicant27TransitionDisableIndicationE",
   "name" : "aidl::android::hardware::wifi::supplicant::TransitionDisableIndication",
   "referenced_type" : "_ZTIN4aidl7android8hardware4wifi10supplicant27TransitionDisableIndicationE",
   "self_type" : "_ZTIN4aidl7android8hardware4wifi10supplicant27TransitionDisableIndicationE",
   "size" : 4,
   "source_file" : "out/soong/.intermediates/hardware/interfaces/wifi/supplicant/aidl/android.hardware.wifi.supplicant-V1-ndk-source/gen/include/aidl/android/hardware/wifi/supplicant/TransitionDisableIndication.h",
   "underlying_type" : "_ZTIi"
  },
  {
   "alignment" : 4,
   "enum_fields" :
   [
    {
     "enum_field_value" : 0,
     "name" : "aidl::android::hardware::wifi::supplicant::AuxiliarySupplicantEventCode::EAP_METHOD_SELECTED"
    },
    {
     "enum_field_value" : 1,
     "name" : "aidl::android::hardware::wifi::supplicant::AuxiliarySupplicantEventCode::SSID_TEMP_DISABLED"
    },
    {
     "enum_field_value" : 2,
     "name" : "aidl::android::hardware::wifi::supplicant::AuxiliarySupplicantEventCode::OPEN_SSL_FAILURE"
    }
   ],
   "linker_set_key" : "_ZTIN4aidl7android8hardware4wifi10supplicant28AuxiliarySupplicantEventCodeE",
   "name" : "aidl::android::hardware::wifi::supplicant::AuxiliarySupplicantEventCode",
   "referenced_type" : "_ZTIN4aidl7android8hardware4wifi10supplicant28AuxiliarySupplicantEventCodeE",
   "self_type" : "_ZTIN4aidl7android8hardware4wifi10supplicant28AuxiliarySupplicantEventCodeE",
   "size" : 4,
   "source_file" : "out/soong/.intermediates/hardware/interfaces/wifi/supplicant/aidl/android.hardware.wifi.supplicant-V1-ndk-source/gen/include/aidl/android/hardware/wifi/supplicant/AuxiliarySupplicantEventCode.h",
   "underlying_type" : "_ZTIi"
  },
  {
   "alignment" : 1,
   "enum_fields" :
   [
    {
     "enum_field_value" : 0,
     "name" : "aidl::android::hardware::wifi::supplicant::MboAssocDisallowedReasonCode::RESERVED"
    },
    {
     "enum_field_value" : 1,
     "name" : "aidl::android::hardware::wifi::supplicant::MboAssocDisallowedReasonCode::UNSPECIFIED"
    },
    {
     "enum_field_value" : 2,
     "name" : "aidl::android::hardware::wifi::supplicant::MboAssocDisallowedReasonCode::MAX_NUM_STA_ASSOCIATED"
    },
    {
     "enum_field_value" : 3,
     "name" : "aidl::android::hardware::wifi::supplicant::MboAssocDisallowedReasonCode::AIR_INTERFACE_OVERLOADED"
    },
    {
     "enum_field_value" : 4,
     "name" : "aidl::android::hardware::wifi::supplicant::MboAssocDisallowedReasonCode::AUTH_SERVER_OVERLOADED"
    },
    {
     "enum_field_value" : 5,
     "name" : "aidl::android::hardware::wifi::supplicant::MboAssocDisallowedReasonCode::INSUFFICIENT_RSSI"
    }
   ],
   "linker_set_key" : "_ZTIN4aidl7android8hardware4wifi10supplicant28MboAssocDisallowedReasonCodeE",
   "name" : "aidl::android::hardware::wifi::supplicant::MboAssocDisallowedReasonCode",
   "referenced_type" : "_ZTIN4aidl7android8hardware4wifi10supplicant28MboAssocDisallowedReasonCodeE",
   "self_type" : "_ZTIN4aidl7android8hardware4wifi10supplicant28MboAssocDisallowedReasonCodeE",
   "size" : 1,
   "source_file" : "out/soong/.intermediates/hardware/interfaces/wifi/supplicant/aidl/android.hardware.wifi.supplicant-V1-ndk-source/gen/include/aidl/android/hardware/wifi/supplicant/MboAssocDisallowedReasonCode.h",
   "underlying_type" : "_ZTIa"
  },
  {
   "alignment" : 4,
   "enum_fields" :
   [
    {
     "enum_field_value" : 1,
     "name" : "aidl::android::hardware::wifi::supplicant::QosPolicyClassifierParamsMask::SRC_IP"
    },
    {
     "enum_field_value" : 2,
     "name" : "aidl::android::hardware::wifi::supplicant::QosPolicyClassifierParamsMask::DST_IP"
    },
    {
     "enum_field_value" : 4,
     "name" : "aidl::android::hardware::wifi::supplicant::QosPolicyClassifierParamsMask::SRC_PORT"
    },
    {
     "enum_field_value" : 8,
     "name" : "aidl::android::hardware::wifi::supplicant::QosPolicyClassifierParamsMask::DST_PORT_RANGE"
    },
    {
     "enum_field_value" : 16,
     "name" : "aidl::android::hardware::wifi::supplicant::QosPolicyClassifierParamsMask::PROTOCOL_NEXT_HEADER"
    },
    {
     "enum_field_value" : 32,
     "name" : "aidl::android::hardware::wifi::supplicant::QosPolicyClassifierParamsMask::FLOW_LABEL"
    },
    {
     "enum_field_value" : 64,
     "name" : "aidl::android::hardware::wifi::supplicant::QosPolicyClassifierParamsMask::DOMAIN_NAME"
    }
   ],
   "linker_set_key" : "_ZTIN4aidl7android8hardware4wifi10supplicant29QosPolicyClassifierParamsMaskE",
   "name" : "aidl::android::hardware::wifi::supplicant::QosPolicyClassifierParamsMask",
   "referenced_type" : "_ZTIN4aidl7android8hardware4wifi10supplicant29QosPolicyClassifierParamsMaskE",
   "self_type" : "_ZTIN4aidl7android8hardware4wifi10supplicant29QosPolicyClassifierParamsMaskE",
   "size" : 4,
   "source_file" : "out/soong/.intermediates/hardware/interfaces/wifi/supplicant/aidl/android.hardware.wifi.supplicant-V1-ndk-source/gen/include/aidl/android/hardware/wifi/supplicant/QosPolicyClassifierParamsMask.h",
   "underlying_type" : "_ZTIi"
  },
  {
   "alignment" : 4,
   "enum_fields" :
   [
    {
     "enum_field_value" : 0,
     "name" : "aidl::android::hardware::wifi::supplicant::MboCellularDataConnectionPrefValue::EXCLUDED"
    },
    {
     "enum_field_value" : 1,
     "name" : "aidl::android::hardware::wifi::supplicant::MboCellularDataConnectionPrefValue::NOT_PREFERRED"
    },
    {
     "enum_field_value" : 255,
     "name" : "aidl::android::hardware::wifi::supplicant::MboCellularDataConnectionPrefValue::PREFERRED"
    }
   ],
   "linker_set_key" : "_ZTIN4aidl7android8hardware4wifi10supplicant34MboCellularDataConnectionPrefValueE",
   "name" : "aidl::android::hardware::wifi::supplicant::MboCellularDataConnectionPrefValue",
   "referenced_type" : "_ZTIN4aidl7android8hardware4wifi10supplicant34MboCellularDataConnectionPrefValueE",
   "self_type" : "_ZTIN4aidl7android8hardware4wifi10supplicant34MboCellularDataConnectionPrefValueE",
   "size" : 4,
   "source_file" : "out/soong/.intermediates/hardware/interfaces/wifi/supplicant/aidl/android.hardware.wifi.supplicant-V1-ndk-source/gen/include/aidl/android/hardware/wifi/supplicant/MboCellularDataConnectionPrefValue.h",
   "underlying_type" : "_ZTIi"
  },
  {
   "alignment" : 4,
   "enum_fields" :
   [
    {
     "enum_field_value" : 0,
     "name" : "aidl::android::hardware::wifi::supplicant::DppAkm::PSK"
    },
    {
     "enum_field_value" : 1,
     "name" : "aidl::android::hardware::wifi::supplicant::DppAkm::PSK_SAE"
    },
    {
     "enum_field_value" : 2,
     "name" : "aidl::android::hardware::wifi::supplicant::DppAkm::SAE"
    },
    {
     "enum_field_value" : 3,
     "name" : "aidl::android::hardware::wifi::supplicant::DppAkm::DPP"
    }
   ],
   "linker_set_key" : "_ZTIN4aidl7android8hardware4wifi10supplicant6DppAkmE",
   "name" : "aidl::android::hardware::wifi::supplicant::DppAkm",
   "referenced_type" : "_ZTIN4aidl7android8hardware4wifi10supplicant6DppAkmE",
   "self_type" : "_ZTIN4aidl7android8hardware4wifi10supplicant6DppAkmE",
   "size" : 4,
   "source_file" : "out/soong/.intermediates/hardware/interfaces/wifi/supplicant/aidl/android.hardware.wifi.supplicant-V1-ndk-source/gen/include/aidl/android/hardware/wifi/supplicant/DppAkm.h",
   "underlying_type" : "_ZTIi"
  },
  {
   "alignment" : 4,
   "enum_fields" :
   [
    {
     "enum_field_value" : 0,
     "name" : "aidl::android::hardware::wifi::supplicant::DppCurve::PRIME256V1"
    },
    {
     "enum_field_value" : 1,
     "name" : "aidl::android::hardware::wifi::supplicant::DppCurve::SECP384R1"
    },
    {
     "enum_field_value" : 2,
     "name" : "aidl::android::hardware::wifi::supplicant::DppCurve::SECP521R1"
    },
    {
     "enum_field_value" : 3,
     "name" : "aidl::android::hardware::wifi::supplicant::DppCurve::BRAINPOOLP256R1"
    },
    {
     "enum_field_value" : 4,
     "name" : "aidl::android::hardware::wifi::supplicant::DppCurve::BRAINPOOLP384R1"
    },
    {
     "enum_field_value" : 5,
     "name" : "aidl::android::hardware::wifi::supplicant::DppCurve::BRAINPOOLP512R1"
    }
   ],
   "linker_set_key" : "_ZTIN4aidl7android8hardware4wifi10supplicant8DppCurveE",
   "name" : "aidl::android::hardware::wifi::supplicant::DppCurve",
   "referenced_type" : "_ZTIN4aidl7android8hardware4wifi10supplicant8DppCurveE",
   "self_type" : "_ZTIN4aidl7android8hardware4wifi10supplicant8DppCurveE",
   "size" : 4,
   "source_file" : "out/soong/.intermediates/hardware/interfaces/wifi/supplicant/aidl/android.hardware.wifi.supplicant-V1-ndk-source/gen/include/aidl/android/hardware/wifi/supplicant/DppCurve.h",
   "underlying_type" : "_ZTIi"
  },
  {
   "alignment" : 4,
   "enum_fields" :
   [
    {
     "enum_field_value" : 0,
     "name" : "aidl::android::hardware::wifi::supplicant::OcspType::NONE"
    },
    {
     "enum_field_value" : 1,
     "name" : "aidl::android::hardware::wifi::supplicant::OcspType::REQUEST_CERT_STATUS"
    },
    {
     "enum_field_value" : 2,
     "name" : "aidl::android::hardware::wifi::supplicant::OcspType::REQUIRE_CERT_STATUS"
    },
    {
     "enum_field_value" : 3,
     "name" : "aidl::android::hardware::wifi::supplicant::OcspType::REQUIRE_ALL_CERTS_STATUS"
    }
   ],
   "linker_set_key" : "_ZTIN4aidl7android8hardware4wifi10supplicant8OcspTypeE",
   "name" : "aidl::android::hardware::wifi::supplicant::OcspType",
   "referenced_type" : "_ZTIN4aidl7android8hardware4wifi10supplicant8OcspTypeE",
   "self_type" : "_ZTIN4aidl7android8hardware4wifi10supplicant8OcspTypeE",
   "size" : 4,
   "source_file" : "out/soong/.intermediates/hardware/interfaces/wifi/supplicant/aidl/android.hardware.wifi.supplicant-V1-ndk-source/gen/include/aidl/android/hardware/wifi/supplicant/OcspType.h",
   "underlying_type" : "_ZTIi"
  },
  {
   "alignment" : 4,
   "enum_fields" :
   [
    {
     "enum_field_value" : 0,
     "name" : "aidl::android::hardware::wifi::supplicant::EapMethod::PEAP"
    },
    {
     "enum_field_value" : 1,
     "name" : "aidl::android::hardware::wifi::supplicant::EapMethod::TLS"
    },
    {
     "enum_field_value" : 2,
     "name" : "aidl::android::hardware::wifi::supplicant::EapMethod::TTLS"
    },
    {
     "enum_field_value" : 3,
     "name" : "aidl::android::hardware::wifi::supplicant::EapMethod::PWD"
    },
    {
     "enum_field_value" : 4,
     "name" : "aidl::android::hardware::wifi::supplicant::EapMethod::SIM"
    },
    {
     "enum_field_value" : 5,
     "name" : "aidl::android::hardware::wifi::supplicant::EapMethod::AKA"
    },
    {
     "enum_field_value" : 6,
     "name" : "aidl::android::hardware::wifi::supplicant::EapMethod::AKA_PRIME"
    },
    {
     "enum_field_value" : 7,
     "name" : "aidl::android::hardware::wifi::supplicant::EapMethod::WFA_UNAUTH_TLS"
    }
   ],
   "linker_set_key" : "_ZTIN4aidl7android8hardware4wifi10supplicant9EapMethodE",
   "name" : "aidl::android::hardware::wifi::supplicant::EapMethod",
   "referenced_type" : "_ZTIN4aidl7android8hardware4wifi10supplicant9EapMethodE",
   "self_type" : "_ZTIN4aidl7android8hardware4wifi10supplicant9EapMethodE",
   "size" : 4,
   "source_file" : "out/soong/.intermediates/hardware/interfaces/wifi/supplicant/aidl/android.hardware.wifi.supplicant-V1-ndk-source/gen/include/aidl/android/hardware/wifi/supplicant/EapMethod.h",
   "underlying_type" : "_ZTIi"
  },
  {
   "alignment" : 4,
   "enum_fields" :
   [
    {
     "enum_field_value" : 0,
     "name" : "aidl::android::hardware::wifi::supplicant::IfaceType::STA"
    },
    {
     "enum_field_value" : 1,
     "name" : "aidl::android::hardware::wifi::supplicant::IfaceType::P2P"
    }
   ],
   "linker_set_key" : "_ZTIN4aidl7android8hardware4wifi10supplicant9IfaceTypeE",
   "name" : "aidl::android::hardware::wifi::supplicant::IfaceType",
   "referenced_type" : "_ZTIN4aidl7android8hardware4wifi10supplicant9IfaceTypeE",
   "self_type" : "_ZTIN4aidl7android8hardware4wifi10supplicant9IfaceTypeE",
   "size" : 4,
   "source_file" : "out/soong/.intermediates/hardware/interfaces/wifi/supplicant/aidl/android.hardware.wifi.supplicant-V1-ndk-source/gen/include/aidl/android/hardware/wifi/supplicant/IfaceType.h",
   "underlying_type" : "_ZTIi"
  },
  {
   "alignment" : 1,
   "enum_fields" :
   [
    {
     "enum_field_value" : 0,
     "name" : "aidl::android::hardware::wifi::supplicant::IpVersion::VERSION_4"
    },
    {
     "enum_field_value" : 1,
     "name" : "aidl::android::hardware::wifi::supplicant::IpVersion::VERSION_6"
    }
   ],
   "linker_set_key" : "_ZTIN4aidl7android8hardware4wifi10supplicant9IpVersionE",
   "name" : "aidl::android::hardware::wifi::supplicant::IpVersion",
   "referenced_type" : "_ZTIN4aidl7android8hardware4wifi10supplicant9IpVersionE",
   "self_type" : "_ZTIN4aidl7android8hardware4wifi10supplicant9IpVersionE",
   "size" : 1,
   "source_file" : "out/soong/.intermediates/hardware/interfaces/wifi/supplicant/aidl/android.hardware.wifi.supplicant-V1-ndk-source/gen/include/aidl/android/hardware/wifi/supplicant/IpVersion.h",
   "underlying_type" : "_ZTIa"
  },
  {
   "alignment" : 1,
   "enum_fields" :
   [
    {
     "enum_field_value" : 0,
     "name" : "aidl::android::hardware::wifi::supplicant::OsuMethod::OMA_DM"
    },
    {
     "enum_field_value" : 1,
     "name" : "aidl::android::hardware::wifi::supplicant::OsuMethod::SOAP_XML_SPP"
    }
   ],
   "linker_set_key" : "_ZTIN4aidl7android8hardware4wifi10supplicant9OsuMethodE",
   "name" : "aidl::android::hardware::wifi::supplicant::OsuMethod",
   "referenced_type" : "_ZTIN4aidl7android8hardware4wifi10supplicant9OsuMethodE",
   "self_type" : "_ZTIN4aidl7android8hardware4wifi10supplicant9OsuMethodE",
   "size" : 1,
   "source_file" : "out/soong/.intermediates/hardware/interfaces/wifi/supplicant/aidl/android.hardware.wifi.supplicant-V1-ndk-source/gen/include/aidl/android/hardware/wifi/supplicant/OsuMethod.h",
   "underlying_type" : "_ZTIa"
  },
  {
   "alignment" : 4,
   "enum_fields" :
   [
    {
     "enum_field_value" : 1,
     "name" : "aidl::android::hardware::wifi::supplicant::ProtoMask::WPA"
    },
    {
     "enum_field_value" : 2,
     "name" : "aidl::android::hardware::wifi::supplicant::ProtoMask::RSN"
    },
    {
     "enum_field_value" : 4,
     "name" : "aidl::android::hardware::wifi::supplicant::ProtoMask::WAPI"
    },
    {
     "enum_field_value" : 8,
     "name" : "aidl::android::hardware::wifi::supplicant::ProtoMask::OSEN"
    }
   ],
   "linker_set_key" : "_ZTIN4aidl7android8hardware4wifi10supplicant9ProtoMaskE",
   "name" : "aidl::android::hardware::wifi::supplicant::ProtoMask",
   "referenced_type" : "_ZTIN4aidl7android8hardware4wifi10supplicant9ProtoMaskE",
   "self_type" : "_ZTIN4aidl7android8hardware4wifi10supplicant9ProtoMaskE",
   "size" : 4,
   "source_file" : "out/soong/.intermediates/hardware/interfaces/wifi/supplicant/aidl/android.hardware.wifi.supplicant-V1-ndk-source/gen/include/aidl/android/hardware/wifi/supplicant/ProtoMask.h",
   "underlying_type" : "_ZTIi"
  },
  {
   "alignment" : 4,
   "enum_fields" :
   [
    {
     "enum_field_value" : 1,
     "name" : "android::internal::details::IsIterable<std::vector<aidl::android::hardware::wifi::supplicant::GsmRand>>::value"
    }
   ],
   "linker_set_key" : "_ZTIN7android8internal7details10IsIterableINSt3__16vectorIN4aidl7android8hardware4wifi10supplicant7GsmRandENS3_9allocatorISA_EEEEE6$valueE",
   "name" : "android::internal::details::IsIterable<std::vector<aidl::android::hardware::wifi::supplicant::GsmRand, std::allocator<aidl::android::hardware::wifi::supplicant::GsmRand>>>::(unnamed enum at frameworks/native/libs/binder/ndk/include_cpp/android/binder_to_string.h:131:5)",
   "referenced_type" : "_ZTIN7android8internal7details10IsIterableINSt3__16vectorIN4aidl7android8hardware4wifi10supplicant7GsmRandENS3_9allocatorISA_EEEEE6$valueE",
   "self_type" : "_ZTIN7android8internal7details10IsIterableINSt3__16vectorIN4aidl7android8hardware4wifi10supplicant7GsmRandENS3_9allocatorISA_EEEEE6$valueE",
   "size" : 4,
   "source_file" : "frameworks/native/libs/binder/ndk/include_cpp/android/binder_to_string.h",
   "underlying_type" : "_ZTIj"
  },
  {
   "alignment" : 4,
   "enum_fields" :
   [
    {
     "enum_field_value" : 1,
     "name" : "android::internal::details::IsIterable<std::vector<aidl::android::hardware::wifi::supplicant::MloLink>>::value"
    }
   ],
   "linker_set_key" : "_ZTIN7android8internal7details10IsIterableINSt3__16vectorIN4aidl7android8hardware4wifi10supplicant7MloLinkENS3_9allocatorISA_EEEEE6$valueE",
   "name" : "android::internal::details::IsIterable<std::vector<aidl::android::hardware::wifi::supplicant::MloLink, std::allocator<aidl::android::hardware::wifi::supplicant::MloLink>>>::(unnamed enum at frameworks/native/libs/binder/ndk/include_cpp/android/binder_to_string.h:131:5)",
   "referenced_type" : "_ZTIN7android8internal7details10IsIterableINSt3__16vectorIN4aidl7android8hardware4wifi10supplicant7MloLinkENS3_9allocatorISA_EEEEE6$valueE",
   "self_type" : "_ZTIN7android8internal7details10IsIterableINSt3__16vectorIN4aidl7android8hardware4wifi10supplicant7MloLinkENS3_9allocatorISA_EEEEE6$valueE",
   "size" : 4,
   "source_file" : "frameworks/native/libs/binder/ndk/include_cpp/android/binder_to_string.h",
   "underlying_type" : "_ZTIj"
  },
  {
   "alignment" : 4,
   "enum_fields" :
   [
    {
     "enum_field_value" : 1,
     "name" : "android::internal::details::IsIterable<std::vector<unsigned char>>::value"
    }
   ],
   "linker_set_key" : "_ZTIN7android8internal7details10IsIterableINSt3__16vectorIhNS3_9allocatorIhEEEEE6$valueE",
   "name" : "android::internal::details::IsIterable<std::vector<unsigned char, std::allocator<unsigned char>>>::(unnamed enum at frameworks/native/libs/binder/ndk/include_cpp/android/binder_to_string.h:131:5)",
   "referenced_type" : "_ZTIN7android8internal7details10IsIterableINSt3__16vectorIhNS3_9allocatorIhEEEEE6$valueE",
   "self_type" : "_ZTIN7android8internal7details10IsIterableINSt3__16vectorIhNS3_9allocatorIhEEEEE6$valueE",
   "size" : 4,
   "source_file" : "frameworks/native/libs/binder/ndk/include_cpp/android/binder_to_string.h",
   "underlying_type" : "_ZTIj"
  },
  {
   "alignment" : 4,
   "enum_fields" :
   [
    {
     "enum_field_value" : 0,
     "name" : "android::internal::details::IsPointerLike<aidl::android::hardware::wifi::supplicant::LegacyMode>::value"
    }
   ],
   "linker_set_key" : "_ZTIN7android8internal7details13IsPointerLikeIN4aidl7android8hardware4wifi10supplicant10LegacyModeEE6$valueE",
   "name" : "android::internal::details::IsPointerLike<aidl::android::hardware::wifi::supplicant::LegacyMode>::(unnamed enum at frameworks/native/libs/binder/ndk/include_cpp/android/binder_to_string.h:118:5)",
   "referenced_type" : "_ZTIN7android8internal7details13IsPointerLikeIN4aidl7android8hardware4wifi10supplicant10LegacyModeEE6$valueE",
   "self_type" : "_ZTIN7android8internal7details13IsPointerLikeIN4aidl7android8hardware4wifi10supplicant10LegacyModeEE6$valueE",
   "size" : 4,
   "source_file" : "frameworks/native/libs/binder/ndk/include_cpp/android/binder_to_string.h",
   "underlying_type" : "_ZTIj"
  },
  {
   "alignment" : 4,
   "enum_fields" :
   [
    {
     "enum_field_value" : 0,
     "name" : "android::internal::details::IsPointerLike<aidl::android::hardware::wifi::supplicant::WifiTechnology>::value"
    }
   ],
   "linker_set_key" : "_ZTIN7android8internal7details13IsPointerLikeIN4aidl7android8hardware4wifi10supplicant14WifiTechnologyEE6$valueE",
   "name" : "android::internal::details::IsPointerLike<aidl::android::hardware::wifi::supplicant::WifiTechnology>::(unnamed enum at frameworks/native/libs/binder/ndk/include_cpp/android/binder_to_string.h:118:5)",
   "referenced_type" : "_ZTIN7android8internal7details13IsPointerLikeIN4aidl7android8hardware4wifi10supplicant14WifiTechnologyEE6$valueE",
   "self_type" : "_ZTIN7android8internal7details13IsPointerLikeIN4aidl7android8hardware4wifi10supplicant14WifiTechnologyEE6$valueE",
   "size" : 4,
   "source_file" : "frameworks/native/libs/binder/ndk/include_cpp/android/binder_to_string.h",
   "underlying_type" : "_ZTIj"
  },
  {
   "alignment" : 4,
   "enum_fields" :
   [
    {
     "enum_field_value" : 0,
     "name" : "android::internal::details::IsPointerLike<aidl::android::hardware::wifi::supplicant::BssTmStatusCode>::value"
    }
   ],
   "linker_set_key" : "_ZTIN7android8internal7details13IsPointerLikeIN4aidl7android8hardware4wifi10supplicant15BssTmStatusCodeEE6$valueE",
   "name" : "android::internal::details::IsPointerLike<aidl::android::hardware::wifi::supplicant::BssTmStatusCode>::(unnamed enum at frameworks/native/libs/binder/ndk/include_cpp/android/binder_to_string.h:118:5)",
   "referenced_type" : "_ZTIN7android8internal7details13IsPointerLikeIN4aidl7android8hardware4wifi10supplicant15BssTmStatusCodeEE6$valueE",
   "self_type" : "_ZTIN7android8internal7details13IsPointerLikeIN4aidl7android8hardware4wifi10supplicant15BssTmStatusCodeEE6$valueE",
   "size" : 4,
   "source_file" : "frameworks/native/libs/binder/ndk/include_cpp/android/binder_to_string.h",
   "underlying_type" : "_ZTIj"
  },
  {
   "alignment" : 4,
   "enum_fields" :
   [
    {
     "enum_field_value" : 0,
     "name" : "android::internal::details::IsPointerLike<aidl::android::hardware::wifi::supplicant::BssTmDataFlagsMask>::value"
    }
   ],
   "linker_set_key" : "_ZTIN7android8internal7details13IsPointerLikeIN4aidl7android8hardware4wifi10supplicant18BssTmDataFlagsMaskEE6$valueE",
   "name" : "android::internal::details::IsPointerLike<aidl::android::hardware::wifi::supplicant::BssTmDataFlagsMask>::(unnamed enum at frameworks/native/libs/binder/ndk/include_cpp/android/binder_to_string.h:118:5)",
   "referenced_type" : "_ZTIN7android8internal7details13IsPointerLikeIN4aidl7android8hardware4wifi10supplicant18BssTmDataFlagsMaskEE6$valueE",
   "self_type" : "_ZTIN7android8internal7details13IsPointerLikeIN4aidl7android8hardware4wifi10supplicant18BssTmDataFlagsMaskEE6$valueE",
   "size" : 4,
   "source_file" : "frameworks/native/libs/binder/ndk/include_cpp/android/binder_to_string.h",
   "underlying_type" : "_ZTIj"
  },
  {
   "alignment" : 4,
   "enum_fields" :
   [
    {
     "enum_field_value" : 0,
     "name" : "android::internal::details::IsPointerLike<aidl::android::hardware::wifi::supplicant::ProtocolNextHeader>::value"
    }
   ],
   "linker_set_key" : "_ZTIN7android8internal7details13IsPointerLikeIN4aidl7android8hardware4wifi10supplicant18ProtocolNextHeaderEE6$valueE",
   "name" : "android::internal::details::IsPointerLike<aidl::android::hardware::wifi::supplicant::ProtocolNextHeader>::(unnamed enum at frameworks/native/libs/binder/ndk/include_cpp/android/binder_to_string.h:118:5)",
   "referenced_type" : "_ZTIN7android8internal7details13IsPointerLikeIN4aidl7android8hardware4wifi10supplicant18ProtocolNextHeaderEE6$valueE",
   "self_type" : "_ZTIN7android8internal7details13IsPointerLikeIN4aidl7android8hardware4wifi10supplicant18ProtocolNextHeaderEE6$valueE",
   "size" : 4,
   "source_file" : "frameworks/native/libs/binder/ndk/include_cpp/android/binder_to_string.h",
   "underlying_type" : "_ZTIj"
  },
  {
   "alignment" : 4,
   "enum_fields" :
   [
    {
     "enum_field_value" : 0,
     "name" : "android::internal::details::IsPointerLike<aidl::android::hardware::wifi::supplicant::StaIfaceStatusCode>::value"
    }
   ],
   "linker_set_key" : "_ZTIN7android8internal7details13IsPointerLikeIN4aidl7android8hardware4wifi10supplicant18StaIfaceStatusCodeEE6$valueE",
   "name" : "android::internal::details::IsPointerLike<aidl::android::hardware::wifi::supplicant::StaIfaceStatusCode>::(unnamed enum at frameworks/native/libs/binder/ndk/include_cpp/android/binder_to_string.h:118:5)",
   "referenced_type" : "_ZTIN7android8internal7details13IsPointerLikeIN4aidl7android8hardware4wifi10supplicant18StaIfaceStatusCodeEE6$valueE",
   "self_type" : "_ZTIN7android8internal7details13IsPointerLikeIN4aidl7android8hardware4wifi10supplicant18StaIfaceStatusCodeEE6$valueE",
   "size" : 4,
   "source_file" : "frameworks/native/libs/binder/ndk/include_cpp/android/binder_to_string.h",
   "underlying_type" : "_ZTIj"
  },
  {
   "alignment" : 4,
   "enum_fields" :
   [
    {
     "enum_field_value" : 0,
     "name" : "android::internal::details::IsPointerLike<aidl::android::hardware::wifi::supplicant::QosPolicyStatusCode>::value"
    }
   ],
   "linker_set_key" : "_ZTIN7android8internal7details13IsPointerLikeIN4aidl7android8hardware4wifi10supplicant19QosPolicyStatusCodeEE6$valueE",
   "name" : "android::internal::details::IsPointerLike<aidl::android::hardware::wifi::supplicant::QosPolicyStatusCode>::(unnamed enum at frameworks/native/libs/binder/ndk/include_cpp/android/binder_to_string.h:118:5)",
   "referenced_type" : "_ZTIN7android8internal7details13IsPointerLikeIN4aidl7android8hardware4wifi10supplicant19QosPolicyStatusCodeEE6$valueE",
   "self_type" : "_ZTIN7android8internal7details13IsPointerLikeIN4aidl7android8hardware4wifi10supplicant19QosPolicyStatusCodeEE6$valueE",
   "size" : 4,
   "source_file" : "frameworks/native/libs/binder/ndk/include_cpp/android/binder_to_string.h",
   "underlying_type" : "_ZTIj"
  },
  {
   "alignment" : 4,
   "enum_fields" :
   [
    {
     "enum_field_value" : 0,
     "name" : "android::internal::details::IsPointerLike<aidl::android::hardware::wifi::supplicant::QosPolicyRequestType>::value"
    }
   ],
   "linker_set_key" : "_ZTIN7android8internal7details13IsPointerLikeIN4aidl7android8hardware4wifi10supplicant20QosPolicyRequestTypeEE6$valueE",
   "name" : "android::internal::details::IsPointerLike<aidl::android::hardware::wifi::supplicant::QosPolicyRequestType>::(unnamed enum at frameworks/native/libs/binder/ndk/include_cpp/android/binder_to_string.h:118:5)",
   "referenced_type" : "_ZTIN7android8internal7details13IsPointerLikeIN4aidl7android8hardware4wifi10supplicant20QosPolicyRequestTypeEE6$valueE",
   "self_type" : "_ZTIN7android8internal7details13IsPointerLikeIN4aidl7android8hardware4wifi10supplicant20QosPolicyRequestTypeEE6$valueE",
   "size" : 4,
   "source_file" : "frameworks/native/libs/binder/ndk/include_cpp/android/binder_to_string.h",
   "underlying_type" : "_ZTIj"
  },
  {
   "alignment" : 4,
   "enum_fields" :
   [
    {
     "enum_field_value" : 0,
     "name" : "android::internal::details::IsPointerLike<aidl::android::hardware::wifi::supplicant::MboTransitionReasonCode>::value"
    }
   ],
   "linker_set_key" : "_ZTIN7android8internal7details13IsPointerLikeIN4aidl7android8hardware4wifi10supplicant23MboTransitionReasonCodeEE6$valueE",
   "name" : "android::internal::details::IsPointerLike<aidl::android::hardware::wifi::supplicant::MboTransitionReasonCode>::(unnamed enum at frameworks/native/libs/binder/ndk/include_cpp/android/binder_to_string.h:118:5)",
   "referenced_type" : "_ZTIN7android8internal7details13IsPointerLikeIN4aidl7android8hardware4wifi10supplicant23MboTransitionReasonCodeEE6$valueE",
   "self_type" : "_ZTIN7android8internal7details13IsPointerLikeIN4aidl7android8hardware4wifi10supplicant23MboTransitionReasonCodeEE6$valueE",
   "size" : 4,
   "source_file" : "frameworks/native/libs/binder/ndk/include_cpp/android/binder_to_string.h",
   "underlying_type" : "_ZTIj"
  },
  {
   "alignment" : 4,
   "enum_fields" :
   [
    {
     "enum_field_value" : 0,
     "name" : "android::internal::details::IsPointerLike<aidl::android::hardware::wifi::supplicant::QosPolicyClassifierParams>::value"
    }
   ],
   "linker_set_key" : "_ZTIN7android8internal7details13IsPointerLikeIN4aidl7android8hardware4wifi10supplicant25QosPolicyClassifierParamsEE6$valueE",
   "name" : "android::internal::details::IsPointerLike<aidl::android::hardware::wifi::supplicant::QosPolicyClassifierParams>::(unnamed enum at frameworks/native/libs/binder/ndk/include_cpp/android/binder_to_string.h:118:5)",
   "referenced_type" : "_ZTIN7android8internal7details13IsPointerLikeIN4aidl7android8hardware4wifi10supplicant25QosPolicyClassifierParamsEE6$valueE",
   "self_type" : "_ZTIN7android8internal7details13IsPointerLikeIN4aidl7android8hardware4wifi10supplicant25QosPolicyClassifierParamsEE6$valueE",
   "size" : 4,
   "source_file" : "frameworks/native/libs/binder/ndk/include_cpp/android/binder_to_string.h",
   "underlying_type" : "_ZTIj"
  },
  {
   "alignment" : 4,
   "enum_fields" :
   [
    {
     "enum_field_value" : 0,
     "name" : "android::internal::details::IsPointerLike<aidl::android::hardware::wifi::supplicant::OceRssiBasedAssocRejectAttr>::value"
    }
   ],
   "linker_set_key" : "_ZTIN7android8internal7details13IsPointerLikeIN4aidl7android8hardware4wifi10supplicant27OceRssiBasedAssocRejectAttrEE6$valueE",
   "name" : "android::internal::details::IsPointerLike<aidl::android::hardware::wifi::supplicant::OceRssiBasedAssocRejectAttr>::(unnamed enum at frameworks/native/libs/binder/ndk/include_cpp/android/binder_to_string.h:118:5)",
   "referenced_type" : "_ZTIN7android8internal7details13IsPointerLikeIN4aidl7android8hardware4wifi10supplicant27OceRssiBasedAssocRejectAttrEE6$valueE",
   "self_type" : "_ZTIN7android8internal7details13IsPointerLikeIN4aidl7android8hardware4wifi10supplicant27OceRssiBasedAssocRejectAttrEE6$valueE",
   "size" : 4,
   "source_file" : "frameworks/native/libs/binder/ndk/include_cpp/android/binder_to_string.h",
   "underlying_type" : "_ZTIj"
  },
  {
   "alignment" : 4,
   "enum_fields" :
   [
    {
     "enum_field_value" : 0,
     "name" : "android::internal::details::IsPointerLike<aidl::android::hardware::wifi::supplicant::MboAssocDisallowedReasonCode>::value"
    }
   ],
   "linker_set_key" : "_ZTIN7android8internal7details13IsPointerLikeIN4aidl7android8hardware4wifi10supplicant28MboAssocDisallowedReasonCodeEE6$valueE",
   "name" : "android::internal::details::IsPointerLike<aidl::android::hardware::wifi::supplicant::MboAssocDisallowedReasonCode>::(unnamed enum at frameworks/native/libs/binder/ndk/include_cpp/android/binder_to_string.h:118:5)",
   "referenced_type" : "_ZTIN7android8internal7details13IsPointerLikeIN4aidl7android8hardware4wifi10supplicant28MboAssocDisallowedReasonCodeEE6$valueE",
   "self_type" : "_ZTIN7android8internal7details13IsPointerLikeIN4aidl7android8hardware4wifi10supplicant28MboAssocDisallowedReasonCodeEE6$valueE",
   "size" : 4,
   "source_file" : "frameworks/native/libs/binder/ndk/include_cpp/android/binder_to_string.h",
   "underlying_type" : "_ZTIj"
  },
  {
   "alignment" : 4,
   "enum_fields" :
   [
    {
     "enum_field_value" : 0,
     "name" : "android::internal::details::IsPointerLike<aidl::android::hardware::wifi::supplicant::QosPolicyClassifierParamsMask>::value"
    }
   ],
   "linker_set_key" : "_ZTIN7android8internal7details13IsPointerLikeIN4aidl7android8hardware4wifi10supplicant29QosPolicyClassifierParamsMaskEE6$valueE",
   "name" : "android::internal::details::IsPointerLike<aidl::android::hardware::wifi::supplicant::QosPolicyClassifierParamsMask>::(unnamed enum at frameworks/native/libs/binder/ndk/include_cpp/android/binder_to_string.h:118:5)",
   "referenced_type" : "_ZTIN7android8internal7details13IsPointerLikeIN4aidl7android8hardware4wifi10supplicant29QosPolicyClassifierParamsMaskEE6$valueE",
   "self_type" : "_ZTIN7android8internal7details13IsPointerLikeIN4aidl7android8hardware4wifi10supplicant29QosPolicyClassifierParamsMaskEE6$valueE",
   "size" : 4,
   "source_file" : "frameworks/native/libs/binder/ndk/include_cpp/android/binder_to_string.h",
   "underlying_type" : "_ZTIj"
  },
  {
   "alignment" : 4,
   "enum_fields" :
   [
    {
     "enum_field_value" : 0,
     "name" : "android::internal::details::IsPointerLike<aidl::android::hardware::wifi::supplicant::MboCellularDataConnectionPrefValue>::value"
    }
   ],
   "linker_set_key" : "_ZTIN7android8internal7details13IsPointerLikeIN4aidl7android8hardware4wifi10supplicant34MboCellularDataConnectionPrefValueEE6$valueE",
   "name" : "android::internal::details::IsPointerLike<aidl::android::hardware::wifi::supplicant::MboCellularDataConnectionPrefValue>::(unnamed enum at frameworks/native/libs/binder/ndk/include_cpp/android/binder_to_string.h:118:5)",
   "referenced_type" : "_ZTIN7android8internal7details13IsPointerLikeIN4aidl7android8hardware4wifi10supplicant34MboCellularDataConnectionPrefValueEE6$valueE",
   "self_type" : "_ZTIN7android8internal7details13IsPointerLikeIN4aidl7android8hardware4wifi10supplicant34MboCellularDataConnectionPrefValueEE6$valueE",
   "size" : 4,
   "source_file" : "frameworks/native/libs/binder/ndk/include_cpp/android/binder_to_string.h",
   "underlying_type" : "_ZTIj"
  },
  {
   "alignment" : 4,
   "enum_fields" :
   [
    {
     "enum_field_value" : 0,
     "name" : "android::internal::details::IsPointerLike<aidl::android::hardware::wifi::supplicant::GsmRand>::value"
    }
   ],
   "linker_set_key" : "_ZTIN7android8internal7details13IsPointerLikeIN4aidl7android8hardware4wifi10supplicant7GsmRandEE6$valueE",
   "name" : "android::internal::details::IsPointerLike<aidl::android::hardware::wifi::supplicant::GsmRand>::(unnamed enum at frameworks/native/libs/binder/ndk/include_cpp/android/binder_to_string.h:118:5)",
   "referenced_type" : "_ZTIN7android8internal7details13IsPointerLikeIN4aidl7android8hardware4wifi10supplicant7GsmRandEE6$valueE",
   "self_type" : "_ZTIN7android8internal7details13IsPointerLikeIN4aidl7android8hardware4wifi10supplicant7GsmRandEE6$valueE",
   "size" : 4,
   "source_file" : "frameworks/native/libs/binder/ndk/include_cpp/android/binder_to_string.h",
   "underlying_type" : "_ZTIj"
  },
  {
   "alignment" : 4,
   "enum_fields" :
   [
    {
     "enum_field_value" : 0,
     "name" : "android::internal::details::IsPointerLike<aidl::android::hardware::wifi::supplicant::MloLink>::value"
    }
   ],
   "linker_set_key" : "_ZTIN7android8internal7details13IsPointerLikeIN4aidl7android8hardware4wifi10supplicant7MloLinkEE6$valueE",
   "name" : "android::internal::details::IsPointerLike<aidl::android::hardware::wifi::supplicant::MloLink>::(unnamed enum at frameworks/native/libs/binder/ndk/include_cpp/android/binder_to_string.h:118:5)",
   "referenced_type" : "_ZTIN7android8internal7details13IsPointerLikeIN4aidl7android8hardware4wifi10supplicant7MloLinkEE6$valueE",
   "self_type" : "_ZTIN7android8internal7details13IsPointerLikeIN4aidl7android8hardware4wifi10supplicant7MloLinkEE6$valueE",
   "size" : 4,
   "source_file" : "frameworks/native/libs/binder/ndk/include_cpp/android/binder_to_string.h",
   "underlying_type" : "_ZTIj"
  },
  {
   "alignment" : 4,
   "enum_fields" :
   [
    {
     "enum_field_value" : 0,
     "name" : "android::internal::details::IsPointerLike<aidl::android::hardware::wifi::supplicant::IfaceType>::value"
    }
   ],
   "linker_set_key" : "_ZTIN7android8internal7details13IsPointerLikeIN4aidl7android8hardware4wifi10supplicant9IfaceTypeEE6$valueE",
   "name" : "android::internal::details::IsPointerLike<aidl::android::hardware::wifi::supplicant::IfaceType>::(unnamed enum at frameworks/native/libs/binder/ndk/include_cpp/android/binder_to_string.h:118:5)",
   "referenced_type" : "_ZTIN7android8internal7details13IsPointerLikeIN4aidl7android8hardware4wifi10supplicant9IfaceTypeEE6$valueE",
   "self_type" : "_ZTIN7android8internal7details13IsPointerLikeIN4aidl7android8hardware4wifi10supplicant9IfaceTypeEE6$valueE",
   "size" : 4,
   "source_file" : "frameworks/native/libs/binder/ndk/include_cpp/android/binder_to_string.h",
   "underlying_type" : "_ZTIj"
  },
  {
   "alignment" : 4,
   "enum_fields" :
   [
    {
     "enum_field_value" : 0,
     "name" : "android::internal::details::IsPointerLike<aidl::android::hardware::wifi::supplicant::IpVersion>::value"
    }
   ],
   "linker_set_key" : "_ZTIN7android8internal7details13IsPointerLikeIN4aidl7android8hardware4wifi10supplicant9IpVersionEE6$valueE",
   "name" : "android::internal::details::IsPointerLike<aidl::android::hardware::wifi::supplicant::IpVersion>::(unnamed enum at frameworks/native/libs/binder/ndk/include_cpp/android/binder_to_string.h:118:5)",
   "referenced_type" : "_ZTIN7android8internal7details13IsPointerLikeIN4aidl7android8hardware4wifi10supplicant9IpVersionEE6$valueE",
   "self_type" : "_ZTIN7android8internal7details13IsPointerLikeIN4aidl7android8hardware4wifi10supplicant9IpVersionEE6$valueE",
   "size" : 4,
   "source_file" : "frameworks/native/libs/binder/ndk/include_cpp/android/binder_to_string.h",
   "underlying_type" : "_ZTIj"
  },
  {
   "alignment" : 4,
   "enum_fields" :
   [
    {
     "enum_field_value" : 0,
     "name" : "android::internal::details::IsPointerLike<aidl::android::hardware::wifi::supplicant::PortRange>::value"
    }
   ],
   "linker_set_key" : "_ZTIN7android8internal7details13IsPointerLikeIN4aidl7android8hardware4wifi10supplicant9PortRangeEE6$valueE",
   "name" : "android::internal::details::IsPointerLike<aidl::android::hardware::wifi::supplicant::PortRange>::(unnamed enum at frameworks/native/libs/binder/ndk/include_cpp/android/binder_to_string.h:118:5)",
   "referenced_type" : "_ZTIN7android8internal7details13IsPointerLikeIN4aidl7android8hardware4wifi10supplicant9PortRangeEE6$valueE",
   "self_type" : "_ZTIN7android8internal7details13IsPointerLikeIN4aidl7android8hardware4wifi10supplicant9PortRangeEE6$valueE",
   "size" : 4,
   "source_file" : "frameworks/native/libs/binder/ndk/include_cpp/android/binder_to_string.h",
   "underlying_type" : "_ZTIj"
  },
  {
   "alignment" : 4,
   "enum_fields" :
   [
    {
     "enum_field_value" : 0,
     "name" : "android::internal::details::IsPointerLike<std::vector<aidl::android::hardware::wifi::supplicant::GsmRand>>::value"
    }
   ],
   "linker_set_key" : "_ZTIN7android8internal7details13IsPointerLikeINSt3__16vectorIN4aidl7android8hardware4wifi10supplicant7GsmRandENS3_9allocatorISA_EEEEE6$valueE",
   "name" : "android::internal::details::IsPointerLike<std::vector<aidl::android::hardware::wifi::supplicant::GsmRand, std::allocator<aidl::android::hardware::wifi::supplicant::GsmRand>>>::(unnamed enum at frameworks/native/libs/binder/ndk/include_cpp/android/binder_to_string.h:118:5)",
   "referenced_type" : "_ZTIN7android8internal7details13IsPointerLikeINSt3__16vectorIN4aidl7android8hardware4wifi10supplicant7GsmRandENS3_9allocatorISA_EEEEE6$valueE",
   "self_type" : "_ZTIN7android8internal7details13IsPointerLikeINSt3__16vectorIN4aidl7android8hardware4wifi10supplicant7GsmRandENS3_9allocatorISA_EEEEE6$valueE",
   "size" : 4,
   "source_file" : "frameworks/native/libs/binder/ndk/include_cpp/android/binder_to_string.h",
   "underlying_type" : "_ZTIj"
  },
  {
   "alignment" : 4,
   "enum_fields" :
   [
    {
     "enum_field_value" : 0,
     "name" : "android::internal::details::IsPointerLike<std::vector<aidl::android::hardware::wifi::supplicant::MloLink>>::value"
    }
   ],
   "linker_set_key" : "_ZTIN7android8internal7details13IsPointerLikeINSt3__16vectorIN4aidl7android8hardware4wifi10supplicant7MloLinkENS3_9allocatorISA_EEEEE6$valueE",
   "name" : "android::internal::details::IsPointerLike<std::vector<aidl::android::hardware::wifi::supplicant::MloLink, std::allocator<aidl::android::hardware::wifi::supplicant::MloLink>>>::(unnamed enum at frameworks/native/libs/binder/ndk/include_cpp/android/binder_to_string.h:118:5)",
   "referenced_type" : "_ZTIN7android8internal7details13IsPointerLikeINSt3__16vectorIN4aidl7android8hardware4wifi10supplicant7MloLinkENS3_9allocatorISA_EEEEE6$valueE",
   "self_type" : "_ZTIN7android8internal7details13IsPointerLikeINSt3__16vectorIN4aidl7android8hardware4wifi10supplicant7MloLinkENS3_9allocatorISA_EEEEE6$valueE",
   "size" : 4,
   "source_file" : "frameworks/native/libs/binder/ndk/include_cpp/android/binder_to_string.h",
   "underlying_type" : "_ZTIj"
  },
  {
   "alignment" : 4,
   "enum_fields" :
   [
    {
     "enum_field_value" : 0,
     "name" : "android::internal::details::IsPointerLike<std::vector<unsigned char>>::value"
    }
   ],
   "linker_set_key" : "_ZTIN7android8internal7details13IsPointerLikeINSt3__16vectorIhNS3_9allocatorIhEEEEE6$valueE",
   "name" : "android::internal::details::IsPointerLike<std::vector<unsigned char, std::allocator<unsigned char>>>::(unnamed enum at frameworks/native/libs/binder/ndk/include_cpp/android/binder_to_string.h:118:5)",
   "referenced_type" : "_ZTIN7android8internal7details13IsPointerLikeINSt3__16vectorIhNS3_9allocatorIhEEEEE6$valueE",
   "self_type" : "_ZTIN7android8internal7details13IsPointerLikeINSt3__16vectorIhNS3_9allocatorIhEEEEE6$valueE",
   "size" : 4,
   "source_file" : "frameworks/native/libs/binder/ndk/include_cpp/android/binder_to_string.h",
   "underlying_type" : "_ZTIj"
  },
  {
   "alignment" : 4,
   "enum_fields" :
   [
    {
     "enum_field_value" : 0,
     "name" : "android::internal::details::ToEmptyString<aidl::android::hardware::wifi::supplicant::LegacyMode>::value"
    }
   ],
   "linker_set_key" : "_ZTIN7android8internal7details13ToEmptyStringIN4aidl7android8hardware4wifi10supplicant10LegacyModeEE6$valueE",
   "name" : "android::internal::details::ToEmptyString<aidl::android::hardware::wifi::supplicant::LegacyMode>::(unnamed enum at frameworks/native/libs/binder/ndk/include_cpp/android/binder_to_string.h:153:5)",
   "referenced_type" : "_ZTIN7android8internal7details13ToEmptyStringIN4aidl7android8hardware4wifi10supplicant10LegacyModeEE6$valueE",
   "self_type" : "_ZTIN7android8internal7details13ToEmptyStringIN4aidl7android8hardware4wifi10supplicant10LegacyModeEE6$valueE",
   "size" : 4,
   "source_file" : "frameworks/native/libs/binder/ndk/include_cpp/android/binder_to_string.h",
   "underlying_type" : "_ZTIj"
  },
  {
   "alignment" : 4,
   "enum_fields" :
   [
    {
     "enum_field_value" : 0,
     "name" : "android::internal::details::ToEmptyString<aidl::android::hardware::wifi::supplicant::WifiTechnology>::value"
    }
   ],
   "linker_set_key" : "_ZTIN7android8internal7details13ToEmptyStringIN4aidl7android8hardware4wifi10supplicant14WifiTechnologyEE6$valueE",
   "name" : "android::internal::details::ToEmptyString<aidl::android::hardware::wifi::supplicant::WifiTechnology>::(unnamed enum at frameworks/native/libs/binder/ndk/include_cpp/android/binder_to_string.h:153:5)",
   "referenced_type" : "_ZTIN7android8internal7details13ToEmptyStringIN4aidl7android8hardware4wifi10supplicant14WifiTechnologyEE6$valueE",
   "self_type" : "_ZTIN7android8internal7details13ToEmptyStringIN4aidl7android8hardware4wifi10supplicant14WifiTechnologyEE6$valueE",
   "size" : 4,
   "source_file" : "frameworks/native/libs/binder/ndk/include_cpp/android/binder_to_string.h",
   "underlying_type" : "_ZTIj"
  },
  {
   "alignment" : 4,
   "enum_fields" :
   [
    {
     "enum_field_value" : 0,
     "name" : "android::internal::details::ToEmptyString<aidl::android::hardware::wifi::supplicant::BssTmStatusCode>::value"
    }
   ],
   "linker_set_key" : "_ZTIN7android8internal7details13ToEmptyStringIN4aidl7android8hardware4wifi10supplicant15BssTmStatusCodeEE6$valueE",
   "name" : "android::internal::details::ToEmptyString<aidl::android::hardware::wifi::supplicant::BssTmStatusCode>::(unnamed enum at frameworks/native/libs/binder/ndk/include_cpp/android/binder_to_string.h:153:5)",
   "referenced_type" : "_ZTIN7android8internal7details13ToEmptyStringIN4aidl7android8hardware4wifi10supplicant15BssTmStatusCodeEE6$valueE",
   "self_type" : "_ZTIN7android8internal7details13ToEmptyStringIN4aidl7android8hardware4wifi10supplicant15BssTmStatusCodeEE6$valueE",
   "size" : 4,
   "source_file" : "frameworks/native/libs/binder/ndk/include_cpp/android/binder_to_string.h",
   "underlying_type" : "_ZTIj"
  },
  {
   "alignment" : 4,
   "enum_fields" :
   [
    {
     "enum_field_value" : 0,
     "name" : "android::internal::details::ToEmptyString<aidl::android::hardware::wifi::supplicant::BssTmDataFlagsMask>::value"
    }
   ],
   "linker_set_key" : "_ZTIN7android8internal7details13ToEmptyStringIN4aidl7android8hardware4wifi10supplicant18BssTmDataFlagsMaskEE6$valueE",
   "name" : "android::internal::details::ToEmptyString<aidl::android::hardware::wifi::supplicant::BssTmDataFlagsMask>::(unnamed enum at frameworks/native/libs/binder/ndk/include_cpp/android/binder_to_string.h:153:5)",
   "referenced_type" : "_ZTIN7android8internal7details13ToEmptyStringIN4aidl7android8hardware4wifi10supplicant18BssTmDataFlagsMaskEE6$valueE",
   "self_type" : "_ZTIN7android8internal7details13ToEmptyStringIN4aidl7android8hardware4wifi10supplicant18BssTmDataFlagsMaskEE6$valueE",
   "size" : 4,
   "source_file" : "frameworks/native/libs/binder/ndk/include_cpp/android/binder_to_string.h",
   "underlying_type" : "_ZTIj"
  },
  {
   "alignment" : 4,
   "enum_fields" :
   [
    {
     "enum_field_value" : 0,
     "name" : "android::internal::details::ToEmptyString<aidl::android::hardware::wifi::supplicant::ProtocolNextHeader>::value"
    }
   ],
   "linker_set_key" : "_ZTIN7android8internal7details13ToEmptyStringIN4aidl7android8hardware4wifi10supplicant18ProtocolNextHeaderEE6$valueE",
   "name" : "android::internal::details::ToEmptyString<aidl::android::hardware::wifi::supplicant::ProtocolNextHeader>::(unnamed enum at frameworks/native/libs/binder/ndk/include_cpp/android/binder_to_string.h:153:5)",
   "referenced_type" : "_ZTIN7android8internal7details13ToEmptyStringIN4aidl7android8hardware4wifi10supplicant18ProtocolNextHeaderEE6$valueE",
   "self_type" : "_ZTIN7android8internal7details13ToEmptyStringIN4aidl7android8hardware4wifi10supplicant18ProtocolNextHeaderEE6$valueE",
   "size" : 4,
   "source_file" : "frameworks/native/libs/binder/ndk/include_cpp/android/binder_to_string.h",
   "underlying_type" : "_ZTIj"
  },
  {
   "alignment" : 4,
   "enum_fields" :
   [
    {
     "enum_field_value" : 0,
     "name" : "android::internal::details::ToEmptyString<aidl::android::hardware::wifi::supplicant::StaIfaceStatusCode>::value"
    }
   ],
   "linker_set_key" : "_ZTIN7android8internal7details13ToEmptyStringIN4aidl7android8hardware4wifi10supplicant18StaIfaceStatusCodeEE6$valueE",
   "name" : "android::internal::details::ToEmptyString<aidl::android::hardware::wifi::supplicant::StaIfaceStatusCode>::(unnamed enum at frameworks/native/libs/binder/ndk/include_cpp/android/binder_to_string.h:153:5)",
   "referenced_type" : "_ZTIN7android8internal7details13ToEmptyStringIN4aidl7android8hardware4wifi10supplicant18StaIfaceStatusCodeEE6$valueE",
   "self_type" : "_ZTIN7android8internal7details13ToEmptyStringIN4aidl7android8hardware4wifi10supplicant18StaIfaceStatusCodeEE6$valueE",
   "size" : 4,
   "source_file" : "frameworks/native/libs/binder/ndk/include_cpp/android/binder_to_string.h",
   "underlying_type" : "_ZTIj"
  },
  {
   "alignment" : 4,
   "enum_fields" :
   [
    {
     "enum_field_value" : 0,
     "name" : "android::internal::details::ToEmptyString<aidl::android::hardware::wifi::supplicant::QosPolicyStatusCode>::value"
    }
   ],
   "linker_set_key" : "_ZTIN7android8internal7details13ToEmptyStringIN4aidl7android8hardware4wifi10supplicant19QosPolicyStatusCodeEE6$valueE",
   "name" : "android::internal::details::ToEmptyString<aidl::android::hardware::wifi::supplicant::QosPolicyStatusCode>::(unnamed enum at frameworks/native/libs/binder/ndk/include_cpp/android/binder_to_string.h:153:5)",
   "referenced_type" : "_ZTIN7android8internal7details13ToEmptyStringIN4aidl7android8hardware4wifi10supplicant19QosPolicyStatusCodeEE6$valueE",
   "self_type" : "_ZTIN7android8internal7details13ToEmptyStringIN4aidl7android8hardware4wifi10supplicant19QosPolicyStatusCodeEE6$valueE",
   "size" : 4,
   "source_file" : "frameworks/native/libs/binder/ndk/include_cpp/android/binder_to_string.h",
   "underlying_type" : "_ZTIj"
  },
  {
   "alignment" : 4,
   "enum_fields" :
   [
    {
     "enum_field_value" : 0,
     "name" : "android::internal::details::ToEmptyString<aidl::android::hardware::wifi::supplicant::QosPolicyRequestType>::value"
    }
   ],
   "linker_set_key" : "_ZTIN7android8internal7details13ToEmptyStringIN4aidl7android8hardware4wifi10supplicant20QosPolicyRequestTypeEE6$valueE",
   "name" : "android::internal::details::ToEmptyString<aidl::android::hardware::wifi::supplicant::QosPolicyRequestType>::(unnamed enum at frameworks/native/libs/binder/ndk/include_cpp/android/binder_to_string.h:153:5)",
   "referenced_type" : "_ZTIN7android8internal7details13ToEmptyStringIN4aidl7android8hardware4wifi10supplicant20QosPolicyRequestTypeEE6$valueE",
   "self_type" : "_ZTIN7android8internal7details13ToEmptyStringIN4aidl7android8hardware4wifi10supplicant20QosPolicyRequestTypeEE6$valueE",
   "size" : 4,
   "source_file" : "frameworks/native/libs/binder/ndk/include_cpp/android/binder_to_string.h",
   "underlying_type" : "_ZTIj"
  },
  {
   "alignment" : 4,
   "enum_fields" :
   [
    {
     "enum_field_value" : 0,
     "name" : "android::internal::details::ToEmptyString<aidl::android::hardware::wifi::supplicant::MboTransitionReasonCode>::value"
    }
   ],
   "linker_set_key" : "_ZTIN7android8internal7details13ToEmptyStringIN4aidl7android8hardware4wifi10supplicant23MboTransitionReasonCodeEE6$valueE",
   "name" : "android::internal::details::ToEmptyString<aidl::android::hardware::wifi::supplicant::MboTransitionReasonCode>::(unnamed enum at frameworks/native/libs/binder/ndk/include_cpp/android/binder_to_string.h:153:5)",
   "referenced_type" : "_ZTIN7android8internal7details13ToEmptyStringIN4aidl7android8hardware4wifi10supplicant23MboTransitionReasonCodeEE6$valueE",
   "self_type" : "_ZTIN7android8internal7details13ToEmptyStringIN4aidl7android8hardware4wifi10supplicant23MboTransitionReasonCodeEE6$valueE",
   "size" : 4,
   "source_file" : "frameworks/native/libs/binder/ndk/include_cpp/android/binder_to_string.h",
   "underlying_type" : "_ZTIj"
  },
  {
   "alignment" : 4,
   "enum_fields" :
   [
    {
     "enum_field_value" : 0,
     "name" : "android::internal::details::ToEmptyString<aidl::android::hardware::wifi::supplicant::QosPolicyClassifierParams>::value"
    }
   ],
   "linker_set_key" : "_ZTIN7android8internal7details13ToEmptyStringIN4aidl7android8hardware4wifi10supplicant25QosPolicyClassifierParamsEE6$valueE",
   "name" : "android::internal::details::ToEmptyString<aidl::android::hardware::wifi::supplicant::QosPolicyClassifierParams>::(unnamed enum at frameworks/native/libs/binder/ndk/include_cpp/android/binder_to_string.h:153:5)",
   "referenced_type" : "_ZTIN7android8internal7details13ToEmptyStringIN4aidl7android8hardware4wifi10supplicant25QosPolicyClassifierParamsEE6$valueE",
   "self_type" : "_ZTIN7android8internal7details13ToEmptyStringIN4aidl7android8hardware4wifi10supplicant25QosPolicyClassifierParamsEE6$valueE",
   "size" : 4,
   "source_file" : "frameworks/native/libs/binder/ndk/include_cpp/android/binder_to_string.h",
   "underlying_type" : "_ZTIj"
  },
  {
   "alignment" : 4,
   "enum_fields" :
   [
    {
     "enum_field_value" : 0,
     "name" : "android::internal::details::ToEmptyString<aidl::android::hardware::wifi::supplicant::OceRssiBasedAssocRejectAttr>::value"
    }
   ],
   "linker_set_key" : "_ZTIN7android8internal7details13ToEmptyStringIN4aidl7android8hardware4wifi10supplicant27OceRssiBasedAssocRejectAttrEE6$valueE",
   "name" : "android::internal::details::ToEmptyString<aidl::android::hardware::wifi::supplicant::OceRssiBasedAssocRejectAttr>::(unnamed enum at frameworks/native/libs/binder/ndk/include_cpp/android/binder_to_string.h:153:5)",
   "referenced_type" : "_ZTIN7android8internal7details13ToEmptyStringIN4aidl7android8hardware4wifi10supplicant27OceRssiBasedAssocRejectAttrEE6$valueE",
   "self_type" : "_ZTIN7android8internal7details13ToEmptyStringIN4aidl7android8hardware4wifi10supplicant27OceRssiBasedAssocRejectAttrEE6$valueE",
   "size" : 4,
   "source_file" : "frameworks/native/libs/binder/ndk/include_cpp/android/binder_to_string.h",
   "underlying_type" : "_ZTIj"
  },
  {
   "alignment" : 4,
   "enum_fields" :
   [
    {
     "enum_field_value" : 0,
     "name" : "android::internal::details::ToEmptyString<aidl::android::hardware::wifi::supplicant::MboAssocDisallowedReasonCode>::value"
    }
   ],
   "linker_set_key" : "_ZTIN7android8internal7details13ToEmptyStringIN4aidl7android8hardware4wifi10supplicant28MboAssocDisallowedReasonCodeEE6$valueE",
   "name" : "android::internal::details::ToEmptyString<aidl::android::hardware::wifi::supplicant::MboAssocDisallowedReasonCode>::(unnamed enum at frameworks/native/libs/binder/ndk/include_cpp/android/binder_to_string.h:153:5)",
   "referenced_type" : "_ZTIN7android8internal7details13ToEmptyStringIN4aidl7android8hardware4wifi10supplicant28MboAssocDisallowedReasonCodeEE6$valueE",
   "self_type" : "_ZTIN7android8internal7details13ToEmptyStringIN4aidl7android8hardware4wifi10supplicant28MboAssocDisallowedReasonCodeEE6$valueE",
   "size" : 4,
   "source_file" : "frameworks/native/libs/binder/ndk/include_cpp/android/binder_to_string.h",
   "underlying_type" : "_ZTIj"
  },
  {
   "alignment" : 4,
   "enum_fields" :
   [
    {
     "enum_field_value" : 0,
     "name" : "android::internal::details::ToEmptyString<aidl::android::hardware::wifi::supplicant::QosPolicyClassifierParamsMask>::value"
    }
   ],
   "linker_set_key" : "_ZTIN7android8internal7details13ToEmptyStringIN4aidl7android8hardware4wifi10supplicant29QosPolicyClassifierParamsMaskEE6$valueE",
   "name" : "android::internal::details::ToEmptyString<aidl::android::hardware::wifi::supplicant::QosPolicyClassifierParamsMask>::(unnamed enum at frameworks/native/libs/binder/ndk/include_cpp/android/binder_to_string.h:153:5)",
   "referenced_type" : "_ZTIN7android8internal7details13ToEmptyStringIN4aidl7android8hardware4wifi10supplicant29QosPolicyClassifierParamsMaskEE6$valueE",
   "self_type" : "_ZTIN7android8internal7details13ToEmptyStringIN4aidl7android8hardware4wifi10supplicant29QosPolicyClassifierParamsMaskEE6$valueE",
   "size" : 4,
   "source_file" : "frameworks/native/libs/binder/ndk/include_cpp/android/binder_to_string.h",
   "underlying_type" : "_ZTIj"
  },
  {
   "alignment" : 4,
   "enum_fields" :
   [
    {
     "enum_field_value" : 0,
     "name" : "android::internal::details::ToEmptyString<aidl::android::hardware::wifi::supplicant::MboCellularDataConnectionPrefValue>::value"
    }
   ],
   "linker_set_key" : "_ZTIN7android8internal7details13ToEmptyStringIN4aidl7android8hardware4wifi10supplicant34MboCellularDataConnectionPrefValueEE6$valueE",
   "name" : "android::internal::details::ToEmptyString<aidl::android::hardware::wifi::supplicant::MboCellularDataConnectionPrefValue>::(unnamed enum at frameworks/native/libs/binder/ndk/include_cpp/android/binder_to_string.h:153:5)",
   "referenced_type" : "_ZTIN7android8internal7details13ToEmptyStringIN4aidl7android8hardware4wifi10supplicant34MboCellularDataConnectionPrefValueEE6$valueE",
   "self_type" : "_ZTIN7android8internal7details13ToEmptyStringIN4aidl7android8hardware4wifi10supplicant34MboCellularDataConnectionPrefValueEE6$valueE",
   "size" : 4,
   "source_file" : "frameworks/native/libs/binder/ndk/include_cpp/android/binder_to_string.h",
   "underlying_type" : "_ZTIj"
  },
  {
   "alignment" : 4,
   "enum_fields" :
   [
    {
     "enum_field_value" : 0,
     "name" : "android::internal::details::ToEmptyString<aidl::android::hardware::wifi::supplicant::GsmRand>::value"
    }
   ],
   "linker_set_key" : "_ZTIN7android8internal7details13ToEmptyStringIN4aidl7android8hardware4wifi10supplicant7GsmRandEE6$valueE",
   "name" : "android::internal::details::ToEmptyString<aidl::android::hardware::wifi::supplicant::GsmRand>::(unnamed enum at frameworks/native/libs/binder/ndk/include_cpp/android/binder_to_string.h:153:5)",
   "referenced_type" : "_ZTIN7android8internal7details13ToEmptyStringIN4aidl7android8hardware4wifi10supplicant7GsmRandEE6$valueE",
   "self_type" : "_ZTIN7android8internal7details13ToEmptyStringIN4aidl7android8hardware4wifi10supplicant7GsmRandEE6$valueE",
   "size" : 4,
   "source_file" : "frameworks/native/libs/binder/ndk/include_cpp/android/binder_to_string.h",
   "underlying_type" : "_ZTIj"
  },
  {
   "alignment" : 4,
   "enum_fields" :
   [
    {
     "enum_field_value" : 0,
     "name" : "android::internal::details::ToEmptyString<aidl::android::hardware::wifi::supplicant::MloLink>::value"
    }
   ],
   "linker_set_key" : "_ZTIN7android8internal7details13ToEmptyStringIN4aidl7android8hardware4wifi10supplicant7MloLinkEE6$valueE",
   "name" : "android::internal::details::ToEmptyString<aidl::android::hardware::wifi::supplicant::MloLink>::(unnamed enum at frameworks/native/libs/binder/ndk/include_cpp/android/binder_to_string.h:153:5)",
   "referenced_type" : "_ZTIN7android8internal7details13ToEmptyStringIN4aidl7android8hardware4wifi10supplicant7MloLinkEE6$valueE",
   "self_type" : "_ZTIN7android8internal7details13ToEmptyStringIN4aidl7android8hardware4wifi10supplicant7MloLinkEE6$valueE",
   "size" : 4,
   "source_file" : "frameworks/native/libs/binder/ndk/include_cpp/android/binder_to_string.h",
   "underlying_type" : "_ZTIj"
  },
  {
   "alignment" : 4,
   "enum_fields" :
   [
    {
     "enum_field_value" : 0,
     "name" : "android::internal::details::ToEmptyString<aidl::android::hardware::wifi::supplicant::IfaceType>::value"
    }
   ],
   "linker_set_key" : "_ZTIN7android8internal7details13ToEmptyStringIN4aidl7android8hardware4wifi10supplicant9IfaceTypeEE6$valueE",
   "name" : "android::internal::details::ToEmptyString<aidl::android::hardware::wifi::supplicant::IfaceType>::(unnamed enum at frameworks/native/libs/binder/ndk/include_cpp/android/binder_to_string.h:153:5)",
   "referenced_type" : "_ZTIN7android8internal7details13ToEmptyStringIN4aidl7android8hardware4wifi10supplicant9IfaceTypeEE6$valueE",
   "self_type" : "_ZTIN7android8internal7details13ToEmptyStringIN4aidl7android8hardware4wifi10supplicant9IfaceTypeEE6$valueE",
   "size" : 4,
   "source_file" : "frameworks/native/libs/binder/ndk/include_cpp/android/binder_to_string.h",
   "underlying_type" : "_ZTIj"
  },
  {
   "alignment" : 4,
   "enum_fields" :
   [
    {
     "enum_field_value" : 0,
     "name" : "android::internal::details::ToEmptyString<aidl::android::hardware::wifi::supplicant::IpVersion>::value"
    }
   ],
   "linker_set_key" : "_ZTIN7android8internal7details13ToEmptyStringIN4aidl7android8hardware4wifi10supplicant9IpVersionEE6$valueE",
   "name" : "android::internal::details::ToEmptyString<aidl::android::hardware::wifi::supplicant::IpVersion>::(unnamed enum at frameworks/native/libs/binder/ndk/include_cpp/android/binder_to_string.h:153:5)",
   "referenced_type" : "_ZTIN7android8internal7details13ToEmptyStringIN4aidl7android8hardware4wifi10supplicant9IpVersionEE6$valueE",
   "self_type" : "_ZTIN7android8internal7details13ToEmptyStringIN4aidl7android8hardware4wifi10supplicant9IpVersionEE6$valueE",
   "size" : 4,
   "source_file" : "frameworks/native/libs/binder/ndk/include_cpp/android/binder_to_string.h",
   "underlying_type" : "_ZTIj"
  },
  {
   "alignment" : 4,
   "enum_fields" :
   [
    {
     "enum_field_value" : 0,
     "name" : "android::internal::details::ToEmptyString<aidl::android::hardware::wifi::supplicant::PortRange>::value"
    }
   ],
   "linker_set_key" : "_ZTIN7android8internal7details13ToEmptyStringIN4aidl7android8hardware4wifi10supplicant9PortRangeEE6$valueE",
   "name" : "android::internal::details::ToEmptyString<aidl::android::hardware::wifi::supplicant::PortRange>::(unnamed enum at frameworks/native/libs/binder/ndk/include_cpp/android/binder_to_string.h:153:5)",
   "referenced_type" : "_ZTIN7android8internal7details13ToEmptyStringIN4aidl7android8hardware4wifi10supplicant9PortRangeEE6$valueE",
   "self_type" : "_ZTIN7android8internal7details13ToEmptyStringIN4aidl7android8hardware4wifi10supplicant9PortRangeEE6$valueE",
   "size" : 4,
   "source_file" : "frameworks/native/libs/binder/ndk/include_cpp/android/binder_to_string.h",
   "underlying_type" : "_ZTIj"
  },
  {
   "alignment" : 4,
   "enum_fields" :
   [
    {
     "enum_field_value" : 0,
     "name" : "android::internal::details::ToEmptyString<std::basic_string<char>>::value"
    }
   ],
   "linker_set_key" : "_ZTIN7android8internal7details13ToEmptyStringINSt3__112basic_stringIcNS3_11char_traitsIcEENS3_9allocatorIcEEEEE6$valueE",
   "name" : "android::internal::details::ToEmptyString<std::basic_string<char, std::char_traits<char>, std::allocator<char>>>::(unnamed enum at frameworks/native/libs/binder/ndk/include_cpp/android/binder_to_string.h:153:5)",
   "referenced_type" : "_ZTIN7android8internal7details13ToEmptyStringINSt3__112basic_stringIcNS3_11char_traitsIcEENS3_9allocatorIcEEEEE6$valueE",
   "self_type" : "_ZTIN7android8internal7details13ToEmptyStringINSt3__112basic_stringIcNS3_11char_traitsIcEENS3_9allocatorIcEEEEE6$valueE",
   "size" : 4,
   "source_file" : "frameworks/native/libs/binder/ndk/include_cpp/android/binder_to_string.h",
   "underlying_type" : "_ZTIj"
  },
  {
   "alignment" : 4,
   "enum_fields" :
   [
    {
     "enum_field_value" : 0,
     "name" : "android::internal::details::ToEmptyString<std::vector<aidl::android::hardware::wifi::supplicant::GsmRand>>::value"
    }
   ],
   "linker_set_key" : "_ZTIN7android8internal7details13ToEmptyStringINSt3__16vectorIN4aidl7android8hardware4wifi10supplicant7GsmRandENS3_9allocatorISA_EEEEE6$valueE",
   "name" : "android::internal::details::ToEmptyString<std::vector<aidl::android::hardware::wifi::supplicant::GsmRand, std::allocator<aidl::android::hardware::wifi::supplicant::GsmRand>>>::(unnamed enum at frameworks/native/libs/binder/ndk/include_cpp/android/binder_to_string.h:153:5)",
   "referenced_type" : "_ZTIN7android8internal7details13ToEmptyStringINSt3__16vectorIN4aidl7android8hardware4wifi10supplicant7GsmRandENS3_9allocatorISA_EEEEE6$valueE",
   "self_type" : "_ZTIN7android8internal7details13ToEmptyStringINSt3__16vectorIN4aidl7android8hardware4wifi10supplicant7GsmRandENS3_9allocatorISA_EEEEE6$valueE",
   "size" : 4,
   "source_file" : "frameworks/native/libs/binder/ndk/include_cpp/android/binder_to_string.h",
   "underlying_type" : "_ZTIj"
  },
  {
   "alignment" : 4,
   "enum_fields" :
   [
    {
     "enum_field_value" : 0,
     "name" : "android::internal::details::ToEmptyString<std::vector<aidl::android::hardware::wifi::supplicant::MloLink>>::value"
    }
   ],
   "linker_set_key" : "_ZTIN7android8internal7details13ToEmptyStringINSt3__16vectorIN4aidl7android8hardware4wifi10supplicant7MloLinkENS3_9allocatorISA_EEEEE6$valueE",
   "name" : "android::internal::details::ToEmptyString<std::vector<aidl::android::hardware::wifi::supplicant::MloLink, std::allocator<aidl::android::hardware::wifi::supplicant::MloLink>>>::(unnamed enum at frameworks/native/libs/binder/ndk/include_cpp/android/binder_to_string.h:153:5)",
   "referenced_type" : "_ZTIN7android8internal7details13ToEmptyStringINSt3__16vectorIN4aidl7android8hardware4wifi10supplicant7MloLinkENS3_9allocatorISA_EEEEE6$valueE",
   "self_type" : "_ZTIN7android8internal7details13ToEmptyStringINSt3__16vectorIN4aidl7android8hardware4wifi10supplicant7MloLinkENS3_9allocatorISA_EEEEE6$valueE",
   "size" : 4,
   "source_file" : "frameworks/native/libs/binder/ndk/include_cpp/android/binder_to_string.h",
   "underlying_type" : "_ZTIj"
  },
  {
   "alignment" : 4,
   "enum_fields" :
   [
    {
     "enum_field_value" : 0,
     "name" : "android::internal::details::ToEmptyString<std::vector<unsigned char>>::value"
    }
   ],
   "linker_set_key" : "_ZTIN7android8internal7details13ToEmptyStringINSt3__16vectorIhNS3_9allocatorIhEEEEE6$valueE",
   "name" : "android::internal::details::ToEmptyString<std::vector<unsigned char, std::allocator<unsigned char>>>::(unnamed enum at frameworks/native/libs/binder/ndk/include_cpp/android/binder_to_string.h:153:5)",
   "referenced_type" : "_ZTIN7android8internal7details13ToEmptyStringINSt3__16vectorIhNS3_9allocatorIhEEEEE6$valueE",
   "self_type" : "_ZTIN7android8internal7details13ToEmptyStringINSt3__16vectorIhNS3_9allocatorIhEEEEE6$valueE",
   "size" : 4,
   "source_file" : "frameworks/native/libs/binder/ndk/include_cpp/android/binder_to_string.h",
   "underlying_type" : "_ZTIj"
  },
  {
   "alignment" : 4,
   "enum_fields" :
   [
    {
     "enum_field_value" : 0,
     "name" : "android::internal::details::ToEmptyString<signed char>::value"
    }
   ],
   "linker_set_key" : "_ZTIN7android8internal7details13ToEmptyStringIaE6$valueE",
   "name" : "android::internal::details::ToEmptyString<signed char>::(unnamed enum at frameworks/native/libs/binder/ndk/include_cpp/android/binder_to_string.h:153:5)",
   "referenced_type" : "_ZTIN7android8internal7details13ToEmptyStringIaE6$valueE",
   "self_type" : "_ZTIN7android8internal7details13ToEmptyStringIaE6$valueE",
   "size" : 4,
   "source_file" : "frameworks/native/libs/binder/ndk/include_cpp/android/binder_to_string.h",
   "underlying_type" : "_ZTIj"
  },
  {
   "alignment" : 4,
   "enum_fields" :
   [
    {
     "enum_field_value" : 0,
     "name" : "android::internal::details::ToEmptyString<bool>::value"
    }
   ],
   "linker_set_key" : "_ZTIN7android8internal7details13ToEmptyStringIbE6$valueE",
   "name" : "android::internal::details::ToEmptyString<bool>::(unnamed enum at frameworks/native/libs/binder/ndk/include_cpp/android/binder_to_string.h:153:5)",
   "referenced_type" : "_ZTIN7android8internal7details13ToEmptyStringIbE6$valueE",
   "self_type" : "_ZTIN7android8internal7details13ToEmptyStringIbE6$valueE",
   "size" : 4,
   "source_file" : "frameworks/native/libs/binder/ndk/include_cpp/android/binder_to_string.h",
   "underlying_type" : "_ZTIj"
  },
  {
   "alignment" : 4,
   "enum_fields" :
   [
    {
     "enum_field_value" : 0,
     "name" : "android::internal::details::ToEmptyString<unsigned char>::value"
    }
   ],
   "linker_set_key" : "_ZTIN7android8internal7details13ToEmptyStringIhE6$valueE",
   "name" : "android::internal::details::ToEmptyString<unsigned char>::(unnamed enum at frameworks/native/libs/binder/ndk/include_cpp/android/binder_to_string.h:153:5)",
   "referenced_type" : "_ZTIN7android8internal7details13ToEmptyStringIhE6$valueE",
   "self_type" : "_ZTIN7android8internal7details13ToEmptyStringIhE6$valueE",
   "size" : 4,
   "source_file" : "frameworks/native/libs/binder/ndk/include_cpp/android/binder_to_string.h",
   "underlying_type" : "_ZTIj"
  },
  {
   "alignment" : 4,
   "enum_fields" :
   [
    {
     "enum_field_value" : 0,
     "name" : "android::internal::details::ToEmptyString<int>::value"
    }
   ],
   "linker_set_key" : "_ZTIN7android8internal7details13ToEmptyStringIiE6$valueE",
   "name" : "android::internal::details::ToEmptyString<int>::(unnamed enum at frameworks/native/libs/binder/ndk/include_cpp/android/binder_to_string.h:153:5)",
   "referenced_type" : "_ZTIN7android8internal7details13ToEmptyStringIiE6$valueE",
   "self_type" : "_ZTIN7android8internal7details13ToEmptyStringIiE6$valueE",
   "size" : 4,
   "source_file" : "frameworks/native/libs/binder/ndk/include_cpp/android/binder_to_string.h",
   "underlying_type" : "_ZTIj"
  },
  {
   "alignment" : 4,
   "enum_fields" :
   [
    {
     "enum_field_value" : 0,
     "name" : "android::internal::details::HasToStringMethod<aidl::android::hardware::wifi::supplicant::LegacyMode>::value"
    }
   ],
   "linker_set_key" : "_ZTIN7android8internal7details17HasToStringMethodIN4aidl7android8hardware4wifi10supplicant10LegacyModeEE6$valueE",
   "name" : "android::internal::details::HasToStringMethod<aidl::android::hardware::wifi::supplicant::LegacyMode>::(unnamed enum at frameworks/native/libs/binder/ndk/include_cpp/android/binder_to_string.h:77:5)",
   "referenced_type" : "_ZTIN7android8internal7details17HasToStringMethodIN4aidl7android8hardware4wifi10supplicant10LegacyModeEE6$valueE",
   "self_type" : "_ZTIN7android8internal7details17HasToStringMethodIN4aidl7android8hardware4wifi10supplicant10LegacyModeEE6$valueE",
   "size" : 4,
   "source_file" : "frameworks/native/libs/binder/ndk/include_cpp/android/binder_to_string.h",
   "underlying_type" : "_ZTIj"
  },
  {
   "alignment" : 4,
   "enum_fields" :
   [
    {
     "enum_field_value" : 0,
     "name" : "android::internal::details::HasToStringMethod<aidl::android::hardware::wifi::supplicant::WifiTechnology>::value"
    }
   ],
   "linker_set_key" : "_ZTIN7android8internal7details17HasToStringMethodIN4aidl7android8hardware4wifi10supplicant14WifiTechnologyEE6$valueE",
   "name" : "android::internal::details::HasToStringMethod<aidl::android::hardware::wifi::supplicant::WifiTechnology>::(unnamed enum at frameworks/native/libs/binder/ndk/include_cpp/android/binder_to_string.h:77:5)",
   "referenced_type" : "_ZTIN7android8internal7details17HasToStringMethodIN4aidl7android8hardware4wifi10supplicant14WifiTechnologyEE6$valueE",
   "self_type" : "_ZTIN7android8internal7details17HasToStringMethodIN4aidl7android8hardware4wifi10supplicant14WifiTechnologyEE6$valueE",
   "size" : 4,
   "source_file" : "frameworks/native/libs/binder/ndk/include_cpp/android/binder_to_string.h",
   "underlying_type" : "_ZTIj"
  },
  {
   "alignment" : 4,
   "enum_fields" :
   [
    {
     "enum_field_value" : 0,
     "name" : "android::internal::details::HasToStringMethod<aidl::android::hardware::wifi::supplicant::BssTmStatusCode>::value"
    }
   ],
   "linker_set_key" : "_ZTIN7android8internal7details17HasToStringMethodIN4aidl7android8hardware4wifi10supplicant15BssTmStatusCodeEE6$valueE",
   "name" : "android::internal::details::HasToStringMethod<aidl::android::hardware::wifi::supplicant::BssTmStatusCode>::(unnamed enum at frameworks/native/libs/binder/ndk/include_cpp/android/binder_to_string.h:77:5)",
   "referenced_type" : "_ZTIN7android8internal7details17HasToStringMethodIN4aidl7android8hardware4wifi10supplicant15BssTmStatusCodeEE6$valueE",
   "self_type" : "_ZTIN7android8internal7details17HasToStringMethodIN4aidl7android8hardware4wifi10supplicant15BssTmStatusCodeEE6$valueE",
   "size" : 4,
   "source_file" : "frameworks/native/libs/binder/ndk/include_cpp/android/binder_to_string.h",
   "underlying_type" : "_ZTIj"
  },
  {
   "alignment" : 4,
   "enum_fields" :
   [
    {
     "enum_field_value" : 0,
     "name" : "android::internal::details::HasToStringMethod<aidl::android::hardware::wifi::supplicant::BssTmDataFlagsMask>::value"
    }
   ],
   "linker_set_key" : "_ZTIN7android8internal7details17HasToStringMethodIN4aidl7android8hardware4wifi10supplicant18BssTmDataFlagsMaskEE6$valueE",
   "name" : "android::internal::details::HasToStringMethod<aidl::android::hardware::wifi::supplicant::BssTmDataFlagsMask>::(unnamed enum at frameworks/native/libs/binder/ndk/include_cpp/android/binder_to_string.h:77:5)",
   "referenced_type" : "_ZTIN7android8internal7details17HasToStringMethodIN4aidl7android8hardware4wifi10supplicant18BssTmDataFlagsMaskEE6$valueE",
   "self_type" : "_ZTIN7android8internal7details17HasToStringMethodIN4aidl7android8hardware4wifi10supplicant18BssTmDataFlagsMaskEE6$valueE",
   "size" : 4,
   "source_file" : "frameworks/native/libs/binder/ndk/include_cpp/android/binder_to_string.h",
   "underlying_type" : "_ZTIj"
  },
  {
   "alignment" : 4,
   "enum_fields" :
   [
    {
     "enum_field_value" : 0,
     "name" : "android::internal::details::HasToStringMethod<aidl::android::hardware::wifi::supplicant::ProtocolNextHeader>::value"
    }
   ],
   "linker_set_key" : "_ZTIN7android8internal7details17HasToStringMethodIN4aidl7android8hardware4wifi10supplicant18ProtocolNextHeaderEE6$valueE",
   "name" : "android::internal::details::HasToStringMethod<aidl::android::hardware::wifi::supplicant::ProtocolNextHeader>::(unnamed enum at frameworks/native/libs/binder/ndk/include_cpp/android/binder_to_string.h:77:5)",
   "referenced_type" : "_ZTIN7android8internal7details17HasToStringMethodIN4aidl7android8hardware4wifi10supplicant18ProtocolNextHeaderEE6$valueE",
   "self_type" : "_ZTIN7android8internal7details17HasToStringMethodIN4aidl7android8hardware4wifi10supplicant18ProtocolNextHeaderEE6$valueE",
   "size" : 4,
   "source_file" : "frameworks/native/libs/binder/ndk/include_cpp/android/binder_to_string.h",
   "underlying_type" : "_ZTIj"
  },
  {
   "alignment" : 4,
   "enum_fields" :
   [
    {
     "enum_field_value" : 0,
     "name" : "android::internal::details::HasToStringMethod<aidl::android::hardware::wifi::supplicant::StaIfaceStatusCode>::value"
    }
   ],
   "linker_set_key" : "_ZTIN7android8internal7details17HasToStringMethodIN4aidl7android8hardware4wifi10supplicant18StaIfaceStatusCodeEE6$valueE",
   "name" : "android::internal::details::HasToStringMethod<aidl::android::hardware::wifi::supplicant::StaIfaceStatusCode>::(unnamed enum at frameworks/native/libs/binder/ndk/include_cpp/android/binder_to_string.h:77:5)",
   "referenced_type" : "_ZTIN7android8internal7details17HasToStringMethodIN4aidl7android8hardware4wifi10supplicant18StaIfaceStatusCodeEE6$valueE",
   "self_type" : "_ZTIN7android8internal7details17HasToStringMethodIN4aidl7android8hardware4wifi10supplicant18StaIfaceStatusCodeEE6$valueE",
   "size" : 4,
   "source_file" : "frameworks/native/libs/binder/ndk/include_cpp/android/binder_to_string.h",
   "underlying_type" : "_ZTIj"
  },
  {
   "alignment" : 4,
   "enum_fields" :
   [
    {
     "enum_field_value" : 0,
     "name" : "android::internal::details::HasToStringMethod<aidl::android::hardware::wifi::supplicant::QosPolicyStatusCode>::value"
    }
   ],
   "linker_set_key" : "_ZTIN7android8internal7details17HasToStringMethodIN4aidl7android8hardware4wifi10supplicant19QosPolicyStatusCodeEE6$valueE",
   "name" : "android::internal::details::HasToStringMethod<aidl::android::hardware::wifi::supplicant::QosPolicyStatusCode>::(unnamed enum at frameworks/native/libs/binder/ndk/include_cpp/android/binder_to_string.h:77:5)",
   "referenced_type" : "_ZTIN7android8internal7details17HasToStringMethodIN4aidl7android8hardware4wifi10supplicant19QosPolicyStatusCodeEE6$valueE",
   "self_type" : "_ZTIN7android8internal7details17HasToStringMethodIN4aidl7android8hardware4wifi10supplicant19QosPolicyStatusCodeEE6$valueE",
   "size" : 4,
   "source_file" : "frameworks/native/libs/binder/ndk/include_cpp/android/binder_to_string.h",
   "underlying_type" : "_ZTIj"
  },
  {
   "alignment" : 4,
   "enum_fields" :
   [
    {
     "enum_field_value" : 0,
     "name" : "android::internal::details::HasToStringMethod<aidl::android::hardware::wifi::supplicant::QosPolicyRequestType>::value"
    }
   ],
   "linker_set_key" : "_ZTIN7android8internal7details17HasToStringMethodIN4aidl7android8hardware4wifi10supplicant20QosPolicyRequestTypeEE6$valueE",
   "name" : "android::internal::details::HasToStringMethod<aidl::android::hardware::wifi::supplicant::QosPolicyRequestType>::(unnamed enum at frameworks/native/libs/binder/ndk/include_cpp/android/binder_to_string.h:77:5)",
   "referenced_type" : "_ZTIN7android8internal7details17HasToStringMethodIN4aidl7android8hardware4wifi10supplicant20QosPolicyRequestTypeEE6$valueE",
   "self_type" : "_ZTIN7android8internal7details17HasToStringMethodIN4aidl7android8hardware4wifi10supplicant20QosPolicyRequestTypeEE6$valueE",
   "size" : 4,
   "source_file" : "frameworks/native/libs/binder/ndk/include_cpp/android/binder_to_string.h",
   "underlying_type" : "_ZTIj"
  },
  {
   "alignment" : 4,
   "enum_fields" :
   [
    {
     "enum_field_value" : 0,
     "name" : "android::internal::details::HasToStringMethod<aidl::android::hardware::wifi::supplicant::MboTransitionReasonCode>::value"
    }
   ],
   "linker_set_key" : "_ZTIN7android8internal7details17HasToStringMethodIN4aidl7android8hardware4wifi10supplicant23MboTransitionReasonCodeEE6$valueE",
   "name" : "android::internal::details::HasToStringMethod<aidl::android::hardware::wifi::supplicant::MboTransitionReasonCode>::(unnamed enum at frameworks/native/libs/binder/ndk/include_cpp/android/binder_to_string.h:77:5)",
   "referenced_type" : "_ZTIN7android8internal7details17HasToStringMethodIN4aidl7android8hardware4wifi10supplicant23MboTransitionReasonCodeEE6$valueE",
   "self_type" : "_ZTIN7android8internal7details17HasToStringMethodIN4aidl7android8hardware4wifi10supplicant23MboTransitionReasonCodeEE6$valueE",
   "size" : 4,
   "source_file" : "frameworks/native/libs/binder/ndk/include_cpp/android/binder_to_string.h",
   "underlying_type" : "_ZTIj"
  },
  {
   "alignment" : 4,
   "enum_fields" :
   [
    {
     "enum_field_value" : 1,
     "name" : "android::internal::details::HasToStringMethod<aidl::android::hardware::wifi::supplicant::QosPolicyClassifierParams>::value"
    }
   ],
   "linker_set_key" : "_ZTIN7android8internal7details17HasToStringMethodIN4aidl7android8hardware4wifi10supplicant25QosPolicyClassifierParamsEE6$valueE",
   "name" : "android::internal::details::HasToStringMethod<aidl::android::hardware::wifi::supplicant::QosPolicyClassifierParams>::(unnamed enum at frameworks/native/libs/binder/ndk/include_cpp/android/binder_to_string.h:77:5)",
   "referenced_type" : "_ZTIN7android8internal7details17HasToStringMethodIN4aidl7android8hardware4wifi10supplicant25QosPolicyClassifierParamsEE6$valueE",
   "self_type" : "_ZTIN7android8internal7details17HasToStringMethodIN4aidl7android8hardware4wifi10supplicant25QosPolicyClassifierParamsEE6$valueE",
   "size" : 4,
   "source_file" : "frameworks/native/libs/binder/ndk/include_cpp/android/binder_to_string.h",
   "underlying_type" : "_ZTIj"
  },
  {
   "alignment" : 4,
   "enum_fields" :
   [
    {
     "enum_field_value" : 1,
     "name" : "android::internal::details::HasToStringMethod<aidl::android::hardware::wifi::supplicant::OceRssiBasedAssocRejectAttr>::value"
    }
   ],
   "linker_set_key" : "_ZTIN7android8internal7details17HasToStringMethodIN4aidl7android8hardware4wifi10supplicant27OceRssiBasedAssocRejectAttrEE6$valueE",
   "name" : "android::internal::details::HasToStringMethod<aidl::android::hardware::wifi::supplicant::OceRssiBasedAssocRejectAttr>::(unnamed enum at frameworks/native/libs/binder/ndk/include_cpp/android/binder_to_string.h:77:5)",
   "referenced_type" : "_ZTIN7android8internal7details17HasToStringMethodIN4aidl7android8hardware4wifi10supplicant27OceRssiBasedAssocRejectAttrEE6$valueE",
   "self_type" : "_ZTIN7android8internal7details17HasToStringMethodIN4aidl7android8hardware4wifi10supplicant27OceRssiBasedAssocRejectAttrEE6$valueE",
   "size" : 4,
   "source_file" : "frameworks/native/libs/binder/ndk/include_cpp/android/binder_to_string.h",
   "underlying_type" : "_ZTIj"
  },
  {
   "alignment" : 4,
   "enum_fields" :
   [
    {
     "enum_field_value" : 0,
     "name" : "android::internal::details::HasToStringMethod<aidl::android::hardware::wifi::supplicant::MboAssocDisallowedReasonCode>::value"
    }
   ],
   "linker_set_key" : "_ZTIN7android8internal7details17HasToStringMethodIN4aidl7android8hardware4wifi10supplicant28MboAssocDisallowedReasonCodeEE6$valueE",
   "name" : "android::internal::details::HasToStringMethod<aidl::android::hardware::wifi::supplicant::MboAssocDisallowedReasonCode>::(unnamed enum at frameworks/native/libs/binder/ndk/include_cpp/android/binder_to_string.h:77:5)",
   "referenced_type" : "_ZTIN7android8internal7details17HasToStringMethodIN4aidl7android8hardware4wifi10supplicant28MboAssocDisallowedReasonCodeEE6$valueE",
   "self_type" : "_ZTIN7android8internal7details17HasToStringMethodIN4aidl7android8hardware4wifi10supplicant28MboAssocDisallowedReasonCodeEE6$valueE",
   "size" : 4,
   "source_file" : "frameworks/native/libs/binder/ndk/include_cpp/android/binder_to_string.h",
   "underlying_type" : "_ZTIj"
  },
  {
   "alignment" : 4,
   "enum_fields" :
   [
    {
     "enum_field_value" : 0,
     "name" : "android::internal::details::HasToStringMethod<aidl::android::hardware::wifi::supplicant::QosPolicyClassifierParamsMask>::value"
    }
   ],
   "linker_set_key" : "_ZTIN7android8internal7details17HasToStringMethodIN4aidl7android8hardware4wifi10supplicant29QosPolicyClassifierParamsMaskEE6$valueE",
   "name" : "android::internal::details::HasToStringMethod<aidl::android::hardware::wifi::supplicant::QosPolicyClassifierParamsMask>::(unnamed enum at frameworks/native/libs/binder/ndk/include_cpp/android/binder_to_string.h:77:5)",
   "referenced_type" : "_ZTIN7android8internal7details17HasToStringMethodIN4aidl7android8hardware4wifi10supplicant29QosPolicyClassifierParamsMaskEE6$valueE",
   "self_type" : "_ZTIN7android8internal7details17HasToStringMethodIN4aidl7android8hardware4wifi10supplicant29QosPolicyClassifierParamsMaskEE6$valueE",
   "size" : 4,
   "source_file" : "frameworks/native/libs/binder/ndk/include_cpp/android/binder_to_string.h",
   "underlying_type" : "_ZTIj"
  },
  {
   "alignment" : 4,
   "enum_fields" :
   [
    {
     "enum_field_value" : 0,
     "name" : "android::internal::details::HasToStringMethod<aidl::android::hardware::wifi::supplicant::MboCellularDataConnectionPrefValue>::value"
    }
   ],
   "linker_set_key" : "_ZTIN7android8internal7details17HasToStringMethodIN4aidl7android8hardware4wifi10supplicant34MboCellularDataConnectionPrefValueEE6$valueE",
   "name" : "android::internal::details::HasToStringMethod<aidl::android::hardware::wifi::supplicant::MboCellularDataConnectionPrefValue>::(unnamed enum at frameworks/native/libs/binder/ndk/include_cpp/android/binder_to_string.h:77:5)",
   "referenced_type" : "_ZTIN7android8internal7details17HasToStringMethodIN4aidl7android8hardware4wifi10supplicant34MboCellularDataConnectionPrefValueEE6$valueE",
   "self_type" : "_ZTIN7android8internal7details17HasToStringMethodIN4aidl7android8hardware4wifi10supplicant34MboCellularDataConnectionPrefValueEE6$valueE",
   "size" : 4,
   "source_file" : "frameworks/native/libs/binder/ndk/include_cpp/android/binder_to_string.h",
   "underlying_type" : "_ZTIj"
  },
  {
   "alignment" : 4,
   "enum_fields" :
   [
    {
     "enum_field_value" : 1,
     "name" : "android::internal::details::HasToStringMethod<aidl::android::hardware::wifi::supplicant::GsmRand>::value"
    }
   ],
   "linker_set_key" : "_ZTIN7android8internal7details17HasToStringMethodIN4aidl7android8hardware4wifi10supplicant7GsmRandEE6$valueE",
   "name" : "android::internal::details::HasToStringMethod<aidl::android::hardware::wifi::supplicant::GsmRand>::(unnamed enum at frameworks/native/libs/binder/ndk/include_cpp/android/binder_to_string.h:77:5)",
   "referenced_type" : "_ZTIN7android8internal7details17HasToStringMethodIN4aidl7android8hardware4wifi10supplicant7GsmRandEE6$valueE",
   "self_type" : "_ZTIN7android8internal7details17HasToStringMethodIN4aidl7android8hardware4wifi10supplicant7GsmRandEE6$valueE",
   "size" : 4,
   "source_file" : "frameworks/native/libs/binder/ndk/include_cpp/android/binder_to_string.h",
   "underlying_type" : "_ZTIj"
  },
  {
   "alignment" : 4,
   "enum_fields" :
   [
    {
     "enum_field_value" : 1,
     "name" : "android::internal::details::HasToStringMethod<aidl::android::hardware::wifi::supplicant::MloLink>::value"
    }
   ],
   "linker_set_key" : "_ZTIN7android8internal7details17HasToStringMethodIN4aidl7android8hardware4wifi10supplicant7MloLinkEE6$valueE",
   "name" : "android::internal::details::HasToStringMethod<aidl::android::hardware::wifi::supplicant::MloLink>::(unnamed enum at frameworks/native/libs/binder/ndk/include_cpp/android/binder_to_string.h:77:5)",
   "referenced_type" : "_ZTIN7android8internal7details17HasToStringMethodIN4aidl7android8hardware4wifi10supplicant7MloLinkEE6$valueE",
   "self_type" : "_ZTIN7android8internal7details17HasToStringMethodIN4aidl7android8hardware4wifi10supplicant7MloLinkEE6$valueE",
   "size" : 4,
   "source_file" : "frameworks/native/libs/binder/ndk/include_cpp/android/binder_to_string.h",
   "underlying_type" : "_ZTIj"
  },
  {
   "alignment" : 4,
   "enum_fields" :
   [
    {
     "enum_field_value" : 0,
     "name" : "android::internal::details::HasToStringMethod<aidl::android::hardware::wifi::supplicant::IfaceType>::value"
    }
   ],
   "linker_set_key" : "_ZTIN7android8internal7details17HasToStringMethodIN4aidl7android8hardware4wifi10supplicant9IfaceTypeEE6$valueE",
   "name" : "android::internal::details::HasToStringMethod<aidl::android::hardware::wifi::supplicant::IfaceType>::(unnamed enum at frameworks/native/libs/binder/ndk/include_cpp/android/binder_to_string.h:77:5)",
   "referenced_type" : "_ZTIN7android8internal7details17HasToStringMethodIN4aidl7android8hardware4wifi10supplicant9IfaceTypeEE6$valueE",
   "self_type" : "_ZTIN7android8internal7details17HasToStringMethodIN4aidl7android8hardware4wifi10supplicant9IfaceTypeEE6$valueE",
   "size" : 4,
   "source_file" : "frameworks/native/libs/binder/ndk/include_cpp/android/binder_to_string.h",
   "underlying_type" : "_ZTIj"
  },
  {
   "alignment" : 4,
   "enum_fields" :
   [
    {
     "enum_field_value" : 0,
     "name" : "android::internal::details::HasToStringMethod<aidl::android::hardware::wifi::supplicant::IpVersion>::value"
    }
   ],
   "linker_set_key" : "_ZTIN7android8internal7details17HasToStringMethodIN4aidl7android8hardware4wifi10supplicant9IpVersionEE6$valueE",
   "name" : "android::internal::details::HasToStringMethod<aidl::android::hardware::wifi::supplicant::IpVersion>::(unnamed enum at frameworks/native/libs/binder/ndk/include_cpp/android/binder_to_string.h:77:5)",
   "referenced_type" : "_ZTIN7android8internal7details17HasToStringMethodIN4aidl7android8hardware4wifi10supplicant9IpVersionEE6$valueE",
   "self_type" : "_ZTIN7android8internal7details17HasToStringMethodIN4aidl7android8hardware4wifi10supplicant9IpVersionEE6$valueE",
   "size" : 4,
   "source_file" : "frameworks/native/libs/binder/ndk/include_cpp/android/binder_to_string.h",
   "underlying_type" : "_ZTIj"
  },
  {
   "alignment" : 4,
   "enum_fields" :
   [
    {
     "enum_field_value" : 1,
     "name" : "android::internal::details::HasToStringMethod<aidl::android::hardware::wifi::supplicant::PortRange>::value"
    }
   ],
   "linker_set_key" : "_ZTIN7android8internal7details17HasToStringMethodIN4aidl7android8hardware4wifi10supplicant9PortRangeEE6$valueE",
   "name" : "android::internal::details::HasToStringMethod<aidl::android::hardware::wifi::supplicant::PortRange>::(unnamed enum at frameworks/native/libs/binder/ndk/include_cpp/android/binder_to_string.h:77:5)",
   "referenced_type" : "_ZTIN7android8internal7details17HasToStringMethodIN4aidl7android8hardware4wifi10supplicant9PortRangeEE6$valueE",
   "self_type" : "_ZTIN7android8internal7details17HasToStringMethodIN4aidl7android8hardware4wifi10supplicant9PortRangeEE6$valueE",
   "size" : 4,
   "source_file" : "frameworks/native/libs/binder/ndk/include_cpp/android/binder_to_string.h",
   "underlying_type" : "_ZTIj"
  },
  {
   "alignment" : 4,
   "enum_fields" :
   [
    {
     "enum_field_value" : 0,
     "name" : "android::internal::details::HasToStringMethod<std::vector<aidl::android::hardware::wifi::supplicant::GsmRand>>::value"
    }
   ],
   "linker_set_key" : "_ZTIN7android8internal7details17HasToStringMethodINSt3__16vectorIN4aidl7android8hardware4wifi10supplicant7GsmRandENS3_9allocatorISA_EEEEE6$valueE",
   "name" : "android::internal::details::HasToStringMethod<std::vector<aidl::android::hardware::wifi::supplicant::GsmRand, std::allocator<aidl::android::hardware::wifi::supplicant::GsmRand>>>::(unnamed enum at frameworks/native/libs/binder/ndk/include_cpp/android/binder_to_string.h:77:5)",
   "referenced_type" : "_ZTIN7android8internal7details17HasToStringMethodINSt3__16vectorIN4aidl7android8hardware4wifi10supplicant7GsmRandENS3_9allocatorISA_EEEEE6$valueE",
   "self_type" : "_ZTIN7android8internal7details17HasToStringMethodINSt3__16vectorIN4aidl7android8hardware4wifi10supplicant7GsmRandENS3_9allocatorISA_EEEEE6$valueE",
   "size" : 4,
   "source_file" : "frameworks/native/libs/binder/ndk/include_cpp/android/binder_to_string.h",
   "underlying_type" : "_ZTIj"
  },
  {
   "alignment" : 4,
   "enum_fields" :
   [
    {
     "enum_field_value" : 0,
     "name" : "android::internal::details::HasToStringMethod<std::vector<aidl::android::hardware::wifi::supplicant::MloLink>>::value"
    }
   ],
   "linker_set_key" : "_ZTIN7android8internal7details17HasToStringMethodINSt3__16vectorIN4aidl7android8hardware4wifi10supplicant7MloLinkENS3_9allocatorISA_EEEEE6$valueE",
   "name" : "android::internal::details::HasToStringMethod<std::vector<aidl::android::hardware::wifi::supplicant::MloLink, std::allocator<aidl::android::hardware::wifi::supplicant::MloLink>>>::(unnamed enum at frameworks/native/libs/binder/ndk/include_cpp/android/binder_to_string.h:77:5)",
   "referenced_type" : "_ZTIN7android8internal7details17HasToStringMethodINSt3__16vectorIN4aidl7android8hardware4wifi10supplicant7MloLinkENS3_9allocatorISA_EEEEE6$valueE",
   "self_type" : "_ZTIN7android8internal7details17HasToStringMethodINSt3__16vectorIN4aidl7android8hardware4wifi10supplicant7MloLinkENS3_9allocatorISA_EEEEE6$valueE",
   "size" : 4,
   "source_file" : "frameworks/native/libs/binder/ndk/include_cpp/android/binder_to_string.h",
   "underlying_type" : "_ZTIj"
  },
  {
   "alignment" : 4,
   "enum_fields" :
   [
    {
     "enum_field_value" : 0,
     "name" : "android::internal::details::HasToStringMethod<std::vector<unsigned char>>::value"
    }
   ],
   "linker_set_key" : "_ZTIN7android8internal7details17HasToStringMethodINSt3__16vectorIhNS3_9allocatorIhEEEEE6$valueE",
   "name" : "android::internal::details::HasToStringMethod<std::vector<unsigned char, std::allocator<unsigned char>>>::(unnamed enum at frameworks/native/libs/binder/ndk/include_cpp/android/binder_to_string.h:77:5)",
   "referenced_type" : "_ZTIN7android8internal7details17HasToStringMethodINSt3__16vectorIhNS3_9allocatorIhEEEEE6$valueE",
   "self_type" : "_ZTIN7android8internal7details17HasToStringMethodINSt3__16vectorIhNS3_9allocatorIhEEEEE6$valueE",
   "size" : 4,
   "source_file" : "frameworks/native/libs/binder/ndk/include_cpp/android/binder_to_string.h",
   "underlying_type" : "_ZTIj"
  },
  {
   "alignment" : 4,
   "enum_fields" :
   [
    {
     "enum_field_value" : 1,
     "name" : "android::internal::details::HasToStringFunction<aidl::android::hardware::wifi::supplicant::LegacyMode>::value"
    }
   ],
   "linker_set_key" : "_ZTIN7android8internal7details19HasToStringFunctionIN4aidl7android8hardware4wifi10supplicant10LegacyModeEE6$valueE",
   "name" : "android::internal::details::HasToStringFunction<aidl::android::hardware::wifi::supplicant::LegacyMode>::(unnamed enum at frameworks/native/libs/binder/ndk/include_cpp/android/binder_to_string.h:89:5)",
   "referenced_type" : "_ZTIN7android8internal7details19HasToStringFunctionIN4aidl7android8hardware4wifi10supplicant10LegacyModeEE6$valueE",
   "self_type" : "_ZTIN7android8internal7details19HasToStringFunctionIN4aidl7android8hardware4wifi10supplicant10LegacyModeEE6$valueE",
   "size" : 4,
   "source_file" : "frameworks/native/libs/binder/ndk/include_cpp/android/binder_to_string.h",
   "underlying_type" : "_ZTIj"
  },
  {
   "alignment" : 4,
   "enum_fields" :
   [
    {
     "enum_field_value" : 1,
     "name" : "android::internal::details::HasToStringFunction<aidl::android::hardware::wifi::supplicant::WifiTechnology>::value"
    }
   ],
   "linker_set_key" : "_ZTIN7android8internal7details19HasToStringFunctionIN4aidl7android8hardware4wifi10supplicant14WifiTechnologyEE6$valueE",
   "name" : "android::internal::details::HasToStringFunction<aidl::android::hardware::wifi::supplicant::WifiTechnology>::(unnamed enum at frameworks/native/libs/binder/ndk/include_cpp/android/binder_to_string.h:89:5)",
   "referenced_type" : "_ZTIN7android8internal7details19HasToStringFunctionIN4aidl7android8hardware4wifi10supplicant14WifiTechnologyEE6$valueE",
   "self_type" : "_ZTIN7android8internal7details19HasToStringFunctionIN4aidl7android8hardware4wifi10supplicant14WifiTechnologyEE6$valueE",
   "size" : 4,
   "source_file" : "frameworks/native/libs/binder/ndk/include_cpp/android/binder_to_string.h",
   "underlying_type" : "_ZTIj"
  },
  {
   "alignment" : 4,
   "enum_fields" :
   [
    {
     "enum_field_value" : 1,
     "name" : "android::internal::details::HasToStringFunction<aidl::android::hardware::wifi::supplicant::BssTmStatusCode>::value"
    }
   ],
   "linker_set_key" : "_ZTIN7android8internal7details19HasToStringFunctionIN4aidl7android8hardware4wifi10supplicant15BssTmStatusCodeEE6$valueE",
   "name" : "android::internal::details::HasToStringFunction<aidl::android::hardware::wifi::supplicant::BssTmStatusCode>::(unnamed enum at frameworks/native/libs/binder/ndk/include_cpp/android/binder_to_string.h:89:5)",
   "referenced_type" : "_ZTIN7android8internal7details19HasToStringFunctionIN4aidl7android8hardware4wifi10supplicant15BssTmStatusCodeEE6$valueE",
   "self_type" : "_ZTIN7android8internal7details19HasToStringFunctionIN4aidl7android8hardware4wifi10supplicant15BssTmStatusCodeEE6$valueE",
   "size" : 4,
   "source_file" : "frameworks/native/libs/binder/ndk/include_cpp/android/binder_to_string.h",
   "underlying_type" : "_ZTIj"
  },
  {
   "alignment" : 4,
   "enum_fields" :
   [
    {
     "enum_field_value" : 1,
     "name" : "android::internal::details::HasToStringFunction<aidl::android::hardware::wifi::supplicant::BssTmDataFlagsMask>::value"
    }
   ],
   "linker_set_key" : "_ZTIN7android8internal7details19HasToStringFunctionIN4aidl7android8hardware4wifi10supplicant18BssTmDataFlagsMaskEE6$valueE",
   "name" : "android::internal::details::HasToStringFunction<aidl::android::hardware::wifi::supplicant::BssTmDataFlagsMask>::(unnamed enum at frameworks/native/libs/binder/ndk/include_cpp/android/binder_to_string.h:89:5)",
   "referenced_type" : "_ZTIN7android8internal7details19HasToStringFunctionIN4aidl7android8hardware4wifi10supplicant18BssTmDataFlagsMaskEE6$valueE",
   "self_type" : "_ZTIN7android8internal7details19HasToStringFunctionIN4aidl7android8hardware4wifi10supplicant18BssTmDataFlagsMaskEE6$valueE",
   "size" : 4,
   "source_file" : "frameworks/native/libs/binder/ndk/include_cpp/android/binder_to_string.h",
   "underlying_type" : "_ZTIj"
  },
  {
   "alignment" : 4,
   "enum_fields" :
   [
    {
     "enum_field_value" : 1,
     "name" : "android::internal::details::HasToStringFunction<aidl::android::hardware::wifi::supplicant::ProtocolNextHeader>::value"
    }
   ],
   "linker_set_key" : "_ZTIN7android8internal7details19HasToStringFunctionIN4aidl7android8hardware4wifi10supplicant18ProtocolNextHeaderEE6$valueE",
   "name" : "android::internal::details::HasToStringFunction<aidl::android::hardware::wifi::supplicant::ProtocolNextHeader>::(unnamed enum at frameworks/native/libs/binder/ndk/include_cpp/android/binder_to_string.h:89:5)",
   "referenced_type" : "_ZTIN7android8internal7details19HasToStringFunctionIN4aidl7android8hardware4wifi10supplicant18ProtocolNextHeaderEE6$valueE",
   "self_type" : "_ZTIN7android8internal7details19HasToStringFunctionIN4aidl7android8hardware4wifi10supplicant18ProtocolNextHeaderEE6$valueE",
   "size" : 4,
   "source_file" : "frameworks/native/libs/binder/ndk/include_cpp/android/binder_to_string.h",
   "underlying_type" : "_ZTIj"
  },
  {
   "alignment" : 4,
   "enum_fields" :
   [
    {
     "enum_field_value" : 1,
     "name" : "android::internal::details::HasToStringFunction<aidl::android::hardware::wifi::supplicant::StaIfaceStatusCode>::value"
    }
   ],
   "linker_set_key" : "_ZTIN7android8internal7details19HasToStringFunctionIN4aidl7android8hardware4wifi10supplicant18StaIfaceStatusCodeEE6$valueE",
   "name" : "android::internal::details::HasToStringFunction<aidl::android::hardware::wifi::supplicant::StaIfaceStatusCode>::(unnamed enum at frameworks/native/libs/binder/ndk/include_cpp/android/binder_to_string.h:89:5)",
   "referenced_type" : "_ZTIN7android8internal7details19HasToStringFunctionIN4aidl7android8hardware4wifi10supplicant18StaIfaceStatusCodeEE6$valueE",
   "self_type" : "_ZTIN7android8internal7details19HasToStringFunctionIN4aidl7android8hardware4wifi10supplicant18StaIfaceStatusCodeEE6$valueE",
   "size" : 4,
   "source_file" : "frameworks/native/libs/binder/ndk/include_cpp/android/binder_to_string.h",
   "underlying_type" : "_ZTIj"
  },
  {
   "alignment" : 4,
   "enum_fields" :
   [
    {
     "enum_field_value" : 1,
     "name" : "android::internal::details::HasToStringFunction<aidl::android::hardware::wifi::supplicant::QosPolicyStatusCode>::value"
    }
   ],
   "linker_set_key" : "_ZTIN7android8internal7details19HasToStringFunctionIN4aidl7android8hardware4wifi10supplicant19QosPolicyStatusCodeEE6$valueE",
   "name" : "android::internal::details::HasToStringFunction<aidl::android::hardware::wifi::supplicant::QosPolicyStatusCode>::(unnamed enum at frameworks/native/libs/binder/ndk/include_cpp/android/binder_to_string.h:89:5)",
   "referenced_type" : "_ZTIN7android8internal7details19HasToStringFunctionIN4aidl7android8hardware4wifi10supplicant19QosPolicyStatusCodeEE6$valueE",
   "self_type" : "_ZTIN7android8internal7details19HasToStringFunctionIN4aidl7android8hardware4wifi10supplicant19QosPolicyStatusCodeEE6$valueE",
   "size" : 4,
   "source_file" : "frameworks/native/libs/binder/ndk/include_cpp/android/binder_to_string.h",
   "underlying_type" : "_ZTIj"
  },
  {
   "alignment" : 4,
   "enum_fields" :
   [
    {
     "enum_field_value" : 1,
     "name" : "android::internal::details::HasToStringFunction<aidl::android::hardware::wifi::supplicant::QosPolicyRequestType>::value"
    }
   ],
   "linker_set_key" : "_ZTIN7android8internal7details19HasToStringFunctionIN4aidl7android8hardware4wifi10supplicant20QosPolicyRequestTypeEE6$valueE",
   "name" : "android::internal::details::HasToStringFunction<aidl::android::hardware::wifi::supplicant::QosPolicyRequestType>::(unnamed enum at frameworks/native/libs/binder/ndk/include_cpp/android/binder_to_string.h:89:5)",
   "referenced_type" : "_ZTIN7android8internal7details19HasToStringFunctionIN4aidl7android8hardware4wifi10supplicant20QosPolicyRequestTypeEE6$valueE",
   "self_type" : "_ZTIN7android8internal7details19HasToStringFunctionIN4aidl7android8hardware4wifi10supplicant20QosPolicyRequestTypeEE6$valueE",
   "size" : 4,
   "source_file" : "frameworks/native/libs/binder/ndk/include_cpp/android/binder_to_string.h",
   "underlying_type" : "_ZTIj"
  },
  {
   "alignment" : 4,
   "enum_fields" :
   [
    {
     "enum_field_value" : 1,
     "name" : "android::internal::details::HasToStringFunction<aidl::android::hardware::wifi::supplicant::MboTransitionReasonCode>::value"
    }
   ],
   "linker_set_key" : "_ZTIN7android8internal7details19HasToStringFunctionIN4aidl7android8hardware4wifi10supplicant23MboTransitionReasonCodeEE6$valueE",
   "name" : "android::internal::details::HasToStringFunction<aidl::android::hardware::wifi::supplicant::MboTransitionReasonCode>::(unnamed enum at frameworks/native/libs/binder/ndk/include_cpp/android/binder_to_string.h:89:5)",
   "referenced_type" : "_ZTIN7android8internal7details19HasToStringFunctionIN4aidl7android8hardware4wifi10supplicant23MboTransitionReasonCodeEE6$valueE",
   "self_type" : "_ZTIN7android8internal7details19HasToStringFunctionIN4aidl7android8hardware4wifi10supplicant23MboTransitionReasonCodeEE6$valueE",
   "size" : 4,
   "source_file" : "frameworks/native/libs/binder/ndk/include_cpp/android/binder_to_string.h",
   "underlying_type" : "_ZTIj"
  },
  {
   "alignment" : 4,
   "enum_fields" :
   [
    {
     "enum_field_value" : 1,
     "name" : "android::internal::details::HasToStringFunction<aidl::android::hardware::wifi::supplicant::MboAssocDisallowedReasonCode>::value"
    }
   ],
   "linker_set_key" : "_ZTIN7android8internal7details19HasToStringFunctionIN4aidl7android8hardware4wifi10supplicant28MboAssocDisallowedReasonCodeEE6$valueE",
   "name" : "android::internal::details::HasToStringFunction<aidl::android::hardware::wifi::supplicant::MboAssocDisallowedReasonCode>::(unnamed enum at frameworks/native/libs/binder/ndk/include_cpp/android/binder_to_string.h:89:5)",
   "referenced_type" : "_ZTIN7android8internal7details19HasToStringFunctionIN4aidl7android8hardware4wifi10supplicant28MboAssocDisallowedReasonCodeEE6$valueE",
   "self_type" : "_ZTIN7android8internal7details19HasToStringFunctionIN4aidl7android8hardware4wifi10supplicant28MboAssocDisallowedReasonCodeEE6$valueE",
   "size" : 4,
   "source_file" : "frameworks/native/libs/binder/ndk/include_cpp/android/binder_to_string.h",
   "underlying_type" : "_ZTIj"
  },
  {
   "alignment" : 4,
   "enum_fields" :
   [
    {
     "enum_field_value" : 1,
     "name" : "android::internal::details::HasToStringFunction<aidl::android::hardware::wifi::supplicant::QosPolicyClassifierParamsMask>::value"
    }
   ],
   "linker_set_key" : "_ZTIN7android8internal7details19HasToStringFunctionIN4aidl7android8hardware4wifi10supplicant29QosPolicyClassifierParamsMaskEE6$valueE",
   "name" : "android::internal::details::HasToStringFunction<aidl::android::hardware::wifi::supplicant::QosPolicyClassifierParamsMask>::(unnamed enum at frameworks/native/libs/binder/ndk/include_cpp/android/binder_to_string.h:89:5)",
   "referenced_type" : "_ZTIN7android8internal7details19HasToStringFunctionIN4aidl7android8hardware4wifi10supplicant29QosPolicyClassifierParamsMaskEE6$valueE",
   "self_type" : "_ZTIN7android8internal7details19HasToStringFunctionIN4aidl7android8hardware4wifi10supplicant29QosPolicyClassifierParamsMaskEE6$valueE",
   "size" : 4,
   "source_file" : "frameworks/native/libs/binder/ndk/include_cpp/android/binder_to_string.h",
   "underlying_type" : "_ZTIj"
  },
  {
   "alignment" : 4,
   "enum_fields" :
   [
    {
     "enum_field_value" : 1,
     "name" : "android::internal::details::HasToStringFunction<aidl::android::hardware::wifi::supplicant::MboCellularDataConnectionPrefValue>::value"
    }
   ],
   "linker_set_key" : "_ZTIN7android8internal7details19HasToStringFunctionIN4aidl7android8hardware4wifi10supplicant34MboCellularDataConnectionPrefValueEE6$valueE",
   "name" : "android::internal::details::HasToStringFunction<aidl::android::hardware::wifi::supplicant::MboCellularDataConnectionPrefValue>::(unnamed enum at frameworks/native/libs/binder/ndk/include_cpp/android/binder_to_string.h:89:5)",
   "referenced_type" : "_ZTIN7android8internal7details19HasToStringFunctionIN4aidl7android8hardware4wifi10supplicant34MboCellularDataConnectionPrefValueEE6$valueE",
   "self_type" : "_ZTIN7android8internal7details19HasToStringFunctionIN4aidl7android8hardware4wifi10supplicant34MboCellularDataConnectionPrefValueEE6$valueE",
   "size" : 4,
   "source_file" : "frameworks/native/libs/binder/ndk/include_cpp/android/binder_to_string.h",
   "underlying_type" : "_ZTIj"
  },
  {
   "alignment" : 4,
   "enum_fields" :
   [
    {
     "enum_field_value" : 1,
     "name" : "android::internal::details::HasToStringFunction<aidl::android::hardware::wifi::supplicant::IfaceType>::value"
    }
   ],
   "linker_set_key" : "_ZTIN7android8internal7details19HasToStringFunctionIN4aidl7android8hardware4wifi10supplicant9IfaceTypeEE6$valueE",
   "name" : "android::internal::details::HasToStringFunction<aidl::android::hardware::wifi::supplicant::IfaceType>::(unnamed enum at frameworks/native/libs/binder/ndk/include_cpp/android/binder_to_string.h:89:5)",
   "referenced_type" : "_ZTIN7android8internal7details19HasToStringFunctionIN4aidl7android8hardware4wifi10supplicant9IfaceTypeEE6$valueE",
   "self_type" : "_ZTIN7android8internal7details19HasToStringFunctionIN4aidl7android8hardware4wifi10supplicant9IfaceTypeEE6$valueE",
   "size" : 4,
   "source_file" : "frameworks/native/libs/binder/ndk/include_cpp/android/binder_to_string.h",
   "underlying_type" : "_ZTIj"
  },
  {
   "alignment" : 4,
   "enum_fields" :
   [
    {
     "enum_field_value" : 1,
     "name" : "android::internal::details::HasToStringFunction<aidl::android::hardware::wifi::supplicant::IpVersion>::value"
    }
   ],
   "linker_set_key" : "_ZTIN7android8internal7details19HasToStringFunctionIN4aidl7android8hardware4wifi10supplicant9IpVersionEE6$valueE",
   "name" : "android::internal::details::HasToStringFunction<aidl::android::hardware::wifi::supplicant::IpVersion>::(unnamed enum at frameworks/native/libs/binder/ndk/include_cpp/android/binder_to_string.h:89:5)",
   "referenced_type" : "_ZTIN7android8internal7details19HasToStringFunctionIN4aidl7android8hardware4wifi10supplicant9IpVersionEE6$valueE",
   "self_type" : "_ZTIN7android8internal7details19HasToStringFunctionIN4aidl7android8hardware4wifi10supplicant9IpVersionEE6$valueE",
   "size" : 4,
   "source_file" : "frameworks/native/libs/binder/ndk/include_cpp/android/binder_to_string.h",
   "underlying_type" : "_ZTIj"
  },
  {
   "alignment" : 4,
   "enum_fields" :
   [
    {
     "enum_field_value" : 0,
     "name" : "android::internal::details::HasToStringFunction<std::vector<aidl::android::hardware::wifi::supplicant::GsmRand>>::value"
    }
   ],
   "linker_set_key" : "_ZTIN7android8internal7details19HasToStringFunctionINSt3__16vectorIN4aidl7android8hardware4wifi10supplicant7GsmRandENS3_9allocatorISA_EEEEE6$valueE",
   "name" : "android::internal::details::HasToStringFunction<std::vector<aidl::android::hardware::wifi::supplicant::GsmRand, std::allocator<aidl::android::hardware::wifi::supplicant::GsmRand>>>::(unnamed enum at frameworks/native/libs/binder/ndk/include_cpp/android/binder_to_string.h:89:5)",
   "referenced_type" : "_ZTIN7android8internal7details19HasToStringFunctionINSt3__16vectorIN4aidl7android8hardware4wifi10supplicant7GsmRandENS3_9allocatorISA_EEEEE6$valueE",
   "self_type" : "_ZTIN7android8internal7details19HasToStringFunctionINSt3__16vectorIN4aidl7android8hardware4wifi10supplicant7GsmRandENS3_9allocatorISA_EEEEE6$valueE",
   "size" : 4,
   "source_file" : "frameworks/native/libs/binder/ndk/include_cpp/android/binder_to_string.h",
   "underlying_type" : "_ZTIj"
  },
  {
   "alignment" : 4,
   "enum_fields" :
   [
    {
     "enum_field_value" : 0,
     "name" : "android::internal::details::HasToStringFunction<std::vector<aidl::android::hardware::wifi::supplicant::MloLink>>::value"
    }
   ],
   "linker_set_key" : "_ZTIN7android8internal7details19HasToStringFunctionINSt3__16vectorIN4aidl7android8hardware4wifi10supplicant7MloLinkENS3_9allocatorISA_EEEEE6$valueE",
   "name" : "android::internal::details::HasToStringFunction<std::vector<aidl::android::hardware::wifi::supplicant::MloLink, std::allocator<aidl::android::hardware::wifi::supplicant::MloLink>>>::(unnamed enum at frameworks/native/libs/binder/ndk/include_cpp/android/binder_to_string.h:89:5)",
   "referenced_type" : "_ZTIN7android8internal7details19HasToStringFunctionINSt3__16vectorIN4aidl7android8hardware4wifi10supplicant7MloLinkENS3_9allocatorISA_EEEEE6$valueE",
   "self_type" : "_ZTIN7android8internal7details19HasToStringFunctionINSt3__16vectorIN4aidl7android8hardware4wifi10supplicant7MloLinkENS3_9allocatorISA_EEEEE6$valueE",
   "size" : 4,
   "source_file" : "frameworks/native/libs/binder/ndk/include_cpp/android/binder_to_string.h",
   "underlying_type" : "_ZTIj"
  },
  {
   "alignment" : 4,
   "enum_fields" :
   [
    {
     "enum_field_value" : 0,
     "name" : "android::internal::details::HasToStringFunction<std::vector<unsigned char>>::value"
    }
   ],
   "linker_set_key" : "_ZTIN7android8internal7details19HasToStringFunctionINSt3__16vectorIhNS3_9allocatorIhEEEEE6$valueE",
   "name" : "android::internal::details::HasToStringFunction<std::vector<unsigned char, std::allocator<unsigned char>>>::(unnamed enum at frameworks/native/libs/binder/ndk/include_cpp/android/binder_to_string.h:89:5)",
   "referenced_type" : "_ZTIN7android8internal7details19HasToStringFunctionINSt3__16vectorIhNS3_9allocatorIhEEEEE6$valueE",
   "self_type" : "_ZTIN7android8internal7details19HasToStringFunctionINSt3__16vectorIhNS3_9allocatorIhEEEEE6$valueE",
   "size" : 4,
   "source_file" : "frameworks/native/libs/binder/ndk/include_cpp/android/binder_to_string.h",
   "underlying_type" : "_ZTIj"
  }
 ],
 "function_types" :
 [
  {
   "alignment" : 4,
   "linker_set_key" : "_ZTIFiP8AIBinderjPK7AParcelPS1_E",
   "name" : "int (AIBinder *, unsigned int, const AParcel *, AParcel *)",
   "parameters" :
   [
    {
     "referenced_type" : "_ZTIP8AIBinder"
    },
    {
     "referenced_type" : "_ZTIj"
    },
    {
     "referenced_type" : "_ZTIPK7AParcel"
    },
    {
     "referenced_type" : "_ZTIP7AParcel"
    }
   ],
   "referenced_type" : "_ZTIFiP8AIBinderjPK7AParcelPS1_E",
   "return_type" : "_ZTIi",
   "self_type" : "_ZTIFiP8AIBinderjPK7AParcelPS1_E",
   "source_file" : "frameworks/native/libs/binder/ndk/include_cpp/android/binder_interface_utils.h"
  }
 ],
 "functions" :
 [
  {
   "function_name" : "ndk::BnCInterface<aidl::android::hardware::wifi::supplicant::ISupplicant>::asBinder",
   "linker_set_key" : "_ZN3ndk12BnCInterfaceIN4aidl7android8hardware4wifi10supplicant11ISupplicantEE8asBinderEv",
   "parameters" :
   [
    {
     "is_this_ptr" : true,
     "referenced_type" : "_ZTIPN3ndk12BnCInterfaceIN4aidl7android8hardware4wifi10supplicant11ISupplicantEEE"
    }
   ],
   "return_type" : "_ZTIN3ndk10SpAIBinderE",
   "source_file" : "frameworks/native/libs/binder/ndk/include_cpp/android/binder_interface_utils.h"
  },
  {
   "function_name" : "ndk::BnCInterface<aidl::android::hardware::wifi::supplicant::ISupplicantCallback>::asBinder",
   "linker_set_key" : "_ZN3ndk12BnCInterfaceIN4aidl7android8hardware4wifi10supplicant19ISupplicantCallbackEE8asBinderEv",
   "parameters" :
   [
    {
     "is_this_ptr" : true,
     "referenced_type" : "_ZTIPN3ndk12BnCInterfaceIN4aidl7android8hardware4wifi10supplicant19ISupplicantCallbackEEE"
    }
   ],
   "return_type" : "_ZTIN3ndk10SpAIBinderE",
   "source_file" : "frameworks/native/libs/binder/ndk/include_cpp/android/binder_interface_utils.h"
  },
  {
   "function_name" : "ndk::BnCInterface<aidl::android::hardware::wifi::supplicant::ISupplicantP2pIface>::asBinder",
   "linker_set_key" : "_ZN3ndk12BnCInterfaceIN4aidl7android8hardware4wifi10supplicant19ISupplicantP2pIfaceEE8asBinderEv",
   "parameters" :
   [
    {
     "is_this_ptr" : true,
     "referenced_type" : "_ZTIPN3ndk12BnCInterfaceIN4aidl7android8hardware4wifi10supplicant19ISupplicantP2pIfaceEEE"
    }
   ],
   "return_type" : "_ZTIN3ndk10SpAIBinderE",
   "source_file" : "frameworks/native/libs/binder/ndk/include_cpp/android/binder_interface_utils.h"
  },
  {
   "function_name" : "ndk::BnCInterface<aidl::android::hardware::wifi::supplicant::ISupplicantStaIface>::asBinder",
   "linker_set_key" : "_ZN3ndk12BnCInterfaceIN4aidl7android8hardware4wifi10supplicant19ISupplicantStaIfaceEE8asBinderEv",
   "parameters" :
   [
    {
     "is_this_ptr" : true,
     "referenced_type" : "_ZTIPN3ndk12BnCInterfaceIN4aidl7android8hardware4wifi10supplicant19ISupplicantStaIfaceEEE"
    }
   ],
   "return_type" : "_ZTIN3ndk10SpAIBinderE",
   "source_file" : "frameworks/native/libs/binder/ndk/include_cpp/android/binder_interface_utils.h"
  },
  {
   "function_name" : "ndk::BnCInterface<aidl::android::hardware::wifi::supplicant::ISupplicantP2pNetwork>::asBinder",
   "linker_set_key" : "_ZN3ndk12BnCInterfaceIN4aidl7android8hardware4wifi10supplicant21ISupplicantP2pNetworkEE8asBinderEv",
   "parameters" :
   [
    {
     "is_this_ptr" : true,
     "referenced_type" : "_ZTIPN3ndk12BnCInterfaceIN4aidl7android8hardware4wifi10supplicant21ISupplicantP2pNetworkEEE"
    }
   ],
   "return_type" : "_ZTIN3ndk10SpAIBinderE",
   "source_file" : "frameworks/native/libs/binder/ndk/include_cpp/android/binder_interface_utils.h"
  },
  {
   "function_name" : "ndk::BnCInterface<aidl::android::hardware::wifi::supplicant::ISupplicantStaNetwork>::asBinder",
   "linker_set_key" : "_ZN3ndk12BnCInterfaceIN4aidl7android8hardware4wifi10supplicant21ISupplicantStaNetworkEE8asBinderEv",
   "parameters" :
   [
    {
     "is_this_ptr" : true,
     "referenced_type" : "_ZTIPN3ndk12BnCInterfaceIN4aidl7android8hardware4wifi10supplicant21ISupplicantStaNetworkEEE"
    }
   ],
   "return_type" : "_ZTIN3ndk10SpAIBinderE",
   "source_file" : "frameworks/native/libs/binder/ndk/include_cpp/android/binder_interface_utils.h"
  },
  {
   "function_name" : "ndk::BnCInterface<aidl::android::hardware::wifi::supplicant::ISupplicantP2pIfaceCallback>::asBinder",
   "linker_set_key" : "_ZN3ndk12BnCInterfaceIN4aidl7android8hardware4wifi10supplicant27ISupplicantP2pIfaceCallbackEE8asBinderEv",
   "parameters" :
   [
    {
     "is_this_ptr" : true,
     "referenced_type" : "_ZTIPN3ndk12BnCInterfaceIN4aidl7android8hardware4wifi10supplicant27ISupplicantP2pIfaceCallbackEEE"
    }
   ],
   "return_type" : "_ZTIN3ndk10SpAIBinderE",
   "source_file" : "frameworks/native/libs/binder/ndk/include_cpp/android/binder_interface_utils.h"
  },
  {
   "function_name" : "ndk::BnCInterface<aidl::android::hardware::wifi::supplicant::ISupplicantStaIfaceCallback>::asBinder",
   "linker_set_key" : "_ZN3ndk12BnCInterfaceIN4aidl7android8hardware4wifi10supplicant27ISupplicantStaIfaceCallbackEE8asBinderEv",
   "parameters" :
   [
    {
     "is_this_ptr" : true,
     "referenced_type" : "_ZTIPN3ndk12BnCInterfaceIN4aidl7android8hardware4wifi10supplicant27ISupplicantStaIfaceCallbackEEE"
    }
   ],
   "return_type" : "_ZTIN3ndk10SpAIBinderE",
   "source_file" : "frameworks/native/libs/binder/ndk/include_cpp/android/binder_interface_utils.h"
  },
  {
   "function_name" : "ndk::BnCInterface<aidl::android::hardware::wifi::supplicant::ISupplicantStaNetworkCallback>::asBinder",
   "linker_set_key" : "_ZN3ndk12BnCInterfaceIN4aidl7android8hardware4wifi10supplicant29ISupplicantStaNetworkCallbackEE8asBinderEv",
   "parameters" :
   [
    {
     "is_this_ptr" : true,
     "referenced_type" : "_ZTIPN3ndk12BnCInterfaceIN4aidl7android8hardware4wifi10supplicant29ISupplicantStaNetworkCallbackEEE"
    }
   ],
   "return_type" : "_ZTIN3ndk10SpAIBinderE",
   "source_file" : "frameworks/native/libs/binder/ndk/include_cpp/android/binder_interface_utils.h"
  },
  {
   "function_name" : "ndk::BpCInterface<aidl::android::hardware::wifi::supplicant::ISupplicant>::asBinder",
   "linker_set_key" : "_ZN3ndk12BpCInterfaceIN4aidl7android8hardware4wifi10supplicant11ISupplicantEE8asBinderEv",
   "parameters" :
   [
    {
     "is_this_ptr" : true,
     "referenced_type" : "_ZTIPN3ndk12BpCInterfaceIN4aidl7android8hardware4wifi10supplicant11ISupplicantEEE"
    }
   ],
   "return_type" : "_ZTIN3ndk10SpAIBinderE",
   "source_file" : "frameworks/native/libs/binder/ndk/include_cpp/android/binder_interface_utils.h"
  },
  {
   "function_name" : "ndk::BpCInterface<aidl::android::hardware::wifi::supplicant::ISupplicantCallback>::asBinder",
   "linker_set_key" : "_ZN3ndk12BpCInterfaceIN4aidl7android8hardware4wifi10supplicant19ISupplicantCallbackEE8asBinderEv",
   "parameters" :
   [
    {
     "is_this_ptr" : true,
     "referenced_type" : "_ZTIPN3ndk12BpCInterfaceIN4aidl7android8hardware4wifi10supplicant19ISupplicantCallbackEEE"
    }
   ],
   "return_type" : "_ZTIN3ndk10SpAIBinderE",
   "source_file" : "frameworks/native/libs/binder/ndk/include_cpp/android/binder_interface_utils.h"
  },
  {
   "function_name" : "ndk::BpCInterface<aidl::android::hardware::wifi::supplicant::ISupplicantP2pIface>::asBinder",
   "linker_set_key" : "_ZN3ndk12BpCInterfaceIN4aidl7android8hardware4wifi10supplicant19ISupplicantP2pIfaceEE8asBinderEv",
   "parameters" :
   [
    {
     "is_this_ptr" : true,
     "referenced_type" : "_ZTIPN3ndk12BpCInterfaceIN4aidl7android8hardware4wifi10supplicant19ISupplicantP2pIfaceEEE"
    }
   ],
   "return_type" : "_ZTIN3ndk10SpAIBinderE",
   "source_file" : "frameworks/native/libs/binder/ndk/include_cpp/android/binder_interface_utils.h"
  },
  {
   "function_name" : "ndk::BpCInterface<aidl::android::hardware::wifi::supplicant::ISupplicantStaIface>::asBinder",
   "linker_set_key" : "_ZN3ndk12BpCInterfaceIN4aidl7android8hardware4wifi10supplicant19ISupplicantStaIfaceEE8asBinderEv",
   "parameters" :
   [
    {
     "is_this_ptr" : true,
     "referenced_type" : "_ZTIPN3ndk12BpCInterfaceIN4aidl7android8hardware4wifi10supplicant19ISupplicantStaIfaceEEE"
    }
   ],
   "return_type" : "_ZTIN3ndk10SpAIBinderE",
   "source_file" : "frameworks/native/libs/binder/ndk/include_cpp/android/binder_interface_utils.h"
  },
  {
   "function_name" : "ndk::BpCInterface<aidl::android::hardware::wifi::supplicant::ISupplicantP2pNetwork>::asBinder",
   "linker_set_key" : "_ZN3ndk12BpCInterfaceIN4aidl7android8hardware4wifi10supplicant21ISupplicantP2pNetworkEE8asBinderEv",
   "parameters" :
   [
    {
     "is_this_ptr" : true,
     "referenced_type" : "_ZTIPN3ndk12BpCInterfaceIN4aidl7android8hardware4wifi10supplicant21ISupplicantP2pNetworkEEE"
    }
   ],
   "return_type" : "_ZTIN3ndk10SpAIBinderE",
   "source_file" : "frameworks/native/libs/binder/ndk/include_cpp/android/binder_interface_utils.h"
  },
  {
   "function_name" : "ndk::BpCInterface<aidl::android::hardware::wifi::supplicant::ISupplicantStaNetwork>::asBinder",
   "linker_set_key" : "_ZN3ndk12BpCInterfaceIN4aidl7android8hardware4wifi10supplicant21ISupplicantStaNetworkEE8asBinderEv",
   "parameters" :
   [
    {
     "is_this_ptr" : true,
     "referenced_type" : "_ZTIPN3ndk12BpCInterfaceIN4aidl7android8hardware4wifi10supplicant21ISupplicantStaNetworkEEE"
    }
   ],
   "return_type" : "_ZTIN3ndk10SpAIBinderE",
   "source_file" : "frameworks/native/libs/binder/ndk/include_cpp/android/binder_interface_utils.h"
  },
  {
   "function_name" : "ndk::BpCInterface<aidl::android::hardware::wifi::supplicant::ISupplicantP2pIfaceCallback>::asBinder",
   "linker_set_key" : "_ZN3ndk12BpCInterfaceIN4aidl7android8hardware4wifi10supplicant27ISupplicantP2pIfaceCallbackEE8asBinderEv",
   "parameters" :
   [
    {
     "is_this_ptr" : true,
     "referenced_type" : "_ZTIPN3ndk12BpCInterfaceIN4aidl7android8hardware4wifi10supplicant27ISupplicantP2pIfaceCallbackEEE"
    }
   ],
   "return_type" : "_ZTIN3ndk10SpAIBinderE",
   "source_file" : "frameworks/native/libs/binder/ndk/include_cpp/android/binder_interface_utils.h"
  },
  {
   "function_name" : "ndk::BpCInterface<aidl::android::hardware::wifi::supplicant::ISupplicantStaIfaceCallback>::asBinder",
   "linker_set_key" : "_ZN3ndk12BpCInterfaceIN4aidl7android8hardware4wifi10supplicant27ISupplicantStaIfaceCallbackEE8asBinderEv",
   "parameters" :
   [
    {
     "is_this_ptr" : true,
     "referenced_type" : "_ZTIPN3ndk12BpCInterfaceIN4aidl7android8hardware4wifi10supplicant27ISupplicantStaIfaceCallbackEEE"
    }
   ],
   "return_type" : "_ZTIN3ndk10SpAIBinderE",
   "source_file" : "frameworks/native/libs/binder/ndk/include_cpp/android/binder_interface_utils.h"
  },
  {
   "function_name" : "ndk::BpCInterface<aidl::android::hardware::wifi::supplicant::ISupplicantStaNetworkCallback>::asBinder",
   "linker_set_key" : "_ZN3ndk12BpCInterfaceIN4aidl7android8hardware4wifi10supplicant29ISupplicantStaNetworkCallbackEE8asBinderEv",
   "parameters" :
   [
    {
     "is_this_ptr" : true,
     "referenced_type" : "_ZTIPN3ndk12BpCInterfaceIN4aidl7android8hardware4wifi10supplicant29ISupplicantStaNetworkCallbackEEE"
    }
   ],
   "return_type" : "_ZTIN3ndk10SpAIBinderE",
   "source_file" : "frameworks/native/libs/binder/ndk/include_cpp/android/binder_interface_utils.h"
  },
  {
   "function_name" : "ndk::AParcel_readStdVectorParcelableElement",
   "linker_set_key" : "_ZN3ndk38AParcel_readStdVectorParcelableElementIN4aidl7android8hardware4wifi10supplicant10MacAddressEEEiPK7AParcelPvj",
   "parameters" :
   [
    {
     "referenced_type" : "_ZTIPK7AParcel"
    },
    {
     "referenced_type" : "_ZTIPv"
    },
    {
     "referenced_type" : "_ZTIj"
    }
   ],
   "return_type" : "_ZTIi",
   "source_file" : "frameworks/native/libs/binder/ndk/include_cpp/android/binder_parcel_utils.h",
   "template_args" :
   [
    "_ZTIN4aidl7android8hardware4wifi10supplicant10MacAddressE"
   ]
  },
  {
   "function_name" : "ndk::AParcel_readStdVectorParcelableElement",
   "linker_set_key" : "_ZN3ndk38AParcel_readStdVectorParcelableElementIN4aidl7android8hardware4wifi10supplicant13QosPolicyDataEEEiPK7AParcelPvj",
   "parameters" :
   [
    {
     "referenced_type" : "_ZTIPK7AParcel"
    },
    {
     "referenced_type" : "_ZTIPv"
    },
    {
     "referenced_type" : "_ZTIj"
    }
   ],
   "return_type" : "_ZTIi",
   "source_file" : "frameworks/native/libs/binder/ndk/include_cpp/android/binder_parcel_utils.h",
   "template_args" :
   [
    "_ZTIN4aidl7android8hardware4wifi10supplicant13QosPolicyDataE"
   ]
  },
  {
   "function_name" : "ndk::AParcel_readStdVectorParcelableElement",
   "linker_set_key" : "_ZN3ndk38AParcel_readStdVectorParcelableElementIN4aidl7android8hardware4wifi10supplicant15QosPolicyStatusEEEiPK7AParcelPvj",
   "parameters" :
   [
    {
     "referenced_type" : "_ZTIPK7AParcel"
    },
    {
     "referenced_type" : "_ZTIPv"
    },
    {
     "referenced_type" : "_ZTIj"
    }
   ],
   "return_type" : "_ZTIi",
   "source_file" : "frameworks/native/libs/binder/ndk/include_cpp/android/binder_parcel_utils.h",
   "template_args" :
   [
    "_ZTIN4aidl7android8hardware4wifi10supplicant15QosPolicyStatusE"
   ]
  },
  {
   "function_name" : "ndk::AParcel_readStdVectorParcelableElement",
   "linker_set_key" : "_ZN3ndk38AParcel_readStdVectorParcelableElementIN4aidl7android8hardware4wifi10supplicant34NetworkResponseEapSimGsmAuthParamsEEEiPK7AParcelPvj",
   "parameters" :
   [
    {
     "referenced_type" : "_ZTIPK7AParcel"
    },
    {
     "referenced_type" : "_ZTIPv"
    },
    {
     "referenced_type" : "_ZTIj"
    }
   ],
   "return_type" : "_ZTIi",
   "source_file" : "frameworks/native/libs/binder/ndk/include_cpp/android/binder_parcel_utils.h",
   "template_args" :
   [
    "_ZTIN4aidl7android8hardware4wifi10supplicant34NetworkResponseEapSimGsmAuthParamsE"
   ]
  },
  {
   "function_name" : "ndk::AParcel_readStdVectorParcelableElement",
   "linker_set_key" : "_ZN3ndk38AParcel_readStdVectorParcelableElementIN4aidl7android8hardware4wifi10supplicant7GsmRandEEEiPK7AParcelPvj",
   "parameters" :
   [
    {
     "referenced_type" : "_ZTIPK7AParcel"
    },
    {
     "referenced_type" : "_ZTIPv"
    },
    {
     "referenced_type" : "_ZTIj"
    }
   ],
   "return_type" : "_ZTIi",
   "source_file" : "frameworks/native/libs/binder/ndk/include_cpp/android/binder_parcel_utils.h",
   "template_args" :
   [
    "_ZTIN4aidl7android8hardware4wifi10supplicant7GsmRandE"
   ]
  },
  {
   "function_name" : "ndk::AParcel_readStdVectorParcelableElement",
   "linker_set_key" : "_ZN3ndk38AParcel_readStdVectorParcelableElementIN4aidl7android8hardware4wifi10supplicant7MloLinkEEEiPK7AParcelPvj",
   "parameters" :
   [
    {
     "referenced_type" : "_ZTIPK7AParcel"
    },
    {
     "referenced_type" : "_ZTIPv"
    },
    {
     "referenced_type" : "_ZTIj"
    }
   ],
   "return_type" : "_ZTIi",
   "source_file" : "frameworks/native/libs/binder/ndk/include_cpp/android/binder_parcel_utils.h",
   "template_args" :
   [
    "_ZTIN4aidl7android8hardware4wifi10supplicant7MloLinkE"
   ]
  },
  {
   "function_name" : "ndk::AParcel_readStdVectorParcelableElement",
   "linker_set_key" : "_ZN3ndk38AParcel_readStdVectorParcelableElementIN4aidl7android8hardware4wifi10supplicant9FreqRangeEEEiPK7AParcelPvj",
   "parameters" :
   [
    {
     "referenced_type" : "_ZTIPK7AParcel"
    },
    {
     "referenced_type" : "_ZTIPv"
    },
    {
     "referenced_type" : "_ZTIj"
    }
   ],
   "return_type" : "_ZTIi",
   "source_file" : "frameworks/native/libs/binder/ndk/include_cpp/android/binder_parcel_utils.h",
   "template_args" :
   [
    "_ZTIN4aidl7android8hardware4wifi10supplicant9FreqRangeE"
   ]
  },
  {
   "function_name" : "ndk::AParcel_readStdVectorParcelableElement",
   "linker_set_key" : "_ZN3ndk38AParcel_readStdVectorParcelableElementIN4aidl7android8hardware4wifi10supplicant9IfaceInfoEEEiPK7AParcelPvj",
   "parameters" :
   [
    {
     "referenced_type" : "_ZTIPK7AParcel"
    },
    {
     "referenced_type" : "_ZTIPv"
    },
    {
     "referenced_type" : "_ZTIj"
    }
   ],
   "return_type" : "_ZTIi",
   "source_file" : "frameworks/native/libs/binder/ndk/include_cpp/android/binder_parcel_utils.h",
   "template_args" :
   [
    "_ZTIN4aidl7android8hardware4wifi10supplicant9IfaceInfoE"
   ]
  },
  {
   "function_name" : "ndk::AParcel_writeStdVectorParcelableElement",
   "linker_set_key" : "_ZN3ndk39AParcel_writeStdVectorParcelableElementIN4aidl7android8hardware4wifi10supplicant10MacAddressEEEiP7AParcelPKvj",
   "parameters" :
   [
    {
     "referenced_type" : "_ZTIP7AParcel"
    },
    {
     "referenced_type" : "_ZTIPKv"
    },
    {
     "referenced_type" : "_ZTIj"
    }
   ],
   "return_type" : "_ZTIi",
   "source_file" : "frameworks/native/libs/binder/ndk/include_cpp/android/binder_parcel_utils.h",
   "template_args" :
   [
    "_ZTIN4aidl7android8hardware4wifi10supplicant10MacAddressE"
   ]
  },
  {
   "function_name" : "ndk::AParcel_writeStdVectorParcelableElement",
   "linker_set_key" : "_ZN3ndk39AParcel_writeStdVectorParcelableElementIN4aidl7android8hardware4wifi10supplicant13QosPolicyDataEEEiP7AParcelPKvj",
   "parameters" :
   [
    {
     "referenced_type" : "_ZTIP7AParcel"
    },
    {
     "referenced_type" : "_ZTIPKv"
    },
    {
     "referenced_type" : "_ZTIj"
    }
   ],
   "return_type" : "_ZTIi",
   "source_file" : "frameworks/native/libs/binder/ndk/include_cpp/android/binder_parcel_utils.h",
   "template_args" :
   [
    "_ZTIN4aidl7android8hardware4wifi10supplicant13QosPolicyDataE"
   ]
  },
  {
   "function_name" : "ndk::AParcel_writeStdVectorParcelableElement",
   "linker_set_key" : "_ZN3ndk39AParcel_writeStdVectorParcelableElementIN4aidl7android8hardware4wifi10supplicant15QosPolicyStatusEEEiP7AParcelPKvj",
   "parameters" :
   [
    {
     "referenced_type" : "_ZTIP7AParcel"
    },
    {
     "referenced_type" : "_ZTIPKv"
    },
    {
     "referenced_type" : "_ZTIj"
    }
   ],
   "return_type" : "_ZTIi",
   "source_file" : "frameworks/native/libs/binder/ndk/include_cpp/android/binder_parcel_utils.h",
   "template_args" :
   [
    "_ZTIN4aidl7android8hardware4wifi10supplicant15QosPolicyStatusE"
   ]
  },
  {
   "function_name" : "ndk::AParcel_writeStdVectorParcelableElement",
   "linker_set_key" : "_ZN3ndk39AParcel_writeStdVectorParcelableElementIN4aidl7android8hardware4wifi10supplicant34NetworkResponseEapSimGsmAuthParamsEEEiP7AParcelPKvj",
   "parameters" :
   [
    {
     "referenced_type" : "_ZTIP7AParcel"
    },
    {
     "referenced_type" : "_ZTIPKv"
    },
    {
     "referenced_type" : "_ZTIj"
    }
   ],
   "return_type" : "_ZTIi",
   "source_file" : "frameworks/native/libs/binder/ndk/include_cpp/android/binder_parcel_utils.h",
   "template_args" :
   [
    "_ZTIN4aidl7android8hardware4wifi10supplicant34NetworkResponseEapSimGsmAuthParamsE"
   ]
  },
  {
   "function_name" : "ndk::AParcel_writeStdVectorParcelableElement",
   "linker_set_key" : "_ZN3ndk39AParcel_writeStdVectorParcelableElementIN4aidl7android8hardware4wifi10supplicant7GsmRandEEEiP7AParcelPKvj",
   "parameters" :
   [
    {
     "referenced_type" : "_ZTIP7AParcel"
    },
    {
     "referenced_type" : "_ZTIPKv"
    },
    {
     "referenced_type" : "_ZTIj"
    }
   ],
   "return_type" : "_ZTIi",
   "source_file" : "frameworks/native/libs/binder/ndk/include_cpp/android/binder_parcel_utils.h",
   "template_args" :
   [
    "_ZTIN4aidl7android8hardware4wifi10supplicant7GsmRandE"
   ]
  },
  {
   "function_name" : "ndk::AParcel_writeStdVectorParcelableElement",
   "linker_set_key" : "_ZN3ndk39AParcel_writeStdVectorParcelableElementIN4aidl7android8hardware4wifi10supplicant7MloLinkEEEiP7AParcelPKvj",
   "parameters" :
   [
    {
     "referenced_type" : "_ZTIP7AParcel"
    },
    {
     "referenced_type" : "_ZTIPKv"
    },
    {
     "referenced_type" : "_ZTIj"
    }
   ],
   "return_type" : "_ZTIi",
   "source_file" : "frameworks/native/libs/binder/ndk/include_cpp/android/binder_parcel_utils.h",
   "template_args" :
   [
    "_ZTIN4aidl7android8hardware4wifi10supplicant7MloLinkE"
   ]
  },
  {
   "function_name" : "ndk::AParcel_writeStdVectorParcelableElement",
   "linker_set_key" : "_ZN3ndk39AParcel_writeStdVectorParcelableElementIN4aidl7android8hardware4wifi10supplicant9FreqRangeEEEiP7AParcelPKvj",
   "parameters" :
   [
    {
     "referenced_type" : "_ZTIP7AParcel"
    },
    {
     "referenced_type" : "_ZTIPKv"
    },
    {
     "referenced_type" : "_ZTIj"
    }
   ],
   "return_type" : "_ZTIi",
   "source_file" : "frameworks/native/libs/binder/ndk/include_cpp/android/binder_parcel_utils.h",
   "template_args" :
   [
    "_ZTIN4aidl7android8hardware4wifi10supplicant9FreqRangeE"
   ]
  },
  {
   "function_name" : "ndk::AParcel_writeStdVectorParcelableElement",
   "linker_set_key" : "_ZN3ndk39AParcel_writeStdVectorParcelableElementIN4aidl7android8hardware4wifi10supplicant9IfaceInfoEEEiP7AParcelPKvj",
   "parameters" :
   [
    {
     "referenced_type" : "_ZTIP7AParcel"
    },
    {
     "referenced_type" : "_ZTIPKv"
    },
    {
     "referenced_type" : "_ZTIj"
    }
   ],
   "return_type" : "_ZTIi",
   "source_file" : "frameworks/native/libs/binder/ndk/include_cpp/android/binder_parcel_utils.h",
   "template_args" :
   [
    "_ZTIN4aidl7android8hardware4wifi10supplicant9IfaceInfoE"
   ]
  },
  {
   "function_name" : "aidl::android::hardware::wifi::supplicant::MacAddress::readFromParcel",
   "linker_set_key" : "_ZN4aidl7android8hardware4wifi10supplicant10MacAddress14readFromParcelEPK7AParcel",
   "parameters" :
   [
    {
     "is_this_ptr" : true,
     "referenced_type" : "_ZTIPN4aidl7android8hardware4wifi10supplicant10MacAddressE"
    },
    {
     "referenced_type" : "_ZTIPK7AParcel"
    }
   ],
   "return_type" : "_ZTIi",
   "source_file" : "out/soong/.intermediates/hardware/interfaces/wifi/supplicant/aidl/android.hardware.wifi.supplicant-V1-ndk-source/gen/include/aidl/android/hardware/wifi/supplicant/MacAddress.h"
  },
  {
   "function_name" : "aidl::android::hardware::wifi::supplicant::ISupplicant::fromBinder",
   "linker_set_key" : "_ZN4aidl7android8hardware4wifi10supplicant11ISupplicant10fromBinderERKN3ndk10SpAIBinderE",
   "parameters" :
   [
    {
     "referenced_type" : "_ZTIRKN3ndk10SpAIBinderE"
    }
   ],
   "return_type" : "_ZTINSt3__110shared_ptrIN4aidl7android8hardware4wifi10supplicant11ISupplicantEEE",
   "source_file" : "out/soong/.intermediates/hardware/interfaces/wifi/supplicant/aidl/android.hardware.wifi.supplicant-V1-ndk-source/gen/include/aidl/android/hardware/wifi/supplicant/ISupplicant.h"
  },
  {
   "function_name" : "aidl::android::hardware::wifi::supplicant::ISupplicant::writeToParcel",
   "linker_set_key" : "_ZN4aidl7android8hardware4wifi10supplicant11ISupplicant13writeToParcelEP7AParcelRKNSt3__110shared_ptrIS4_EE",
   "parameters" :
   [
    {
     "referenced_type" : "_ZTIP7AParcel"
    },
    {
     "referenced_type" : "_ZTIRKNSt3__110shared_ptrIN4aidl7android8hardware4wifi10supplicant11ISupplicantEEE"
    }
   ],
   "return_type" : "_ZTIi",
   "source_file" : "out/soong/.intermediates/hardware/interfaces/wifi/supplicant/aidl/android.hardware.wifi.supplicant-V1-ndk-source/gen/include/aidl/android/hardware/wifi/supplicant/ISupplicant.h"
  },
  {
   "function_name" : "aidl::android::hardware::wifi::supplicant::ISupplicant::getDefaultImpl",
   "linker_set_key" : "_ZN4aidl7android8hardware4wifi10supplicant11ISupplicant14getDefaultImplEv",
   "return_type" : "_ZTIRKNSt3__110shared_ptrIN4aidl7android8hardware4wifi10supplicant11ISupplicantEEE",
   "source_file" : "out/soong/.intermediates/hardware/interfaces/wifi/supplicant/aidl/android.hardware.wifi.supplicant-V1-ndk-source/gen/include/aidl/android/hardware/wifi/supplicant/ISupplicant.h"
  },
  {
   "function_name" : "aidl::android::hardware::wifi::supplicant::ISupplicant::readFromParcel",
   "linker_set_key" : "_ZN4aidl7android8hardware4wifi10supplicant11ISupplicant14readFromParcelEPK7AParcelPNSt3__110shared_ptrIS4_EE",
   "parameters" :
   [
    {
     "referenced_type" : "_ZTIPK7AParcel"
    },
    {
     "referenced_type" : "_ZTIPNSt3__110shared_ptrIN4aidl7android8hardware4wifi10supplicant11ISupplicantEEE"
    }
   ],
   "return_type" : "_ZTIi",
   "source_file" : "out/soong/.intermediates/hardware/interfaces/wifi/supplicant/aidl/android.hardware.wifi.supplicant-V1-ndk-source/gen/include/aidl/android/hardware/wifi/supplicant/ISupplicant.h"
  },
  {
   "function_name" : "aidl::android::hardware::wifi::supplicant::ISupplicant::setDefaultImpl",
   "linker_set_key" : "_ZN4aidl7android8hardware4wifi10supplicant11ISupplicant14setDefaultImplERKNSt3__110shared_ptrIS4_EE",
   "parameters" :
   [
    {
     "referenced_type" : "_ZTIRKNSt3__110shared_ptrIN4aidl7android8hardware4wifi10supplicant11ISupplicantEEE"
    }
   ],
   "return_type" : "_ZTIb",
   "source_file" : "out/soong/.intermediates/hardware/interfaces/wifi/supplicant/aidl/android.hardware.wifi.supplicant-V1-ndk-source/gen/include/aidl/android/hardware/wifi/supplicant/ISupplicant.h"
  },
  {
   "function_name" : "aidl::android::hardware::wifi::supplicant::ISupplicant::ISupplicant",
   "linker_set_key" : "_ZN4aidl7android8hardware4wifi10supplicant11ISupplicantC2Ev",
   "parameters" :
   [
    {
     "is_this_ptr" : true,
     "referenced_type" : "_ZTIPN4aidl7android8hardware4wifi10supplicant11ISupplicantE"
    }
   ],
   "return_type" : "_ZTIv",
   "source_file" : "out/soong/.intermediates/hardware/interfaces/wifi/supplicant/aidl/android.hardware.wifi.supplicant-V1-ndk-source/gen/include/aidl/android/hardware/wifi/supplicant/ISupplicant.h"
  },
  {
   "function_name" : "aidl::android::hardware::wifi::supplicant::ISupplicant::~ISupplicant",
   "linker_set_key" : "_ZN4aidl7android8hardware4wifi10supplicant11ISupplicantD0Ev",
   "parameters" :
   [
    {
     "is_this_ptr" : true,
     "referenced_type" : "_ZTIPN4aidl7android8hardware4wifi10supplicant11ISupplicantE"
    }
   ],
   "return_type" : "_ZTIv",
   "source_file" : "out/soong/.intermediates/hardware/interfaces/wifi/supplicant/aidl/android.hardware.wifi.supplicant-V1-ndk-source/gen/include/aidl/android/hardware/wifi/supplicant/ISupplicant.h"
  },
  {
   "function_name" : "aidl::android::hardware::wifi::supplicant::ISupplicant::~ISupplicant",
   "linker_set_key" : "_ZN4aidl7android8hardware4wifi10supplicant11ISupplicantD1Ev",
   "parameters" :
   [
    {
     "is_this_ptr" : true,
     "referenced_type" : "_ZTIPN4aidl7android8hardware4wifi10supplicant11ISupplicantE"
    }
   ],
   "return_type" : "_ZTIv",
   "source_file" : "out/soong/.intermediates/hardware/interfaces/wifi/supplicant/aidl/android.hardware.wifi.supplicant-V1-ndk-source/gen/include/aidl/android/hardware/wifi/supplicant/ISupplicant.h"
  },
  {
   "function_name" : "aidl::android::hardware::wifi::supplicant::ISupplicant::~ISupplicant",
   "linker_set_key" : "_ZN4aidl7android8hardware4wifi10supplicant11ISupplicantD2Ev",
   "parameters" :
   [
    {
     "is_this_ptr" : true,
     "referenced_type" : "_ZTIPN4aidl7android8hardware4wifi10supplicant11ISupplicantE"
    }
   ],
   "return_type" : "_ZTIv",
   "source_file" : "out/soong/.intermediates/hardware/interfaces/wifi/supplicant/aidl/android.hardware.wifi.supplicant-V1-ndk-source/gen/include/aidl/android/hardware/wifi/supplicant/ISupplicant.h"
  },
  {
   "access" : "protected",
   "function_name" : "aidl::android::hardware::wifi::supplicant::BnSupplicant::createBinder",
   "linker_set_key" : "_ZN4aidl7android8hardware4wifi10supplicant12BnSupplicant12createBinderEv",
   "parameters" :
   [
    {
     "is_this_ptr" : true,
     "referenced_type" : "_ZTIPN4aidl7android8hardware4wifi10supplicant12BnSupplicantE"
    }
   ],
   "return_type" : "_ZTIN3ndk10SpAIBinderE",
   "source_file" : "out/soong/.intermediates/hardware/interfaces/wifi/supplicant/aidl/android.hardware.wifi.supplicant-V1-ndk-source/gen/include/aidl/android/hardware/wifi/supplicant/BnSupplicant.h"
  },
  {
   "function_name" : "aidl::android::hardware::wifi::supplicant::BnSupplicant::getInterfaceHash",
   "linker_set_key" : "_ZN4aidl7android8hardware4wifi10supplicant12BnSupplicant16getInterfaceHashEPNSt3__112basic_stringIcNS5_11char_traitsIcEENS5_9allocatorIcEEEE",
   "parameters" :
   [
    {
     "is_this_ptr" : true,
     "referenced_type" : "_ZTIPN4aidl7android8hardware4wifi10supplicant12BnSupplicantE"
    },
    {
     "referenced_type" : "_ZTIPNSt3__112basic_stringIcNS_11char_traitsIcEENS_9allocatorIcEEEE"
    }
   ],
   "return_type" : "_ZTIN3ndk13ScopedAStatusE",
   "source_file" : "out/soong/.intermediates/hardware/interfaces/wifi/supplicant/aidl/android.hardware.wifi.supplicant-V1-ndk-source/gen/include/aidl/android/hardware/wifi/supplicant/BnSupplicant.h"
  },
  {
   "function_name" : "aidl::android::hardware::wifi::supplicant::BnSupplicant::getInterfaceVersion",
   "linker_set_key" : "_ZN4aidl7android8hardware4wifi10supplicant12BnSupplicant19getInterfaceVersionEPi",
   "parameters" :
   [
    {
     "is_this_ptr" : true,
     "referenced_type" : "_ZTIPN4aidl7android8hardware4wifi10supplicant12BnSupplicantE"
    },
    {
     "referenced_type" : "_ZTIPi"
    }
   ],
   "return_type" : "_ZTIN3ndk13ScopedAStatusE",
   "source_file" : "out/soong/.intermediates/hardware/interfaces/wifi/supplicant/aidl/android.hardware.wifi.supplicant-V1-ndk-source/gen/include/aidl/android/hardware/wifi/supplicant/BnSupplicant.h"
  },
  {
   "function_name" : "aidl::android::hardware::wifi::supplicant::BnSupplicant::BnSupplicant",
   "linker_set_key" : "_ZN4aidl7android8hardware4wifi10supplicant12BnSupplicantC2Ev",
   "parameters" :
   [
    {
     "is_this_ptr" : true,
     "referenced_type" : "_ZTIPN4aidl7android8hardware4wifi10supplicant12BnSupplicantE"
    }
   ],
   "return_type" : "_ZTIv",
   "source_file" : "out/soong/.intermediates/hardware/interfaces/wifi/supplicant/aidl/android.hardware.wifi.supplicant-V1-ndk-source/gen/include/aidl/android/hardware/wifi/supplicant/BnSupplicant.h"
  },
  {
   "function_name" : "aidl::android::hardware::wifi::supplicant::BnSupplicant::~BnSupplicant",
   "linker_set_key" : "_ZN4aidl7android8hardware4wifi10supplicant12BnSupplicantD0Ev",
   "parameters" :
   [
    {
     "is_this_ptr" : true,
     "referenced_type" : "_ZTIPN4aidl7android8hardware4wifi10supplicant12BnSupplicantE"
    }
   ],
   "return_type" : "_ZTIv",
   "source_file" : "out/soong/.intermediates/hardware/interfaces/wifi/supplicant/aidl/android.hardware.wifi.supplicant-V1-ndk-source/gen/include/aidl/android/hardware/wifi/supplicant/BnSupplicant.h"
  },
  {
   "function_name" : "aidl::android::hardware::wifi::supplicant::BnSupplicant::~BnSupplicant",
   "linker_set_key" : "_ZN4aidl7android8hardware4wifi10supplicant12BnSupplicantD1Ev",
   "parameters" :
   [
    {
     "is_this_ptr" : true,
     "referenced_type" : "_ZTIPN4aidl7android8hardware4wifi10supplicant12BnSupplicantE"
    }
   ],
   "return_type" : "_ZTIv",
   "source_file" : "out/soong/.intermediates/hardware/interfaces/wifi/supplicant/aidl/android.hardware.wifi.supplicant-V1-ndk-source/gen/include/aidl/android/hardware/wifi/supplicant/BnSupplicant.h"
  },
  {
   "function_name" : "aidl::android::hardware::wifi::supplicant::BnSupplicant::~BnSupplicant",
   "linker_set_key" : "_ZN4aidl7android8hardware4wifi10supplicant12BnSupplicantD2Ev",
   "parameters" :
   [
    {
     "is_this_ptr" : true,
     "referenced_type" : "_ZTIPN4aidl7android8hardware4wifi10supplicant12BnSupplicantE"
    }
   ],
   "return_type" : "_ZTIv",
   "source_file" : "out/soong/.intermediates/hardware/interfaces/wifi/supplicant/aidl/android.hardware.wifi.supplicant-V1-ndk-source/gen/include/aidl/android/hardware/wifi/supplicant/BnSupplicant.h"
  },
  {
   "function_name" : "aidl::android::hardware::wifi::supplicant::BpSupplicant::getDebugLevel",
   "linker_set_key" : "_ZN4aidl7android8hardware4wifi10supplicant12BpSupplicant13getDebugLevelEPNS3_10DebugLevelE",
   "parameters" :
   [
    {
     "is_this_ptr" : true,
     "referenced_type" : "_ZTIPN4aidl7android8hardware4wifi10supplicant12BpSupplicantE"
    },
    {
     "referenced_type" : "_ZTIPN4aidl7android8hardware4wifi10supplicant10DebugLevelE"
    }
   ],
   "return_type" : "_ZTIN3ndk13ScopedAStatusE",
   "source_file" : "out/soong/.intermediates/hardware/interfaces/wifi/supplicant/aidl/android.hardware.wifi.supplicant-V1-ndk-source/gen/include/aidl/android/hardware/wifi/supplicant/BpSupplicant.h"
  },
  {
   "function_name" : "aidl::android::hardware::wifi::supplicant::BpSupplicant::listInterfaces",
   "linker_set_key" : "_ZN4aidl7android8hardware4wifi10supplicant12BpSupplicant14listInterfacesEPNSt3__16vectorINS3_9IfaceInfoENS5_9allocatorIS7_EEEE",
   "parameters" :
   [
    {
     "is_this_ptr" : true,
     "referenced_type" : "_ZTIPN4aidl7android8hardware4wifi10supplicant12BpSupplicantE"
    },
    {
     "referenced_type" : "_ZTIPNSt3__16vectorIN4aidl7android8hardware4wifi10supplicant9IfaceInfoENS_9allocatorIS6_EEEE"
    }
   ],
   "return_type" : "_ZTIN3ndk13ScopedAStatusE",
   "source_file" : "out/soong/.intermediates/hardware/interfaces/wifi/supplicant/aidl/android.hardware.wifi.supplicant-V1-ndk-source/gen/include/aidl/android/hardware/wifi/supplicant/BpSupplicant.h"
  },
  {
   "function_name" : "aidl::android::hardware::wifi::supplicant::BpSupplicant::setDebugParams",
   "linker_set_key" : "_ZN4aidl7android8hardware4wifi10supplicant12BpSupplicant14setDebugParamsENS3_10DebugLevelEbb",
   "parameters" :
   [
    {
     "is_this_ptr" : true,
     "referenced_type" : "_ZTIPN4aidl7android8hardware4wifi10supplicant12BpSupplicantE"
    },
    {
     "referenced_type" : "_ZTIN4aidl7android8hardware4wifi10supplicant10DebugLevelE"
    },
    {
     "referenced_type" : "_ZTIb"
    },
    {
     "referenced_type" : "_ZTIb"
    }
   ],
   "return_type" : "_ZTIN3ndk13ScopedAStatusE",
   "source_file" : "out/soong/.intermediates/hardware/interfaces/wifi/supplicant/aidl/android.hardware.wifi.supplicant-V1-ndk-source/gen/include/aidl/android/hardware/wifi/supplicant/BpSupplicant.h"
  },
  {
   "function_name" : "aidl::android::hardware::wifi::supplicant::BpSupplicant::addP2pInterface",
   "linker_set_key" : "_ZN4aidl7android8hardware4wifi10supplicant12BpSupplicant15addP2pInterfaceERKNSt3__112basic_stringIcNS5_11char_traitsIcEENS5_9allocatorIcEEEEPNS5_10shared_ptrINS3_19ISupplicantP2pIfaceEEE",
   "parameters" :
   [
    {
     "is_this_ptr" : true,
     "referenced_type" : "_ZTIPN4aidl7android8hardware4wifi10supplicant12BpSupplicantE"
    },
    {
     "referenced_type" : "_ZTIRKNSt3__112basic_stringIcNS_11char_traitsIcEENS_9allocatorIcEEEE"
    },
    {
     "referenced_type" : "_ZTIPNSt3__110shared_ptrIN4aidl7android8hardware4wifi10supplicant19ISupplicantP2pIfaceEEE"
    }
   ],
   "return_type" : "_ZTIN3ndk13ScopedAStatusE",
   "source_file" : "out/soong/.intermediates/hardware/interfaces/wifi/supplicant/aidl/android.hardware.wifi.supplicant-V1-ndk-source/gen/include/aidl/android/hardware/wifi/supplicant/BpSupplicant.h"
  },
  {
   "function_name" : "aidl::android::hardware::wifi::supplicant::BpSupplicant::addStaInterface",
   "linker_set_key" : "_ZN4aidl7android8hardware4wifi10supplicant12BpSupplicant15addStaInterfaceERKNSt3__112basic_stringIcNS5_11char_traitsIcEENS5_9allocatorIcEEEEPNS5_10shared_ptrINS3_19ISupplicantStaIfaceEEE",
   "parameters" :
   [
    {
     "is_this_ptr" : true,
     "referenced_type" : "_ZTIPN4aidl7android8hardware4wifi10supplicant12BpSupplicantE"
    },
    {
     "referenced_type" : "_ZTIRKNSt3__112basic_stringIcNS_11char_traitsIcEENS_9allocatorIcEEEE"
    },
    {
     "referenced_type" : "_ZTIPNSt3__110shared_ptrIN4aidl7android8hardware4wifi10supplicant19ISupplicantStaIfaceEEE"
    }
   ],
   "return_type" : "_ZTIN3ndk13ScopedAStatusE",
   "source_file" : "out/soong/.intermediates/hardware/interfaces/wifi/supplicant/aidl/android.hardware.wifi.supplicant-V1-ndk-source/gen/include/aidl/android/hardware/wifi/supplicant/BpSupplicant.h"
  },
  {
   "function_name" : "aidl::android::hardware::wifi::supplicant::BpSupplicant::getP2pInterface",
   "linker_set_key" : "_ZN4aidl7android8hardware4wifi10supplicant12BpSupplicant15getP2pInterfaceERKNSt3__112basic_stringIcNS5_11char_traitsIcEENS5_9allocatorIcEEEEPNS5_10shared_ptrINS3_19ISupplicantP2pIfaceEEE",
   "parameters" :
   [
    {
     "is_this_ptr" : true,
     "referenced_type" : "_ZTIPN4aidl7android8hardware4wifi10supplicant12BpSupplicantE"
    },
    {
     "referenced_type" : "_ZTIRKNSt3__112basic_stringIcNS_11char_traitsIcEENS_9allocatorIcEEEE"
    },
    {
     "referenced_type" : "_ZTIPNSt3__110shared_ptrIN4aidl7android8hardware4wifi10supplicant19ISupplicantP2pIfaceEEE"
    }
   ],
   "return_type" : "_ZTIN3ndk13ScopedAStatusE",
   "source_file" : "out/soong/.intermediates/hardware/interfaces/wifi/supplicant/aidl/android.hardware.wifi.supplicant-V1-ndk-source/gen/include/aidl/android/hardware/wifi/supplicant/BpSupplicant.h"
  },
  {
   "function_name" : "aidl::android::hardware::wifi::supplicant::BpSupplicant::getStaInterface",
   "linker_set_key" : "_ZN4aidl7android8hardware4wifi10supplicant12BpSupplicant15getStaInterfaceERKNSt3__112basic_stringIcNS5_11char_traitsIcEENS5_9allocatorIcEEEEPNS5_10shared_ptrINS3_19ISupplicantStaIfaceEEE",
   "parameters" :
   [
    {
     "is_this_ptr" : true,
     "referenced_type" : "_ZTIPN4aidl7android8hardware4wifi10supplicant12BpSupplicantE"
    },
    {
     "referenced_type" : "_ZTIRKNSt3__112basic_stringIcNS_11char_traitsIcEENS_9allocatorIcEEEE"
    },
    {
     "referenced_type" : "_ZTIPNSt3__110shared_ptrIN4aidl7android8hardware4wifi10supplicant19ISupplicantStaIfaceEEE"
    }
   ],
   "return_type" : "_ZTIN3ndk13ScopedAStatusE",
   "source_file" : "out/soong/.intermediates/hardware/interfaces/wifi/supplicant/aidl/android.hardware.wifi.supplicant-V1-ndk-source/gen/include/aidl/android/hardware/wifi/supplicant/BpSupplicant.h"
  },
  {
   "function_name" : "aidl::android::hardware::wifi::supplicant::BpSupplicant::removeInterface",
   "linker_set_key" : "_ZN4aidl7android8hardware4wifi10supplicant12BpSupplicant15removeInterfaceERKNS3_9IfaceInfoE",
   "parameters" :
   [
    {
     "is_this_ptr" : true,
     "referenced_type" : "_ZTIPN4aidl7android8hardware4wifi10supplicant12BpSupplicantE"
    },
    {
     "referenced_type" : "_ZTIRKN4aidl7android8hardware4wifi10supplicant9IfaceInfoE"
    }
   ],
   "return_type" : "_ZTIN3ndk13ScopedAStatusE",
   "source_file" : "out/soong/.intermediates/hardware/interfaces/wifi/supplicant/aidl/android.hardware.wifi.supplicant-V1-ndk-source/gen/include/aidl/android/hardware/wifi/supplicant/BpSupplicant.h"
  },
  {
   "function_name" : "aidl::android::hardware::wifi::supplicant::BpSupplicant::getInterfaceHash",
   "linker_set_key" : "_ZN4aidl7android8hardware4wifi10supplicant12BpSupplicant16getInterfaceHashEPNSt3__112basic_stringIcNS5_11char_traitsIcEENS5_9allocatorIcEEEE",
   "parameters" :
   [
    {
     "is_this_ptr" : true,
     "referenced_type" : "_ZTIPN4aidl7android8hardware4wifi10supplicant12BpSupplicantE"
    },
    {
     "referenced_type" : "_ZTIPNSt3__112basic_stringIcNS_11char_traitsIcEENS_9allocatorIcEEEE"
    }
   ],
   "return_type" : "_ZTIN3ndk13ScopedAStatusE",
   "source_file" : "out/soong/.intermediates/hardware/interfaces/wifi/supplicant/aidl/android.hardware.wifi.supplicant-V1-ndk-source/gen/include/aidl/android/hardware/wifi/supplicant/BpSupplicant.h"
  },
  {
   "function_name" : "aidl::android::hardware::wifi::supplicant::BpSupplicant::registerCallback",
   "linker_set_key" : "_ZN4aidl7android8hardware4wifi10supplicant12BpSupplicant16registerCallbackERKNSt3__110shared_ptrINS3_19ISupplicantCallbackEEE",
   "parameters" :
   [
    {
     "is_this_ptr" : true,
     "referenced_type" : "_ZTIPN4aidl7android8hardware4wifi10supplicant12BpSupplicantE"
    },
    {
     "referenced_type" : "_ZTIRKNSt3__110shared_ptrIN4aidl7android8hardware4wifi10supplicant19ISupplicantCallbackEEE"
    }
   ],
   "return_type" : "_ZTIN3ndk13ScopedAStatusE",
   "source_file" : "out/soong/.intermediates/hardware/interfaces/wifi/supplicant/aidl/android.hardware.wifi.supplicant-V1-ndk-source/gen/include/aidl/android/hardware/wifi/supplicant/BpSupplicant.h"
  },
  {
   "function_name" : "aidl::android::hardware::wifi::supplicant::BpSupplicant::getInterfaceVersion",
   "linker_set_key" : "_ZN4aidl7android8hardware4wifi10supplicant12BpSupplicant19getInterfaceVersionEPi",
   "parameters" :
   [
    {
     "is_this_ptr" : true,
     "referenced_type" : "_ZTIPN4aidl7android8hardware4wifi10supplicant12BpSupplicantE"
    },
    {
     "referenced_type" : "_ZTIPi"
    }
   ],
   "return_type" : "_ZTIN3ndk13ScopedAStatusE",
   "source_file" : "out/soong/.intermediates/hardware/interfaces/wifi/supplicant/aidl/android.hardware.wifi.supplicant-V1-ndk-source/gen/include/aidl/android/hardware/wifi/supplicant/BpSupplicant.h"
  },
  {
   "function_name" : "aidl::android::hardware::wifi::supplicant::BpSupplicant::isDebugShowKeysEnabled",
   "linker_set_key" : "_ZN4aidl7android8hardware4wifi10supplicant12BpSupplicant22isDebugShowKeysEnabledEPb",
   "parameters" :
   [
    {
     "is_this_ptr" : true,
     "referenced_type" : "_ZTIPN4aidl7android8hardware4wifi10supplicant12BpSupplicantE"
    },
    {
     "referenced_type" : "_ZTIPb"
    }
   ],
   "return_type" : "_ZTIN3ndk13ScopedAStatusE",
   "source_file" : "out/soong/.intermediates/hardware/interfaces/wifi/supplicant/aidl/android.hardware.wifi.supplicant-V1-ndk-source/gen/include/aidl/android/hardware/wifi/supplicant/BpSupplicant.h"
  },
  {
   "function_name" : "aidl::android::hardware::wifi::supplicant::BpSupplicant::setConcurrencyPriority",
   "linker_set_key" : "_ZN4aidl7android8hardware4wifi10supplicant12BpSupplicant22setConcurrencyPriorityENS3_9IfaceTypeE",
   "parameters" :
   [
    {
     "is_this_ptr" : true,
     "referenced_type" : "_ZTIPN4aidl7android8hardware4wifi10supplicant12BpSupplicantE"
    },
    {
     "referenced_type" : "_ZTIN4aidl7android8hardware4wifi10supplicant9IfaceTypeE"
    }
   ],
   "return_type" : "_ZTIN3ndk13ScopedAStatusE",
   "source_file" : "out/soong/.intermediates/hardware/interfaces/wifi/supplicant/aidl/android.hardware.wifi.supplicant-V1-ndk-source/gen/include/aidl/android/hardware/wifi/supplicant/BpSupplicant.h"
  },
  {
   "function_name" : "aidl::android::hardware::wifi::supplicant::BpSupplicant::isDebugShowTimestampEnabled",
   "linker_set_key" : "_ZN4aidl7android8hardware4wifi10supplicant12BpSupplicant27isDebugShowTimestampEnabledEPb",
   "parameters" :
   [
    {
     "is_this_ptr" : true,
     "referenced_type" : "_ZTIPN4aidl7android8hardware4wifi10supplicant12BpSupplicantE"
    },
    {
     "referenced_type" : "_ZTIPb"
    }
   ],
   "return_type" : "_ZTIN3ndk13ScopedAStatusE",
   "source_file" : "out/soong/.intermediates/hardware/interfaces/wifi/supplicant/aidl/android.hardware.wifi.supplicant-V1-ndk-source/gen/include/aidl/android/hardware/wifi/supplicant/BpSupplicant.h"
  },
  {
   "function_name" : "aidl::android::hardware::wifi::supplicant::BpSupplicant::terminate",
   "linker_set_key" : "_ZN4aidl7android8hardware4wifi10supplicant12BpSupplicant9terminateEv",
   "parameters" :
   [
    {
     "is_this_ptr" : true,
     "referenced_type" : "_ZTIPN4aidl7android8hardware4wifi10supplicant12BpSupplicantE"
    }
   ],
   "return_type" : "_ZTIN3ndk13ScopedAStatusE",
   "source_file" : "out/soong/.intermediates/hardware/interfaces/wifi/supplicant/aidl/android.hardware.wifi.supplicant-V1-ndk-source/gen/include/aidl/android/hardware/wifi/supplicant/BpSupplicant.h"
  },
  {
   "function_name" : "aidl::android::hardware::wifi::supplicant::BpSupplicant::BpSupplicant",
   "linker_set_key" : "_ZN4aidl7android8hardware4wifi10supplicant12BpSupplicantC1ERKN3ndk10SpAIBinderE",
   "parameters" :
   [
    {
     "is_this_ptr" : true,
     "referenced_type" : "_ZTIPN4aidl7android8hardware4wifi10supplicant12BpSupplicantE"
    },
    {
     "referenced_type" : "_ZTIRKN3ndk10SpAIBinderE"
    }
   ],
   "return_type" : "_ZTIv",
   "source_file" : "out/soong/.intermediates/hardware/interfaces/wifi/supplicant/aidl/android.hardware.wifi.supplicant-V1-ndk-source/gen/include/aidl/android/hardware/wifi/supplicant/BpSupplicant.h"
  },
  {
   "function_name" : "aidl::android::hardware::wifi::supplicant::BpSupplicant::BpSupplicant",
   "linker_set_key" : "_ZN4aidl7android8hardware4wifi10supplicant12BpSupplicantC2ERKN3ndk10SpAIBinderE",
   "parameters" :
   [
    {
     "is_this_ptr" : true,
     "referenced_type" : "_ZTIPN4aidl7android8hardware4wifi10supplicant12BpSupplicantE"
    },
    {
     "referenced_type" : "_ZTIRKN3ndk10SpAIBinderE"
    }
   ],
   "return_type" : "_ZTIv",
   "source_file" : "out/soong/.intermediates/hardware/interfaces/wifi/supplicant/aidl/android.hardware.wifi.supplicant-V1-ndk-source/gen/include/aidl/android/hardware/wifi/supplicant/BpSupplicant.h"
  },
  {
   "function_name" : "aidl::android::hardware::wifi::supplicant::BpSupplicant::~BpSupplicant",
   "linker_set_key" : "_ZN4aidl7android8hardware4wifi10supplicant12BpSupplicantD0Ev",
   "parameters" :
   [
    {
     "is_this_ptr" : true,
     "referenced_type" : "_ZTIPN4aidl7android8hardware4wifi10supplicant12BpSupplicantE"
    }
   ],
   "return_type" : "_ZTIv",
   "source_file" : "out/soong/.intermediates/hardware/interfaces/wifi/supplicant/aidl/android.hardware.wifi.supplicant-V1-ndk-source/gen/include/aidl/android/hardware/wifi/supplicant/BpSupplicant.h"
  },
  {
   "function_name" : "aidl::android::hardware::wifi::supplicant::BpSupplicant::~BpSupplicant",
   "linker_set_key" : "_ZN4aidl7android8hardware4wifi10supplicant12BpSupplicantD1Ev",
   "parameters" :
   [
    {
     "is_this_ptr" : true,
     "referenced_type" : "_ZTIPN4aidl7android8hardware4wifi10supplicant12BpSupplicantE"
    }
   ],
   "return_type" : "_ZTIv",
   "source_file" : "out/soong/.intermediates/hardware/interfaces/wifi/supplicant/aidl/android.hardware.wifi.supplicant-V1-ndk-source/gen/include/aidl/android/hardware/wifi/supplicant/BpSupplicant.h"
  },
  {
   "function_name" : "aidl::android::hardware::wifi::supplicant::BpSupplicant::~BpSupplicant",
   "linker_set_key" : "_ZN4aidl7android8hardware4wifi10supplicant12BpSupplicantD2Ev",
   "parameters" :
   [
    {
     "is_this_ptr" : true,
     "referenced_type" : "_ZTIPN4aidl7android8hardware4wifi10supplicant12BpSupplicantE"
    }
   ],
   "return_type" : "_ZTIv",
   "source_file" : "out/soong/.intermediates/hardware/interfaces/wifi/supplicant/aidl/android.hardware.wifi.supplicant-V1-ndk-source/gen/include/aidl/android/hardware/wifi/supplicant/BpSupplicant.h"
  },
  {
   "function_name" : "aidl::android::hardware::wifi::supplicant::Hs20AnqpData::readFromParcel",
   "linker_set_key" : "_ZN4aidl7android8hardware4wifi10supplicant12Hs20AnqpData14readFromParcelEPK7AParcel",
   "parameters" :
   [
    {
     "is_this_ptr" : true,
     "referenced_type" : "_ZTIPN4aidl7android8hardware4wifi10supplicant12Hs20AnqpDataE"
    },
    {
     "referenced_type" : "_ZTIPK7AParcel"
    }
   ],
   "return_type" : "_ZTIi",
   "source_file" : "out/soong/.intermediates/hardware/interfaces/wifi/supplicant/aidl/android.hardware.wifi.supplicant-V1-ndk-source/gen/include/aidl/android/hardware/wifi/supplicant/Hs20AnqpData.h"
  },
  {
   "function_name" : "aidl::android::hardware::wifi::supplicant::MloLinksInfo::readFromParcel",
   "linker_set_key" : "_ZN4aidl7android8hardware4wifi10supplicant12MloLinksInfo14readFromParcelEPK7AParcel",
   "parameters" :
   [
    {
     "is_this_ptr" : true,
     "referenced_type" : "_ZTIPN4aidl7android8hardware4wifi10supplicant12MloLinksInfoE"
    },
    {
     "referenced_type" : "_ZTIPK7AParcel"
    }
   ],
   "return_type" : "_ZTIi",
   "source_file" : "out/soong/.intermediates/hardware/interfaces/wifi/supplicant/aidl/android.hardware.wifi.supplicant-V1-ndk-source/gen/include/aidl/android/hardware/wifi/supplicant/MloLinksInfo.h"
  },
  {
   "function_name" : "aidl::android::hardware::wifi::supplicant::QosPolicyData::readFromParcel",
   "linker_set_key" : "_ZN4aidl7android8hardware4wifi10supplicant13QosPolicyData14readFromParcelEPK7AParcel",
   "parameters" :
   [
    {
     "is_this_ptr" : true,
     "referenced_type" : "_ZTIPN4aidl7android8hardware4wifi10supplicant13QosPolicyDataE"
    },
    {
     "referenced_type" : "_ZTIPK7AParcel"
    }
   ],
   "return_type" : "_ZTIi",
   "source_file" : "out/soong/.intermediates/hardware/interfaces/wifi/supplicant/aidl/android.hardware.wifi.supplicant-V1-ndk-source/gen/include/aidl/android/hardware/wifi/supplicant/QosPolicyData.h"
  },
  {
   "function_name" : "aidl::android::hardware::wifi::supplicant::QosPolicyStatus::readFromParcel",
   "linker_set_key" : "_ZN4aidl7android8hardware4wifi10supplicant15QosPolicyStatus14readFromParcelEPK7AParcel",
   "parameters" :
   [
    {
     "is_this_ptr" : true,
     "referenced_type" : "_ZTIPN4aidl7android8hardware4wifi10supplicant15QosPolicyStatusE"
    },
    {
     "referenced_type" : "_ZTIPK7AParcel"
    }
   ],
   "return_type" : "_ZTIi",
   "source_file" : "out/soong/.intermediates/hardware/interfaces/wifi/supplicant/aidl/android.hardware.wifi.supplicant-V1-ndk-source/gen/include/aidl/android/hardware/wifi/supplicant/QosPolicyStatus.h"
  },
  {
   "function_name" : "aidl::android::hardware::wifi::supplicant::DppConnectionKeys::readFromParcel",
   "linker_set_key" : "_ZN4aidl7android8hardware4wifi10supplicant17DppConnectionKeys14readFromParcelEPK7AParcel",
   "parameters" :
   [
    {
     "is_this_ptr" : true,
     "referenced_type" : "_ZTIPN4aidl7android8hardware4wifi10supplicant17DppConnectionKeysE"
    },
    {
     "referenced_type" : "_ZTIPK7AParcel"
    }
   ],
   "return_type" : "_ZTIi",
   "source_file" : "out/soong/.intermediates/hardware/interfaces/wifi/supplicant/aidl/android.hardware.wifi.supplicant-V1-ndk-source/gen/include/aidl/android/hardware/wifi/supplicant/DppConnectionKeys.h"
  },
  {
   "function_name" : "aidl::android::hardware::wifi::supplicant::ISupplicantDefault::getDebugLevel",
   "linker_set_key" : "_ZN4aidl7android8hardware4wifi10supplicant18ISupplicantDefault13getDebugLevelEPNS3_10DebugLevelE",
   "parameters" :
   [
    {
     "is_this_ptr" : true,
     "referenced_type" : "_ZTIPN4aidl7android8hardware4wifi10supplicant18ISupplicantDefaultE"
    },
    {
     "referenced_type" : "_ZTIPN4aidl7android8hardware4wifi10supplicant10DebugLevelE"
    }
   ],
   "return_type" : "_ZTIN3ndk13ScopedAStatusE",
   "source_file" : "out/soong/.intermediates/hardware/interfaces/wifi/supplicant/aidl/android.hardware.wifi.supplicant-V1-ndk-source/gen/include/aidl/android/hardware/wifi/supplicant/ISupplicant.h"
  },
  {
   "function_name" : "aidl::android::hardware::wifi::supplicant::ISupplicantDefault::listInterfaces",
   "linker_set_key" : "_ZN4aidl7android8hardware4wifi10supplicant18ISupplicantDefault14listInterfacesEPNSt3__16vectorINS3_9IfaceInfoENS5_9allocatorIS7_EEEE",
   "parameters" :
   [
    {
     "is_this_ptr" : true,
     "referenced_type" : "_ZTIPN4aidl7android8hardware4wifi10supplicant18ISupplicantDefaultE"
    },
    {
     "referenced_type" : "_ZTIPNSt3__16vectorIN4aidl7android8hardware4wifi10supplicant9IfaceInfoENS_9allocatorIS6_EEEE"
    }
   ],
   "return_type" : "_ZTIN3ndk13ScopedAStatusE",
   "source_file" : "out/soong/.intermediates/hardware/interfaces/wifi/supplicant/aidl/android.hardware.wifi.supplicant-V1-ndk-source/gen/include/aidl/android/hardware/wifi/supplicant/ISupplicant.h"
  },
  {
   "function_name" : "aidl::android::hardware::wifi::supplicant::ISupplicantDefault::setDebugParams",
   "linker_set_key" : "_ZN4aidl7android8hardware4wifi10supplicant18ISupplicantDefault14setDebugParamsENS3_10DebugLevelEbb",
   "parameters" :
   [
    {
     "is_this_ptr" : true,
     "referenced_type" : "_ZTIPN4aidl7android8hardware4wifi10supplicant18ISupplicantDefaultE"
    },
    {
     "referenced_type" : "_ZTIN4aidl7android8hardware4wifi10supplicant10DebugLevelE"
    },
    {
     "referenced_type" : "_ZTIb"
    },
    {
     "referenced_type" : "_ZTIb"
    }
   ],
   "return_type" : "_ZTIN3ndk13ScopedAStatusE",
   "source_file" : "out/soong/.intermediates/hardware/interfaces/wifi/supplicant/aidl/android.hardware.wifi.supplicant-V1-ndk-source/gen/include/aidl/android/hardware/wifi/supplicant/ISupplicant.h"
  },
  {
   "function_name" : "aidl::android::hardware::wifi::supplicant::ISupplicantDefault::addP2pInterface",
   "linker_set_key" : "_ZN4aidl7android8hardware4wifi10supplicant18ISupplicantDefault15addP2pInterfaceERKNSt3__112basic_stringIcNS5_11char_traitsIcEENS5_9allocatorIcEEEEPNS5_10shared_ptrINS3_19ISupplicantP2pIfaceEEE",
   "parameters" :
   [
    {
     "is_this_ptr" : true,
     "referenced_type" : "_ZTIPN4aidl7android8hardware4wifi10supplicant18ISupplicantDefaultE"
    },
    {
     "referenced_type" : "_ZTIRKNSt3__112basic_stringIcNS_11char_traitsIcEENS_9allocatorIcEEEE"
    },
    {
     "referenced_type" : "_ZTIPNSt3__110shared_ptrIN4aidl7android8hardware4wifi10supplicant19ISupplicantP2pIfaceEEE"
    }
   ],
   "return_type" : "_ZTIN3ndk13ScopedAStatusE",
   "source_file" : "out/soong/.intermediates/hardware/interfaces/wifi/supplicant/aidl/android.hardware.wifi.supplicant-V1-ndk-source/gen/include/aidl/android/hardware/wifi/supplicant/ISupplicant.h"
  },
  {
   "function_name" : "aidl::android::hardware::wifi::supplicant::ISupplicantDefault::addStaInterface",
   "linker_set_key" : "_ZN4aidl7android8hardware4wifi10supplicant18ISupplicantDefault15addStaInterfaceERKNSt3__112basic_stringIcNS5_11char_traitsIcEENS5_9allocatorIcEEEEPNS5_10shared_ptrINS3_19ISupplicantStaIfaceEEE",
   "parameters" :
   [
    {
     "is_this_ptr" : true,
     "referenced_type" : "_ZTIPN4aidl7android8hardware4wifi10supplicant18ISupplicantDefaultE"
    },
    {
     "referenced_type" : "_ZTIRKNSt3__112basic_stringIcNS_11char_traitsIcEENS_9allocatorIcEEEE"
    },
    {
     "referenced_type" : "_ZTIPNSt3__110shared_ptrIN4aidl7android8hardware4wifi10supplicant19ISupplicantStaIfaceEEE"
    }
   ],
   "return_type" : "_ZTIN3ndk13ScopedAStatusE",
   "source_file" : "out/soong/.intermediates/hardware/interfaces/wifi/supplicant/aidl/android.hardware.wifi.supplicant-V1-ndk-source/gen/include/aidl/android/hardware/wifi/supplicant/ISupplicant.h"
  },
  {
   "function_name" : "aidl::android::hardware::wifi::supplicant::ISupplicantDefault::getP2pInterface",
   "linker_set_key" : "_ZN4aidl7android8hardware4wifi10supplicant18ISupplicantDefault15getP2pInterfaceERKNSt3__112basic_stringIcNS5_11char_traitsIcEENS5_9allocatorIcEEEEPNS5_10shared_ptrINS3_19ISupplicantP2pIfaceEEE",
   "parameters" :
   [
    {
     "is_this_ptr" : true,
     "referenced_type" : "_ZTIPN4aidl7android8hardware4wifi10supplicant18ISupplicantDefaultE"
    },
    {
     "referenced_type" : "_ZTIRKNSt3__112basic_stringIcNS_11char_traitsIcEENS_9allocatorIcEEEE"
    },
    {
     "referenced_type" : "_ZTIPNSt3__110shared_ptrIN4aidl7android8hardware4wifi10supplicant19ISupplicantP2pIfaceEEE"
    }
   ],
   "return_type" : "_ZTIN3ndk13ScopedAStatusE",
   "source_file" : "out/soong/.intermediates/hardware/interfaces/wifi/supplicant/aidl/android.hardware.wifi.supplicant-V1-ndk-source/gen/include/aidl/android/hardware/wifi/supplicant/ISupplicant.h"
  },
  {
   "function_name" : "aidl::android::hardware::wifi::supplicant::ISupplicantDefault::getStaInterface",
   "linker_set_key" : "_ZN4aidl7android8hardware4wifi10supplicant18ISupplicantDefault15getStaInterfaceERKNSt3__112basic_stringIcNS5_11char_traitsIcEENS5_9allocatorIcEEEEPNS5_10shared_ptrINS3_19ISupplicantStaIfaceEEE",
   "parameters" :
   [
    {
     "is_this_ptr" : true,
     "referenced_type" : "_ZTIPN4aidl7android8hardware4wifi10supplicant18ISupplicantDefaultE"
    },
    {
     "referenced_type" : "_ZTIRKNSt3__112basic_stringIcNS_11char_traitsIcEENS_9allocatorIcEEEE"
    },
    {
     "referenced_type" : "_ZTIPNSt3__110shared_ptrIN4aidl7android8hardware4wifi10supplicant19ISupplicantStaIfaceEEE"
    }
   ],
   "return_type" : "_ZTIN3ndk13ScopedAStatusE",
   "source_file" : "out/soong/.intermediates/hardware/interfaces/wifi/supplicant/aidl/android.hardware.wifi.supplicant-V1-ndk-source/gen/include/aidl/android/hardware/wifi/supplicant/ISupplicant.h"
  },
  {
   "function_name" : "aidl::android::hardware::wifi::supplicant::ISupplicantDefault::removeInterface",
   "linker_set_key" : "_ZN4aidl7android8hardware4wifi10supplicant18ISupplicantDefault15removeInterfaceERKNS3_9IfaceInfoE",
   "parameters" :
   [
    {
     "is_this_ptr" : true,
     "referenced_type" : "_ZTIPN4aidl7android8hardware4wifi10supplicant18ISupplicantDefaultE"
    },
    {
     "referenced_type" : "_ZTIRKN4aidl7android8hardware4wifi10supplicant9IfaceInfoE"
    }
   ],
   "return_type" : "_ZTIN3ndk13ScopedAStatusE",
   "source_file" : "out/soong/.intermediates/hardware/interfaces/wifi/supplicant/aidl/android.hardware.wifi.supplicant-V1-ndk-source/gen/include/aidl/android/hardware/wifi/supplicant/ISupplicant.h"
  },
  {
   "function_name" : "aidl::android::hardware::wifi::supplicant::ISupplicantDefault::getInterfaceHash",
   "linker_set_key" : "_ZN4aidl7android8hardware4wifi10supplicant18ISupplicantDefault16getInterfaceHashEPNSt3__112basic_stringIcNS5_11char_traitsIcEENS5_9allocatorIcEEEE",
   "parameters" :
   [
    {
     "is_this_ptr" : true,
     "referenced_type" : "_ZTIPN4aidl7android8hardware4wifi10supplicant18ISupplicantDefaultE"
    },
    {
     "referenced_type" : "_ZTIPNSt3__112basic_stringIcNS_11char_traitsIcEENS_9allocatorIcEEEE"
    }
   ],
   "return_type" : "_ZTIN3ndk13ScopedAStatusE",
   "source_file" : "out/soong/.intermediates/hardware/interfaces/wifi/supplicant/aidl/android.hardware.wifi.supplicant-V1-ndk-source/gen/include/aidl/android/hardware/wifi/supplicant/ISupplicant.h"
  },
  {
   "function_name" : "aidl::android::hardware::wifi::supplicant::ISupplicantDefault::registerCallback",
   "linker_set_key" : "_ZN4aidl7android8hardware4wifi10supplicant18ISupplicantDefault16registerCallbackERKNSt3__110shared_ptrINS3_19ISupplicantCallbackEEE",
   "parameters" :
   [
    {
     "is_this_ptr" : true,
     "referenced_type" : "_ZTIPN4aidl7android8hardware4wifi10supplicant18ISupplicantDefaultE"
    },
    {
     "referenced_type" : "_ZTIRKNSt3__110shared_ptrIN4aidl7android8hardware4wifi10supplicant19ISupplicantCallbackEEE"
    }
   ],
   "return_type" : "_ZTIN3ndk13ScopedAStatusE",
   "source_file" : "out/soong/.intermediates/hardware/interfaces/wifi/supplicant/aidl/android.hardware.wifi.supplicant-V1-ndk-source/gen/include/aidl/android/hardware/wifi/supplicant/ISupplicant.h"
  },
  {
   "function_name" : "aidl::android::hardware::wifi::supplicant::ISupplicantDefault::getInterfaceVersion",
   "linker_set_key" : "_ZN4aidl7android8hardware4wifi10supplicant18ISupplicantDefault19getInterfaceVersionEPi",
   "parameters" :
   [
    {
     "is_this_ptr" : true,
     "referenced_type" : "_ZTIPN4aidl7android8hardware4wifi10supplicant18ISupplicantDefaultE"
    },
    {
     "referenced_type" : "_ZTIPi"
    }
   ],
   "return_type" : "_ZTIN3ndk13ScopedAStatusE",
   "source_file" : "out/soong/.intermediates/hardware/interfaces/wifi/supplicant/aidl/android.hardware.wifi.supplicant-V1-ndk-source/gen/include/aidl/android/hardware/wifi/supplicant/ISupplicant.h"
  },
  {
   "function_name" : "aidl::android::hardware::wifi::supplicant::ISupplicantDefault::isDebugShowKeysEnabled",
   "linker_set_key" : "_ZN4aidl7android8hardware4wifi10supplicant18ISupplicantDefault22isDebugShowKeysEnabledEPb",
   "parameters" :
   [
    {
     "is_this_ptr" : true,
     "referenced_type" : "_ZTIPN4aidl7android8hardware4wifi10supplicant18ISupplicantDefaultE"
    },
    {
     "referenced_type" : "_ZTIPb"
    }
   ],
   "return_type" : "_ZTIN3ndk13ScopedAStatusE",
   "source_file" : "out/soong/.intermediates/hardware/interfaces/wifi/supplicant/aidl/android.hardware.wifi.supplicant-V1-ndk-source/gen/include/aidl/android/hardware/wifi/supplicant/ISupplicant.h"
  },
  {
   "function_name" : "aidl::android::hardware::wifi::supplicant::ISupplicantDefault::setConcurrencyPriority",
   "linker_set_key" : "_ZN4aidl7android8hardware4wifi10supplicant18ISupplicantDefault22setConcurrencyPriorityENS3_9IfaceTypeE",
   "parameters" :
   [
    {
     "is_this_ptr" : true,
     "referenced_type" : "_ZTIPN4aidl7android8hardware4wifi10supplicant18ISupplicantDefaultE"
    },
    {
     "referenced_type" : "_ZTIN4aidl7android8hardware4wifi10supplicant9IfaceTypeE"
    }
   ],
   "return_type" : "_ZTIN3ndk13ScopedAStatusE",
   "source_file" : "out/soong/.intermediates/hardware/interfaces/wifi/supplicant/aidl/android.hardware.wifi.supplicant-V1-ndk-source/gen/include/aidl/android/hardware/wifi/supplicant/ISupplicant.h"
  },
  {
   "function_name" : "aidl::android::hardware::wifi::supplicant::ISupplicantDefault::isDebugShowTimestampEnabled",
   "linker_set_key" : "_ZN4aidl7android8hardware4wifi10supplicant18ISupplicantDefault27isDebugShowTimestampEnabledEPb",
   "parameters" :
   [
    {
     "is_this_ptr" : true,
     "referenced_type" : "_ZTIPN4aidl7android8hardware4wifi10supplicant18ISupplicantDefaultE"
    },
    {
     "referenced_type" : "_ZTIPb"
    }
   ],
   "return_type" : "_ZTIN3ndk13ScopedAStatusE",
   "source_file" : "out/soong/.intermediates/hardware/interfaces/wifi/supplicant/aidl/android.hardware.wifi.supplicant-V1-ndk-source/gen/include/aidl/android/hardware/wifi/supplicant/ISupplicant.h"
  },
  {
   "function_name" : "aidl::android::hardware::wifi::supplicant::ISupplicantDefault::asBinder",
   "linker_set_key" : "_ZN4aidl7android8hardware4wifi10supplicant18ISupplicantDefault8asBinderEv",
   "parameters" :
   [
    {
     "is_this_ptr" : true,
     "referenced_type" : "_ZTIPN4aidl7android8hardware4wifi10supplicant18ISupplicantDefaultE"
    }
   ],
   "return_type" : "_ZTIN3ndk10SpAIBinderE",
   "source_file" : "out/soong/.intermediates/hardware/interfaces/wifi/supplicant/aidl/android.hardware.wifi.supplicant-V1-ndk-source/gen/include/aidl/android/hardware/wifi/supplicant/ISupplicant.h"
  },
  {
   "function_name" : "aidl::android::hardware::wifi::supplicant::ISupplicantDefault::isRemote",
   "linker_set_key" : "_ZN4aidl7android8hardware4wifi10supplicant18ISupplicantDefault8isRemoteEv",
   "parameters" :
   [
    {
     "is_this_ptr" : true,
     "referenced_type" : "_ZTIPN4aidl7android8hardware4wifi10supplicant18ISupplicantDefaultE"
    }
   ],
   "return_type" : "_ZTIb",
   "source_file" : "out/soong/.intermediates/hardware/interfaces/wifi/supplicant/aidl/android.hardware.wifi.supplicant-V1-ndk-source/gen/include/aidl/android/hardware/wifi/supplicant/ISupplicant.h"
  },
  {
   "function_name" : "aidl::android::hardware::wifi::supplicant::ISupplicantDefault::terminate",
   "linker_set_key" : "_ZN4aidl7android8hardware4wifi10supplicant18ISupplicantDefault9terminateEv",
   "parameters" :
   [
    {
     "is_this_ptr" : true,
     "referenced_type" : "_ZTIPN4aidl7android8hardware4wifi10supplicant18ISupplicantDefaultE"
    }
   ],
   "return_type" : "_ZTIN3ndk13ScopedAStatusE",
   "source_file" : "out/soong/.intermediates/hardware/interfaces/wifi/supplicant/aidl/android.hardware.wifi.supplicant-V1-ndk-source/gen/include/aidl/android/hardware/wifi/supplicant/ISupplicant.h"
  },
  {
   "function_name" : "aidl::android::hardware::wifi::supplicant::ISupplicantCallback::fromBinder",
   "linker_set_key" : "_ZN4aidl7android8hardware4wifi10supplicant19ISupplicantCallback10fromBinderERKN3ndk10SpAIBinderE",
   "parameters" :
   [
    {
     "referenced_type" : "_ZTIRKN3ndk10SpAIBinderE"
    }
   ],
   "return_type" : "_ZTINSt3__110shared_ptrIN4aidl7android8hardware4wifi10supplicant19ISupplicantCallbackEEE",
   "source_file" : "out/soong/.intermediates/hardware/interfaces/wifi/supplicant/aidl/android.hardware.wifi.supplicant-V1-ndk-source/gen/include/aidl/android/hardware/wifi/supplicant/ISupplicantCallback.h"
  },
  {
   "function_name" : "aidl::android::hardware::wifi::supplicant::ISupplicantCallback::writeToParcel",
   "linker_set_key" : "_ZN4aidl7android8hardware4wifi10supplicant19ISupplicantCallback13writeToParcelEP7AParcelRKNSt3__110shared_ptrIS4_EE",
   "parameters" :
   [
    {
     "referenced_type" : "_ZTIP7AParcel"
    },
    {
     "referenced_type" : "_ZTIRKNSt3__110shared_ptrIN4aidl7android8hardware4wifi10supplicant19ISupplicantCallbackEEE"
    }
   ],
   "return_type" : "_ZTIi",
   "source_file" : "out/soong/.intermediates/hardware/interfaces/wifi/supplicant/aidl/android.hardware.wifi.supplicant-V1-ndk-source/gen/include/aidl/android/hardware/wifi/supplicant/ISupplicantCallback.h"
  },
  {
   "function_name" : "aidl::android::hardware::wifi::supplicant::ISupplicantCallback::getDefaultImpl",
   "linker_set_key" : "_ZN4aidl7android8hardware4wifi10supplicant19ISupplicantCallback14getDefaultImplEv",
   "return_type" : "_ZTIRKNSt3__110shared_ptrIN4aidl7android8hardware4wifi10supplicant19ISupplicantCallbackEEE",
   "source_file" : "out/soong/.intermediates/hardware/interfaces/wifi/supplicant/aidl/android.hardware.wifi.supplicant-V1-ndk-source/gen/include/aidl/android/hardware/wifi/supplicant/ISupplicantCallback.h"
  },
  {
   "function_name" : "aidl::android::hardware::wifi::supplicant::ISupplicantCallback::readFromParcel",
   "linker_set_key" : "_ZN4aidl7android8hardware4wifi10supplicant19ISupplicantCallback14readFromParcelEPK7AParcelPNSt3__110shared_ptrIS4_EE",
   "parameters" :
   [
    {
     "referenced_type" : "_ZTIPK7AParcel"
    },
    {
     "referenced_type" : "_ZTIPNSt3__110shared_ptrIN4aidl7android8hardware4wifi10supplicant19ISupplicantCallbackEEE"
    }
   ],
   "return_type" : "_ZTIi",
   "source_file" : "out/soong/.intermediates/hardware/interfaces/wifi/supplicant/aidl/android.hardware.wifi.supplicant-V1-ndk-source/gen/include/aidl/android/hardware/wifi/supplicant/ISupplicantCallback.h"
  },
  {
   "function_name" : "aidl::android::hardware::wifi::supplicant::ISupplicantCallback::setDefaultImpl",
   "linker_set_key" : "_ZN4aidl7android8hardware4wifi10supplicant19ISupplicantCallback14setDefaultImplERKNSt3__110shared_ptrIS4_EE",
   "parameters" :
   [
    {
     "referenced_type" : "_ZTIRKNSt3__110shared_ptrIN4aidl7android8hardware4wifi10supplicant19ISupplicantCallbackEEE"
    }
   ],
   "return_type" : "_ZTIb",
   "source_file" : "out/soong/.intermediates/hardware/interfaces/wifi/supplicant/aidl/android.hardware.wifi.supplicant-V1-ndk-source/gen/include/aidl/android/hardware/wifi/supplicant/ISupplicantCallback.h"
  },
  {
   "function_name" : "aidl::android::hardware::wifi::supplicant::ISupplicantCallback::ISupplicantCallback",
   "linker_set_key" : "_ZN4aidl7android8hardware4wifi10supplicant19ISupplicantCallbackC2Ev",
   "parameters" :
   [
    {
     "is_this_ptr" : true,
     "referenced_type" : "_ZTIPN4aidl7android8hardware4wifi10supplicant19ISupplicantCallbackE"
    }
   ],
   "return_type" : "_ZTIv",
   "source_file" : "out/soong/.intermediates/hardware/interfaces/wifi/supplicant/aidl/android.hardware.wifi.supplicant-V1-ndk-source/gen/include/aidl/android/hardware/wifi/supplicant/ISupplicantCallback.h"
  },
  {
   "function_name" : "aidl::android::hardware::wifi::supplicant::ISupplicantCallback::~ISupplicantCallback",
   "linker_set_key" : "_ZN4aidl7android8hardware4wifi10supplicant19ISupplicantCallbackD0Ev",
   "parameters" :
   [
    {
     "is_this_ptr" : true,
     "referenced_type" : "_ZTIPN4aidl7android8hardware4wifi10supplicant19ISupplicantCallbackE"
    }
   ],
   "return_type" : "_ZTIv",
   "source_file" : "out/soong/.intermediates/hardware/interfaces/wifi/supplicant/aidl/android.hardware.wifi.supplicant-V1-ndk-source/gen/include/aidl/android/hardware/wifi/supplicant/ISupplicantCallback.h"
  },
  {
   "function_name" : "aidl::android::hardware::wifi::supplicant::ISupplicantCallback::~ISupplicantCallback",
   "linker_set_key" : "_ZN4aidl7android8hardware4wifi10supplicant19ISupplicantCallbackD1Ev",
   "parameters" :
   [
    {
     "is_this_ptr" : true,
     "referenced_type" : "_ZTIPN4aidl7android8hardware4wifi10supplicant19ISupplicantCallbackE"
    }
   ],
   "return_type" : "_ZTIv",
   "source_file" : "out/soong/.intermediates/hardware/interfaces/wifi/supplicant/aidl/android.hardware.wifi.supplicant-V1-ndk-source/gen/include/aidl/android/hardware/wifi/supplicant/ISupplicantCallback.h"
  },
  {
   "function_name" : "aidl::android::hardware::wifi::supplicant::ISupplicantCallback::~ISupplicantCallback",
   "linker_set_key" : "_ZN4aidl7android8hardware4wifi10supplicant19ISupplicantCallbackD2Ev",
   "parameters" :
   [
    {
     "is_this_ptr" : true,
     "referenced_type" : "_ZTIPN4aidl7android8hardware4wifi10supplicant19ISupplicantCallbackE"
    }
   ],
   "return_type" : "_ZTIv",
   "source_file" : "out/soong/.intermediates/hardware/interfaces/wifi/supplicant/aidl/android.hardware.wifi.supplicant-V1-ndk-source/gen/include/aidl/android/hardware/wifi/supplicant/ISupplicantCallback.h"
  },
  {
   "function_name" : "aidl::android::hardware::wifi::supplicant::ISupplicantP2pIface::fromBinder",
   "linker_set_key" : "_ZN4aidl7android8hardware4wifi10supplicant19ISupplicantP2pIface10fromBinderERKN3ndk10SpAIBinderE",
   "parameters" :
   [
    {
     "referenced_type" : "_ZTIRKN3ndk10SpAIBinderE"
    }
   ],
   "return_type" : "_ZTINSt3__110shared_ptrIN4aidl7android8hardware4wifi10supplicant19ISupplicantP2pIfaceEEE",
   "source_file" : "out/soong/.intermediates/hardware/interfaces/wifi/supplicant/aidl/android.hardware.wifi.supplicant-V1-ndk-source/gen/include/aidl/android/hardware/wifi/supplicant/ISupplicantP2pIface.h"
  },
  {
   "function_name" : "aidl::android::hardware::wifi::supplicant::ISupplicantP2pIface::writeToParcel",
   "linker_set_key" : "_ZN4aidl7android8hardware4wifi10supplicant19ISupplicantP2pIface13writeToParcelEP7AParcelRKNSt3__110shared_ptrIS4_EE",
   "parameters" :
   [
    {
     "referenced_type" : "_ZTIP7AParcel"
    },
    {
     "referenced_type" : "_ZTIRKNSt3__110shared_ptrIN4aidl7android8hardware4wifi10supplicant19ISupplicantP2pIfaceEEE"
    }
   ],
   "return_type" : "_ZTIi",
   "source_file" : "out/soong/.intermediates/hardware/interfaces/wifi/supplicant/aidl/android.hardware.wifi.supplicant-V1-ndk-source/gen/include/aidl/android/hardware/wifi/supplicant/ISupplicantP2pIface.h"
  },
  {
   "function_name" : "aidl::android::hardware::wifi::supplicant::ISupplicantP2pIface::getDefaultImpl",
   "linker_set_key" : "_ZN4aidl7android8hardware4wifi10supplicant19ISupplicantP2pIface14getDefaultImplEv",
   "return_type" : "_ZTIRKNSt3__110shared_ptrIN4aidl7android8hardware4wifi10supplicant19ISupplicantP2pIfaceEEE",
   "source_file" : "out/soong/.intermediates/hardware/interfaces/wifi/supplicant/aidl/android.hardware.wifi.supplicant-V1-ndk-source/gen/include/aidl/android/hardware/wifi/supplicant/ISupplicantP2pIface.h"
  },
  {
   "function_name" : "aidl::android::hardware::wifi::supplicant::ISupplicantP2pIface::readFromParcel",
   "linker_set_key" : "_ZN4aidl7android8hardware4wifi10supplicant19ISupplicantP2pIface14readFromParcelEPK7AParcelPNSt3__110shared_ptrIS4_EE",
   "parameters" :
   [
    {
     "referenced_type" : "_ZTIPK7AParcel"
    },
    {
     "referenced_type" : "_ZTIPNSt3__110shared_ptrIN4aidl7android8hardware4wifi10supplicant19ISupplicantP2pIfaceEEE"
    }
   ],
   "return_type" : "_ZTIi",
   "source_file" : "out/soong/.intermediates/hardware/interfaces/wifi/supplicant/aidl/android.hardware.wifi.supplicant-V1-ndk-source/gen/include/aidl/android/hardware/wifi/supplicant/ISupplicantP2pIface.h"
  },
  {
   "function_name" : "aidl::android::hardware::wifi::supplicant::ISupplicantP2pIface::setDefaultImpl",
   "linker_set_key" : "_ZN4aidl7android8hardware4wifi10supplicant19ISupplicantP2pIface14setDefaultImplERKNSt3__110shared_ptrIS4_EE",
   "parameters" :
   [
    {
     "referenced_type" : "_ZTIRKNSt3__110shared_ptrIN4aidl7android8hardware4wifi10supplicant19ISupplicantP2pIfaceEEE"
    }
   ],
   "return_type" : "_ZTIb",
   "source_file" : "out/soong/.intermediates/hardware/interfaces/wifi/supplicant/aidl/android.hardware.wifi.supplicant-V1-ndk-source/gen/include/aidl/android/hardware/wifi/supplicant/ISupplicantP2pIface.h"
  },
  {
   "function_name" : "aidl::android::hardware::wifi::supplicant::ISupplicantP2pIface::ISupplicantP2pIface",
   "linker_set_key" : "_ZN4aidl7android8hardware4wifi10supplicant19ISupplicantP2pIfaceC2Ev",
   "parameters" :
   [
    {
     "is_this_ptr" : true,
     "referenced_type" : "_ZTIPN4aidl7android8hardware4wifi10supplicant19ISupplicantP2pIfaceE"
    }
   ],
   "return_type" : "_ZTIv",
   "source_file" : "out/soong/.intermediates/hardware/interfaces/wifi/supplicant/aidl/android.hardware.wifi.supplicant-V1-ndk-source/gen/include/aidl/android/hardware/wifi/supplicant/ISupplicantP2pIface.h"
  },
  {
   "function_name" : "aidl::android::hardware::wifi::supplicant::ISupplicantP2pIface::~ISupplicantP2pIface",
   "linker_set_key" : "_ZN4aidl7android8hardware4wifi10supplicant19ISupplicantP2pIfaceD0Ev",
   "parameters" :
   [
    {
     "is_this_ptr" : true,
     "referenced_type" : "_ZTIPN4aidl7android8hardware4wifi10supplicant19ISupplicantP2pIfaceE"
    }
   ],
   "return_type" : "_ZTIv",
   "source_file" : "out/soong/.intermediates/hardware/interfaces/wifi/supplicant/aidl/android.hardware.wifi.supplicant-V1-ndk-source/gen/include/aidl/android/hardware/wifi/supplicant/ISupplicantP2pIface.h"
  },
  {
   "function_name" : "aidl::android::hardware::wifi::supplicant::ISupplicantP2pIface::~ISupplicantP2pIface",
   "linker_set_key" : "_ZN4aidl7android8hardware4wifi10supplicant19ISupplicantP2pIfaceD1Ev",
   "parameters" :
   [
    {
     "is_this_ptr" : true,
     "referenced_type" : "_ZTIPN4aidl7android8hardware4wifi10supplicant19ISupplicantP2pIfaceE"
    }
   ],
   "return_type" : "_ZTIv",
   "source_file" : "out/soong/.intermediates/hardware/interfaces/wifi/supplicant/aidl/android.hardware.wifi.supplicant-V1-ndk-source/gen/include/aidl/android/hardware/wifi/supplicant/ISupplicantP2pIface.h"
  },
  {
   "function_name" : "aidl::android::hardware::wifi::supplicant::ISupplicantP2pIface::~ISupplicantP2pIface",
   "linker_set_key" : "_ZN4aidl7android8hardware4wifi10supplicant19ISupplicantP2pIfaceD2Ev",
   "parameters" :
   [
    {
     "is_this_ptr" : true,
     "referenced_type" : "_ZTIPN4aidl7android8hardware4wifi10supplicant19ISupplicantP2pIfaceE"
    }
   ],
   "return_type" : "_ZTIv",
   "source_file" : "out/soong/.intermediates/hardware/interfaces/wifi/supplicant/aidl/android.hardware.wifi.supplicant-V1-ndk-source/gen/include/aidl/android/hardware/wifi/supplicant/ISupplicantP2pIface.h"
  },
  {
   "function_name" : "aidl::android::hardware::wifi::supplicant::ISupplicantStaIface::fromBinder",
   "linker_set_key" : "_ZN4aidl7android8hardware4wifi10supplicant19ISupplicantStaIface10fromBinderERKN3ndk10SpAIBinderE",
   "parameters" :
   [
    {
     "referenced_type" : "_ZTIRKN3ndk10SpAIBinderE"
    }
   ],
   "return_type" : "_ZTINSt3__110shared_ptrIN4aidl7android8hardware4wifi10supplicant19ISupplicantStaIfaceEEE",
   "source_file" : "out/soong/.intermediates/hardware/interfaces/wifi/supplicant/aidl/android.hardware.wifi.supplicant-V1-ndk-source/gen/include/aidl/android/hardware/wifi/supplicant/ISupplicantStaIface.h"
  },
  {
   "function_name" : "aidl::android::hardware::wifi::supplicant::ISupplicantStaIface::writeToParcel",
   "linker_set_key" : "_ZN4aidl7android8hardware4wifi10supplicant19ISupplicantStaIface13writeToParcelEP7AParcelRKNSt3__110shared_ptrIS4_EE",
   "parameters" :
   [
    {
     "referenced_type" : "_ZTIP7AParcel"
    },
    {
     "referenced_type" : "_ZTIRKNSt3__110shared_ptrIN4aidl7android8hardware4wifi10supplicant19ISupplicantStaIfaceEEE"
    }
   ],
   "return_type" : "_ZTIi",
   "source_file" : "out/soong/.intermediates/hardware/interfaces/wifi/supplicant/aidl/android.hardware.wifi.supplicant-V1-ndk-source/gen/include/aidl/android/hardware/wifi/supplicant/ISupplicantStaIface.h"
  },
  {
   "function_name" : "aidl::android::hardware::wifi::supplicant::ISupplicantStaIface::getDefaultImpl",
   "linker_set_key" : "_ZN4aidl7android8hardware4wifi10supplicant19ISupplicantStaIface14getDefaultImplEv",
   "return_type" : "_ZTIRKNSt3__110shared_ptrIN4aidl7android8hardware4wifi10supplicant19ISupplicantStaIfaceEEE",
   "source_file" : "out/soong/.intermediates/hardware/interfaces/wifi/supplicant/aidl/android.hardware.wifi.supplicant-V1-ndk-source/gen/include/aidl/android/hardware/wifi/supplicant/ISupplicantStaIface.h"
  },
  {
   "function_name" : "aidl::android::hardware::wifi::supplicant::ISupplicantStaIface::readFromParcel",
   "linker_set_key" : "_ZN4aidl7android8hardware4wifi10supplicant19ISupplicantStaIface14readFromParcelEPK7AParcelPNSt3__110shared_ptrIS4_EE",
   "parameters" :
   [
    {
     "referenced_type" : "_ZTIPK7AParcel"
    },
    {
     "referenced_type" : "_ZTIPNSt3__110shared_ptrIN4aidl7android8hardware4wifi10supplicant19ISupplicantStaIfaceEEE"
    }
   ],
   "return_type" : "_ZTIi",
   "source_file" : "out/soong/.intermediates/hardware/interfaces/wifi/supplicant/aidl/android.hardware.wifi.supplicant-V1-ndk-source/gen/include/aidl/android/hardware/wifi/supplicant/ISupplicantStaIface.h"
  },
  {
   "function_name" : "aidl::android::hardware::wifi::supplicant::ISupplicantStaIface::setDefaultImpl",
   "linker_set_key" : "_ZN4aidl7android8hardware4wifi10supplicant19ISupplicantStaIface14setDefaultImplERKNSt3__110shared_ptrIS4_EE",
   "parameters" :
   [
    {
     "referenced_type" : "_ZTIRKNSt3__110shared_ptrIN4aidl7android8hardware4wifi10supplicant19ISupplicantStaIfaceEEE"
    }
   ],
   "return_type" : "_ZTIb",
   "source_file" : "out/soong/.intermediates/hardware/interfaces/wifi/supplicant/aidl/android.hardware.wifi.supplicant-V1-ndk-source/gen/include/aidl/android/hardware/wifi/supplicant/ISupplicantStaIface.h"
  },
  {
   "function_name" : "aidl::android::hardware::wifi::supplicant::ISupplicantStaIface::ISupplicantStaIface",
   "linker_set_key" : "_ZN4aidl7android8hardware4wifi10supplicant19ISupplicantStaIfaceC2Ev",
   "parameters" :
   [
    {
     "is_this_ptr" : true,
     "referenced_type" : "_ZTIPN4aidl7android8hardware4wifi10supplicant19ISupplicantStaIfaceE"
    }
   ],
   "return_type" : "_ZTIv",
   "source_file" : "out/soong/.intermediates/hardware/interfaces/wifi/supplicant/aidl/android.hardware.wifi.supplicant-V1-ndk-source/gen/include/aidl/android/hardware/wifi/supplicant/ISupplicantStaIface.h"
  },
  {
   "function_name" : "aidl::android::hardware::wifi::supplicant::ISupplicantStaIface::~ISupplicantStaIface",
   "linker_set_key" : "_ZN4aidl7android8hardware4wifi10supplicant19ISupplicantStaIfaceD0Ev",
   "parameters" :
   [
    {
     "is_this_ptr" : true,
     "referenced_type" : "_ZTIPN4aidl7android8hardware4wifi10supplicant19ISupplicantStaIfaceE"
    }
   ],
   "return_type" : "_ZTIv",
   "source_file" : "out/soong/.intermediates/hardware/interfaces/wifi/supplicant/aidl/android.hardware.wifi.supplicant-V1-ndk-source/gen/include/aidl/android/hardware/wifi/supplicant/ISupplicantStaIface.h"
  },
  {
   "function_name" : "aidl::android::hardware::wifi::supplicant::ISupplicantStaIface::~ISupplicantStaIface",
   "linker_set_key" : "_ZN4aidl7android8hardware4wifi10supplicant19ISupplicantStaIfaceD1Ev",
   "parameters" :
   [
    {
     "is_this_ptr" : true,
     "referenced_type" : "_ZTIPN4aidl7android8hardware4wifi10supplicant19ISupplicantStaIfaceE"
    }
   ],
   "return_type" : "_ZTIv",
   "source_file" : "out/soong/.intermediates/hardware/interfaces/wifi/supplicant/aidl/android.hardware.wifi.supplicant-V1-ndk-source/gen/include/aidl/android/hardware/wifi/supplicant/ISupplicantStaIface.h"
  },
  {
   "function_name" : "aidl::android::hardware::wifi::supplicant::ISupplicantStaIface::~ISupplicantStaIface",
   "linker_set_key" : "_ZN4aidl7android8hardware4wifi10supplicant19ISupplicantStaIfaceD2Ev",
   "parameters" :
   [
    {
     "is_this_ptr" : true,
     "referenced_type" : "_ZTIPN4aidl7android8hardware4wifi10supplicant19ISupplicantStaIfaceE"
    }
   ],
   "return_type" : "_ZTIv",
   "source_file" : "out/soong/.intermediates/hardware/interfaces/wifi/supplicant/aidl/android.hardware.wifi.supplicant-V1-ndk-source/gen/include/aidl/android/hardware/wifi/supplicant/ISupplicantStaIface.h"
  },
  {
   "access" : "protected",
   "function_name" : "aidl::android::hardware::wifi::supplicant::BnSupplicantCallback::createBinder",
   "linker_set_key" : "_ZN4aidl7android8hardware4wifi10supplicant20BnSupplicantCallback12createBinderEv",
   "parameters" :
   [
    {
     "is_this_ptr" : true,
     "referenced_type" : "_ZTIPN4aidl7android8hardware4wifi10supplicant20BnSupplicantCallbackE"
    }
   ],
   "return_type" : "_ZTIN3ndk10SpAIBinderE",
   "source_file" : "out/soong/.intermediates/hardware/interfaces/wifi/supplicant/aidl/android.hardware.wifi.supplicant-V1-ndk-source/gen/include/aidl/android/hardware/wifi/supplicant/BnSupplicantCallback.h"
  },
  {
   "function_name" : "aidl::android::hardware::wifi::supplicant::BnSupplicantCallback::getInterfaceHash",
   "linker_set_key" : "_ZN4aidl7android8hardware4wifi10supplicant20BnSupplicantCallback16getInterfaceHashEPNSt3__112basic_stringIcNS5_11char_traitsIcEENS5_9allocatorIcEEEE",
   "parameters" :
   [
    {
     "is_this_ptr" : true,
     "referenced_type" : "_ZTIPN4aidl7android8hardware4wifi10supplicant20BnSupplicantCallbackE"
    },
    {
     "referenced_type" : "_ZTIPNSt3__112basic_stringIcNS_11char_traitsIcEENS_9allocatorIcEEEE"
    }
   ],
   "return_type" : "_ZTIN3ndk13ScopedAStatusE",
   "source_file" : "out/soong/.intermediates/hardware/interfaces/wifi/supplicant/aidl/android.hardware.wifi.supplicant-V1-ndk-source/gen/include/aidl/android/hardware/wifi/supplicant/BnSupplicantCallback.h"
  },
  {
   "function_name" : "aidl::android::hardware::wifi::supplicant::BnSupplicantCallback::getInterfaceVersion",
   "linker_set_key" : "_ZN4aidl7android8hardware4wifi10supplicant20BnSupplicantCallback19getInterfaceVersionEPi",
   "parameters" :
   [
    {
     "is_this_ptr" : true,
     "referenced_type" : "_ZTIPN4aidl7android8hardware4wifi10supplicant20BnSupplicantCallbackE"
    },
    {
     "referenced_type" : "_ZTIPi"
    }
   ],
   "return_type" : "_ZTIN3ndk13ScopedAStatusE",
   "source_file" : "out/soong/.intermediates/hardware/interfaces/wifi/supplicant/aidl/android.hardware.wifi.supplicant-V1-ndk-source/gen/include/aidl/android/hardware/wifi/supplicant/BnSupplicantCallback.h"
  },
  {
   "function_name" : "aidl::android::hardware::wifi::supplicant::BnSupplicantCallback::BnSupplicantCallback",
   "linker_set_key" : "_ZN4aidl7android8hardware4wifi10supplicant20BnSupplicantCallbackC2Ev",
   "parameters" :
   [
    {
     "is_this_ptr" : true,
     "referenced_type" : "_ZTIPN4aidl7android8hardware4wifi10supplicant20BnSupplicantCallbackE"
    }
   ],
   "return_type" : "_ZTIv",
   "source_file" : "out/soong/.intermediates/hardware/interfaces/wifi/supplicant/aidl/android.hardware.wifi.supplicant-V1-ndk-source/gen/include/aidl/android/hardware/wifi/supplicant/BnSupplicantCallback.h"
  },
  {
   "function_name" : "aidl::android::hardware::wifi::supplicant::BnSupplicantCallback::~BnSupplicantCallback",
   "linker_set_key" : "_ZN4aidl7android8hardware4wifi10supplicant20BnSupplicantCallbackD0Ev",
   "parameters" :
   [
    {
     "is_this_ptr" : true,
     "referenced_type" : "_ZTIPN4aidl7android8hardware4wifi10supplicant20BnSupplicantCallbackE"
    }
   ],
   "return_type" : "_ZTIv",
   "source_file" : "out/soong/.intermediates/hardware/interfaces/wifi/supplicant/aidl/android.hardware.wifi.supplicant-V1-ndk-source/gen/include/aidl/android/hardware/wifi/supplicant/BnSupplicantCallback.h"
  },
  {
   "function_name" : "aidl::android::hardware::wifi::supplicant::BnSupplicantCallback::~BnSupplicantCallback",
   "linker_set_key" : "_ZN4aidl7android8hardware4wifi10supplicant20BnSupplicantCallbackD1Ev",
   "parameters" :
   [
    {
     "is_this_ptr" : true,
     "referenced_type" : "_ZTIPN4aidl7android8hardware4wifi10supplicant20BnSupplicantCallbackE"
    }
   ],
   "return_type" : "_ZTIv",
   "source_file" : "out/soong/.intermediates/hardware/interfaces/wifi/supplicant/aidl/android.hardware.wifi.supplicant-V1-ndk-source/gen/include/aidl/android/hardware/wifi/supplicant/BnSupplicantCallback.h"
  },
  {
   "function_name" : "aidl::android::hardware::wifi::supplicant::BnSupplicantCallback::~BnSupplicantCallback",
   "linker_set_key" : "_ZN4aidl7android8hardware4wifi10supplicant20BnSupplicantCallbackD2Ev",
   "parameters" :
   [
    {
     "is_this_ptr" : true,
     "referenced_type" : "_ZTIPN4aidl7android8hardware4wifi10supplicant20BnSupplicantCallbackE"
    }
   ],
   "return_type" : "_ZTIv",
   "source_file" : "out/soong/.intermediates/hardware/interfaces/wifi/supplicant/aidl/android.hardware.wifi.supplicant-V1-ndk-source/gen/include/aidl/android/hardware/wifi/supplicant/BnSupplicantCallback.h"
  },
  {
   "access" : "protected",
   "function_name" : "aidl::android::hardware::wifi::supplicant::BnSupplicantP2pIface::createBinder",
   "linker_set_key" : "_ZN4aidl7android8hardware4wifi10supplicant20BnSupplicantP2pIface12createBinderEv",
   "parameters" :
   [
    {
     "is_this_ptr" : true,
     "referenced_type" : "_ZTIPN4aidl7android8hardware4wifi10supplicant20BnSupplicantP2pIfaceE"
    }
   ],
   "return_type" : "_ZTIN3ndk10SpAIBinderE",
   "source_file" : "out/soong/.intermediates/hardware/interfaces/wifi/supplicant/aidl/android.hardware.wifi.supplicant-V1-ndk-source/gen/include/aidl/android/hardware/wifi/supplicant/BnSupplicantP2pIface.h"
  },
  {
   "function_name" : "aidl::android::hardware::wifi::supplicant::BnSupplicantP2pIface::getInterfaceHash",
   "linker_set_key" : "_ZN4aidl7android8hardware4wifi10supplicant20BnSupplicantP2pIface16getInterfaceHashEPNSt3__112basic_stringIcNS5_11char_traitsIcEENS5_9allocatorIcEEEE",
   "parameters" :
   [
    {
     "is_this_ptr" : true,
     "referenced_type" : "_ZTIPN4aidl7android8hardware4wifi10supplicant20BnSupplicantP2pIfaceE"
    },
    {
     "referenced_type" : "_ZTIPNSt3__112basic_stringIcNS_11char_traitsIcEENS_9allocatorIcEEEE"
    }
   ],
   "return_type" : "_ZTIN3ndk13ScopedAStatusE",
   "source_file" : "out/soong/.intermediates/hardware/interfaces/wifi/supplicant/aidl/android.hardware.wifi.supplicant-V1-ndk-source/gen/include/aidl/android/hardware/wifi/supplicant/BnSupplicantP2pIface.h"
  },
  {
   "function_name" : "aidl::android::hardware::wifi::supplicant::BnSupplicantP2pIface::getInterfaceVersion",
   "linker_set_key" : "_ZN4aidl7android8hardware4wifi10supplicant20BnSupplicantP2pIface19getInterfaceVersionEPi",
   "parameters" :
   [
    {
     "is_this_ptr" : true,
     "referenced_type" : "_ZTIPN4aidl7android8hardware4wifi10supplicant20BnSupplicantP2pIfaceE"
    },
    {
     "referenced_type" : "_ZTIPi"
    }
   ],
   "return_type" : "_ZTIN3ndk13ScopedAStatusE",
   "source_file" : "out/soong/.intermediates/hardware/interfaces/wifi/supplicant/aidl/android.hardware.wifi.supplicant-V1-ndk-source/gen/include/aidl/android/hardware/wifi/supplicant/BnSupplicantP2pIface.h"
  },
  {
   "function_name" : "aidl::android::hardware::wifi::supplicant::BnSupplicantP2pIface::BnSupplicantP2pIface",
   "linker_set_key" : "_ZN4aidl7android8hardware4wifi10supplicant20BnSupplicantP2pIfaceC2Ev",
   "parameters" :
   [
    {
     "is_this_ptr" : true,
     "referenced_type" : "_ZTIPN4aidl7android8hardware4wifi10supplicant20BnSupplicantP2pIfaceE"
    }
   ],
   "return_type" : "_ZTIv",
   "source_file" : "out/soong/.intermediates/hardware/interfaces/wifi/supplicant/aidl/android.hardware.wifi.supplicant-V1-ndk-source/gen/include/aidl/android/hardware/wifi/supplicant/BnSupplicantP2pIface.h"
  },
  {
   "function_name" : "aidl::android::hardware::wifi::supplicant::BnSupplicantP2pIface::~BnSupplicantP2pIface",
   "linker_set_key" : "_ZN4aidl7android8hardware4wifi10supplicant20BnSupplicantP2pIfaceD0Ev",
   "parameters" :
   [
    {
     "is_this_ptr" : true,
     "referenced_type" : "_ZTIPN4aidl7android8hardware4wifi10supplicant20BnSupplicantP2pIfaceE"
    }
   ],
   "return_type" : "_ZTIv",
   "source_file" : "out/soong/.intermediates/hardware/interfaces/wifi/supplicant/aidl/android.hardware.wifi.supplicant-V1-ndk-source/gen/include/aidl/android/hardware/wifi/supplicant/BnSupplicantP2pIface.h"
  },
  {
   "function_name" : "aidl::android::hardware::wifi::supplicant::BnSupplicantP2pIface::~BnSupplicantP2pIface",
   "linker_set_key" : "_ZN4aidl7android8hardware4wifi10supplicant20BnSupplicantP2pIfaceD1Ev",
   "parameters" :
   [
    {
     "is_this_ptr" : true,
     "referenced_type" : "_ZTIPN4aidl7android8hardware4wifi10supplicant20BnSupplicantP2pIfaceE"
    }
   ],
   "return_type" : "_ZTIv",
   "source_file" : "out/soong/.intermediates/hardware/interfaces/wifi/supplicant/aidl/android.hardware.wifi.supplicant-V1-ndk-source/gen/include/aidl/android/hardware/wifi/supplicant/BnSupplicantP2pIface.h"
  },
  {
   "function_name" : "aidl::android::hardware::wifi::supplicant::BnSupplicantP2pIface::~BnSupplicantP2pIface",
   "linker_set_key" : "_ZN4aidl7android8hardware4wifi10supplicant20BnSupplicantP2pIfaceD2Ev",
   "parameters" :
   [
    {
     "is_this_ptr" : true,
     "referenced_type" : "_ZTIPN4aidl7android8hardware4wifi10supplicant20BnSupplicantP2pIfaceE"
    }
   ],
   "return_type" : "_ZTIv",
   "source_file" : "out/soong/.intermediates/hardware/interfaces/wifi/supplicant/aidl/android.hardware.wifi.supplicant-V1-ndk-source/gen/include/aidl/android/hardware/wifi/supplicant/BnSupplicantP2pIface.h"
  },
  {
   "access" : "protected",
   "function_name" : "aidl::android::hardware::wifi::supplicant::BnSupplicantStaIface::createBinder",
   "linker_set_key" : "_ZN4aidl7android8hardware4wifi10supplicant20BnSupplicantStaIface12createBinderEv",
   "parameters" :
   [
    {
     "is_this_ptr" : true,
     "referenced_type" : "_ZTIPN4aidl7android8hardware4wifi10supplicant20BnSupplicantStaIfaceE"
    }
   ],
   "return_type" : "_ZTIN3ndk10SpAIBinderE",
   "source_file" : "out/soong/.intermediates/hardware/interfaces/wifi/supplicant/aidl/android.hardware.wifi.supplicant-V1-ndk-source/gen/include/aidl/android/hardware/wifi/supplicant/BnSupplicantStaIface.h"
  },
  {
   "function_name" : "aidl::android::hardware::wifi::supplicant::BnSupplicantStaIface::getInterfaceHash",
   "linker_set_key" : "_ZN4aidl7android8hardware4wifi10supplicant20BnSupplicantStaIface16getInterfaceHashEPNSt3__112basic_stringIcNS5_11char_traitsIcEENS5_9allocatorIcEEEE",
   "parameters" :
   [
    {
     "is_this_ptr" : true,
     "referenced_type" : "_ZTIPN4aidl7android8hardware4wifi10supplicant20BnSupplicantStaIfaceE"
    },
    {
     "referenced_type" : "_ZTIPNSt3__112basic_stringIcNS_11char_traitsIcEENS_9allocatorIcEEEE"
    }
   ],
   "return_type" : "_ZTIN3ndk13ScopedAStatusE",
   "source_file" : "out/soong/.intermediates/hardware/interfaces/wifi/supplicant/aidl/android.hardware.wifi.supplicant-V1-ndk-source/gen/include/aidl/android/hardware/wifi/supplicant/BnSupplicantStaIface.h"
  },
  {
   "function_name" : "aidl::android::hardware::wifi::supplicant::BnSupplicantStaIface::getInterfaceVersion",
   "linker_set_key" : "_ZN4aidl7android8hardware4wifi10supplicant20BnSupplicantStaIface19getInterfaceVersionEPi",
   "parameters" :
   [
    {
     "is_this_ptr" : true,
     "referenced_type" : "_ZTIPN4aidl7android8hardware4wifi10supplicant20BnSupplicantStaIfaceE"
    },
    {
     "referenced_type" : "_ZTIPi"
    }
   ],
   "return_type" : "_ZTIN3ndk13ScopedAStatusE",
   "source_file" : "out/soong/.intermediates/hardware/interfaces/wifi/supplicant/aidl/android.hardware.wifi.supplicant-V1-ndk-source/gen/include/aidl/android/hardware/wifi/supplicant/BnSupplicantStaIface.h"
  },
  {
   "function_name" : "aidl::android::hardware::wifi::supplicant::BnSupplicantStaIface::BnSupplicantStaIface",
   "linker_set_key" : "_ZN4aidl7android8hardware4wifi10supplicant20BnSupplicantStaIfaceC2Ev",
   "parameters" :
   [
    {
     "is_this_ptr" : true,
     "referenced_type" : "_ZTIPN4aidl7android8hardware4wifi10supplicant20BnSupplicantStaIfaceE"
    }
   ],
   "return_type" : "_ZTIv",
   "source_file" : "out/soong/.intermediates/hardware/interfaces/wifi/supplicant/aidl/android.hardware.wifi.supplicant-V1-ndk-source/gen/include/aidl/android/hardware/wifi/supplicant/BnSupplicantStaIface.h"
  },
  {
   "function_name" : "aidl::android::hardware::wifi::supplicant::BnSupplicantStaIface::~BnSupplicantStaIface",
   "linker_set_key" : "_ZN4aidl7android8hardware4wifi10supplicant20BnSupplicantStaIfaceD0Ev",
   "parameters" :
   [
    {
     "is_this_ptr" : true,
     "referenced_type" : "_ZTIPN4aidl7android8hardware4wifi10supplicant20BnSupplicantStaIfaceE"
    }
   ],
   "return_type" : "_ZTIv",
   "source_file" : "out/soong/.intermediates/hardware/interfaces/wifi/supplicant/aidl/android.hardware.wifi.supplicant-V1-ndk-source/gen/include/aidl/android/hardware/wifi/supplicant/BnSupplicantStaIface.h"
  },
  {
   "function_name" : "aidl::android::hardware::wifi::supplicant::BnSupplicantStaIface::~BnSupplicantStaIface",
   "linker_set_key" : "_ZN4aidl7android8hardware4wifi10supplicant20BnSupplicantStaIfaceD1Ev",
   "parameters" :
   [
    {
     "is_this_ptr" : true,
     "referenced_type" : "_ZTIPN4aidl7android8hardware4wifi10supplicant20BnSupplicantStaIfaceE"
    }
   ],
   "return_type" : "_ZTIv",
   "source_file" : "out/soong/.intermediates/hardware/interfaces/wifi/supplicant/aidl/android.hardware.wifi.supplicant-V1-ndk-source/gen/include/aidl/android/hardware/wifi/supplicant/BnSupplicantStaIface.h"
  },
  {
   "function_name" : "aidl::android::hardware::wifi::supplicant::BnSupplicantStaIface::~BnSupplicantStaIface",
   "linker_set_key" : "_ZN4aidl7android8hardware4wifi10supplicant20BnSupplicantStaIfaceD2Ev",
   "parameters" :
   [
    {
     "is_this_ptr" : true,
     "referenced_type" : "_ZTIPN4aidl7android8hardware4wifi10supplicant20BnSupplicantStaIfaceE"
    }
   ],
   "return_type" : "_ZTIv",
   "source_file" : "out/soong/.intermediates/hardware/interfaces/wifi/supplicant/aidl/android.hardware.wifi.supplicant-V1-ndk-source/gen/include/aidl/android/hardware/wifi/supplicant/BnSupplicantStaIface.h"
  },
  {
   "function_name" : "aidl::android::hardware::wifi::supplicant::BpSupplicantCallback::getInterfaceHash",
   "linker_set_key" : "_ZN4aidl7android8hardware4wifi10supplicant20BpSupplicantCallback16getInterfaceHashEPNSt3__112basic_stringIcNS5_11char_traitsIcEENS5_9allocatorIcEEEE",
   "parameters" :
   [
    {
     "is_this_ptr" : true,
     "referenced_type" : "_ZTIPN4aidl7android8hardware4wifi10supplicant20BpSupplicantCallbackE"
    },
    {
     "referenced_type" : "_ZTIPNSt3__112basic_stringIcNS_11char_traitsIcEENS_9allocatorIcEEEE"
    }
   ],
   "return_type" : "_ZTIN3ndk13ScopedAStatusE",
   "source_file" : "out/soong/.intermediates/hardware/interfaces/wifi/supplicant/aidl/android.hardware.wifi.supplicant-V1-ndk-source/gen/include/aidl/android/hardware/wifi/supplicant/BpSupplicantCallback.h"
  },
  {
   "function_name" : "aidl::android::hardware::wifi::supplicant::BpSupplicantCallback::onInterfaceCreated",
   "linker_set_key" : "_ZN4aidl7android8hardware4wifi10supplicant20BpSupplicantCallback18onInterfaceCreatedERKNSt3__112basic_stringIcNS5_11char_traitsIcEENS5_9allocatorIcEEEE",
   "parameters" :
   [
    {
     "is_this_ptr" : true,
     "referenced_type" : "_ZTIPN4aidl7android8hardware4wifi10supplicant20BpSupplicantCallbackE"
    },
    {
     "referenced_type" : "_ZTIRKNSt3__112basic_stringIcNS_11char_traitsIcEENS_9allocatorIcEEEE"
    }
   ],
   "return_type" : "_ZTIN3ndk13ScopedAStatusE",
   "source_file" : "out/soong/.intermediates/hardware/interfaces/wifi/supplicant/aidl/android.hardware.wifi.supplicant-V1-ndk-source/gen/include/aidl/android/hardware/wifi/supplicant/BpSupplicantCallback.h"
  },
  {
   "function_name" : "aidl::android::hardware::wifi::supplicant::BpSupplicantCallback::onInterfaceRemoved",
   "linker_set_key" : "_ZN4aidl7android8hardware4wifi10supplicant20BpSupplicantCallback18onInterfaceRemovedERKNSt3__112basic_stringIcNS5_11char_traitsIcEENS5_9allocatorIcEEEE",
   "parameters" :
   [
    {
     "is_this_ptr" : true,
     "referenced_type" : "_ZTIPN4aidl7android8hardware4wifi10supplicant20BpSupplicantCallbackE"
    },
    {
     "referenced_type" : "_ZTIRKNSt3__112basic_stringIcNS_11char_traitsIcEENS_9allocatorIcEEEE"
    }
   ],
   "return_type" : "_ZTIN3ndk13ScopedAStatusE",
   "source_file" : "out/soong/.intermediates/hardware/interfaces/wifi/supplicant/aidl/android.hardware.wifi.supplicant-V1-ndk-source/gen/include/aidl/android/hardware/wifi/supplicant/BpSupplicantCallback.h"
  },
  {
   "function_name" : "aidl::android::hardware::wifi::supplicant::BpSupplicantCallback::getInterfaceVersion",
   "linker_set_key" : "_ZN4aidl7android8hardware4wifi10supplicant20BpSupplicantCallback19getInterfaceVersionEPi",
   "parameters" :
   [
    {
     "is_this_ptr" : true,
     "referenced_type" : "_ZTIPN4aidl7android8hardware4wifi10supplicant20BpSupplicantCallbackE"
    },
    {
     "referenced_type" : "_ZTIPi"
    }
   ],
   "return_type" : "_ZTIN3ndk13ScopedAStatusE",
   "source_file" : "out/soong/.intermediates/hardware/interfaces/wifi/supplicant/aidl/android.hardware.wifi.supplicant-V1-ndk-source/gen/include/aidl/android/hardware/wifi/supplicant/BpSupplicantCallback.h"
  },
  {
   "function_name" : "aidl::android::hardware::wifi::supplicant::BpSupplicantCallback::BpSupplicantCallback",
   "linker_set_key" : "_ZN4aidl7android8hardware4wifi10supplicant20BpSupplicantCallbackC1ERKN3ndk10SpAIBinderE",
   "parameters" :
   [
    {
     "is_this_ptr" : true,
     "referenced_type" : "_ZTIPN4aidl7android8hardware4wifi10supplicant20BpSupplicantCallbackE"
    },
    {
     "referenced_type" : "_ZTIRKN3ndk10SpAIBinderE"
    }
   ],
   "return_type" : "_ZTIv",
   "source_file" : "out/soong/.intermediates/hardware/interfaces/wifi/supplicant/aidl/android.hardware.wifi.supplicant-V1-ndk-source/gen/include/aidl/android/hardware/wifi/supplicant/BpSupplicantCallback.h"
  },
  {
   "function_name" : "aidl::android::hardware::wifi::supplicant::BpSupplicantCallback::BpSupplicantCallback",
   "linker_set_key" : "_ZN4aidl7android8hardware4wifi10supplicant20BpSupplicantCallbackC2ERKN3ndk10SpAIBinderE",
   "parameters" :
   [
    {
     "is_this_ptr" : true,
     "referenced_type" : "_ZTIPN4aidl7android8hardware4wifi10supplicant20BpSupplicantCallbackE"
    },
    {
     "referenced_type" : "_ZTIRKN3ndk10SpAIBinderE"
    }
   ],
   "return_type" : "_ZTIv",
   "source_file" : "out/soong/.intermediates/hardware/interfaces/wifi/supplicant/aidl/android.hardware.wifi.supplicant-V1-ndk-source/gen/include/aidl/android/hardware/wifi/supplicant/BpSupplicantCallback.h"
  },
  {
   "function_name" : "aidl::android::hardware::wifi::supplicant::BpSupplicantCallback::~BpSupplicantCallback",
   "linker_set_key" : "_ZN4aidl7android8hardware4wifi10supplicant20BpSupplicantCallbackD0Ev",
   "parameters" :
   [
    {
     "is_this_ptr" : true,
     "referenced_type" : "_ZTIPN4aidl7android8hardware4wifi10supplicant20BpSupplicantCallbackE"
    }
   ],
   "return_type" : "_ZTIv",
   "source_file" : "out/soong/.intermediates/hardware/interfaces/wifi/supplicant/aidl/android.hardware.wifi.supplicant-V1-ndk-source/gen/include/aidl/android/hardware/wifi/supplicant/BpSupplicantCallback.h"
  },
  {
   "function_name" : "aidl::android::hardware::wifi::supplicant::BpSupplicantCallback::~BpSupplicantCallback",
   "linker_set_key" : "_ZN4aidl7android8hardware4wifi10supplicant20BpSupplicantCallbackD1Ev",
   "parameters" :
   [
    {
     "is_this_ptr" : true,
     "referenced_type" : "_ZTIPN4aidl7android8hardware4wifi10supplicant20BpSupplicantCallbackE"
    }
   ],
   "return_type" : "_ZTIv",
   "source_file" : "out/soong/.intermediates/hardware/interfaces/wifi/supplicant/aidl/android.hardware.wifi.supplicant-V1-ndk-source/gen/include/aidl/android/hardware/wifi/supplicant/BpSupplicantCallback.h"
  },
  {
   "function_name" : "aidl::android::hardware::wifi::supplicant::BpSupplicantCallback::~BpSupplicantCallback",
   "linker_set_key" : "_ZN4aidl7android8hardware4wifi10supplicant20BpSupplicantCallbackD2Ev",
   "parameters" :
   [
    {
     "is_this_ptr" : true,
     "referenced_type" : "_ZTIPN4aidl7android8hardware4wifi10supplicant20BpSupplicantCallbackE"
    }
   ],
   "return_type" : "_ZTIv",
   "source_file" : "out/soong/.intermediates/hardware/interfaces/wifi/supplicant/aidl/android.hardware.wifi.supplicant-V1-ndk-source/gen/include/aidl/android/hardware/wifi/supplicant/BpSupplicantCallback.h"
  },
  {
   "function_name" : "aidl::android::hardware::wifi::supplicant::BpSupplicantP2pIface::addNetwork",
   "linker_set_key" : "_ZN4aidl7android8hardware4wifi10supplicant20BpSupplicantP2pIface10addNetworkEPNSt3__110shared_ptrINS3_21ISupplicantP2pNetworkEEE",
   "parameters" :
   [
    {
     "is_this_ptr" : true,
     "referenced_type" : "_ZTIPN4aidl7android8hardware4wifi10supplicant20BpSupplicantP2pIfaceE"
    },
    {
     "referenced_type" : "_ZTIPNSt3__110shared_ptrIN4aidl7android8hardware4wifi10supplicant21ISupplicantP2pNetworkEEE"
    }
   ],
   "return_type" : "_ZTIN3ndk13ScopedAStatusE",
   "source_file" : "out/soong/.intermediates/hardware/interfaces/wifi/supplicant/aidl/android.hardware.wifi.supplicant-V1-ndk-source/gen/include/aidl/android/hardware/wifi/supplicant/BpSupplicantP2pIface.h"
  },
  {
   "function_name" : "aidl::android::hardware::wifi::supplicant::BpSupplicantP2pIface::getNetwork",
   "linker_set_key" : "_ZN4aidl7android8hardware4wifi10supplicant20BpSupplicantP2pIface10getNetworkEiPNSt3__110shared_ptrINS3_21ISupplicantP2pNetworkEEE",
   "parameters" :
   [
    {
     "is_this_ptr" : true,
     "referenced_type" : "_ZTIPN4aidl7android8hardware4wifi10supplicant20BpSupplicantP2pIfaceE"
    },
    {
     "referenced_type" : "_ZTIi"
    },
    {
     "referenced_type" : "_ZTIPNSt3__110shared_ptrIN4aidl7android8hardware4wifi10supplicant21ISupplicantP2pNetworkEEE"
    }
   ],
   "return_type" : "_ZTIN3ndk13ScopedAStatusE",
   "source_file" : "out/soong/.intermediates/hardware/interfaces/wifi/supplicant/aidl/android.hardware.wifi.supplicant-V1-ndk-source/gen/include/aidl/android/hardware/wifi/supplicant/BpSupplicantP2pIface.h"
  },
  {
   "function_name" : "aidl::android::hardware::wifi::supplicant::BpSupplicantP2pIface::saveConfig",
   "linker_set_key" : "_ZN4aidl7android8hardware4wifi10supplicant20BpSupplicantP2pIface10saveConfigEv",
   "parameters" :
   [
    {
     "is_this_ptr" : true,
     "referenced_type" : "_ZTIPN4aidl7android8hardware4wifi10supplicant20BpSupplicantP2pIfaceE"
    }
   ],
   "return_type" : "_ZTIN3ndk13ScopedAStatusE",
   "source_file" : "out/soong/.intermediates/hardware/interfaces/wifi/supplicant/aidl/android.hardware.wifi.supplicant-V1-ndk-source/gen/include/aidl/android/hardware/wifi/supplicant/BpSupplicantP2pIface.h"
  },
  {
   "function_name" : "aidl::android::hardware::wifi::supplicant::BpSupplicantP2pIface::removeGroup",
   "linker_set_key" : "_ZN4aidl7android8hardware4wifi10supplicant20BpSupplicantP2pIface11removeGroupERKNSt3__112basic_stringIcNS5_11char_traitsIcEENS5_9allocatorIcEEEE",
   "parameters" :
   [
    {
     "is_this_ptr" : true,
     "referenced_type" : "_ZTIPN4aidl7android8hardware4wifi10supplicant20BpSupplicantP2pIfaceE"
    },
    {
     "referenced_type" : "_ZTIRKNSt3__112basic_stringIcNS_11char_traitsIcEENS_9allocatorIcEEEE"
    }
   ],
   "return_type" : "_ZTIN3ndk13ScopedAStatusE",
   "source_file" : "out/soong/.intermediates/hardware/interfaces/wifi/supplicant/aidl/android.hardware.wifi.supplicant-V1-ndk-source/gen/include/aidl/android/hardware/wifi/supplicant/BpSupplicantP2pIface.h"
  },
  {
   "function_name" : "aidl::android::hardware::wifi::supplicant::BpSupplicantP2pIface::startWpsPbc",
   "linker_set_key" : "_ZN4aidl7android8hardware4wifi10supplicant20BpSupplicantP2pIface11startWpsPbcERKNSt3__112basic_stringIcNS5_11char_traitsIcEENS5_9allocatorIcEEEERKNS5_6vectorIhNS9_IhEEEE",
   "parameters" :
   [
    {
     "is_this_ptr" : true,
     "referenced_type" : "_ZTIPN4aidl7android8hardware4wifi10supplicant20BpSupplicantP2pIfaceE"
    },
    {
     "referenced_type" : "_ZTIRKNSt3__112basic_stringIcNS_11char_traitsIcEENS_9allocatorIcEEEE"
    },
    {
     "referenced_type" : "_ZTIRKNSt3__16vectorIhNS_9allocatorIhEEEE"
    }
   ],
   "return_type" : "_ZTIN3ndk13ScopedAStatusE",
   "source_file" : "out/soong/.intermediates/hardware/interfaces/wifi/supplicant/aidl/android.hardware.wifi.supplicant-V1-ndk-source/gen/include/aidl/android/hardware/wifi/supplicant/BpSupplicantP2pIface.h"
  },
  {
   "function_name" : "aidl::android::hardware::wifi::supplicant::BpSupplicantP2pIface::listNetworks",
   "linker_set_key" : "_ZN4aidl7android8hardware4wifi10supplicant20BpSupplicantP2pIface12listNetworksEPNSt3__16vectorIiNS5_9allocatorIiEEEE",
   "parameters" :
   [
    {
     "is_this_ptr" : true,
     "referenced_type" : "_ZTIPN4aidl7android8hardware4wifi10supplicant20BpSupplicantP2pIfaceE"
    },
    {
     "referenced_type" : "_ZTIPNSt3__16vectorIiNS_9allocatorIiEEEE"
    }
   ],
   "return_type" : "_ZTIN3ndk13ScopedAStatusE",
   "source_file" : "out/soong/.intermediates/hardware/interfaces/wifi/supplicant/aidl/android.hardware.wifi.supplicant-V1-ndk-source/gen/include/aidl/android/hardware/wifi/supplicant/BpSupplicantP2pIface.h"
  },
  {
   "function_name" : "aidl::android::hardware::wifi::supplicant::BpSupplicantP2pIface::removeClient",
   "linker_set_key" : "_ZN4aidl7android8hardware4wifi10supplicant20BpSupplicantP2pIface12removeClientERKNSt3__16vectorIhNS5_9allocatorIhEEEEb",
   "parameters" :
   [
    {
     "is_this_ptr" : true,
     "referenced_type" : "_ZTIPN4aidl7android8hardware4wifi10supplicant20BpSupplicantP2pIfaceE"
    },
    {
     "referenced_type" : "_ZTIRKNSt3__16vectorIhNS_9allocatorIhEEEE"
    },
    {
     "referenced_type" : "_ZTIb"
    }
   ],
   "return_type" : "_ZTIN3ndk13ScopedAStatusE",
   "source_file" : "out/soong/.intermediates/hardware/interfaces/wifi/supplicant/aidl/android.hardware.wifi.supplicant-V1-ndk-source/gen/include/aidl/android/hardware/wifi/supplicant/BpSupplicantP2pIface.h"
  },
  {
   "function_name" : "aidl::android::hardware::wifi::supplicant::BpSupplicantP2pIface::setGroupIdle",
   "linker_set_key" : "_ZN4aidl7android8hardware4wifi10supplicant20BpSupplicantP2pIface12setGroupIdleERKNSt3__112basic_stringIcNS5_11char_traitsIcEENS5_9allocatorIcEEEEi",
   "parameters" :
   [
    {
     "is_this_ptr" : true,
     "referenced_type" : "_ZTIPN4aidl7android8hardware4wifi10supplicant20BpSupplicantP2pIfaceE"
    },
    {
     "referenced_type" : "_ZTIRKNSt3__112basic_stringIcNS_11char_traitsIcEENS_9allocatorIcEEEE"
    },
    {
     "referenced_type" : "_ZTIi"
    }
   ],
   "return_type" : "_ZTIN3ndk13ScopedAStatusE",
   "source_file" : "out/soong/.intermediates/hardware/interfaces/wifi/supplicant/aidl/android.hardware.wifi.supplicant-V1-ndk-source/gen/include/aidl/android/hardware/wifi/supplicant/BpSupplicantP2pIface.h"
  },
  {
   "function_name" : "aidl::android::hardware::wifi::supplicant::BpSupplicantP2pIface::setPowerSave",
   "linker_set_key" : "_ZN4aidl7android8hardware4wifi10supplicant20BpSupplicantP2pIface12setPowerSaveERKNSt3__112basic_stringIcNS5_11char_traitsIcEENS5_9allocatorIcEEEEb",
   "parameters" :
   [
    {
     "is_this_ptr" : true,
     "referenced_type" : "_ZTIPN4aidl7android8hardware4wifi10supplicant20BpSupplicantP2pIfaceE"
    },
    {
     "referenced_type" : "_ZTIRKNSt3__112basic_stringIcNS_11char_traitsIcEENS_9allocatorIcEEEE"
    },
    {
     "referenced_type" : "_ZTIb"
    }
   ],
   "return_type" : "_ZTIN3ndk13ScopedAStatusE",
   "source_file" : "out/soong/.intermediates/hardware/interfaces/wifi/supplicant/aidl/android.hardware.wifi.supplicant-V1-ndk-source/gen/include/aidl/android/hardware/wifi/supplicant/BpSupplicantP2pIface.h"
  },
  {
   "function_name" : "aidl::android::hardware::wifi::supplicant::BpSupplicantP2pIface::cancelConnect",
   "linker_set_key" : "_ZN4aidl7android8hardware4wifi10supplicant20BpSupplicantP2pIface13cancelConnectEv",
   "parameters" :
   [
    {
     "is_this_ptr" : true,
     "referenced_type" : "_ZTIPN4aidl7android8hardware4wifi10supplicant20BpSupplicantP2pIfaceE"
    }
   ],
   "return_type" : "_ZTIN3ndk13ScopedAStatusE",
   "source_file" : "out/soong/.intermediates/hardware/interfaces/wifi/supplicant/aidl/android.hardware.wifi.supplicant-V1-ndk-source/gen/include/aidl/android/hardware/wifi/supplicant/BpSupplicantP2pIface.h"
  },
  {
   "function_name" : "aidl::android::hardware::wifi::supplicant::BpSupplicantP2pIface::flushServices",
   "linker_set_key" : "_ZN4aidl7android8hardware4wifi10supplicant20BpSupplicantP2pIface13flushServicesEv",
   "parameters" :
   [
    {
     "is_this_ptr" : true,
     "referenced_type" : "_ZTIPN4aidl7android8hardware4wifi10supplicant20BpSupplicantP2pIfaceE"
    }
   ],
   "return_type" : "_ZTIN3ndk13ScopedAStatusE",
   "source_file" : "out/soong/.intermediates/hardware/interfaces/wifi/supplicant/aidl/android.hardware.wifi.supplicant-V1-ndk-source/gen/include/aidl/android/hardware/wifi/supplicant/BpSupplicantP2pIface.h"
  },
  {
   "function_name" : "aidl::android::hardware::wifi::supplicant::BpSupplicantP2pIface::removeNetwork",
   "linker_set_key" : "_ZN4aidl7android8hardware4wifi10supplicant20BpSupplicantP2pIface13removeNetworkEi",
   "parameters" :
   [
    {
     "is_this_ptr" : true,
     "referenced_type" : "_ZTIPN4aidl7android8hardware4wifi10supplicant20BpSupplicantP2pIfaceE"
    },
    {
     "referenced_type" : "_ZTIi"
    }
   ],
   "return_type" : "_ZTIN3ndk13ScopedAStatusE",
   "source_file" : "out/soong/.intermediates/hardware/interfaces/wifi/supplicant/aidl/android.hardware.wifi.supplicant-V1-ndk-source/gen/include/aidl/android/hardware/wifi/supplicant/BpSupplicantP2pIface.h"
  },
  {
   "function_name" : "aidl::android::hardware::wifi::supplicant::BpSupplicantP2pIface::addUpnpService",
   "linker_set_key" : "_ZN4aidl7android8hardware4wifi10supplicant20BpSupplicantP2pIface14addUpnpServiceEiRKNSt3__112basic_stringIcNS5_11char_traitsIcEENS5_9allocatorIcEEEE",
   "parameters" :
   [
    {
     "is_this_ptr" : true,
     "referenced_type" : "_ZTIPN4aidl7android8hardware4wifi10supplicant20BpSupplicantP2pIfaceE"
    },
    {
     "referenced_type" : "_ZTIi"
    },
    {
     "referenced_type" : "_ZTIRKNSt3__112basic_stringIcNS_11char_traitsIcEENS_9allocatorIcEEEE"
    }
   ],
   "return_type" : "_ZTIN3ndk13ScopedAStatusE",
   "source_file" : "out/soong/.intermediates/hardware/interfaces/wifi/supplicant/aidl/android.hardware.wifi.supplicant-V1-ndk-source/gen/include/aidl/android/hardware/wifi/supplicant/BpSupplicantP2pIface.h"
  },
  {
   "function_name" : "aidl::android::hardware::wifi::supplicant::BpSupplicantP2pIface::setSsidPostfix",
   "linker_set_key" : "_ZN4aidl7android8hardware4wifi10supplicant20BpSupplicantP2pIface14setSsidPostfixERKNSt3__16vectorIhNS5_9allocatorIhEEEE",
   "parameters" :
   [
    {
     "is_this_ptr" : true,
     "referenced_type" : "_ZTIPN4aidl7android8hardware4wifi10supplicant20BpSupplicantP2pIfaceE"
    },
    {
     "referenced_type" : "_ZTIRKNSt3__16vectorIhNS_9allocatorIhEEEE"
    }
   ],
   "return_type" : "_ZTIN3ndk13ScopedAStatusE",
   "source_file" : "out/soong/.intermediates/hardware/interfaces/wifi/supplicant/aidl/android.hardware.wifi.supplicant-V1-ndk-source/gen/include/aidl/android/hardware/wifi/supplicant/BpSupplicantP2pIface.h"
  },
  {
   "function_name" : "aidl::android::hardware::wifi::supplicant::BpSupplicantP2pIface::setMiracastMode",
   "linker_set_key" : "_ZN4aidl7android8hardware4wifi10supplicant20BpSupplicantP2pIface15setMiracastModeENS3_12MiracastModeE",
   "parameters" :
   [
    {
     "is_this_ptr" : true,
     "referenced_type" : "_ZTIPN4aidl7android8hardware4wifi10supplicant20BpSupplicantP2pIfaceE"
    },
    {
     "referenced_type" : "_ZTIN4aidl7android8hardware4wifi10supplicant12MiracastModeE"
    }
   ],
   "return_type" : "_ZTIN3ndk13ScopedAStatusE",
   "source_file" : "out/soong/.intermediates/hardware/interfaces/wifi/supplicant/aidl/android.hardware.wifi.supplicant-V1-ndk-source/gen/include/aidl/android/hardware/wifi/supplicant/BpSupplicantP2pIface.h"
  },
  {
   "function_name" : "aidl::android::hardware::wifi::supplicant::BpSupplicantP2pIface::setWpsModelName",
   "linker_set_key" : "_ZN4aidl7android8hardware4wifi10supplicant20BpSupplicantP2pIface15setWpsModelNameERKNSt3__112basic_stringIcNS5_11char_traitsIcEENS5_9allocatorIcEEEE",
   "parameters" :
   [
    {
     "is_this_ptr" : true,
     "referenced_type" : "_ZTIPN4aidl7android8hardware4wifi10supplicant20BpSupplicantP2pIfaceE"
    },
    {
     "referenced_type" : "_ZTIRKNSt3__112basic_stringIcNS_11char_traitsIcEENS_9allocatorIcEEEE"
    }
   ],
   "return_type" : "_ZTIN3ndk13ScopedAStatusE",
   "source_file" : "out/soong/.intermediates/hardware/interfaces/wifi/supplicant/aidl/android.hardware.wifi.supplicant-V1-ndk-source/gen/include/aidl/android/hardware/wifi/supplicant/BpSupplicantP2pIface.h"
  },
  {
   "function_name" : "aidl::android::hardware::wifi::supplicant::BpSupplicantP2pIface::getDeviceAddress",
   "linker_set_key" : "_ZN4aidl7android8hardware4wifi10supplicant20BpSupplicantP2pIface16getDeviceAddressEPNSt3__16vectorIhNS5_9allocatorIhEEEE",
   "parameters" :
   [
    {
     "is_this_ptr" : true,
     "referenced_type" : "_ZTIPN4aidl7android8hardware4wifi10supplicant20BpSupplicantP2pIfaceE"
    },
    {
     "referenced_type" : "_ZTIPNSt3__16vectorIhNS_9allocatorIhEEEE"
    }
   ],
   "return_type" : "_ZTIN3ndk13ScopedAStatusE",
   "source_file" : "out/soong/.intermediates/hardware/interfaces/wifi/supplicant/aidl/android.hardware.wifi.supplicant-V1-ndk-source/gen/include/aidl/android/hardware/wifi/supplicant/BpSupplicantP2pIface.h"
  },
  {
   "function_name" : "aidl::android::hardware::wifi::supplicant::BpSupplicantP2pIface::getInterfaceHash",
   "linker_set_key" : "_ZN4aidl7android8hardware4wifi10supplicant20BpSupplicantP2pIface16getInterfaceHashEPNSt3__112basic_stringIcNS5_11char_traitsIcEENS5_9allocatorIcEEEE",
   "parameters" :
   [
    {
     "is_this_ptr" : true,
     "referenced_type" : "_ZTIPN4aidl7android8hardware4wifi10supplicant20BpSupplicantP2pIfaceE"
    },
    {
     "referenced_type" : "_ZTIPNSt3__112basic_stringIcNS_11char_traitsIcEENS_9allocatorIcEEEE"
    }
   ],
   "return_type" : "_ZTIN3ndk13ScopedAStatusE",
   "source_file" : "out/soong/.intermediates/hardware/interfaces/wifi/supplicant/aidl/android.hardware.wifi.supplicant-V1-ndk-source/gen/include/aidl/android/hardware/wifi/supplicant/BpSupplicantP2pIface.h"
  },
  {
   "function_name" : "aidl::android::hardware::wifi::supplicant::BpSupplicantP2pIface::registerCallback",
   "linker_set_key" : "_ZN4aidl7android8hardware4wifi10supplicant20BpSupplicantP2pIface16registerCallbackERKNSt3__110shared_ptrINS3_27ISupplicantP2pIfaceCallbackEEE",
   "parameters" :
   [
    {
     "is_this_ptr" : true,
     "referenced_type" : "_ZTIPN4aidl7android8hardware4wifi10supplicant20BpSupplicantP2pIfaceE"
    },
    {
     "referenced_type" : "_ZTIRKNSt3__110shared_ptrIN4aidl7android8hardware4wifi10supplicant27ISupplicantP2pIfaceCallbackEEE"
    }
   ],
   "return_type" : "_ZTIN3ndk13ScopedAStatusE",
   "source_file" : "out/soong/.intermediates/hardware/interfaces/wifi/supplicant/aidl/android.hardware.wifi.supplicant-V1-ndk-source/gen/include/aidl/android/hardware/wifi/supplicant/BpSupplicantP2pIface.h"
  },
  {
   "function_name" : "aidl::android::hardware::wifi::supplicant::BpSupplicantP2pIface::setListenChannel",
   "linker_set_key" : "_ZN4aidl7android8hardware4wifi10supplicant20BpSupplicantP2pIface16setListenChannelEii",
   "parameters" :
   [
    {
     "is_this_ptr" : true,
     "referenced_type" : "_ZTIPN4aidl7android8hardware4wifi10supplicant20BpSupplicantP2pIfaceE"
    },
    {
     "referenced_type" : "_ZTIi"
    },
    {
     "referenced_type" : "_ZTIi"
    }
   ],
   "return_type" : "_ZTIN3ndk13ScopedAStatusE",
   "source_file" : "out/soong/.intermediates/hardware/interfaces/wifi/supplicant/aidl/android.hardware.wifi.supplicant-V1-ndk-source/gen/include/aidl/android/hardware/wifi/supplicant/BpSupplicantP2pIface.h"
  },
  {
   "function_name" : "aidl::android::hardware::wifi::supplicant::BpSupplicantP2pIface::setWfdDeviceInfo",
   "linker_set_key" : "_ZN4aidl7android8hardware4wifi10supplicant20BpSupplicantP2pIface16setWfdDeviceInfoERKNSt3__16vectorIhNS5_9allocatorIhEEEE",
   "parameters" :
   [
    {
     "is_this_ptr" : true,
     "referenced_type" : "_ZTIPN4aidl7android8hardware4wifi10supplicant20BpSupplicantP2pIfaceE"
    },
    {
     "referenced_type" : "_ZTIRKNSt3__16vectorIhNS_9allocatorIhEEEE"
    }
   ],
   "return_type" : "_ZTIN3ndk13ScopedAStatusE",
   "source_file" : "out/soong/.intermediates/hardware/interfaces/wifi/supplicant/aidl/android.hardware.wifi.supplicant-V1-ndk-source/gen/include/aidl/android/hardware/wifi/supplicant/BpSupplicantP2pIface.h"
  },
  {
   "function_name" : "aidl::android::hardware::wifi::supplicant::BpSupplicantP2pIface::setWpsDeviceName",
   "linker_set_key" : "_ZN4aidl7android8hardware4wifi10supplicant20BpSupplicantP2pIface16setWpsDeviceNameERKNSt3__112basic_stringIcNS5_11char_traitsIcEENS5_9allocatorIcEEEE",
   "parameters" :
   [
    {
     "is_this_ptr" : true,
     "referenced_type" : "_ZTIPN4aidl7android8hardware4wifi10supplicant20BpSupplicantP2pIfaceE"
    },
    {
     "referenced_type" : "_ZTIRKNSt3__112basic_stringIcNS_11char_traitsIcEENS_9allocatorIcEEEE"
    }
   ],
   "return_type" : "_ZTIN3ndk13ScopedAStatusE",
   "source_file" : "out/soong/.intermediates/hardware/interfaces/wifi/supplicant/aidl/android.hardware.wifi.supplicant-V1-ndk-source/gen/include/aidl/android/hardware/wifi/supplicant/BpSupplicantP2pIface.h"
  },
  {
   "function_name" : "aidl::android::hardware::wifi::supplicant::BpSupplicantP2pIface::setWpsDeviceType",
   "linker_set_key" : "_ZN4aidl7android8hardware4wifi10supplicant20BpSupplicantP2pIface16setWpsDeviceTypeERKNSt3__16vectorIhNS5_9allocatorIhEEEE",
   "parameters" :
   [
    {
     "is_this_ptr" : true,
     "referenced_type" : "_ZTIPN4aidl7android8hardware4wifi10supplicant20BpSupplicantP2pIfaceE"
    },
    {
     "referenced_type" : "_ZTIRKNSt3__16vectorIhNS_9allocatorIhEEEE"
    }
   ],
   "return_type" : "_ZTIN3ndk13ScopedAStatusE",
   "source_file" : "out/soong/.intermediates/hardware/interfaces/wifi/supplicant/aidl/android.hardware.wifi.supplicant-V1-ndk-source/gen/include/aidl/android/hardware/wifi/supplicant/BpSupplicantP2pIface.h"
  },
  {
   "function_name" : "aidl::android::hardware::wifi::supplicant::BpSupplicantP2pIface::addBonjourService",
   "linker_set_key" : "_ZN4aidl7android8hardware4wifi10supplicant20BpSupplicantP2pIface17addBonjourServiceERKNSt3__16vectorIhNS5_9allocatorIhEEEESB_",
   "parameters" :
   [
    {
     "is_this_ptr" : true,
     "referenced_type" : "_ZTIPN4aidl7android8hardware4wifi10supplicant20BpSupplicantP2pIfaceE"
    },
    {
     "referenced_type" : "_ZTIRKNSt3__16vectorIhNS_9allocatorIhEEEE"
    },
    {
     "referenced_type" : "_ZTIRKNSt3__16vectorIhNS_9allocatorIhEEEE"
    }
   ],
   "return_type" : "_ZTIN3ndk13ScopedAStatusE",
   "source_file" : "out/soong/.intermediates/hardware/interfaces/wifi/supplicant/aidl/android.hardware.wifi.supplicant-V1-ndk-source/gen/include/aidl/android/hardware/wifi/supplicant/BpSupplicantP2pIface.h"
  },
  {
   "function_name" : "aidl::android::hardware::wifi::supplicant::BpSupplicantP2pIface::removeUpnpService",
   "linker_set_key" : "_ZN4aidl7android8hardware4wifi10supplicant20BpSupplicantP2pIface17removeUpnpServiceEiRKNSt3__112basic_stringIcNS5_11char_traitsIcEENS5_9allocatorIcEEEE",
   "parameters" :
   [
    {
     "is_this_ptr" : true,
     "referenced_type" : "_ZTIPN4aidl7android8hardware4wifi10supplicant20BpSupplicantP2pIfaceE"
    },
    {
     "referenced_type" : "_ZTIi"
    },
    {
     "referenced_type" : "_ZTIRKNSt3__112basic_stringIcNS_11char_traitsIcEENS_9allocatorIcEEEE"
    }
   ],
   "return_type" : "_ZTIN3ndk13ScopedAStatusE",
   "source_file" : "out/soong/.intermediates/hardware/interfaces/wifi/supplicant/aidl/android.hardware.wifi.supplicant-V1-ndk-source/gen/include/aidl/android/hardware/wifi/supplicant/BpSupplicantP2pIface.h"
  },
  {
   "function_name" : "aidl::android::hardware::wifi::supplicant::BpSupplicantP2pIface::setVendorElements",
   "linker_set_key" : "_ZN4aidl7android8hardware4wifi10supplicant20BpSupplicantP2pIface17setVendorElementsENS3_16P2pFrameTypeMaskERKNSt3__16vectorIhNS6_9allocatorIhEEEE",
   "parameters" :
   [
    {
     "is_this_ptr" : true,
     "referenced_type" : "_ZTIPN4aidl7android8hardware4wifi10supplicant20BpSupplicantP2pIfaceE"
    },
    {
     "referenced_type" : "_ZTIN4aidl7android8hardware4wifi10supplicant16P2pFrameTypeMaskE"
    },
    {
     "referenced_type" : "_ZTIRKNSt3__16vectorIhNS_9allocatorIhEEEE"
    }
   ],
   "return_type" : "_ZTIN3ndk13ScopedAStatusE",
   "source_file" : "out/soong/.intermediates/hardware/interfaces/wifi/supplicant/aidl/android.hardware.wifi.supplicant-V1-ndk-source/gen/include/aidl/android/hardware/wifi/supplicant/BpSupplicantP2pIface.h"
  },
  {
   "function_name" : "aidl::android::hardware::wifi::supplicant::BpSupplicantP2pIface::setWpsModelNumber",
   "linker_set_key" : "_ZN4aidl7android8hardware4wifi10supplicant20BpSupplicantP2pIface17setWpsModelNumberERKNSt3__112basic_stringIcNS5_11char_traitsIcEENS5_9allocatorIcEEEE",
   "parameters" :
   [
    {
     "is_this_ptr" : true,
     "referenced_type" : "_ZTIPN4aidl7android8hardware4wifi10supplicant20BpSupplicantP2pIfaceE"
    },
    {
     "referenced_type" : "_ZTIRKNSt3__112basic_stringIcNS_11char_traitsIcEENS_9allocatorIcEEEE"
    }
   ],
   "return_type" : "_ZTIN3ndk13ScopedAStatusE",
   "source_file" : "out/soong/.intermediates/hardware/interfaces/wifi/supplicant/aidl/android.hardware.wifi.supplicant-V1-ndk-source/gen/include/aidl/android/hardware/wifi/supplicant/BpSupplicantP2pIface.h"
  },
  {
   "function_name" : "aidl::android::hardware::wifi::supplicant::BpSupplicantP2pIface::startWpsPinKeypad",
   "linker_set_key" : "_ZN4aidl7android8hardware4wifi10supplicant20BpSupplicantP2pIface17startWpsPinKeypadERKNSt3__112basic_stringIcNS5_11char_traitsIcEENS5_9allocatorIcEEEESD_",
   "parameters" :
   [
    {
     "is_this_ptr" : true,
     "referenced_type" : "_ZTIPN4aidl7android8hardware4wifi10supplicant20BpSupplicantP2pIfaceE"
    },
    {
     "referenced_type" : "_ZTIRKNSt3__112basic_stringIcNS_11char_traitsIcEENS_9allocatorIcEEEE"
    },
    {
     "referenced_type" : "_ZTIRKNSt3__112basic_stringIcNS_11char_traitsIcEENS_9allocatorIcEEEE"
    }
   ],
   "return_type" : "_ZTIN3ndk13ScopedAStatusE",
   "source_file" : "out/soong/.intermediates/hardware/interfaces/wifi/supplicant/aidl/android.hardware.wifi.supplicant-V1-ndk-source/gen/include/aidl/android/hardware/wifi/supplicant/BpSupplicantP2pIface.h"
  },
  {
   "function_name" : "aidl::android::hardware::wifi::supplicant::BpSupplicantP2pIface::addGroupWithConfig",
   "linker_set_key" : "_ZN4aidl7android8hardware4wifi10supplicant20BpSupplicantP2pIface18addGroupWithConfigERKNSt3__16vectorIhNS5_9allocatorIhEEEERKNS5_12basic_stringIcNS5_11char_traitsIcEENS7_IcEEEEbiSB_b",
   "parameters" :
   [
    {
     "is_this_ptr" : true,
     "referenced_type" : "_ZTIPN4aidl7android8hardware4wifi10supplicant20BpSupplicantP2pIfaceE"
    },
    {
     "referenced_type" : "_ZTIRKNSt3__16vectorIhNS_9allocatorIhEEEE"
    },
    {
     "referenced_type" : "_ZTIRKNSt3__112basic_stringIcNS_11char_traitsIcEENS_9allocatorIcEEEE"
    },
    {
     "referenced_type" : "_ZTIb"
    },
    {
     "referenced_type" : "_ZTIi"
    },
    {
     "referenced_type" : "_ZTIRKNSt3__16vectorIhNS_9allocatorIhEEEE"
    },
    {
     "referenced_type" : "_ZTIb"
    }
   ],
   "return_type" : "_ZTIN3ndk13ScopedAStatusE",
   "source_file" : "out/soong/.intermediates/hardware/interfaces/wifi/supplicant/aidl/android.hardware.wifi.supplicant-V1-ndk-source/gen/include/aidl/android/hardware/wifi/supplicant/BpSupplicantP2pIface.h"
  },
  {
   "function_name" : "aidl::android::hardware::wifi::supplicant::BpSupplicantP2pIface::configureExtListen",
   "linker_set_key" : "_ZN4aidl7android8hardware4wifi10supplicant20BpSupplicantP2pIface18configureExtListenEii",
   "parameters" :
   [
    {
     "is_this_ptr" : true,
     "referenced_type" : "_ZTIPN4aidl7android8hardware4wifi10supplicant20BpSupplicantP2pIfaceE"
    },
    {
     "referenced_type" : "_ZTIi"
    },
    {
     "referenced_type" : "_ZTIi"
    }
   ],
   "return_type" : "_ZTIN3ndk13ScopedAStatusE",
   "source_file" : "out/soong/.intermediates/hardware/interfaces/wifi/supplicant/aidl/android.hardware.wifi.supplicant-V1-ndk-source/gen/include/aidl/android/hardware/wifi/supplicant/BpSupplicantP2pIface.h"
  },
  {
   "function_name" : "aidl::android::hardware::wifi::supplicant::BpSupplicantP2pIface::getGroupCapability",
   "linker_set_key" : "_ZN4aidl7android8hardware4wifi10supplicant20BpSupplicantP2pIface18getGroupCapabilityERKNSt3__16vectorIhNS5_9allocatorIhEEEEPNS3_22P2pGroupCapabilityMaskE",
   "parameters" :
   [
    {
     "is_this_ptr" : true,
     "referenced_type" : "_ZTIPN4aidl7android8hardware4wifi10supplicant20BpSupplicantP2pIfaceE"
    },
    {
     "referenced_type" : "_ZTIRKNSt3__16vectorIhNS_9allocatorIhEEEE"
    },
    {
     "referenced_type" : "_ZTIPN4aidl7android8hardware4wifi10supplicant22P2pGroupCapabilityMaskE"
    }
   ],
   "return_type" : "_ZTIN3ndk13ScopedAStatusE",
   "source_file" : "out/soong/.intermediates/hardware/interfaces/wifi/supplicant/aidl/android.hardware.wifi.supplicant-V1-ndk-source/gen/include/aidl/android/hardware/wifi/supplicant/BpSupplicantP2pIface.h"
  },
  {
   "function_name" : "aidl::android::hardware::wifi::supplicant::BpSupplicantP2pIface::provisionDiscovery",
   "linker_set_key" : "_ZN4aidl7android8hardware4wifi10supplicant20BpSupplicantP2pIface18provisionDiscoveryERKNSt3__16vectorIhNS5_9allocatorIhEEEENS3_18WpsProvisionMethodE",
   "parameters" :
   [
    {
     "is_this_ptr" : true,
     "referenced_type" : "_ZTIPN4aidl7android8hardware4wifi10supplicant20BpSupplicantP2pIfaceE"
    },
    {
     "referenced_type" : "_ZTIRKNSt3__16vectorIhNS_9allocatorIhEEEE"
    },
    {
     "referenced_type" : "_ZTIN4aidl7android8hardware4wifi10supplicant18WpsProvisionMethodE"
    }
   ],
   "return_type" : "_ZTIN3ndk13ScopedAStatusE",
   "source_file" : "out/soong/.intermediates/hardware/interfaces/wifi/supplicant/aidl/android.hardware.wifi.supplicant-V1-ndk-source/gen/include/aidl/android/hardware/wifi/supplicant/BpSupplicantP2pIface.h"
  },
  {
   "function_name" : "aidl::android::hardware::wifi::supplicant::BpSupplicantP2pIface::setWfdR2DeviceInfo",
   "linker_set_key" : "_ZN4aidl7android8hardware4wifi10supplicant20BpSupplicantP2pIface18setWfdR2DeviceInfoERKNSt3__16vectorIhNS5_9allocatorIhEEEE",
   "parameters" :
   [
    {
     "is_this_ptr" : true,
     "referenced_type" : "_ZTIPN4aidl7android8hardware4wifi10supplicant20BpSupplicantP2pIfaceE"
    },
    {
     "referenced_type" : "_ZTIRKNSt3__16vectorIhNS_9allocatorIhEEEE"
    }
   ],
   "return_type" : "_ZTIN3ndk13ScopedAStatusE",
   "source_file" : "out/soong/.intermediates/hardware/interfaces/wifi/supplicant/aidl/android.hardware.wifi.supplicant-V1-ndk-source/gen/include/aidl/android/hardware/wifi/supplicant/BpSupplicantP2pIface.h"
  },
  {
   "function_name" : "aidl::android::hardware::wifi::supplicant::BpSupplicantP2pIface::setWpsManufacturer",
   "linker_set_key" : "_ZN4aidl7android8hardware4wifi10supplicant20BpSupplicantP2pIface18setWpsManufacturerERKNSt3__112basic_stringIcNS5_11char_traitsIcEENS5_9allocatorIcEEEE",
   "parameters" :
   [
    {
     "is_this_ptr" : true,
     "referenced_type" : "_ZTIPN4aidl7android8hardware4wifi10supplicant20BpSupplicantP2pIfaceE"
    },
    {
     "referenced_type" : "_ZTIRKNSt3__112basic_stringIcNS_11char_traitsIcEENS_9allocatorIcEEEE"
    }
   ],
   "return_type" : "_ZTIN3ndk13ScopedAStatusE",
   "source_file" : "out/soong/.intermediates/hardware/interfaces/wifi/supplicant/aidl/android.hardware.wifi.supplicant-V1-ndk-source/gen/include/aidl/android/hardware/wifi/supplicant/BpSupplicantP2pIface.h"
  },
  {
   "function_name" : "aidl::android::hardware::wifi::supplicant::BpSupplicantP2pIface::setWpsSerialNumber",
   "linker_set_key" : "_ZN4aidl7android8hardware4wifi10supplicant20BpSupplicantP2pIface18setWpsSerialNumberERKNSt3__112basic_stringIcNS5_11char_traitsIcEENS5_9allocatorIcEEEE",
   "parameters" :
   [
    {
     "is_this_ptr" : true,
     "referenced_type" : "_ZTIPN4aidl7android8hardware4wifi10supplicant20BpSupplicantP2pIfaceE"
    },
    {
     "referenced_type" : "_ZTIRKNSt3__112basic_stringIcNS_11char_traitsIcEENS_9allocatorIcEEEE"
    }
   ],
   "return_type" : "_ZTIN3ndk13ScopedAStatusE",
   "source_file" : "out/soong/.intermediates/hardware/interfaces/wifi/supplicant/aidl/android.hardware.wifi.supplicant-V1-ndk-source/gen/include/aidl/android/hardware/wifi/supplicant/BpSupplicantP2pIface.h"
  },
  {
   "function_name" : "aidl::android::hardware::wifi::supplicant::BpSupplicantP2pIface::startWpsPinDisplay",
   "linker_set_key" : "_ZN4aidl7android8hardware4wifi10supplicant20BpSupplicantP2pIface18startWpsPinDisplayERKNSt3__112basic_stringIcNS5_11char_traitsIcEENS5_9allocatorIcEEEERKNS5_6vectorIhNS9_IhEEEEPSB_",
   "parameters" :
   [
    {
     "is_this_ptr" : true,
     "referenced_type" : "_ZTIPN4aidl7android8hardware4wifi10supplicant20BpSupplicantP2pIfaceE"
    },
    {
     "referenced_type" : "_ZTIRKNSt3__112basic_stringIcNS_11char_traitsIcEENS_9allocatorIcEEEE"
    },
    {
     "referenced_type" : "_ZTIRKNSt3__16vectorIhNS_9allocatorIhEEEE"
    },
    {
     "referenced_type" : "_ZTIPNSt3__112basic_stringIcNS_11char_traitsIcEENS_9allocatorIcEEEE"
    }
   ],
   "return_type" : "_ZTIN3ndk13ScopedAStatusE",
   "source_file" : "out/soong/.intermediates/hardware/interfaces/wifi/supplicant/aidl/android.hardware.wifi.supplicant-V1-ndk-source/gen/include/aidl/android/hardware/wifi/supplicant/BpSupplicantP2pIface.h"
  },
  {
   "function_name" : "aidl::android::hardware::wifi::supplicant::BpSupplicantP2pIface::getInterfaceVersion",
   "linker_set_key" : "_ZN4aidl7android8hardware4wifi10supplicant20BpSupplicantP2pIface19getInterfaceVersionEPi",
   "parameters" :
   [
    {
     "is_this_ptr" : true,
     "referenced_type" : "_ZTIPN4aidl7android8hardware4wifi10supplicant20BpSupplicantP2pIfaceE"
    },
    {
     "referenced_type" : "_ZTIPi"
    }
   ],
   "return_type" : "_ZTIN3ndk13ScopedAStatusE",
   "source_file" : "out/soong/.intermediates/hardware/interfaces/wifi/supplicant/aidl/android.hardware.wifi.supplicant-V1-ndk-source/gen/include/aidl/android/hardware/wifi/supplicant/BpSupplicantP2pIface.h"
  },
  {
   "function_name" : "aidl::android::hardware::wifi::supplicant::BpSupplicantP2pIface::setMacRandomization",
   "linker_set_key" : "_ZN4aidl7android8hardware4wifi10supplicant20BpSupplicantP2pIface19setMacRandomizationEb",
   "parameters" :
   [
    {
     "is_this_ptr" : true,
     "referenced_type" : "_ZTIPN4aidl7android8hardware4wifi10supplicant20BpSupplicantP2pIfaceE"
    },
    {
     "referenced_type" : "_ZTIb"
    }
   ],
   "return_type" : "_ZTIN3ndk13ScopedAStatusE",
   "source_file" : "out/soong/.intermediates/hardware/interfaces/wifi/supplicant/aidl/android.hardware.wifi.supplicant-V1-ndk-source/gen/include/aidl/android/hardware/wifi/supplicant/BpSupplicantP2pIface.h"
  },
  {
   "function_name" : "aidl::android::hardware::wifi::supplicant::BpSupplicantP2pIface::setWpsConfigMethods",
   "linker_set_key" : "_ZN4aidl7android8hardware4wifi10supplicant20BpSupplicantP2pIface19setWpsConfigMethodsENS3_16WpsConfigMethodsE",
   "parameters" :
   [
    {
     "is_this_ptr" : true,
     "referenced_type" : "_ZTIPN4aidl7android8hardware4wifi10supplicant20BpSupplicantP2pIfaceE"
    },
    {
     "referenced_type" : "_ZTIN4aidl7android8hardware4wifi10supplicant16WpsConfigMethodsE"
    }
   ],
   "return_type" : "_ZTIN3ndk13ScopedAStatusE",
   "source_file" : "out/soong/.intermediates/hardware/interfaces/wifi/supplicant/aidl/android.hardware.wifi.supplicant-V1-ndk-source/gen/include/aidl/android/hardware/wifi/supplicant/BpSupplicantP2pIface.h"
  },
  {
   "function_name" : "aidl::android::hardware::wifi::supplicant::BpSupplicantP2pIface::findOnSocialChannels",
   "linker_set_key" : "_ZN4aidl7android8hardware4wifi10supplicant20BpSupplicantP2pIface20findOnSocialChannelsEi",
   "parameters" :
   [
    {
     "is_this_ptr" : true,
     "referenced_type" : "_ZTIPN4aidl7android8hardware4wifi10supplicant20BpSupplicantP2pIfaceE"
    },
    {
     "referenced_type" : "_ZTIi"
    }
   ],
   "return_type" : "_ZTIN3ndk13ScopedAStatusE",
   "source_file" : "out/soong/.intermediates/hardware/interfaces/wifi/supplicant/aidl/android.hardware.wifi.supplicant-V1-ndk-source/gen/include/aidl/android/hardware/wifi/supplicant/BpSupplicantP2pIface.h"
  },
  {
   "function_name" : "aidl::android::hardware::wifi::supplicant::BpSupplicantP2pIface::removeBonjourService",
   "linker_set_key" : "_ZN4aidl7android8hardware4wifi10supplicant20BpSupplicantP2pIface20removeBonjourServiceERKNSt3__16vectorIhNS5_9allocatorIhEEEE",
   "parameters" :
   [
    {
     "is_this_ptr" : true,
     "referenced_type" : "_ZTIPN4aidl7android8hardware4wifi10supplicant20BpSupplicantP2pIfaceE"
    },
    {
     "referenced_type" : "_ZTIRKNSt3__16vectorIhNS_9allocatorIhEEEE"
    }
   ],
   "return_type" : "_ZTIN3ndk13ScopedAStatusE",
   "source_file" : "out/soong/.intermediates/hardware/interfaces/wifi/supplicant/aidl/android.hardware.wifi.supplicant-V1-ndk-source/gen/include/aidl/android/hardware/wifi/supplicant/BpSupplicantP2pIface.h"
  },
  {
   "function_name" : "aidl::android::hardware::wifi::supplicant::BpSupplicantP2pIface::cancelServiceDiscovery",
   "linker_set_key" : "_ZN4aidl7android8hardware4wifi10supplicant20BpSupplicantP2pIface22cancelServiceDiscoveryEx",
   "parameters" :
   [
    {
     "is_this_ptr" : true,
     "referenced_type" : "_ZTIPN4aidl7android8hardware4wifi10supplicant20BpSupplicantP2pIfaceE"
    },
    {
     "referenced_type" : "_ZTIx"
    }
   ],
   "return_type" : "_ZTIN3ndk13ScopedAStatusE",
   "source_file" : "out/soong/.intermediates/hardware/interfaces/wifi/supplicant/aidl/android.hardware.wifi.supplicant-V1-ndk-source/gen/include/aidl/android/hardware/wifi/supplicant/BpSupplicantP2pIface.h"
  },
  {
   "function_name" : "aidl::android::hardware::wifi::supplicant::BpSupplicantP2pIface::findOnSpecificFrequency",
   "linker_set_key" : "_ZN4aidl7android8hardware4wifi10supplicant20BpSupplicantP2pIface23findOnSpecificFrequencyEii",
   "parameters" :
   [
    {
     "is_this_ptr" : true,
     "referenced_type" : "_ZTIPN4aidl7android8hardware4wifi10supplicant20BpSupplicantP2pIfaceE"
    },
    {
     "referenced_type" : "_ZTIi"
    },
    {
     "referenced_type" : "_ZTIi"
    }
   ],
   "return_type" : "_ZTIN3ndk13ScopedAStatusE",
   "source_file" : "out/soong/.intermediates/hardware/interfaces/wifi/supplicant/aidl/android.hardware.wifi.supplicant-V1-ndk-source/gen/include/aidl/android/hardware/wifi/supplicant/BpSupplicantP2pIface.h"
  },
  {
   "function_name" : "aidl::android::hardware::wifi::supplicant::BpSupplicantP2pIface::requestServiceDiscovery",
   "linker_set_key" : "_ZN4aidl7android8hardware4wifi10supplicant20BpSupplicantP2pIface23requestServiceDiscoveryERKNSt3__16vectorIhNS5_9allocatorIhEEEESB_Px",
   "parameters" :
   [
    {
     "is_this_ptr" : true,
     "referenced_type" : "_ZTIPN4aidl7android8hardware4wifi10supplicant20BpSupplicantP2pIfaceE"
    },
    {
     "referenced_type" : "_ZTIRKNSt3__16vectorIhNS_9allocatorIhEEEE"
    },
    {
     "referenced_type" : "_ZTIRKNSt3__16vectorIhNS_9allocatorIhEEEE"
    },
    {
     "referenced_type" : "_ZTIPx"
    }
   ],
   "return_type" : "_ZTIN3ndk13ScopedAStatusE",
   "source_file" : "out/soong/.intermediates/hardware/interfaces/wifi/supplicant/aidl/android.hardware.wifi.supplicant-V1-ndk-source/gen/include/aidl/android/hardware/wifi/supplicant/BpSupplicantP2pIface.h"
  },
  {
   "function_name" : "aidl::android::hardware::wifi::supplicant::BpSupplicantP2pIface::setDisallowedFrequencies",
   "linker_set_key" : "_ZN4aidl7android8hardware4wifi10supplicant20BpSupplicantP2pIface24setDisallowedFrequenciesERKNSt3__16vectorINS3_9FreqRangeENS5_9allocatorIS7_EEEE",
   "parameters" :
   [
    {
     "is_this_ptr" : true,
     "referenced_type" : "_ZTIPN4aidl7android8hardware4wifi10supplicant20BpSupplicantP2pIfaceE"
    },
    {
     "referenced_type" : "_ZTIRKNSt3__16vectorIN4aidl7android8hardware4wifi10supplicant9FreqRangeENS_9allocatorIS6_EEEE"
    }
   ],
   "return_type" : "_ZTIN3ndk13ScopedAStatusE",
   "source_file" : "out/soong/.intermediates/hardware/interfaces/wifi/supplicant/aidl/android.hardware.wifi.supplicant-V1-ndk-source/gen/include/aidl/android/hardware/wifi/supplicant/BpSupplicantP2pIface.h"
  },
  {
   "function_name" : "aidl::android::hardware::wifi::supplicant::BpSupplicantP2pIface::reportNfcHandoverResponse",
   "linker_set_key" : "_ZN4aidl7android8hardware4wifi10supplicant20BpSupplicantP2pIface25reportNfcHandoverResponseERKNSt3__16vectorIhNS5_9allocatorIhEEEE",
   "parameters" :
   [
    {
     "is_this_ptr" : true,
     "referenced_type" : "_ZTIPN4aidl7android8hardware4wifi10supplicant20BpSupplicantP2pIfaceE"
    },
    {
     "referenced_type" : "_ZTIRKNSt3__16vectorIhNS_9allocatorIhEEEE"
    }
   ],
   "return_type" : "_ZTIN3ndk13ScopedAStatusE",
   "source_file" : "out/soong/.intermediates/hardware/interfaces/wifi/supplicant/aidl/android.hardware.wifi.supplicant-V1-ndk-source/gen/include/aidl/android/hardware/wifi/supplicant/BpSupplicantP2pIface.h"
  },
  {
   "function_name" : "aidl::android::hardware::wifi::supplicant::BpSupplicantP2pIface::reportNfcHandoverInitiation",
   "linker_set_key" : "_ZN4aidl7android8hardware4wifi10supplicant20BpSupplicantP2pIface27reportNfcHandoverInitiationERKNSt3__16vectorIhNS5_9allocatorIhEEEE",
   "parameters" :
   [
    {
     "is_this_ptr" : true,
     "referenced_type" : "_ZTIPN4aidl7android8hardware4wifi10supplicant20BpSupplicantP2pIfaceE"
    },
    {
     "referenced_type" : "_ZTIRKNSt3__16vectorIhNS_9allocatorIhEEEE"
    }
   ],
   "return_type" : "_ZTIN3ndk13ScopedAStatusE",
   "source_file" : "out/soong/.intermediates/hardware/interfaces/wifi/supplicant/aidl/android.hardware.wifi.supplicant-V1-ndk-source/gen/include/aidl/android/hardware/wifi/supplicant/BpSupplicantP2pIface.h"
  },
  {
   "function_name" : "aidl::android::hardware::wifi::supplicant::BpSupplicantP2pIface::createNfcHandoverSelectMessage",
   "linker_set_key" : "_ZN4aidl7android8hardware4wifi10supplicant20BpSupplicantP2pIface30createNfcHandoverSelectMessageEPNSt3__16vectorIhNS5_9allocatorIhEEEE",
   "parameters" :
   [
    {
     "is_this_ptr" : true,
     "referenced_type" : "_ZTIPN4aidl7android8hardware4wifi10supplicant20BpSupplicantP2pIfaceE"
    },
    {
     "referenced_type" : "_ZTIPNSt3__16vectorIhNS_9allocatorIhEEEE"
    }
   ],
   "return_type" : "_ZTIN3ndk13ScopedAStatusE",
   "source_file" : "out/soong/.intermediates/hardware/interfaces/wifi/supplicant/aidl/android.hardware.wifi.supplicant-V1-ndk-source/gen/include/aidl/android/hardware/wifi/supplicant/BpSupplicantP2pIface.h"
  },
  {
   "function_name" : "aidl::android::hardware::wifi::supplicant::BpSupplicantP2pIface::createNfcHandoverRequestMessage",
   "linker_set_key" : "_ZN4aidl7android8hardware4wifi10supplicant20BpSupplicantP2pIface31createNfcHandoverRequestMessageEPNSt3__16vectorIhNS5_9allocatorIhEEEE",
   "parameters" :
   [
    {
     "is_this_ptr" : true,
     "referenced_type" : "_ZTIPN4aidl7android8hardware4wifi10supplicant20BpSupplicantP2pIfaceE"
    },
    {
     "referenced_type" : "_ZTIPNSt3__16vectorIhNS_9allocatorIhEEEE"
    }
   ],
   "return_type" : "_ZTIN3ndk13ScopedAStatusE",
   "source_file" : "out/soong/.intermediates/hardware/interfaces/wifi/supplicant/aidl/android.hardware.wifi.supplicant-V1-ndk-source/gen/include/aidl/android/hardware/wifi/supplicant/BpSupplicantP2pIface.h"
  },
  {
   "function_name" : "aidl::android::hardware::wifi::supplicant::BpSupplicantP2pIface::find",
   "linker_set_key" : "_ZN4aidl7android8hardware4wifi10supplicant20BpSupplicantP2pIface4findEi",
   "parameters" :
   [
    {
     "is_this_ptr" : true,
     "referenced_type" : "_ZTIPN4aidl7android8hardware4wifi10supplicant20BpSupplicantP2pIfaceE"
    },
    {
     "referenced_type" : "_ZTIi"
    }
   ],
   "return_type" : "_ZTIN3ndk13ScopedAStatusE",
   "source_file" : "out/soong/.intermediates/hardware/interfaces/wifi/supplicant/aidl/android.hardware.wifi.supplicant-V1-ndk-source/gen/include/aidl/android/hardware/wifi/supplicant/BpSupplicantP2pIface.h"
  },
  {
   "function_name" : "aidl::android::hardware::wifi::supplicant::BpSupplicantP2pIface::flush",
   "linker_set_key" : "_ZN4aidl7android8hardware4wifi10supplicant20BpSupplicantP2pIface5flushEv",
   "parameters" :
   [
    {
     "is_this_ptr" : true,
     "referenced_type" : "_ZTIPN4aidl7android8hardware4wifi10supplicant20BpSupplicantP2pIfaceE"
    }
   ],
   "return_type" : "_ZTIN3ndk13ScopedAStatusE",
   "source_file" : "out/soong/.intermediates/hardware/interfaces/wifi/supplicant/aidl/android.hardware.wifi.supplicant-V1-ndk-source/gen/include/aidl/android/hardware/wifi/supplicant/BpSupplicantP2pIface.h"
  },
  {
   "function_name" : "aidl::android::hardware::wifi::supplicant::BpSupplicantP2pIface::invite",
   "linker_set_key" : "_ZN4aidl7android8hardware4wifi10supplicant20BpSupplicantP2pIface6inviteERKNSt3__112basic_stringIcNS5_11char_traitsIcEENS5_9allocatorIcEEEERKNS5_6vectorIhNS9_IhEEEESI_",
   "parameters" :
   [
    {
     "is_this_ptr" : true,
     "referenced_type" : "_ZTIPN4aidl7android8hardware4wifi10supplicant20BpSupplicantP2pIfaceE"
    },
    {
     "referenced_type" : "_ZTIRKNSt3__112basic_stringIcNS_11char_traitsIcEENS_9allocatorIcEEEE"
    },
    {
     "referenced_type" : "_ZTIRKNSt3__16vectorIhNS_9allocatorIhEEEE"
    },
    {
     "referenced_type" : "_ZTIRKNSt3__16vectorIhNS_9allocatorIhEEEE"
    }
   ],
   "return_type" : "_ZTIN3ndk13ScopedAStatusE",
   "source_file" : "out/soong/.intermediates/hardware/interfaces/wifi/supplicant/aidl/android.hardware.wifi.supplicant-V1-ndk-source/gen/include/aidl/android/hardware/wifi/supplicant/BpSupplicantP2pIface.h"
  },
  {
   "function_name" : "aidl::android::hardware::wifi::supplicant::BpSupplicantP2pIface::reject",
   "linker_set_key" : "_ZN4aidl7android8hardware4wifi10supplicant20BpSupplicantP2pIface6rejectERKNSt3__16vectorIhNS5_9allocatorIhEEEE",
   "parameters" :
   [
    {
     "is_this_ptr" : true,
     "referenced_type" : "_ZTIPN4aidl7android8hardware4wifi10supplicant20BpSupplicantP2pIfaceE"
    },
    {
     "referenced_type" : "_ZTIRKNSt3__16vectorIhNS_9allocatorIhEEEE"
    }
   ],
   "return_type" : "_ZTIN3ndk13ScopedAStatusE",
   "source_file" : "out/soong/.intermediates/hardware/interfaces/wifi/supplicant/aidl/android.hardware.wifi.supplicant-V1-ndk-source/gen/include/aidl/android/hardware/wifi/supplicant/BpSupplicantP2pIface.h"
  },
  {
   "function_name" : "aidl::android::hardware::wifi::supplicant::BpSupplicantP2pIface::connect",
   "linker_set_key" : "_ZN4aidl7android8hardware4wifi10supplicant20BpSupplicantP2pIface7connectERKNSt3__16vectorIhNS5_9allocatorIhEEEENS3_18WpsProvisionMethodERKNS5_12basic_stringIcNS5_11char_traitsIcEENS7_IcEEEEbbiPSH_",
   "parameters" :
   [
    {
     "is_this_ptr" : true,
     "referenced_type" : "_ZTIPN4aidl7android8hardware4wifi10supplicant20BpSupplicantP2pIfaceE"
    },
    {
     "referenced_type" : "_ZTIRKNSt3__16vectorIhNS_9allocatorIhEEEE"
    },
    {
     "referenced_type" : "_ZTIN4aidl7android8hardware4wifi10supplicant18WpsProvisionMethodE"
    },
    {
     "referenced_type" : "_ZTIRKNSt3__112basic_stringIcNS_11char_traitsIcEENS_9allocatorIcEEEE"
    },
    {
     "referenced_type" : "_ZTIb"
    },
    {
     "referenced_type" : "_ZTIb"
    },
    {
     "referenced_type" : "_ZTIi"
    },
    {
     "referenced_type" : "_ZTIPNSt3__112basic_stringIcNS_11char_traitsIcEENS_9allocatorIcEEEE"
    }
   ],
   "return_type" : "_ZTIN3ndk13ScopedAStatusE",
   "source_file" : "out/soong/.intermediates/hardware/interfaces/wifi/supplicant/aidl/android.hardware.wifi.supplicant-V1-ndk-source/gen/include/aidl/android/hardware/wifi/supplicant/BpSupplicantP2pIface.h"
  },
  {
   "function_name" : "aidl::android::hardware::wifi::supplicant::BpSupplicantP2pIface::getEdmg",
   "linker_set_key" : "_ZN4aidl7android8hardware4wifi10supplicant20BpSupplicantP2pIface7getEdmgEPb",
   "parameters" :
   [
    {
     "is_this_ptr" : true,
     "referenced_type" : "_ZTIPN4aidl7android8hardware4wifi10supplicant20BpSupplicantP2pIfaceE"
    },
    {
     "referenced_type" : "_ZTIPb"
    }
   ],
   "return_type" : "_ZTIN3ndk13ScopedAStatusE",
   "source_file" : "out/soong/.intermediates/hardware/interfaces/wifi/supplicant/aidl/android.hardware.wifi.supplicant-V1-ndk-source/gen/include/aidl/android/hardware/wifi/supplicant/BpSupplicantP2pIface.h"
  },
  {
   "function_name" : "aidl::android::hardware::wifi::supplicant::BpSupplicantP2pIface::getName",
   "linker_set_key" : "_ZN4aidl7android8hardware4wifi10supplicant20BpSupplicantP2pIface7getNameEPNSt3__112basic_stringIcNS5_11char_traitsIcEENS5_9allocatorIcEEEE",
   "parameters" :
   [
    {
     "is_this_ptr" : true,
     "referenced_type" : "_ZTIPN4aidl7android8hardware4wifi10supplicant20BpSupplicantP2pIfaceE"
    },
    {
     "referenced_type" : "_ZTIPNSt3__112basic_stringIcNS_11char_traitsIcEENS_9allocatorIcEEEE"
    }
   ],
   "return_type" : "_ZTIN3ndk13ScopedAStatusE",
   "source_file" : "out/soong/.intermediates/hardware/interfaces/wifi/supplicant/aidl/android.hardware.wifi.supplicant-V1-ndk-source/gen/include/aidl/android/hardware/wifi/supplicant/BpSupplicantP2pIface.h"
  },
  {
   "function_name" : "aidl::android::hardware::wifi::supplicant::BpSupplicantP2pIface::getSsid",
   "linker_set_key" : "_ZN4aidl7android8hardware4wifi10supplicant20BpSupplicantP2pIface7getSsidERKNSt3__16vectorIhNS5_9allocatorIhEEEEPS9_",
   "parameters" :
   [
    {
     "is_this_ptr" : true,
     "referenced_type" : "_ZTIPN4aidl7android8hardware4wifi10supplicant20BpSupplicantP2pIfaceE"
    },
    {
     "referenced_type" : "_ZTIRKNSt3__16vectorIhNS_9allocatorIhEEEE"
    },
    {
     "referenced_type" : "_ZTIPNSt3__16vectorIhNS_9allocatorIhEEEE"
    }
   ],
   "return_type" : "_ZTIN3ndk13ScopedAStatusE",
   "source_file" : "out/soong/.intermediates/hardware/interfaces/wifi/supplicant/aidl/android.hardware.wifi.supplicant-V1-ndk-source/gen/include/aidl/android/hardware/wifi/supplicant/BpSupplicantP2pIface.h"
  },
  {
   "function_name" : "aidl::android::hardware::wifi::supplicant::BpSupplicantP2pIface::getType",
   "linker_set_key" : "_ZN4aidl7android8hardware4wifi10supplicant20BpSupplicantP2pIface7getTypeEPNS3_9IfaceTypeE",
   "parameters" :
   [
    {
     "is_this_ptr" : true,
     "referenced_type" : "_ZTIPN4aidl7android8hardware4wifi10supplicant20BpSupplicantP2pIfaceE"
    },
    {
     "referenced_type" : "_ZTIPN4aidl7android8hardware4wifi10supplicant9IfaceTypeE"
    }
   ],
   "return_type" : "_ZTIN3ndk13ScopedAStatusE",
   "source_file" : "out/soong/.intermediates/hardware/interfaces/wifi/supplicant/aidl/android.hardware.wifi.supplicant-V1-ndk-source/gen/include/aidl/android/hardware/wifi/supplicant/BpSupplicantP2pIface.h"
  },
  {
   "function_name" : "aidl::android::hardware::wifi::supplicant::BpSupplicantP2pIface::setEdmg",
   "linker_set_key" : "_ZN4aidl7android8hardware4wifi10supplicant20BpSupplicantP2pIface7setEdmgEb",
   "parameters" :
   [
    {
     "is_this_ptr" : true,
     "referenced_type" : "_ZTIPN4aidl7android8hardware4wifi10supplicant20BpSupplicantP2pIfaceE"
    },
    {
     "referenced_type" : "_ZTIb"
    }
   ],
   "return_type" : "_ZTIN3ndk13ScopedAStatusE",
   "source_file" : "out/soong/.intermediates/hardware/interfaces/wifi/supplicant/aidl/android.hardware.wifi.supplicant-V1-ndk-source/gen/include/aidl/android/hardware/wifi/supplicant/BpSupplicantP2pIface.h"
  },
  {
   "function_name" : "aidl::android::hardware::wifi::supplicant::BpSupplicantP2pIface::addGroup",
   "linker_set_key" : "_ZN4aidl7android8hardware4wifi10supplicant20BpSupplicantP2pIface8addGroupEbi",
   "parameters" :
   [
    {
     "is_this_ptr" : true,
     "referenced_type" : "_ZTIPN4aidl7android8hardware4wifi10supplicant20BpSupplicantP2pIfaceE"
    },
    {
     "referenced_type" : "_ZTIb"
    },
    {
     "referenced_type" : "_ZTIi"
    }
   ],
   "return_type" : "_ZTIN3ndk13ScopedAStatusE",
   "source_file" : "out/soong/.intermediates/hardware/interfaces/wifi/supplicant/aidl/android.hardware.wifi.supplicant-V1-ndk-source/gen/include/aidl/android/hardware/wifi/supplicant/BpSupplicantP2pIface.h"
  },
  {
   "function_name" : "aidl::android::hardware::wifi::supplicant::BpSupplicantP2pIface::reinvoke",
   "linker_set_key" : "_ZN4aidl7android8hardware4wifi10supplicant20BpSupplicantP2pIface8reinvokeEiRKNSt3__16vectorIhNS5_9allocatorIhEEEE",
   "parameters" :
   [
    {
     "is_this_ptr" : true,
     "referenced_type" : "_ZTIPN4aidl7android8hardware4wifi10supplicant20BpSupplicantP2pIfaceE"
    },
    {
     "referenced_type" : "_ZTIi"
    },
    {
     "referenced_type" : "_ZTIRKNSt3__16vectorIhNS_9allocatorIhEEEE"
    }
   ],
   "return_type" : "_ZTIN3ndk13ScopedAStatusE",
   "source_file" : "out/soong/.intermediates/hardware/interfaces/wifi/supplicant/aidl/android.hardware.wifi.supplicant-V1-ndk-source/gen/include/aidl/android/hardware/wifi/supplicant/BpSupplicantP2pIface.h"
  },
  {
   "function_name" : "aidl::android::hardware::wifi::supplicant::BpSupplicantP2pIface::stopFind",
   "linker_set_key" : "_ZN4aidl7android8hardware4wifi10supplicant20BpSupplicantP2pIface8stopFindEv",
   "parameters" :
   [
    {
     "is_this_ptr" : true,
     "referenced_type" : "_ZTIPN4aidl7android8hardware4wifi10supplicant20BpSupplicantP2pIfaceE"
    }
   ],
   "return_type" : "_ZTIN3ndk13ScopedAStatusE",
   "source_file" : "out/soong/.intermediates/hardware/interfaces/wifi/supplicant/aidl/android.hardware.wifi.supplicant-V1-ndk-source/gen/include/aidl/android/hardware/wifi/supplicant/BpSupplicantP2pIface.h"
  },
  {
   "function_name" : "aidl::android::hardware::wifi::supplicant::BpSupplicantP2pIface::cancelWps",
   "linker_set_key" : "_ZN4aidl7android8hardware4wifi10supplicant20BpSupplicantP2pIface9cancelWpsERKNSt3__112basic_stringIcNS5_11char_traitsIcEENS5_9allocatorIcEEEE",
   "parameters" :
   [
    {
     "is_this_ptr" : true,
     "referenced_type" : "_ZTIPN4aidl7android8hardware4wifi10supplicant20BpSupplicantP2pIfaceE"
    },
    {
     "referenced_type" : "_ZTIRKNSt3__112basic_stringIcNS_11char_traitsIcEENS_9allocatorIcEEEE"
    }
   ],
   "return_type" : "_ZTIN3ndk13ScopedAStatusE",
   "source_file" : "out/soong/.intermediates/hardware/interfaces/wifi/supplicant/aidl/android.hardware.wifi.supplicant-V1-ndk-source/gen/include/aidl/android/hardware/wifi/supplicant/BpSupplicantP2pIface.h"
  },
  {
   "function_name" : "aidl::android::hardware::wifi::supplicant::BpSupplicantP2pIface::enableWfd",
   "linker_set_key" : "_ZN4aidl7android8hardware4wifi10supplicant20BpSupplicantP2pIface9enableWfdEb",
   "parameters" :
   [
    {
     "is_this_ptr" : true,
     "referenced_type" : "_ZTIPN4aidl7android8hardware4wifi10supplicant20BpSupplicantP2pIfaceE"
    },
    {
     "referenced_type" : "_ZTIb"
    }
   ],
   "return_type" : "_ZTIN3ndk13ScopedAStatusE",
   "source_file" : "out/soong/.intermediates/hardware/interfaces/wifi/supplicant/aidl/android.hardware.wifi.supplicant-V1-ndk-source/gen/include/aidl/android/hardware/wifi/supplicant/BpSupplicantP2pIface.h"
  },
  {
   "function_name" : "aidl::android::hardware::wifi::supplicant::BpSupplicantP2pIface::BpSupplicantP2pIface",
   "linker_set_key" : "_ZN4aidl7android8hardware4wifi10supplicant20BpSupplicantP2pIfaceC1ERKN3ndk10SpAIBinderE",
   "parameters" :
   [
    {
     "is_this_ptr" : true,
     "referenced_type" : "_ZTIPN4aidl7android8hardware4wifi10supplicant20BpSupplicantP2pIfaceE"
    },
    {
     "referenced_type" : "_ZTIRKN3ndk10SpAIBinderE"
    }
   ],
   "return_type" : "_ZTIv",
   "source_file" : "out/soong/.intermediates/hardware/interfaces/wifi/supplicant/aidl/android.hardware.wifi.supplicant-V1-ndk-source/gen/include/aidl/android/hardware/wifi/supplicant/BpSupplicantP2pIface.h"
  },
  {
   "function_name" : "aidl::android::hardware::wifi::supplicant::BpSupplicantP2pIface::BpSupplicantP2pIface",
