{
 "array_types" : [],
 "builtin_types" :
 [
  {
   "alignment" : 4,
   "linker_set_key" : "_ZTIDn",
   "name" : "std::nullptr_t",
   "referenced_type" : "_ZTIDn",
   "self_type" : "_ZTIDn",
   "size" : 4
  },
  {
   "alignment" : 1,
   "is_integral" : true,
   "linker_set_key" : "_ZTIa",
   "name" : "signed char",
   "referenced_type" : "_ZTIa",
   "self_type" : "_ZTIa",
   "size" : 1
  },
  {
   "alignment" : 1,
   "is_integral" : true,
   "is_unsigned" : true,
   "linker_set_key" : "_ZTIb",
   "name" : "bool",
   "referenced_type" : "_ZTIb",
   "self_type" : "_ZTIb",
   "size" : 1
  },
  {
   "alignment" : 1,
   "is_integral" : true,
   "linker_set_key" : "_ZTIc",
   "name" : "char",
   "referenced_type" : "_ZTIc",
   "self_type" : "_ZTIc",
   "size" : 1
  },
  {
   "alignment" : 4,
   "is_integral" : true,
   "linker_set_key" : "_ZTIi",
   "name" : "int",
   "referenced_type" : "_ZTIi",
   "self_type" : "_ZTIi",
   "size" : 4
  },
  {
   "alignment" : 4,
   "is_integral" : true,
   "is_unsigned" : true,
   "linker_set_key" : "_ZTIj",
   "name" : "unsigned int",
   "referenced_type" : "_ZTIj",
   "self_type" : "_ZTIj",
   "size" : 4
  },
  {
   "linker_set_key" : "_ZTIv",
   "name" : "void",
   "referenced_type" : "_ZTIv",
   "self_type" : "_ZTIv"
  },
  {
   "alignment" : 4,
   "is_integral" : true,
   "linker_set_key" : "_ZTIx",
   "name" : "long long",
   "referenced_type" : "_ZTIx",
   "self_type" : "_ZTIx",
   "size" : 8
  }
 ],
 "elf_functions" :
 [
  {
   "binding" : "weak",
   "name" : "_ZN3ndk12BnCInterfaceIN4aidl7android8hardware5radio5voice11IRadioVoiceEE8asBinderEv"
  },
  {
   "binding" : "weak",
   "name" : "_ZN3ndk12BnCInterfaceIN4aidl7android8hardware5radio5voice19IRadioVoiceResponseEE8asBinderEv"
  },
  {
   "binding" : "weak",
   "name" : "_ZN3ndk12BnCInterfaceIN4aidl7android8hardware5radio5voice21IRadioVoiceIndicationEE8asBinderEv"
  },
  {
   "binding" : "weak",
   "name" : "_ZN3ndk12BpCInterfaceIN4aidl7android8hardware5radio5voice11IRadioVoiceEE8asBinderEv"
  },
  {
   "binding" : "weak",
   "name" : "_ZN3ndk12BpCInterfaceIN4aidl7android8hardware5radio5voice19IRadioVoiceResponseEE8asBinderEv"
  },
  {
   "binding" : "weak",
   "name" : "_ZN3ndk12BpCInterfaceIN4aidl7android8hardware5radio5voice21IRadioVoiceIndicationEE8asBinderEv"
  },
  {
   "binding" : "weak",
   "name" : "_ZN3ndk38AParcel_readStdVectorParcelableElementIN4aidl7android8hardware5radio5voice10SsInfoDataEEEiPK7AParcelPvj"
  },
  {
   "binding" : "weak",
   "name" : "_ZN3ndk38AParcel_readStdVectorParcelableElementIN4aidl7android8hardware5radio5voice15CallForwardInfoEEEiPK7AParcelPvj"
  },
  {
   "binding" : "weak",
   "name" : "_ZN3ndk38AParcel_readStdVectorParcelableElementIN4aidl7android8hardware5radio5voice15EmergencyNumberEEEiPK7AParcelPvj"
  },
  {
   "binding" : "weak",
   "name" : "_ZN3ndk38AParcel_readStdVectorParcelableElementIN4aidl7android8hardware5radio5voice20CdmaNumberInfoRecordEEEiPK7AParcelPvj"
  },
  {
   "binding" : "weak",
   "name" : "_ZN3ndk38AParcel_readStdVectorParcelableElementIN4aidl7android8hardware5radio5voice20CdmaSignalInfoRecordEEEiPK7AParcelPvj"
  },
  {
   "binding" : "weak",
   "name" : "_ZN3ndk38AParcel_readStdVectorParcelableElementIN4aidl7android8hardware5radio5voice21CdmaDisplayInfoRecordEEEiPK7AParcelPvj"
  },
  {
   "binding" : "weak",
   "name" : "_ZN3ndk38AParcel_readStdVectorParcelableElementIN4aidl7android8hardware5radio5voice21CdmaInformationRecordEEEiPK7AParcelPvj"
  },
  {
   "binding" : "weak",
   "name" : "_ZN3ndk38AParcel_readStdVectorParcelableElementIN4aidl7android8hardware5radio5voice21CdmaT53ClirInfoRecordEEEiPK7AParcelPvj"
  },
  {
   "binding" : "weak",
   "name" : "_ZN3ndk38AParcel_readStdVectorParcelableElementIN4aidl7android8hardware5radio5voice25CdmaLineControlInfoRecordEEEiPK7AParcelPvj"
  },
  {
   "binding" : "weak",
   "name" : "_ZN3ndk38AParcel_readStdVectorParcelableElementIN4aidl7android8hardware5radio5voice29CdmaT53AudioControlInfoRecordEEEiPK7AParcelPvj"
  },
  {
   "binding" : "weak",
   "name" : "_ZN3ndk38AParcel_readStdVectorParcelableElementIN4aidl7android8hardware5radio5voice31CdmaRedirectingNumberInfoRecordEEEiPK7AParcelPvj"
  },
  {
   "binding" : "weak",
   "name" : "_ZN3ndk38AParcel_readStdVectorParcelableElementIN4aidl7android8hardware5radio5voice4CallEEEiPK7AParcelPvj"
  },
  {
   "binding" : "weak",
   "name" : "_ZN3ndk38AParcel_readStdVectorParcelableElementIN4aidl7android8hardware5radio5voice6CfDataEEEiPK7AParcelPvj"
  },
  {
   "binding" : "weak",
   "name" : "_ZN3ndk38AParcel_readStdVectorParcelableElementIN4aidl7android8hardware5radio5voice7UusInfoEEEiPK7AParcelPvj"
  },
  {
   "binding" : "weak",
   "name" : "_ZN3ndk39AParcel_writeStdVectorParcelableElementIN4aidl7android8hardware5radio5voice10SsInfoDataEEEiP7AParcelPKvj"
  },
  {
   "binding" : "weak",
   "name" : "_ZN3ndk39AParcel_writeStdVectorParcelableElementIN4aidl7android8hardware5radio5voice15CallForwardInfoEEEiP7AParcelPKvj"
  },
  {
   "binding" : "weak",
   "name" : "_ZN3ndk39AParcel_writeStdVectorParcelableElementIN4aidl7android8hardware5radio5voice15EmergencyNumberEEEiP7AParcelPKvj"
  },
  {
   "binding" : "weak",
   "name" : "_ZN3ndk39AParcel_writeStdVectorParcelableElementIN4aidl7android8hardware5radio5voice20CdmaNumberInfoRecordEEEiP7AParcelPKvj"
  },
  {
   "binding" : "weak",
   "name" : "_ZN3ndk39AParcel_writeStdVectorParcelableElementIN4aidl7android8hardware5radio5voice20CdmaSignalInfoRecordEEEiP7AParcelPKvj"
  },
  {
   "binding" : "weak",
   "name" : "_ZN3ndk39AParcel_writeStdVectorParcelableElementIN4aidl7android8hardware5radio5voice21CdmaDisplayInfoRecordEEEiP7AParcelPKvj"
  },
  {
   "binding" : "weak",
   "name" : "_ZN3ndk39AParcel_writeStdVectorParcelableElementIN4aidl7android8hardware5radio5voice21CdmaInformationRecordEEEiP7AParcelPKvj"
  },
  {
   "binding" : "weak",
   "name" : "_ZN3ndk39AParcel_writeStdVectorParcelableElementIN4aidl7android8hardware5radio5voice21CdmaT53ClirInfoRecordEEEiP7AParcelPKvj"
  },
  {
   "binding" : "weak",
   "name" : "_ZN3ndk39AParcel_writeStdVectorParcelableElementIN4aidl7android8hardware5radio5voice25CdmaLineControlInfoRecordEEEiP7AParcelPKvj"
  },
  {
   "binding" : "weak",
   "name" : "_ZN3ndk39AParcel_writeStdVectorParcelableElementIN4aidl7android8hardware5radio5voice29CdmaT53AudioControlInfoRecordEEEiP7AParcelPKvj"
  },
  {
   "binding" : "weak",
   "name" : "_ZN3ndk39AParcel_writeStdVectorParcelableElementIN4aidl7android8hardware5radio5voice31CdmaRedirectingNumberInfoRecordEEEiP7AParcelPKvj"
  },
  {
   "binding" : "weak",
   "name" : "_ZN3ndk39AParcel_writeStdVectorParcelableElementIN4aidl7android8hardware5radio5voice4CallEEEiP7AParcelPKvj"
  },
  {
   "binding" : "weak",
   "name" : "_ZN3ndk39AParcel_writeStdVectorParcelableElementIN4aidl7android8hardware5radio5voice6CfDataEEEiP7AParcelPKvj"
  },
  {
   "binding" : "weak",
   "name" : "_ZN3ndk39AParcel_writeStdVectorParcelableElementIN4aidl7android8hardware5radio5voice7UusInfoEEEiP7AParcelPKvj"
  },
  {
   "name" : "_ZN4aidl7android8hardware5radio5voice10SsInfoData14readFromParcelEPK7AParcel"
  },
  {
   "name" : "_ZN4aidl7android8hardware5radio5voice11IRadioVoice10fromBinderERKN3ndk10SpAIBinderE"
  },
  {
   "name" : "_ZN4aidl7android8hardware5radio5voice11IRadioVoice13writeToParcelEP7AParcelRKNSt3__110shared_ptrIS4_EE"
  },
  {
   "name" : "_ZN4aidl7android8hardware5radio5voice11IRadioVoice14getDefaultImplEv"
  },
  {
   "name" : "_ZN4aidl7android8hardware5radio5voice11IRadioVoice14readFromParcelEPK7AParcelPNSt3__110shared_ptrIS4_EE"
  },
  {
   "name" : "_ZN4aidl7android8hardware5radio5voice11IRadioVoice14setDefaultImplERKNSt3__110shared_ptrIS4_EE"
  },
  {
   "name" : "_ZN4aidl7android8hardware5radio5voice11IRadioVoiceC2Ev"
  },
  {
   "name" : "_ZN4aidl7android8hardware5radio5voice11IRadioVoiceD0Ev"
  },
  {
   "name" : "_ZN4aidl7android8hardware5radio5voice11IRadioVoiceD1Ev"
  },
  {
   "name" : "_ZN4aidl7android8hardware5radio5voice11IRadioVoiceD2Ev"
  },
  {
   "name" : "_ZN4aidl7android8hardware5radio5voice12BnRadioVoice12createBinderEv"
  },
  {
   "name" : "_ZN4aidl7android8hardware5radio5voice12BnRadioVoice16getInterfaceHashEPNSt3__112basic_stringIcNS5_11char_traitsIcEENS5_9allocatorIcEEEE"
  },
  {
   "name" : "_ZN4aidl7android8hardware5radio5voice12BnRadioVoice19getInterfaceVersionEPi"
  },
  {
   "name" : "_ZN4aidl7android8hardware5radio5voice12BnRadioVoiceC2Ev"
  },
  {
   "name" : "_ZN4aidl7android8hardware5radio5voice12BnRadioVoiceD0Ev"
  },
  {
   "name" : "_ZN4aidl7android8hardware5radio5voice12BnRadioVoiceD1Ev"
  },
  {
   "name" : "_ZN4aidl7android8hardware5radio5voice12BnRadioVoiceD2Ev"
  },
  {
   "name" : "_ZN4aidl7android8hardware5radio5voice12BpRadioVoice10acceptCallEi"
  },
  {
   "name" : "_ZN4aidl7android8hardware5radio5voice12BpRadioVoice10conferenceEi"
  },
  {
   "name" : "_ZN4aidl7android8hardware5radio5voice12BpRadioVoice10getTtyModeEi"
  },
  {
   "name" : "_ZN4aidl7android8hardware5radio5voice12BpRadioVoice10rejectCallEi"
  },
  {
   "name" : "_ZN4aidl7android8hardware5radio5voice12BpRadioVoice10setTtyModeEiNS3_7TtyModeE"
  },
  {
   "name" : "_ZN4aidl7android8hardware5radio5voice12BpRadioVoice13emergencyDialEiRKNS3_4DialEiRKNSt3__16vectorINS8_12basic_stringIcNS8_11char_traitsIcEENS8_9allocatorIcEEEENSD_ISF_EEEENS3_20EmergencyCallRoutingEbb"
  },
  {
   "name" : "_ZN4aidl7android8hardware5radio5voice12BpRadioVoice13isVoNrEnabledEi"
  },
  {
   "name" : "_ZN4aidl7android8hardware5radio5voice12BpRadioVoice13sendBurstDtmfEiRKNSt3__112basic_stringIcNS5_11char_traitsIcEENS5_9allocatorIcEEEEii"
  },
  {
   "name" : "_ZN4aidl7android8hardware5radio5voice12BpRadioVoice14getCallWaitingEii"
  },
  {
   "name" : "_ZN4aidl7android8hardware5radio5voice12BpRadioVoice14setCallForwardEiRKNS3_15CallForwardInfoE"
  },
  {
   "name" : "_ZN4aidl7android8hardware5radio5voice12BpRadioVoice14setCallWaitingEibi"
  },
  {
   "name" : "_ZN4aidl7android8hardware5radio5voice12BpRadioVoice14setVoNrEnabledEib"
  },
  {
   "name" : "_ZN4aidl7android8hardware5radio5voice12BpRadioVoice15getCurrentCallsEi"
  },
  {
   "name" : "_ZN4aidl7android8hardware5radio5voice12BpRadioVoice16getInterfaceHashEPNSt3__112basic_stringIcNS5_11char_traitsIcEENS5_9allocatorIcEEEE"
  },
  {
   "name" : "_ZN4aidl7android8hardware5radio5voice12BpRadioVoice17cancelPendingUssdEi"
  },
  {
   "name" : "_ZN4aidl7android8hardware5radio5voice12BpRadioVoice18separateConnectionEii"
  },
  {
   "name" : "_ZN4aidl7android8hardware5radio5voice12BpRadioVoice19getInterfaceVersionEPi"
  },
  {
   "name" : "_ZN4aidl7android8hardware5radio5voice12BpRadioVoice19sendCdmaFeatureCodeEiRKNSt3__112basic_stringIcNS5_11char_traitsIcEENS5_9allocatorIcEEEE"
  },
  {
   "name" : "_ZN4aidl7android8hardware5radio5voice12BpRadioVoice20explicitCallTransferEi"
  },
  {
   "name" : "_ZN4aidl7android8hardware5radio5voice12BpRadioVoice20getCallForwardStatusEiRKNS3_15CallForwardInfoE"
  },
  {
   "name" : "_ZN4aidl7android8hardware5radio5voice12BpRadioVoice20getLastCallFailCauseEi"
  },
  {
   "name" : "_ZN4aidl7android8hardware5radio5voice12BpRadioVoice20setResponseFunctionsERKNSt3__110shared_ptrINS3_19IRadioVoiceResponseEEERKNS6_INS3_21IRadioVoiceIndicationEEE"
  },
  {
   "name" : "_ZN4aidl7android8hardware5radio5voice12BpRadioVoice23responseAcknowledgementEv"
  },
  {
   "name" : "_ZN4aidl7android8hardware5radio5voice12BpRadioVoice24getPreferredVoicePrivacyEi"
  },
  {
   "name" : "_ZN4aidl7android8hardware5radio5voice12BpRadioVoice24setPreferredVoicePrivacyEib"
  },
  {
   "name" : "_ZN4aidl7android8hardware5radio5voice12BpRadioVoice25exitEmergencyCallbackModeEi"
  },
  {
   "name" : "_ZN4aidl7android8hardware5radio5voice12BpRadioVoice25hangupWaitingOrBackgroundEi"
  },
  {
   "name" : "_ZN4aidl7android8hardware5radio5voice12BpRadioVoice31switchWaitingOrHoldingAndActiveEi"
  },
  {
   "name" : "_ZN4aidl7android8hardware5radio5voice12BpRadioVoice32handleStkCallSetupRequestFromSimEib"
  },
  {
   "name" : "_ZN4aidl7android8hardware5radio5voice12BpRadioVoice32hangupForegroundResumeBackgroundEi"
  },
  {
   "name" : "_ZN4aidl7android8hardware5radio5voice12BpRadioVoice4dialEiRKNS3_4DialE"
  },
  {
   "name" : "_ZN4aidl7android8hardware5radio5voice12BpRadioVoice6hangupEii"
  },
  {
   "name" : "_ZN4aidl7android8hardware5radio5voice12BpRadioVoice7getClipEi"
  },
  {
   "name" : "_ZN4aidl7android8hardware5radio5voice12BpRadioVoice7getClirEi"
  },
  {
   "name" : "_ZN4aidl7android8hardware5radio5voice12BpRadioVoice7getMuteEi"
  },
  {
   "name" : "_ZN4aidl7android8hardware5radio5voice12BpRadioVoice7setClirEii"
  },
  {
   "name" : "_ZN4aidl7android8hardware5radio5voice12BpRadioVoice7setMuteEib"
  },
  {
   "name" : "_ZN4aidl7android8hardware5radio5voice12BpRadioVoice8sendDtmfEiRKNSt3__112basic_stringIcNS5_11char_traitsIcEENS5_9allocatorIcEEEE"
  },
  {
   "name" : "_ZN4aidl7android8hardware5radio5voice12BpRadioVoice8sendUssdEiRKNSt3__112basic_stringIcNS5_11char_traitsIcEENS5_9allocatorIcEEEE"
  },
  {
   "name" : "_ZN4aidl7android8hardware5radio5voice12BpRadioVoice8stopDtmfEi"
  },
  {
   "name" : "_ZN4aidl7android8hardware5radio5voice12BpRadioVoice9startDtmfEiRKNSt3__112basic_stringIcNS5_11char_traitsIcEENS5_9allocatorIcEEEE"
  },
  {
   "name" : "_ZN4aidl7android8hardware5radio5voice12BpRadioVoiceC1ERKN3ndk10SpAIBinderE"
  },
  {
   "name" : "_ZN4aidl7android8hardware5radio5voice12BpRadioVoiceC2ERKN3ndk10SpAIBinderE"
  },
  {
   "name" : "_ZN4aidl7android8hardware5radio5voice12BpRadioVoiceD0Ev"
  },
  {
   "name" : "_ZN4aidl7android8hardware5radio5voice12BpRadioVoiceD1Ev"
  },
  {
   "name" : "_ZN4aidl7android8hardware5radio5voice12BpRadioVoiceD2Ev"
  },
  {
   "name" : "_ZN4aidl7android8hardware5radio5voice15CallForwardInfo14readFromParcelEPK7AParcel"
  },
  {
   "name" : "_ZN4aidl7android8hardware5radio5voice15CdmaCallWaiting14readFromParcelEPK7AParcel"
  },
  {
   "name" : "_ZN4aidl7android8hardware5radio5voice15EmergencyNumber14readFromParcelEPK7AParcel"
  },
  {
   "name" : "_ZN4aidl7android8hardware5radio5voice18IRadioVoiceDefault10acceptCallEi"
  },
  {
   "name" : "_ZN4aidl7android8hardware5radio5voice18IRadioVoiceDefault10conferenceEi"
  },
  {
   "name" : "_ZN4aidl7android8hardware5radio5voice18IRadioVoiceDefault10getTtyModeEi"
  },
  {
   "name" : "_ZN4aidl7android8hardware5radio5voice18IRadioVoiceDefault10rejectCallEi"
  },
  {
   "name" : "_ZN4aidl7android8hardware5radio5voice18IRadioVoiceDefault10setTtyModeEiNS3_7TtyModeE"
  },
  {
   "name" : "_ZN4aidl7android8hardware5radio5voice18IRadioVoiceDefault13emergencyDialEiRKNS3_4DialEiRKNSt3__16vectorINS8_12basic_stringIcNS8_11char_traitsIcEENS8_9allocatorIcEEEENSD_ISF_EEEENS3_20EmergencyCallRoutingEbb"
  },
  {
   "name" : "_ZN4aidl7android8hardware5radio5voice18IRadioVoiceDefault13isVoNrEnabledEi"
  },
  {
   "name" : "_ZN4aidl7android8hardware5radio5voice18IRadioVoiceDefault13sendBurstDtmfEiRKNSt3__112basic_stringIcNS5_11char_traitsIcEENS5_9allocatorIcEEEEii"
  },
  {
   "name" : "_ZN4aidl7android8hardware5radio5voice18IRadioVoiceDefault14getCallWaitingEii"
  },
  {
   "name" : "_ZN4aidl7android8hardware5radio5voice18IRadioVoiceDefault14setCallForwardEiRKNS3_15CallForwardInfoE"
  },
  {
   "name" : "_ZN4aidl7android8hardware5radio5voice18IRadioVoiceDefault14setCallWaitingEibi"
  },
  {
   "name" : "_ZN4aidl7android8hardware5radio5voice18IRadioVoiceDefault14setVoNrEnabledEib"
  },
  {
   "name" : "_ZN4aidl7android8hardware5radio5voice18IRadioVoiceDefault15getCurrentCallsEi"
  },
  {
   "name" : "_ZN4aidl7android8hardware5radio5voice18IRadioVoiceDefault16getInterfaceHashEPNSt3__112basic_stringIcNS5_11char_traitsIcEENS5_9allocatorIcEEEE"
  },
  {
   "name" : "_ZN4aidl7android8hardware5radio5voice18IRadioVoiceDefault17cancelPendingUssdEi"
  },
  {
   "name" : "_ZN4aidl7android8hardware5radio5voice18IRadioVoiceDefault18separateConnectionEii"
  },
  {
   "name" : "_ZN4aidl7android8hardware5radio5voice18IRadioVoiceDefault19getInterfaceVersionEPi"
  },
  {
   "name" : "_ZN4aidl7android8hardware5radio5voice18IRadioVoiceDefault19sendCdmaFeatureCodeEiRKNSt3__112basic_stringIcNS5_11char_traitsIcEENS5_9allocatorIcEEEE"
  },
  {
   "name" : "_ZN4aidl7android8hardware5radio5voice18IRadioVoiceDefault20explicitCallTransferEi"
  },
  {
   "name" : "_ZN4aidl7android8hardware5radio5voice18IRadioVoiceDefault20getCallForwardStatusEiRKNS3_15CallForwardInfoE"
  },
  {
   "name" : "_ZN4aidl7android8hardware5radio5voice18IRadioVoiceDefault20getLastCallFailCauseEi"
  },
  {
   "name" : "_ZN4aidl7android8hardware5radio5voice18IRadioVoiceDefault20setResponseFunctionsERKNSt3__110shared_ptrINS3_19IRadioVoiceResponseEEERKNS6_INS3_21IRadioVoiceIndicationEEE"
  },
  {
   "name" : "_ZN4aidl7android8hardware5radio5voice18IRadioVoiceDefault23responseAcknowledgementEv"
  },
  {
   "name" : "_ZN4aidl7android8hardware5radio5voice18IRadioVoiceDefault24getPreferredVoicePrivacyEi"
  },
  {
   "name" : "_ZN4aidl7android8hardware5radio5voice18IRadioVoiceDefault24setPreferredVoicePrivacyEib"
  },
  {
   "name" : "_ZN4aidl7android8hardware5radio5voice18IRadioVoiceDefault25exitEmergencyCallbackModeEi"
  },
  {
   "name" : "_ZN4aidl7android8hardware5radio5voice18IRadioVoiceDefault25hangupWaitingOrBackgroundEi"
  },
  {
   "name" : "_ZN4aidl7android8hardware5radio5voice18IRadioVoiceDefault31switchWaitingOrHoldingAndActiveEi"
  },
  {
   "name" : "_ZN4aidl7android8hardware5radio5voice18IRadioVoiceDefault32handleStkCallSetupRequestFromSimEib"
  },
  {
   "name" : "_ZN4aidl7android8hardware5radio5voice18IRadioVoiceDefault32hangupForegroundResumeBackgroundEi"
  },
  {
   "name" : "_ZN4aidl7android8hardware5radio5voice18IRadioVoiceDefault4dialEiRKNS3_4DialE"
  },
  {
   "name" : "_ZN4aidl7android8hardware5radio5voice18IRadioVoiceDefault6hangupEii"
  },
  {
   "name" : "_ZN4aidl7android8hardware5radio5voice18IRadioVoiceDefault7getClipEi"
  },
  {
   "name" : "_ZN4aidl7android8hardware5radio5voice18IRadioVoiceDefault7getClirEi"
  },
  {
   "name" : "_ZN4aidl7android8hardware5radio5voice18IRadioVoiceDefault7getMuteEi"
  },
  {
   "name" : "_ZN4aidl7android8hardware5radio5voice18IRadioVoiceDefault7setClirEii"
  },
  {
   "name" : "_ZN4aidl7android8hardware5radio5voice18IRadioVoiceDefault7setMuteEib"
  },
  {
   "name" : "_ZN4aidl7android8hardware5radio5voice18IRadioVoiceDefault8asBinderEv"
  },
  {
   "name" : "_ZN4aidl7android8hardware5radio5voice18IRadioVoiceDefault8isRemoteEv"
  },
  {
   "name" : "_ZN4aidl7android8hardware5radio5voice18IRadioVoiceDefault8sendDtmfEiRKNSt3__112basic_stringIcNS5_11char_traitsIcEENS5_9allocatorIcEEEE"
  },
  {
   "name" : "_ZN4aidl7android8hardware5radio5voice18IRadioVoiceDefault8sendUssdEiRKNSt3__112basic_stringIcNS5_11char_traitsIcEENS5_9allocatorIcEEEE"
  },
  {
   "name" : "_ZN4aidl7android8hardware5radio5voice18IRadioVoiceDefault8stopDtmfEi"
  },
  {
   "name" : "_ZN4aidl7android8hardware5radio5voice18IRadioVoiceDefault9startDtmfEiRKNSt3__112basic_stringIcNS5_11char_traitsIcEENS5_9allocatorIcEEEE"
  },
  {
   "name" : "_ZN4aidl7android8hardware5radio5voice18StkCcUnsolSsResult14readFromParcelEPK7AParcel"
  },
  {
   "name" : "_ZN4aidl7android8hardware5radio5voice19IRadioVoiceResponse10fromBinderERKN3ndk10SpAIBinderE"
  },
  {
   "name" : "_ZN4aidl7android8hardware5radio5voice19IRadioVoiceResponse13writeToParcelEP7AParcelRKNSt3__110shared_ptrIS4_EE"
  },
  {
   "name" : "_ZN4aidl7android8hardware5radio5voice19IRadioVoiceResponse14getDefaultImplEv"
  },
  {
   "name" : "_ZN4aidl7android8hardware5radio5voice19IRadioVoiceResponse14readFromParcelEPK7AParcelPNSt3__110shared_ptrIS4_EE"
  },
  {
   "name" : "_ZN4aidl7android8hardware5radio5voice19IRadioVoiceResponse14setDefaultImplERKNSt3__110shared_ptrIS4_EE"
  },
  {
   "name" : "_ZN4aidl7android8hardware5radio5voice19IRadioVoiceResponseC2Ev"
  },
  {
   "name" : "_ZN4aidl7android8hardware5radio5voice19IRadioVoiceResponseD0Ev"
  },
  {
   "name" : "_ZN4aidl7android8hardware5radio5voice19IRadioVoiceResponseD1Ev"
  },
  {
   "name" : "_ZN4aidl7android8hardware5radio5voice19IRadioVoiceResponseD2Ev"
  },
  {
   "name" : "_ZN4aidl7android8hardware5radio5voice20BnRadioVoiceResponse12createBinderEv"
  },
  {
   "name" : "_ZN4aidl7android8hardware5radio5voice20BnRadioVoiceResponse16getInterfaceHashEPNSt3__112basic_stringIcNS5_11char_traitsIcEENS5_9allocatorIcEEEE"
  },
  {
   "name" : "_ZN4aidl7android8hardware5radio5voice20BnRadioVoiceResponse19getInterfaceVersionEPi"
  },
  {
   "name" : "_ZN4aidl7android8hardware5radio5voice20BnRadioVoiceResponseC2Ev"
  },
  {
   "name" : "_ZN4aidl7android8hardware5radio5voice20BnRadioVoiceResponseD0Ev"
  },
  {
   "name" : "_ZN4aidl7android8hardware5radio5voice20BnRadioVoiceResponseD1Ev"
  },
  {
   "name" : "_ZN4aidl7android8hardware5radio5voice20BnRadioVoiceResponseD2Ev"
  },
  {
   "name" : "_ZN4aidl7android8hardware5radio5voice20BpRadioVoiceResponse12dialResponseERKNS2_17RadioResponseInfoE"
  },
  {
   "name" : "_ZN4aidl7android8hardware5radio5voice20BpRadioVoiceResponse15getClipResponseERKNS2_17RadioResponseInfoENS3_10ClipStatusE"
  },
  {
   "name" : "_ZN4aidl7android8hardware5radio5voice20BpRadioVoiceResponse15getClirResponseERKNS2_17RadioResponseInfoEii"
  },
  {
   "name" : "_ZN4aidl7android8hardware5radio5voice20BpRadioVoiceResponse15getMuteResponseERKNS2_17RadioResponseInfoEb"
  },
  {
   "name" : "_ZN4aidl7android8hardware5radio5voice20BpRadioVoiceResponse15setClirResponseERKNS2_17RadioResponseInfoE"
  },
  {
   "name" : "_ZN4aidl7android8hardware5radio5voice20BpRadioVoiceResponse15setMuteResponseERKNS2_17RadioResponseInfoE"
  },
  {
   "name" : "_ZN4aidl7android8hardware5radio5voice20BpRadioVoiceResponse16getInterfaceHashEPNSt3__112basic_stringIcNS5_11char_traitsIcEENS5_9allocatorIcEEEE"
  },
  {
   "name" : "_ZN4aidl7android8hardware5radio5voice20BpRadioVoiceResponse16sendDtmfResponseERKNS2_17RadioResponseInfoE"
  },
  {
   "name" : "_ZN4aidl7android8hardware5radio5voice20BpRadioVoiceResponse16sendUssdResponseERKNS2_17RadioResponseInfoE"
  },
  {
   "name" : "_ZN4aidl7android8hardware5radio5voice20BpRadioVoiceResponse16stopDtmfResponseERKNS2_17RadioResponseInfoE"
  },
  {
   "name" : "_ZN4aidl7android8hardware5radio5voice20BpRadioVoiceResponse17startDtmfResponseERKNS2_17RadioResponseInfoE"
  },
  {
   "name" : "_ZN4aidl7android8hardware5radio5voice20BpRadioVoiceResponse18acceptCallResponseERKNS2_17RadioResponseInfoE"
  },
  {
   "name" : "_ZN4aidl7android8hardware5radio5voice20BpRadioVoiceResponse18acknowledgeRequestEi"
  },
  {
   "name" : "_ZN4aidl7android8hardware5radio5voice20BpRadioVoiceResponse18conferenceResponseERKNS2_17RadioResponseInfoE"
  },
  {
   "name" : "_ZN4aidl7android8hardware5radio5voice20BpRadioVoiceResponse18getTtyModeResponseERKNS2_17RadioResponseInfoENS3_7TtyModeE"
  },
  {
   "name" : "_ZN4aidl7android8hardware5radio5voice20BpRadioVoiceResponse18rejectCallResponseERKNS2_17RadioResponseInfoE"
  },
  {
   "name" : "_ZN4aidl7android8hardware5radio5voice20BpRadioVoiceResponse18setTtyModeResponseERKNS2_17RadioResponseInfoE"
  },
  {
   "name" : "_ZN4aidl7android8hardware5radio5voice20BpRadioVoiceResponse19getInterfaceVersionEPi"
  },
  {
   "name" : "_ZN4aidl7android8hardware5radio5voice20BpRadioVoiceResponse21emergencyDialResponseERKNS2_17RadioResponseInfoE"
  },
  {
   "name" : "_ZN4aidl7android8hardware5radio5voice20BpRadioVoiceResponse21isVoNrEnabledResponseERKNS2_17RadioResponseInfoEb"
  },
  {
   "name" : "_ZN4aidl7android8hardware5radio5voice20BpRadioVoiceResponse21sendBurstDtmfResponseERKNS2_17RadioResponseInfoE"
  },
  {
   "name" : "_ZN4aidl7android8hardware5radio5voice20BpRadioVoiceResponse22getCallWaitingResponseERKNS2_17RadioResponseInfoEbi"
  },
  {
   "name" : "_ZN4aidl7android8hardware5radio5voice20BpRadioVoiceResponse22setCallForwardResponseERKNS2_17RadioResponseInfoE"
  },
  {
   "name" : "_ZN4aidl7android8hardware5radio5voice20BpRadioVoiceResponse22setCallWaitingResponseERKNS2_17RadioResponseInfoE"
  },
  {
   "name" : "_ZN4aidl7android8hardware5radio5voice20BpRadioVoiceResponse22setVoNrEnabledResponseERKNS2_17RadioResponseInfoE"
  },
  {
   "name" : "_ZN4aidl7android8hardware5radio5voice20BpRadioVoiceResponse23getCurrentCallsResponseERKNS2_17RadioResponseInfoERKNSt3__16vectorINS3_4CallENS8_9allocatorISA_EEEE"
  },
  {
   "name" : "_ZN4aidl7android8hardware5radio5voice20BpRadioVoiceResponse24hangupConnectionResponseERKNS2_17RadioResponseInfoE"
  },
  {
   "name" : "_ZN4aidl7android8hardware5radio5voice20BpRadioVoiceResponse25cancelPendingUssdResponseERKNS2_17RadioResponseInfoE"
  },
  {
   "name" : "_ZN4aidl7android8hardware5radio5voice20BpRadioVoiceResponse26separateConnectionResponseERKNS2_17RadioResponseInfoE"
  },
  {
   "name" : "_ZN4aidl7android8hardware5radio5voice20BpRadioVoiceResponse27sendCdmaFeatureCodeResponseERKNS2_17RadioResponseInfoE"
  },
  {
   "name" : "_ZN4aidl7android8hardware5radio5voice20BpRadioVoiceResponse28explicitCallTransferResponseERKNS2_17RadioResponseInfoE"
  },
  {
   "name" : "_ZN4aidl7android8hardware5radio5voice20BpRadioVoiceResponse28getCallForwardStatusResponseERKNS2_17RadioResponseInfoERKNSt3__16vectorINS3_15CallForwardInfoENS8_9allocatorISA_EEEE"
  },
  {
   "name" : "_ZN4aidl7android8hardware5radio5voice20BpRadioVoiceResponse28getLastCallFailCauseResponseERKNS2_17RadioResponseInfoERKNS3_21LastCallFailCauseInfoE"
  },
  {
   "name" : "_ZN4aidl7android8hardware5radio5voice20BpRadioVoiceResponse32getPreferredVoicePrivacyResponseERKNS2_17RadioResponseInfoEb"
  },
  {
   "name" : "_ZN4aidl7android8hardware5radio5voice20BpRadioVoiceResponse32setPreferredVoicePrivacyResponseERKNS2_17RadioResponseInfoE"
  },
  {
   "name" : "_ZN4aidl7android8hardware5radio5voice20BpRadioVoiceResponse33exitEmergencyCallbackModeResponseERKNS2_17RadioResponseInfoE"
  },
  {
   "name" : "_ZN4aidl7android8hardware5radio5voice20BpRadioVoiceResponse33hangupWaitingOrBackgroundResponseERKNS2_17RadioResponseInfoE"
  },
  {
   "name" : "_ZN4aidl7android8hardware5radio5voice20BpRadioVoiceResponse39switchWaitingOrHoldingAndActiveResponseERKNS2_17RadioResponseInfoE"
  },
  {
   "name" : "_ZN4aidl7android8hardware5radio5voice20BpRadioVoiceResponse40handleStkCallSetupRequestFromSimResponseERKNS2_17RadioResponseInfoE"
  },
  {
   "name" : "_ZN4aidl7android8hardware5radio5voice20BpRadioVoiceResponse40hangupForegroundResumeBackgroundResponseERKNS2_17RadioResponseInfoE"
  },
  {
   "name" : "_ZN4aidl7android8hardware5radio5voice20BpRadioVoiceResponseC1ERKN3ndk10SpAIBinderE"
  },
  {
   "name" : "_ZN4aidl7android8hardware5radio5voice20BpRadioVoiceResponseC2ERKN3ndk10SpAIBinderE"
  },
  {
   "name" : "_ZN4aidl7android8hardware5radio5voice20BpRadioVoiceResponseD0Ev"
  },
  {
   "name" : "_ZN4aidl7android8hardware5radio5voice20BpRadioVoiceResponseD1Ev"
  },
  {
   "name" : "_ZN4aidl7android8hardware5radio5voice20BpRadioVoiceResponseD2Ev"
  },
  {
   "name" : "_ZN4aidl7android8hardware5radio5voice20CdmaNumberInfoRecord14readFromParcelEPK7AParcel"
  },
  {
   "name" : "_ZN4aidl7android8hardware5radio5voice20CdmaSignalInfoRecord14readFromParcelEPK7AParcel"
  },
  {
   "name" : "_ZN4aidl7android8hardware5radio5voice21CdmaDisplayInfoRecord14readFromParcelEPK7AParcel"
  },
  {
   "name" : "_ZN4aidl7android8hardware5radio5voice21CdmaInformationRecord14readFromParcelEPK7AParcel"
  },
  {
   "name" : "_ZN4aidl7android8hardware5radio5voice21CdmaT53ClirInfoRecord14readFromParcelEPK7AParcel"
  },
  {
   "name" : "_ZN4aidl7android8hardware5radio5voice21IRadioVoiceIndication10fromBinderERKN3ndk10SpAIBinderE"
  },
  {
   "name" : "_ZN4aidl7android8hardware5radio5voice21IRadioVoiceIndication13writeToParcelEP7AParcelRKNSt3__110shared_ptrIS4_EE"
  },
  {
   "name" : "_ZN4aidl7android8hardware5radio5voice21IRadioVoiceIndication14getDefaultImplEv"
  },
  {
   "name" : "_ZN4aidl7android8hardware5radio5voice21IRadioVoiceIndication14readFromParcelEPK7AParcelPNSt3__110shared_ptrIS4_EE"
  },
  {
   "name" : "_ZN4aidl7android8hardware5radio5voice21IRadioVoiceIndication14setDefaultImplERKNSt3__110shared_ptrIS4_EE"
  },
  {
   "name" : "_ZN4aidl7android8hardware5radio5voice21IRadioVoiceIndicationC2Ev"
  },
  {
   "name" : "_ZN4aidl7android8hardware5radio5voice21IRadioVoiceIndicationD0Ev"
  },
  {
   "name" : "_ZN4aidl7android8hardware5radio5voice21IRadioVoiceIndicationD1Ev"
  },
  {
   "name" : "_ZN4aidl7android8hardware5radio5voice21IRadioVoiceIndicationD2Ev"
  },
  {
   "name" : "_ZN4aidl7android8hardware5radio5voice21LastCallFailCauseInfo14readFromParcelEPK7AParcel"
  },
  {
   "name" : "_ZN4aidl7android8hardware5radio5voice22BnRadioVoiceIndication12createBinderEv"
  },
  {
   "name" : "_ZN4aidl7android8hardware5radio5voice22BnRadioVoiceIndication16getInterfaceHashEPNSt3__112basic_stringIcNS5_11char_traitsIcEENS5_9allocatorIcEEEE"
  },
  {
   "name" : "_ZN4aidl7android8hardware5radio5voice22BnRadioVoiceIndication19getInterfaceVersionEPi"
  },
  {
   "name" : "_ZN4aidl7android8hardware5radio5voice22BnRadioVoiceIndicationC2Ev"
  },
  {
   "name" : "_ZN4aidl7android8hardware5radio5voice22BnRadioVoiceIndicationD0Ev"
  },
  {
   "name" : "_ZN4aidl7android8hardware5radio5voice22BnRadioVoiceIndicationD1Ev"
  },
  {
   "name" : "_ZN4aidl7android8hardware5radio5voice22BnRadioVoiceIndicationD2Ev"
  },
  {
   "name" : "_ZN4aidl7android8hardware5radio5voice22BpRadioVoiceIndication11cdmaInfoRecENS2_19RadioIndicationTypeERKNSt3__16vectorINS3_21CdmaInformationRecordENS6_9allocatorIS8_EEEE"
  },
  {
   "name" : "_ZN4aidl7android8hardware5radio5voice22BpRadioVoiceIndication12stkCallSetupENS2_19RadioIndicationTypeEx"
  },
  {
   "name" : "_ZN4aidl7android8hardware5radio5voice22BpRadioVoiceIndication15cdmaCallWaitingENS2_19RadioIndicationTypeERKNS3_15CdmaCallWaitingE"
  },
  {
   "name" : "_ZN4aidl7android8hardware5radio5voice22BpRadioVoiceIndication16callStateChangedENS2_19RadioIndicationTypeE"
  },
  {
   "name" : "_ZN4aidl7android8hardware5radio5voice22BpRadioVoiceIndication16getInterfaceHashEPNSt3__112basic_stringIcNS5_11char_traitsIcEENS5_9allocatorIcEEEE"
  },
  {
   "name" : "_ZN4aidl7android8hardware5radio5voice22BpRadioVoiceIndication16resendIncallMuteENS2_19RadioIndicationTypeE"
  },
  {
   "name" : "_ZN4aidl7android8hardware5radio5voice22BpRadioVoiceIndication16srvccStateNotifyENS2_19RadioIndicationTypeENS3_10SrvccStateE"
  },
  {
   "name" : "_ZN4aidl7android8hardware5radio5voice22BpRadioVoiceIndication19getInterfaceVersionEPi"
  },
  {
   "name" : "_ZN4aidl7android8hardware5radio5voice22BpRadioVoiceIndication20indicateRingbackToneENS2_19RadioIndicationTypeEb"
  },
  {
   "name" : "_ZN4aidl7android8hardware5radio5voice22BpRadioVoiceIndication22cdmaOtaProvisionStatusENS2_19RadioIndicationTypeENS3_22CdmaOtaProvisionStatusE"
  },
  {
   "name" : "_ZN4aidl7android8hardware5radio5voice22BpRadioVoiceIndication25exitEmergencyCallbackModeENS2_19RadioIndicationTypeE"
  },
  {
   "name" : "_ZN4aidl7android8hardware5radio5voice22BpRadioVoiceIndication25stkCallControlAlphaNotifyENS2_19RadioIndicationTypeERKNSt3__112basic_stringIcNS6_11char_traitsIcEENS6_9allocatorIcEEEE"
  },
  {
   "name" : "_ZN4aidl7android8hardware5radio5voice22BpRadioVoiceIndication26currentEmergencyNumberListENS2_19RadioIndicationTypeERKNSt3__16vectorINS3_15EmergencyNumberENS6_9allocatorIS8_EEEE"
  },
  {
   "name" : "_ZN4aidl7android8hardware5radio5voice22BpRadioVoiceIndication26enterEmergencyCallbackModeENS2_19RadioIndicationTypeE"
  },
  {
   "name" : "_ZN4aidl7android8hardware5radio5voice22BpRadioVoiceIndication32onSupplementaryServiceIndicationENS2_19RadioIndicationTypeERKNS3_18StkCcUnsolSsResultE"
  },
  {
   "name" : "_ZN4aidl7android8hardware5radio5voice22BpRadioVoiceIndication6onUssdENS2_19RadioIndicationTypeENS3_12UssdModeTypeERKNSt3__112basic_stringIcNS7_11char_traitsIcEENS7_9allocatorIcEEEE"
  },
  {
   "name" : "_ZN4aidl7android8hardware5radio5voice22BpRadioVoiceIndication8callRingENS2_19RadioIndicationTypeEbRKNS3_20CdmaSignalInfoRecordE"
  },
  {
   "name" : "_ZN4aidl7android8hardware5radio5voice22BpRadioVoiceIndicationC1ERKN3ndk10SpAIBinderE"
  },
  {
   "name" : "_ZN4aidl7android8hardware5radio5voice22BpRadioVoiceIndicationC2ERKN3ndk10SpAIBinderE"
  },
  {
   "name" : "_ZN4aidl7android8hardware5radio5voice22BpRadioVoiceIndicationD0Ev"
  },
  {
   "name" : "_ZN4aidl7android8hardware5radio5voice22BpRadioVoiceIndicationD1Ev"
  },
  {
   "name" : "_ZN4aidl7android8hardware5radio5voice22BpRadioVoiceIndicationD2Ev"
  },
  {
   "name" : "_ZN4aidl7android8hardware5radio5voice25CdmaLineControlInfoRecord14readFromParcelEPK7AParcel"
  },
  {
   "name" : "_ZN4aidl7android8hardware5radio5voice26IRadioVoiceResponseDefault12dialResponseERKNS2_17RadioResponseInfoE"
  },
  {
   "name" : "_ZN4aidl7android8hardware5radio5voice26IRadioVoiceResponseDefault15getClipResponseERKNS2_17RadioResponseInfoENS3_10ClipStatusE"
  },
  {
   "name" : "_ZN4aidl7android8hardware5radio5voice26IRadioVoiceResponseDefault15getClirResponseERKNS2_17RadioResponseInfoEii"
  },
  {
   "name" : "_ZN4aidl7android8hardware5radio5voice26IRadioVoiceResponseDefault15getMuteResponseERKNS2_17RadioResponseInfoEb"
  },
  {
   "name" : "_ZN4aidl7android8hardware5radio5voice26IRadioVoiceResponseDefault15setClirResponseERKNS2_17RadioResponseInfoE"
  },
  {
   "name" : "_ZN4aidl7android8hardware5radio5voice26IRadioVoiceResponseDefault15setMuteResponseERKNS2_17RadioResponseInfoE"
  },
  {
   "name" : "_ZN4aidl7android8hardware5radio5voice26IRadioVoiceResponseDefault16getInterfaceHashEPNSt3__112basic_stringIcNS5_11char_traitsIcEENS5_9allocatorIcEEEE"
  },
  {
   "name" : "_ZN4aidl7android8hardware5radio5voice26IRadioVoiceResponseDefault16sendDtmfResponseERKNS2_17RadioResponseInfoE"
  },
  {
   "name" : "_ZN4aidl7android8hardware5radio5voice26IRadioVoiceResponseDefault16sendUssdResponseERKNS2_17RadioResponseInfoE"
  },
  {
   "name" : "_ZN4aidl7android8hardware5radio5voice26IRadioVoiceResponseDefault16stopDtmfResponseERKNS2_17RadioResponseInfoE"
  },
  {
   "name" : "_ZN4aidl7android8hardware5radio5voice26IRadioVoiceResponseDefault17startDtmfResponseERKNS2_17RadioResponseInfoE"
  },
  {
   "name" : "_ZN4aidl7android8hardware5radio5voice26IRadioVoiceResponseDefault18acceptCallResponseERKNS2_17RadioResponseInfoE"
  },
  {
   "name" : "_ZN4aidl7android8hardware5radio5voice26IRadioVoiceResponseDefault18acknowledgeRequestEi"
  },
  {
   "name" : "_ZN4aidl7android8hardware5radio5voice26IRadioVoiceResponseDefault18conferenceResponseERKNS2_17RadioResponseInfoE"
  },
  {
   "name" : "_ZN4aidl7android8hardware5radio5voice26IRadioVoiceResponseDefault18getTtyModeResponseERKNS2_17RadioResponseInfoENS3_7TtyModeE"
  },
  {
   "name" : "_ZN4aidl7android8hardware5radio5voice26IRadioVoiceResponseDefault18rejectCallResponseERKNS2_17RadioResponseInfoE"
  },
  {
   "name" : "_ZN4aidl7android8hardware5radio5voice26IRadioVoiceResponseDefault18setTtyModeResponseERKNS2_17RadioResponseInfoE"
  },
  {
   "name" : "_ZN4aidl7android8hardware5radio5voice26IRadioVoiceResponseDefault19getInterfaceVersionEPi"
  },
  {
   "name" : "_ZN4aidl7android8hardware5radio5voice26IRadioVoiceResponseDefault21emergencyDialResponseERKNS2_17RadioResponseInfoE"
  },
  {
   "name" : "_ZN4aidl7android8hardware5radio5voice26IRadioVoiceResponseDefault21isVoNrEnabledResponseERKNS2_17RadioResponseInfoEb"
  },
  {
   "name" : "_ZN4aidl7android8hardware5radio5voice26IRadioVoiceResponseDefault21sendBurstDtmfResponseERKNS2_17RadioResponseInfoE"
  },
  {
   "name" : "_ZN4aidl7android8hardware5radio5voice26IRadioVoiceResponseDefault22getCallWaitingResponseERKNS2_17RadioResponseInfoEbi"
  },
  {
   "name" : "_ZN4aidl7android8hardware5radio5voice26IRadioVoiceResponseDefault22setCallForwardResponseERKNS2_17RadioResponseInfoE"
  },
  {
   "name" : "_ZN4aidl7android8hardware5radio5voice26IRadioVoiceResponseDefault22setCallWaitingResponseERKNS2_17RadioResponseInfoE"
  },
  {
   "name" : "_ZN4aidl7android8hardware5radio5voice26IRadioVoiceResponseDefault22setVoNrEnabledResponseERKNS2_17RadioResponseInfoE"
  },
  {
   "name" : "_ZN4aidl7android8hardware5radio5voice26IRadioVoiceResponseDefault23getCurrentCallsResponseERKNS2_17RadioResponseInfoERKNSt3__16vectorINS3_4CallENS8_9allocatorISA_EEEE"
  },
  {
   "name" : "_ZN4aidl7android8hardware5radio5voice26IRadioVoiceResponseDefault24hangupConnectionResponseERKNS2_17RadioResponseInfoE"
  },
  {
   "name" : "_ZN4aidl7android8hardware5radio5voice26IRadioVoiceResponseDefault25cancelPendingUssdResponseERKNS2_17RadioResponseInfoE"
  },
  {
   "name" : "_ZN4aidl7android8hardware5radio5voice26IRadioVoiceResponseDefault26separateConnectionResponseERKNS2_17RadioResponseInfoE"
  },
  {
   "name" : "_ZN4aidl7android8hardware5radio5voice26IRadioVoiceResponseDefault27sendCdmaFeatureCodeResponseERKNS2_17RadioResponseInfoE"
  },
  {
   "name" : "_ZN4aidl7android8hardware5radio5voice26IRadioVoiceResponseDefault28explicitCallTransferResponseERKNS2_17RadioResponseInfoE"
  },
  {
   "name" : "_ZN4aidl7android8hardware5radio5voice26IRadioVoiceResponseDefault28getCallForwardStatusResponseERKNS2_17RadioResponseInfoERKNSt3__16vectorINS3_15CallForwardInfoENS8_9allocatorISA_EEEE"
  },
  {
   "name" : "_ZN4aidl7android8hardware5radio5voice26IRadioVoiceResponseDefault28getLastCallFailCauseResponseERKNS2_17RadioResponseInfoERKNS3_21LastCallFailCauseInfoE"
  },
  {
   "name" : "_ZN4aidl7android8hardware5radio5voice26IRadioVoiceResponseDefault32getPreferredVoicePrivacyResponseERKNS2_17RadioResponseInfoEb"
  },
  {
   "name" : "_ZN4aidl7android8hardware5radio5voice26IRadioVoiceResponseDefault32setPreferredVoicePrivacyResponseERKNS2_17RadioResponseInfoE"
  },
  {
   "name" : "_ZN4aidl7android8hardware5radio5voice26IRadioVoiceResponseDefault33exitEmergencyCallbackModeResponseERKNS2_17RadioResponseInfoE"
  },
  {
   "name" : "_ZN4aidl7android8hardware5radio5voice26IRadioVoiceResponseDefault33hangupWaitingOrBackgroundResponseERKNS2_17RadioResponseInfoE"
  },
  {
   "name" : "_ZN4aidl7android8hardware5radio5voice26IRadioVoiceResponseDefault39switchWaitingOrHoldingAndActiveResponseERKNS2_17RadioResponseInfoE"
  },
  {
   "name" : "_ZN4aidl7android8hardware5radio5voice26IRadioVoiceResponseDefault40handleStkCallSetupRequestFromSimResponseERKNS2_17RadioResponseInfoE"
  },
  {
   "name" : "_ZN4aidl7android8hardware5radio5voice26IRadioVoiceResponseDefault40hangupForegroundResumeBackgroundResponseERKNS2_17RadioResponseInfoE"
  },
  {
   "name" : "_ZN4aidl7android8hardware5radio5voice26IRadioVoiceResponseDefault8asBinderEv"
  },
  {
   "name" : "_ZN4aidl7android8hardware5radio5voice26IRadioVoiceResponseDefault8isRemoteEv"
  },
  {
   "name" : "_ZN4aidl7android8hardware5radio5voice28IRadioVoiceIndicationDefault11cdmaInfoRecENS2_19RadioIndicationTypeERKNSt3__16vectorINS3_21CdmaInformationRecordENS6_9allocatorIS8_EEEE"
  },
  {
   "name" : "_ZN4aidl7android8hardware5radio5voice28IRadioVoiceIndicationDefault12stkCallSetupENS2_19RadioIndicationTypeEx"
  },
  {
   "name" : "_ZN4aidl7android8hardware5radio5voice28IRadioVoiceIndicationDefault15cdmaCallWaitingENS2_19RadioIndicationTypeERKNS3_15CdmaCallWaitingE"
  },
  {
   "name" : "_ZN4aidl7android8hardware5radio5voice28IRadioVoiceIndicationDefault16callStateChangedENS2_19RadioIndicationTypeE"
  },
  {
   "name" : "_ZN4aidl7android8hardware5radio5voice28IRadioVoiceIndicationDefault16getInterfaceHashEPNSt3__112basic_stringIcNS5_11char_traitsIcEENS5_9allocatorIcEEEE"
  },
  {
   "name" : "_ZN4aidl7android8hardware5radio5voice28IRadioVoiceIndicationDefault16resendIncallMuteENS2_19RadioIndicationTypeE"
  },
  {
   "name" : "_ZN4aidl7android8hardware5radio5voice28IRadioVoiceIndicationDefault16srvccStateNotifyENS2_19RadioIndicationTypeENS3_10SrvccStateE"
  },
  {
   "name" : "_ZN4aidl7android8hardware5radio5voice28IRadioVoiceIndicationDefault19getInterfaceVersionEPi"
  },
  {
   "name" : "_ZN4aidl7android8hardware5radio5voice28IRadioVoiceIndicationDefault20indicateRingbackToneENS2_19RadioIndicationTypeEb"
  },
  {
   "name" : "_ZN4aidl7android8hardware5radio5voice28IRadioVoiceIndicationDefault22cdmaOtaProvisionStatusENS2_19RadioIndicationTypeENS3_22CdmaOtaProvisionStatusE"
  },
  {
   "name" : "_ZN4aidl7android8hardware5radio5voice28IRadioVoiceIndicationDefault25exitEmergencyCallbackModeENS2_19RadioIndicationTypeE"
  },
  {
   "name" : "_ZN4aidl7android8hardware5radio5voice28IRadioVoiceIndicationDefault25stkCallControlAlphaNotifyENS2_19RadioIndicationTypeERKNSt3__112basic_stringIcNS6_11char_traitsIcEENS6_9allocatorIcEEEE"
  },
  {
   "name" : "_ZN4aidl7android8hardware5radio5voice28IRadioVoiceIndicationDefault26currentEmergencyNumberListENS2_19RadioIndicationTypeERKNSt3__16vectorINS3_15EmergencyNumberENS6_9allocatorIS8_EEEE"
  },
  {
   "name" : "_ZN4aidl7android8hardware5radio5voice28IRadioVoiceIndicationDefault26enterEmergencyCallbackModeENS2_19RadioIndicationTypeE"
  },
  {
   "name" : "_ZN4aidl7android8hardware5radio5voice28IRadioVoiceIndicationDefault32onSupplementaryServiceIndicationENS2_19RadioIndicationTypeERKNS3_18StkCcUnsolSsResultE"
  },
  {
   "name" : "_ZN4aidl7android8hardware5radio5voice28IRadioVoiceIndicationDefault6onUssdENS2_19RadioIndicationTypeENS3_12UssdModeTypeERKNSt3__112basic_stringIcNS7_11char_traitsIcEENS7_9allocatorIcEEEE"
  },
  {
   "name" : "_ZN4aidl7android8hardware5radio5voice28IRadioVoiceIndicationDefault8asBinderEv"
  },
  {
   "name" : "_ZN4aidl7android8hardware5radio5voice28IRadioVoiceIndicationDefault8callRingENS2_19RadioIndicationTypeEbRKNS3_20CdmaSignalInfoRecordE"
  },
  {
   "name" : "_ZN4aidl7android8hardware5radio5voice28IRadioVoiceIndicationDefault8isRemoteEv"
  },
  {
   "name" : "_ZN4aidl7android8hardware5radio5voice29CdmaT53AudioControlInfoRecord14readFromParcelEPK7AParcel"
  },
  {
   "name" : "_ZN4aidl7android8hardware5radio5voice31CdmaRedirectingNumberInfoRecord14readFromParcelEPK7AParcel"
  },
  {
   "name" : "_ZN4aidl7android8hardware5radio5voice4Call14readFromParcelEPK7AParcel"
  },
  {
   "name" : "_ZN4aidl7android8hardware5radio5voice4Dial14readFromParcelEPK7AParcel"
  },
  {
   "name" : "_ZN4aidl7android8hardware5radio5voice6CfData14readFromParcelEPK7AParcel"
  },
  {
   "name" : "_ZN4aidl7android8hardware5radio5voice7UusInfo14readFromParcelEPK7AParcel"
  },
  {
   "name" : "_ZNK4aidl7android8hardware5radio5voice10SsInfoData13writeToParcelEP7AParcel"
  },
  {
   "name" : "_ZNK4aidl7android8hardware5radio5voice15CallForwardInfo13writeToParcelEP7AParcel"
  },
  {
   "name" : "_ZNK4aidl7android8hardware5radio5voice15CdmaCallWaiting13writeToParcelEP7AParcel"
  },
  {
   "name" : "_ZNK4aidl7android8hardware5radio5voice15EmergencyNumber13writeToParcelEP7AParcel"
  },
  {
   "name" : "_ZNK4aidl7android8hardware5radio5voice18StkCcUnsolSsResult13writeToParcelEP7AParcel"
  },
  {
   "name" : "_ZNK4aidl7android8hardware5radio5voice20CdmaNumberInfoRecord13writeToParcelEP7AParcel"
  },
  {
   "name" : "_ZNK4aidl7android8hardware5radio5voice20CdmaSignalInfoRecord13writeToParcelEP7AParcel"
  },
  {
   "name" : "_ZNK4aidl7android8hardware5radio5voice21CdmaDisplayInfoRecord13writeToParcelEP7AParcel"
  },
  {
   "name" : "_ZNK4aidl7android8hardware5radio5voice21CdmaInformationRecord13writeToParcelEP7AParcel"
  },
  {
   "name" : "_ZNK4aidl7android8hardware5radio5voice21CdmaT53ClirInfoRecord13writeToParcelEP7AParcel"
  },
  {
   "name" : "_ZNK4aidl7android8hardware5radio5voice21LastCallFailCauseInfo13writeToParcelEP7AParcel"
  },
  {
   "name" : "_ZNK4aidl7android8hardware5radio5voice25CdmaLineControlInfoRecord13writeToParcelEP7AParcel"
  },
  {
   "name" : "_ZNK4aidl7android8hardware5radio5voice29CdmaT53AudioControlInfoRecord13writeToParcelEP7AParcel"
  },
  {
   "name" : "_ZNK4aidl7android8hardware5radio5voice31CdmaRedirectingNumberInfoRecord13writeToParcelEP7AParcel"
  },
  {
   "name" : "_ZNK4aidl7android8hardware5radio5voice4Call13writeToParcelEP7AParcel"
  },
  {
   "name" : "_ZNK4aidl7android8hardware5radio5voice4Dial13writeToParcelEP7AParcel"
  },
  {
   "name" : "_ZNK4aidl7android8hardware5radio5voice6CfData13writeToParcelEP7AParcel"
  },
  {
   "name" : "_ZNK4aidl7android8hardware5radio5voice7UusInfo13writeToParcelEP7AParcel"
  },
  {
   "binding" : "weak",
   "name" : "_ZNSt3__110shared_ptrIN4aidl7android8hardware5radio5voice11IRadioVoiceEED2Ev"
  },
  {
   "binding" : "weak",
   "name" : "_ZNSt3__110shared_ptrIN4aidl7android8hardware5radio5voice19IRadioVoiceResponseEED2Ev"
  },
  {
   "binding" : "weak",
   "name" : "_ZNSt3__110shared_ptrIN4aidl7android8hardware5radio5voice21IRadioVoiceIndicationEED2Ev"
  },
  {
   "binding" : "weak",
   "name" : "_ZNSt3__120__shared_ptr_pointerIPN3ndk13SharedRefBaseENS_14default_deleteIS2_EENS_9allocatorIS2_EEE16__on_zero_sharedEv"
  },
  {
   "binding" : "weak",
   "name" : "_ZNSt3__120__shared_ptr_pointerIPN3ndk13SharedRefBaseENS_14default_deleteIS2_EENS_9allocatorIS2_EEE21__on_zero_shared_weakEv"
  },
  {
   "binding" : "weak",
   "name" : "_ZNSt3__16vectorIN4aidl7android8hardware5radio5voice10SsInfoDataENS_9allocatorIS6_EEE8__appendEj"
  },
  {
   "binding" : "weak",
   "name" : "_ZNSt3__16vectorIN4aidl7android8hardware5radio5voice15CallForwardInfoENS_9allocatorIS6_EEE8__appendEj"
  },
  {
   "binding" : "weak",
   "name" : "_ZNSt3__16vectorIN4aidl7android8hardware5radio5voice15EmergencyNumberENS_9allocatorIS6_EEE8__appendEj"
  },
  {
   "binding" : "weak",
   "name" : "_ZNSt3__16vectorIN4aidl7android8hardware5radio5voice20CdmaNumberInfoRecordENS_9allocatorIS6_EEE8__appendEj"
  },
  {
   "binding" : "weak",
   "name" : "_ZNSt3__16vectorIN4aidl7android8hardware5radio5voice20CdmaSignalInfoRecordENS_9allocatorIS6_EEE8__appendEj"
  },
  {
   "binding" : "weak",
   "name" : "_ZNSt3__16vectorIN4aidl7android8hardware5radio5voice21CdmaDisplayInfoRecordENS_9allocatorIS6_EEE8__appendEj"
  },
  {
   "binding" : "weak",
   "name" : "_ZNSt3__16vectorIN4aidl7android8hardware5radio5voice21CdmaInformationRecordENS_9allocatorIS6_EEE8__appendEj"
  },
  {
   "binding" : "weak",
   "name" : "_ZNSt3__16vectorIN4aidl7android8hardware5radio5voice21CdmaT53ClirInfoRecordENS_9allocatorIS6_EEE8__appendEj"
  },
  {
   "binding" : "weak",
   "name" : "_ZNSt3__16vectorIN4aidl7android8hardware5radio5voice25CdmaLineControlInfoRecordENS_9allocatorIS6_EEE8__appendEj"
  },
  {
   "binding" : "weak",
   "name" : "_ZNSt3__16vectorIN4aidl7android8hardware5radio5voice29CdmaT53AudioControlInfoRecordENS_9allocatorIS6_EEE8__appendEj"
  },
  {
   "binding" : "weak",
   "name" : "_ZNSt3__16vectorIN4aidl7android8hardware5radio5voice31CdmaRedirectingNumberInfoRecordENS_9allocatorIS6_EEE8__appendEj"
  },
  {
   "binding" : "weak",
   "name" : "_ZNSt3__16vectorIN4aidl7android8hardware5radio5voice4CallENS_9allocatorIS6_EEE8__appendEj"
  },
  {
   "binding" : "weak",
   "name" : "_ZNSt3__16vectorIN4aidl7android8hardware5radio5voice6CfDataENS_9allocatorIS6_EEE8__appendEj"
  },
  {
   "binding" : "weak",
   "name" : "_ZNSt3__16vectorIN4aidl7android8hardware5radio5voice7UusInfoENS_9allocatorIS6_EEE8__appendEj"
  },
  {
   "binding" : "weak",
   "name" : "_ZNSt3__16vectorINS_12basic_stringIcNS_11char_traitsIcEENS_9allocatorIcEEEENS4_IS6_EEE8__appendEj"
  },
  {
   "binding" : "weak",
   "name" : "_ZNSt3__16vectorIiNS_9allocatorIiEEE8__appendEj"
  }
 ],
 "elf_objects" :
 [
  {
   "binding" : "weak",
   "name" : "_ZGVN4aidl7android8hardware5radio5voice11IRadioVoice4hashE"
  },
  {
   "binding" : "weak",
   "name" : "_ZGVN4aidl7android8hardware5radio5voice19IRadioVoiceResponse4hashE"
  },
  {
   "binding" : "weak",
   "name" : "_ZGVN4aidl7android8hardware5radio5voice21IRadioVoiceIndication4hashE"
  },
  {
   "name" : "_ZN4aidl7android8hardware5radio5voice10SsInfoData10descriptorE"
  },
  {
   "name" : "_ZN4aidl7android8hardware5radio5voice11IRadioVoice10descriptorE"
  },
  {
   "name" : "_ZN4aidl7android8hardware5radio5voice11IRadioVoice12default_implE"
  },
  {
   "binding" : "weak",
   "name" : "_ZN4aidl7android8hardware5radio5voice11IRadioVoice4hashE"
  },
  {
   "name" : "_ZN4aidl7android8hardware5radio5voice15CallForwardInfo10descriptorE"
  },
  {
   "name" : "_ZN4aidl7android8hardware5radio5voice15CdmaCallWaiting10descriptorE"
  },
  {
   "name" : "_ZN4aidl7android8hardware5radio5voice15EmergencyNumber10descriptorE"
  },
  {
   "name" : "_ZN4aidl7android8hardware5radio5voice18StkCcUnsolSsResult10descriptorE"
  },
  {
   "name" : "_ZN4aidl7android8hardware5radio5voice19IRadioVoiceResponse10descriptorE"
  },
  {
   "name" : "_ZN4aidl7android8hardware5radio5voice19IRadioVoiceResponse12default_implE"
  },
  {
   "binding" : "weak",
   "name" : "_ZN4aidl7android8hardware5radio5voice19IRadioVoiceResponse4hashE"
  },
  {
   "name" : "_ZN4aidl7android8hardware5radio5voice20CdmaNumberInfoRecord10descriptorE"
  },
  {
   "name" : "_ZN4aidl7android8hardware5radio5voice20CdmaSignalInfoRecord10descriptorE"
  },
  {
   "name" : "_ZN4aidl7android8hardware5radio5voice21CdmaDisplayInfoRecord10descriptorE"
  },
  {
   "name" : "_ZN4aidl7android8hardware5radio5voice21CdmaInformationRecord10descriptorE"
  },
  {
   "name" : "_ZN4aidl7android8hardware5radio5voice21CdmaT53ClirInfoRecord10descriptorE"
  },
  {
   "name" : "_ZN4aidl7android8hardware5radio5voice21IRadioVoiceIndication10descriptorE"
  },
  {
   "name" : "_ZN4aidl7android8hardware5radio5voice21IRadioVoiceIndication12default_implE"
  },
  {
   "binding" : "weak",
   "name" : "_ZN4aidl7android8hardware5radio5voice21IRadioVoiceIndication4hashE"
  },
  {
   "name" : "_ZN4aidl7android8hardware5radio5voice21LastCallFailCauseInfo10descriptorE"
  },
  {
   "name" : "_ZN4aidl7android8hardware5radio5voice25CdmaLineControlInfoRecord10descriptorE"
  },
  {
   "name" : "_ZN4aidl7android8hardware5radio5voice29CdmaT53AudioControlInfoRecord10descriptorE"
  },
  {
   "name" : "_ZN4aidl7android8hardware5radio5voice31CdmaRedirectingNumberInfoRecord10descriptorE"
  },
  {
   "name" : "_ZN4aidl7android8hardware5radio5voice4Call10descriptorE"
  },
  {
   "name" : "_ZN4aidl7android8hardware5radio5voice4Dial10descriptorE"
  },
  {
   "name" : "_ZN4aidl7android8hardware5radio5voice6CfData10descriptorE"
  },
  {
   "name" : "_ZN4aidl7android8hardware5radio5voice7UusInfo10descriptorE"
  },
  {
   "binding" : "weak",
   "name" : "_ZTVN3ndk12BnCInterfaceIN4aidl7android8hardware5radio5voice11IRadioVoiceEEE"
  },
  {
   "binding" : "weak",
   "name" : "_ZTVN3ndk12BnCInterfaceIN4aidl7android8hardware5radio5voice19IRadioVoiceResponseEEE"
  },
  {
   "binding" : "weak",
   "name" : "_ZTVN3ndk12BnCInterfaceIN4aidl7android8hardware5radio5voice21IRadioVoiceIndicationEEE"
  },
  {
   "binding" : "weak",
   "name" : "_ZTVN3ndk12BpCInterfaceIN4aidl7android8hardware5radio5voice11IRadioVoiceEEE"
  },
  {
   "binding" : "weak",
   "name" : "_ZTVN3ndk12BpCInterfaceIN4aidl7android8hardware5radio5voice19IRadioVoiceResponseEEE"
  },
  {
   "binding" : "weak",
   "name" : "_ZTVN3ndk12BpCInterfaceIN4aidl7android8hardware5radio5voice21IRadioVoiceIndicationEEE"
  },
  {
   "binding" : "weak",
   "name" : "_ZTVN3ndk13SharedRefBaseE"
  },
  {
   "name" : "_ZTVN4aidl7android8hardware5radio5voice11IRadioVoiceE"
  },
  {
   "name" : "_ZTVN4aidl7android8hardware5radio5voice12BnRadioVoiceE"
  },
  {
   "name" : "_ZTVN4aidl7android8hardware5radio5voice12BpRadioVoiceE"
  },
  {
   "name" : "_ZTVN4aidl7android8hardware5radio5voice18IRadioVoiceDefaultE"
  },
  {
   "name" : "_ZTVN4aidl7android8hardware5radio5voice19IRadioVoiceResponseE"
  },
  {
   "name" : "_ZTVN4aidl7android8hardware5radio5voice20BnRadioVoiceResponseE"
  },
  {
   "name" : "_ZTVN4aidl7android8hardware5radio5voice20BpRadioVoiceResponseE"
  },
  {
   "name" : "_ZTVN4aidl7android8hardware5radio5voice21IRadioVoiceIndicationE"
  },
  {
   "name" : "_ZTVN4aidl7android8hardware5radio5voice22BnRadioVoiceIndicationE"
  },
  {
   "name" : "_ZTVN4aidl7android8hardware5radio5voice22BpRadioVoiceIndicationE"
  },
  {
   "name" : "_ZTVN4aidl7android8hardware5radio5voice26IRadioVoiceResponseDefaultE"
  },
  {
   "name" : "_ZTVN4aidl7android8hardware5radio5voice28IRadioVoiceIndicationDefaultE"
  },
  {
   "binding" : "weak",
   "name" : "_ZTVNSt3__120__shared_ptr_pointerIPN3ndk13SharedRefBaseENS_14default_deleteIS2_EENS_9allocatorIS2_EEEE"
  }
 ],
 "enum_types" :
 [
  {
   "alignment" : 4,
   "enum_fields" :
   [
    {
     "enum_field_value" : 1,
     "name" : "FLAG_ONEWAY"
    }
   ],
   "linker_set_key" : "_ZTI12$FLAG_ONEWAY",
   "name" : "(unnamed enum at frameworks/native/libs/binder/ndk/include_ndk/android/binder_ibinder.h:43:1)",
   "referenced_type" : "_ZTI12$FLAG_ONEWAY",
   "self_type" : "_ZTI12$FLAG_ONEWAY",
   "size" : 4,
   "source_file" : "frameworks/native/libs/binder/ndk/include_ndk/android/binder_ibinder.h",
   "underlying_type" : "_ZTIj"
  },
  {
   "alignment" : 4,
   "enum_fields" :
   [
    {
     "enum_field_value" : 0,
     "name" : "EX_NONE"
    },
    {
     "enum_field_value" : -1,
     "name" : "EX_SECURITY"
    },
    {
     "enum_field_value" : -2,
     "name" : "EX_BAD_PARCELABLE"
    },
    {
     "enum_field_value" : -3,
     "name" : "EX_ILLEGAL_ARGUMENT"
    },
    {
     "enum_field_value" : -4,
     "name" : "EX_NULL_POINTER"
    },
    {
     "enum_field_value" : -5,
     "name" : "EX_ILLEGAL_STATE"
    },
    {
     "enum_field_value" : -6,
     "name" : "EX_NETWORK_MAIN_THREAD"
    },
    {
     "enum_field_value" : -7,
     "name" : "EX_UNSUPPORTED_OPERATION"
    },
    {
     "enum_field_value" : -8,
     "name" : "EX_SERVICE_SPECIFIC"
    },
    {
     "enum_field_value" : -9,
     "name" : "EX_PARCELABLE"
    },
    {
     "enum_field_value" : -129,
     "name" : "EX_TRANSACTION_FAILED"
    }
   ],
   "linker_set_key" : "_ZTI18$EX_BAD_PARCELABLE",
   "name" : "(unnamed enum at frameworks/native/libs/binder/ndk/include_ndk/android/binder_status.h:94:1)",
   "referenced_type" : "_ZTI18$EX_BAD_PARCELABLE",
   "self_type" : "_ZTI18$EX_BAD_PARCELABLE",
   "size" : 4,
   "source_file" : "frameworks/native/libs/binder/ndk/include_ndk/android/binder_status.h",
   "underlying_type" : "_ZTIi"
  },
  {
   "alignment" : 4,
   "enum_fields" :
   [
    {
     "enum_field_value" : 268435456,
     "name" : "FLAG_PRIVATE_LOCAL"
    }
   ],
   "linker_set_key" : "_ZTI19$FLAG_PRIVATE_LOCAL",
   "name" : "(unnamed enum at frameworks/native/libs/binder/ndk/include_platform/android/binder_stability.h:35:1)",
   "referenced_type" : "_ZTI19$FLAG_PRIVATE_LOCAL",
   "self_type" : "_ZTI19$FLAG_PRIVATE_LOCAL",
   "size" : 4,
   "source_file" : "frameworks/native/libs/binder/ndk/include_platform/android/binder_stability.h",
   "underlying_type" : "_ZTIj"
  },
  {
   "alignment" : 4,
   "enum_fields" :
   [
    {
     "enum_field_value" : 268435456,
     "name" : "FLAG_PRIVATE_VENDOR"
    }
   ],
   "linker_set_key" : "_ZTI20$FLAG_PRIVATE_VENDOR",
   "name" : "(unnamed enum at frameworks/native/libs/binder/ndk/include_platform/android/binder_stability.h:26:1)",
   "referenced_type" : "_ZTI20$FLAG_PRIVATE_VENDOR",
   "self_type" : "_ZTI20$FLAG_PRIVATE_VENDOR",
   "size" : 4,
   "source_file" : "frameworks/native/libs/binder/ndk/include_platform/android/binder_stability.h",
   "underlying_type" : "_ZTIj"
  },
  {
   "alignment" : 4,
   "enum_fields" :
   [
    {
     "enum_field_value" : 0,
     "name" : "STATUS_OK"
    },
    {
     "enum_field_value" : -2147483648,
     "name" : "STATUS_UNKNOWN_ERROR"
    },
    {
     "enum_field_value" : -12,
     "name" : "STATUS_NO_MEMORY"
    },
    {
     "enum_field_value" : -38,
     "name" : "STATUS_INVALID_OPERATION"
    },
    {
     "enum_field_value" : -22,
     "name" : "STATUS_BAD_VALUE"
    },
    {
     "enum_field_value" : -2147483647,
     "name" : "STATUS_BAD_TYPE"
    },
    {
     "enum_field_value" : -2,
     "name" : "STATUS_NAME_NOT_FOUND"
    },
    {
     "enum_field_value" : -1,
     "name" : "STATUS_PERMISSION_DENIED"
    },
    {
     "enum_field_value" : -19,
     "name" : "STATUS_NO_INIT"
    },
    {
     "enum_field_value" : -17,
     "name" : "STATUS_ALREADY_EXISTS"
    },
    {
     "enum_field_value" : -32,
     "name" : "STATUS_DEAD_OBJECT"
    },
    {
     "enum_field_value" : -2147483646,
     "name" : "STATUS_FAILED_TRANSACTION"
    },
    {
     "enum_field_value" : -75,
     "name" : "STATUS_BAD_INDEX"
    },
    {
     "enum_field_value" : -61,
     "name" : "STATUS_NOT_ENOUGH_DATA"
    },
    {
     "enum_field_value" : -11,
     "name" : "STATUS_WOULD_BLOCK"
    },
    {
     "enum_field_value" : -110,
     "name" : "STATUS_TIMED_OUT"
    },
    {
     "enum_field_value" : -74,
     "name" : "STATUS_UNKNOWN_TRANSACTION"
    },
    {
     "enum_field_value" : -2147483641,
     "name" : "STATUS_FDS_NOT_ALLOWED"
    },
    {
     "enum_field_value" : -2147483640,
     "name" : "STATUS_UNEXPECTED_NULL"
    }
   ],
   "linker_set_key" : "_ZTI22$STATUS_ALREADY_EXISTS",
   "name" : "(unnamed enum at frameworks/native/libs/binder/ndk/include_ndk/android/binder_status.h:60:1)",
   "referenced_type" : "_ZTI22$STATUS_ALREADY_EXISTS",
   "self_type" : "_ZTI22$STATUS_ALREADY_EXISTS",
   "size" : 4,
   "source_file" : "frameworks/native/libs/binder/ndk/include_ndk/android/binder_status.h",
   "underlying_type" : "_ZTIi"
  },
  {
   "alignment" : 4,
   "enum_fields" :
   [
    {
     "enum_field_value" : 1,
     "name" : "FIRST_CALL_TRANSACTION"
    },
    {
     "enum_field_value" : 16777215,
     "name" : "LAST_CALL_TRANSACTION"
    }
   ],
   "linker_set_key" : "_ZTI23$FIRST_CALL_TRANSACTION",
   "name" : "(unnamed enum at frameworks/native/libs/binder/ndk/include_ndk/android/binder_ibinder.h:58:1)",
   "referenced_type" : "_ZTI23$FIRST_CALL_TRANSACTION",
   "self_type" : "_ZTI23$FIRST_CALL_TRANSACTION",
   "size" : 4,
   "source_file" : "frameworks/native/libs/binder/ndk/include_ndk/android/binder_ibinder.h",
   "underlying_type" : "_ZTIj"
  },
  {
   "alignment" : 4,
   "enum_fields" :
   [
    {
     "enum_field_value" : 0,
     "name" : "ndk::STABILITY_LOCAL"
    },
    {
     "enum_field_value" : 1,
     "name" : "ndk::STABILITY_VINTF"
    }
   ],
   "linker_set_key" : "_ZTIN3ndk16$STABILITY_LOCALE",
   "name" : "ndk::(unnamed enum at frameworks/native/libs/binder/ndk/include_cpp/android/binder_parcelable_utils.h:34:1)",
   "referenced_type" : "_ZTIN3ndk16$STABILITY_LOCALE",
   "self_type" : "_ZTIN3ndk16$STABILITY_LOCALE",
   "size" : 4,
   "source_file" : "frameworks/native/libs/binder/ndk/include_cpp/android/binder_parcelable_utils.h",
   "underlying_type" : "_ZTIj"
  },
  {
   "alignment" : 4,
   "enum_fields" :
   [
    {
     "enum_field_value" : 0,
     "name" : "aidl::android::hardware::radio::RadioError::NONE"
    },
    {
     "enum_field_value" : 1,
     "name" : "aidl::android::hardware::radio::RadioError::RADIO_NOT_AVAILABLE"
    },
    {
     "enum_field_value" : 2,
     "name" : "aidl::android::hardware::radio::RadioError::GENERIC_FAILURE"
    },
    {
     "enum_field_value" : 3,
     "name" : "aidl::android::hardware::radio::RadioError::PASSWORD_INCORRECT"
    },
    {
     "enum_field_value" : 4,
     "name" : "aidl::android::hardware::radio::RadioError::SIM_PIN2"
    },
    {
     "enum_field_value" : 5,
     "name" : "aidl::android::hardware::radio::RadioError::SIM_PUK2"
    },
    {
     "enum_field_value" : 6,
     "name" : "aidl::android::hardware::radio::RadioError::REQUEST_NOT_SUPPORTED"
    },
    {
     "enum_field_value" : 7,
     "name" : "aidl::android::hardware::radio::RadioError::CANCELLED"
    },
    {
     "enum_field_value" : 8,
     "name" : "aidl::android::hardware::radio::RadioError::OP_NOT_ALLOWED_DURING_VOICE_CALL"
    },
    {
     "enum_field_value" : 9,
     "name" : "aidl::android::hardware::radio::RadioError::OP_NOT_ALLOWED_BEFORE_REG_TO_NW"
    },
    {
     "enum_field_value" : 10,
     "name" : "aidl::android::hardware::radio::RadioError::SMS_SEND_FAIL_RETRY"
    },
    {
     "enum_field_value" : 11,
     "name" : "aidl::android::hardware::radio::RadioError::SIM_ABSENT"
    },
    {
     "enum_field_value" : 12,
     "name" : "aidl::android::hardware::radio::RadioError::SUBSCRIPTION_NOT_AVAILABLE"
    },
    {
     "enum_field_value" : 13,
     "name" : "aidl::android::hardware::radio::RadioError::MODE_NOT_SUPPORTED"
    },
    {
     "enum_field_value" : 14,
     "name" : "aidl::android::hardware::radio::RadioError::FDN_CHECK_FAILURE"
    },
    {
     "enum_field_value" : 15,
     "name" : "aidl::android::hardware::radio::RadioError::ILLEGAL_SIM_OR_ME"
    },
    {
     "enum_field_value" : 16,
     "name" : "aidl::android::hardware::radio::RadioError::MISSING_RESOURCE"
    },
    {
     "enum_field_value" : 17,
     "name" : "aidl::android::hardware::radio::RadioError::NO_SUCH_ELEMENT"
    },
    {
     "enum_field_value" : 18,
     "name" : "aidl::android::hardware::radio::RadioError::DIAL_MODIFIED_TO_USSD"
    },
    {
     "enum_field_value" : 19,
     "name" : "aidl::android::hardware::radio::RadioError::DIAL_MODIFIED_TO_SS"
    },
    {
     "enum_field_value" : 20,
     "name" : "aidl::android::hardware::radio::RadioError::DIAL_MODIFIED_TO_DIAL"
    },
    {
     "enum_field_value" : 21,
     "name" : "aidl::android::hardware::radio::RadioError::USSD_MODIFIED_TO_DIAL"
    },
    {
     "enum_field_value" : 22,
     "name" : "aidl::android::hardware::radio::RadioError::USSD_MODIFIED_TO_SS"
    },
    {
     "enum_field_value" : 23,
     "name" : "aidl::android::hardware::radio::RadioError::USSD_MODIFIED_TO_USSD"
    },
    {
     "enum_field_value" : 24,
     "name" : "aidl::android::hardware::radio::RadioError::SS_MODIFIED_TO_DIAL"
    },
    {
     "enum_field_value" : 25,
     "name" : "aidl::android::hardware::radio::RadioError::SS_MODIFIED_TO_USSD"
    },
    {
     "enum_field_value" : 26,
     "name" : "aidl::android::hardware::radio::RadioError::SUBSCRIPTION_NOT_SUPPORTED"
    },
    {
     "enum_field_value" : 27,
     "name" : "aidl::android::hardware::radio::RadioError::SS_MODIFIED_TO_SS"
    },
    {
     "enum_field_value" : 36,
     "name" : "aidl::android::hardware::radio::RadioError::LCE_NOT_SUPPORTED"
    },
    {
     "enum_field_value" : 37,
     "name" : "aidl::android::hardware::radio::RadioError::NO_MEMORY"
    },
    {
     "enum_field_value" : 38,
     "name" : "aidl::android::hardware::radio::RadioError::INTERNAL_ERR"
    },
    {
     "enum_field_value" : 39,
     "name" : "aidl::android::hardware::radio::RadioError::SYSTEM_ERR"
    },
    {
     "enum_field_value" : 40,
     "name" : "aidl::android::hardware::radio::RadioError::MODEM_ERR"
    },
    {
     "enum_field_value" : 41,
     "name" : "aidl::android::hardware::radio::RadioError::INVALID_STATE"
    },
    {
     "enum_field_value" : 42,
     "name" : "aidl::android::hardware::radio::RadioError::NO_RESOURCES"
    },
    {
     "enum_field_value" : 43,
     "name" : "aidl::android::hardware::radio::RadioError::SIM_ERR"
    },
    {
     "enum_field_value" : 44,
     "name" : "aidl::android::hardware::radio::RadioError::INVALID_ARGUMENTS"
    },
    {
     "enum_field_value" : 45,
     "name" : "aidl::android::hardware::radio::RadioError::INVALID_SIM_STATE"
    },
    {
     "enum_field_value" : 46,
     "name" : "aidl::android::hardware::radio::RadioError::INVALID_MODEM_STATE"
    },
    {
     "enum_field_value" : 47,
     "name" : "aidl::android::hardware::radio::RadioError::INVALID_CALL_ID"
    },
    {
     "enum_field_value" : 48,
     "name" : "aidl::android::hardware::radio::RadioError::NO_SMS_TO_ACK"
    },
    {
     "enum_field_value" : 49,
     "name" : "aidl::android::hardware::radio::RadioError::NETWORK_ERR"
    },
    {
     "enum_field_value" : 50,
     "name" : "aidl::android::hardware::radio::RadioError::REQUEST_RATE_LIMITED"
    },
    {
     "enum_field_value" : 51,
     "name" : "aidl::android::hardware::radio::RadioError::SIM_BUSY"
    },
    {
     "enum_field_value" : 52,
     "name" : "aidl::android::hardware::radio::RadioError::SIM_FULL"
    },
    {
     "enum_field_value" : 53,
     "name" : "aidl::android::hardware::radio::RadioError::NETWORK_REJECT"
    },
    {
     "enum_field_value" : 54,
     "name" : "aidl::android::hardware::radio::RadioError::OPERATION_NOT_ALLOWED"
    },
    {
     "enum_field_value" : 55,
     "name" : "aidl::android::hardware::radio::RadioError::EMPTY_RECORD"
    },
    {
     "enum_field_value" : 56,
     "name" : "aidl::android::hardware::radio::RadioError::INVALID_SMS_FORMAT"
    },
    {
     "enum_field_value" : 57,
     "name" : "aidl::android::hardware::radio::RadioError::ENCODING_ERR"
    },
    {
     "enum_field_value" : 58,
     "name" : "aidl::android::hardware::radio::RadioError::INVALID_SMSC_ADDRESS"
    },
    {
     "enum_field_value" : 59,
     "name" : "aidl::android::hardware::radio::RadioError::NO_SUCH_ENTRY"
    },
    {
     "enum_field_value" : 60,
     "name" : "aidl::android::hardware::radio::RadioError::NETWORK_NOT_READY"
    },
    {
     "enum_field_value" : 61,
     "name" : "aidl::android::hardware::radio::RadioError::NOT_PROVISIONED"
    },
    {
     "enum_field_value" : 62,
     "name" : "aidl::android::hardware::radio::RadioError::NO_SUBSCRIPTION"
    },
    {
     "enum_field_value" : 63,
     "name" : "aidl::android::hardware::radio::RadioError::NO_NETWORK_FOUND"
    },
    {
     "enum_field_value" : 64,
     "name" : "aidl::android::hardware::radio::RadioError::DEVICE_IN_USE"
    },
    {
     "enum_field_value" : 65,
     "name" : "aidl::android::hardware::radio::RadioError::ABORTED"
    },
    {
     "enum_field_value" : 66,
     "name" : "aidl::android::hardware::radio::RadioError::INVALID_RESPONSE"
    },
    {
     "enum_field_value" : 501,
     "name" : "aidl::android::hardware::radio::RadioError::OEM_ERROR_1"
    },
    {
     "enum_field_value" : 502,
     "name" : "aidl::android::hardware::radio::RadioError::OEM_ERROR_2"
    },
    {
     "enum_field_value" : 503,
     "name" : "aidl::android::hardware::radio::RadioError::OEM_ERROR_3"
    },
    {
     "enum_field_value" : 504,
     "name" : "aidl::android::hardware::radio::RadioError::OEM_ERROR_4"
    },
    {
     "enum_field_value" : 505,
     "name" : "aidl::android::hardware::radio::RadioError::OEM_ERROR_5"
    },
    {
     "enum_field_value" : 506,
     "name" : "aidl::android::hardware::radio::RadioError::OEM_ERROR_6"
    },
    {
     "enum_field_value" : 507,
     "name" : "aidl::android::hardware::radio::RadioError::OEM_ERROR_7"
    },
    {
     "enum_field_value" : 508,
     "name" : "aidl::android::hardware::radio::RadioError::OEM_ERROR_8"
    },
    {
     "enum_field_value" : 509,
     "name" : "aidl::android::hardware::radio::RadioError::OEM_ERROR_9"
    },
    {
     "enum_field_value" : 510,
     "name" : "aidl::android::hardware::radio::RadioError::OEM_ERROR_10"
    },
    {
     "enum_field_value" : 511,
     "name" : "aidl::android::hardware::radio::RadioError::OEM_ERROR_11"
    },
    {
     "enum_field_value" : 512,
     "name" : "aidl::android::hardware::radio::RadioError::OEM_ERROR_12"
    },
    {
     "enum_field_value" : 513,
     "name" : "aidl::android::hardware::radio::RadioError::OEM_ERROR_13"
    },
    {
     "enum_field_value" : 514,
     "name" : "aidl::android::hardware::radio::RadioError::OEM_ERROR_14"
    },
    {
     "enum_field_value" : 515,
     "name" : "aidl::android::hardware::radio::RadioError::OEM_ERROR_15"
    },
    {
     "enum_field_value" : 516,
     "name" : "aidl::android::hardware::radio::RadioError::OEM_ERROR_16"
    },
    {
     "enum_field_value" : 517,
     "name" : "aidl::android::hardware::radio::RadioError::OEM_ERROR_17"
    },
    {
     "enum_field_value" : 518,
     "name" : "aidl::android::hardware::radio::RadioError::OEM_ERROR_18"
    },
    {
     "enum_field_value" : 519,
     "name" : "aidl::android::hardware::radio::RadioError::OEM_ERROR_19"
    },
    {
     "enum_field_value" : 520,
     "name" : "aidl::android::hardware::radio::RadioError::OEM_ERROR_20"
    },
    {
     "enum_field_value" : 521,
     "name" : "aidl::android::hardware::radio::RadioError::OEM_ERROR_21"
    },
    {
     "enum_field_value" : 522,
     "name" : "aidl::android::hardware::radio::RadioError::OEM_ERROR_22"
    },
    {
     "enum_field_value" : 523,
     "name" : "aidl::android::hardware::radio::RadioError::OEM_ERROR_23"
    },
    {
     "enum_field_value" : 524,
     "name" : "aidl::android::hardware::radio::RadioError::OEM_ERROR_24"
    },
    {
     "enum_field_value" : 525,
     "name" : "aidl::android::hardware::radio::RadioError::OEM_ERROR_25"
    },
    {
     "enum_field_value" : 67,
     "name" : "aidl::android::hardware::radio::RadioError::SIMULTANEOUS_SMS_AND_CALL_NOT_ALLOWED"
    },
    {
     "enum_field_value" : 68,
     "name" : "aidl::android::hardware::radio::RadioError::ACCESS_BARRED"
    },
    {
     "enum_field_value" : 69,
     "name" : "aidl::android::hardware::radio::RadioError::BLOCKED_DUE_TO_CALL"
    },
    {
     "enum_field_value" : 70,
     "name" : "aidl::android::hardware::radio::RadioError::RF_HARDWARE_ISSUE"
    },
    {
     "enum_field_value" : 71,
     "name" : "aidl::android::hardware::radio::RadioError::NO_RF_CALIBRATION_INFO"
    }
   ],
   "linker_set_key" : "_ZTIN4aidl7android8hardware5radio10RadioErrorE",
   "name" : "aidl::android::hardware::radio::RadioError",
   "referenced_type" : "_ZTIN4aidl7android8hardware5radio10RadioErrorE",
   "self_type" : "_ZTIN4aidl7android8hardware5radio10RadioErrorE",
   "size" : 4,
   "source_file" : "out/soong/.intermediates/hardware/interfaces/radio/aidl/android.hardware.radio-V1-ndk-source/gen/include/aidl/android/hardware/radio/RadioError.h",
   "underlying_type" : "_ZTIi"
  },
  {
   "alignment" : 4,
   "enum_fields" :
   [
    {
     "enum_field_value" : 0,
     "name" : "aidl::android::hardware::radio::RadioResponseType::SOLICITED"
    },
    {
     "enum_field_value" : 1,
     "name" : "aidl::android::hardware::radio::RadioResponseType::SOLICITED_ACK"
    },
    {
     "enum_field_value" : 2,
     "name" : "aidl::android::hardware::radio::RadioResponseType::SOLICITED_ACK_EXP"
    }
   ],
   "linker_set_key" : "_ZTIN4aidl7android8hardware5radio17RadioResponseTypeE",
   "name" : "aidl::android::hardware::radio::RadioResponseType",
   "referenced_type" : "_ZTIN4aidl7android8hardware5radio17RadioResponseTypeE",
   "self_type" : "_ZTIN4aidl7android8hardware5radio17RadioResponseTypeE",
   "size" : 4,
   "source_file" : "out/soong/.intermediates/hardware/interfaces/radio/aidl/android.hardware.radio-V1-ndk-source/gen/include/aidl/android/hardware/radio/RadioResponseType.h",
   "underlying_type" : "_ZTIi"
  },
  {
   "alignment" : 4,
   "enum_fields" :
   [
    {
     "enum_field_value" : 0,
     "name" : "aidl::android::hardware::radio::RadioIndicationType::UNSOLICITED"
    },
    {
     "enum_field_value" : 1,
     "name" : "aidl::android::hardware::radio::RadioIndicationType::UNSOLICITED_ACK_EXP"
    }
   ],
   "linker_set_key" : "_ZTIN4aidl7android8hardware5radio19RadioIndicationTypeE",
   "name" : "aidl::android::hardware::radio::RadioIndicationType",
   "referenced_type" : "_ZTIN4aidl7android8hardware5radio19RadioIndicationTypeE",
   "self_type" : "_ZTIN4aidl7android8hardware5radio19RadioIndicationTypeE",
   "size" : 4,
   "source_file" : "out/soong/.intermediates/hardware/interfaces/radio/aidl/android.hardware.radio-V1-ndk-source/gen/include/aidl/android/hardware/radio/RadioIndicationType.h",
   "underlying_type" : "_ZTIi"
  },
  {
   "alignment" : 4,
   "enum_fields" :
   [
    {
     "enum_field_value" : 0,
     "name" : "aidl::android::hardware::radio::voice::ClipStatus::CLIP_PROVISIONED"
    },
    {
     "enum_field_value" : 1,
     "name" : "aidl::android::hardware::radio::voice::ClipStatus::CLIP_UNPROVISIONED"
    },
    {
     "enum_field_value" : 2,
     "name" : "aidl::android::hardware::radio::voice::ClipStatus::UNKNOWN"
    }
   ],
   "linker_set_key" : "_ZTIN4aidl7android8hardware5radio5voice10ClipStatusE",
   "name" : "aidl::android::hardware::radio::voice::ClipStatus",
   "referenced_type" : "_ZTIN4aidl7android8hardware5radio5voice10ClipStatusE",
   "self_type" : "_ZTIN4aidl7android8hardware5radio5voice10ClipStatusE",
   "size" : 4,
   "source_file" : "out/soong/.intermediates/hardware/interfaces/radio/aidl/android.hardware.radio.voice-V1-ndk-source/gen/include/aidl/android/hardware/radio/voice/ClipStatus.h",
   "underlying_type" : "_ZTIi"
  },
  {
   "alignment" : 4,
   "enum_fields" :
   [
    {
     "enum_field_value" : 0,
     "name" : "aidl::android::hardware::radio::voice::SrvccState::HANDOVER_STARTED"
    },
    {
     "enum_field_value" : 1,
     "name" : "aidl::android::hardware::radio::voice::SrvccState::HANDOVER_COMPLETED"
    },
    {
     "enum_field_value" : 2,
     "name" : "aidl::android::hardware::radio::voice::SrvccState::HANDOVER_FAILED"
    },
    {
     "enum_field_value" : 3,
     "name" : "aidl::android::hardware::radio::voice::SrvccState::HANDOVER_CANCELED"
    }
   ],
   "linker_set_key" : "_ZTIN4aidl7android8hardware5radio5voice10SrvccStateE",
   "name" : "aidl::android::hardware::radio::voice::SrvccState",
   "referenced_type" : "_ZTIN4aidl7android8hardware5radio5voice10SrvccStateE",
   "self_type" : "_ZTIN4aidl7android8hardware5radio5voice10SrvccStateE",
   "size" : 4,
   "source_file" : "out/soong/.intermediates/hardware/interfaces/radio/aidl/android.hardware.radio.voice-V1-ndk-source/gen/include/aidl/android/hardware/radio/voice/SrvccState.h",
   "underlying_type" : "_ZTIi"
  },
  {
   "alignment" : 4,
   "enum_fields" :
   [
    {
     "enum_field_value" : 4,
     "name" : "aidl::android::hardware::radio::voice::SsInfoData::SS_INFO_MAX"
    }
   ],
   "linker_set_key" : "_ZTIN4aidl7android8hardware5radio5voice10SsInfoData12$SS_INFO_MAXE",
   "name" : "aidl::android::hardware::radio::voice::SsInfoData::(unnamed enum at out/soong/.intermediates/hardware/interfaces/radio/aidl/android.hardware.radio.voice-V1-ndk-source/gen/include/aidl/android/hardware/radio/voice/SsInfoData.h:50:3)",
   "referenced_type" : "_ZTIN4aidl7android8hardware5radio5voice10SsInfoData12$SS_INFO_MAXE",
   "self_type" : "_ZTIN4aidl7android8hardware5radio5voice10SsInfoData12$SS_INFO_MAXE",
   "size" : 4,
   "source_file" : "out/soong/.intermediates/hardware/interfaces/radio/aidl/android.hardware.radio.voice-V1-ndk-source/gen/include/aidl/android/hardware/radio/voice/SsInfoData.h",
   "underlying_type" : "_ZTIi"
  },
  {
   "alignment" : 4,
   "enum_fields" :
   [
    {
     "enum_field_value" : 0,
     "name" : "aidl::android::hardware::radio::voice::AudioQuality::UNSPECIFIED"
    },
    {
     "enum_field_value" : 1,
     "name" : "aidl::android::hardware::radio::voice::AudioQuality::AMR"
    },
    {
     "enum_field_value" : 2,
     "name" : "aidl::android::hardware::radio::voice::AudioQuality::AMR_WB"
    },
    {
     "enum_field_value" : 3,
     "name" : "aidl::android::hardware::radio::voice::AudioQuality::GSM_EFR"
    },
    {
     "enum_field_value" : 4,
     "name" : "aidl::android::hardware::radio::voice::AudioQuality::GSM_FR"
    },
    {
     "enum_field_value" : 5,
     "name" : "aidl::android::hardware::radio::voice::AudioQuality::GSM_HR"
    },
    {
     "enum_field_value" : 6,
     "name" : "aidl::android::hardware::radio::voice::AudioQuality::EVRC"
    },
    {
     "enum_field_value" : 7,
     "name" : "aidl::android::hardware::radio::voice::AudioQuality::EVRC_B"
    },
    {
     "enum_field_value" : 8,
     "name" : "aidl::android::hardware::radio::voice::AudioQuality::EVRC_WB"
    },
    {
     "enum_field_value" : 9,
     "name" : "aidl::android::hardware::radio::voice::AudioQuality::EVRC_NW"
    }
   ],
   "linker_set_key" : "_ZTIN4aidl7android8hardware5radio5voice12AudioQualityE",
   "name" : "aidl::android::hardware::radio::voice::AudioQuality",
   "referenced_type" : "_ZTIN4aidl7android8hardware5radio5voice12AudioQualityE",
   "self_type" : "_ZTIN4aidl7android8hardware5radio5voice12AudioQualityE",
   "size" : 4,
   "source_file" : "out/soong/.intermediates/hardware/interfaces/radio/aidl/android.hardware.radio.voice-V1-ndk-source/gen/include/aidl/android/hardware/radio/voice/AudioQuality.h",
   "underlying_type" : "_ZTIi"
  },
  {
   "alignment" : 4,
   "enum_fields" :
   [
    {
     "enum_field_value" : 0,
     "name" : "aidl::android::hardware::radio::voice::UssdModeType::NOTIFY"
    },
    {
     "enum_field_value" : 1,
     "name" : "aidl::android::hardware::radio::voice::UssdModeType::REQUEST"
    },
    {
     "enum_field_value" : 2,
     "name" : "aidl::android::hardware::radio::voice::UssdModeType::NW_RELEASE"
    },
    {
     "enum_field_value" : 3,
     "name" : "aidl::android::hardware::radio::voice::UssdModeType::LOCAL_CLIENT"
    },
    {
     "enum_field_value" : 4,
     "name" : "aidl::android::hardware::radio::voice::UssdModeType::NOT_SUPPORTED"
    },
    {
     "enum_field_value" : 5,
     "name" : "aidl::android::hardware::radio::voice::UssdModeType::NW_TIMEOUT"
    }
   ],
   "linker_set_key" : "_ZTIN4aidl7android8hardware5radio5voice12UssdModeTypeE",
   "name" : "aidl::android::hardware::radio::voice::UssdModeType",
   "referenced_type" : "_ZTIN4aidl7android8hardware5radio5voice12UssdModeTypeE",
   "self_type" : "_ZTIN4aidl7android8hardware5radio5voice12UssdModeTypeE",
   "size" : 4,
   "source_file" : "out/soong/.intermediates/hardware/interfaces/radio/aidl/android.hardware.radio.voice-V1-ndk-source/gen/include/aidl/android/hardware/radio/voice/UssdModeType.h",
   "underlying_type" : "_ZTIi"
  },
  {
   "alignment" : 4,
   "enum_fields" :
   [
    {
     "enum_field_value" : 1,
     "name" : "aidl::android::hardware::radio::voice::CallForwardInfo::STATUS_ENABLE"
    }
   ],
   "linker_set_key" : "_ZTIN4aidl7android8hardware5radio5voice15CallForwardInfo14$STATUS_ENABLEE",
   "name" : "aidl::android::hardware::radio::voice::CallForwardInfo::(unnamed enum at out/soong/.intermediates/hardware/interfaces/radio/aidl/android.hardware.radio.voice-V1-ndk-source/gen/include/aidl/android/hardware/radio/voice/CallForwardInfo.h:56:3)",
   "referenced_type" : "_ZTIN4aidl7android8hardware5radio5voice15CallForwardInfo14$STATUS_ENABLEE",
   "self_type" : "_ZTIN4aidl7android8hardware5radio5voice15CallForwardInfo14$STATUS_ENABLEE",
   "size" : 4,
   "source_file" : "out/soong/.intermediates/hardware/interfaces/radio/aidl/android.hardware.radio.voice-V1-ndk-source/gen/include/aidl/android/hardware/radio/voice/CallForwardInfo.h",
   "underlying_type" : "_ZTIi"
  },
  {
   "alignment" : 4,
   "enum_fields" :
   [
    {
     "enum_field_value" : 0,
     "name" : "aidl::android::hardware::radio::voice::CallForwardInfo::STATUS_DISABLE"
    }
   ],
   "linker_set_key" : "_ZTIN4aidl7android8hardware5radio5voice15CallForwardInfo15$STATUS_DISABLEE",
   "name" : "aidl::android::hardware::radio::voice::CallForwardInfo::(unnamed enum at out/soong/.intermediates/hardware/interfaces/radio/aidl/android.hardware.radio.voice-V1-ndk-source/gen/include/aidl/android/hardware/radio/voice/CallForwardInfo.h:55:3)",
   "referenced_type" : "_ZTIN4aidl7android8hardware5radio5voice15CallForwardInfo15$STATUS_DISABLEE",
   "self_type" : "_ZTIN4aidl7android8hardware5radio5voice15CallForwardInfo15$STATUS_DISABLEE",
   "size" : 4,
   "source_file" : "out/soong/.intermediates/hardware/interfaces/radio/aidl/android.hardware.radio.voice-V1-ndk-source/gen/include/aidl/android/hardware/radio/voice/CallForwardInfo.h",
   "underlying_type" : "_ZTIi"
  },
  {
   "alignment" : 4,
   "enum_fields" :
   [
    {
     "enum_field_value" : 4,
     "name" : "aidl::android::hardware::radio::voice::CallForwardInfo::STATUS_ERASURE"
    }
   ],
   "linker_set_key" : "_ZTIN4aidl7android8hardware5radio5voice15CallForwardInfo15$STATUS_ERASUREE",
   "name" : "aidl::android::hardware::radio::voice::CallForwardInfo::(unnamed enum at out/soong/.intermediates/hardware/interfaces/radio/aidl/android.hardware.radio.voice-V1-ndk-source/gen/include/aidl/android/hardware/radio/voice/CallForwardInfo.h:59:3)",
   "referenced_type" : "_ZTIN4aidl7android8hardware5radio5voice15CallForwardInfo15$STATUS_ERASUREE",
   "self_type" : "_ZTIN4aidl7android8hardware5radio5voice15CallForwardInfo15$STATUS_ERASUREE",
   "size" : 4,
   "source_file" : "out/soong/.intermediates/hardware/interfaces/radio/aidl/android.hardware.radio.voice-V1-ndk-source/gen/include/aidl/android/hardware/radio/voice/CallForwardInfo.h",
   "underlying_type" : "_ZTIi"
  },
  {
   "alignment" : 4,
   "enum_fields" :
   [
    {
     "enum_field_value" : 2,
     "name" : "aidl::android::hardware::radio::voice::CallForwardInfo::STATUS_INTERROGATE"
    }
   ],
   "linker_set_key" : "_ZTIN4aidl7android8hardware5radio5voice15CallForwardInfo19$STATUS_INTERROGATEE",
   "name" : "aidl::android::hardware::radio::voice::CallForwardInfo::(unnamed enum at out/soong/.intermediates/hardware/interfaces/radio/aidl/android.hardware.radio.voice-V1-ndk-source/gen/include/aidl/android/hardware/radio/voice/CallForwardInfo.h:57:3)",
   "referenced_type" : "_ZTIN4aidl7android8hardware5radio5voice15CallForwardInfo19$STATUS_INTERROGATEE",
   "self_type" : "_ZTIN4aidl7android8hardware5radio5voice15CallForwardInfo19$STATUS_INTERROGATEE",
   "size" : 4,
   "source_file" : "out/soong/.intermediates/hardware/interfaces/radio/aidl/android.hardware.radio.voice-V1-ndk-source/gen/include/aidl/android/hardware/radio/voice/CallForwardInfo.h",
   "underlying_type" : "_ZTIi"
  },
  {
   "alignment" : 4,
   "enum_fields" :
   [
    {
     "enum_field_value" : 3,
     "name" : "aidl::android::hardware::radio::voice::CallForwardInfo::STATUS_REGISTRATION"
    }
   ],
   "linker_set_key" : "_ZTIN4aidl7android8hardware5radio5voice15CallForwardInfo20$STATUS_REGISTRATIONE",
   "name" : "aidl::android::hardware::radio::voice::CallForwardInfo::(unnamed enum at out/soong/.intermediates/hardware/interfaces/radio/aidl/android.hardware.radio.voice-V1-ndk-source/gen/include/aidl/android/hardware/radio/voice/CallForwardInfo.h:58:3)",
   "referenced_type" : "_ZTIN4aidl7android8hardware5radio5voice15CallForwardInfo20$STATUS_REGISTRATIONE",
   "self_type" : "_ZTIN4aidl7android8hardware5radio5voice15CallForwardInfo20$STATUS_REGISTRATIONE",
   "size" : 4,
   "source_file" : "out/soong/.intermediates/hardware/interfaces/radio/aidl/android.hardware.radio.voice-V1-ndk-source/gen/include/aidl/android/hardware/radio/voice/CallForwardInfo.h",
   "underlying_type" : "_ZTIi"
  },
  {
   "alignment" : 4,
   "enum_fields" :
   [
    {
     "enum_field_value" : 3,
     "name" : "aidl::android::hardware::radio::voice::CdmaCallWaiting::NUMBER_PLAN_DATA"
    }
   ],
   "linker_set_key" : "_ZTIN4aidl7android8hardware5radio5voice15CdmaCallWaiting17$NUMBER_PLAN_DATAE",
   "name" : "aidl::android::hardware::radio::voice::CdmaCallWaiting::(unnamed enum at out/soong/.intermediates/hardware/interfaces/radio/aidl/android.hardware.radio.voice-V1-ndk-source/gen/include/aidl/android/hardware/radio/voice/CdmaCallWaiting.h:58:3)",
   "referenced_type" : "_ZTIN4aidl7android8hardware5radio5voice15CdmaCallWaiting17$NUMBER_PLAN_DATAE",
   "self_type" : "_ZTIN4aidl7android8hardware5radio5voice15CdmaCallWaiting17$NUMBER_PLAN_DATAE",
   "size" : 4,
   "source_file" : "out/soong/.intermediates/hardware/interfaces/radio/aidl/android.hardware.radio.voice-V1-ndk-source/gen/include/aidl/android/hardware/radio/voice/CdmaCallWaiting.h",
   "underlying_type" : "_ZTIi"
  },
  {
   "alignment" : 4,
   "enum_fields" :
   [
    {
     "enum_field_value" : 1,
     "name" : "aidl::android::hardware::radio::voice::CdmaCallWaiting::NUMBER_PLAN_ISDN"
    }
   ],
   "linker_set_key" : "_ZTIN4aidl7android8hardware5radio5voice15CdmaCallWaiting17$NUMBER_PLAN_ISDNE",
   "name" : "aidl::android::hardware::radio::voice::CdmaCallWaiting::(unnamed enum at out/soong/.intermediates/hardware/interfaces/radio/aidl/android.hardware.radio.voice-V1-ndk-source/gen/include/aidl/android/hardware/radio/voice/CdmaCallWaiting.h:57:3)",
   "referenced_type" : "_ZTIN4aidl7android8hardware5radio5voice15CdmaCallWaiting17$NUMBER_PLAN_ISDNE",
   "self_type" : "_ZTIN4aidl7android8hardware5radio5voice15CdmaCallWaiting17$NUMBER_PLAN_ISDNE",
   "size" : 4,
   "source_file" : "out/soong/.intermediates/hardware/interfaces/radio/aidl/android.hardware.radio.voice-V1-ndk-source/gen/include/aidl/android/hardware/radio/voice/CdmaCallWaiting.h",
   "underlying_type" : "_ZTIi"
  },
  {
   "alignment" : 4,
   "enum_fields" :
   [
    {
     "enum_field_value" : 4,
     "name" : "aidl::android::hardware::radio::voice::CdmaCallWaiting::NUMBER_PLAN_TELEX"
    }
   ],
   "linker_set_key" : "_ZTIN4aidl7android8hardware5radio5voice15CdmaCallWaiting18$NUMBER_PLAN_TELEXE",
   "name" : "aidl::android::hardware::radio::voice::CdmaCallWaiting::(unnamed enum at out/soong/.intermediates/hardware/interfaces/radio/aidl/android.hardware.radio.voice-V1-ndk-source/gen/include/aidl/android/hardware/radio/voice/CdmaCallWaiting.h:59:3)",
   "referenced_type" : "_ZTIN4aidl7android8hardware5radio5voice15CdmaCallWaiting18$NUMBER_PLAN_TELEXE",
   "self_type" : "_ZTIN4aidl7android8hardware5radio5voice15CdmaCallWaiting18$NUMBER_PLAN_TELEXE",
   "size" : 4,
   "source_file" : "out/soong/.intermediates/hardware/interfaces/radio/aidl/android.hardware.radio.voice-V1-ndk-source/gen/include/aidl/android/hardware/radio/voice/CdmaCallWaiting.h",
   "underlying_type" : "_ZTIi"
  },
  {
   "alignment" : 4,
   "enum_fields" :
   [
    {
     "enum_field_value" : 9,
     "name" : "aidl::android::hardware::radio::voice::CdmaCallWaiting::NUMBER_PLAN_PRIVATE"
    }
   ],
   "linker_set_key" : "_ZTIN4aidl7android8hardware5radio5voice15CdmaCallWaiting20$NUMBER_PLAN_PRIVATEE",
   "name" : "aidl::android::hardware::radio::voice::CdmaCallWaiting::(unnamed enum at out/soong/.intermediates/hardware/interfaces/radio/aidl/android.hardware.radio.voice-V1-ndk-source/gen/include/aidl/android/hardware/radio/voice/CdmaCallWaiting.h:61:3)",
   "referenced_type" : "_ZTIN4aidl7android8hardware5radio5voice15CdmaCallWaiting20$NUMBER_PLAN_PRIVATEE",
   "self_type" : "_ZTIN4aidl7android8hardware5radio5voice15CdmaCallWaiting20$NUMBER_PLAN_PRIVATEE",
   "size" : 4,
   "source_file" : "out/soong/.intermediates/hardware/interfaces/radio/aidl/android.hardware.radio.voice-V1-ndk-source/gen/include/aidl/android/hardware/radio/voice/CdmaCallWaiting.h",
   "underlying_type" : "_ZTIi"
  },
  {
   "alignment" : 4,
   "enum_fields" :
   [
    {
     "enum_field_value" : 0,
     "name" : "aidl::android::hardware::radio::voice::CdmaCallWaiting::NUMBER_PLAN_UNKNOWN"
    }
   ],
   "linker_set_key" : "_ZTIN4aidl7android8hardware5radio5voice15CdmaCallWaiting20$NUMBER_PLAN_UNKNOWNE",
   "name" : "aidl::android::hardware::radio::voice::CdmaCallWaiting::(unnamed enum at out/soong/.intermediates/hardware/interfaces/radio/aidl/android.hardware.radio.voice-V1-ndk-source/gen/include/aidl/android/hardware/radio/voice/CdmaCallWaiting.h:56:3)",
   "referenced_type" : "_ZTIN4aidl7android8hardware5radio5voice15CdmaCallWaiting20$NUMBER_PLAN_UNKNOWNE",
   "self_type" : "_ZTIN4aidl7android8hardware5radio5voice15CdmaCallWaiting20$NUMBER_PLAN_UNKNOWNE",
   "size" : 4,
   "source_file" : "out/soong/.intermediates/hardware/interfaces/radio/aidl/android.hardware.radio.voice-V1-ndk-source/gen/include/aidl/android/hardware/radio/voice/CdmaCallWaiting.h",
   "underlying_type" : "_ZTIi"
  },
  {
   "alignment" : 4,
   "enum_fields" :
   [
    {
     "enum_field_value" : 0,
     "name" : "aidl::android::hardware::radio::voice::CdmaCallWaiting::NUMBER_TYPE_UNKNOWN"
    }
   ],
   "linker_set_key" : "_ZTIN4aidl7android8hardware5radio5voice15CdmaCallWaiting20$NUMBER_TYPE_UNKNOWNE",
   "name" : "aidl::android::hardware::radio::voice::CdmaCallWaiting::(unnamed enum at out/soong/.intermediates/hardware/interfaces/radio/aidl/android.hardware.radio.voice-V1-ndk-source/gen/include/aidl/android/hardware/radio/voice/CdmaCallWaiting.h:65:3)",
   "referenced_type" : "_ZTIN4aidl7android8hardware5radio5voice15CdmaCallWaiting20$NUMBER_TYPE_UNKNOWNE",
   "self_type" : "_ZTIN4aidl7android8hardware5radio5voice15CdmaCallWaiting20$NUMBER_TYPE_UNKNOWNE",
   "size" : 4,
   "source_file" : "out/soong/.intermediates/hardware/interfaces/radio/aidl/android.hardware.radio.voice-V1-ndk-source/gen/include/aidl/android/hardware/radio/voice/CdmaCallWaiting.h",
   "underlying_type" : "_ZTIi"
  },
  {
   "alignment" : 4,
   "enum_fields" :
   [
    {
     "enum_field_value" : 8,
     "name" : "aidl::android::hardware::radio::voice::CdmaCallWaiting::NUMBER_PLAN_NATIONAL"
    }
   ],
   "linker_set_key" : "_ZTIN4aidl7android8hardware5radio5voice15CdmaCallWaiting21$NUMBER_PLAN_NATIONALE",
   "name" : "aidl::android::hardware::radio::voice::CdmaCallWaiting::(unnamed enum at out/soong/.intermediates/hardware/interfaces/radio/aidl/android.hardware.radio.voice-V1-ndk-source/gen/include/aidl/android/hardware/radio/voice/CdmaCallWaiting.h:60:3)",
   "referenced_type" : "_ZTIN4aidl7android8hardware5radio5voice15CdmaCallWaiting21$NUMBER_PLAN_NATIONALE",
   "self_type" : "_ZTIN4aidl7android8hardware5radio5voice15CdmaCallWaiting21$NUMBER_PLAN_NATIONALE",
   "size" : 4,
   "source_file" : "out/soong/.intermediates/hardware/interfaces/radio/aidl/android.hardware.radio.voice-V1-ndk-source/gen/include/aidl/android/hardware/radio/voice/CdmaCallWaiting.h",
   "underlying_type" : "_ZTIi"
  },
  {
   "alignment" : 4,
   "enum_fields" :
   [
    {
     "enum_field_value" : 2,
     "name" : "aidl::android::hardware::radio::voice::CdmaCallWaiting::NUMBER_TYPE_NATIONAL"
    }
   ],
   "linker_set_key" : "_ZTIN4aidl7android8hardware5radio5voice15CdmaCallWaiting21$NUMBER_TYPE_NATIONALE",
   "name" : "aidl::android::hardware::radio::voice::CdmaCallWaiting::(unnamed enum at out/soong/.intermediates/hardware/interfaces/radio/aidl/android.hardware.radio.voice-V1-ndk-source/gen/include/aidl/android/hardware/radio/voice/CdmaCallWaiting.h:67:3)",
   "referenced_type" : "_ZTIN4aidl7android8hardware5radio5voice15CdmaCallWaiting21$NUMBER_TYPE_NATIONALE",
   "self_type" : "_ZTIN4aidl7android8hardware5radio5voice15CdmaCallWaiting21$NUMBER_TYPE_NATIONALE",
   "size" : 4,
   "source_file" : "out/soong/.intermediates/hardware/interfaces/radio/aidl/android.hardware.radio.voice-V1-ndk-source/gen/include/aidl/android/hardware/radio/voice/CdmaCallWaiting.h",
   "underlying_type" : "_ZTIi"
  },
  {
   "alignment" : 4,
   "enum_fields" :
   [
    {
     "enum_field_value" : 4,
     "name" : "aidl::android::hardware::radio::voice::CdmaCallWaiting::NUMBER_TYPE_SUBSCRIBER"
    }
   ],
   "linker_set_key" : "_ZTIN4aidl7android8hardware5radio5voice15CdmaCallWaiting23$NUMBER_TYPE_SUBSCRIBERE",
   "name" : "aidl::android::hardware::radio::voice::CdmaCallWaiting::(unnamed enum at out/soong/.intermediates/hardware/interfaces/radio/aidl/android.hardware.radio.voice-V1-ndk-source/gen/include/aidl/android/hardware/radio/voice/CdmaCallWaiting.h:69:3)",
   "referenced_type" : "_ZTIN4aidl7android8hardware5radio5voice15CdmaCallWaiting23$NUMBER_TYPE_SUBSCRIBERE",
   "self_type" : "_ZTIN4aidl7android8hardware5radio5voice15CdmaCallWaiting23$NUMBER_TYPE_SUBSCRIBERE",
   "size" : 4,
   "source_file" : "out/soong/.intermediates/hardware/interfaces/radio/aidl/android.hardware.radio.voice-V1-ndk-source/gen/include/aidl/android/hardware/radio/voice/CdmaCallWaiting.h",
   "underlying_type" : "_ZTIi"
  },
  {
   "alignment" : 4,
   "enum_fields" :
   [
    {
     "enum_field_value" : 1,
     "name" : "aidl::android::hardware::radio::voice::CdmaCallWaiting::NUMBER_TYPE_INTERNATIONAL"
    }
   ],
   "linker_set_key" : "_ZTIN4aidl7android8hardware5radio5voice15CdmaCallWaiting26$NUMBER_TYPE_INTERNATIONALE",
   "name" : "aidl::android::hardware::radio::voice::CdmaCallWaiting::(unnamed enum at out/soong/.intermediates/hardware/interfaces/radio/aidl/android.hardware.radio.voice-V1-ndk-source/gen/include/aidl/android/hardware/radio/voice/CdmaCallWaiting.h:66:3)",
   "referenced_type" : "_ZTIN4aidl7android8hardware5radio5voice15CdmaCallWaiting26$NUMBER_TYPE_INTERNATIONALE",
   "self_type" : "_ZTIN4aidl7android8hardware5radio5voice15CdmaCallWaiting26$NUMBER_TYPE_INTERNATIONALE",
   "size" : 4,
   "source_file" : "out/soong/.intermediates/hardware/interfaces/radio/aidl/android.hardware.radio.voice-V1-ndk-source/gen/include/aidl/android/hardware/radio/voice/CdmaCallWaiting.h",
   "underlying_type" : "_ZTIi"
  },
  {
   "alignment" : 4,
   "enum_fields" :
   [
    {
     "enum_field_value" : 0,
     "name" : "aidl::android::hardware::radio::voice::CdmaCallWaiting::NUMBER_PRESENTATION_ALLOWED"
    }
   ],
   "linker_set_key" : "_ZTIN4aidl7android8hardware5radio5voice15CdmaCallWaiting28$NUMBER_PRESENTATION_ALLOWEDE",
   "name" : "aidl::android::hardware::radio::voice::CdmaCallWaiting::(unnamed enum at out/soong/.intermediates/hardware/interfaces/radio/aidl/android.hardware.radio.voice-V1-ndk-source/gen/include/aidl/android/hardware/radio/voice/CdmaCallWaiting.h:62:3)",
   "referenced_type" : "_ZTIN4aidl7android8hardware5radio5voice15CdmaCallWaiting28$NUMBER_PRESENTATION_ALLOWEDE",
   "self_type" : "_ZTIN4aidl7android8hardware5radio5voice15CdmaCallWaiting28$NUMBER_PRESENTATION_ALLOWEDE",
   "size" : 4,
   "source_file" : "out/soong/.intermediates/hardware/interfaces/radio/aidl/android.hardware.radio.voice-V1-ndk-source/gen/include/aidl/android/hardware/radio/voice/CdmaCallWaiting.h",
   "underlying_type" : "_ZTIi"
  },
  {
   "alignment" : 4,
   "enum_fields" :
   [
    {
     "enum_field_value" : 2,
     "name" : "aidl::android::hardware::radio::voice::CdmaCallWaiting::NUMBER_PRESENTATION_UNKNOWN"
    }
   ],
   "linker_set_key" : "_ZTIN4aidl7android8hardware5radio5voice15CdmaCallWaiting28$NUMBER_PRESENTATION_UNKNOWNE",
   "name" : "aidl::android::hardware::radio::voice::CdmaCallWaiting::(unnamed enum at out/soong/.intermediates/hardware/interfaces/radio/aidl/android.hardware.radio.voice-V1-ndk-source/gen/include/aidl/android/hardware/radio/voice/CdmaCallWaiting.h:64:3)",
   "referenced_type" : "_ZTIN4aidl7android8hardware5radio5voice15CdmaCallWaiting28$NUMBER_PRESENTATION_UNKNOWNE",
   "self_type" : "_ZTIN4aidl7android8hardware5radio5voice15CdmaCallWaiting28$NUMBER_PRESENTATION_UNKNOWNE",
   "size" : 4,
   "source_file" : "out/soong/.intermediates/hardware/interfaces/radio/aidl/android.hardware.radio.voice-V1-ndk-source/gen/include/aidl/android/hardware/radio/voice/CdmaCallWaiting.h",
   "underlying_type" : "_ZTIi"
  },
  {
   "alignment" : 4,
   "enum_fields" :
   [
    {
     "enum_field_value" : 3,
     "name" : "aidl::android::hardware::radio::voice::CdmaCallWaiting::NUMBER_TYPE_NETWORK_SPECIFIC"
    }
   ],
   "linker_set_key" : "_ZTIN4aidl7android8hardware5radio5voice15CdmaCallWaiting29$NUMBER_TYPE_NETWORK_SPECIFICE",
   "name" : "aidl::android::hardware::radio::voice::CdmaCallWaiting::(unnamed enum at out/soong/.intermediates/hardware/interfaces/radio/aidl/android.hardware.radio.voice-V1-ndk-source/gen/include/aidl/android/hardware/radio/voice/CdmaCallWaiting.h:68:3)",
   "referenced_type" : "_ZTIN4aidl7android8hardware5radio5voice15CdmaCallWaiting29$NUMBER_TYPE_NETWORK_SPECIFICE",
   "self_type" : "_ZTIN4aidl7android8hardware5radio5voice15CdmaCallWaiting29$NUMBER_TYPE_NETWORK_SPECIFICE",
   "size" : 4,
   "source_file" : "out/soong/.intermediates/hardware/interfaces/radio/aidl/android.hardware.radio.voice-V1-ndk-source/gen/include/aidl/android/hardware/radio/voice/CdmaCallWaiting.h",
   "underlying_type" : "_ZTIi"
  },
  {
   "alignment" : 4,
   "enum_fields" :
   [
    {
     "enum_field_value" : 1,
     "name" : "aidl::android::hardware::radio::voice::CdmaCallWaiting::NUMBER_PRESENTATION_RESTRICTED"
    }
   ],
   "linker_set_key" : "_ZTIN4aidl7android8hardware5radio5voice15CdmaCallWaiting31$NUMBER_PRESENTATION_RESTRICTEDE",
   "name" : "aidl::android::hardware::radio::voice::CdmaCallWaiting::(unnamed enum at out/soong/.intermediates/hardware/interfaces/radio/aidl/android.hardware.radio.voice-V1-ndk-source/gen/include/aidl/android/hardware/radio/voice/CdmaCallWaiting.h:63:3)",
   "referenced_type" : "_ZTIN4aidl7android8hardware5radio5voice15CdmaCallWaiting31$NUMBER_PRESENTATION_RESTRICTEDE",
   "self_type" : "_ZTIN4aidl7android8hardware5radio5voice15CdmaCallWaiting31$NUMBER_PRESENTATION_RESTRICTEDE",
   "size" : 4,
   "source_file" : "out/soong/.intermediates/hardware/interfaces/radio/aidl/android.hardware.radio.voice-V1-ndk-source/gen/include/aidl/android/hardware/radio/voice/CdmaCallWaiting.h",
   "underlying_type" : "_ZTIi"
  },
  {
   "alignment" : 4,
   "enum_fields" :
   [
    {
     "enum_field_value" : 2,
     "name" : "aidl::android::hardware::radio::voice::EmergencyNumber::SOURCE_SIM"
    }
   ],
   "linker_set_key" : "_ZTIN4aidl7android8hardware5radio5voice15EmergencyNumber11$SOURCE_SIME",
   "name" : "aidl::android::hardware::radio::voice::EmergencyNumber::(unnamed enum at out/soong/.intermediates/hardware/interfaces/radio/aidl/android.hardware.radio.voice-V1-ndk-source/gen/include/aidl/android/hardware/radio/voice/EmergencyNumber.h:56:3)",
   "referenced_type" : "_ZTIN4aidl7android8hardware5radio5voice15EmergencyNumber11$SOURCE_SIME",
   "self_type" : "_ZTIN4aidl7android8hardware5radio5voice15EmergencyNumber11$SOURCE_SIME",
   "size" : 4,
   "source_file" : "out/soong/.intermediates/hardware/interfaces/radio/aidl/android.hardware.radio.voice-V1-ndk-source/gen/include/aidl/android/hardware/radio/voice/EmergencyNumber.h",
   "underlying_type" : "_ZTIi"
  },
  {
   "alignment" : 4,
   "enum_fields" :
   [
    {
     "enum_field_value" : 8,
     "name" : "aidl::android::hardware::radio::voice::EmergencyNumber::SOURCE_DEFAULT"
    }
   ],
   "linker_set_key" : "_ZTIN4aidl7android8hardware5radio5voice15EmergencyNumber15$SOURCE_DEFAULTE",
   "name" : "aidl::android::hardware::radio::voice::EmergencyNumber::(unnamed enum at out/soong/.intermediates/hardware/interfaces/radio/aidl/android.hardware.radio.voice-V1-ndk-source/gen/include/aidl/android/hardware/radio/voice/EmergencyNumber.h:58:3)",
   "referenced_type" : "_ZTIN4aidl7android8hardware5radio5voice15EmergencyNumber15$SOURCE_DEFAULTE",
   "self_type" : "_ZTIN4aidl7android8hardware5radio5voice15EmergencyNumber15$SOURCE_DEFAULTE",
   "size" : 4,
   "source_file" : "out/soong/.intermediates/hardware/interfaces/radio/aidl/android.hardware.radio.voice-V1-ndk-source/gen/include/aidl/android/hardware/radio/voice/EmergencyNumber.h",
   "underlying_type" : "_ZTIi"
  },
  {
   "alignment" : 4,
   "enum_fields" :
   [
    {
     "enum_field_value" : 4,
     "name" : "aidl::android::hardware::radio::voice::EmergencyNumber::SOURCE_MODEM_CONFIG"
    }
   ],
   "linker_set_key" : "_ZTIN4aidl7android8hardware5radio5voice15EmergencyNumber20$SOURCE_MODEM_CONFIGE",
   "name" : "aidl::android::hardware::radio::voice::EmergencyNumber::(unnamed enum at out/soong/.intermediates/hardware/interfaces/radio/aidl/android.hardware.radio.voice-V1-ndk-source/gen/include/aidl/android/hardware/radio/voice/EmergencyNumber.h:57:3)",
   "referenced_type" : "_ZTIN4aidl7android8hardware5radio5voice15EmergencyNumber20$SOURCE_MODEM_CONFIGE",
   "self_type" : "_ZTIN4aidl7android8hardware5radio5voice15EmergencyNumber20$SOURCE_MODEM_CONFIGE",
   "size" : 4,
   "source_file" : "out/soong/.intermediates/hardware/interfaces/radio/aidl/android.hardware.radio.voice-V1-ndk-source/gen/include/aidl/android/hardware/radio/voice/EmergencyNumber.h",
   "underlying_type" : "_ZTIi"
  },
  {
   "alignment" : 4,
   "enum_fields" :
   [
    {
     "enum_field_value" : 1,
     "name" : "aidl::android::hardware::radio::voice::EmergencyNumber::SOURCE_NETWORK_SIGNALING"
    }
   ],
   "linker_set_key" : "_ZTIN4aidl7android8hardware5radio5voice15EmergencyNumber25$SOURCE_NETWORK_SIGNALINGE",
   "name" : "aidl::android::hardware::radio::voice::EmergencyNumber::(unnamed enum at out/soong/.intermediates/hardware/interfaces/radio/aidl/android.hardware.radio.voice-V1-ndk-source/gen/include/aidl/android/hardware/radio/voice/EmergencyNumber.h:55:3)",
   "referenced_type" : "_ZTIN4aidl7android8hardware5radio5voice15EmergencyNumber25$SOURCE_NETWORK_SIGNALINGE",
   "self_type" : "_ZTIN4aidl7android8hardware5radio5voice15EmergencyNumber25$SOURCE_NETWORK_SIGNALINGE",
   "size" : 4,
   "source_file" : "out/soong/.intermediates/hardware/interfaces/radio/aidl/android.hardware.radio.voice-V1-ndk-source/gen/include/aidl/android/hardware/radio/voice/EmergencyNumber.h",
   "underlying_type" : "_ZTIi"
  },
  {
   "alignment" : 4,
   "enum_fields" :
   [
    {
     "enum_field_value" : 1,
     "name" : "aidl::android::hardware::radio::voice::LastCallFailCause::UNOBTAINABLE_NUMBER"
    },
    {
     "enum_field_value" : 3,
     "name" : "aidl::android::hardware::radio::voice::LastCallFailCause::NO_ROUTE_TO_DESTINATION"
    },
    {
     "enum_field_value" : 6,
     "name" : "aidl::android::hardware::radio::voice::LastCallFailCause::CHANNEL_UNACCEPTABLE"
    },
    {
     "enum_field_value" : 8,
     "name" : "aidl::android::hardware::radio::voice::LastCallFailCause::OPERATOR_DETERMINED_BARRING"
    },
    {
     "enum_field_value" : 16,
     "name" : "aidl::android::hardware::radio::voice::LastCallFailCause::NORMAL"
    },
    {
     "enum_field_value" : 17,
     "name" : "aidl::android::hardware::radio::voice::LastCallFailCause::BUSY"
    },
    {
     "enum_field_value" : 18,
     "name" : "aidl::android::hardware::radio::voice::LastCallFailCause::NO_USER_RESPONDING"
    },
    {
     "enum_field_value" : 19,
     "name" : "aidl::android::hardware::radio::voice::LastCallFailCause::NO_ANSWER_FROM_USER"
    },
    {
     "enum_field_value" : 21,
     "name" : "aidl::android::hardware::radio::voice::LastCallFailCause::CALL_REJECTED"
    },
    {
     "enum_field_value" : 22,
     "name" : "aidl::android::hardware::radio::voice::LastCallFailCause::NUMBER_CHANGED"
    },
    {
     "enum_field_value" : 25,
     "name" : "aidl::android::hardware::radio::voice::LastCallFailCause::PREEMPTION"
    },
    {
     "enum_field_value" : 27,
     "name" : "aidl::android::hardware::radio::voice::LastCallFailCause::DESTINATION_OUT_OF_ORDER"
    },
    {
     "enum_field_value" : 28,
     "name" : "aidl::android::hardware::radio::voice::LastCallFailCause::INVALID_NUMBER_FORMAT"
    },
    {
     "enum_field_value" : 29,
     "name" : "aidl::android::hardware::radio::voice::LastCallFailCause::FACILITY_REJECTED"
    },
    {
     "enum_field_value" : 30,
     "name" : "aidl::android::hardware::radio::voice::LastCallFailCause::RESP_TO_STATUS_ENQUIRY"
    },
    {
     "enum_field_value" : 31,
     "name" : "aidl::android::hardware::radio::voice::LastCallFailCause::NORMAL_UNSPECIFIED"
    },
    {
     "enum_field_value" : 34,
     "name" : "aidl::android::hardware::radio::voice::LastCallFailCause::CONGESTION"
    },
    {
     "enum_field_value" : 38,
     "name" : "aidl::android::hardware::radio::voice::LastCallFailCause::NETWORK_OUT_OF_ORDER"
    },
    {
     "enum_field_value" : 41,
     "name" : "aidl::android::hardware::radio::voice::LastCallFailCause::TEMPORARY_FAILURE"
    },
    {
     "enum_field_value" : 42,
     "name" : "aidl::android::hardware::radio::voice::LastCallFailCause::SWITCHING_EQUIPMENT_CONGESTION"
    },
    {
     "enum_field_value" : 43,
     "name" : "aidl::android::hardware::radio::voice::LastCallFailCause::ACCESS_INFORMATION_DISCARDED"
    },
    {
     "enum_field_value" : 44,
     "name" : "aidl::android::hardware::radio::voice::LastCallFailCause::REQUESTED_CIRCUIT_OR_CHANNEL_NOT_AVAILABLE"
    },
    {
     "enum_field_value" : 47,
     "name" : "aidl::android::hardware::radio::voice::LastCallFailCause::RESOURCES_UNAVAILABLE_OR_UNSPECIFIED"
    },
    {
     "enum_field_value" : 49,
     "name" : "aidl::android::hardware::radio::voice::LastCallFailCause::QOS_UNAVAILABLE"
    },
    {
     "enum_field_value" : 50,
     "name" : "aidl::android::hardware::radio::voice::LastCallFailCause::REQUESTED_FACILITY_NOT_SUBSCRIBED"
    },
    {
     "enum_field_value" : 55,
     "name" : "aidl::android::hardware::radio::voice::LastCallFailCause::INCOMING_CALLS_BARRED_WITHIN_CUG"
    },
    {
     "enum_field_value" : 57,
     "name" : "aidl::android::hardware::radio::voice::LastCallFailCause::BEARER_CAPABILITY_NOT_AUTHORIZED"
    },
    {
     "enum_field_value" : 58,
     "name" : "aidl::android::hardware::radio::voice::LastCallFailCause::BEARER_CAPABILITY_UNAVAILABLE"
    },
    {
     "enum_field_value" : 63,
     "name" : "aidl::android::hardware::radio::voice::LastCallFailCause::SERVICE_OPTION_NOT_AVAILABLE"
    },
    {
     "enum_field_value" : 65,
     "name" : "aidl::android::hardware::radio::voice::LastCallFailCause::BEARER_SERVICE_NOT_IMPLEMENTED"
    },
    {
     "enum_field_value" : 68,
     "name" : "aidl::android::hardware::radio::voice::LastCallFailCause::ACM_LIMIT_EXCEEDED"
    },
    {
     "enum_field_value" : 69,
     "name" : "aidl::android::hardware::radio::voice::LastCallFailCause::REQUESTED_FACILITY_NOT_IMPLEMENTED"
    },
    {
     "enum_field_value" : 70,
     "name" : "aidl::android::hardware::radio::voice::LastCallFailCause::ONLY_DIGITAL_INFORMATION_BEARER_AVAILABLE"
    },
    {
     "enum_field_value" : 79,
     "name" : "aidl::android::hardware::radio::voice::LastCallFailCause::SERVICE_OR_OPTION_NOT_IMPLEMENTED"
    },
    {
     "enum_field_value" : 81,
     "name" : "aidl::android::hardware::radio::voice::LastCallFailCause::INVALID_TRANSACTION_IDENTIFIER"
    },
    {
     "enum_field_value" : 87,
     "name" : "aidl::android::hardware::radio::voice::LastCallFailCause::USER_NOT_MEMBER_OF_CUG"
    },
    {
     "enum_field_value" : 88,
     "name" : "aidl::android::hardware::radio::voice::LastCallFailCause::INCOMPATIBLE_DESTINATION"
    },
    {
     "enum_field_value" : 91,
     "name" : "aidl::android::hardware::radio::voice::LastCallFailCause::INVALID_TRANSIT_NW_SELECTION"
    },
    {
     "enum_field_value" : 95,
     "name" : "aidl::android::hardware::radio::voice::LastCallFailCause::SEMANTICALLY_INCORRECT_MESSAGE"
    },
    {
     "enum_field_value" : 96,
     "name" : "aidl::android::hardware::radio::voice::LastCallFailCause::INVALID_MANDATORY_INFORMATION"
    },
    {
     "enum_field_value" : 97,
     "name" : "aidl::android::hardware::radio::voice::LastCallFailCause::MESSAGE_TYPE_NON_IMPLEMENTED"
    },
    {
     "enum_field_value" : 98,
     "name" : "aidl::android::hardware::radio::voice::LastCallFailCause::MESSAGE_TYPE_NOT_COMPATIBLE_WITH_PROTOCOL_STATE"
    },
    {
     "enum_field_value" : 99,
     "name" : "aidl::android::hardware::radio::voice::LastCallFailCause::INFORMATION_ELEMENT_NON_EXISTENT"
    },
    {
     "enum_field_value" : 100,
     "name" : "aidl::android::hardware::radio::voice::LastCallFailCause::CONDITIONAL_IE_ERROR"
    },
    {
     "enum_field_value" : 101,
     "name" : "aidl::android::hardware::radio::voice::LastCallFailCause::MESSAGE_NOT_COMPATIBLE_WITH_PROTOCOL_STATE"
    },
    {
     "enum_field_value" : 102,
     "name" : "aidl::android::hardware::radio::voice::LastCallFailCause::RECOVERY_ON_TIMER_EXPIRED"
    },
    {
     "enum_field_value" : 111,
     "name" : "aidl::android::hardware::radio::voice::LastCallFailCause::PROTOCOL_ERROR_UNSPECIFIED"
    },
    {
     "enum_field_value" : 127,
     "name" : "aidl::android::hardware::radio::voice::LastCallFailCause::INTERWORKING_UNSPECIFIED"
    },
    {
     "enum_field_value" : 240,
     "name" : "aidl::android::hardware::radio::voice::LastCallFailCause::CALL_BARRED"
    },
    {
     "enum_field_value" : 241,
     "name" : "aidl::android::hardware::radio::voice::LastCallFailCause::FDN_BLOCKED"
    },
    {
     "enum_field_value" : 242,
     "name" : "aidl::android::hardware::radio::voice::LastCallFailCause::IMSI_UNKNOWN_IN_VLR"
    },
    {
     "enum_field_value" : 243,
     "name" : "aidl::android::hardware::radio::voice::LastCallFailCause::IMEI_NOT_ACCEPTED"
    },
    {
     "enum_field_value" : 244,
     "name" : "aidl::android::hardware::radio::voice::LastCallFailCause::DIAL_MODIFIED_TO_USSD"
    },
    {
     "enum_field_value" : 245,
     "name" : "aidl::android::hardware::radio::voice::LastCallFailCause::DIAL_MODIFIED_TO_SS"
    },
    {
     "enum_field_value" : 246,
     "name" : "aidl::android::hardware::radio::voice::LastCallFailCause::DIAL_MODIFIED_TO_DIAL"
    },
    {
     "enum_field_value" : 247,
     "name" : "aidl::android::hardware::radio::voice::LastCallFailCause::RADIO_OFF"
    },
    {
     "enum_field_value" : 248,
     "name" : "aidl::android::hardware::radio::voice::LastCallFailCause::OUT_OF_SERVICE"
    },
    {
     "enum_field_value" : 249,
     "name" : "aidl::android::hardware::radio::voice::LastCallFailCause::NO_VALID_SIM"
    },
    {
     "enum_field_value" : 250,
     "name" : "aidl::android::hardware::radio::voice::LastCallFailCause::RADIO_INTERNAL_ERROR"
    },
    {
     "enum_field_value" : 251,
     "name" : "aidl::android::hardware::radio::voice::LastCallFailCause::NETWORK_RESP_TIMEOUT"
    },
    {
     "enum_field_value" : 252,
     "name" : "aidl::android::hardware::radio::voice::LastCallFailCause::NETWORK_REJECT"
    },
    {
     "enum_field_value" : 253,
     "name" : "aidl::android::hardware::radio::voice::LastCallFailCause::RADIO_ACCESS_FAILURE"
    },
    {
     "enum_field_value" : 254,
     "name" : "aidl::android::hardware::radio::voice::LastCallFailCause::RADIO_LINK_FAILURE"
    },
    {
     "enum_field_value" : 255,
     "name" : "aidl::android::hardware::radio::voice::LastCallFailCause::RADIO_LINK_LOST"
    },
    {
     "enum_field_value" : 256,
     "name" : "aidl::android::hardware::radio::voice::LastCallFailCause::RADIO_UPLINK_FAILURE"
    },
    {
     "enum_field_value" : 257,
     "name" : "aidl::android::hardware::radio::voice::LastCallFailCause::RADIO_SETUP_FAILURE"
    },
    {
     "enum_field_value" : 258,
     "name" : "aidl::android::hardware::radio::voice::LastCallFailCause::RADIO_RELEASE_NORMAL"
    },
    {
     "enum_field_value" : 259,
     "name" : "aidl::android::hardware::radio::voice::LastCallFailCause::RADIO_RELEASE_ABNORMAL"
    },
    {
     "enum_field_value" : 260,
     "name" : "aidl::android::hardware::radio::voice::LastCallFailCause::ACCESS_CLASS_BLOCKED"
    },
    {
     "enum_field_value" : 261,
     "name" : "aidl::android::hardware::radio::voice::LastCallFailCause::NETWORK_DETACH"
    },
    {
     "enum_field_value" : 1000,
     "name" : "aidl::android::hardware::radio::voice::LastCallFailCause::CDMA_LOCKED_UNTIL_POWER_CYCLE"
    },
    {
     "enum_field_value" : 1001,
     "name" : "aidl::android::hardware::radio::voice::LastCallFailCause::CDMA_DROP"
    },
    {
     "enum_field_value" : 1002,
     "name" : "aidl::android::hardware::radio::voice::LastCallFailCause::CDMA_INTERCEPT"
    },
    {
     "enum_field_value" : 1003,
     "name" : "aidl::android::hardware::radio::voice::LastCallFailCause::CDMA_REORDER"
    },
    {
     "enum_field_value" : 1004,
     "name" : "aidl::android::hardware::radio::voice::LastCallFailCause::CDMA_SO_REJECT"
    },
    {
     "enum_field_value" : 1005,
     "name" : "aidl::android::hardware::radio::voice::LastCallFailCause::CDMA_RETRY_ORDER"
    },
    {
     "enum_field_value" : 1006,
     "name" : "aidl::android::hardware::radio::voice::LastCallFailCause::CDMA_ACCESS_FAILURE"
    },
    {
     "enum_field_value" : 1007,
     "name" : "aidl::android::hardware::radio::voice::LastCallFailCause::CDMA_PREEMPTED"
    },
    {
     "enum_field_value" : 1008,
     "name" : "aidl::android::hardware::radio::voice::LastCallFailCause::CDMA_NOT_EMERGENCY"
    },
    {
     "enum_field_value" : 1009,
     "name" : "aidl::android::hardware::radio::voice::LastCallFailCause::CDMA_ACCESS_BLOCKED"
    },
    {
     "enum_field_value" : 61441,
     "name" : "aidl::android::hardware::radio::voice::LastCallFailCause::OEM_CAUSE_1"
    },
    {
     "enum_field_value" : 61442,
     "name" : "aidl::android::hardware::radio::voice::LastCallFailCause::OEM_CAUSE_2"
    },
    {
     "enum_field_value" : 61443,
     "name" : "aidl::android::hardware::radio::voice::LastCallFailCause::OEM_CAUSE_3"
    },
    {
     "enum_field_value" : 61444,
     "name" : "aidl::android::hardware::radio::voice::LastCallFailCause::OEM_CAUSE_4"
    },
    {
     "enum_field_value" : 61445,
     "name" : "aidl::android::hardware::radio::voice::LastCallFailCause::OEM_CAUSE_5"
    },
    {
     "enum_field_value" : 61446,
     "name" : "aidl::android::hardware::radio::voice::LastCallFailCause::OEM_CAUSE_6"
    },
    {
     "enum_field_value" : 61447,
     "name" : "aidl::android::hardware::radio::voice::LastCallFailCause::OEM_CAUSE_7"
    },
    {
     "enum_field_value" : 61448,
     "name" : "aidl::android::hardware::radio::voice::LastCallFailCause::OEM_CAUSE_8"
    },
    {
     "enum_field_value" : 61449,
     "name" : "aidl::android::hardware::radio::voice::LastCallFailCause::OEM_CAUSE_9"
    },
    {
     "enum_field_value" : 61450,
     "name" : "aidl::android::hardware::radio::voice::LastCallFailCause::OEM_CAUSE_10"
    },
    {
     "enum_field_value" : 61451,
     "name" : "aidl::android::hardware::radio::voice::LastCallFailCause::OEM_CAUSE_11"
    },
    {
     "enum_field_value" : 61452,
     "name" : "aidl::android::hardware::radio::voice::LastCallFailCause::OEM_CAUSE_12"
    },
    {
     "enum_field_value" : 61453,
     "name" : "aidl::android::hardware::radio::voice::LastCallFailCause::OEM_CAUSE_13"
    },
    {
     "enum_field_value" : 61454,
     "name" : "aidl::android::hardware::radio::voice::LastCallFailCause::OEM_CAUSE_14"
    },
    {
     "enum_field_value" : 61455,
     "name" : "aidl::android::hardware::radio::voice::LastCallFailCause::OEM_CAUSE_15"
    },
    {
     "enum_field_value" : 65535,
     "name" : "aidl::android::hardware::radio::voice::LastCallFailCause::ERROR_UNSPECIFIED"
    }
   ],
   "linker_set_key" : "_ZTIN4aidl7android8hardware5radio5voice17LastCallFailCauseE",
   "name" : "aidl::android::hardware::radio::voice::LastCallFailCause",
   "referenced_type" : "_ZTIN4aidl7android8hardware5radio5voice17LastCallFailCauseE",
   "self_type" : "_ZTIN4aidl7android8hardware5radio5voice17LastCallFailCauseE",
   "size" : 4,
   "source_file" : "out/soong/.intermediates/hardware/interfaces/radio/aidl/android.hardware.radio.voice-V1-ndk-source/gen/include/aidl/android/hardware/radio/voice/LastCallFailCause.h",
   "underlying_type" : "_ZTIi"
  },
  {
   "alignment" : 4,
   "enum_fields" :
   [
    {
     "enum_field_value" : 0,
     "name" : "aidl::android::hardware::radio::voice::StkCcUnsolSsResult::SERVICE_TYPE_CFU"
    }
   ],
   "linker_set_key" : "_ZTIN4aidl7android8hardware5radio5voice18StkCcUnsolSsResult17$SERVICE_TYPE_CFUE",
   "name" : "aidl::android::hardware::radio::voice::StkCcUnsolSsResult::(unnamed enum at out/soong/.intermediates/hardware/interfaces/radio/aidl/android.hardware.radio.voice-V1-ndk-source/gen/include/aidl/android/hardware/radio/voice/StkCcUnsolSsResult.h:64:3)",
   "referenced_type" : "_ZTIN4aidl7android8hardware5radio5voice18StkCcUnsolSsResult17$SERVICE_TYPE_CFUE",
   "self_type" : "_ZTIN4aidl7android8hardware5radio5voice18StkCcUnsolSsResult17$SERVICE_TYPE_CFUE",
   "size" : 4,
   "source_file" : "out/soong/.intermediates/hardware/interfaces/radio/aidl/android.hardware.radio.voice-V1-ndk-source/gen/include/aidl/android/hardware/radio/voice/StkCcUnsolSsResult.h",
   "underlying_type" : "_ZTIi"
  },
  {
   "alignment" : 4,
   "enum_fields" :
   [
    {
     "enum_field_value" : 14,
     "name" : "aidl::android::hardware::radio::voice::StkCcUnsolSsResult::SERVICE_TYPE_BAIC"
    }
   ],
   "linker_set_key" : "_ZTIN4aidl7android8hardware5radio5voice18StkCcUnsolSsResult18$SERVICE_TYPE_BAICE",
   "name" : "aidl::android::hardware::radio::voice::StkCcUnsolSsResult::(unnamed enum at out/soong/.intermediates/hardware/interfaces/radio/aidl/android.hardware.radio.voice-V1-ndk-source/gen/include/aidl/android/hardware/radio/voice/StkCcUnsolSsResult.h:78:3)",
   "referenced_type" : "_ZTIN4aidl7android8hardware5radio5voice18StkCcUnsolSsResult18$SERVICE_TYPE_BAICE",
   "self_type" : "_ZTIN4aidl7android8hardware5radio5voice18StkCcUnsolSsResult18$SERVICE_TYPE_BAICE",
   "size" : 4,
   "source_file" : "out/soong/.intermediates/hardware/interfaces/radio/aidl/android.hardware.radio.voice-V1-ndk-source/gen/include/aidl/android/hardware/radio/voice/StkCcUnsolSsResult.h",
   "underlying_type" : "_ZTIi"
  },
  {
   "alignment" : 4,
   "enum_fields" :
   [
    {
     "enum_field_value" : 11,
     "name" : "aidl::android::hardware::radio::voice::StkCcUnsolSsResult::SERVICE_TYPE_BAOC"
    }
   ],
   "linker_set_key" : "_ZTIN4aidl7android8hardware5radio5voice18StkCcUnsolSsResult18$SERVICE_TYPE_BAOCE",
   "name" : "aidl::android::hardware::radio::voice::StkCcUnsolSsResult::(unnamed enum at out/soong/.intermediates/hardware/interfaces/radio/aidl/android.hardware.radio.voice-V1-ndk-source/gen/include/aidl/android/hardware/radio/voice/StkCcUnsolSsResult.h:75:3)",
   "referenced_type" : "_ZTIN4aidl7android8hardware5radio5voice18StkCcUnsolSsResult18$SERVICE_TYPE_BAOCE",
   "self_type" : "_ZTIN4aidl7android8hardware5radio5voice18StkCcUnsolSsResult18$SERVICE_TYPE_BAOCE",
   "size" : 4,
   "source_file" : "out/soong/.intermediates/hardware/interfaces/radio/aidl/android.hardware.radio.voice-V1-ndk-source/gen/include/aidl/android/hardware/radio/voice/StkCcUnsolSsResult.h",
   "underlying_type" : "_ZTIi"
  },
  {
   "alignment" : 4,
   "enum_fields" :
   [
    {
     "enum_field_value" : 6,
     "name" : "aidl::android::hardware::radio::voice::StkCcUnsolSsResult::SERVICE_TYPE_CLIP"
    }
   ],
   "linker_set_key" : "_ZTIN4aidl7android8hardware5radio5voice18StkCcUnsolSsResult18$SERVICE_TYPE_CLIPE",
   "name" : "aidl::android::hardware::radio::voice::StkCcUnsolSsResult::(unnamed enum at out/soong/.intermediates/hardware/interfaces/radio/aidl/android.hardware.radio.voice-V1-ndk-source/gen/include/aidl/android/hardware/radio/voice/StkCcUnsolSsResult.h:70:3)",
   "referenced_type" : "_ZTIN4aidl7android8hardware5radio5voice18StkCcUnsolSsResult18$SERVICE_TYPE_CLIPE",
   "self_type" : "_ZTIN4aidl7android8hardware5radio5voice18StkCcUnsolSsResult18$SERVICE_TYPE_CLIPE",
   "size" : 4,
   "source_file" : "out/soong/.intermediates/hardware/interfaces/radio/aidl/android.hardware.radio.voice-V1-ndk-source/gen/include/aidl/android/hardware/radio/voice/StkCcUnsolSsResult.h",
   "underlying_type" : "_ZTIi"
  },
  {
   "alignment" : 4,
   "enum_fields" :
   [
    {
     "enum_field_value" : 7,
     "name" : "aidl::android::hardware::radio::voice::StkCcUnsolSsResult::SERVICE_TYPE_CLIR"
    }
   ],
   "linker_set_key" : "_ZTIN4aidl7android8hardware5radio5voice18StkCcUnsolSsResult18$SERVICE_TYPE_CLIRE",
   "name" : "aidl::android::hardware::radio::voice::StkCcUnsolSsResult::(unnamed enum at out/soong/.intermediates/hardware/interfaces/radio/aidl/android.hardware.radio.voice-V1-ndk-source/gen/include/aidl/android/hardware/radio/voice/StkCcUnsolSsResult.h:71:3)",
   "referenced_type" : "_ZTIN4aidl7android8hardware5radio5voice18StkCcUnsolSsResult18$SERVICE_TYPE_CLIRE",
   "self_type" : "_ZTIN4aidl7android8hardware5radio5voice18StkCcUnsolSsResult18$SERVICE_TYPE_CLIRE",
   "size" : 4,
   "source_file" : "out/soong/.intermediates/hardware/interfaces/radio/aidl/android.hardware.radio.voice-V1-ndk-source/gen/include/aidl/android/hardware/radio/voice/StkCcUnsolSsResult.h",
   "underlying_type" : "_ZTIi"
  },
  {
   "alignment" : 4,
   "enum_fields" :
   [
    {
     "enum_field_value" : 8,
     "name" : "aidl::android::hardware::radio::voice::StkCcUnsolSsResult::SERVICE_TYPE_COLP"
    }
   ],
   "linker_set_key" : "_ZTIN4aidl7android8hardware5radio5voice18StkCcUnsolSsResult18$SERVICE_TYPE_COLPE",
   "name" : "aidl::android::hardware::radio::voice::StkCcUnsolSsResult::(unnamed enum at out/soong/.intermediates/hardware/interfaces/radio/aidl/android.hardware.radio.voice-V1-ndk-source/gen/include/aidl/android/hardware/radio/voice/StkCcUnsolSsResult.h:72:3)",
   "referenced_type" : "_ZTIN4aidl7android8hardware5radio5voice18StkCcUnsolSsResult18$SERVICE_TYPE_COLPE",
   "self_type" : "_ZTIN4aidl7android8hardware5radio5voice18StkCcUnsolSsResult18$SERVICE_TYPE_COLPE",
   "size" : 4,
   "source_file" : "out/soong/.intermediates/hardware/interfaces/radio/aidl/android.hardware.radio.voice-V1-ndk-source/gen/include/aidl/android/hardware/radio/voice/StkCcUnsolSsResult.h",
   "underlying_type" : "_ZTIi"
  },
  {
   "alignment" : 4,
   "enum_fields" :
   [
    {
     "enum_field_value" : 9,
     "name" : "aidl::android::hardware::radio::voice::StkCcUnsolSsResult::SERVICE_TYPE_COLR"
    }
   ],
   "linker_set_key" : "_ZTIN4aidl7android8hardware5radio5voice18StkCcUnsolSsResult18$SERVICE_TYPE_COLRE",
   "name" : "aidl::android::hardware::radio::voice::StkCcUnsolSsResult::(unnamed enum at out/soong/.intermediates/hardware/interfaces/radio/aidl/android.hardware.radio.voice-V1-ndk-source/gen/include/aidl/android/hardware/radio/voice/StkCcUnsolSsResult.h:73:3)",
   "referenced_type" : "_ZTIN4aidl7android8hardware5radio5voice18StkCcUnsolSsResult18$SERVICE_TYPE_COLRE",
   "self_type" : "_ZTIN4aidl7android8hardware5radio5voice18StkCcUnsolSsResult18$SERVICE_TYPE_COLRE",
   "size" : 4,
   "source_file" : "out/soong/.intermediates/hardware/interfaces/radio/aidl/android.hardware.radio.voice-V1-ndk-source/gen/include/aidl/android/hardware/radio/voice/StkCcUnsolSsResult.h",
   "underlying_type" : "_ZTIi"
  },
  {
   "alignment" : 4,
   "enum_fields" :
   [
    {
     "enum_field_value" : 10,
     "name" : "aidl::android::hardware::radio::voice::StkCcUnsolSsResult::SERVICE_TYPE_WAIT"
    }
   ],
   "linker_set_key" : "_ZTIN4aidl7android8hardware5radio5voice18StkCcUnsolSsResult18$SERVICE_TYPE_WAITE",
   "name" : "aidl::android::hardware::radio::voice::StkCcUnsolSsResult::(unnamed enum at out/soong/.intermediates/hardware/interfaces/radio/aidl/android.hardware.radio.voice-V1-ndk-source/gen/include/aidl/android/hardware/radio/voice/StkCcUnsolSsResult.h:74:3)",
   "referenced_type" : "_ZTIN4aidl7android8hardware5radio5voice18StkCcUnsolSsResult18$SERVICE_TYPE_WAITE",
   "self_type" : "_ZTIN4aidl7android8hardware5radio5voice18StkCcUnsolSsResult18$SERVICE_TYPE_WAITE",
   "size" : 4,
   "source_file" : "out/soong/.intermediates/hardware/interfaces/radio/aidl/android.hardware.radio.voice-V1-ndk-source/gen/include/aidl/android/hardware/radio/voice/StkCcUnsolSsResult.h",
   "underlying_type" : "_ZTIi"
  },
  {
   "alignment" : 4,
   "enum_fields" :
   [
    {
     "enum_field_value" : 12,
     "name" : "aidl::android::hardware::radio::voice::StkCcUnsolSsResult::SERVICE_TYPE_BAOIC"
    }
   ],
   "linker_set_key" : "_ZTIN4aidl7android8hardware5radio5voice18StkCcUnsolSsResult19$SERVICE_TYPE_BAOICE",
   "name" : "aidl::android::hardware::radio::voice::StkCcUnsolSsResult::(unnamed enum at out/soong/.intermediates/hardware/interfaces/radio/aidl/android.hardware.radio.voice-V1-ndk-source/gen/include/aidl/android/hardware/radio/voice/StkCcUnsolSsResult.h:76:3)",
   "referenced_type" : "_ZTIN4aidl7android8hardware5radio5voice18StkCcUnsolSsResult19$SERVICE_TYPE_BAOICE",
   "self_type" : "_ZTIN4aidl7android8hardware5radio5voice18StkCcUnsolSsResult19$SERVICE_TYPE_BAOICE",
   "size" : 4,
   "source_file" : "out/soong/.intermediates/hardware/interfaces/radio/aidl/android.hardware.radio.voice-V1-ndk-source/gen/include/aidl/android/hardware/radio/voice/StkCcUnsolSsResult.h",
   "underlying_type" : "_ZTIi"
  },
  {
   "alignment" : 4,
   "enum_fields" :
   [
    {
     "enum_field_value" : 4,
     "name" : "aidl::android::hardware::radio::voice::StkCcUnsolSsResult::SERVICE_TYPE_CF_ALL"
    }
   ],
   "linker_set_key" : "_ZTIN4aidl7android8hardware5radio5voice18StkCcUnsolSsResult20$SERVICE_TYPE_CF_ALLE",
   "name" : "aidl::android::hardware::radio::voice::StkCcUnsolSsResult::(unnamed enum at out/soong/.intermediates/hardware/interfaces/radio/aidl/android.hardware.radio.voice-V1-ndk-source/gen/include/aidl/android/hardware/radio/voice/StkCcUnsolSsResult.h:68:3)",
   "referenced_type" : "_ZTIN4aidl7android8hardware5radio5voice18StkCcUnsolSsResult20$SERVICE_TYPE_CF_ALLE",
   "self_type" : "_ZTIN4aidl7android8hardware5radio5voice18StkCcUnsolSsResult20$SERVICE_TYPE_CF_ALLE",
   "size" : 4,
   "source_file" : "out/soong/.intermediates/hardware/interfaces/radio/aidl/android.hardware.radio.voice-V1-ndk-source/gen/include/aidl/android/hardware/radio/voice/StkCcUnsolSsResult.h",
   "underlying_type" : "_ZTIi"
  },
  {
   "alignment" : 4,
   "enum_fields" :
   [
    {
     "enum_field_value" : 4,
     "name" : "aidl::android::hardware::radio::voice::StkCcUnsolSsResult::REQUEST_TYPE_ERASURE"
    }
   ],
   "linker_set_key" : "_ZTIN4aidl7android8hardware5radio5voice18StkCcUnsolSsResult21$REQUEST_TYPE_ERASUREE",
   "name" : "aidl::android::hardware::radio::voice::StkCcUnsolSsResult::(unnamed enum at out/soong/.intermediates/hardware/interfaces/radio/aidl/android.hardware.radio.voice-V1-ndk-source/gen/include/aidl/android/hardware/radio/voice/StkCcUnsolSsResult.h:63:3)",
   "referenced_type" : "_ZTIN4aidl7android8hardware5radio5voice18StkCcUnsolSsResult21$REQUEST_TYPE_ERASUREE",
   "self_type" : "_ZTIN4aidl7android8hardware5radio5voice18StkCcUnsolSsResult21$REQUEST_TYPE_ERASUREE",
   "size" : 4,
   "source_file" : "out/soong/.intermediates/hardware/interfaces/radio/aidl/android.hardware.radio.voice-V1-ndk-source/gen/include/aidl/android/hardware/radio/voice/StkCcUnsolSsResult.h",
   "underlying_type" : "_ZTIi"
  },
  {
   "alignment" : 4,
   "enum_fields" :
   [
    {
     "enum_field_value" : 1,
     "name" : "aidl::android::hardware::radio::voice::StkCcUnsolSsResult::SERVICE_TYPE_CF_BUSY"
    }
   ],
   "linker_set_key" : "_ZTIN4aidl7android8hardware5radio5voice18StkCcUnsolSsResult21$SERVICE_TYPE_CF_BUSYE",
   "name" : "aidl::android::hardware::radio::voice::StkCcUnsolSsResult::(unnamed enum at out/soong/.intermediates/hardware/interfaces/radio/aidl/android.hardware.radio.voice-V1-ndk-source/gen/include/aidl/android/hardware/radio/voice/StkCcUnsolSsResult.h:65:3)",
   "referenced_type" : "_ZTIN4aidl7android8hardware5radio5voice18StkCcUnsolSsResult21$SERVICE_TYPE_CF_BUSYE",
   "self_type" : "_ZTIN4aidl7android8hardware5radio5voice18StkCcUnsolSsResult21$SERVICE_TYPE_CF_BUSYE",
   "size" : 4,
   "source_file" : "out/soong/.intermediates/hardware/interfaces/radio/aidl/android.hardware.radio.voice-V1-ndk-source/gen/include/aidl/android/hardware/radio/voice/StkCcUnsolSsResult.h",
   "underlying_type" : "_ZTIi"
  },
  {
   "alignment" : 4,
   "enum_fields" :
   [
    {
     "enum_field_value" : 4,
     "name" : "aidl::android::hardware::radio::voice::StkCcUnsolSsResult::SUPP_SERVICE_CLASS_FAX"
    }
   ],
   "linker_set_key" : "_ZTIN4aidl7android8hardware5radio5voice18StkCcUnsolSsResult23$SUPP_SERVICE_CLASS_FAXE",
   "name" : "aidl::android::hardware::radio::voice::StkCcUnsolSsResult::(unnamed enum at out/soong/.intermediates/hardware/interfaces/radio/aidl/android.hardware.radio.voice-V1-ndk-source/gen/include/aidl/android/hardware/radio/voice/StkCcUnsolSsResult.h:92:3)",
   "referenced_type" : "_ZTIN4aidl7android8hardware5radio5voice18StkCcUnsolSsResult23$SUPP_SERVICE_CLASS_FAXE",
   "self_type" : "_ZTIN4aidl7android8hardware5radio5voice18StkCcUnsolSsResult23$SUPP_SERVICE_CLASS_FAXE",
   "size" : 4,
   "source_file" : "out/soong/.intermediates/hardware/interfaces/radio/aidl/android.hardware.radio.voice-V1-ndk-source/gen/include/aidl/android/hardware/radio/voice/StkCcUnsolSsResult.h",
   "underlying_type" : "_ZTIi"
  },
  {
   "alignment" : 4,
   "enum_fields" :
   [
    {
     "enum_field_value" : 128,
     "name" : "aidl::android::hardware::radio::voice::StkCcUnsolSsResult::SUPP_SERVICE_CLASS_MAX"
    }
   ],
   "linker_set_key" : "_ZTIN4aidl7android8hardware5radio5voice18StkCcUnsolSsResult23$SUPP_SERVICE_CLASS_MAXE",
   "name" : "aidl::android::hardware::radio::voice::StkCcUnsolSsResult::(unnamed enum at out/soong/.intermediates/hardware/interfaces/radio/aidl/android.hardware.radio.voice-V1-ndk-source/gen/include/aidl/android/hardware/radio/voice/StkCcUnsolSsResult.h:98:3)",
   "referenced_type" : "_ZTIN4aidl7android8hardware5radio5voice18StkCcUnsolSsResult23$SUPP_SERVICE_CLASS_MAXE",
   "self_type" : "_ZTIN4aidl7android8hardware5radio5voice18StkCcUnsolSsResult23$SUPP_SERVICE_CLASS_MAXE",
   "size" : 4,
   "source_file" : "out/soong/.intermediates/hardware/interfaces/radio/aidl/android.hardware.radio.voice-V1-ndk-source/gen/include/aidl/android/hardware/radio/voice/StkCcUnsolSsResult.h",
   "underlying_type" : "_ZTIi"
  },
  {
   "alignment" : 4,
   "enum_fields" :
   [
    {
     "enum_field_value" : 128,
     "name" : "aidl::android::hardware::radio::voice::StkCcUnsolSsResult::SUPP_SERVICE_CLASS_PAD"
    }
   ],
   "linker_set_key" : "_ZTIN4aidl7android8hardware5radio5voice18StkCcUnsolSsResult23$SUPP_SERVICE_CLASS_PADE",
   "name" : "aidl::android::hardware::radio::voice::StkCcUnsolSsResult::(unnamed enum at out/soong/.intermediates/hardware/interfaces/radio/aidl/android.hardware.radio.voice-V1-ndk-source/gen/include/aidl/android/hardware/radio/voice/StkCcUnsolSsResult.h:97:3)",
   "referenced_type" : "_ZTIN4aidl7android8hardware5radio5voice18StkCcUnsolSsResult23$SUPP_SERVICE_CLASS_PADE",
   "self_type" : "_ZTIN4aidl7android8hardware5radio5voice18StkCcUnsolSsResult23$SUPP_SERVICE_CLASS_PADE",
   "size" : 4,
   "source_file" : "out/soong/.intermediates/hardware/interfaces/radio/aidl/android.hardware.radio.voice-V1-ndk-source/gen/include/aidl/android/hardware/radio/voice/StkCcUnsolSsResult.h",
   "underlying_type" : "_ZTIi"
  },
  {
   "alignment" : 4,
   "enum_fields" :
   [
    {
     "enum_field_value" : 8,
     "name" : "aidl::android::hardware::radio::voice::StkCcUnsolSsResult::SUPP_SERVICE_CLASS_SMS"
    }
   ],
   "linker_set_key" : "_ZTIN4aidl7android8hardware5radio5voice18StkCcUnsolSsResult23$SUPP_SERVICE_CLASS_SMSE",
   "name" : "aidl::android::hardware::radio::voice::StkCcUnsolSsResult::(unnamed enum at out/soong/.intermediates/hardware/interfaces/radio/aidl/android.hardware.radio.voice-V1-ndk-source/gen/include/aidl/android/hardware/radio/voice/StkCcUnsolSsResult.h:93:3)",
   "referenced_type" : "_ZTIN4aidl7android8hardware5radio5voice18StkCcUnsolSsResult23$SUPP_SERVICE_CLASS_SMSE",
   "self_type" : "_ZTIN4aidl7android8hardware5radio5voice18StkCcUnsolSsResult23$SUPP_SERVICE_CLASS_SMSE",
   "size" : 4,
   "source_file" : "out/soong/.intermediates/hardware/interfaces/radio/aidl/android.hardware.radio.voice-V1-ndk-source/gen/include/aidl/android/hardware/radio/voice/StkCcUnsolSsResult.h",
   "underlying_type" : "_ZTIi"
  },
  {
   "alignment" : 4,
   "enum_fields" :
   [
    {
     "enum_field_value" : 0,
     "name" : "aidl::android::hardware::radio::voice::StkCcUnsolSsResult::REQUEST_TYPE_ACTIVATION"
    }
   ],
   "linker_set_key" : "_ZTIN4aidl7android8hardware5radio5voice18StkCcUnsolSsResult24$REQUEST_TYPE_ACTIVATIONE",
   "name" : "aidl::android::hardware::radio::voice::StkCcUnsolSsResult::(unnamed enum at out/soong/.intermediates/hardware/interfaces/radio/aidl/android.hardware.radio.voice-V1-ndk-source/gen/include/aidl/android/hardware/radio/voice/StkCcUnsolSsResult.h:59:3)",
   "referenced_type" : "_ZTIN4aidl7android8hardware5radio5voice18StkCcUnsolSsResult24$REQUEST_TYPE_ACTIVATIONE",
   "self_type" : "_ZTIN4aidl7android8hardware5radio5voice18StkCcUnsolSsResult24$REQUEST_TYPE_ACTIVATIONE",
   "size" : 4,
   "source_file" : "out/soong/.intermediates/hardware/interfaces/radio/aidl/android.hardware.radio.voice-V1-ndk-source/gen/include/aidl/android/hardware/radio/voice/StkCcUnsolSsResult.h",
   "underlying_type" : "_ZTIi"
  },
  {
   "alignment" : 4,
   "enum_fields" :
   [
    {
     "enum_field_value" : 2,
     "name" : "aidl::android::hardware::radio::voice::StkCcUnsolSsResult::SUPP_SERVICE_CLASS_DATA"
    }
   ],
   "linker_set_key" : "_ZTIN4aidl7android8hardware5radio5voice18StkCcUnsolSsResult24$SUPP_SERVICE_CLASS_DATAE",
   "name" : "aidl::android::hardware::radio::voice::StkCcUnsolSsResult::(unnamed enum at out/soong/.intermediates/hardware/interfaces/radio/aidl/android.hardware.radio.voice-V1-ndk-source/gen/include/aidl/android/hardware/radio/voice/StkCcUnsolSsResult.h:91:3)",
   "referenced_type" : "_ZTIN4aidl7android8hardware5radio5voice18StkCcUnsolSsResult24$SUPP_SERVICE_CLASS_DATAE",
   "self_type" : "_ZTIN4aidl7android8hardware5radio5voice18StkCcUnsolSsResult24$SUPP_SERVICE_CLASS_DATAE",
   "size" : 4,
   "source_file" : "out/soong/.intermediates/hardware/interfaces/radio/aidl/android.hardware.radio.voice-V1-ndk-source/gen/include/aidl/android/hardware/radio/voice/StkCcUnsolSsResult.h",
   "underlying_type" : "_ZTIi"
  },
  {
   "alignment" : 4,
   "enum_fields" :
   [
    {
     "enum_field_value" : 0,
     "name" : "aidl::android::hardware::radio::voice::StkCcUnsolSsResult::SUPP_SERVICE_CLASS_NONE"
    }
   ],
   "linker_set_key" : "_ZTIN4aidl7android8hardware5radio5voice18StkCcUnsolSsResult24$SUPP_SERVICE_CLASS_NONEE",
   "name" : "aidl::android::hardware::radio::voice::StkCcUnsolSsResult::(unnamed enum at out/soong/.intermediates/hardware/interfaces/radio/aidl/android.hardware.radio.voice-V1-ndk-source/gen/include/aidl/android/hardware/radio/voice/StkCcUnsolSsResult.h:89:3)",
   "referenced_type" : "_ZTIN4aidl7android8hardware5radio5voice18StkCcUnsolSsResult24$SUPP_SERVICE_CLASS_NONEE",
   "self_type" : "_ZTIN4aidl7android8hardware5radio5voice18StkCcUnsolSsResult24$SUPP_SERVICE_CLASS_NONEE",
   "size" : 4,
   "source_file" : "out/soong/.intermediates/hardware/interfaces/radio/aidl/android.hardware.radio.voice-V1-ndk-source/gen/include/aidl/android/hardware/radio/voice/StkCcUnsolSsResult.h",
   "underlying_type" : "_ZTIi"
  },
  {
   "alignment" : 4,
   "enum_fields" :
   [
    {
     "enum_field_value" : 16,
     "name" : "aidl::android::hardware::radio::voice::StkCcUnsolSsResult::SERVICE_TYPE_ALL_BARRING"
    }
   ],
   "linker_set_key" : "_ZTIN4aidl7android8hardware5radio5voice18StkCcUnsolSsResult25$SERVICE_TYPE_ALL_BARRINGE",
   "name" : "aidl::android::hardware::radio::voice::StkCcUnsolSsResult::(unnamed enum at out/soong/.intermediates/hardware/interfaces/radio/aidl/android.hardware.radio.voice-V1-ndk-source/gen/include/aidl/android/hardware/radio/voice/StkCcUnsolSsResult.h:80:3)",
   "referenced_type" : "_ZTIN4aidl7android8hardware5radio5voice18StkCcUnsolSsResult25$SERVICE_TYPE_ALL_BARRINGE",
   "self_type" : "_ZTIN4aidl7android8hardware5radio5voice18StkCcUnsolSsResult25$SERVICE_TYPE_ALL_BARRINGE",
   "size" : 4,
   "source_file" : "out/soong/.intermediates/hardware/interfaces/radio/aidl/android.hardware.radio.voice-V1-ndk-source/gen/include/aidl/android/hardware/radio/voice/StkCcUnsolSsResult.h",
   "underlying_type" : "_ZTIi"
  },
  {
   "alignment" : 4,
   "enum_fields" :
   [
    {
     "enum_field_value" : 2,
     "name" : "aidl::android::hardware::radio::voice::StkCcUnsolSsResult::SERVICE_TYPE_CF_NO_REPLY"
    }
   ],
   "linker_set_key" : "_ZTIN4aidl7android8hardware5radio5voice18StkCcUnsolSsResult25$SERVICE_TYPE_CF_NO_REPLYE",
   "name" : "aidl::android::hardware::radio::voice::StkCcUnsolSsResult::(unnamed enum at out/soong/.intermediates/hardware/interfaces/radio/aidl/android.hardware.radio.voice-V1-ndk-source/gen/include/aidl/android/hardware/radio/voice/StkCcUnsolSsResult.h:66:3)",
   "referenced_type" : "_ZTIN4aidl7android8hardware5radio5voice18StkCcUnsolSsResult25$SERVICE_TYPE_CF_NO_REPLYE",
   "self_type" : "_ZTIN4aidl7android8hardware5radio5voice18StkCcUnsolSsResult25$SERVICE_TYPE_CF_NO_REPLYE",
   "size" : 4,
   "source_file" : "out/soong/.intermediates/hardware/interfaces/radio/aidl/android.hardware.radio.voice-V1-ndk-source/gen/include/aidl/android/hardware/radio/voice/StkCcUnsolSsResult.h",
   "underlying_type" : "_ZTIi"
  },
  {
   "alignment" : 4,
   "enum_fields" :
   [
    {
     "enum_field_value" : 1,
     "name" : "aidl::android::hardware::radio::voice::StkCcUnsolSsResult::SUPP_SERVICE_CLASS_VOICE"
    }
   ],
   "linker_set_key" : "_ZTIN4aidl7android8hardware5radio5voice18StkCcUnsolSsResult25$SUPP_SERVICE_CLASS_VOICEE",
   "name" : "aidl::android::hardware::radio::voice::StkCcUnsolSsResult::(unnamed enum at out/soong/.intermediates/hardware/interfaces/radio/aidl/android.hardware.radio.voice-V1-ndk-source/gen/include/aidl/android/hardware/radio/voice/StkCcUnsolSsResult.h:90:3)",
   "referenced_type" : "_ZTIN4aidl7android8hardware5radio5voice18StkCcUnsolSsResult25$SUPP_SERVICE_CLASS_VOICEE",
   "self_type" : "_ZTIN4aidl7android8hardware5radio5voice18StkCcUnsolSsResult25$SUPP_SERVICE_CLASS_VOICEE",
   "size" : 4,
   "source_file" : "out/soong/.intermediates/hardware/interfaces/radio/aidl/android.hardware.radio.voice-V1-ndk-source/gen/include/aidl/android/hardware/radio/voice/StkCcUnsolSsResult.h",
   "underlying_type" : "_ZTIi"
  },
  {
   "alignment" : 4,
   "enum_fields" :
   [
    {
     "enum_field_value" : 1,
     "name" : "aidl::android::hardware::radio::voice::StkCcUnsolSsResult::REQUEST_TYPE_DEACTIVATION"
    }
   ],
   "linker_set_key" : "_ZTIN4aidl7android8hardware5radio5voice18StkCcUnsolSsResult26$REQUEST_TYPE_DEACTIVATIONE",
   "name" : "aidl::android::hardware::radio::voice::StkCcUnsolSsResult::(unnamed enum at out/soong/.intermediates/hardware/interfaces/radio/aidl/android.hardware.radio.voice-V1-ndk-source/gen/include/aidl/android/hardware/radio/voice/StkCcUnsolSsResult.h:60:3)",
   "referenced_type" : "_ZTIN4aidl7android8hardware5radio5voice18StkCcUnsolSsResult26$REQUEST_TYPE_DEACTIVATIONE",
   "self_type" : "_ZTIN4aidl7android8hardware5radio5voice18StkCcUnsolSsResult26$REQUEST_TYPE_DEACTIVATIONE",
   "size" : 4,
   "source_file" : "out/soong/.intermediates/hardware/interfaces/radio/aidl/android.hardware.radio.voice-V1-ndk-source/gen/include/aidl/android/hardware/radio/voice/StkCcUnsolSsResult.h",
   "underlying_type" : "_ZTIi"
  },
  {
   "alignment" : 4,
   "enum_fields" :
   [
    {
     "enum_field_value" : 3,
     "name" : "aidl::android::hardware::radio::voice::StkCcUnsolSsResult::REQUEST_TYPE_REGISTRATION"
    }
   ],
   "linker_set_key" : "_ZTIN4aidl7android8hardware5radio5voice18StkCcUnsolSsResult26$REQUEST_TYPE_REGISTRATIONE",
   "name" : "aidl::android::hardware::radio::voice::StkCcUnsolSsResult::(unnamed enum at out/soong/.intermediates/hardware/interfaces/radio/aidl/android.hardware.radio.voice-V1-ndk-source/gen/include/aidl/android/hardware/radio/voice/StkCcUnsolSsResult.h:62:3)",
   "referenced_type" : "_ZTIN4aidl7android8hardware5radio5voice18StkCcUnsolSsResult26$REQUEST_TYPE_REGISTRATIONE",
   "self_type" : "_ZTIN4aidl7android8hardware5radio5voice18StkCcUnsolSsResult26$REQUEST_TYPE_REGISTRATIONE",
   "size" : 4,
   "source_file" : "out/soong/.intermediates/hardware/interfaces/radio/aidl/android.hardware.radio.voice-V1-ndk-source/gen/include/aidl/android/hardware/radio/voice/StkCcUnsolSsResult.h",
   "underlying_type" : "_ZTIi"
  },
  {
   "alignment" : 4,
   "enum_fields" :
   [
    {
     "enum_field_value" : 15,
     "name" : "aidl::android::hardware::radio::voice::StkCcUnsolSsResult::SERVICE_TYPE_BAIC_ROAMING"
    }
   ],
   "linker_set_key" : "_ZTIN4aidl7android8hardware5radio5voice18StkCcUnsolSsResult26$SERVICE_TYPE_BAIC_ROAMINGE",
   "name" : "aidl::android::hardware::radio::voice::StkCcUnsolSsResult::(unnamed enum at out/soong/.intermediates/hardware/interfaces/radio/aidl/android.hardware.radio.voice-V1-ndk-source/gen/include/aidl/android/hardware/radio/voice/StkCcUnsolSsResult.h:79:3)",
   "referenced_type" : "_ZTIN4aidl7android8hardware5radio5voice18StkCcUnsolSsResult26$SERVICE_TYPE_BAIC_ROAMINGE",
   "self_type" : "_ZTIN4aidl7android8hardware5radio5voice18StkCcUnsolSsResult26$SERVICE_TYPE_BAIC_ROAMINGE",
   "size" : 4,
   "source_file" : "out/soong/.intermediates/hardware/interfaces/radio/aidl/android.hardware.radio.voice-V1-ndk-source/gen/include/aidl/android/hardware/radio/voice/StkCcUnsolSsResult.h",
   "underlying_type" : "_ZTIi"
  },
  {
   "alignment" : 4,
   "enum_fields" :
   [
    {
     "enum_field_value" : 64,
     "name" : "aidl::android::hardware::radio::voice::StkCcUnsolSsResult::SUPP_SERVICE_CLASS_PACKET"
    }
   ],
   "linker_set_key" : "_ZTIN4aidl7android8hardware5radio5voice18StkCcUnsolSsResult26$SUPP_SERVICE_CLASS_PACKETE",
   "name" : "aidl::android::hardware::radio::voice::StkCcUnsolSsResult::(unnamed enum at out/soong/.intermediates/hardware/interfaces/radio/aidl/android.hardware.radio.voice-V1-ndk-source/gen/include/aidl/android/hardware/radio/voice/StkCcUnsolSsResult.h:96:3)",
   "referenced_type" : "_ZTIN4aidl7android8hardware5radio5voice18StkCcUnsolSsResult26$SUPP_SERVICE_CLASS_PACKETE",
   "self_type" : "_ZTIN4aidl7android8hardware5radio5voice18StkCcUnsolSsResult26$SUPP_SERVICE_CLASS_PACKETE",
   "size" : 4,
   "source_file" : "out/soong/.intermediates/hardware/interfaces/radio/aidl/android.hardware.radio.voice-V1-ndk-source/gen/include/aidl/android/hardware/radio/voice/StkCcUnsolSsResult.h",
   "underlying_type" : "_ZTIi"
  },
  {
   "alignment" : 4,
   "enum_fields" :
   [
    {
     "enum_field_value" : 2,
     "name" : "aidl::android::hardware::radio::voice::StkCcUnsolSsResult::REQUEST_TYPE_INTERROGATION"
    }
   ],
   "linker_set_key" : "_ZTIN4aidl7android8hardware5radio5voice18StkCcUnsolSsResult27$REQUEST_TYPE_INTERROGATIONE",
   "name" : "aidl::android::hardware::radio::voice::StkCcUnsolSsResult::(unnamed enum at out/soong/.intermediates/hardware/interfaces/radio/aidl/android.hardware.radio.voice-V1-ndk-source/gen/include/aidl/android/hardware/radio/voice/StkCcUnsolSsResult.h:61:3)",
   "referenced_type" : "_ZTIN4aidl7android8hardware5radio5voice18StkCcUnsolSsResult27$REQUEST_TYPE_INTERROGATIONE",
   "self_type" : "_ZTIN4aidl7android8hardware5radio5voice18StkCcUnsolSsResult27$REQUEST_TYPE_INTERROGATIONE",
   "size" : 4,
   "source_file" : "out/soong/.intermediates/hardware/interfaces/radio/aidl/android.hardware.radio.voice-V1-ndk-source/gen/include/aidl/android/hardware/radio/voice/StkCcUnsolSsResult.h",
   "underlying_type" : "_ZTIi"
  },
  {
   "alignment" : 4,
   "enum_fields" :
   [
    {
     "enum_field_value" : 2,
     "name" : "aidl::android::hardware::radio::voice::StkCcUnsolSsResult::TELESERVICE_TYPE_TELEPHONY"
    }
   ],
   "linker_set_key" : "_ZTIN4aidl7android8hardware5radio5voice18StkCcUnsolSsResult27$TELESERVICE_TYPE_TELEPHONYE",
   "name" : "aidl::android::hardware::radio::voice::StkCcUnsolSsResult::(unnamed enum at out/soong/.intermediates/hardware/interfaces/radio/aidl/android.hardware.radio.voice-V1-ndk-source/gen/include/aidl/android/hardware/radio/voice/StkCcUnsolSsResult.h:85:3)",
   "referenced_type" : "_ZTIN4aidl7android8hardware5radio5voice18StkCcUnsolSsResult27$TELESERVICE_TYPE_TELEPHONYE",
   "self_type" : "_ZTIN4aidl7android8hardware5radio5voice18StkCcUnsolSsResult27$TELESERVICE_TYPE_TELEPHONYE",
   "size" : 4,
   "source_file" : "out/soong/.intermediates/hardware/interfaces/radio/aidl/android.hardware.radio.voice-V1-ndk-source/gen/include/aidl/android/hardware/radio/voice/StkCcUnsolSsResult.h",
   "underlying_type" : "_ZTIi"
  },
  {
   "alignment" : 4,
   "enum_fields" :
   [
    {
     "enum_field_value" : 13,
     "name" : "aidl::android::hardware::radio::voice::StkCcUnsolSsResult::SERVICE_TYPE_BAOIC_EXC_HOME"
    }
   ],
   "linker_set_key" : "_ZTIN4aidl7android8hardware5radio5voice18StkCcUnsolSsResult28$SERVICE_TYPE_BAOIC_EXC_HOMEE",
   "name" : "aidl::android::hardware::radio::voice::StkCcUnsolSsResult::(unnamed enum at out/soong/.intermediates/hardware/interfaces/radio/aidl/android.hardware.radio.voice-V1-ndk-source/gen/include/aidl/android/hardware/radio/voice/StkCcUnsolSsResult.h:77:3)",
   "referenced_type" : "_ZTIN4aidl7android8hardware5radio5voice18StkCcUnsolSsResult28$SERVICE_TYPE_BAOIC_EXC_HOMEE",
   "self_type" : "_ZTIN4aidl7android8hardware5radio5voice18StkCcUnsolSsResult28$SERVICE_TYPE_BAOIC_EXC_HOMEE",
   "size" : 4,
   "source_file" : "out/soong/.intermediates/hardware/interfaces/radio/aidl/android.hardware.radio.voice-V1-ndk-source/gen/include/aidl/android/hardware/radio/voice/StkCcUnsolSsResult.h",
   "underlying_type" : "_ZTIi"
  },
  {
   "alignment" : 4,
   "enum_fields" :
   [
    {
     "enum_field_value" : 16,
     "name" : "aidl::android::hardware::radio::voice::StkCcUnsolSsResult::SUPP_SERVICE_CLASS_DATA_SYNC"
    }
   ],
   "linker_set_key" : "_ZTIN4aidl7android8hardware5radio5voice18StkCcUnsolSsResult29$SUPP_SERVICE_CLASS_DATA_SYNCE",
   "name" : "aidl::android::hardware::radio::voice::StkCcUnsolSsResult::(unnamed enum at out/soong/.intermediates/hardware/interfaces/radio/aidl/android.hardware.radio.voice-V1-ndk-source/gen/include/aidl/android/hardware/radio/voice/StkCcUnsolSsResult.h:94:3)",
   "referenced_type" : "_ZTIN4aidl7android8hardware5radio5voice18StkCcUnsolSsResult29$SUPP_SERVICE_CLASS_DATA_SYNCE",
   "self_type" : "_ZTIN4aidl7android8hardware5radio5voice18StkCcUnsolSsResult29$SUPP_SERVICE_CLASS_DATA_SYNCE",
   "size" : 4,
   "source_file" : "out/soong/.intermediates/hardware/interfaces/radio/aidl/android.hardware.radio.voice-V1-ndk-source/gen/include/aidl/android/hardware/radio/voice/StkCcUnsolSsResult.h",
   "underlying_type" : "_ZTIi"
  },
  {
   "alignment" : 4,
   "enum_fields" :
   [
    {
     "enum_field_value" : 3,
     "name" : "aidl::android::hardware::radio::voice::StkCcUnsolSsResult::SERVICE_TYPE_CF_NOT_REACHABLE"
    }
   ],
   "linker_set_key" : "_ZTIN4aidl7android8hardware5radio5voice18StkCcUnsolSsResult30$SERVICE_TYPE_CF_NOT_REACHABLEE",
   "name" : "aidl::android::hardware::radio::voice::StkCcUnsolSsResult::(unnamed enum at out/soong/.intermediates/hardware/interfaces/radio/aidl/android.hardware.radio.voice-V1-ndk-source/gen/include/aidl/android/hardware/radio/voice/StkCcUnsolSsResult.h:67:3)",
   "referenced_type" : "_ZTIN4aidl7android8hardware5radio5voice18StkCcUnsolSsResult30$SERVICE_TYPE_CF_NOT_REACHABLEE",
   "self_type" : "_ZTIN4aidl7android8hardware5radio5voice18StkCcUnsolSsResult30$SERVICE_TYPE_CF_NOT_REACHABLEE",
   "size" : 4,
   "source_file" : "out/soong/.intermediates/hardware/interfaces/radio/aidl/android.hardware.radio.voice-V1-ndk-source/gen/include/aidl/android/hardware/radio/voice/StkCcUnsolSsResult.h",
   "underlying_type" : "_ZTIi"
  },
  {
   "alignment" : 4,
   "enum_fields" :
   [
    {
     "enum_field_value" : 18,
     "name" : "aidl::android::hardware::radio::voice::StkCcUnsolSsResult::SERVICE_TYPE_INCOMING_BARRING"
    }
   ],
   "linker_set_key" : "_ZTIN4aidl7android8hardware5radio5voice18StkCcUnsolSsResult30$SERVICE_TYPE_INCOMING_BARRINGE",
   "name" : "aidl::android::hardware::radio::voice::StkCcUnsolSsResult::(unnamed enum at out/soong/.intermediates/hardware/interfaces/radio/aidl/android.hardware.radio.voice-V1-ndk-source/gen/include/aidl/android/hardware/radio/voice/StkCcUnsolSsResult.h:82:3)",
   "referenced_type" : "_ZTIN4aidl7android8hardware5radio5voice18StkCcUnsolSsResult30$SERVICE_TYPE_INCOMING_BARRINGE",
   "self_type" : "_ZTIN4aidl7android8hardware5radio5voice18StkCcUnsolSsResult30$SERVICE_TYPE_INCOMING_BARRINGE",
   "size" : 4,
   "source_file" : "out/soong/.intermediates/hardware/interfaces/radio/aidl/android.hardware.radio.voice-V1-ndk-source/gen/include/aidl/android/hardware/radio/voice/StkCcUnsolSsResult.h",
   "underlying_type" : "_ZTIi"
  },
  {
   "alignment" : 4,
   "enum_fields" :
   [
    {
     "enum_field_value" : 17,
     "name" : "aidl::android::hardware::radio::voice::StkCcUnsolSsResult::SERVICE_TYPE_OUTGOING_BARRING"
    }
   ],
   "linker_set_key" : "_ZTIN4aidl7android8hardware5radio5voice18StkCcUnsolSsResult30$SERVICE_TYPE_OUTGOING_BARRINGE",
   "name" : "aidl::android::hardware::radio::voice::StkCcUnsolSsResult::(unnamed enum at out/soong/.intermediates/hardware/interfaces/radio/aidl/android.hardware.radio.voice-V1-ndk-source/gen/include/aidl/android/hardware/radio/voice/StkCcUnsolSsResult.h:81:3)",
   "referenced_type" : "_ZTIN4aidl7android8hardware5radio5voice18StkCcUnsolSsResult30$SERVICE_TYPE_OUTGOING_BARRINGE",
   "self_type" : "_ZTIN4aidl7android8hardware5radio5voice18StkCcUnsolSsResult30$SERVICE_TYPE_OUTGOING_BARRINGE",
   "size" : 4,
   "source_file" : "out/soong/.intermediates/hardware/interfaces/radio/aidl/android.hardware.radio.voice-V1-ndk-source/gen/include/aidl/android/hardware/radio/voice/StkCcUnsolSsResult.h",
   "underlying_type" : "_ZTIi"
  },
  {
   "alignment" : 4,
   "enum_fields" :
   [
    {
     "enum_field_value" : 32,
     "name" : "aidl::android::hardware::radio::voice::StkCcUnsolSsResult::SUPP_SERVICE_CLASS_DATA_ASYNC"
    }
   ],
   "linker_set_key" : "_ZTIN4aidl7android8hardware5radio5voice18StkCcUnsolSsResult30$SUPP_SERVICE_CLASS_DATA_ASYNCE",
   "name" : "aidl::android::hardware::radio::voice::StkCcUnsolSsResult::(unnamed enum at out/soong/.intermediates/hardware/interfaces/radio/aidl/android.hardware.radio.voice-V1-ndk-source/gen/include/aidl/android/hardware/radio/voice/StkCcUnsolSsResult.h:95:3)",
   "referenced_type" : "_ZTIN4aidl7android8hardware5radio5voice18StkCcUnsolSsResult30$SUPP_SERVICE_CLASS_DATA_ASYNCE",
   "self_type" : "_ZTIN4aidl7android8hardware5radio5voice18StkCcUnsolSsResult30$SUPP_SERVICE_CLASS_DATA_ASYNCE",
   "size" : 4,
   "source_file" : "out/soong/.intermediates/hardware/interfaces/radio/aidl/android.hardware.radio.voice-V1-ndk-source/gen/include/aidl/android/hardware/radio/voice/StkCcUnsolSsResult.h",
   "underlying_type" : "_ZTIi"
  },
  {
   "alignment" : 4,
   "enum_fields" :
   [
    {
     "enum_field_value" : 4,
     "name" : "aidl::android::hardware::radio::voice::StkCcUnsolSsResult::TELESERVICE_TYPE_SMS_SERVICES"
    }
   ],
   "linker_set_key" : "_ZTIN4aidl7android8hardware5radio5voice18StkCcUnsolSsResult30$TELESERVICE_TYPE_SMS_SERVICESE",
   "name" : "aidl::android::hardware::radio::voice::StkCcUnsolSsResult::(unnamed enum at out/soong/.intermediates/hardware/interfaces/radio/aidl/android.hardware.radio.voice-V1-ndk-source/gen/include/aidl/android/hardware/radio/voice/StkCcUnsolSsResult.h:87:3)",
   "referenced_type" : "_ZTIN4aidl7android8hardware5radio5voice18StkCcUnsolSsResult30$TELESERVICE_TYPE_SMS_SERVICESE",
   "self_type" : "_ZTIN4aidl7android8hardware5radio5voice18StkCcUnsolSsResult30$TELESERVICE_TYPE_SMS_SERVICESE",
   "size" : 4,
   "source_file" : "out/soong/.intermediates/hardware/interfaces/radio/aidl/android.hardware.radio.voice-V1-ndk-source/gen/include/aidl/android/hardware/radio/voice/StkCcUnsolSsResult.h",
   "underlying_type" : "_ZTIi"
  },
  {
   "alignment" : 4,
   "enum_fields" :
   [
    {
     "enum_field_value" : 5,
     "name" : "aidl::android::hardware::radio::voice::StkCcUnsolSsResult::SERVICE_TYPE_CF_ALL_CONDITIONAL"
    }
   ],
   "linker_set_key" : "_ZTIN4aidl7android8hardware5radio5voice18StkCcUnsolSsResult32$SERVICE_TYPE_CF_ALL_CONDITIONALE",
   "name" : "aidl::android::hardware::radio::voice::StkCcUnsolSsResult::(unnamed enum at out/soong/.intermediates/hardware/interfaces/radio/aidl/android.hardware.radio.voice-V1-ndk-source/gen/include/aidl/android/hardware/radio/voice/StkCcUnsolSsResult.h:69:3)",
   "referenced_type" : "_ZTIN4aidl7android8hardware5radio5voice18StkCcUnsolSsResult32$SERVICE_TYPE_CF_ALL_CONDITIONALE",
   "self_type" : "_ZTIN4aidl7android8hardware5radio5voice18StkCcUnsolSsResult32$SERVICE_TYPE_CF_ALL_CONDITIONALE",
   "size" : 4,
   "source_file" : "out/soong/.intermediates/hardware/interfaces/radio/aidl/android.hardware.radio.voice-V1-ndk-source/gen/include/aidl/android/hardware/radio/voice/StkCcUnsolSsResult.h",
   "underlying_type" : "_ZTIi"
  },
  {
   "alignment" : 4,
   "enum_fields" :
   [
    {
     "enum_field_value" : 1,
     "name" : "aidl::android::hardware::radio::voice::StkCcUnsolSsResult::TELESERVICE_TYPE_ALL_TELESEVICES"
    }
   ],
   "linker_set_key" : "_ZTIN4aidl7android8hardware5radio5voice18StkCcUnsolSsResult33$TELESERVICE_TYPE_ALL_TELESEVICESE",
   "name" : "aidl::android::hardware::radio::voice::StkCcUnsolSsResult::(unnamed enum at out/soong/.intermediates/hardware/interfaces/radio/aidl/android.hardware.radio.voice-V1-ndk-source/gen/include/aidl/android/hardware/radio/voice/StkCcUnsolSsResult.h:84:3)",
   "referenced_type" : "_ZTIN4aidl7android8hardware5radio5voice18StkCcUnsolSsResult33$TELESERVICE_TYPE_ALL_TELESEVICESE",
   "self_type" : "_ZTIN4aidl7android8hardware5radio5voice18StkCcUnsolSsResult33$TELESERVICE_TYPE_ALL_TELESEVICESE",
   "size" : 4,
   "source_file" : "out/soong/.intermediates/hardware/interfaces/radio/aidl/android.hardware.radio.voice-V1-ndk-source/gen/include/aidl/android/hardware/radio/voice/StkCcUnsolSsResult.h",
   "underlying_type" : "_ZTIi"
  },
  {
   "alignment" : 4,
   "enum_fields" :
   [
    {
     "enum_field_value" : 3,
     "name" : "aidl::android::hardware::radio::voice::StkCcUnsolSsResult::TELESERVICE_TYPE_ALL_DATA_TELESERVICES"
    }
   ],
   "linker_set_key" : "_ZTIN4aidl7android8hardware5radio5voice18StkCcUnsolSsResult39$TELESERVICE_TYPE_ALL_DATA_TELESERVICESE",
   "name" : "aidl::android::hardware::radio::voice::StkCcUnsolSsResult::(unnamed enum at out/soong/.intermediates/hardware/interfaces/radio/aidl/android.hardware.radio.voice-V1-ndk-source/gen/include/aidl/android/hardware/radio/voice/StkCcUnsolSsResult.h:86:3)",
   "referenced_type" : "_ZTIN4aidl7android8hardware5radio5voice18StkCcUnsolSsResult39$TELESERVICE_TYPE_ALL_DATA_TELESERVICESE",
   "self_type" : "_ZTIN4aidl7android8hardware5radio5voice18StkCcUnsolSsResult39$TELESERVICE_TYPE_ALL_DATA_TELESERVICESE",
   "size" : 4,
   "source_file" : "out/soong/.intermediates/hardware/interfaces/radio/aidl/android.hardware.radio.voice-V1-ndk-source/gen/include/aidl/android/hardware/radio/voice/StkCcUnsolSsResult.h",
   "underlying_type" : "_ZTIi"
  },
  {
   "alignment" : 4,
   "enum_fields" :
   [
    {
     "enum_field_value" : 5,
     "name" : "aidl::android::hardware::radio::voice::StkCcUnsolSsResult::TELESERVICE_TYPE_ALL_TELESERVICES_EXCEPT_SMS"
    }
   ],
   "linker_set_key" : "_ZTIN4aidl7android8hardware5radio5voice18StkCcUnsolSsResult45$TELESERVICE_TYPE_ALL_TELESERVICES_EXCEPT_SMSE",
   "name" : "aidl::android::hardware::radio::voice::StkCcUnsolSsResult::(unnamed enum at out/soong/.intermediates/hardware/interfaces/radio/aidl/android.hardware.radio.voice-V1-ndk-source/gen/include/aidl/android/hardware/radio/voice/StkCcUnsolSsResult.h:88:3)",
   "referenced_type" : "_ZTIN4aidl7android8hardware5radio5voice18StkCcUnsolSsResult45$TELESERVICE_TYPE_ALL_TELESERVICES_EXCEPT_SMSE",
   "self_type" : "_ZTIN4aidl7android8hardware5radio5voice18StkCcUnsolSsResult45$TELESERVICE_TYPE_ALL_TELESERVICES_EXCEPT_SMSE",
   "size" : 4,
   "source_file" : "out/soong/.intermediates/hardware/interfaces/radio/aidl/android.hardware.radio.voice-V1-ndk-source/gen/include/aidl/android/hardware/radio/voice/StkCcUnsolSsResult.h",
   "underlying_type" : "_ZTIi"
  },
  {
   "alignment" : 4,
   "enum_fields" :
   [
    {
     "enum_field_value" : 0,
     "name" : "aidl::android::hardware::radio::voice::StkCcUnsolSsResult::TELESERVICE_TYPE_ALL_TELE_AND_BEARER_SERVICES"
    }
   ],
   "linker_set_key" : "_ZTIN4aidl7android8hardware5radio5voice18StkCcUnsolSsResult46$TELESERVICE_TYPE_ALL_TELE_AND_BEARER_SERVICESE",
   "name" : "aidl::android::hardware::radio::voice::StkCcUnsolSsResult::(unnamed enum at out/soong/.intermediates/hardware/interfaces/radio/aidl/android.hardware.radio.voice-V1-ndk-source/gen/include/aidl/android/hardware/radio/voice/StkCcUnsolSsResult.h:83:3)",
   "referenced_type" : "_ZTIN4aidl7android8hardware5radio5voice18StkCcUnsolSsResult46$TELESERVICE_TYPE_ALL_TELE_AND_BEARER_SERVICESE",
   "self_type" : "_ZTIN4aidl7android8hardware5radio5voice18StkCcUnsolSsResult46$TELESERVICE_TYPE_ALL_TELE_AND_BEARER_SERVICESE",
   "size" : 4,
   "source_file" : "out/soong/.intermediates/hardware/interfaces/radio/aidl/android.hardware.radio.voice-V1-ndk-source/gen/include/aidl/android/hardware/radio/voice/StkCcUnsolSsResult.h",
   "underlying_type" : "_ZTIi"
  },
  {
   "alignment" : 4,
   "enum_fields" :
   [
    {
     "enum_field_value" : 81,
     "name" : "aidl::android::hardware::radio::voice::CdmaNumberInfoRecord::CDMA_NUMBER_INFO_BUFFER_LENGTH"
    }
   ],
   "linker_set_key" : "_ZTIN4aidl7android8hardware5radio5voice20CdmaNumberInfoRecord31$CDMA_NUMBER_INFO_BUFFER_LENGTHE",
   "name" : "aidl::android::hardware::radio::voice::CdmaNumberInfoRecord::(unnamed enum at out/soong/.intermediates/hardware/interfaces/radio/aidl/android.hardware.radio.voice-V1-ndk-source/gen/include/aidl/android/hardware/radio/voice/CdmaNumberInfoRecord.h:54:3)",
   "referenced_type" : "_ZTIN4aidl7android8hardware5radio5voice20CdmaNumberInfoRecord31$CDMA_NUMBER_INFO_BUFFER_LENGTHE",
   "self_type" : "_ZTIN4aidl7android8hardware5radio5voice20CdmaNumberInfoRecord31$CDMA_NUMBER_INFO_BUFFER_LENGTHE",
   "size" : 4,
   "source_file" : "out/soong/.intermediates/hardware/interfaces/radio/aidl/android.hardware.radio.voice-V1-ndk-source/gen/include/aidl/android/hardware/radio/voice/CdmaNumberInfoRecord.h",
   "underlying_type" : "_ZTIi"
  },
  {
   "alignment" : 4,
   "enum_fields" :
   [
    {
     "enum_field_value" : 0,
     "name" : "aidl::android::hardware::radio::voice::EmergencyCallRouting::UNKNOWN"
    },
    {
     "enum_field_value" : 1,
     "name" : "aidl::android::hardware::radio::voice::EmergencyCallRouting::EMERGENCY"
    },
    {
     "enum_field_value" : 2,
     "name" : "aidl::android::hardware::radio::voice::EmergencyCallRouting::NORMAL"
    }
   ],
   "linker_set_key" : "_ZTIN4aidl7android8hardware5radio5voice20EmergencyCallRoutingE",
   "name" : "aidl::android::hardware::radio::voice::EmergencyCallRouting",
   "referenced_type" : "_ZTIN4aidl7android8hardware5radio5voice20EmergencyCallRoutingE",
   "self_type" : "_ZTIN4aidl7android8hardware5radio5voice20EmergencyCallRoutingE",
   "size" : 4,
   "source_file" : "out/soong/.intermediates/hardware/interfaces/radio/aidl/android.hardware.radio.voice-V1-ndk-source/gen/include/aidl/android/hardware/radio/voice/EmergencyCallRouting.h",
   "underlying_type" : "_ZTIi"
  },
  {
   "alignment" : 4,
   "enum_fields" :
   [
    {
     "enum_field_value" : 64,
     "name" : "aidl::android::hardware::radio::voice::CdmaDisplayInfoRecord::CDMA_ALPHA_INFO_BUFFER_LENGTH"
    }
   ],
   "linker_set_key" : "_ZTIN4aidl7android8hardware5radio5voice21CdmaDisplayInfoRecord30$CDMA_ALPHA_INFO_BUFFER_LENGTHE",
   "name" : "aidl::android::hardware::radio::voice::CdmaDisplayInfoRecord::(unnamed enum at out/soong/.intermediates/hardware/interfaces/radio/aidl/android.hardware.radio.voice-V1-ndk-source/gen/include/aidl/android/hardware/radio/voice/CdmaDisplayInfoRecord.h:50:3)",
   "referenced_type" : "_ZTIN4aidl7android8hardware5radio5voice21CdmaDisplayInfoRecord30$CDMA_ALPHA_INFO_BUFFER_LENGTHE",
   "self_type" : "_ZTIN4aidl7android8hardware5radio5voice21CdmaDisplayInfoRecord30$CDMA_ALPHA_INFO_BUFFER_LENGTHE",
   "size" : 4,
   "source_file" : "out/soong/.intermediates/hardware/interfaces/radio/aidl/android.hardware.radio.voice-V1-ndk-source/gen/include/aidl/android/hardware/radio/voice/CdmaDisplayInfoRecord.h",
   "underlying_type" : "_ZTIi"
  },
  {
   "alignment" : 4,
   "enum_fields" :
   [
    {
     "enum_field_value" : 4,
     "name" : "aidl::android::hardware::radio::voice::CdmaInformationRecord::NAME_SIGNAL"
    }
   ],
   "linker_set_key" : "_ZTIN4aidl7android8hardware5radio5voice21CdmaInformationRecord12$NAME_SIGNALE",
   "name" : "aidl::android::hardware::radio::voice::CdmaInformationRecord::(unnamed enum at out/soong/.intermediates/hardware/interfaces/radio/aidl/android.hardware.radio.voice-V1-ndk-source/gen/include/aidl/android/hardware/radio/voice/CdmaInformationRecord.h:69:3)",
   "referenced_type" : "_ZTIN4aidl7android8hardware5radio5voice21CdmaInformationRecord12$NAME_SIGNALE",
   "self_type" : "_ZTIN4aidl7android8hardware5radio5voice21CdmaInformationRecord12$NAME_SIGNALE",
   "size" : 4,
   "source_file" : "out/soong/.intermediates/hardware/interfaces/radio/aidl/android.hardware.radio.voice-V1-ndk-source/gen/include/aidl/android/hardware/radio/voice/CdmaInformationRecord.h",
   "underlying_type" : "_ZTIi"
  },
  {
   "alignment" : 4,
   "enum_fields" :
   [
    {
     "enum_field_value" : 0,
     "name" : "aidl::android::hardware::radio::voice::CdmaInformationRecord::NAME_DISPLAY"
    }
   ],
   "linker_set_key" : "_ZTIN4aidl7android8hardware5radio5voice21CdmaInformationRecord13$NAME_DISPLAYE",
   "name" : "aidl::android::hardware::radio::voice::CdmaInformationRecord::(unnamed enum at out/soong/.intermediates/hardware/interfaces/radio/aidl/android.hardware.radio.voice-V1-ndk-source/gen/include/aidl/android/hardware/radio/voice/CdmaInformationRecord.h:65:3)",
   "referenced_type" : "_ZTIN4aidl7android8hardware5radio5voice21CdmaInformationRecord13$NAME_DISPLAYE",
   "self_type" : "_ZTIN4aidl7android8hardware5radio5voice21CdmaInformationRecord13$NAME_DISPLAYE",
   "size" : 4,
   "source_file" : "out/soong/.intermediates/hardware/interfaces/radio/aidl/android.hardware.radio.voice-V1-ndk-source/gen/include/aidl/android/hardware/radio/voice/CdmaInformationRecord.h",
   "underlying_type" : "_ZTIi"
  },
  {
   "alignment" : 4,
   "enum_fields" :
   [
    {
     "enum_field_value" : 8,
     "name" : "aidl::android::hardware::radio::voice::CdmaInformationRecord::NAME_T53_CLIR"
    }
   ],
   "linker_set_key" : "_ZTIN4aidl7android8hardware5radio5voice21CdmaInformationRecord14$NAME_T53_CLIRE",
   "name" : "aidl::android::hardware::radio::voice::CdmaInformationRecord::(unnamed enum at out/soong/.intermediates/hardware/interfaces/radio/aidl/android.hardware.radio.voice-V1-ndk-source/gen/include/aidl/android/hardware/radio/voice/CdmaInformationRecord.h:73:3)",
   "referenced_type" : "_ZTIN4aidl7android8hardware5radio5voice21CdmaInformationRecord14$NAME_T53_CLIRE",
   "self_type" : "_ZTIN4aidl7android8hardware5radio5voice21CdmaInformationRecord14$NAME_T53_CLIRE",
   "size" : 4,
   "source_file" : "out/soong/.intermediates/hardware/interfaces/radio/aidl/android.hardware.radio.voice-V1-ndk-source/gen/include/aidl/android/hardware/radio/voice/CdmaInformationRecord.h",
   "underlying_type" : "_ZTIi"
  },
  {
   "alignment" : 4,
   "enum_fields" :
   [
    {
     "enum_field_value" : 9,
     "name" : "aidl::android::hardware::radio::voice::CdmaInformationRecord::NAME_T53_RELEASE"
    }
   ],
   "linker_set_key" : "_ZTIN4aidl7android8hardware5radio5voice21CdmaInformationRecord17$NAME_T53_RELEASEE",
   "name" : "aidl::android::hardware::radio::voice::CdmaInformationRecord::(unnamed enum at out/soong/.intermediates/hardware/interfaces/radio/aidl/android.hardware.radio.voice-V1-ndk-source/gen/include/aidl/android/hardware/radio/voice/CdmaInformationRecord.h:74:3)",
   "referenced_type" : "_ZTIN4aidl7android8hardware5radio5voice21CdmaInformationRecord17$NAME_T53_RELEASEE",
   "self_type" : "_ZTIN4aidl7android8hardware5radio5voice21CdmaInformationRecord17$NAME_T53_RELEASEE",
   "size" : 4,
   "source_file" : "out/soong/.intermediates/hardware/interfaces/radio/aidl/android.hardware.radio.voice-V1-ndk-source/gen/include/aidl/android/hardware/radio/voice/CdmaInformationRecord.h",
   "underlying_type" : "_ZTIi"
  },
  {
   "alignment" : 4,
   "enum_fields" :
   [
    {
     "enum_field_value" : 6,
     "name" : "aidl::android::hardware::radio::voice::CdmaInformationRecord::NAME_LINE_CONTROL"
    }
   ],
   "linker_set_key" : "_ZTIN4aidl7android8hardware5radio5voice21CdmaInformationRecord18$NAME_LINE_CONTROLE",
   "name" : "aidl::android::hardware::radio::voice::CdmaInformationRecord::(unnamed enum at out/soong/.intermediates/hardware/interfaces/radio/aidl/android.hardware.radio.voice-V1-ndk-source/gen/include/aidl/android/hardware/radio/voice/CdmaInformationRecord.h:71:3)",
   "referenced_type" : "_ZTIN4aidl7android8hardware5radio5voice21CdmaInformationRecord18$NAME_LINE_CONTROLE",
   "self_type" : "_ZTIN4aidl7android8hardware5radio5voice21CdmaInformationRecord18$NAME_LINE_CONTROLE",
   "size" : 4,
   "source_file" : "out/soong/.intermediates/hardware/interfaces/radio/aidl/android.hardware.radio.voice-V1-ndk-source/gen/include/aidl/android/hardware/radio/voice/CdmaInformationRecord.h",
   "underlying_type" : "_ZTIi"
  },
  {
   "alignment" : 4,
   "enum_fields" :
   [
    {
     "enum_field_value" : 3,
     "name" : "aidl::android::hardware::radio::voice::CdmaInformationRecord::NAME_CONNECTED_NUMBER"
    }
   ],
   "linker_set_key" : "_ZTIN4aidl7android8hardware5radio5voice21CdmaInformationRecord22$NAME_CONNECTED_NUMBERE",
   "name" : "aidl::android::hardware::radio::voice::CdmaInformationRecord::(unnamed enum at out/soong/.intermediates/hardware/interfaces/radio/aidl/android.hardware.radio.voice-V1-ndk-source/gen/include/aidl/android/hardware/radio/voice/CdmaInformationRecord.h:68:3)",
   "referenced_type" : "_ZTIN4aidl7android8hardware5radio5voice21CdmaInformationRecord22$NAME_CONNECTED_NUMBERE",
   "self_type" : "_ZTIN4aidl7android8hardware5radio5voice21CdmaInformationRecord22$NAME_CONNECTED_NUMBERE",
   "size" : 4,
   "source_file" : "out/soong/.intermediates/hardware/interfaces/radio/aidl/android.hardware.radio.voice-V1-ndk-source/gen/include/aidl/android/hardware/radio/voice/CdmaInformationRecord.h",
   "underlying_type" : "_ZTIi"
  },
  {
   "alignment" : 4,
   "enum_fields" :
   [
    {
     "enum_field_value" : 7,
     "name" : "aidl::android::hardware::radio::voice::CdmaInformationRecord::NAME_EXTENDED_DISPLAY"
    }
   ],
   "linker_set_key" : "_ZTIN4aidl7android8hardware5radio5voice21CdmaInformationRecord22$NAME_EXTENDED_DISPLAYE",
   "name" : "aidl::android::hardware::radio::voice::CdmaInformationRecord::(unnamed enum at out/soong/.intermediates/hardware/interfaces/radio/aidl/android.hardware.radio.voice-V1-ndk-source/gen/include/aidl/android/hardware/radio/voice/CdmaInformationRecord.h:72:3)",
   "referenced_type" : "_ZTIN4aidl7android8hardware5radio5voice21CdmaInformationRecord22$NAME_EXTENDED_DISPLAYE",
   "self_type" : "_ZTIN4aidl7android8hardware5radio5voice21CdmaInformationRecord22$NAME_EXTENDED_DISPLAYE",
   "size" : 4,
   "source_file" : "out/soong/.intermediates/hardware/interfaces/radio/aidl/android.hardware.radio.voice-V1-ndk-source/gen/include/aidl/android/hardware/radio/voice/CdmaInformationRecord.h",
   "underlying_type" : "_ZTIi"
  },
  {
   "alignment" : 4,
   "enum_fields" :
   [
    {
     "enum_field_value" : 10,
     "name" : "aidl::android::hardware::radio::voice::CdmaInformationRecord::NAME_T53_AUDIO_CONTROL"
    }
   ],
   "linker_set_key" : "_ZTIN4aidl7android8hardware5radio5voice21CdmaInformationRecord23$NAME_T53_AUDIO_CONTROLE",
   "name" : "aidl::android::hardware::radio::voice::CdmaInformationRecord::(unnamed enum at out/soong/.intermediates/hardware/interfaces/radio/aidl/android.hardware.radio.voice-V1-ndk-source/gen/include/aidl/android/hardware/radio/voice/CdmaInformationRecord.h:75:3)",
   "referenced_type" : "_ZTIN4aidl7android8hardware5radio5voice21CdmaInformationRecord23$NAME_T53_AUDIO_CONTROLE",
   "self_type" : "_ZTIN4aidl7android8hardware5radio5voice21CdmaInformationRecord23$NAME_T53_AUDIO_CONTROLE",
   "size" : 4,
   "source_file" : "out/soong/.intermediates/hardware/interfaces/radio/aidl/android.hardware.radio.voice-V1-ndk-source/gen/include/aidl/android/hardware/radio/voice/CdmaInformationRecord.h",
   "underlying_type" : "_ZTIi"
  },
  {
   "alignment" : 4,
   "enum_fields" :
   [
    {
     "enum_field_value" : 5,
     "name" : "aidl::android::hardware::radio::voice::CdmaInformationRecord::NAME_REDIRECTING_NUMBER"
    }
   ],
   "linker_set_key" : "_ZTIN4aidl7android8hardware5radio5voice21CdmaInformationRecord24$NAME_REDIRECTING_NUMBERE",
   "name" : "aidl::android::hardware::radio::voice::CdmaInformationRecord::(unnamed enum at out/soong/.intermediates/hardware/interfaces/radio/aidl/android.hardware.radio.voice-V1-ndk-source/gen/include/aidl/android/hardware/radio/voice/CdmaInformationRecord.h:70:3)",
   "referenced_type" : "_ZTIN4aidl7android8hardware5radio5voice21CdmaInformationRecord24$NAME_REDIRECTING_NUMBERE",
   "self_type" : "_ZTIN4aidl7android8hardware5radio5voice21CdmaInformationRecord24$NAME_REDIRECTING_NUMBERE",
   "size" : 4,
   "source_file" : "out/soong/.intermediates/hardware/interfaces/radio/aidl/android.hardware.radio.voice-V1-ndk-source/gen/include/aidl/android/hardware/radio/voice/CdmaInformationRecord.h",
   "underlying_type" : "_ZTIi"
  },
  {
   "alignment" : 4,
   "enum_fields" :
   [
    {
     "enum_field_value" : 1,
     "name" : "aidl::android::hardware::radio::voice::CdmaInformationRecord::NAME_CALLED_PARTY_NUMBER"
    }
   ],
   "linker_set_key" : "_ZTIN4aidl7android8hardware5radio5voice21CdmaInformationRecord25$NAME_CALLED_PARTY_NUMBERE",
   "name" : "aidl::android::hardware::radio::voice::CdmaInformationRecord::(unnamed enum at out/soong/.intermediates/hardware/interfaces/radio/aidl/android.hardware.radio.voice-V1-ndk-source/gen/include/aidl/android/hardware/radio/voice/CdmaInformationRecord.h:66:3)",
   "referenced_type" : "_ZTIN4aidl7android8hardware5radio5voice21CdmaInformationRecord25$NAME_CALLED_PARTY_NUMBERE",
   "self_type" : "_ZTIN4aidl7android8hardware5radio5voice21CdmaInformationRecord25$NAME_CALLED_PARTY_NUMBERE",
   "size" : 4,
   "source_file" : "out/soong/.intermediates/hardware/interfaces/radio/aidl/android.hardware.radio.voice-V1-ndk-source/gen/include/aidl/android/hardware/radio/voice/CdmaInformationRecord.h",
   "underlying_type" : "_ZTIi"
  },
  {
   "alignment" : 4,
   "enum_fields" :
   [
    {
     "enum_field_value" : 2,
     "name" : "aidl::android::hardware::radio::voice::CdmaInformationRecord::NAME_CALLING_PARTY_NUMBER"
    }
   ],
   "linker_set_key" : "_ZTIN4aidl7android8hardware5radio5voice21CdmaInformationRecord26$NAME_CALLING_PARTY_NUMBERE",
   "name" : "aidl::android::hardware::radio::voice::CdmaInformationRecord::(unnamed enum at out/soong/.intermediates/hardware/interfaces/radio/aidl/android.hardware.radio.voice-V1-ndk-source/gen/include/aidl/android/hardware/radio/voice/CdmaInformationRecord.h:67:3)",
   "referenced_type" : "_ZTIN4aidl7android8hardware5radio5voice21CdmaInformationRecord26$NAME_CALLING_PARTY_NUMBERE",
   "self_type" : "_ZTIN4aidl7android8hardware5radio5voice21CdmaInformationRecord26$NAME_CALLING_PARTY_NUMBERE",
   "size" : 4,
   "source_file" : "out/soong/.intermediates/hardware/interfaces/radio/aidl/android.hardware.radio.voice-V1-ndk-source/gen/include/aidl/android/hardware/radio/voice/CdmaInformationRecord.h",
   "underlying_type" : "_ZTIi"
  },
  {
   "alignment" : 4,
   "enum_fields" :
   [
    {
     "enum_field_value" : 10,
     "name" : "aidl::android::hardware::radio::voice::CdmaInformationRecord::CDMA_MAX_NUMBER_OF_INFO_RECS"
    }
   ],
   "linker_set_key" : "_ZTIN4aidl7android8hardware5radio5voice21CdmaInformationRecord29$CDMA_MAX_NUMBER_OF_INFO_RECSE",
   "name" : "aidl::android::hardware::radio::voice::CdmaInformationRecord::(unnamed enum at out/soong/.intermediates/hardware/interfaces/radio/aidl/android.hardware.radio.voice-V1-ndk-source/gen/include/aidl/android/hardware/radio/voice/CdmaInformationRecord.h:64:3)",
   "referenced_type" : "_ZTIN4aidl7android8hardware5radio5voice21CdmaInformationRecord29$CDMA_MAX_NUMBER_OF_INFO_RECSE",
   "self_type" : "_ZTIN4aidl7android8hardware5radio5voice21CdmaInformationRecord29$CDMA_MAX_NUMBER_OF_INFO_RECSE",
   "size" : 4,
   "source_file" : "out/soong/.intermediates/hardware/interfaces/radio/aidl/android.hardware.radio.voice-V1-ndk-source/gen/include/aidl/android/hardware/radio/voice/CdmaInformationRecord.h",
   "underlying_type" : "_ZTIi"
  },
  {
   "alignment" : 4,
   "enum_fields" :
   [
    {
     "enum_field_value" : 0,
     "name" : "aidl::android::hardware::radio::voice::CdmaOtaProvisionStatus::SPL_UNLOCKED"
    },
    {
     "enum_field_value" : 1,
     "name" : "aidl::android::hardware::radio::voice::CdmaOtaProvisionStatus::SPC_RETRIES_EXCEEDED"
    },
    {
     "enum_field_value" : 2,
     "name" : "aidl::android::hardware::radio::voice::CdmaOtaProvisionStatus::A_KEY_EXCHANGED"
    },
    {
     "enum_field_value" : 3,
     "name" : "aidl::android::hardware::radio::voice::CdmaOtaProvisionStatus::SSD_UPDATED"
    },
    {
     "enum_field_value" : 4,
     "name" : "aidl::android::hardware::radio::voice::CdmaOtaProvisionStatus::NAM_DOWNLOADED"
    },
    {
     "enum_field_value" : 5,
     "name" : "aidl::android::hardware::radio::voice::CdmaOtaProvisionStatus::MDN_DOWNLOADED"
    },
    {
     "enum_field_value" : 6,
     "name" : "aidl::android::hardware::radio::voice::CdmaOtaProvisionStatus::IMSI_DOWNLOADED"
    },
    {
     "enum_field_value" : 7,
     "name" : "aidl::android::hardware::radio::voice::CdmaOtaProvisionStatus::PRL_DOWNLOADED"
    },
    {
     "enum_field_value" : 8,
     "name" : "aidl::android::hardware::radio::voice::CdmaOtaProvisionStatus::COMMITTED"
    },
    {
     "enum_field_value" : 9,
     "name" : "aidl::android::hardware::radio::voice::CdmaOtaProvisionStatus::OTAPA_STARTED"
    },
    {
     "enum_field_value" : 10,
     "name" : "aidl::android::hardware::radio::voice::CdmaOtaProvisionStatus::OTAPA_STOPPED"
    },
    {
     "enum_field_value" : 11,
     "name" : "aidl::android::hardware::radio::voice::CdmaOtaProvisionStatus::OTAPA_ABORTED"
    }
   ],
   "linker_set_key" : "_ZTIN4aidl7android8hardware5radio5voice22CdmaOtaProvisionStatusE",
   "name" : "aidl::android::hardware::radio::voice::CdmaOtaProvisionStatus",
   "referenced_type" : "_ZTIN4aidl7android8hardware5radio5voice22CdmaOtaProvisionStatusE",
   "self_type" : "_ZTIN4aidl7android8hardware5radio5voice22CdmaOtaProvisionStatusE",
   "size" : 4,
   "source_file" : "out/soong/.intermediates/hardware/interfaces/radio/aidl/android.hardware.radio.voice-V1-ndk-source/gen/include/aidl/android/hardware/radio/voice/CdmaOtaProvisionStatus.h",
   "underlying_type" : "_ZTIi"
  },
  {
   "alignment" : 4,
   "enum_fields" :
   [
    {
     "enum_field_value" : 0,
     "name" : "aidl::android::hardware::radio::voice::CdmaRedirectingNumberInfoRecord::REDIRECTING_REASON_UNKNOWN"
    }
   ],
   "linker_set_key" : "_ZTIN4aidl7android8hardware5radio5voice31CdmaRedirectingNumberInfoRecord27$REDIRECTING_REASON_UNKNOWNE",
   "name" : "aidl::android::hardware::radio::voice::CdmaRedirectingNumberInfoRecord::(unnamed enum at out/soong/.intermediates/hardware/interfaces/radio/aidl/android.hardware.radio.voice-V1-ndk-source/gen/include/aidl/android/hardware/radio/voice/CdmaRedirectingNumberInfoRecord.h:52:3)",
   "referenced_type" : "_ZTIN4aidl7android8hardware5radio5voice31CdmaRedirectingNumberInfoRecord27$REDIRECTING_REASON_UNKNOWNE",
   "self_type" : "_ZTIN4aidl7android8hardware5radio5voice31CdmaRedirectingNumberInfoRecord27$REDIRECTING_REASON_UNKNOWNE",
   "size" : 4,
   "source_file" : "out/soong/.intermediates/hardware/interfaces/radio/aidl/android.hardware.radio.voice-V1-ndk-source/gen/include/aidl/android/hardware/radio/voice/CdmaRedirectingNumberInfoRecord.h",
   "underlying_type" : "_ZTIi"
  },
  {
   "alignment" : 4,
   "enum_fields" :
   [
    {
     "enum_field_value" : 16,
     "name" : "aidl::android::hardware::radio::voice::CdmaRedirectingNumberInfoRecord::REDIRECTING_REASON_RESERVED"
    }
   ],
   "linker_set_key" : "_ZTIN4aidl7android8hardware5radio5voice31CdmaRedirectingNumberInfoRecord28$REDIRECTING_REASON_RESERVEDE",
   "name" : "aidl::android::hardware::radio::voice::CdmaRedirectingNumberInfoRecord::(unnamed enum at out/soong/.intermediates/hardware/interfaces/radio/aidl/android.hardware.radio.voice-V1-ndk-source/gen/include/aidl/android/hardware/radio/voice/CdmaRedirectingNumberInfoRecord.h:58:3)",
   "referenced_type" : "_ZTIN4aidl7android8hardware5radio5voice31CdmaRedirectingNumberInfoRecord28$REDIRECTING_REASON_RESERVEDE",
   "self_type" : "_ZTIN4aidl7android8hardware5radio5voice31CdmaRedirectingNumberInfoRecord28$REDIRECTING_REASON_RESERVEDE",
   "size" : 4,
   "source_file" : "out/soong/.intermediates/hardware/interfaces/radio/aidl/android.hardware.radio.voice-V1-ndk-source/gen/include/aidl/android/hardware/radio/voice/CdmaRedirectingNumberInfoRecord.h",
   "underlying_type" : "_ZTIi"
  },
  {
   "alignment" : 4,
   "enum_fields" :
   [
    {
     "enum_field_value" : 1,
     "name" : "aidl::android::hardware::radio::voice::CdmaRedirectingNumberInfoRecord::REDIRECTING_REASON_CALL_FORWARDING_BUSY"
    }
   ],
   "linker_set_key" : "_ZTIN4aidl7android8hardware5radio5voice31CdmaRedirectingNumberInfoRecord40$REDIRECTING_REASON_CALL_FORWARDING_BUSYE",
   "name" : "aidl::android::hardware::radio::voice::CdmaRedirectingNumberInfoRecord::(unnamed enum at out/soong/.intermediates/hardware/interfaces/radio/aidl/android.hardware.radio.voice-V1-ndk-source/gen/include/aidl/android/hardware/radio/voice/CdmaRedirectingNumberInfoRecord.h:53:3)",
   "referenced_type" : "_ZTIN4aidl7android8hardware5radio5voice31CdmaRedirectingNumberInfoRecord40$REDIRECTING_REASON_CALL_FORWARDING_BUSYE",
   "self_type" : "_ZTIN4aidl7android8hardware5radio5voice31CdmaRedirectingNumberInfoRecord40$REDIRECTING_REASON_CALL_FORWARDING_BUSYE",
   "size" : 4,
   "source_file" : "out/soong/.intermediates/hardware/interfaces/radio/aidl/android.hardware.radio.voice-V1-ndk-source/gen/include/aidl/android/hardware/radio/voice/CdmaRedirectingNumberInfoRecord.h",
   "underlying_type" : "_ZTIi"
  },
  {
   "alignment" : 4,
   "enum_fields" :
   [
    {
     "enum_field_value" : 9,
     "name" : "aidl::android::hardware::radio::voice::CdmaRedirectingNumberInfoRecord::REDIRECTING_REASON_CALLED_DTE_OUT_OF_ORDER"
    }
   ],
   "linker_set_key" : "_ZTIN4aidl7android8hardware5radio5voice31CdmaRedirectingNumberInfoRecord43$REDIRECTING_REASON_CALLED_DTE_OUT_OF_ORDERE",
   "name" : "aidl::android::hardware::radio::voice::CdmaRedirectingNumberInfoRecord::(unnamed enum at out/soong/.intermediates/hardware/interfaces/radio/aidl/android.hardware.radio.voice-V1-ndk-source/gen/include/aidl/android/hardware/radio/voice/CdmaRedirectingNumberInfoRecord.h:55:3)",
   "referenced_type" : "_ZTIN4aidl7android8hardware5radio5voice31CdmaRedirectingNumberInfoRecord43$REDIRECTING_REASON_CALLED_DTE_OUT_OF_ORDERE",
   "self_type" : "_ZTIN4aidl7android8hardware5radio5voice31CdmaRedirectingNumberInfoRecord43$REDIRECTING_REASON_CALLED_DTE_OUT_OF_ORDERE",
   "size" : 4,
   "source_file" : "out/soong/.intermediates/hardware/interfaces/radio/aidl/android.hardware.radio.voice-V1-ndk-source/gen/include/aidl/android/hardware/radio/voice/CdmaRedirectingNumberInfoRecord.h",
   "underlying_type" : "_ZTIi"
  },
  {
   "alignment" : 4,
   "enum_fields" :
   [
    {
     "enum_field_value" : 2,
     "name" : "aidl::android::hardware::radio::voice::CdmaRedirectingNumberInfoRecord::REDIRECTING_REASON_CALL_FORWARDING_NO_REPLY"
    }
   ],
   "linker_set_key" : "_ZTIN4aidl7android8hardware5radio5voice31CdmaRedirectingNumberInfoRecord44$REDIRECTING_REASON_CALL_FORWARDING_NO_REPLYE",
   "name" : "aidl::android::hardware::radio::voice::CdmaRedirectingNumberInfoRecord::(unnamed enum at out/soong/.intermediates/hardware/interfaces/radio/aidl/android.hardware.radio.voice-V1-ndk-source/gen/include/aidl/android/hardware/radio/voice/CdmaRedirectingNumberInfoRecord.h:54:3)",
   "referenced_type" : "_ZTIN4aidl7android8hardware5radio5voice31CdmaRedirectingNumberInfoRecord44$REDIRECTING_REASON_CALL_FORWARDING_NO_REPLYE",
   "self_type" : "_ZTIN4aidl7android8hardware5radio5voice31CdmaRedirectingNumberInfoRecord44$REDIRECTING_REASON_CALL_FORWARDING_NO_REPLYE",
   "size" : 4,
   "source_file" : "out/soong/.intermediates/hardware/interfaces/radio/aidl/android.hardware.radio.voice-V1-ndk-source/gen/include/aidl/android/hardware/radio/voice/CdmaRedirectingNumberInfoRecord.h",
   "underlying_type" : "_ZTIi"
  },
  {
   "alignment" : 4,
   "enum_fields" :
   [
    {
     "enum_field_value" : 15,
     "name" : "aidl::android::hardware::radio::voice::CdmaRedirectingNumberInfoRecord::REDIRECTING_REASON_CALL_FORWARDING_UNCONDITIONAL"
    }
   ],
   "linker_set_key" : "_ZTIN4aidl7android8hardware5radio5voice31CdmaRedirectingNumberInfoRecord49$REDIRECTING_REASON_CALL_FORWARDING_UNCONDITIONALE",
   "name" : "aidl::android::hardware::radio::voice::CdmaRedirectingNumberInfoRecord::(unnamed enum at out/soong/.intermediates/hardware/interfaces/radio/aidl/android.hardware.radio.voice-V1-ndk-source/gen/include/aidl/android/hardware/radio/voice/CdmaRedirectingNumberInfoRecord.h:57:3)",
   "referenced_type" : "_ZTIN4aidl7android8hardware5radio5voice31CdmaRedirectingNumberInfoRecord49$REDIRECTING_REASON_CALL_FORWARDING_UNCONDITIONALE",
   "self_type" : "_ZTIN4aidl7android8hardware5radio5voice31CdmaRedirectingNumberInfoRecord49$REDIRECTING_REASON_CALL_FORWARDING_UNCONDITIONALE",
   "size" : 4,
   "source_file" : "out/soong/.intermediates/hardware/interfaces/radio/aidl/android.hardware.radio.voice-V1-ndk-source/gen/include/aidl/android/hardware/radio/voice/CdmaRedirectingNumberInfoRecord.h",
   "underlying_type" : "_ZTIi"
  },
  {
   "alignment" : 4,
   "enum_fields" :
   [
    {
     "enum_field_value" : 10,
     "name" : "aidl::android::hardware::radio::voice::CdmaRedirectingNumberInfoRecord::REDIRECTING_REASON_CALL_FORWARDING_BY_THE_CALLED_DTE"
    }
   ],
   "linker_set_key" : "_ZTIN4aidl7android8hardware5radio5voice31CdmaRedirectingNumberInfoRecord53$REDIRECTING_REASON_CALL_FORWARDING_BY_THE_CALLED_DTEE",
   "name" : "aidl::android::hardware::radio::voice::CdmaRedirectingNumberInfoRecord::(unnamed enum at out/soong/.intermediates/hardware/interfaces/radio/aidl/android.hardware.radio.voice-V1-ndk-source/gen/include/aidl/android/hardware/radio/voice/CdmaRedirectingNumberInfoRecord.h:56:3)",
   "referenced_type" : "_ZTIN4aidl7android8hardware5radio5voice31CdmaRedirectingNumberInfoRecord53$REDIRECTING_REASON_CALL_FORWARDING_BY_THE_CALLED_DTEE",
   "self_type" : "_ZTIN4aidl7android8hardware5radio5voice31CdmaRedirectingNumberInfoRecord53$REDIRECTING_REASON_CALL_FORWARDING_BY_THE_CALLED_DTEE",
   "size" : 4,
   "source_file" : "out/soong/.intermediates/hardware/interfaces/radio/aidl/android.hardware.radio.voice-V1-ndk-source/gen/include/aidl/android/hardware/radio/voice/CdmaRedirectingNumberInfoRecord.h",
   "underlying_type" : "_ZTIi"
  },
  {
   "alignment" : 4,
   "enum_fields" :
   [
    {
     "enum_field_value" : 0,
     "name" : "aidl::android::hardware::radio::voice::Call::STATE_ACTIVE"
    }
   ],
   "linker_set_key" : "_ZTIN4aidl7android8hardware5radio5voice4Call13$STATE_ACTIVEE",
   "name" : "aidl::android::hardware::radio::voice::Call::(unnamed enum at out/soong/.intermediates/hardware/interfaces/radio/aidl/android.hardware.radio.voice-V1-ndk-source/gen/include/aidl/android/hardware/radio/voice/Call.h:70:3)",
   "referenced_type" : "_ZTIN4aidl7android8hardware5radio5voice4Call13$STATE_ACTIVEE",
   "self_type" : "_ZTIN4aidl7android8hardware5radio5voice4Call13$STATE_ACTIVEE",
   "size" : 4,
   "source_file" : "out/soong/.intermediates/hardware/interfaces/radio/aidl/android.hardware.radio.voice-V1-ndk-source/gen/include/aidl/android/hardware/radio/voice/Call.h",
   "underlying_type" : "_ZTIi"
  },
  {
   "alignment" : 4,
   "enum_fields" :
   [
    {
     "enum_field_value" : 2,
     "name" : "aidl::android::hardware::radio::voice::Call::STATE_DIALING"
    }
   ],
   "linker_set_key" : "_ZTIN4aidl7android8hardware5radio5voice4Call14$STATE_DIALINGE",
   "name" : "aidl::android::hardware::radio::voice::Call::(unnamed enum at out/soong/.intermediates/hardware/interfaces/radio/aidl/android.hardware.radio.voice-V1-ndk-source/gen/include/aidl/android/hardware/radio/voice/Call.h:72:3)",
   "referenced_type" : "_ZTIN4aidl7android8hardware5radio5voice4Call14$STATE_DIALINGE",
   "self_type" : "_ZTIN4aidl7android8hardware5radio5voice4Call14$STATE_DIALINGE",
   "size" : 4,
   "source_file" : "out/soong/.intermediates/hardware/interfaces/radio/aidl/android.hardware.radio.voice-V1-ndk-source/gen/include/aidl/android/hardware/radio/voice/Call.h",
   "underlying_type" : "_ZTIi"
  },
  {
   "alignment" : 4,
   "enum_fields" :
   [
    {
     "enum_field_value" : 1,
     "name" : "aidl::android::hardware::radio::voice::Call::STATE_HOLDING"
    }
   ],
   "linker_set_key" : "_ZTIN4aidl7android8hardware5radio5voice4Call14$STATE_HOLDINGE",
   "name" : "aidl::android::hardware::radio::voice::Call::(unnamed enum at out/soong/.intermediates/hardware/interfaces/radio/aidl/android.hardware.radio.voice-V1-ndk-source/gen/include/aidl/android/hardware/radio/voice/Call.h:71:3)",
   "referenced_type" : "_ZTIN4aidl7android8hardware5radio5voice4Call14$STATE_HOLDINGE",
   "self_type" : "_ZTIN4aidl7android8hardware5radio5voice4Call14$STATE_HOLDINGE",
   "size" : 4,
   "source_file" : "out/soong/.intermediates/hardware/interfaces/radio/aidl/android.hardware.radio.voice-V1-ndk-source/gen/include/aidl/android/hardware/radio/voice/Call.h",
   "underlying_type" : "_ZTIi"
  },
  {
   "alignment" : 4,
   "enum_fields" :
   [
    {
     "enum_field_value" : 5,
     "name" : "aidl::android::hardware::radio::voice::Call::STATE_WAITING"
    }
   ],
   "linker_set_key" : "_ZTIN4aidl7android8hardware5radio5voice4Call14$STATE_WAITINGE",
   "name" : "aidl::android::hardware::radio::voice::Call::(unnamed enum at out/soong/.intermediates/hardware/interfaces/radio/aidl/android.hardware.radio.voice-V1-ndk-source/gen/include/aidl/android/hardware/radio/voice/Call.h:75:3)",
   "referenced_type" : "_ZTIN4aidl7android8hardware5radio5voice4Call14$STATE_WAITINGE",
   "self_type" : "_ZTIN4aidl7android8hardware5radio5voice4Call14$STATE_WAITINGE",
   "size" : 4,
   "source_file" : "out/soong/.intermediates/hardware/interfaces/radio/aidl/android.hardware.radio.voice-V1-ndk-source/gen/include/aidl/android/hardware/radio/voice/Call.h",
   "underlying_type" : "_ZTIi"
  },
  {
   "alignment" : 4,
   "enum_fields" :
   [
    {
     "enum_field_value" : 3,
     "name" : "aidl::android::hardware::radio::voice::Call::STATE_ALERTING"
    }
   ],
   "linker_set_key" : "_ZTIN4aidl7android8hardware5radio5voice4Call15$STATE_ALERTINGE",
   "name" : "aidl::android::hardware::radio::voice::Call::(unnamed enum at out/soong/.intermediates/hardware/interfaces/radio/aidl/android.hardware.radio.voice-V1-ndk-source/gen/include/aidl/android/hardware/radio/voice/Call.h:73:3)",
   "referenced_type" : "_ZTIN4aidl7android8hardware5radio5voice4Call15$STATE_ALERTINGE",
   "self_type" : "_ZTIN4aidl7android8hardware5radio5voice4Call15$STATE_ALERTINGE",
   "size" : 4,
   "source_file" : "out/soong/.intermediates/hardware/interfaces/radio/aidl/android.hardware.radio.voice-V1-ndk-source/gen/include/aidl/android/hardware/radio/voice/Call.h",
   "underlying_type" : "_ZTIi"
  },
  {
   "alignment" : 4,
   "enum_fields" :
   [
    {
     "enum_field_value" : 4,
     "name" : "aidl::android::hardware::radio::voice::Call::STATE_INCOMING"
    }
   ],
   "linker_set_key" : "_ZTIN4aidl7android8hardware5radio5voice4Call15$STATE_INCOMINGE",
   "name" : "aidl::android::hardware::radio::voice::Call::(unnamed enum at out/soong/.intermediates/hardware/interfaces/radio/aidl/android.hardware.radio.voice-V1-ndk-source/gen/include/aidl/android/hardware/radio/voice/Call.h:74:3)",
   "referenced_type" : "_ZTIN4aidl7android8hardware5radio5voice4Call15$STATE_INCOMINGE",
   "self_type" : "_ZTIN4aidl7android8hardware5radio5voice4Call15$STATE_INCOMINGE",
   "size" : 4,
   "source_file" : "out/soong/.intermediates/hardware/interfaces/radio/aidl/android.hardware.radio.voice-V1-ndk-source/gen/include/aidl/android/hardware/radio/voice/Call.h",
   "underlying_type" : "_ZTIi"
  },
  {
   "alignment" : 4,
   "enum_fields" :
   [
    {
     "enum_field_value" : 0,
     "name" : "aidl::android::hardware::radio::voice::Call::PRESENTATION_ALLOWED"
    }
   ],
   "linker_set_key" : "_ZTIN4aidl7android8hardware5radio5voice4Call21$PRESENTATION_ALLOWEDE",
   "name" : "aidl::android::hardware::radio::voice::Call::(unnamed enum at out/soong/.intermediates/hardware/interfaces/radio/aidl/android.hardware.radio.voice-V1-ndk-source/gen/include/aidl/android/hardware/radio/voice/Call.h:66:3)",
   "referenced_type" : "_ZTIN4aidl7android8hardware5radio5voice4Call21$PRESENTATION_ALLOWEDE",
   "self_type" : "_ZTIN4aidl7android8hardware5radio5voice4Call21$PRESENTATION_ALLOWEDE",
   "size" : 4,
   "source_file" : "out/soong/.intermediates/hardware/interfaces/radio/aidl/android.hardware.radio.voice-V1-ndk-source/gen/include/aidl/android/hardware/radio/voice/Call.h",
   "underlying_type" : "_ZTIi"
  },
  {
   "alignment" : 4,
   "enum_fields" :
   [
    {
     "enum_field_value" : 2,
     "name" : "aidl::android::hardware::radio::voice::Call::PRESENTATION_UNKNOWN"
    }
   ],
   "linker_set_key" : "_ZTIN4aidl7android8hardware5radio5voice4Call21$PRESENTATION_UNKNOWNE",
   "name" : "aidl::android::hardware::radio::voice::Call::(unnamed enum at out/soong/.intermediates/hardware/interfaces/radio/aidl/android.hardware.radio.voice-V1-ndk-source/gen/include/aidl/android/hardware/radio/voice/Call.h:68:3)",
   "referenced_type" : "_ZTIN4aidl7android8hardware5radio5voice4Call21$PRESENTATION_UNKNOWNE",
   "self_type" : "_ZTIN4aidl7android8hardware5radio5voice4Call21$PRESENTATION_UNKNOWNE",
   "size" : 4,
   "source_file" : "out/soong/.intermediates/hardware/interfaces/radio/aidl/android.hardware.radio.voice-V1-ndk-source/gen/include/aidl/android/hardware/radio/voice/Call.h",
   "underlying_type" : "_ZTIi"
  },
  {
   "alignment" : 4,
   "enum_fields" :
   [
    {
     "enum_field_value" : 3,
     "name" : "aidl::android::hardware::radio::voice::Call::PRESENTATION_PAYPHONE"
    }
   ],
   "linker_set_key" : "_ZTIN4aidl7android8hardware5radio5voice4Call22$PRESENTATION_PAYPHONEE",
   "name" : "aidl::android::hardware::radio::voice::Call::(unnamed enum at out/soong/.intermediates/hardware/interfaces/radio/aidl/android.hardware.radio.voice-V1-ndk-source/gen/include/aidl/android/hardware/radio/voice/Call.h:69:3)",
   "referenced_type" : "_ZTIN4aidl7android8hardware5radio5voice4Call22$PRESENTATION_PAYPHONEE",
   "self_type" : "_ZTIN4aidl7android8hardware5radio5voice4Call22$PRESENTATION_PAYPHONEE",
   "size" : 4,
   "source_file" : "out/soong/.intermediates/hardware/interfaces/radio/aidl/android.hardware.radio.voice-V1-ndk-source/gen/include/aidl/android/hardware/radio/voice/Call.h",
   "underlying_type" : "_ZTIi"
  },
  {
   "alignment" : 4,
   "enum_fields" :
   [
    {
     "enum_field_value" : 1,
     "name" : "aidl::android::hardware::radio::voice::Call::PRESENTATION_RESTRICTED"
    }
   ],
   "linker_set_key" : "_ZTIN4aidl7android8hardware5radio5voice4Call24$PRESENTATION_RESTRICTEDE",
   "name" : "aidl::android::hardware::radio::voice::Call::(unnamed enum at out/soong/.intermediates/hardware/interfaces/radio/aidl/android.hardware.radio.voice-V1-ndk-source/gen/include/aidl/android/hardware/radio/voice/Call.h:67:3)",
   "referenced_type" : "_ZTIN4aidl7android8hardware5radio5voice4Call24$PRESENTATION_RESTRICTEDE",
   "self_type" : "_ZTIN4aidl7android8hardware5radio5voice4Call24$PRESENTATION_RESTRICTEDE",
   "size" : 4,
   "source_file" : "out/soong/.intermediates/hardware/interfaces/radio/aidl/android.hardware.radio.voice-V1-ndk-source/gen/include/aidl/android/hardware/radio/voice/Call.h",
   "underlying_type" : "_ZTIi"
  },
  {
   "alignment" : 4,
   "enum_fields" :
   [
    {
     "enum_field_value" : 0,
     "name" : "aidl::android::hardware::radio::voice::Dial::CLIR_DEFAULT"
    }
   ],
   "linker_set_key" : "_ZTIN4aidl7android8hardware5radio5voice4Dial13$CLIR_DEFAULTE",
   "name" : "aidl::android::hardware::radio::voice::Dial::(unnamed enum at out/soong/.intermediates/hardware/interfaces/radio/aidl/android.hardware.radio.voice-V1-ndk-source/gen/include/aidl/android/hardware/radio/voice/Dial.h:53:3)",
   "referenced_type" : "_ZTIN4aidl7android8hardware5radio5voice4Dial13$CLIR_DEFAULTE",
   "self_type" : "_ZTIN4aidl7android8hardware5radio5voice4Dial13$CLIR_DEFAULTE",
   "size" : 4,
   "source_file" : "out/soong/.intermediates/hardware/interfaces/radio/aidl/android.hardware.radio.voice-V1-ndk-source/gen/include/aidl/android/hardware/radio/voice/Dial.h",
   "underlying_type" : "_ZTIi"
  },
  {
   "alignment" : 4,
   "enum_fields" :
   [
    {
     "enum_field_value" : 1,
     "name" : "aidl::android::hardware::radio::voice::Dial::CLIR_INVOCATION"
    }
   ],
   "linker_set_key" : "_ZTIN4aidl7android8hardware5radio5voice4Dial16$CLIR_INVOCATIONE",
   "name" : "aidl::android::hardware::radio::voice::Dial::(unnamed enum at out/soong/.intermediates/hardware/interfaces/radio/aidl/android.hardware.radio.voice-V1-ndk-source/gen/include/aidl/android/hardware/radio/voice/Dial.h:54:3)",
   "referenced_type" : "_ZTIN4aidl7android8hardware5radio5voice4Dial16$CLIR_INVOCATIONE",
   "self_type" : "_ZTIN4aidl7android8hardware5radio5voice4Dial16$CLIR_INVOCATIONE",
   "size" : 4,
   "source_file" : "out/soong/.intermediates/hardware/interfaces/radio/aidl/android.hardware.radio.voice-V1-ndk-source/gen/include/aidl/android/hardware/radio/voice/Dial.h",
   "underlying_type" : "_ZTIi"
  },
  {
   "alignment" : 4,
   "enum_fields" :
   [
    {
     "enum_field_value" : 2,
     "name" : "aidl::android::hardware::radio::voice::Dial::CLIR_SUPPRESSION"
    }
   ],
   "linker_set_key" : "_ZTIN4aidl7android8hardware5radio5voice4Dial17$CLIR_SUPPRESSIONE",
   "name" : "aidl::android::hardware::radio::voice::Dial::(unnamed enum at out/soong/.intermediates/hardware/interfaces/radio/aidl/android.hardware.radio.voice-V1-ndk-source/gen/include/aidl/android/hardware/radio/voice/Dial.h:55:3)",
   "referenced_type" : "_ZTIN4aidl7android8hardware5radio5voice4Dial17$CLIR_SUPPRESSIONE",
   "self_type" : "_ZTIN4aidl7android8hardware5radio5voice4Dial17$CLIR_SUPPRESSIONE",
   "size" : 4,
   "source_file" : "out/soong/.intermediates/hardware/interfaces/radio/aidl/android.hardware.radio.voice-V1-ndk-source/gen/include/aidl/android/hardware/radio/voice/Dial.h",
   "underlying_type" : "_ZTIi"
  },
  {
   "alignment" : 4,
   "enum_fields" :
   [
    {
     "enum_field_value" : 7,
     "name" : "aidl::android::hardware::radio::voice::CfData::NUM_SERVICE_CLASSES"
    }
   ],
   "linker_set_key" : "_ZTIN4aidl7android8hardware5radio5voice6CfData20$NUM_SERVICE_CLASSESE",
   "name" : "aidl::android::hardware::radio::voice::CfData::(unnamed enum at out/soong/.intermediates/hardware/interfaces/radio/aidl/android.hardware.radio.voice-V1-ndk-source/gen/include/aidl/android/hardware/radio/voice/CfData.h:51:3)",
   "referenced_type" : "_ZTIN4aidl7android8hardware5radio5voice6CfData20$NUM_SERVICE_CLASSESE",
   "self_type" : "_ZTIN4aidl7android8hardware5radio5voice6CfData20$NUM_SERVICE_CLASSESE",
   "size" : 4,
   "source_file" : "out/soong/.intermediates/hardware/interfaces/radio/aidl/android.hardware.radio.voice-V1-ndk-source/gen/include/aidl/android/hardware/radio/voice/CfData.h",
   "underlying_type" : "_ZTIi"
  },
  {
   "alignment" : 4,
   "enum_fields" :
   [
    {
     "enum_field_value" : 0,
     "name" : "aidl::android::hardware::radio::voice::TtyMode::OFF"
    },
    {
     "enum_field_value" : 1,
     "name" : "aidl::android::hardware::radio::voice::TtyMode::FULL"
    },
    {
     "enum_field_value" : 2,
     "name" : "aidl::android::hardware::radio::voice::TtyMode::HCO"
    },
    {
     "enum_field_value" : 3,
     "name" : "aidl::android::hardware::radio::voice::TtyMode::VCO"
    }
   ],
   "linker_set_key" : "_ZTIN4aidl7android8hardware5radio5voice7TtyModeE",
   "name" : "aidl::android::hardware::radio::voice::TtyMode",
   "referenced_type" : "_ZTIN4aidl7android8hardware5radio5voice7TtyModeE",
   "self_type" : "_ZTIN4aidl7android8hardware5radio5voice7TtyModeE",
   "size" : 4,
   "source_file" : "out/soong/.intermediates/hardware/interfaces/radio/aidl/android.hardware.radio.voice-V1-ndk-source/gen/include/aidl/android/hardware/radio/voice/TtyMode.h",
   "underlying_type" : "_ZTIi"
  },
  {
   "alignment" : 4,
   "enum_fields" :
   [
    {
     "enum_field_value" : 0,
     "name" : "aidl::android::hardware::radio::voice::UusInfo::UUS_DCS_USP"
    }
   ],
   "linker_set_key" : "_ZTIN4aidl7android8hardware5radio5voice7UusInfo12$UUS_DCS_USPE",
   "name" : "aidl::android::hardware::radio::voice::UusInfo::(unnamed enum at out/soong/.intermediates/hardware/interfaces/radio/aidl/android.hardware.radio.voice-V1-ndk-source/gen/include/aidl/android/hardware/radio/voice/UusInfo.h:52:3)",
   "referenced_type" : "_ZTIN4aidl7android8hardware5radio5voice7UusInfo12$UUS_DCS_USPE",
   "self_type" : "_ZTIN4aidl7android8hardware5radio5voice7UusInfo12$UUS_DCS_USPE",
   "size" : 4,
   "source_file" : "out/soong/.intermediates/hardware/interfaces/radio/aidl/android.hardware.radio.voice-V1-ndk-source/gen/include/aidl/android/hardware/radio/voice/UusInfo.h",
   "underlying_type" : "_ZTIi"
  },
  {
   "alignment" : 4,
   "enum_fields" :
   [
    {
     "enum_field_value" : 4,
     "name" : "aidl::android::hardware::radio::voice::UusInfo::UUS_DCS_IA5C"
    }
   ],
   "linker_set_key" : "_ZTIN4aidl7android8hardware5radio5voice7UusInfo13$UUS_DCS_IA5CE",
   "name" : "aidl::android::hardware::radio::voice::UusInfo::(unnamed enum at out/soong/.intermediates/hardware/interfaces/radio/aidl/android.hardware.radio.voice-V1-ndk-source/gen/include/aidl/android/hardware/radio/voice/UusInfo.h:56:3)",
   "referenced_type" : "_ZTIN4aidl7android8hardware5radio5voice7UusInfo13$UUS_DCS_IA5CE",
   "self_type" : "_ZTIN4aidl7android8hardware5radio5voice7UusInfo13$UUS_DCS_IA5CE",
   "size" : 4,
   "source_file" : "out/soong/.intermediates/hardware/interfaces/radio/aidl/android.hardware.radio.voice-V1-ndk-source/gen/include/aidl/android/hardware/radio/voice/UusInfo.h",
   "underlying_type" : "_ZTIi"
  },
  {
   "alignment" : 4,
   "enum_fields" :
   [
    {
     "enum_field_value" : 3,
     "name" : "aidl::android::hardware::radio::voice::UusInfo::UUS_DCS_RMCF"
    }
   ],
   "linker_set_key" : "_ZTIN4aidl7android8hardware5radio5voice7UusInfo13$UUS_DCS_RMCFE",
   "name" : "aidl::android::hardware::radio::voice::UusInfo::(unnamed enum at out/soong/.intermediates/hardware/interfaces/radio/aidl/android.hardware.radio.voice-V1-ndk-source/gen/include/aidl/android/hardware/radio/voice/UusInfo.h:55:3)",
   "referenced_type" : "_ZTIN4aidl7android8hardware5radio5voice7UusInfo13$UUS_DCS_RMCFE",
   "self_type" : "_ZTIN4aidl7android8hardware5radio5voice7UusInfo13$UUS_DCS_RMCFE",
   "size" : 4,
   "source_file" : "out/soong/.intermediates/hardware/interfaces/radio/aidl/android.hardware.radio.voice-V1-ndk-source/gen/include/aidl/android/hardware/radio/voice/UusInfo.h",
   "underlying_type" : "_ZTIi"
  },
  {
   "alignment" : 4,
   "enum_fields" :
   [
    {
     "enum_field_value" : 2,
     "name" : "aidl::android::hardware::radio::voice::UusInfo::UUS_DCS_X244"
    }
   ],
   "linker_set_key" : "_ZTIN4aidl7android8hardware5radio5voice7UusInfo13$UUS_DCS_X244E",
   "name" : "aidl::android::hardware::radio::voice::UusInfo::(unnamed enum at out/soong/.intermediates/hardware/interfaces/radio/aidl/android.hardware.radio.voice-V1-ndk-source/gen/include/aidl/android/hardware/radio/voice/UusInfo.h:54:3)",
   "referenced_type" : "_ZTIN4aidl7android8hardware5radio5voice7UusInfo13$UUS_DCS_X244E",
   "self_type" : "_ZTIN4aidl7android8hardware5radio5voice7UusInfo13$UUS_DCS_X244E",
   "size" : 4,
   "source_file" : "out/soong/.intermediates/hardware/interfaces/radio/aidl/android.hardware.radio.voice-V1-ndk-source/gen/include/aidl/android/hardware/radio/voice/UusInfo.h",
   "underlying_type" : "_ZTIi"
  },
  {
   "alignment" : 4,
   "enum_fields" :
   [
    {
     "enum_field_value" : 1,
     "name" : "aidl::android::hardware::radio::voice::UusInfo::UUS_DCS_OSIHLP"
    }
   ],
   "linker_set_key" : "_ZTIN4aidl7android8hardware5radio5voice7UusInfo15$UUS_DCS_OSIHLPE",
   "name" : "aidl::android::hardware::radio::voice::UusInfo::(unnamed enum at out/soong/.intermediates/hardware/interfaces/radio/aidl/android.hardware.radio.voice-V1-ndk-source/gen/include/aidl/android/hardware/radio/voice/UusInfo.h:53:3)",
   "referenced_type" : "_ZTIN4aidl7android8hardware5radio5voice7UusInfo15$UUS_DCS_OSIHLPE",
   "self_type" : "_ZTIN4aidl7android8hardware5radio5voice7UusInfo15$UUS_DCS_OSIHLPE",
   "size" : 4,
   "source_file" : "out/soong/.intermediates/hardware/interfaces/radio/aidl/android.hardware.radio.voice-V1-ndk-source/gen/include/aidl/android/hardware/radio/voice/UusInfo.h",
   "underlying_type" : "_ZTIi"
  },
  {
   "alignment" : 4,
   "enum_fields" :
   [
    {
     "enum_field_value" : 0,
     "name" : "aidl::android::hardware::radio::voice::UusInfo::UUS_TYPE_TYPE1_IMPLICIT"
    }
   ],
   "linker_set_key" : "_ZTIN4aidl7android8hardware5radio5voice7UusInfo24$UUS_TYPE_TYPE1_IMPLICITE",
   "name" : "aidl::android::hardware::radio::voice::UusInfo::(unnamed enum at out/soong/.intermediates/hardware/interfaces/radio/aidl/android.hardware.radio.voice-V1-ndk-source/gen/include/aidl/android/hardware/radio/voice/UusInfo.h:57:3)",
   "referenced_type" : "_ZTIN4aidl7android8hardware5radio5voice7UusInfo24$UUS_TYPE_TYPE1_IMPLICITE",
   "self_type" : "_ZTIN4aidl7android8hardware5radio5voice7UusInfo24$UUS_TYPE_TYPE1_IMPLICITE",
   "size" : 4,
   "source_file" : "out/soong/.intermediates/hardware/interfaces/radio/aidl/android.hardware.radio.voice-V1-ndk-source/gen/include/aidl/android/hardware/radio/voice/UusInfo.h",
   "underlying_type" : "_ZTIi"
  },
  {
   "alignment" : 4,
   "enum_fields" :
   [
    {
     "enum_field_value" : 1,
     "name" : "aidl::android::hardware::radio::voice::UusInfo::UUS_TYPE_TYPE1_REQUIRED"
    }
   ],
   "linker_set_key" : "_ZTIN4aidl7android8hardware5radio5voice7UusInfo24$UUS_TYPE_TYPE1_REQUIREDE",
   "name" : "aidl::android::hardware::radio::voice::UusInfo::(unnamed enum at out/soong/.intermediates/hardware/interfaces/radio/aidl/android.hardware.radio.voice-V1-ndk-source/gen/include/aidl/android/hardware/radio/voice/UusInfo.h:58:3)",
   "referenced_type" : "_ZTIN4aidl7android8hardware5radio5voice7UusInfo24$UUS_TYPE_TYPE1_REQUIREDE",
   "self_type" : "_ZTIN4aidl7android8hardware5radio5voice7UusInfo24$UUS_TYPE_TYPE1_REQUIREDE",
   "size" : 4,
   "source_file" : "out/soong/.intermediates/hardware/interfaces/radio/aidl/android.hardware.radio.voice-V1-ndk-source/gen/include/aidl/android/hardware/radio/voice/UusInfo.h",
   "underlying_type" : "_ZTIi"
  },
  {
   "alignment" : 4,
   "enum_fields" :
   [
    {
     "enum_field_value" : 3,
     "name" : "aidl::android::hardware::radio::voice::UusInfo::UUS_TYPE_TYPE2_REQUIRED"
    }
   ],
   "linker_set_key" : "_ZTIN4aidl7android8hardware5radio5voice7UusInfo24$UUS_TYPE_TYPE2_REQUIREDE",
   "name" : "aidl::android::hardware::radio::voice::UusInfo::(unnamed enum at out/soong/.intermediates/hardware/interfaces/radio/aidl/android.hardware.radio.voice-V1-ndk-source/gen/include/aidl/android/hardware/radio/voice/UusInfo.h:60:3)",
   "referenced_type" : "_ZTIN4aidl7android8hardware5radio5voice7UusInfo24$UUS_TYPE_TYPE2_REQUIREDE",
   "self_type" : "_ZTIN4aidl7android8hardware5radio5voice7UusInfo24$UUS_TYPE_TYPE2_REQUIREDE",
   "size" : 4,
   "source_file" : "out/soong/.intermediates/hardware/interfaces/radio/aidl/android.hardware.radio.voice-V1-ndk-source/gen/include/aidl/android/hardware/radio/voice/UusInfo.h",
   "underlying_type" : "_ZTIi"
  },
  {
   "alignment" : 4,
   "enum_fields" :
   [
    {
     "enum_field_value" : 5,
     "name" : "aidl::android::hardware::radio::voice::UusInfo::UUS_TYPE_TYPE3_REQUIRED"
    }
   ],
   "linker_set_key" : "_ZTIN4aidl7android8hardware5radio5voice7UusInfo24$UUS_TYPE_TYPE3_REQUIREDE",
   "name" : "aidl::android::hardware::radio::voice::UusInfo::(unnamed enum at out/soong/.intermediates/hardware/interfaces/radio/aidl/android.hardware.radio.voice-V1-ndk-source/gen/include/aidl/android/hardware/radio/voice/UusInfo.h:62:3)",
   "referenced_type" : "_ZTIN4aidl7android8hardware5radio5voice7UusInfo24$UUS_TYPE_TYPE3_REQUIREDE",
   "self_type" : "_ZTIN4aidl7android8hardware5radio5voice7UusInfo24$UUS_TYPE_TYPE3_REQUIREDE",
   "size" : 4,
   "source_file" : "out/soong/.intermediates/hardware/interfaces/radio/aidl/android.hardware.radio.voice-V1-ndk-source/gen/include/aidl/android/hardware/radio/voice/UusInfo.h",
   "underlying_type" : "_ZTIi"
  },
  {
   "alignment" : 4,
   "enum_fields" :
   [
    {
     "enum_field_value" : 2,
     "name" : "aidl::android::hardware::radio::voice::UusInfo::UUS_TYPE_TYPE1_NOT_REQUIRED"
    }
   ],
   "linker_set_key" : "_ZTIN4aidl7android8hardware5radio5voice7UusInfo28$UUS_TYPE_TYPE1_NOT_REQUIREDE",
   "name" : "aidl::android::hardware::radio::voice::UusInfo::(unnamed enum at out/soong/.intermediates/hardware/interfaces/radio/aidl/android.hardware.radio.voice-V1-ndk-source/gen/include/aidl/android/hardware/radio/voice/UusInfo.h:59:3)",
   "referenced_type" : "_ZTIN4aidl7android8hardware5radio5voice7UusInfo28$UUS_TYPE_TYPE1_NOT_REQUIREDE",
   "self_type" : "_ZTIN4aidl7android8hardware5radio5voice7UusInfo28$UUS_TYPE_TYPE1_NOT_REQUIREDE",
   "size" : 4,
   "source_file" : "out/soong/.intermediates/hardware/interfaces/radio/aidl/android.hardware.radio.voice-V1-ndk-source/gen/include/aidl/android/hardware/radio/voice/UusInfo.h",
   "underlying_type" : "_ZTIi"
  },
  {
   "alignment" : 4,
   "enum_fields" :
   [
    {
     "enum_field_value" : 4,
     "name" : "aidl::android::hardware::radio::voice::UusInfo::UUS_TYPE_TYPE2_NOT_REQUIRED"
    }
   ],
   "linker_set_key" : "_ZTIN4aidl7android8hardware5radio5voice7UusInfo28$UUS_TYPE_TYPE2_NOT_REQUIREDE",
   "name" : "aidl::android::hardware::radio::voice::UusInfo::(unnamed enum at out/soong/.intermediates/hardware/interfaces/radio/aidl/android.hardware.radio.voice-V1-ndk-source/gen/include/aidl/android/hardware/radio/voice/UusInfo.h:61:3)",
   "referenced_type" : "_ZTIN4aidl7android8hardware5radio5voice7UusInfo28$UUS_TYPE_TYPE2_NOT_REQUIREDE",
   "self_type" : "_ZTIN4aidl7android8hardware5radio5voice7UusInfo28$UUS_TYPE_TYPE2_NOT_REQUIREDE",
   "size" : 4,
   "source_file" : "out/soong/.intermediates/hardware/interfaces/radio/aidl/android.hardware.radio.voice-V1-ndk-source/gen/include/aidl/android/hardware/radio/voice/UusInfo.h",
   "underlying_type" : "_ZTIi"
  },
  {
   "alignment" : 4,
   "enum_fields" :
   [
    {
     "enum_field_value" : 6,
     "name" : "aidl::android::hardware::radio::voice::UusInfo::UUS_TYPE_TYPE3_NOT_REQUIRED"
    }
   ],
   "linker_set_key" : "_ZTIN4aidl7android8hardware5radio5voice7UusInfo28$UUS_TYPE_TYPE3_NOT_REQUIREDE",
   "name" : "aidl::android::hardware::radio::voice::UusInfo::(unnamed enum at out/soong/.intermediates/hardware/interfaces/radio/aidl/android.hardware.radio.voice-V1-ndk-source/gen/include/aidl/android/hardware/radio/voice/UusInfo.h:63:3)",
   "referenced_type" : "_ZTIN4aidl7android8hardware5radio5voice7UusInfo28$UUS_TYPE_TYPE3_NOT_REQUIREDE",
   "self_type" : "_ZTIN4aidl7android8hardware5radio5voice7UusInfo28$UUS_TYPE_TYPE3_NOT_REQUIREDE",
   "size" : 4,
   "source_file" : "out/soong/.intermediates/hardware/interfaces/radio/aidl/android.hardware.radio.voice-V1-ndk-source/gen/include/aidl/android/hardware/radio/voice/UusInfo.h",
   "underlying_type" : "_ZTIi"
  },
  {
   "alignment" : 4,
   "enum_fields" :
   [
    {
     "enum_field_value" : 1,
     "name" : "android::internal::details::IsIterable<std::vector<aidl::android::hardware::radio::voice::SsInfoData>>::value"
    }
   ],
   "linker_set_key" : "_ZTIN7android8internal7details10IsIterableINSt3__16vectorIN4aidl7android8hardware5radio5voice10SsInfoDataENS3_9allocatorISA_EEEEE6$valueE",
   "name" : "android::internal::details::IsIterable<std::vector<aidl::android::hardware::radio::voice::SsInfoData, std::allocator<aidl::android::hardware::radio::voice::SsInfoData>>>::(unnamed enum at frameworks/native/libs/binder/ndk/include_cpp/android/binder_to_string.h:131:5)",
   "referenced_type" : "_ZTIN7android8internal7details10IsIterableINSt3__16vectorIN4aidl7android8hardware5radio5voice10SsInfoDataENS3_9allocatorISA_EEEEE6$valueE",
   "self_type" : "_ZTIN7android8internal7details10IsIterableINSt3__16vectorIN4aidl7android8hardware5radio5voice10SsInfoDataENS3_9allocatorISA_EEEEE6$valueE",
   "size" : 4,
   "source_file" : "frameworks/native/libs/binder/ndk/include_cpp/android/binder_to_string.h",
   "underlying_type" : "_ZTIj"
  },
  {
   "alignment" : 4,
   "enum_fields" :
   [
    {
     "enum_field_value" : 1,
     "name" : "android::internal::details::IsIterable<std::vector<aidl::android::hardware::radio::voice::CallForwardInfo>>::value"
    }
   ],
   "linker_set_key" : "_ZTIN7android8internal7details10IsIterableINSt3__16vectorIN4aidl7android8hardware5radio5voice15CallForwardInfoENS3_9allocatorISA_EEEEE6$valueE",
   "name" : "android::internal::details::IsIterable<std::vector<aidl::android::hardware::radio::voice::CallForwardInfo, std::allocator<aidl::android::hardware::radio::voice::CallForwardInfo>>>::(unnamed enum at frameworks/native/libs/binder/ndk/include_cpp/android/binder_to_string.h:131:5)",
   "referenced_type" : "_ZTIN7android8internal7details10IsIterableINSt3__16vectorIN4aidl7android8hardware5radio5voice15CallForwardInfoENS3_9allocatorISA_EEEEE6$valueE",
   "self_type" : "_ZTIN7android8internal7details10IsIterableINSt3__16vectorIN4aidl7android8hardware5radio5voice15CallForwardInfoENS3_9allocatorISA_EEEEE6$valueE",
   "size" : 4,
   "source_file" : "frameworks/native/libs/binder/ndk/include_cpp/android/binder_to_string.h",
   "underlying_type" : "_ZTIj"
  },
  {
   "alignment" : 4,
   "enum_fields" :
   [
    {
     "enum_field_value" : 1,
     "name" : "android::internal::details::IsIterable<std::vector<aidl::android::hardware::radio::voice::CdmaNumberInfoRecord>>::value"
    }
   ],
   "linker_set_key" : "_ZTIN7android8internal7details10IsIterableINSt3__16vectorIN4aidl7android8hardware5radio5voice20CdmaNumberInfoRecordENS3_9allocatorISA_EEEEE6$valueE",
   "name" : "android::internal::details::IsIterable<std::vector<aidl::android::hardware::radio::voice::CdmaNumberInfoRecord, std::allocator<aidl::android::hardware::radio::voice::CdmaNumberInfoRecord>>>::(unnamed enum at frameworks/native/libs/binder/ndk/include_cpp/android/binder_to_string.h:131:5)",
   "referenced_type" : "_ZTIN7android8internal7details10IsIterableINSt3__16vectorIN4aidl7android8hardware5radio5voice20CdmaNumberInfoRecordENS3_9allocatorISA_EEEEE6$valueE",
   "self_type" : "_ZTIN7android8internal7details10IsIterableINSt3__16vectorIN4aidl7android8hardware5radio5voice20CdmaNumberInfoRecordENS3_9allocatorISA_EEEEE6$valueE",
   "size" : 4,
   "source_file" : "frameworks/native/libs/binder/ndk/include_cpp/android/binder_to_string.h",
   "underlying_type" : "_ZTIj"
  },
  {
   "alignment" : 4,
   "enum_fields" :
   [
    {
     "enum_field_value" : 1,
     "name" : "android::internal::details::IsIterable<std::vector<aidl::android::hardware::radio::voice::CdmaSignalInfoRecord>>::value"
    }
   ],
   "linker_set_key" : "_ZTIN7android8internal7details10IsIterableINSt3__16vectorIN4aidl7android8hardware5radio5voice20CdmaSignalInfoRecordENS3_9allocatorISA_EEEEE6$valueE",
   "name" : "android::internal::details::IsIterable<std::vector<aidl::android::hardware::radio::voice::CdmaSignalInfoRecord, std::allocator<aidl::android::hardware::radio::voice::CdmaSignalInfoRecord>>>::(unnamed enum at frameworks/native/libs/binder/ndk/include_cpp/android/binder_to_string.h:131:5)",
   "referenced_type" : "_ZTIN7android8internal7details10IsIterableINSt3__16vectorIN4aidl7android8hardware5radio5voice20CdmaSignalInfoRecordENS3_9allocatorISA_EEEEE6$valueE",
   "self_type" : "_ZTIN7android8internal7details10IsIterableINSt3__16vectorIN4aidl7android8hardware5radio5voice20CdmaSignalInfoRecordENS3_9allocatorISA_EEEEE6$valueE",
   "size" : 4,
   "source_file" : "frameworks/native/libs/binder/ndk/include_cpp/android/binder_to_string.h",
   "underlying_type" : "_ZTIj"
  },
  {
   "alignment" : 4,
   "enum_fields" :
   [
    {
     "enum_field_value" : 1,
     "name" : "android::internal::details::IsIterable<std::vector<aidl::android::hardware::radio::voice::CdmaDisplayInfoRecord>>::value"
    }
   ],
   "linker_set_key" : "_ZTIN7android8internal7details10IsIterableINSt3__16vectorIN4aidl7android8hardware5radio5voice21CdmaDisplayInfoRecordENS3_9allocatorISA_EEEEE6$valueE",
   "name" : "android::internal::details::IsIterable<std::vector<aidl::android::hardware::radio::voice::CdmaDisplayInfoRecord, std::allocator<aidl::android::hardware::radio::voice::CdmaDisplayInfoRecord>>>::(unnamed enum at frameworks/native/libs/binder/ndk/include_cpp/android/binder_to_string.h:131:5)",
   "referenced_type" : "_ZTIN7android8internal7details10IsIterableINSt3__16vectorIN4aidl7android8hardware5radio5voice21CdmaDisplayInfoRecordENS3_9allocatorISA_EEEEE6$valueE",
   "self_type" : "_ZTIN7android8internal7details10IsIterableINSt3__16vectorIN4aidl7android8hardware5radio5voice21CdmaDisplayInfoRecordENS3_9allocatorISA_EEEEE6$valueE",
   "size" : 4,
   "source_file" : "frameworks/native/libs/binder/ndk/include_cpp/android/binder_to_string.h",
   "underlying_type" : "_ZTIj"
  },
  {
   "alignment" : 4,
   "enum_fields" :
   [
    {
     "enum_field_value" : 1,
     "name" : "android::internal::details::IsIterable<std::vector<aidl::android::hardware::radio::voice::CdmaT53ClirInfoRecord>>::value"
    }
   ],
   "linker_set_key" : "_ZTIN7android8internal7details10IsIterableINSt3__16vectorIN4aidl7android8hardware5radio5voice21CdmaT53ClirInfoRecordENS3_9allocatorISA_EEEEE6$valueE",
   "name" : "android::internal::details::IsIterable<std::vector<aidl::android::hardware::radio::voice::CdmaT53ClirInfoRecord, std::allocator<aidl::android::hardware::radio::voice::CdmaT53ClirInfoRecord>>>::(unnamed enum at frameworks/native/libs/binder/ndk/include_cpp/android/binder_to_string.h:131:5)",
   "referenced_type" : "_ZTIN7android8internal7details10IsIterableINSt3__16vectorIN4aidl7android8hardware5radio5voice21CdmaT53ClirInfoRecordENS3_9allocatorISA_EEEEE6$valueE",
   "self_type" : "_ZTIN7android8internal7details10IsIterableINSt3__16vectorIN4aidl7android8hardware5radio5voice21CdmaT53ClirInfoRecordENS3_9allocatorISA_EEEEE6$valueE",
   "size" : 4,
   "source_file" : "frameworks/native/libs/binder/ndk/include_cpp/android/binder_to_string.h",
   "underlying_type" : "_ZTIj"
  },
  {
   "alignment" : 4,
   "enum_fields" :
   [
    {
     "enum_field_value" : 1,
     "name" : "android::internal::details::IsIterable<std::vector<aidl::android::hardware::radio::voice::CdmaLineControlInfoRecord>>::value"
    }
   ],
   "linker_set_key" : "_ZTIN7android8internal7details10IsIterableINSt3__16vectorIN4aidl7android8hardware5radio5voice25CdmaLineControlInfoRecordENS3_9allocatorISA_EEEEE6$valueE",
   "name" : "android::internal::details::IsIterable<std::vector<aidl::android::hardware::radio::voice::CdmaLineControlInfoRecord, std::allocator<aidl::android::hardware::radio::voice::CdmaLineControlInfoRecord>>>::(unnamed enum at frameworks/native/libs/binder/ndk/include_cpp/android/binder_to_string.h:131:5)",
   "referenced_type" : "_ZTIN7android8internal7details10IsIterableINSt3__16vectorIN4aidl7android8hardware5radio5voice25CdmaLineControlInfoRecordENS3_9allocatorISA_EEEEE6$valueE",
   "self_type" : "_ZTIN7android8internal7details10IsIterableINSt3__16vectorIN4aidl7android8hardware5radio5voice25CdmaLineControlInfoRecordENS3_9allocatorISA_EEEEE6$valueE",
   "size" : 4,
   "source_file" : "frameworks/native/libs/binder/ndk/include_cpp/android/binder_to_string.h",
   "underlying_type" : "_ZTIj"
  },
  {
   "alignment" : 4,
   "enum_fields" :
   [
    {
     "enum_field_value" : 1,
     "name" : "android::internal::details::IsIterable<std::vector<aidl::android::hardware::radio::voice::CdmaT53AudioControlInfoRecord>>::value"
    }
   ],
   "linker_set_key" : "_ZTIN7android8internal7details10IsIterableINSt3__16vectorIN4aidl7android8hardware5radio5voice29CdmaT53AudioControlInfoRecordENS3_9allocatorISA_EEEEE6$valueE",
   "name" : "android::internal::details::IsIterable<std::vector<aidl::android::hardware::radio::voice::CdmaT53AudioControlInfoRecord, std::allocator<aidl::android::hardware::radio::voice::CdmaT53AudioControlInfoRecord>>>::(unnamed enum at frameworks/native/libs/binder/ndk/include_cpp/android/binder_to_string.h:131:5)",
   "referenced_type" : "_ZTIN7android8internal7details10IsIterableINSt3__16vectorIN4aidl7android8hardware5radio5voice29CdmaT53AudioControlInfoRecordENS3_9allocatorISA_EEEEE6$valueE",
   "self_type" : "_ZTIN7android8internal7details10IsIterableINSt3__16vectorIN4aidl7android8hardware5radio5voice29CdmaT53AudioControlInfoRecordENS3_9allocatorISA_EEEEE6$valueE",
   "size" : 4,
   "source_file" : "frameworks/native/libs/binder/ndk/include_cpp/android/binder_to_string.h",
   "underlying_type" : "_ZTIj"
  },
  {
   "alignment" : 4,
   "enum_fields" :
   [
    {
     "enum_field_value" : 1,
     "name" : "android::internal::details::IsIterable<std::vector<aidl::android::hardware::radio::voice::CdmaRedirectingNumberInfoRecord>>::value"
    }
   ],
   "linker_set_key" : "_ZTIN7android8internal7details10IsIterableINSt3__16vectorIN4aidl7android8hardware5radio5voice31CdmaRedirectingNumberInfoRecordENS3_9allocatorISA_EEEEE6$valueE",
   "name" : "android::internal::details::IsIterable<std::vector<aidl::android::hardware::radio::voice::CdmaRedirectingNumberInfoRecord, std::allocator<aidl::android::hardware::radio::voice::CdmaRedirectingNumberInfoRecord>>>::(unnamed enum at frameworks/native/libs/binder/ndk/include_cpp/android/binder_to_string.h:131:5)",
   "referenced_type" : "_ZTIN7android8internal7details10IsIterableINSt3__16vectorIN4aidl7android8hardware5radio5voice31CdmaRedirectingNumberInfoRecordENS3_9allocatorISA_EEEEE6$valueE",
   "self_type" : "_ZTIN7android8internal7details10IsIterableINSt3__16vectorIN4aidl7android8hardware5radio5voice31CdmaRedirectingNumberInfoRecordENS3_9allocatorISA_EEEEE6$valueE",
   "size" : 4,
   "source_file" : "frameworks/native/libs/binder/ndk/include_cpp/android/binder_to_string.h",
   "underlying_type" : "_ZTIj"
  },
  {
   "alignment" : 4,
   "enum_fields" :
   [
    {
     "enum_field_value" : 1,
     "name" : "android::internal::details::IsIterable<std::vector<aidl::android::hardware::radio::voice::CfData>>::value"
    }
   ],
   "linker_set_key" : "_ZTIN7android8internal7details10IsIterableINSt3__16vectorIN4aidl7android8hardware5radio5voice6CfDataENS3_9allocatorISA_EEEEE6$valueE",
   "name" : "android::internal::details::IsIterable<std::vector<aidl::android::hardware::radio::voice::CfData, std::allocator<aidl::android::hardware::radio::voice::CfData>>>::(unnamed enum at frameworks/native/libs/binder/ndk/include_cpp/android/binder_to_string.h:131:5)",
   "referenced_type" : "_ZTIN7android8internal7details10IsIterableINSt3__16vectorIN4aidl7android8hardware5radio5voice6CfDataENS3_9allocatorISA_EEEEE6$valueE",
   "self_type" : "_ZTIN7android8internal7details10IsIterableINSt3__16vectorIN4aidl7android8hardware5radio5voice6CfDataENS3_9allocatorISA_EEEEE6$valueE",
   "size" : 4,
   "source_file" : "frameworks/native/libs/binder/ndk/include_cpp/android/binder_to_string.h",
   "underlying_type" : "_ZTIj"
  },
  {
   "alignment" : 4,
   "enum_fields" :
   [
    {
     "enum_field_value" : 1,
     "name" : "android::internal::details::IsIterable<std::vector<aidl::android::hardware::radio::voice::UusInfo>>::value"
    }
   ],
   "linker_set_key" : "_ZTIN7android8internal7details10IsIterableINSt3__16vectorIN4aidl7android8hardware5radio5voice7UusInfoENS3_9allocatorISA_EEEEE6$valueE",
   "name" : "android::internal::details::IsIterable<std::vector<aidl::android::hardware::radio::voice::UusInfo, std::allocator<aidl::android::hardware::radio::voice::UusInfo>>>::(unnamed enum at frameworks/native/libs/binder/ndk/include_cpp/android/binder_to_string.h:131:5)",
   "referenced_type" : "_ZTIN7android8internal7details10IsIterableINSt3__16vectorIN4aidl7android8hardware5radio5voice7UusInfoENS3_9allocatorISA_EEEEE6$valueE",
   "self_type" : "_ZTIN7android8internal7details10IsIterableINSt3__16vectorIN4aidl7android8hardware5radio5voice7UusInfoENS3_9allocatorISA_EEEEE6$valueE",
   "size" : 4,
   "source_file" : "frameworks/native/libs/binder/ndk/include_cpp/android/binder_to_string.h",
   "underlying_type" : "_ZTIj"
  },
  {
   "alignment" : 4,
   "enum_fields" :
   [
    {
     "enum_field_value" : 1,
     "name" : "android::internal::details::IsIterable<std::vector<std::basic_string<char>>>::value"
    }
   ],
   "linker_set_key" : "_ZTIN7android8internal7details10IsIterableINSt3__16vectorINS3_12basic_stringIcNS3_11char_traitsIcEENS3_9allocatorIcEEEENS8_ISA_EEEEE6$valueE",
   "name" : "android::internal::details::IsIterable<std::vector<std::basic_string<char, std::char_traits<char>, std::allocator<char>>, std::allocator<std::basic_string<char, std::char_traits<char>, std::allocator<char>>>>>::(unnamed enum at frameworks/native/libs/binder/ndk/include_cpp/android/binder_to_string.h:131:5)",
   "referenced_type" : "_ZTIN7android8internal7details10IsIterableINSt3__16vectorINS3_12basic_stringIcNS3_11char_traitsIcEENS3_9allocatorIcEEEENS8_ISA_EEEEE6$valueE",
   "self_type" : "_ZTIN7android8internal7details10IsIterableINSt3__16vectorINS3_12basic_stringIcNS3_11char_traitsIcEENS3_9allocatorIcEEEENS8_ISA_EEEEE6$valueE",
   "size" : 4,
   "source_file" : "frameworks/native/libs/binder/ndk/include_cpp/android/binder_to_string.h",
   "underlying_type" : "_ZTIj"
  },
  {
   "alignment" : 4,
   "enum_fields" :
   [
    {
     "enum_field_value" : 1,
     "name" : "android::internal::details::IsIterable<std::vector<int>>::value"
    }
   ],
   "linker_set_key" : "_ZTIN7android8internal7details10IsIterableINSt3__16vectorIiNS3_9allocatorIiEEEEE6$valueE",
   "name" : "android::internal::details::IsIterable<std::vector<int, std::allocator<int>>>::(unnamed enum at frameworks/native/libs/binder/ndk/include_cpp/android/binder_to_string.h:131:5)",
   "referenced_type" : "_ZTIN7android8internal7details10IsIterableINSt3__16vectorIiNS3_9allocatorIiEEEEE6$valueE",
   "self_type" : "_ZTIN7android8internal7details10IsIterableINSt3__16vectorIiNS3_9allocatorIiEEEEE6$valueE",
   "size" : 4,
   "source_file" : "frameworks/native/libs/binder/ndk/include_cpp/android/binder_to_string.h",
   "underlying_type" : "_ZTIj"
  },
  {
   "alignment" : 4,
   "enum_fields" :
   [
    {
     "enum_field_value" : 0,
     "name" : "android::internal::details::IsPointerLike<aidl::android::hardware::radio::RadioError>::value"
    }
   ],
   "linker_set_key" : "_ZTIN7android8internal7details13IsPointerLikeIN4aidl7android8hardware5radio10RadioErrorEE6$valueE",
   "name" : "android::internal::details::IsPointerLike<aidl::android::hardware::radio::RadioError>::(unnamed enum at frameworks/native/libs/binder/ndk/include_cpp/android/binder_to_string.h:118:5)",
   "referenced_type" : "_ZTIN7android8internal7details13IsPointerLikeIN4aidl7android8hardware5radio10RadioErrorEE6$valueE",
   "self_type" : "_ZTIN7android8internal7details13IsPointerLikeIN4aidl7android8hardware5radio10RadioErrorEE6$valueE",
   "size" : 4,
   "source_file" : "frameworks/native/libs/binder/ndk/include_cpp/android/binder_to_string.h",
   "underlying_type" : "_ZTIj"
  },
  {
   "alignment" : 4,
   "enum_fields" :
   [
    {
     "enum_field_value" : 0,
     "name" : "android::internal::details::IsPointerLike<aidl::android::hardware::radio::RadioResponseType>::value"
    }
   ],
   "linker_set_key" : "_ZTIN7android8internal7details13IsPointerLikeIN4aidl7android8hardware5radio17RadioResponseTypeEE6$valueE",
   "name" : "android::internal::details::IsPointerLike<aidl::android::hardware::radio::RadioResponseType>::(unnamed enum at frameworks/native/libs/binder/ndk/include_cpp/android/binder_to_string.h:118:5)",
   "referenced_type" : "_ZTIN7android8internal7details13IsPointerLikeIN4aidl7android8hardware5radio17RadioResponseTypeEE6$valueE",
   "self_type" : "_ZTIN7android8internal7details13IsPointerLikeIN4aidl7android8hardware5radio17RadioResponseTypeEE6$valueE",
   "size" : 4,
   "source_file" : "frameworks/native/libs/binder/ndk/include_cpp/android/binder_to_string.h",
   "underlying_type" : "_ZTIj"
  },
  {
   "alignment" : 4,
   "enum_fields" :
   [
    {
     "enum_field_value" : 0,
     "name" : "android::internal::details::IsPointerLike<aidl::android::hardware::radio::voice::SsInfoData>::value"
    }
   ],
   "linker_set_key" : "_ZTIN7android8internal7details13IsPointerLikeIN4aidl7android8hardware5radio5voice10SsInfoDataEE6$valueE",
   "name" : "android::internal::details::IsPointerLike<aidl::android::hardware::radio::voice::SsInfoData>::(unnamed enum at frameworks/native/libs/binder/ndk/include_cpp/android/binder_to_string.h:118:5)",
   "referenced_type" : "_ZTIN7android8internal7details13IsPointerLikeIN4aidl7android8hardware5radio5voice10SsInfoDataEE6$valueE",
   "self_type" : "_ZTIN7android8internal7details13IsPointerLikeIN4aidl7android8hardware5radio5voice10SsInfoDataEE6$valueE",
   "size" : 4,
   "source_file" : "frameworks/native/libs/binder/ndk/include_cpp/android/binder_to_string.h",
   "underlying_type" : "_ZTIj"
  },
  {
   "alignment" : 4,
   "enum_fields" :
   [
    {
     "enum_field_value" : 0,
     "name" : "android::internal::details::IsPointerLike<aidl::android::hardware::radio::voice::AudioQuality>::value"
    }
   ],
   "linker_set_key" : "_ZTIN7android8internal7details13IsPointerLikeIN4aidl7android8hardware5radio5voice12AudioQualityEE6$valueE",
   "name" : "android::internal::details::IsPointerLike<aidl::android::hardware::radio::voice::AudioQuality>::(unnamed enum at frameworks/native/libs/binder/ndk/include_cpp/android/binder_to_string.h:118:5)",
   "referenced_type" : "_ZTIN7android8internal7details13IsPointerLikeIN4aidl7android8hardware5radio5voice12AudioQualityEE6$valueE",
   "self_type" : "_ZTIN7android8internal7details13IsPointerLikeIN4aidl7android8hardware5radio5voice12AudioQualityEE6$valueE",
   "size" : 4,
   "source_file" : "frameworks/native/libs/binder/ndk/include_cpp/android/binder_to_string.h",
   "underlying_type" : "_ZTIj"
  },
  {
   "alignment" : 4,
   "enum_fields" :
   [
    {
     "enum_field_value" : 0,
     "name" : "android::internal::details::IsPointerLike<aidl::android::hardware::radio::voice::CallForwardInfo>::value"
    }
   ],
   "linker_set_key" : "_ZTIN7android8internal7details13IsPointerLikeIN4aidl7android8hardware5radio5voice15CallForwardInfoEE6$valueE",
   "name" : "android::internal::details::IsPointerLike<aidl::android::hardware::radio::voice::CallForwardInfo>::(unnamed enum at frameworks/native/libs/binder/ndk/include_cpp/android/binder_to_string.h:118:5)",
   "referenced_type" : "_ZTIN7android8internal7details13IsPointerLikeIN4aidl7android8hardware5radio5voice15CallForwardInfoEE6$valueE",
   "self_type" : "_ZTIN7android8internal7details13IsPointerLikeIN4aidl7android8hardware5radio5voice15CallForwardInfoEE6$valueE",
   "size" : 4,
   "source_file" : "frameworks/native/libs/binder/ndk/include_cpp/android/binder_to_string.h",
   "underlying_type" : "_ZTIj"
  },
  {
   "alignment" : 4,
   "enum_fields" :
   [
    {
     "enum_field_value" : 0,
     "name" : "android::internal::details::IsPointerLike<aidl::android::hardware::radio::voice::LastCallFailCause>::value"
    }
   ],
   "linker_set_key" : "_ZTIN7android8internal7details13IsPointerLikeIN4aidl7android8hardware5radio5voice17LastCallFailCauseEE6$valueE",
   "name" : "android::internal::details::IsPointerLike<aidl::android::hardware::radio::voice::LastCallFailCause>::(unnamed enum at frameworks/native/libs/binder/ndk/include_cpp/android/binder_to_string.h:118:5)",
   "referenced_type" : "_ZTIN7android8internal7details13IsPointerLikeIN4aidl7android8hardware5radio5voice17LastCallFailCauseEE6$valueE",
   "self_type" : "_ZTIN7android8internal7details13IsPointerLikeIN4aidl7android8hardware5radio5voice17LastCallFailCauseEE6$valueE",
   "size" : 4,
   "source_file" : "frameworks/native/libs/binder/ndk/include_cpp/android/binder_to_string.h",
   "underlying_type" : "_ZTIj"
  },
  {
   "alignment" : 4,
   "enum_fields" :
   [
    {
     "enum_field_value" : 0,
     "name" : "android::internal::details::IsPointerLike<aidl::android::hardware::radio::voice::CdmaNumberInfoRecord>::value"
    }
   ],
   "linker_set_key" : "_ZTIN7android8internal7details13IsPointerLikeIN4aidl7android8hardware5radio5voice20CdmaNumberInfoRecordEE6$valueE",
   "name" : "android::internal::details::IsPointerLike<aidl::android::hardware::radio::voice::CdmaNumberInfoRecord>::(unnamed enum at frameworks/native/libs/binder/ndk/include_cpp/android/binder_to_string.h:118:5)",
   "referenced_type" : "_ZTIN7android8internal7details13IsPointerLikeIN4aidl7android8hardware5radio5voice20CdmaNumberInfoRecordEE6$valueE",
   "self_type" : "_ZTIN7android8internal7details13IsPointerLikeIN4aidl7android8hardware5radio5voice20CdmaNumberInfoRecordEE6$valueE",
   "size" : 4,
   "source_file" : "frameworks/native/libs/binder/ndk/include_cpp/android/binder_to_string.h",
   "underlying_type" : "_ZTIj"
  },
  {
   "alignment" : 4,
   "enum_fields" :
   [
    {
     "enum_field_value" : 0,
     "name" : "android::internal::details::IsPointerLike<aidl::android::hardware::radio::voice::CdmaSignalInfoRecord>::value"
    }
   ],
   "linker_set_key" : "_ZTIN7android8internal7details13IsPointerLikeIN4aidl7android8hardware5radio5voice20CdmaSignalInfoRecordEE6$valueE",
   "name" : "android::internal::details::IsPointerLike<aidl::android::hardware::radio::voice::CdmaSignalInfoRecord>::(unnamed enum at frameworks/native/libs/binder/ndk/include_cpp/android/binder_to_string.h:118:5)",
   "referenced_type" : "_ZTIN7android8internal7details13IsPointerLikeIN4aidl7android8hardware5radio5voice20CdmaSignalInfoRecordEE6$valueE",
   "self_type" : "_ZTIN7android8internal7details13IsPointerLikeIN4aidl7android8hardware5radio5voice20CdmaSignalInfoRecordEE6$valueE",
   "size" : 4,
   "source_file" : "frameworks/native/libs/binder/ndk/include_cpp/android/binder_to_string.h",
   "underlying_type" : "_ZTIj"
  },
  {
   "alignment" : 4,
   "enum_fields" :
   [
    {
     "enum_field_value" : 0,
     "name" : "android::internal::details::IsPointerLike<aidl::android::hardware::radio::voice::CdmaDisplayInfoRecord>::value"
    }
   ],
   "linker_set_key" : "_ZTIN7android8internal7details13IsPointerLikeIN4aidl7android8hardware5radio5voice21CdmaDisplayInfoRecordEE6$valueE",
   "name" : "android::internal::details::IsPointerLike<aidl::android::hardware::radio::voice::CdmaDisplayInfoRecord>::(unnamed enum at frameworks/native/libs/binder/ndk/include_cpp/android/binder_to_string.h:118:5)",
   "referenced_type" : "_ZTIN7android8internal7details13IsPointerLikeIN4aidl7android8hardware5radio5voice21CdmaDisplayInfoRecordEE6$valueE",
   "self_type" : "_ZTIN7android8internal7details13IsPointerLikeIN4aidl7android8hardware5radio5voice21CdmaDisplayInfoRecordEE6$valueE",
   "size" : 4,
   "source_file" : "frameworks/native/libs/binder/ndk/include_cpp/android/binder_to_string.h",
   "underlying_type" : "_ZTIj"
  },
  {
   "alignment" : 4,
   "enum_fields" :
   [
    {
     "enum_field_value" : 0,
     "name" : "android::internal::details::IsPointerLike<aidl::android::hardware::radio::voice::CdmaT53ClirInfoRecord>::value"
    }
   ],
   "linker_set_key" : "_ZTIN7android8internal7details13IsPointerLikeIN4aidl7android8hardware5radio5voice21CdmaT53ClirInfoRecordEE6$valueE",
   "name" : "android::internal::details::IsPointerLike<aidl::android::hardware::radio::voice::CdmaT53ClirInfoRecord>::(unnamed enum at frameworks/native/libs/binder/ndk/include_cpp/android/binder_to_string.h:118:5)",
   "referenced_type" : "_ZTIN7android8internal7details13IsPointerLikeIN4aidl7android8hardware5radio5voice21CdmaT53ClirInfoRecordEE6$valueE",
   "self_type" : "_ZTIN7android8internal7details13IsPointerLikeIN4aidl7android8hardware5radio5voice21CdmaT53ClirInfoRecordEE6$valueE",
   "size" : 4,
   "source_file" : "frameworks/native/libs/binder/ndk/include_cpp/android/binder_to_string.h",
   "underlying_type" : "_ZTIj"
  },
  {
   "alignment" : 4,
   "enum_fields" :
   [
    {
     "enum_field_value" : 0,
     "name" : "android::internal::details::IsPointerLike<aidl::android::hardware::radio::voice::CdmaLineControlInfoRecord>::value"
    }
   ],
   "linker_set_key" : "_ZTIN7android8internal7details13IsPointerLikeIN4aidl7android8hardware5radio5voice25CdmaLineControlInfoRecordEE6$valueE",
   "name" : "android::internal::details::IsPointerLike<aidl::android::hardware::radio::voice::CdmaLineControlInfoRecord>::(unnamed enum at frameworks/native/libs/binder/ndk/include_cpp/android/binder_to_string.h:118:5)",
   "referenced_type" : "_ZTIN7android8internal7details13IsPointerLikeIN4aidl7android8hardware5radio5voice25CdmaLineControlInfoRecordEE6$valueE",
   "self_type" : "_ZTIN7android8internal7details13IsPointerLikeIN4aidl7android8hardware5radio5voice25CdmaLineControlInfoRecordEE6$valueE",
   "size" : 4,
   "source_file" : "frameworks/native/libs/binder/ndk/include_cpp/android/binder_to_string.h",
   "underlying_type" : "_ZTIj"
  },
  {
   "alignment" : 4,
   "enum_fields" :
   [
    {
     "enum_field_value" : 0,
     "name" : "android::internal::details::IsPointerLike<aidl::android::hardware::radio::voice::CdmaT53AudioControlInfoRecord>::value"
    }
   ],
   "linker_set_key" : "_ZTIN7android8internal7details13IsPointerLikeIN4aidl7android8hardware5radio5voice29CdmaT53AudioControlInfoRecordEE6$valueE",
   "name" : "android::internal::details::IsPointerLike<aidl::android::hardware::radio::voice::CdmaT53AudioControlInfoRecord>::(unnamed enum at frameworks/native/libs/binder/ndk/include_cpp/android/binder_to_string.h:118:5)",
   "referenced_type" : "_ZTIN7android8internal7details13IsPointerLikeIN4aidl7android8hardware5radio5voice29CdmaT53AudioControlInfoRecordEE6$valueE",
   "self_type" : "_ZTIN7android8internal7details13IsPointerLikeIN4aidl7android8hardware5radio5voice29CdmaT53AudioControlInfoRecordEE6$valueE",
   "size" : 4,
   "source_file" : "frameworks/native/libs/binder/ndk/include_cpp/android/binder_to_string.h",
   "underlying_type" : "_ZTIj"
  },
  {
   "alignment" : 4,
   "enum_fields" :
   [
    {
     "enum_field_value" : 0,
     "name" : "android::internal::details::IsPointerLike<aidl::android::hardware::radio::voice::CdmaRedirectingNumberInfoRecord>::value"
    }
   ],
   "linker_set_key" : "_ZTIN7android8internal7details13IsPointerLikeIN4aidl7android8hardware5radio5voice31CdmaRedirectingNumberInfoRecordEE6$valueE",
   "name" : "android::internal::details::IsPointerLike<aidl::android::hardware::radio::voice::CdmaRedirectingNumberInfoRecord>::(unnamed enum at frameworks/native/libs/binder/ndk/include_cpp/android/binder_to_string.h:118:5)",
   "referenced_type" : "_ZTIN7android8internal7details13IsPointerLikeIN4aidl7android8hardware5radio5voice31CdmaRedirectingNumberInfoRecordEE6$valueE",
   "self_type" : "_ZTIN7android8internal7details13IsPointerLikeIN4aidl7android8hardware5radio5voice31CdmaRedirectingNumberInfoRecordEE6$valueE",
   "size" : 4,
   "source_file" : "frameworks/native/libs/binder/ndk/include_cpp/android/binder_to_string.h",
   "underlying_type" : "_ZTIj"
  },
  {
   "alignment" : 4,
   "enum_fields" :
   [
    {
     "enum_field_value" : 0,
     "name" : "android::internal::details::IsPointerLike<aidl::android::hardware::radio::voice::CfData>::value"
    }
   ],
   "linker_set_key" : "_ZTIN7android8internal7details13IsPointerLikeIN4aidl7android8hardware5radio5voice6CfDataEE6$valueE",
   "name" : "android::internal::details::IsPointerLike<aidl::android::hardware::radio::voice::CfData>::(unnamed enum at frameworks/native/libs/binder/ndk/include_cpp/android/binder_to_string.h:118:5)",
   "referenced_type" : "_ZTIN7android8internal7details13IsPointerLikeIN4aidl7android8hardware5radio5voice6CfDataEE6$valueE",
   "self_type" : "_ZTIN7android8internal7details13IsPointerLikeIN4aidl7android8hardware5radio5voice6CfDataEE6$valueE",
   "size" : 4,
   "source_file" : "frameworks/native/libs/binder/ndk/include_cpp/android/binder_to_string.h",
   "underlying_type" : "_ZTIj"
  },
  {
   "alignment" : 4,
   "enum_fields" :
   [
    {
     "enum_field_value" : 0,
     "name" : "android::internal::details::IsPointerLike<aidl::android::hardware::radio::voice::UusInfo>::value"
    }
   ],
   "linker_set_key" : "_ZTIN7android8internal7details13IsPointerLikeIN4aidl7android8hardware5radio5voice7UusInfoEE6$valueE",
   "name" : "android::internal::details::IsPointerLike<aidl::android::hardware::radio::voice::UusInfo>::(unnamed enum at frameworks/native/libs/binder/ndk/include_cpp/android/binder_to_string.h:118:5)",
   "referenced_type" : "_ZTIN7android8internal7details13IsPointerLikeIN4aidl7android8hardware5radio5voice7UusInfoEE6$valueE",
   "self_type" : "_ZTIN7android8internal7details13IsPointerLikeIN4aidl7android8hardware5radio5voice7UusInfoEE6$valueE",
   "size" : 4,
   "source_file" : "frameworks/native/libs/binder/ndk/include_cpp/android/binder_to_string.h",
   "underlying_type" : "_ZTIj"
  },
  {
   "alignment" : 4,
   "enum_fields" :
   [
    {
     "enum_field_value" : 0,
     "name" : "android::internal::details::IsPointerLike<std::vector<aidl::android::hardware::radio::voice::SsInfoData>>::value"
    }
   ],
   "linker_set_key" : "_ZTIN7android8internal7details13IsPointerLikeINSt3__16vectorIN4aidl7android8hardware5radio5voice10SsInfoDataENS3_9allocatorISA_EEEEE6$valueE",
   "name" : "android::internal::details::IsPointerLike<std::vector<aidl::android::hardware::radio::voice::SsInfoData, std::allocator<aidl::android::hardware::radio::voice::SsInfoData>>>::(unnamed enum at frameworks/native/libs/binder/ndk/include_cpp/android/binder_to_string.h:118:5)",
   "referenced_type" : "_ZTIN7android8internal7details13IsPointerLikeINSt3__16vectorIN4aidl7android8hardware5radio5voice10SsInfoDataENS3_9allocatorISA_EEEEE6$valueE",
   "self_type" : "_ZTIN7android8internal7details13IsPointerLikeINSt3__16vectorIN4aidl7android8hardware5radio5voice10SsInfoDataENS3_9allocatorISA_EEEEE6$valueE",
   "size" : 4,
   "source_file" : "frameworks/native/libs/binder/ndk/include_cpp/android/binder_to_string.h",
   "underlying_type" : "_ZTIj"
  },
  {
   "alignment" : 4,
   "enum_fields" :
   [
    {
     "enum_field_value" : 0,
     "name" : "android::internal::details::IsPointerLike<std::vector<aidl::android::hardware::radio::voice::CallForwardInfo>>::value"
    }
   ],
   "linker_set_key" : "_ZTIN7android8internal7details13IsPointerLikeINSt3__16vectorIN4aidl7android8hardware5radio5voice15CallForwardInfoENS3_9allocatorISA_EEEEE6$valueE",
   "name" : "android::internal::details::IsPointerLike<std::vector<aidl::android::hardware::radio::voice::CallForwardInfo, std::allocator<aidl::android::hardware::radio::voice::CallForwardInfo>>>::(unnamed enum at frameworks/native/libs/binder/ndk/include_cpp/android/binder_to_string.h:118:5)",
   "referenced_type" : "_ZTIN7android8internal7details13IsPointerLikeINSt3__16vectorIN4aidl7android8hardware5radio5voice15CallForwardInfoENS3_9allocatorISA_EEEEE6$valueE",
   "self_type" : "_ZTIN7android8internal7details13IsPointerLikeINSt3__16vectorIN4aidl7android8hardware5radio5voice15CallForwardInfoENS3_9allocatorISA_EEEEE6$valueE",
   "size" : 4,
   "source_file" : "frameworks/native/libs/binder/ndk/include_cpp/android/binder_to_string.h",
   "underlying_type" : "_ZTIj"
  },
  {
   "alignment" : 4,
   "enum_fields" :
   [
    {
     "enum_field_value" : 0,
     "name" : "android::internal::details::IsPointerLike<std::vector<aidl::android::hardware::radio::voice::CdmaNumberInfoRecord>>::value"
    }
   ],
   "linker_set_key" : "_ZTIN7android8internal7details13IsPointerLikeINSt3__16vectorIN4aidl7android8hardware5radio5voice20CdmaNumberInfoRecordENS3_9allocatorISA_EEEEE6$valueE",
   "name" : "android::internal::details::IsPointerLike<std::vector<aidl::android::hardware::radio::voice::CdmaNumberInfoRecord, std::allocator<aidl::android::hardware::radio::voice::CdmaNumberInfoRecord>>>::(unnamed enum at frameworks/native/libs/binder/ndk/include_cpp/android/binder_to_string.h:118:5)",
   "referenced_type" : "_ZTIN7android8internal7details13IsPointerLikeINSt3__16vectorIN4aidl7android8hardware5radio5voice20CdmaNumberInfoRecordENS3_9allocatorISA_EEEEE6$valueE",
   "self_type" : "_ZTIN7android8internal7details13IsPointerLikeINSt3__16vectorIN4aidl7android8hardware5radio5voice20CdmaNumberInfoRecordENS3_9allocatorISA_EEEEE6$valueE",
   "size" : 4,
   "source_file" : "frameworks/native/libs/binder/ndk/include_cpp/android/binder_to_string.h",
   "underlying_type" : "_ZTIj"
  },
  {
   "alignment" : 4,
   "enum_fields" :
   [
    {
     "enum_field_value" : 0,
     "name" : "android::internal::details::IsPointerLike<std::vector<aidl::android::hardware::radio::voice::CdmaSignalInfoRecord>>::value"
    }
   ],
   "linker_set_key" : "_ZTIN7android8internal7details13IsPointerLikeINSt3__16vectorIN4aidl7android8hardware5radio5voice20CdmaSignalInfoRecordENS3_9allocatorISA_EEEEE6$valueE",
   "name" : "android::internal::details::IsPointerLike<std::vector<aidl::android::hardware::radio::voice::CdmaSignalInfoRecord, std::allocator<aidl::android::hardware::radio::voice::CdmaSignalInfoRecord>>>::(unnamed enum at frameworks/native/libs/binder/ndk/include_cpp/android/binder_to_string.h:118:5)",
   "referenced_type" : "_ZTIN7android8internal7details13IsPointerLikeINSt3__16vectorIN4aidl7android8hardware5radio5voice20CdmaSignalInfoRecordENS3_9allocatorISA_EEEEE6$valueE",
   "self_type" : "_ZTIN7android8internal7details13IsPointerLikeINSt3__16vectorIN4aidl7android8hardware5radio5voice20CdmaSignalInfoRecordENS3_9allocatorISA_EEEEE6$valueE",
   "size" : 4,
   "source_file" : "frameworks/native/libs/binder/ndk/include_cpp/android/binder_to_string.h",
   "underlying_type" : "_ZTIj"
  },
  {
   "alignment" : 4,
   "enum_fields" :
   [
    {
     "enum_field_value" : 0,
     "name" : "android::internal::details::IsPointerLike<std::vector<aidl::android::hardware::radio::voice::CdmaDisplayInfoRecord>>::value"
    }
   ],
   "linker_set_key" : "_ZTIN7android8internal7details13IsPointerLikeINSt3__16vectorIN4aidl7android8hardware5radio5voice21CdmaDisplayInfoRecordENS3_9allocatorISA_EEEEE6$valueE",
   "name" : "android::internal::details::IsPointerLike<std::vector<aidl::android::hardware::radio::voice::CdmaDisplayInfoRecord, std::allocator<aidl::android::hardware::radio::voice::CdmaDisplayInfoRecord>>>::(unnamed enum at frameworks/native/libs/binder/ndk/include_cpp/android/binder_to_string.h:118:5)",
   "referenced_type" : "_ZTIN7android8internal7details13IsPointerLikeINSt3__16vectorIN4aidl7android8hardware5radio5voice21CdmaDisplayInfoRecordENS3_9allocatorISA_EEEEE6$valueE",
   "self_type" : "_ZTIN7android8internal7details13IsPointerLikeINSt3__16vectorIN4aidl7android8hardware5radio5voice21CdmaDisplayInfoRecordENS3_9allocatorISA_EEEEE6$valueE",
   "size" : 4,
   "source_file" : "frameworks/native/libs/binder/ndk/include_cpp/android/binder_to_string.h",
   "underlying_type" : "_ZTIj"
  },
  {
   "alignment" : 4,
   "enum_fields" :
   [
    {
     "enum_field_value" : 0,
     "name" : "android::internal::details::IsPointerLike<std::vector<aidl::android::hardware::radio::voice::CdmaT53ClirInfoRecord>>::value"
    }
   ],
   "linker_set_key" : "_ZTIN7android8internal7details13IsPointerLikeINSt3__16vectorIN4aidl7android8hardware5radio5voice21CdmaT53ClirInfoRecordENS3_9allocatorISA_EEEEE6$valueE",
   "name" : "android::internal::details::IsPointerLike<std::vector<aidl::android::hardware::radio::voice::CdmaT53ClirInfoRecord, std::allocator<aidl::android::hardware::radio::voice::CdmaT53ClirInfoRecord>>>::(unnamed enum at frameworks/native/libs/binder/ndk/include_cpp/android/binder_to_string.h:118:5)",
   "referenced_type" : "_ZTIN7android8internal7details13IsPointerLikeINSt3__16vectorIN4aidl7android8hardware5radio5voice21CdmaT53ClirInfoRecordENS3_9allocatorISA_EEEEE6$valueE",
   "self_type" : "_ZTIN7android8internal7details13IsPointerLikeINSt3__16vectorIN4aidl7android8hardware5radio5voice21CdmaT53ClirInfoRecordENS3_9allocatorISA_EEEEE6$valueE",
   "size" : 4,
   "source_file" : "frameworks/native/libs/binder/ndk/include_cpp/android/binder_to_string.h",
   "underlying_type" : "_ZTIj"
  },
  {
   "alignment" : 4,
   "enum_fields" :
   [
    {
     "enum_field_value" : 0,
     "name" : "android::internal::details::IsPointerLike<std::vector<aidl::android::hardware::radio::voice::CdmaLineControlInfoRecord>>::value"
    }
   ],
   "linker_set_key" : "_ZTIN7android8internal7details13IsPointerLikeINSt3__16vectorIN4aidl7android8hardware5radio5voice25CdmaLineControlInfoRecordENS3_9allocatorISA_EEEEE6$valueE",
   "name" : "android::internal::details::IsPointerLike<std::vector<aidl::android::hardware::radio::voice::CdmaLineControlInfoRecord, std::allocator<aidl::android::hardware::radio::voice::CdmaLineControlInfoRecord>>>::(unnamed enum at frameworks/native/libs/binder/ndk/include_cpp/android/binder_to_string.h:118:5)",
   "referenced_type" : "_ZTIN7android8internal7details13IsPointerLikeINSt3__16vectorIN4aidl7android8hardware5radio5voice25CdmaLineControlInfoRecordENS3_9allocatorISA_EEEEE6$valueE",
   "self_type" : "_ZTIN7android8internal7details13IsPointerLikeINSt3__16vectorIN4aidl7android8hardware5radio5voice25CdmaLineControlInfoRecordENS3_9allocatorISA_EEEEE6$valueE",
   "size" : 4,
   "source_file" : "frameworks/native/libs/binder/ndk/include_cpp/android/binder_to_string.h",
   "underlying_type" : "_ZTIj"
  },
  {
   "alignment" : 4,
   "enum_fields" :
   [
    {
     "enum_field_value" : 0,
     "name" : "android::internal::details::IsPointerLike<std::vector<aidl::android::hardware::radio::voice::CdmaT53AudioControlInfoRecord>>::value"
    }
   ],
   "linker_set_key" : "_ZTIN7android8internal7details13IsPointerLikeINSt3__16vectorIN4aidl7android8hardware5radio5voice29CdmaT53AudioControlInfoRecordENS3_9allocatorISA_EEEEE6$valueE",
   "name" : "android::internal::details::IsPointerLike<std::vector<aidl::android::hardware::radio::voice::CdmaT53AudioControlInfoRecord, std::allocator<aidl::android::hardware::radio::voice::CdmaT53AudioControlInfoRecord>>>::(unnamed enum at frameworks/native/libs/binder/ndk/include_cpp/android/binder_to_string.h:118:5)",
   "referenced_type" : "_ZTIN7android8internal7details13IsPointerLikeINSt3__16vectorIN4aidl7android8hardware5radio5voice29CdmaT53AudioControlInfoRecordENS3_9allocatorISA_EEEEE6$valueE",
   "self_type" : "_ZTIN7android8internal7details13IsPointerLikeINSt3__16vectorIN4aidl7android8hardware5radio5voice29CdmaT53AudioControlInfoRecordENS3_9allocatorISA_EEEEE6$valueE",
   "size" : 4,
   "source_file" : "frameworks/native/libs/binder/ndk/include_cpp/android/binder_to_string.h",
   "underlying_type" : "_ZTIj"
  },
  {
   "alignment" : 4,
   "enum_fields" :
   [
    {
     "enum_field_value" : 0,
     "name" : "android::internal::details::IsPointerLike<std::vector<aidl::android::hardware::radio::voice::CdmaRedirectingNumberInfoRecord>>::value"
    }
   ],
   "linker_set_key" : "_ZTIN7android8internal7details13IsPointerLikeINSt3__16vectorIN4aidl7android8hardware5radio5voice31CdmaRedirectingNumberInfoRecordENS3_9allocatorISA_EEEEE6$valueE",
   "name" : "android::internal::details::IsPointerLike<std::vector<aidl::android::hardware::radio::voice::CdmaRedirectingNumberInfoRecord, std::allocator<aidl::android::hardware::radio::voice::CdmaRedirectingNumberInfoRecord>>>::(unnamed enum at frameworks/native/libs/binder/ndk/include_cpp/android/binder_to_string.h:118:5)",
   "referenced_type" : "_ZTIN7android8internal7details13IsPointerLikeINSt3__16vectorIN4aidl7android8hardware5radio5voice31CdmaRedirectingNumberInfoRecordENS3_9allocatorISA_EEEEE6$valueE",
   "self_type" : "_ZTIN7android8internal7details13IsPointerLikeINSt3__16vectorIN4aidl7android8hardware5radio5voice31CdmaRedirectingNumberInfoRecordENS3_9allocatorISA_EEEEE6$valueE",
   "size" : 4,
   "source_file" : "frameworks/native/libs/binder/ndk/include_cpp/android/binder_to_string.h",
   "underlying_type" : "_ZTIj"
  },
  {
   "alignment" : 4,
   "enum_fields" :
   [
    {
     "enum_field_value" : 0,
     "name" : "android::internal::details::IsPointerLike<std::vector<aidl::android::hardware::radio::voice::CfData>>::value"
    }
   ],
   "linker_set_key" : "_ZTIN7android8internal7details13IsPointerLikeINSt3__16vectorIN4aidl7android8hardware5radio5voice6CfDataENS3_9allocatorISA_EEEEE6$valueE",
   "name" : "android::internal::details::IsPointerLike<std::vector<aidl::android::hardware::radio::voice::CfData, std::allocator<aidl::android::hardware::radio::voice::CfData>>>::(unnamed enum at frameworks/native/libs/binder/ndk/include_cpp/android/binder_to_string.h:118:5)",
   "referenced_type" : "_ZTIN7android8internal7details13IsPointerLikeINSt3__16vectorIN4aidl7android8hardware5radio5voice6CfDataENS3_9allocatorISA_EEEEE6$valueE",
   "self_type" : "_ZTIN7android8internal7details13IsPointerLikeINSt3__16vectorIN4aidl7android8hardware5radio5voice6CfDataENS3_9allocatorISA_EEEEE6$valueE",
   "size" : 4,
   "source_file" : "frameworks/native/libs/binder/ndk/include_cpp/android/binder_to_string.h",
   "underlying_type" : "_ZTIj"
  },
  {
   "alignment" : 4,
   "enum_fields" :
   [
    {
     "enum_field_value" : 0,
     "name" : "android::internal::details::IsPointerLike<std::vector<aidl::android::hardware::radio::voice::UusInfo>>::value"
    }
   ],
   "linker_set_key" : "_ZTIN7android8internal7details13IsPointerLikeINSt3__16vectorIN4aidl7android8hardware5radio5voice7UusInfoENS3_9allocatorISA_EEEEE6$valueE",
   "name" : "android::internal::details::IsPointerLike<std::vector<aidl::android::hardware::radio::voice::UusInfo, std::allocator<aidl::android::hardware::radio::voice::UusInfo>>>::(unnamed enum at frameworks/native/libs/binder/ndk/include_cpp/android/binder_to_string.h:118:5)",
   "referenced_type" : "_ZTIN7android8internal7details13IsPointerLikeINSt3__16vectorIN4aidl7android8hardware5radio5voice7UusInfoENS3_9allocatorISA_EEEEE6$valueE",
   "self_type" : "_ZTIN7android8internal7details13IsPointerLikeINSt3__16vectorIN4aidl7android8hardware5radio5voice7UusInfoENS3_9allocatorISA_EEEEE6$valueE",
   "size" : 4,
   "source_file" : "frameworks/native/libs/binder/ndk/include_cpp/android/binder_to_string.h",
   "underlying_type" : "_ZTIj"
  },
  {
   "alignment" : 4,
   "enum_fields" :
   [
    {
     "enum_field_value" : 0,
     "name" : "android::internal::details::IsPointerLike<std::vector<std::basic_string<char>>>::value"
    }
   ],
   "linker_set_key" : "_ZTIN7android8internal7details13IsPointerLikeINSt3__16vectorINS3_12basic_stringIcNS3_11char_traitsIcEENS3_9allocatorIcEEEENS8_ISA_EEEEE6$valueE",
   "name" : "android::internal::details::IsPointerLike<std::vector<std::basic_string<char, std::char_traits<char>, std::allocator<char>>, std::allocator<std::basic_string<char, std::char_traits<char>, std::allocator<char>>>>>::(unnamed enum at frameworks/native/libs/binder/ndk/include_cpp/android/binder_to_string.h:118:5)",
   "referenced_type" : "_ZTIN7android8internal7details13IsPointerLikeINSt3__16vectorINS3_12basic_stringIcNS3_11char_traitsIcEENS3_9allocatorIcEEEENS8_ISA_EEEEE6$valueE",
   "self_type" : "_ZTIN7android8internal7details13IsPointerLikeINSt3__16vectorINS3_12basic_stringIcNS3_11char_traitsIcEENS3_9allocatorIcEEEENS8_ISA_EEEEE6$valueE",
   "size" : 4,
   "source_file" : "frameworks/native/libs/binder/ndk/include_cpp/android/binder_to_string.h",
   "underlying_type" : "_ZTIj"
  },
  {
   "alignment" : 4,
   "enum_fields" :
   [
    {
     "enum_field_value" : 0,
     "name" : "android::internal::details::IsPointerLike<std::vector<int>>::value"
    }
   ],
   "linker_set_key" : "_ZTIN7android8internal7details13IsPointerLikeINSt3__16vectorIiNS3_9allocatorIiEEEEE6$valueE",
   "name" : "android::internal::details::IsPointerLike<std::vector<int, std::allocator<int>>>::(unnamed enum at frameworks/native/libs/binder/ndk/include_cpp/android/binder_to_string.h:118:5)",
   "referenced_type" : "_ZTIN7android8internal7details13IsPointerLikeINSt3__16vectorIiNS3_9allocatorIiEEEEE6$valueE",
   "self_type" : "_ZTIN7android8internal7details13IsPointerLikeINSt3__16vectorIiNS3_9allocatorIiEEEEE6$valueE",
   "size" : 4,
   "source_file" : "frameworks/native/libs/binder/ndk/include_cpp/android/binder_to_string.h",
   "underlying_type" : "_ZTIj"
  },
  {
   "alignment" : 4,
   "enum_fields" :
   [
    {
     "enum_field_value" : 0,
     "name" : "android::internal::details::ToEmptyString<aidl::android::hardware::radio::RadioError>::value"
    }
   ],
   "linker_set_key" : "_ZTIN7android8internal7details13ToEmptyStringIN4aidl7android8hardware5radio10RadioErrorEE6$valueE",
   "name" : "android::internal::details::ToEmptyString<aidl::android::hardware::radio::RadioError>::(unnamed enum at frameworks/native/libs/binder/ndk/include_cpp/android/binder_to_string.h:153:5)",
   "referenced_type" : "_ZTIN7android8internal7details13ToEmptyStringIN4aidl7android8hardware5radio10RadioErrorEE6$valueE",
   "self_type" : "_ZTIN7android8internal7details13ToEmptyStringIN4aidl7android8hardware5radio10RadioErrorEE6$valueE",
   "size" : 4,
   "source_file" : "frameworks/native/libs/binder/ndk/include_cpp/android/binder_to_string.h",
   "underlying_type" : "_ZTIj"
  },
  {
   "alignment" : 4,
   "enum_fields" :
   [
    {
     "enum_field_value" : 0,
     "name" : "android::internal::details::ToEmptyString<aidl::android::hardware::radio::RadioResponseType>::value"
    }
   ],
   "linker_set_key" : "_ZTIN7android8internal7details13ToEmptyStringIN4aidl7android8hardware5radio17RadioResponseTypeEE6$valueE",
   "name" : "android::internal::details::ToEmptyString<aidl::android::hardware::radio::RadioResponseType>::(unnamed enum at frameworks/native/libs/binder/ndk/include_cpp/android/binder_to_string.h:153:5)",
   "referenced_type" : "_ZTIN7android8internal7details13ToEmptyStringIN4aidl7android8hardware5radio17RadioResponseTypeEE6$valueE",
   "self_type" : "_ZTIN7android8internal7details13ToEmptyStringIN4aidl7android8hardware5radio17RadioResponseTypeEE6$valueE",
   "size" : 4,
   "source_file" : "frameworks/native/libs/binder/ndk/include_cpp/android/binder_to_string.h",
   "underlying_type" : "_ZTIj"
  },
  {
   "alignment" : 4,
   "enum_fields" :
   [
    {
     "enum_field_value" : 0,
     "name" : "android::internal::details::ToEmptyString<aidl::android::hardware::radio::voice::SsInfoData>::value"
    }
   ],
   "linker_set_key" : "_ZTIN7android8internal7details13ToEmptyStringIN4aidl7android8hardware5radio5voice10SsInfoDataEE6$valueE",
   "name" : "android::internal::details::ToEmptyString<aidl::android::hardware::radio::voice::SsInfoData>::(unnamed enum at frameworks/native/libs/binder/ndk/include_cpp/android/binder_to_string.h:153:5)",
   "referenced_type" : "_ZTIN7android8internal7details13ToEmptyStringIN4aidl7android8hardware5radio5voice10SsInfoDataEE6$valueE",
   "self_type" : "_ZTIN7android8internal7details13ToEmptyStringIN4aidl7android8hardware5radio5voice10SsInfoDataEE6$valueE",
   "size" : 4,
   "source_file" : "frameworks/native/libs/binder/ndk/include_cpp/android/binder_to_string.h",
   "underlying_type" : "_ZTIj"
  },
  {
   "alignment" : 4,
   "enum_fields" :
   [
    {
     "enum_field_value" : 0,
     "name" : "android::internal::details::ToEmptyString<aidl::android::hardware::radio::voice::AudioQuality>::value"
    }
   ],
   "linker_set_key" : "_ZTIN7android8internal7details13ToEmptyStringIN4aidl7android8hardware5radio5voice12AudioQualityEE6$valueE",
   "name" : "android::internal::details::ToEmptyString<aidl::android::hardware::radio::voice::AudioQuality>::(unnamed enum at frameworks/native/libs/binder/ndk/include_cpp/android/binder_to_string.h:153:5)",
   "referenced_type" : "_ZTIN7android8internal7details13ToEmptyStringIN4aidl7android8hardware5radio5voice12AudioQualityEE6$valueE",
   "self_type" : "_ZTIN7android8internal7details13ToEmptyStringIN4aidl7android8hardware5radio5voice12AudioQualityEE6$valueE",
   "size" : 4,
   "source_file" : "frameworks/native/libs/binder/ndk/include_cpp/android/binder_to_string.h",
   "underlying_type" : "_ZTIj"
  },
  {
   "alignment" : 4,
   "enum_fields" :
   [
    {
     "enum_field_value" : 0,
     "name" : "android::internal::details::ToEmptyString<aidl::android::hardware::radio::voice::CallForwardInfo>::value"
    }
   ],
   "linker_set_key" : "_ZTIN7android8internal7details13ToEmptyStringIN4aidl7android8hardware5radio5voice15CallForwardInfoEE6$valueE",
   "name" : "android::internal::details::ToEmptyString<aidl::android::hardware::radio::voice::CallForwardInfo>::(unnamed enum at frameworks/native/libs/binder/ndk/include_cpp/android/binder_to_string.h:153:5)",
   "referenced_type" : "_ZTIN7android8internal7details13ToEmptyStringIN4aidl7android8hardware5radio5voice15CallForwardInfoEE6$valueE",
   "self_type" : "_ZTIN7android8internal7details13ToEmptyStringIN4aidl7android8hardware5radio5voice15CallForwardInfoEE6$valueE",
   "size" : 4,
   "source_file" : "frameworks/native/libs/binder/ndk/include_cpp/android/binder_to_string.h",
   "underlying_type" : "_ZTIj"
  },
  {
   "alignment" : 4,
   "enum_fields" :
   [
    {
     "enum_field_value" : 0,
     "name" : "android::internal::details::ToEmptyString<aidl::android::hardware::radio::voice::LastCallFailCause>::value"
    }
   ],
   "linker_set_key" : "_ZTIN7android8internal7details13ToEmptyStringIN4aidl7android8hardware5radio5voice17LastCallFailCauseEE6$valueE",
   "name" : "android::internal::details::ToEmptyString<aidl::android::hardware::radio::voice::LastCallFailCause>::(unnamed enum at frameworks/native/libs/binder/ndk/include_cpp/android/binder_to_string.h:153:5)",
   "referenced_type" : "_ZTIN7android8internal7details13ToEmptyStringIN4aidl7android8hardware5radio5voice17LastCallFailCauseEE6$valueE",
   "self_type" : "_ZTIN7android8internal7details13ToEmptyStringIN4aidl7android8hardware5radio5voice17LastCallFailCauseEE6$valueE",
   "size" : 4,
   "source_file" : "frameworks/native/libs/binder/ndk/include_cpp/android/binder_to_string.h",
   "underlying_type" : "_ZTIj"
  },
  {
   "alignment" : 4,
   "enum_fields" :
   [
    {
     "enum_field_value" : 0,
     "name" : "android::internal::details::ToEmptyString<aidl::android::hardware::radio::voice::CdmaNumberInfoRecord>::value"
    }
   ],
   "linker_set_key" : "_ZTIN7android8internal7details13ToEmptyStringIN4aidl7android8hardware5radio5voice20CdmaNumberInfoRecordEE6$valueE",
   "name" : "android::internal::details::ToEmptyString<aidl::android::hardware::radio::voice::CdmaNumberInfoRecord>::(unnamed enum at frameworks/native/libs/binder/ndk/include_cpp/android/binder_to_string.h:153:5)",
   "referenced_type" : "_ZTIN7android8internal7details13ToEmptyStringIN4aidl7android8hardware5radio5voice20CdmaNumberInfoRecordEE6$valueE",
   "self_type" : "_ZTIN7android8internal7details13ToEmptyStringIN4aidl7android8hardware5radio5voice20CdmaNumberInfoRecordEE6$valueE",
   "size" : 4,
   "source_file" : "frameworks/native/libs/binder/ndk/include_cpp/android/binder_to_string.h",
   "underlying_type" : "_ZTIj"
  },
  {
   "alignment" : 4,
   "enum_fields" :
   [
    {
     "enum_field_value" : 0,
     "name" : "android::internal::details::ToEmptyString<aidl::android::hardware::radio::voice::CdmaSignalInfoRecord>::value"
    }
   ],
   "linker_set_key" : "_ZTIN7android8internal7details13ToEmptyStringIN4aidl7android8hardware5radio5voice20CdmaSignalInfoRecordEE6$valueE",
   "name" : "android::internal::details::ToEmptyString<aidl::android::hardware::radio::voice::CdmaSignalInfoRecord>::(unnamed enum at frameworks/native/libs/binder/ndk/include_cpp/android/binder_to_string.h:153:5)",
   "referenced_type" : "_ZTIN7android8internal7details13ToEmptyStringIN4aidl7android8hardware5radio5voice20CdmaSignalInfoRecordEE6$valueE",
   "self_type" : "_ZTIN7android8internal7details13ToEmptyStringIN4aidl7android8hardware5radio5voice20CdmaSignalInfoRecordEE6$valueE",
   "size" : 4,
   "source_file" : "frameworks/native/libs/binder/ndk/include_cpp/android/binder_to_string.h",
   "underlying_type" : "_ZTIj"
  },
  {
   "alignment" : 4,
   "enum_fields" :
   [
    {
     "enum_field_value" : 0,
     "name" : "android::internal::details::ToEmptyString<aidl::android::hardware::radio::voice::CdmaDisplayInfoRecord>::value"
    }
   ],
   "linker_set_key" : "_ZTIN7android8internal7details13ToEmptyStringIN4aidl7android8hardware5radio5voice21CdmaDisplayInfoRecordEE6$valueE",
   "name" : "android::internal::details::ToEmptyString<aidl::android::hardware::radio::voice::CdmaDisplayInfoRecord>::(unnamed enum at frameworks/native/libs/binder/ndk/include_cpp/android/binder_to_string.h:153:5)",
   "referenced_type" : "_ZTIN7android8internal7details13ToEmptyStringIN4aidl7android8hardware5radio5voice21CdmaDisplayInfoRecordEE6$valueE",
   "self_type" : "_ZTIN7android8internal7details13ToEmptyStringIN4aidl7android8hardware5radio5voice21CdmaDisplayInfoRecordEE6$valueE",
   "size" : 4,
   "source_file" : "frameworks/native/libs/binder/ndk/include_cpp/android/binder_to_string.h",
   "underlying_type" : "_ZTIj"
  },
  {
   "alignment" : 4,
   "enum_fields" :
   [
    {
     "enum_field_value" : 0,
     "name" : "android::internal::details::ToEmptyString<aidl::android::hardware::radio::voice::CdmaT53ClirInfoRecord>::value"
    }
   ],
   "linker_set_key" : "_ZTIN7android8internal7details13ToEmptyStringIN4aidl7android8hardware5radio5voice21CdmaT53ClirInfoRecordEE6$valueE",
   "name" : "android::internal::details::ToEmptyString<aidl::android::hardware::radio::voice::CdmaT53ClirInfoRecord>::(unnamed enum at frameworks/native/libs/binder/ndk/include_cpp/android/binder_to_string.h:153:5)",
   "referenced_type" : "_ZTIN7android8internal7details13ToEmptyStringIN4aidl7android8hardware5radio5voice21CdmaT53ClirInfoRecordEE6$valueE",
   "self_type" : "_ZTIN7android8internal7details13ToEmptyStringIN4aidl7android8hardware5radio5voice21CdmaT53ClirInfoRecordEE6$valueE",
   "size" : 4,
   "source_file" : "frameworks/native/libs/binder/ndk/include_cpp/android/binder_to_string.h",
   "underlying_type" : "_ZTIj"
  },
  {
   "alignment" : 4,
   "enum_fields" :
   [
    {
     "enum_field_value" : 0,
     "name" : "android::internal::details::ToEmptyString<aidl::android::hardware::radio::voice::CdmaLineControlInfoRecord>::value"
    }
   ],
   "linker_set_key" : "_ZTIN7android8internal7details13ToEmptyStringIN4aidl7android8hardware5radio5voice25CdmaLineControlInfoRecordEE6$valueE",
   "name" : "android::internal::details::ToEmptyString<aidl::android::hardware::radio::voice::CdmaLineControlInfoRecord>::(unnamed enum at frameworks/native/libs/binder/ndk/include_cpp/android/binder_to_string.h:153:5)",
   "referenced_type" : "_ZTIN7android8internal7details13ToEmptyStringIN4aidl7android8hardware5radio5voice25CdmaLineControlInfoRecordEE6$valueE",
   "self_type" : "_ZTIN7android8internal7details13ToEmptyStringIN4aidl7android8hardware5radio5voice25CdmaLineControlInfoRecordEE6$valueE",
   "size" : 4,
   "source_file" : "frameworks/native/libs/binder/ndk/include_cpp/android/binder_to_string.h",
   "underlying_type" : "_ZTIj"
  },
  {
   "alignment" : 4,
   "enum_fields" :
   [
    {
     "enum_field_value" : 0,
     "name" : "android::internal::details::ToEmptyString<aidl::android::hardware::radio::voice::CdmaT53AudioControlInfoRecord>::value"
    }
   ],
   "linker_set_key" : "_ZTIN7android8internal7details13ToEmptyStringIN4aidl7android8hardware5radio5voice29CdmaT53AudioControlInfoRecordEE6$valueE",
   "name" : "android::internal::details::ToEmptyString<aidl::android::hardware::radio::voice::CdmaT53AudioControlInfoRecord>::(unnamed enum at frameworks/native/libs/binder/ndk/include_cpp/android/binder_to_string.h:153:5)",
   "referenced_type" : "_ZTIN7android8internal7details13ToEmptyStringIN4aidl7android8hardware5radio5voice29CdmaT53AudioControlInfoRecordEE6$valueE",
   "self_type" : "_ZTIN7android8internal7details13ToEmptyStringIN4aidl7android8hardware5radio5voice29CdmaT53AudioControlInfoRecordEE6$valueE",
   "size" : 4,
   "source_file" : "frameworks/native/libs/binder/ndk/include_cpp/android/binder_to_string.h",
   "underlying_type" : "_ZTIj"
  },
  {
   "alignment" : 4,
   "enum_fields" :
   [
    {
     "enum_field_value" : 0,
     "name" : "android::internal::details::ToEmptyString<aidl::android::hardware::radio::voice::CdmaRedirectingNumberInfoRecord>::value"
    }
   ],
   "linker_set_key" : "_ZTIN7android8internal7details13ToEmptyStringIN4aidl7android8hardware5radio5voice31CdmaRedirectingNumberInfoRecordEE6$valueE",
   "name" : "android::internal::details::ToEmptyString<aidl::android::hardware::radio::voice::CdmaRedirectingNumberInfoRecord>::(unnamed enum at frameworks/native/libs/binder/ndk/include_cpp/android/binder_to_string.h:153:5)",
   "referenced_type" : "_ZTIN7android8internal7details13ToEmptyStringIN4aidl7android8hardware5radio5voice31CdmaRedirectingNumberInfoRecordEE6$valueE",
   "self_type" : "_ZTIN7android8internal7details13ToEmptyStringIN4aidl7android8hardware5radio5voice31CdmaRedirectingNumberInfoRecordEE6$valueE",
   "size" : 4,
   "source_file" : "frameworks/native/libs/binder/ndk/include_cpp/android/binder_to_string.h",
   "underlying_type" : "_ZTIj"
  },
  {
   "alignment" : 4,
   "enum_fields" :
   [
    {
     "enum_field_value" : 0,
     "name" : "android::internal::details::ToEmptyString<aidl::android::hardware::radio::voice::CfData>::value"
    }
   ],
   "linker_set_key" : "_ZTIN7android8internal7details13ToEmptyStringIN4aidl7android8hardware5radio5voice6CfDataEE6$valueE",
   "name" : "android::internal::details::ToEmptyString<aidl::android::hardware::radio::voice::CfData>::(unnamed enum at frameworks/native/libs/binder/ndk/include_cpp/android/binder_to_string.h:153:5)",
   "referenced_type" : "_ZTIN7android8internal7details13ToEmptyStringIN4aidl7android8hardware5radio5voice6CfDataEE6$valueE",
   "self_type" : "_ZTIN7android8internal7details13ToEmptyStringIN4aidl7android8hardware5radio5voice6CfDataEE6$valueE",
   "size" : 4,
   "source_file" : "frameworks/native/libs/binder/ndk/include_cpp/android/binder_to_string.h",
   "underlying_type" : "_ZTIj"
  },
  {
   "alignment" : 4,
   "enum_fields" :
   [
    {
     "enum_field_value" : 0,
     "name" : "android::internal::details::ToEmptyString<aidl::android::hardware::radio::voice::UusInfo>::value"
    }
   ],
   "linker_set_key" : "_ZTIN7android8internal7details13ToEmptyStringIN4aidl7android8hardware5radio5voice7UusInfoEE6$valueE",
   "name" : "android::internal::details::ToEmptyString<aidl::android::hardware::radio::voice::UusInfo>::(unnamed enum at frameworks/native/libs/binder/ndk/include_cpp/android/binder_to_string.h:153:5)",
   "referenced_type" : "_ZTIN7android8internal7details13ToEmptyStringIN4aidl7android8hardware5radio5voice7UusInfoEE6$valueE",
   "self_type" : "_ZTIN7android8internal7details13ToEmptyStringIN4aidl7android8hardware5radio5voice7UusInfoEE6$valueE",
   "size" : 4,
   "source_file" : "frameworks/native/libs/binder/ndk/include_cpp/android/binder_to_string.h",
   "underlying_type" : "_ZTIj"
  },
  {
   "alignment" : 4,
   "enum_fields" :
   [
    {
     "enum_field_value" : 0,
     "name" : "android::internal::details::ToEmptyString<std::basic_string<char>>::value"
    }
   ],
   "linker_set_key" : "_ZTIN7android8internal7details13ToEmptyStringINSt3__112basic_stringIcNS3_11char_traitsIcEENS3_9allocatorIcEEEEE6$valueE",
   "name" : "android::internal::details::ToEmptyString<std::basic_string<char, std::char_traits<char>, std::allocator<char>>>::(unnamed enum at frameworks/native/libs/binder/ndk/include_cpp/android/binder_to_string.h:153:5)",
   "referenced_type" : "_ZTIN7android8internal7details13ToEmptyStringINSt3__112basic_stringIcNS3_11char_traitsIcEENS3_9allocatorIcEEEEE6$valueE",
   "self_type" : "_ZTIN7android8internal7details13ToEmptyStringINSt3__112basic_stringIcNS3_11char_traitsIcEENS3_9allocatorIcEEEEE6$valueE",
   "size" : 4,
   "source_file" : "frameworks/native/libs/binder/ndk/include_cpp/android/binder_to_string.h",
   "underlying_type" : "_ZTIj"
  },
  {
   "alignment" : 4,
   "enum_fields" :
   [
    {
     "enum_field_value" : 0,
     "name" : "android::internal::details::ToEmptyString<std::vector<aidl::android::hardware::radio::voice::SsInfoData>>::value"
    }
   ],
   "linker_set_key" : "_ZTIN7android8internal7details13ToEmptyStringINSt3__16vectorIN4aidl7android8hardware5radio5voice10SsInfoDataENS3_9allocatorISA_EEEEE6$valueE",
   "name" : "android::internal::details::ToEmptyString<std::vector<aidl::android::hardware::radio::voice::SsInfoData, std::allocator<aidl::android::hardware::radio::voice::SsInfoData>>>::(unnamed enum at frameworks/native/libs/binder/ndk/include_cpp/android/binder_to_string.h:153:5)",
   "referenced_type" : "_ZTIN7android8internal7details13ToEmptyStringINSt3__16vectorIN4aidl7android8hardware5radio5voice10SsInfoDataENS3_9allocatorISA_EEEEE6$valueE",
   "self_type" : "_ZTIN7android8internal7details13ToEmptyStringINSt3__16vectorIN4aidl7android8hardware5radio5voice10SsInfoDataENS3_9allocatorISA_EEEEE6$valueE",
   "size" : 4,
   "source_file" : "frameworks/native/libs/binder/ndk/include_cpp/android/binder_to_string.h",
   "underlying_type" : "_ZTIj"
  },
  {
   "alignment" : 4,
   "enum_fields" :
   [
    {
     "enum_field_value" : 0,
     "name" : "android::internal::details::ToEmptyString<std::vector<aidl::android::hardware::radio::voice::CallForwardInfo>>::value"
    }
   ],
   "linker_set_key" : "_ZTIN7android8internal7details13ToEmptyStringINSt3__16vectorIN4aidl7android8hardware5radio5voice15CallForwardInfoENS3_9allocatorISA_EEEEE6$valueE",
   "name" : "android::internal::details::ToEmptyString<std::vector<aidl::android::hardware::radio::voice::CallForwardInfo, std::allocator<aidl::android::hardware::radio::voice::CallForwardInfo>>>::(unnamed enum at frameworks/native/libs/binder/ndk/include_cpp/android/binder_to_string.h:153:5)",
   "referenced_type" : "_ZTIN7android8internal7details13ToEmptyStringINSt3__16vectorIN4aidl7android8hardware5radio5voice15CallForwardInfoENS3_9allocatorISA_EEEEE6$valueE",
   "self_type" : "_ZTIN7android8internal7details13ToEmptyStringINSt3__16vectorIN4aidl7android8hardware5radio5voice15CallForwardInfoENS3_9allocatorISA_EEEEE6$valueE",
   "size" : 4,
   "source_file" : "frameworks/native/libs/binder/ndk/include_cpp/android/binder_to_string.h",
   "underlying_type" : "_ZTIj"
  },
  {
   "alignment" : 4,
   "enum_fields" :
   [
    {
     "enum_field_value" : 0,
     "name" : "android::internal::details::ToEmptyString<std::vector<aidl::android::hardware::radio::voice::CdmaNumberInfoRecord>>::value"
    }
   ],
   "linker_set_key" : "_ZTIN7android8internal7details13ToEmptyStringINSt3__16vectorIN4aidl7android8hardware5radio5voice20CdmaNumberInfoRecordENS3_9allocatorISA_EEEEE6$valueE",
   "name" : "android::internal::details::ToEmptyString<std::vector<aidl::android::hardware::radio::voice::CdmaNumberInfoRecord, std::allocator<aidl::android::hardware::radio::voice::CdmaNumberInfoRecord>>>::(unnamed enum at frameworks/native/libs/binder/ndk/include_cpp/android/binder_to_string.h:153:5)",
   "referenced_type" : "_ZTIN7android8internal7details13ToEmptyStringINSt3__16vectorIN4aidl7android8hardware5radio5voice20CdmaNumberInfoRecordENS3_9allocatorISA_EEEEE6$valueE",
   "self_type" : "_ZTIN7android8internal7details13ToEmptyStringINSt3__16vectorIN4aidl7android8hardware5radio5voice20CdmaNumberInfoRecordENS3_9allocatorISA_EEEEE6$valueE",
   "size" : 4,
   "source_file" : "frameworks/native/libs/binder/ndk/include_cpp/android/binder_to_string.h",
   "underlying_type" : "_ZTIj"
  },
  {
   "alignment" : 4,
   "enum_fields" :
   [
    {
     "enum_field_value" : 0,
     "name" : "android::internal::details::ToEmptyString<std::vector<aidl::android::hardware::radio::voice::CdmaSignalInfoRecord>>::value"
    }
   ],
   "linker_set_key" : "_ZTIN7android8internal7details13ToEmptyStringINSt3__16vectorIN4aidl7android8hardware5radio5voice20CdmaSignalInfoRecordENS3_9allocatorISA_EEEEE6$valueE",
   "name" : "android::internal::details::ToEmptyString<std::vector<aidl::android::hardware::radio::voice::CdmaSignalInfoRecord, std::allocator<aidl::android::hardware::radio::voice::CdmaSignalInfoRecord>>>::(unnamed enum at frameworks/native/libs/binder/ndk/include_cpp/android/binder_to_string.h:153:5)",
   "referenced_type" : "_ZTIN7android8internal7details13ToEmptyStringINSt3__16vectorIN4aidl7android8hardware5radio5voice20CdmaSignalInfoRecordENS3_9allocatorISA_EEEEE6$valueE",
   "self_type" : "_ZTIN7android8internal7details13ToEmptyStringINSt3__16vectorIN4aidl7android8hardware5radio5voice20CdmaSignalInfoRecordENS3_9allocatorISA_EEEEE6$valueE",
   "size" : 4,
   "source_file" : "frameworks/native/libs/binder/ndk/include_cpp/android/binder_to_string.h",
   "underlying_type" : "_ZTIj"
  },
  {
   "alignment" : 4,
   "enum_fields" :
   [
    {
     "enum_field_value" : 0,
     "name" : "android::internal::details::ToEmptyString<std::vector<aidl::android::hardware::radio::voice::CdmaDisplayInfoRecord>>::value"
    }
   ],
   "linker_set_key" : "_ZTIN7android8internal7details13ToEmptyStringINSt3__16vectorIN4aidl7android8hardware5radio5voice21CdmaDisplayInfoRecordENS3_9allocatorISA_EEEEE6$valueE",
   "name" : "android::internal::details::ToEmptyString<std::vector<aidl::android::hardware::radio::voice::CdmaDisplayInfoRecord, std::allocator<aidl::android::hardware::radio::voice::CdmaDisplayInfoRecord>>>::(unnamed enum at frameworks/native/libs/binder/ndk/include_cpp/android/binder_to_string.h:153:5)",
   "referenced_type" : "_ZTIN7android8internal7details13ToEmptyStringINSt3__16vectorIN4aidl7android8hardware5radio5voice21CdmaDisplayInfoRecordENS3_9allocatorISA_EEEEE6$valueE",
   "self_type" : "_ZTIN7android8internal7details13ToEmptyStringINSt3__16vectorIN4aidl7android8hardware5radio5voice21CdmaDisplayInfoRecordENS3_9allocatorISA_EEEEE6$valueE",
   "size" : 4,
   "source_file" : "frameworks/native/libs/binder/ndk/include_cpp/android/binder_to_string.h",
   "underlying_type" : "_ZTIj"
  },
  {
   "alignment" : 4,
   "enum_fields" :
   [
    {
     "enum_field_value" : 0,
     "name" : "android::internal::details::ToEmptyString<std::vector<aidl::android::hardware::radio::voice::CdmaT53ClirInfoRecord>>::value"
    }
   ],
   "linker_set_key" : "_ZTIN7android8internal7details13ToEmptyStringINSt3__16vectorIN4aidl7android8hardware5radio5voice21CdmaT53ClirInfoRecordENS3_9allocatorISA_EEEEE6$valueE",
   "name" : "android::internal::details::ToEmptyString<std::vector<aidl::android::hardware::radio::voice::CdmaT53ClirInfoRecord, std::allocator<aidl::android::hardware::radio::voice::CdmaT53ClirInfoRecord>>>::(unnamed enum at frameworks/native/libs/binder/ndk/include_cpp/android/binder_to_string.h:153:5)",
   "referenced_type" : "_ZTIN7android8internal7details13ToEmptyStringINSt3__16vectorIN4aidl7android8hardware5radio5voice21CdmaT53ClirInfoRecordENS3_9allocatorISA_EEEEE6$valueE",
   "self_type" : "_ZTIN7android8internal7details13ToEmptyStringINSt3__16vectorIN4aidl7android8hardware5radio5voice21CdmaT53ClirInfoRecordENS3_9allocatorISA_EEEEE6$valueE",
   "size" : 4,
   "source_file" : "frameworks/native/libs/binder/ndk/include_cpp/android/binder_to_string.h",
   "underlying_type" : "_ZTIj"
  },
  {
   "alignment" : 4,
   "enum_fields" :
   [
    {
     "enum_field_value" : 0,
     "name" : "android::internal::details::ToEmptyString<std::vector<aidl::android::hardware::radio::voice::CdmaLineControlInfoRecord>>::value"
    }
   ],
   "linker_set_key" : "_ZTIN7android8internal7details13ToEmptyStringINSt3__16vectorIN4aidl7android8hardware5radio5voice25CdmaLineControlInfoRecordENS3_9allocatorISA_EEEEE6$valueE",
   "name" : "android::internal::details::ToEmptyString<std::vector<aidl::android::hardware::radio::voice::CdmaLineControlInfoRecord, std::allocator<aidl::android::hardware::radio::voice::CdmaLineControlInfoRecord>>>::(unnamed enum at frameworks/native/libs/binder/ndk/include_cpp/android/binder_to_string.h:153:5)",
   "referenced_type" : "_ZTIN7android8internal7details13ToEmptyStringINSt3__16vectorIN4aidl7android8hardware5radio5voice25CdmaLineControlInfoRecordENS3_9allocatorISA_EEEEE6$valueE",
   "self_type" : "_ZTIN7android8internal7details13ToEmptyStringINSt3__16vectorIN4aidl7android8hardware5radio5voice25CdmaLineControlInfoRecordENS3_9allocatorISA_EEEEE6$valueE",
   "size" : 4,
   "source_file" : "frameworks/native/libs/binder/ndk/include_cpp/android/binder_to_string.h",
   "underlying_type" : "_ZTIj"
  },
  {
   "alignment" : 4,
   "enum_fields" :
   [
    {
     "enum_field_value" : 0,
     "name" : "android::internal::details::ToEmptyString<std::vector<aidl::android::hardware::radio::voice::CdmaT53AudioControlInfoRecord>>::value"
    }
   ],
   "linker_set_key" : "_ZTIN7android8internal7details13ToEmptyStringINSt3__16vectorIN4aidl7android8hardware5radio5voice29CdmaT53AudioControlInfoRecordENS3_9allocatorISA_EEEEE6$valueE",
   "name" : "android::internal::details::ToEmptyString<std::vector<aidl::android::hardware::radio::voice::CdmaT53AudioControlInfoRecord, std::allocator<aidl::android::hardware::radio::voice::CdmaT53AudioControlInfoRecord>>>::(unnamed enum at frameworks/native/libs/binder/ndk/include_cpp/android/binder_to_string.h:153:5)",
   "referenced_type" : "_ZTIN7android8internal7details13ToEmptyStringINSt3__16vectorIN4aidl7android8hardware5radio5voice29CdmaT53AudioControlInfoRecordENS3_9allocatorISA_EEEEE6$valueE",
   "self_type" : "_ZTIN7android8internal7details13ToEmptyStringINSt3__16vectorIN4aidl7android8hardware5radio5voice29CdmaT53AudioControlInfoRecordENS3_9allocatorISA_EEEEE6$valueE",
   "size" : 4,
   "source_file" : "frameworks/native/libs/binder/ndk/include_cpp/android/binder_to_string.h",
   "underlying_type" : "_ZTIj"
  },
  {
   "alignment" : 4,
   "enum_fields" :
   [
    {
     "enum_field_value" : 0,
     "name" : "android::internal::details::ToEmptyString<std::vector<aidl::android::hardware::radio::voice::CdmaRedirectingNumberInfoRecord>>::value"
    }
   ],
   "linker_set_key" : "_ZTIN7android8internal7details13ToEmptyStringINSt3__16vectorIN4aidl7android8hardware5radio5voice31CdmaRedirectingNumberInfoRecordENS3_9allocatorISA_EEEEE6$valueE",
   "name" : "android::internal::details::ToEmptyString<std::vector<aidl::android::hardware::radio::voice::CdmaRedirectingNumberInfoRecord, std::allocator<aidl::android::hardware::radio::voice::CdmaRedirectingNumberInfoRecord>>>::(unnamed enum at frameworks/native/libs/binder/ndk/include_cpp/android/binder_to_string.h:153:5)",
   "referenced_type" : "_ZTIN7android8internal7details13ToEmptyStringINSt3__16vectorIN4aidl7android8hardware5radio5voice31CdmaRedirectingNumberInfoRecordENS3_9allocatorISA_EEEEE6$valueE",
   "self_type" : "_ZTIN7android8internal7details13ToEmptyStringINSt3__16vectorIN4aidl7android8hardware5radio5voice31CdmaRedirectingNumberInfoRecordENS3_9allocatorISA_EEEEE6$valueE",
   "size" : 4,
   "source_file" : "frameworks/native/libs/binder/ndk/include_cpp/android/binder_to_string.h",
   "underlying_type" : "_ZTIj"
  },
  {
   "alignment" : 4,
   "enum_fields" :
   [
    {
     "enum_field_value" : 0,
     "name" : "android::internal::details::ToEmptyString<std::vector<aidl::android::hardware::radio::voice::CfData>>::value"
    }
   ],
   "linker_set_key" : "_ZTIN7android8internal7details13ToEmptyStringINSt3__16vectorIN4aidl7android8hardware5radio5voice6CfDataENS3_9allocatorISA_EEEEE6$valueE",
   "name" : "android::internal::details::ToEmptyString<std::vector<aidl::android::hardware::radio::voice::CfData, std::allocator<aidl::android::hardware::radio::voice::CfData>>>::(unnamed enum at frameworks/native/libs/binder/ndk/include_cpp/android/binder_to_string.h:153:5)",
   "referenced_type" : "_ZTIN7android8internal7details13ToEmptyStringINSt3__16vectorIN4aidl7android8hardware5radio5voice6CfDataENS3_9allocatorISA_EEEEE6$valueE",
   "self_type" : "_ZTIN7android8internal7details13ToEmptyStringINSt3__16vectorIN4aidl7android8hardware5radio5voice6CfDataENS3_9allocatorISA_EEEEE6$valueE",
   "size" : 4,
   "source_file" : "frameworks/native/libs/binder/ndk/include_cpp/android/binder_to_string.h",
   "underlying_type" : "_ZTIj"
  },
  {
   "alignment" : 4,
   "enum_fields" :
   [
    {
     "enum_field_value" : 0,
     "name" : "android::internal::details::ToEmptyString<std::vector<aidl::android::hardware::radio::voice::UusInfo>>::value"
    }
   ],
   "linker_set_key" : "_ZTIN7android8internal7details13ToEmptyStringINSt3__16vectorIN4aidl7android8hardware5radio5voice7UusInfoENS3_9allocatorISA_EEEEE6$valueE",
   "name" : "android::internal::details::ToEmptyString<std::vector<aidl::android::hardware::radio::voice::UusInfo, std::allocator<aidl::android::hardware::radio::voice::UusInfo>>>::(unnamed enum at frameworks/native/libs/binder/ndk/include_cpp/android/binder_to_string.h:153:5)",
   "referenced_type" : "_ZTIN7android8internal7details13ToEmptyStringINSt3__16vectorIN4aidl7android8hardware5radio5voice7UusInfoENS3_9allocatorISA_EEEEE6$valueE",
   "self_type" : "_ZTIN7android8internal7details13ToEmptyStringINSt3__16vectorIN4aidl7android8hardware5radio5voice7UusInfoENS3_9allocatorISA_EEEEE6$valueE",
   "size" : 4,
   "source_file" : "frameworks/native/libs/binder/ndk/include_cpp/android/binder_to_string.h",
   "underlying_type" : "_ZTIj"
  },
  {
   "alignment" : 4,
   "enum_fields" :
   [
    {
     "enum_field_value" : 0,
     "name" : "android::internal::details::ToEmptyString<std::vector<std::basic_string<char>>>::value"
    }
   ],
   "linker_set_key" : "_ZTIN7android8internal7details13ToEmptyStringINSt3__16vectorINS3_12basic_stringIcNS3_11char_traitsIcEENS3_9allocatorIcEEEENS8_ISA_EEEEE6$valueE",
   "name" : "android::internal::details::ToEmptyString<std::vector<std::basic_string<char, std::char_traits<char>, std::allocator<char>>, std::allocator<std::basic_string<char, std::char_traits<char>, std::allocator<char>>>>>::(unnamed enum at frameworks/native/libs/binder/ndk/include_cpp/android/binder_to_string.h:153:5)",
   "referenced_type" : "_ZTIN7android8internal7details13ToEmptyStringINSt3__16vectorINS3_12basic_stringIcNS3_11char_traitsIcEENS3_9allocatorIcEEEENS8_ISA_EEEEE6$valueE",
   "self_type" : "_ZTIN7android8internal7details13ToEmptyStringINSt3__16vectorINS3_12basic_stringIcNS3_11char_traitsIcEENS3_9allocatorIcEEEENS8_ISA_EEEEE6$valueE",
   "size" : 4,
   "source_file" : "frameworks/native/libs/binder/ndk/include_cpp/android/binder_to_string.h",
   "underlying_type" : "_ZTIj"
  },
  {
   "alignment" : 4,
   "enum_fields" :
   [
    {
     "enum_field_value" : 0,
     "name" : "android::internal::details::ToEmptyString<std::vector<int>>::value"
    }
   ],
   "linker_set_key" : "_ZTIN7android8internal7details13ToEmptyStringINSt3__16vectorIiNS3_9allocatorIiEEEEE6$valueE",
   "name" : "android::internal::details::ToEmptyString<std::vector<int, std::allocator<int>>>::(unnamed enum at frameworks/native/libs/binder/ndk/include_cpp/android/binder_to_string.h:153:5)",
   "referenced_type" : "_ZTIN7android8internal7details13ToEmptyStringINSt3__16vectorIiNS3_9allocatorIiEEEEE6$valueE",
   "self_type" : "_ZTIN7android8internal7details13ToEmptyStringINSt3__16vectorIiNS3_9allocatorIiEEEEE6$valueE",
   "size" : 4,
   "source_file" : "frameworks/native/libs/binder/ndk/include_cpp/android/binder_to_string.h",
   "underlying_type" : "_ZTIj"
  },
  {
   "alignment" : 4,
   "enum_fields" :
   [
    {
     "enum_field_value" : 0,
     "name" : "android::internal::details::ToEmptyString<signed char>::value"
    }
   ],
   "linker_set_key" : "_ZTIN7android8internal7details13ToEmptyStringIaE6$valueE",
   "name" : "android::internal::details::ToEmptyString<signed char>::(unnamed enum at frameworks/native/libs/binder/ndk/include_cpp/android/binder_to_string.h:153:5)",
   "referenced_type" : "_ZTIN7android8internal7details13ToEmptyStringIaE6$valueE",
   "self_type" : "_ZTIN7android8internal7details13ToEmptyStringIaE6$valueE",
   "size" : 4,
   "source_file" : "frameworks/native/libs/binder/ndk/include_cpp/android/binder_to_string.h",
   "underlying_type" : "_ZTIj"
  },
  {
   "alignment" : 4,
   "enum_fields" :
   [
    {
     "enum_field_value" : 0,
     "name" : "android::internal::details::ToEmptyString<bool>::value"
    }
   ],
   "linker_set_key" : "_ZTIN7android8internal7details13ToEmptyStringIbE6$valueE",
   "name" : "android::internal::details::ToEmptyString<bool>::(unnamed enum at frameworks/native/libs/binder/ndk/include_cpp/android/binder_to_string.h:153:5)",
   "referenced_type" : "_ZTIN7android8internal7details13ToEmptyStringIbE6$valueE",
   "self_type" : "_ZTIN7android8internal7details13ToEmptyStringIbE6$valueE",
   "size" : 4,
   "source_file" : "frameworks/native/libs/binder/ndk/include_cpp/android/binder_to_string.h",
   "underlying_type" : "_ZTIj"
  },
  {
   "alignment" : 4,
   "enum_fields" :
   [
    {
     "enum_field_value" : 0,
     "name" : "android::internal::details::ToEmptyString<int>::value"
    }
   ],
   "linker_set_key" : "_ZTIN7android8internal7details13ToEmptyStringIiE6$valueE",
   "name" : "android::internal::details::ToEmptyString<int>::(unnamed enum at frameworks/native/libs/binder/ndk/include_cpp/android/binder_to_string.h:153:5)",
   "referenced_type" : "_ZTIN7android8internal7details13ToEmptyStringIiE6$valueE",
   "self_type" : "_ZTIN7android8internal7details13ToEmptyStringIiE6$valueE",
   "size" : 4,
   "source_file" : "frameworks/native/libs/binder/ndk/include_cpp/android/binder_to_string.h",
   "underlying_type" : "_ZTIj"
  },
  {
   "alignment" : 4,
   "enum_fields" :
   [
    {
     "enum_field_value" : 0,
     "name" : "android::internal::details::HasToStringMethod<aidl::android::hardware::radio::RadioError>::value"
    }
   ],
   "linker_set_key" : "_ZTIN7android8internal7details17HasToStringMethodIN4aidl7android8hardware5radio10RadioErrorEE6$valueE",
   "name" : "android::internal::details::HasToStringMethod<aidl::android::hardware::radio::RadioError>::(unnamed enum at frameworks/native/libs/binder/ndk/include_cpp/android/binder_to_string.h:77:5)",
   "referenced_type" : "_ZTIN7android8internal7details17HasToStringMethodIN4aidl7android8hardware5radio10RadioErrorEE6$valueE",
   "self_type" : "_ZTIN7android8internal7details17HasToStringMethodIN4aidl7android8hardware5radio10RadioErrorEE6$valueE",
   "size" : 4,
   "source_file" : "frameworks/native/libs/binder/ndk/include_cpp/android/binder_to_string.h",
   "underlying_type" : "_ZTIj"
  },
  {
   "alignment" : 4,
   "enum_fields" :
   [
    {
     "enum_field_value" : 0,
     "name" : "android::internal::details::HasToStringMethod<aidl::android::hardware::radio::RadioResponseType>::value"
    }
   ],
   "linker_set_key" : "_ZTIN7android8internal7details17HasToStringMethodIN4aidl7android8hardware5radio17RadioResponseTypeEE6$valueE",
   "name" : "android::internal::details::HasToStringMethod<aidl::android::hardware::radio::RadioResponseType>::(unnamed enum at frameworks/native/libs/binder/ndk/include_cpp/android/binder_to_string.h:77:5)",
   "referenced_type" : "_ZTIN7android8internal7details17HasToStringMethodIN4aidl7android8hardware5radio17RadioResponseTypeEE6$valueE",
   "self_type" : "_ZTIN7android8internal7details17HasToStringMethodIN4aidl7android8hardware5radio17RadioResponseTypeEE6$valueE",
   "size" : 4,
   "source_file" : "frameworks/native/libs/binder/ndk/include_cpp/android/binder_to_string.h",
   "underlying_type" : "_ZTIj"
  },
  {
   "alignment" : 4,
   "enum_fields" :
   [
    {
     "enum_field_value" : 1,
     "name" : "android::internal::details::HasToStringMethod<aidl::android::hardware::radio::voice::SsInfoData>::value"
    }
   ],
   "linker_set_key" : "_ZTIN7android8internal7details17HasToStringMethodIN4aidl7android8hardware5radio5voice10SsInfoDataEE6$valueE",
   "name" : "android::internal::details::HasToStringMethod<aidl::android::hardware::radio::voice::SsInfoData>::(unnamed enum at frameworks/native/libs/binder/ndk/include_cpp/android/binder_to_string.h:77:5)",
   "referenced_type" : "_ZTIN7android8internal7details17HasToStringMethodIN4aidl7android8hardware5radio5voice10SsInfoDataEE6$valueE",
   "self_type" : "_ZTIN7android8internal7details17HasToStringMethodIN4aidl7android8hardware5radio5voice10SsInfoDataEE6$valueE",
   "size" : 4,
   "source_file" : "frameworks/native/libs/binder/ndk/include_cpp/android/binder_to_string.h",
   "underlying_type" : "_ZTIj"
  },
  {
   "alignment" : 4,
   "enum_fields" :
   [
    {
     "enum_field_value" : 0,
     "name" : "android::internal::details::HasToStringMethod<aidl::android::hardware::radio::voice::AudioQuality>::value"
    }
   ],
   "linker_set_key" : "_ZTIN7android8internal7details17HasToStringMethodIN4aidl7android8hardware5radio5voice12AudioQualityEE6$valueE",
   "name" : "android::internal::details::HasToStringMethod<aidl::android::hardware::radio::voice::AudioQuality>::(unnamed enum at frameworks/native/libs/binder/ndk/include_cpp/android/binder_to_string.h:77:5)",
   "referenced_type" : "_ZTIN7android8internal7details17HasToStringMethodIN4aidl7android8hardware5radio5voice12AudioQualityEE6$valueE",
   "self_type" : "_ZTIN7android8internal7details17HasToStringMethodIN4aidl7android8hardware5radio5voice12AudioQualityEE6$valueE",
   "size" : 4,
   "source_file" : "frameworks/native/libs/binder/ndk/include_cpp/android/binder_to_string.h",
   "underlying_type" : "_ZTIj"
  },
  {
   "alignment" : 4,
   "enum_fields" :
   [
    {
     "enum_field_value" : 1,
     "name" : "android::internal::details::HasToStringMethod<aidl::android::hardware::radio::voice::CallForwardInfo>::value"
    }
   ],
   "linker_set_key" : "_ZTIN7android8internal7details17HasToStringMethodIN4aidl7android8hardware5radio5voice15CallForwardInfoEE6$valueE",
   "name" : "android::internal::details::HasToStringMethod<aidl::android::hardware::radio::voice::CallForwardInfo>::(unnamed enum at frameworks/native/libs/binder/ndk/include_cpp/android/binder_to_string.h:77:5)",
   "referenced_type" : "_ZTIN7android8internal7details17HasToStringMethodIN4aidl7android8hardware5radio5voice15CallForwardInfoEE6$valueE",
   "self_type" : "_ZTIN7android8internal7details17HasToStringMethodIN4aidl7android8hardware5radio5voice15CallForwardInfoEE6$valueE",
   "size" : 4,
   "source_file" : "frameworks/native/libs/binder/ndk/include_cpp/android/binder_to_string.h",
   "underlying_type" : "_ZTIj"
  },
  {
   "alignment" : 4,
   "enum_fields" :
   [
    {
     "enum_field_value" : 0,
     "name" : "android::internal::details::HasToStringMethod<aidl::android::hardware::radio::voice::LastCallFailCause>::value"
    }
   ],
   "linker_set_key" : "_ZTIN7android8internal7details17HasToStringMethodIN4aidl7android8hardware5radio5voice17LastCallFailCauseEE6$valueE",
   "name" : "android::internal::details::HasToStringMethod<aidl::android::hardware::radio::voice::LastCallFailCause>::(unnamed enum at frameworks/native/libs/binder/ndk/include_cpp/android/binder_to_string.h:77:5)",
   "referenced_type" : "_ZTIN7android8internal7details17HasToStringMethodIN4aidl7android8hardware5radio5voice17LastCallFailCauseEE6$valueE",
   "self_type" : "_ZTIN7android8internal7details17HasToStringMethodIN4aidl7android8hardware5radio5voice17LastCallFailCauseEE6$valueE",
   "size" : 4,
   "source_file" : "frameworks/native/libs/binder/ndk/include_cpp/android/binder_to_string.h",
   "underlying_type" : "_ZTIj"
  },
  {
   "alignment" : 4,
   "enum_fields" :
   [
    {
     "enum_field_value" : 1,
     "name" : "android::internal::details::HasToStringMethod<aidl::android::hardware::radio::voice::CdmaNumberInfoRecord>::value"
    }
   ],
   "linker_set_key" : "_ZTIN7android8internal7details17HasToStringMethodIN4aidl7android8hardware5radio5voice20CdmaNumberInfoRecordEE6$valueE",
   "name" : "android::internal::details::HasToStringMethod<aidl::android::hardware::radio::voice::CdmaNumberInfoRecord>::(unnamed enum at frameworks/native/libs/binder/ndk/include_cpp/android/binder_to_string.h:77:5)",
   "referenced_type" : "_ZTIN7android8internal7details17HasToStringMethodIN4aidl7android8hardware5radio5voice20CdmaNumberInfoRecordEE6$valueE",
   "self_type" : "_ZTIN7android8internal7details17HasToStringMethodIN4aidl7android8hardware5radio5voice20CdmaNumberInfoRecordEE6$valueE",
   "size" : 4,
   "source_file" : "frameworks/native/libs/binder/ndk/include_cpp/android/binder_to_string.h",
   "underlying_type" : "_ZTIj"
  },
  {
   "alignment" : 4,
   "enum_fields" :
   [
    {
     "enum_field_value" : 1,
     "name" : "android::internal::details::HasToStringMethod<aidl::android::hardware::radio::voice::CdmaSignalInfoRecord>::value"
    }
   ],
   "linker_set_key" : "_ZTIN7android8internal7details17HasToStringMethodIN4aidl7android8hardware5radio5voice20CdmaSignalInfoRecordEE6$valueE",
   "name" : "android::internal::details::HasToStringMethod<aidl::android::hardware::radio::voice::CdmaSignalInfoRecord>::(unnamed enum at frameworks/native/libs/binder/ndk/include_cpp/android/binder_to_string.h:77:5)",
   "referenced_type" : "_ZTIN7android8internal7details17HasToStringMethodIN4aidl7android8hardware5radio5voice20CdmaSignalInfoRecordEE6$valueE",
   "self_type" : "_ZTIN7android8internal7details17HasToStringMethodIN4aidl7android8hardware5radio5voice20CdmaSignalInfoRecordEE6$valueE",
   "size" : 4,
   "source_file" : "frameworks/native/libs/binder/ndk/include_cpp/android/binder_to_string.h",
   "underlying_type" : "_ZTIj"
  },
  {
   "alignment" : 4,
   "enum_fields" :
   [
    {
     "enum_field_value" : 1,
     "name" : "android::internal::details::HasToStringMethod<aidl::android::hardware::radio::voice::CdmaDisplayInfoRecord>::value"
    }
   ],
   "linker_set_key" : "_ZTIN7android8internal7details17HasToStringMethodIN4aidl7android8hardware5radio5voice21CdmaDisplayInfoRecordEE6$valueE",
   "name" : "android::internal::details::HasToStringMethod<aidl::android::hardware::radio::voice::CdmaDisplayInfoRecord>::(unnamed enum at frameworks/native/libs/binder/ndk/include_cpp/android/binder_to_string.h:77:5)",
   "referenced_type" : "_ZTIN7android8internal7details17HasToStringMethodIN4aidl7android8hardware5radio5voice21CdmaDisplayInfoRecordEE6$valueE",
   "self_type" : "_ZTIN7android8internal7details17HasToStringMethodIN4aidl7android8hardware5radio5voice21CdmaDisplayInfoRecordEE6$valueE",
   "size" : 4,
   "source_file" : "frameworks/native/libs/binder/ndk/include_cpp/android/binder_to_string.h",
   "underlying_type" : "_ZTIj"
  },
  {
   "alignment" : 4,
   "enum_fields" :
   [
    {
     "enum_field_value" : 1,
     "name" : "android::internal::details::HasToStringMethod<aidl::android::hardware::radio::voice::CdmaT53ClirInfoRecord>::value"
    }
   ],
   "linker_set_key" : "_ZTIN7android8internal7details17HasToStringMethodIN4aidl7android8hardware5radio5voice21CdmaT53ClirInfoRecordEE6$valueE",
   "name" : "android::internal::details::HasToStringMethod<aidl::android::hardware::radio::voice::CdmaT53ClirInfoRecord>::(unnamed enum at frameworks/native/libs/binder/ndk/include_cpp/android/binder_to_string.h:77:5)",
   "referenced_type" : "_ZTIN7android8internal7details17HasToStringMethodIN4aidl7android8hardware5radio5voice21CdmaT53ClirInfoRecordEE6$valueE",
   "self_type" : "_ZTIN7android8internal7details17HasToStringMethodIN4aidl7android8hardware5radio5voice21CdmaT53ClirInfoRecordEE6$valueE",
   "size" : 4,
   "source_file" : "frameworks/native/libs/binder/ndk/include_cpp/android/binder_to_string.h",
   "underlying_type" : "_ZTIj"
  },
  {
   "alignment" : 4,
   "enum_fields" :
   [
    {
     "enum_field_value" : 1,
     "name" : "android::internal::details::HasToStringMethod<aidl::android::hardware::radio::voice::CdmaLineControlInfoRecord>::value"
    }
   ],
   "linker_set_key" : "_ZTIN7android8internal7details17HasToStringMethodIN4aidl7android8hardware5radio5voice25CdmaLineControlInfoRecordEE6$valueE",
   "name" : "android::internal::details::HasToStringMethod<aidl::android::hardware::radio::voice::CdmaLineControlInfoRecord>::(unnamed enum at frameworks/native/libs/binder/ndk/include_cpp/android/binder_to_string.h:77:5)",
   "referenced_type" : "_ZTIN7android8internal7details17HasToStringMethodIN4aidl7android8hardware5radio5voice25CdmaLineControlInfoRecordEE6$valueE",
   "self_type" : "_ZTIN7android8internal7details17HasToStringMethodIN4aidl7android8hardware5radio5voice25CdmaLineControlInfoRecordEE6$valueE",
   "size" : 4,
   "source_file" : "frameworks/native/libs/binder/ndk/include_cpp/android/binder_to_string.h",
   "underlying_type" : "_ZTIj"
  },
  {
   "alignment" : 4,
   "enum_fields" :
   [
    {
     "enum_field_value" : 1,
     "name" : "android::internal::details::HasToStringMethod<aidl::android::hardware::radio::voice::CdmaT53AudioControlInfoRecord>::value"
    }
   ],
   "linker_set_key" : "_ZTIN7android8internal7details17HasToStringMethodIN4aidl7android8hardware5radio5voice29CdmaT53AudioControlInfoRecordEE6$valueE",
   "name" : "android::internal::details::HasToStringMethod<aidl::android::hardware::radio::voice::CdmaT53AudioControlInfoRecord>::(unnamed enum at frameworks/native/libs/binder/ndk/include_cpp/android/binder_to_string.h:77:5)",
   "referenced_type" : "_ZTIN7android8internal7details17HasToStringMethodIN4aidl7android8hardware5radio5voice29CdmaT53AudioControlInfoRecordEE6$valueE",
   "self_type" : "_ZTIN7android8internal7details17HasToStringMethodIN4aidl7android8hardware5radio5voice29CdmaT53AudioControlInfoRecordEE6$valueE",
   "size" : 4,
   "source_file" : "frameworks/native/libs/binder/ndk/include_cpp/android/binder_to_string.h",
   "underlying_type" : "_ZTIj"
  },
  {
   "alignment" : 4,
   "enum_fields" :
   [
    {
     "enum_field_value" : 1,
     "name" : "android::internal::details::HasToStringMethod<aidl::android::hardware::radio::voice::CdmaRedirectingNumberInfoRecord>::value"
    }
   ],
   "linker_set_key" : "_ZTIN7android8internal7details17HasToStringMethodIN4aidl7android8hardware5radio5voice31CdmaRedirectingNumberInfoRecordEE6$valueE",
   "name" : "android::internal::details::HasToStringMethod<aidl::android::hardware::radio::voice::CdmaRedirectingNumberInfoRecord>::(unnamed enum at frameworks/native/libs/binder/ndk/include_cpp/android/binder_to_string.h:77:5)",
   "referenced_type" : "_ZTIN7android8internal7details17HasToStringMethodIN4aidl7android8hardware5radio5voice31CdmaRedirectingNumberInfoRecordEE6$valueE",
   "self_type" : "_ZTIN7android8internal7details17HasToStringMethodIN4aidl7android8hardware5radio5voice31CdmaRedirectingNumberInfoRecordEE6$valueE",
   "size" : 4,
   "source_file" : "frameworks/native/libs/binder/ndk/include_cpp/android/binder_to_string.h",
   "underlying_type" : "_ZTIj"
  },
  {
   "alignment" : 4,
   "enum_fields" :
   [
    {
     "enum_field_value" : 1,
     "name" : "android::internal::details::HasToStringMethod<aidl::android::hardware::radio::voice::CfData>::value"
    }
   ],
   "linker_set_key" : "_ZTIN7android8internal7details17HasToStringMethodIN4aidl7android8hardware5radio5voice6CfDataEE6$valueE",
   "name" : "android::internal::details::HasToStringMethod<aidl::android::hardware::radio::voice::CfData>::(unnamed enum at frameworks/native/libs/binder/ndk/include_cpp/android/binder_to_string.h:77:5)",
   "referenced_type" : "_ZTIN7android8internal7details17HasToStringMethodIN4aidl7android8hardware5radio5voice6CfDataEE6$valueE",
   "self_type" : "_ZTIN7android8internal7details17HasToStringMethodIN4aidl7android8hardware5radio5voice6CfDataEE6$valueE",
   "size" : 4,
   "source_file" : "frameworks/native/libs/binder/ndk/include_cpp/android/binder_to_string.h",
   "underlying_type" : "_ZTIj"
  },
  {
   "alignment" : 4,
   "enum_fields" :
   [
    {
     "enum_field_value" : 1,
     "name" : "android::internal::details::HasToStringMethod<aidl::android::hardware::radio::voice::UusInfo>::value"
    }
   ],
   "linker_set_key" : "_ZTIN7android8internal7details17HasToStringMethodIN4aidl7android8hardware5radio5voice7UusInfoEE6$valueE",
   "name" : "android::internal::details::HasToStringMethod<aidl::android::hardware::radio::voice::UusInfo>::(unnamed enum at frameworks/native/libs/binder/ndk/include_cpp/android/binder_to_string.h:77:5)",
   "referenced_type" : "_ZTIN7android8internal7details17HasToStringMethodIN4aidl7android8hardware5radio5voice7UusInfoEE6$valueE",
   "self_type" : "_ZTIN7android8internal7details17HasToStringMethodIN4aidl7android8hardware5radio5voice7UusInfoEE6$valueE",
   "size" : 4,
   "source_file" : "frameworks/native/libs/binder/ndk/include_cpp/android/binder_to_string.h",
   "underlying_type" : "_ZTIj"
  },
  {
   "alignment" : 4,
   "enum_fields" :
   [
    {
     "enum_field_value" : 0,
     "name" : "android::internal::details::HasToStringMethod<std::vector<aidl::android::hardware::radio::voice::SsInfoData>>::value"
    }
   ],
   "linker_set_key" : "_ZTIN7android8internal7details17HasToStringMethodINSt3__16vectorIN4aidl7android8hardware5radio5voice10SsInfoDataENS3_9allocatorISA_EEEEE6$valueE",
   "name" : "android::internal::details::HasToStringMethod<std::vector<aidl::android::hardware::radio::voice::SsInfoData, std::allocator<aidl::android::hardware::radio::voice::SsInfoData>>>::(unnamed enum at frameworks/native/libs/binder/ndk/include_cpp/android/binder_to_string.h:77:5)",
   "referenced_type" : "_ZTIN7android8internal7details17HasToStringMethodINSt3__16vectorIN4aidl7android8hardware5radio5voice10SsInfoDataENS3_9allocatorISA_EEEEE6$valueE",
   "self_type" : "_ZTIN7android8internal7details17HasToStringMethodINSt3__16vectorIN4aidl7android8hardware5radio5voice10SsInfoDataENS3_9allocatorISA_EEEEE6$valueE",
   "size" : 4,
   "source_file" : "frameworks/native/libs/binder/ndk/include_cpp/android/binder_to_string.h",
   "underlying_type" : "_ZTIj"
  },
  {
   "alignment" : 4,
   "enum_fields" :
   [
    {
     "enum_field_value" : 0,
     "name" : "android::internal::details::HasToStringMethod<std::vector<aidl::android::hardware::radio::voice::CallForwardInfo>>::value"
    }
   ],
   "linker_set_key" : "_ZTIN7android8internal7details17HasToStringMethodINSt3__16vectorIN4aidl7android8hardware5radio5voice15CallForwardInfoENS3_9allocatorISA_EEEEE6$valueE",
   "name" : "android::internal::details::HasToStringMethod<std::vector<aidl::android::hardware::radio::voice::CallForwardInfo, std::allocator<aidl::android::hardware::radio::voice::CallForwardInfo>>>::(unnamed enum at frameworks/native/libs/binder/ndk/include_cpp/android/binder_to_string.h:77:5)",
   "referenced_type" : "_ZTIN7android8internal7details17HasToStringMethodINSt3__16vectorIN4aidl7android8hardware5radio5voice15CallForwardInfoENS3_9allocatorISA_EEEEE6$valueE",
   "self_type" : "_ZTIN7android8internal7details17HasToStringMethodINSt3__16vectorIN4aidl7android8hardware5radio5voice15CallForwardInfoENS3_9allocatorISA_EEEEE6$valueE",
   "size" : 4,
   "source_file" : "frameworks/native/libs/binder/ndk/include_cpp/android/binder_to_string.h",
   "underlying_type" : "_ZTIj"
  },
  {
   "alignment" : 4,
   "enum_fields" :
   [
    {
     "enum_field_value" : 0,
     "name" : "android::internal::details::HasToStringMethod<std::vector<aidl::android::hardware::radio::voice::CdmaNumberInfoRecord>>::value"
    }
   ],
   "linker_set_key" : "_ZTIN7android8internal7details17HasToStringMethodINSt3__16vectorIN4aidl7android8hardware5radio5voice20CdmaNumberInfoRecordENS3_9allocatorISA_EEEEE6$valueE",
   "name" : "android::internal::details::HasToStringMethod<std::vector<aidl::android::hardware::radio::voice::CdmaNumberInfoRecord, std::allocator<aidl::android::hardware::radio::voice::CdmaNumberInfoRecord>>>::(unnamed enum at frameworks/native/libs/binder/ndk/include_cpp/android/binder_to_string.h:77:5)",
   "referenced_type" : "_ZTIN7android8internal7details17HasToStringMethodINSt3__16vectorIN4aidl7android8hardware5radio5voice20CdmaNumberInfoRecordENS3_9allocatorISA_EEEEE6$valueE",
   "self_type" : "_ZTIN7android8internal7details17HasToStringMethodINSt3__16vectorIN4aidl7android8hardware5radio5voice20CdmaNumberInfoRecordENS3_9allocatorISA_EEEEE6$valueE",
   "size" : 4,
   "source_file" : "frameworks/native/libs/binder/ndk/include_cpp/android/binder_to_string.h",
   "underlying_type" : "_ZTIj"
  },
  {
   "alignment" : 4,
   "enum_fields" :
   [
    {
     "enum_field_value" : 0,
     "name" : "android::internal::details::HasToStringMethod<std::vector<aidl::android::hardware::radio::voice::CdmaSignalInfoRecord>>::value"
    }
   ],
   "linker_set_key" : "_ZTIN7android8internal7details17HasToStringMethodINSt3__16vectorIN4aidl7android8hardware5radio5voice20CdmaSignalInfoRecordENS3_9allocatorISA_EEEEE6$valueE",
   "name" : "android::internal::details::HasToStringMethod<std::vector<aidl::android::hardware::radio::voice::CdmaSignalInfoRecord, std::allocator<aidl::android::hardware::radio::voice::CdmaSignalInfoRecord>>>::(unnamed enum at frameworks/native/libs/binder/ndk/include_cpp/android/binder_to_string.h:77:5)",
   "referenced_type" : "_ZTIN7android8internal7details17HasToStringMethodINSt3__16vectorIN4aidl7android8hardware5radio5voice20CdmaSignalInfoRecordENS3_9allocatorISA_EEEEE6$valueE",
   "self_type" : "_ZTIN7android8internal7details17HasToStringMethodINSt3__16vectorIN4aidl7android8hardware5radio5voice20CdmaSignalInfoRecordENS3_9allocatorISA_EEEEE6$valueE",
   "size" : 4,
   "source_file" : "frameworks/native/libs/binder/ndk/include_cpp/android/binder_to_string.h",
   "underlying_type" : "_ZTIj"
  },
  {
   "alignment" : 4,
   "enum_fields" :
   [
    {
     "enum_field_value" : 0,
     "name" : "android::internal::details::HasToStringMethod<std::vector<aidl::android::hardware::radio::voice::CdmaDisplayInfoRecord>>::value"
    }
   ],
   "linker_set_key" : "_ZTIN7android8internal7details17HasToStringMethodINSt3__16vectorIN4aidl7android8hardware5radio5voice21CdmaDisplayInfoRecordENS3_9allocatorISA_EEEEE6$valueE",
   "name" : "android::internal::details::HasToStringMethod<std::vector<aidl::android::hardware::radio::voice::CdmaDisplayInfoRecord, std::allocator<aidl::android::hardware::radio::voice::CdmaDisplayInfoRecord>>>::(unnamed enum at frameworks/native/libs/binder/ndk/include_cpp/android/binder_to_string.h:77:5)",
   "referenced_type" : "_ZTIN7android8internal7details17HasToStringMethodINSt3__16vectorIN4aidl7android8hardware5radio5voice21CdmaDisplayInfoRecordENS3_9allocatorISA_EEEEE6$valueE",
   "self_type" : "_ZTIN7android8internal7details17HasToStringMethodINSt3__16vectorIN4aidl7android8hardware5radio5voice21CdmaDisplayInfoRecordENS3_9allocatorISA_EEEEE6$valueE",
   "size" : 4,
   "source_file" : "frameworks/native/libs/binder/ndk/include_cpp/android/binder_to_string.h",
   "underlying_type" : "_ZTIj"
  },
  {
   "alignment" : 4,
   "enum_fields" :
   [
    {
     "enum_field_value" : 0,
     "name" : "android::internal::details::HasToStringMethod<std::vector<aidl::android::hardware::radio::voice::CdmaT53ClirInfoRecord>>::value"
    }
   ],
   "linker_set_key" : "_ZTIN7android8internal7details17HasToStringMethodINSt3__16vectorIN4aidl7android8hardware5radio5voice21CdmaT53ClirInfoRecordENS3_9allocatorISA_EEEEE6$valueE",
   "name" : "android::internal::details::HasToStringMethod<std::vector<aidl::android::hardware::radio::voice::CdmaT53ClirInfoRecord, std::allocator<aidl::android::hardware::radio::voice::CdmaT53ClirInfoRecord>>>::(unnamed enum at frameworks/native/libs/binder/ndk/include_cpp/android/binder_to_string.h:77:5)",
   "referenced_type" : "_ZTIN7android8internal7details17HasToStringMethodINSt3__16vectorIN4aidl7android8hardware5radio5voice21CdmaT53ClirInfoRecordENS3_9allocatorISA_EEEEE6$valueE",
   "self_type" : "_ZTIN7android8internal7details17HasToStringMethodINSt3__16vectorIN4aidl7android8hardware5radio5voice21CdmaT53ClirInfoRecordENS3_9allocatorISA_EEEEE6$valueE",
   "size" : 4,
   "source_file" : "frameworks/native/libs/binder/ndk/include_cpp/android/binder_to_string.h",
   "underlying_type" : "_ZTIj"
  },
  {
   "alignment" : 4,
   "enum_fields" :
   [
    {
     "enum_field_value" : 0,
     "name" : "android::internal::details::HasToStringMethod<std::vector<aidl::android::hardware::radio::voice::CdmaLineControlInfoRecord>>::value"
    }
   ],
   "linker_set_key" : "_ZTIN7android8internal7details17HasToStringMethodINSt3__16vectorIN4aidl7android8hardware5radio5voice25CdmaLineControlInfoRecordENS3_9allocatorISA_EEEEE6$valueE",
   "name" : "android::internal::details::HasToStringMethod<std::vector<aidl::android::hardware::radio::voice::CdmaLineControlInfoRecord, std::allocator<aidl::android::hardware::radio::voice::CdmaLineControlInfoRecord>>>::(unnamed enum at frameworks/native/libs/binder/ndk/include_cpp/android/binder_to_string.h:77:5)",
   "referenced_type" : "_ZTIN7android8internal7details17HasToStringMethodINSt3__16vectorIN4aidl7android8hardware5radio5voice25CdmaLineControlInfoRecordENS3_9allocatorISA_EEEEE6$valueE",
   "self_type" : "_ZTIN7android8internal7details17HasToStringMethodINSt3__16vectorIN4aidl7android8hardware5radio5voice25CdmaLineControlInfoRecordENS3_9allocatorISA_EEEEE6$valueE",
   "size" : 4,
   "source_file" : "frameworks/native/libs/binder/ndk/include_cpp/android/binder_to_string.h",
   "underlying_type" : "_ZTIj"
  },
  {
   "alignment" : 4,
   "enum_fields" :
   [
    {
     "enum_field_value" : 0,
     "name" : "android::internal::details::HasToStringMethod<std::vector<aidl::android::hardware::radio::voice::CdmaT53AudioControlInfoRecord>>::value"
    }
   ],
   "linker_set_key" : "_ZTIN7android8internal7details17HasToStringMethodINSt3__16vectorIN4aidl7android8hardware5radio5voice29CdmaT53AudioControlInfoRecordENS3_9allocatorISA_EEEEE6$valueE",
   "name" : "android::internal::details::HasToStringMethod<std::vector<aidl::android::hardware::radio::voice::CdmaT53AudioControlInfoRecord, std::allocator<aidl::android::hardware::radio::voice::CdmaT53AudioControlInfoRecord>>>::(unnamed enum at frameworks/native/libs/binder/ndk/include_cpp/android/binder_to_string.h:77:5)",
   "referenced_type" : "_ZTIN7android8internal7details17HasToStringMethodINSt3__16vectorIN4aidl7android8hardware5radio5voice29CdmaT53AudioControlInfoRecordENS3_9allocatorISA_EEEEE6$valueE",
   "self_type" : "_ZTIN7android8internal7details17HasToStringMethodINSt3__16vectorIN4aidl7android8hardware5radio5voice29CdmaT53AudioControlInfoRecordENS3_9allocatorISA_EEEEE6$valueE",
   "size" : 4,
   "source_file" : "frameworks/native/libs/binder/ndk/include_cpp/android/binder_to_string.h",
   "underlying_type" : "_ZTIj"
  },
  {
   "alignment" : 4,
   "enum_fields" :
   [
    {
     "enum_field_value" : 0,
     "name" : "android::internal::details::HasToStringMethod<std::vector<aidl::android::hardware::radio::voice::CdmaRedirectingNumberInfoRecord>>::value"
    }
   ],
   "linker_set_key" : "_ZTIN7android8internal7details17HasToStringMethodINSt3__16vectorIN4aidl7android8hardware5radio5voice31CdmaRedirectingNumberInfoRecordENS3_9allocatorISA_EEEEE6$valueE",
   "name" : "android::internal::details::HasToStringMethod<std::vector<aidl::android::hardware::radio::voice::CdmaRedirectingNumberInfoRecord, std::allocator<aidl::android::hardware::radio::voice::CdmaRedirectingNumberInfoRecord>>>::(unnamed enum at frameworks/native/libs/binder/ndk/include_cpp/android/binder_to_string.h:77:5)",
   "referenced_type" : "_ZTIN7android8internal7details17HasToStringMethodINSt3__16vectorIN4aidl7android8hardware5radio5voice31CdmaRedirectingNumberInfoRecordENS3_9allocatorISA_EEEEE6$valueE",
   "self_type" : "_ZTIN7android8internal7details17HasToStringMethodINSt3__16vectorIN4aidl7android8hardware5radio5voice31CdmaRedirectingNumberInfoRecordENS3_9allocatorISA_EEEEE6$valueE",
   "size" : 4,
   "source_file" : "frameworks/native/libs/binder/ndk/include_cpp/android/binder_to_string.h",
   "underlying_type" : "_ZTIj"
  },
  {
   "alignment" : 4,
   "enum_fields" :
   [
    {
     "enum_field_value" : 0,
     "name" : "android::internal::details::HasToStringMethod<std::vector<aidl::android::hardware::radio::voice::CfData>>::value"
    }
   ],
   "linker_set_key" : "_ZTIN7android8internal7details17HasToStringMethodINSt3__16vectorIN4aidl7android8hardware5radio5voice6CfDataENS3_9allocatorISA_EEEEE6$valueE",
   "name" : "android::internal::details::HasToStringMethod<std::vector<aidl::android::hardware::radio::voice::CfData, std::allocator<aidl::android::hardware::radio::voice::CfData>>>::(unnamed enum at frameworks/native/libs/binder/ndk/include_cpp/android/binder_to_string.h:77:5)",
   "referenced_type" : "_ZTIN7android8internal7details17HasToStringMethodINSt3__16vectorIN4aidl7android8hardware5radio5voice6CfDataENS3_9allocatorISA_EEEEE6$valueE",
   "self_type" : "_ZTIN7android8internal7details17HasToStringMethodINSt3__16vectorIN4aidl7android8hardware5radio5voice6CfDataENS3_9allocatorISA_EEEEE6$valueE",
   "size" : 4,
   "source_file" : "frameworks/native/libs/binder/ndk/include_cpp/android/binder_to_string.h",
   "underlying_type" : "_ZTIj"
  },
  {
   "alignment" : 4,
   "enum_fields" :
   [
    {
     "enum_field_value" : 0,
     "name" : "android::internal::details::HasToStringMethod<std::vector<aidl::android::hardware::radio::voice::UusInfo>>::value"
    }
   ],
   "linker_set_key" : "_ZTIN7android8internal7details17HasToStringMethodINSt3__16vectorIN4aidl7android8hardware5radio5voice7UusInfoENS3_9allocatorISA_EEEEE6$valueE",
   "name" : "android::internal::details::HasToStringMethod<std::vector<aidl::android::hardware::radio::voice::UusInfo, std::allocator<aidl::android::hardware::radio::voice::UusInfo>>>::(unnamed enum at frameworks/native/libs/binder/ndk/include_cpp/android/binder_to_string.h:77:5)",
   "referenced_type" : "_ZTIN7android8internal7details17HasToStringMethodINSt3__16vectorIN4aidl7android8hardware5radio5voice7UusInfoENS3_9allocatorISA_EEEEE6$valueE",
   "self_type" : "_ZTIN7android8internal7details17HasToStringMethodINSt3__16vectorIN4aidl7android8hardware5radio5voice7UusInfoENS3_9allocatorISA_EEEEE6$valueE",
   "size" : 4,
   "source_file" : "frameworks/native/libs/binder/ndk/include_cpp/android/binder_to_string.h",
   "underlying_type" : "_ZTIj"
  },
  {
   "alignment" : 4,
   "enum_fields" :
   [
    {
     "enum_field_value" : 0,
     "name" : "android::internal::details::HasToStringMethod<std::vector<std::basic_string<char>>>::value"
    }
   ],
   "linker_set_key" : "_ZTIN7android8internal7details17HasToStringMethodINSt3__16vectorINS3_12basic_stringIcNS3_11char_traitsIcEENS3_9allocatorIcEEEENS8_ISA_EEEEE6$valueE",
   "name" : "android::internal::details::HasToStringMethod<std::vector<std::basic_string<char, std::char_traits<char>, std::allocator<char>>, std::allocator<std::basic_string<char, std::char_traits<char>, std::allocator<char>>>>>::(unnamed enum at frameworks/native/libs/binder/ndk/include_cpp/android/binder_to_string.h:77:5)",
   "referenced_type" : "_ZTIN7android8internal7details17HasToStringMethodINSt3__16vectorINS3_12basic_stringIcNS3_11char_traitsIcEENS3_9allocatorIcEEEENS8_ISA_EEEEE6$valueE",
   "self_type" : "_ZTIN7android8internal7details17HasToStringMethodINSt3__16vectorINS3_12basic_stringIcNS3_11char_traitsIcEENS3_9allocatorIcEEEENS8_ISA_EEEEE6$valueE",
   "size" : 4,
   "source_file" : "frameworks/native/libs/binder/ndk/include_cpp/android/binder_to_string.h",
   "underlying_type" : "_ZTIj"
  },
  {
   "alignment" : 4,
   "enum_fields" :
   [
    {
     "enum_field_value" : 0,
     "name" : "android::internal::details::HasToStringMethod<std::vector<int>>::value"
    }
   ],
   "linker_set_key" : "_ZTIN7android8internal7details17HasToStringMethodINSt3__16vectorIiNS3_9allocatorIiEEEEE6$valueE",
   "name" : "android::internal::details::HasToStringMethod<std::vector<int, std::allocator<int>>>::(unnamed enum at frameworks/native/libs/binder/ndk/include_cpp/android/binder_to_string.h:77:5)",
   "referenced_type" : "_ZTIN7android8internal7details17HasToStringMethodINSt3__16vectorIiNS3_9allocatorIiEEEEE6$valueE",
   "self_type" : "_ZTIN7android8internal7details17HasToStringMethodINSt3__16vectorIiNS3_9allocatorIiEEEEE6$valueE",
   "size" : 4,
   "source_file" : "frameworks/native/libs/binder/ndk/include_cpp/android/binder_to_string.h",
   "underlying_type" : "_ZTIj"
  },
  {
   "alignment" : 4,
   "enum_fields" :
   [
    {
     "enum_field_value" : 1,
     "name" : "android::internal::details::HasToStringFunction<aidl::android::hardware::radio::RadioError>::value"
    }
   ],
   "linker_set_key" : "_ZTIN7android8internal7details19HasToStringFunctionIN4aidl7android8hardware5radio10RadioErrorEE6$valueE",
   "name" : "android::internal::details::HasToStringFunction<aidl::android::hardware::radio::RadioError>::(unnamed enum at frameworks/native/libs/binder/ndk/include_cpp/android/binder_to_string.h:89:5)",
   "referenced_type" : "_ZTIN7android8internal7details19HasToStringFunctionIN4aidl7android8hardware5radio10RadioErrorEE6$valueE",
   "self_type" : "_ZTIN7android8internal7details19HasToStringFunctionIN4aidl7android8hardware5radio10RadioErrorEE6$valueE",
   "size" : 4,
   "source_file" : "frameworks/native/libs/binder/ndk/include_cpp/android/binder_to_string.h",
   "underlying_type" : "_ZTIj"
  },
  {
   "alignment" : 4,
   "enum_fields" :
   [
    {
     "enum_field_value" : 1,
     "name" : "android::internal::details::HasToStringFunction<aidl::android::hardware::radio::RadioResponseType>::value"
    }
   ],
   "linker_set_key" : "_ZTIN7android8internal7details19HasToStringFunctionIN4aidl7android8hardware5radio17RadioResponseTypeEE6$valueE",
   "name" : "android::internal::details::HasToStringFunction<aidl::android::hardware::radio::RadioResponseType>::(unnamed enum at frameworks/native/libs/binder/ndk/include_cpp/android/binder_to_string.h:89:5)",
   "referenced_type" : "_ZTIN7android8internal7details19HasToStringFunctionIN4aidl7android8hardware5radio17RadioResponseTypeEE6$valueE",
   "self_type" : "_ZTIN7android8internal7details19HasToStringFunctionIN4aidl7android8hardware5radio17RadioResponseTypeEE6$valueE",
   "size" : 4,
   "source_file" : "frameworks/native/libs/binder/ndk/include_cpp/android/binder_to_string.h",
   "underlying_type" : "_ZTIj"
  },
  {
   "alignment" : 4,
   "enum_fields" :
   [
    {
     "enum_field_value" : 1,
     "name" : "android::internal::details::HasToStringFunction<aidl::android::hardware::radio::voice::AudioQuality>::value"
    }
   ],
   "linker_set_key" : "_ZTIN7android8internal7details19HasToStringFunctionIN4aidl7android8hardware5radio5voice12AudioQualityEE6$valueE",
   "name" : "android::internal::details::HasToStringFunction<aidl::android::hardware::radio::voice::AudioQuality>::(unnamed enum at frameworks/native/libs/binder/ndk/include_cpp/android/binder_to_string.h:89:5)",
   "referenced_type" : "_ZTIN7android8internal7details19HasToStringFunctionIN4aidl7android8hardware5radio5voice12AudioQualityEE6$valueE",
   "self_type" : "_ZTIN7android8internal7details19HasToStringFunctionIN4aidl7android8hardware5radio5voice12AudioQualityEE6$valueE",
   "size" : 4,
   "source_file" : "frameworks/native/libs/binder/ndk/include_cpp/android/binder_to_string.h",
   "underlying_type" : "_ZTIj"
  },
  {
   "alignment" : 4,
   "enum_fields" :
   [
    {
     "enum_field_value" : 1,
     "name" : "android::internal::details::HasToStringFunction<aidl::android::hardware::radio::voice::LastCallFailCause>::value"
    }
   ],
   "linker_set_key" : "_ZTIN7android8internal7details19HasToStringFunctionIN4aidl7android8hardware5radio5voice17LastCallFailCauseEE6$valueE",
   "name" : "android::internal::details::HasToStringFunction<aidl::android::hardware::radio::voice::LastCallFailCause>::(unnamed enum at frameworks/native/libs/binder/ndk/include_cpp/android/binder_to_string.h:89:5)",
   "referenced_type" : "_ZTIN7android8internal7details19HasToStringFunctionIN4aidl7android8hardware5radio5voice17LastCallFailCauseEE6$valueE",
   "self_type" : "_ZTIN7android8internal7details19HasToStringFunctionIN4aidl7android8hardware5radio5voice17LastCallFailCauseEE6$valueE",
   "size" : 4,
   "source_file" : "frameworks/native/libs/binder/ndk/include_cpp/android/binder_to_string.h",
   "underlying_type" : "_ZTIj"
  },
  {
   "alignment" : 4,
   "enum_fields" :
   [
    {
     "enum_field_value" : 0,
     "name" : "android::internal::details::HasToStringFunction<std::vector<aidl::android::hardware::radio::voice::SsInfoData>>::value"
    }
   ],
   "linker_set_key" : "_ZTIN7android8internal7details19HasToStringFunctionINSt3__16vectorIN4aidl7android8hardware5radio5voice10SsInfoDataENS3_9allocatorISA_EEEEE6$valueE",
   "name" : "android::internal::details::HasToStringFunction<std::vector<aidl::android::hardware::radio::voice::SsInfoData, std::allocator<aidl::android::hardware::radio::voice::SsInfoData>>>::(unnamed enum at frameworks/native/libs/binder/ndk/include_cpp/android/binder_to_string.h:89:5)",
   "referenced_type" : "_ZTIN7android8internal7details19HasToStringFunctionINSt3__16vectorIN4aidl7android8hardware5radio5voice10SsInfoDataENS3_9allocatorISA_EEEEE6$valueE",
   "self_type" : "_ZTIN7android8internal7details19HasToStringFunctionINSt3__16vectorIN4aidl7android8hardware5radio5voice10SsInfoDataENS3_9allocatorISA_EEEEE6$valueE",
   "size" : 4,
   "source_file" : "frameworks/native/libs/binder/ndk/include_cpp/android/binder_to_string.h",
   "underlying_type" : "_ZTIj"
  },
  {
   "alignment" : 4,
   "enum_fields" :
   [
    {
     "enum_field_value" : 0,
     "name" : "android::internal::details::HasToStringFunction<std::vector<aidl::android::hardware::radio::voice::CallForwardInfo>>::value"
    }
   ],
   "linker_set_key" : "_ZTIN7android8internal7details19HasToStringFunctionINSt3__16vectorIN4aidl7android8hardware5radio5voice15CallForwardInfoENS3_9allocatorISA_EEEEE6$valueE",
   "name" : "android::internal::details::HasToStringFunction<std::vector<aidl::android::hardware::radio::voice::CallForwardInfo, std::allocator<aidl::android::hardware::radio::voice::CallForwardInfo>>>::(unnamed enum at frameworks/native/libs/binder/ndk/include_cpp/android/binder_to_string.h:89:5)",
   "referenced_type" : "_ZTIN7android8internal7details19HasToStringFunctionINSt3__16vectorIN4aidl7android8hardware5radio5voice15CallForwardInfoENS3_9allocatorISA_EEEEE6$valueE",
   "self_type" : "_ZTIN7android8internal7details19HasToStringFunctionINSt3__16vectorIN4aidl7android8hardware5radio5voice15CallForwardInfoENS3_9allocatorISA_EEEEE6$valueE",
   "size" : 4,
   "source_file" : "frameworks/native/libs/binder/ndk/include_cpp/android/binder_to_string.h",
   "underlying_type" : "_ZTIj"
  },
  {
   "alignment" : 4,
   "enum_fields" :
   [
    {
     "enum_field_value" : 0,
     "name" : "android::internal::details::HasToStringFunction<std::vector<aidl::android::hardware::radio::voice::CdmaNumberInfoRecord>>::value"
    }
   ],
   "linker_set_key" : "_ZTIN7android8internal7details19HasToStringFunctionINSt3__16vectorIN4aidl7android8hardware5radio5voice20CdmaNumberInfoRecordENS3_9allocatorISA_EEEEE6$valueE",
   "name" : "android::internal::details::HasToStringFunction<std::vector<aidl::android::hardware::radio::voice::CdmaNumberInfoRecord, std::allocator<aidl::android::hardware::radio::voice::CdmaNumberInfoRecord>>>::(unnamed enum at frameworks/native/libs/binder/ndk/include_cpp/android/binder_to_string.h:89:5)",
   "referenced_type" : "_ZTIN7android8internal7details19HasToStringFunctionINSt3__16vectorIN4aidl7android8hardware5radio5voice20CdmaNumberInfoRecordENS3_9allocatorISA_EEEEE6$valueE",
   "self_type" : "_ZTIN7android8internal7details19HasToStringFunctionINSt3__16vectorIN4aidl7android8hardware5radio5voice20CdmaNumberInfoRecordENS3_9allocatorISA_EEEEE6$valueE",
   "size" : 4,
   "source_file" : "frameworks/native/libs/binder/ndk/include_cpp/android/binder_to_string.h",
   "underlying_type" : "_ZTIj"
  },
  {
   "alignment" : 4,
   "enum_fields" :
   [
    {
     "enum_field_value" : 0,
     "name" : "android::internal::details::HasToStringFunction<std::vector<aidl::android::hardware::radio::voice::CdmaSignalInfoRecord>>::value"
    }
   ],
   "linker_set_key" : "_ZTIN7android8internal7details19HasToStringFunctionINSt3__16vectorIN4aidl7android8hardware5radio5voice20CdmaSignalInfoRecordENS3_9allocatorISA_EEEEE6$valueE",
   "name" : "android::internal::details::HasToStringFunction<std::vector<aidl::android::hardware::radio::voice::CdmaSignalInfoRecord, std::allocator<aidl::android::hardware::radio::voice::CdmaSignalInfoRecord>>>::(unnamed enum at frameworks/native/libs/binder/ndk/include_cpp/android/binder_to_string.h:89:5)",
   "referenced_type" : "_ZTIN7android8internal7details19HasToStringFunctionINSt3__16vectorIN4aidl7android8hardware5radio5voice20CdmaSignalInfoRecordENS3_9allocatorISA_EEEEE6$valueE",
   "self_type" : "_ZTIN7android8internal7details19HasToStringFunctionINSt3__16vectorIN4aidl7android8hardware5radio5voice20CdmaSignalInfoRecordENS3_9allocatorISA_EEEEE6$valueE",
   "size" : 4,
   "source_file" : "frameworks/native/libs/binder/ndk/include_cpp/android/binder_to_string.h",
   "underlying_type" : "_ZTIj"
  },
  {
   "alignment" : 4,
   "enum_fields" :
   [
    {
     "enum_field_value" : 0,
     "name" : "android::internal::details::HasToStringFunction<std::vector<aidl::android::hardware::radio::voice::CdmaDisplayInfoRecord>>::value"
    }
   ],
   "linker_set_key" : "_ZTIN7android8internal7details19HasToStringFunctionINSt3__16vectorIN4aidl7android8hardware5radio5voice21CdmaDisplayInfoRecordENS3_9allocatorISA_EEEEE6$valueE",
   "name" : "android::internal::details::HasToStringFunction<std::vector<aidl::android::hardware::radio::voice::CdmaDisplayInfoRecord, std::allocator<aidl::android::hardware::radio::voice::CdmaDisplayInfoRecord>>>::(unnamed enum at frameworks/native/libs/binder/ndk/include_cpp/android/binder_to_string.h:89:5)",
   "referenced_type" : "_ZTIN7android8internal7details19HasToStringFunctionINSt3__16vectorIN4aidl7android8hardware5radio5voice21CdmaDisplayInfoRecordENS3_9allocatorISA_EEEEE6$valueE",
   "self_type" : "_ZTIN7android8internal7details19HasToStringFunctionINSt3__16vectorIN4aidl7android8hardware5radio5voice21CdmaDisplayInfoRecordENS3_9allocatorISA_EEEEE6$valueE",
   "size" : 4,
   "source_file" : "frameworks/native/libs/binder/ndk/include_cpp/android/binder_to_string.h",
   "underlying_type" : "_ZTIj"
  },
  {
   "alignment" : 4,
   "enum_fields" :
   [
    {
     "enum_field_value" : 0,
     "name" : "android::internal::details::HasToStringFunction<std::vector<aidl::android::hardware::radio::voice::CdmaT53ClirInfoRecord>>::value"
    }
   ],
   "linker_set_key" : "_ZTIN7android8internal7details19HasToStringFunctionINSt3__16vectorIN4aidl7android8hardware5radio5voice21CdmaT53ClirInfoRecordENS3_9allocatorISA_EEEEE6$valueE",
   "name" : "android::internal::details::HasToStringFunction<std::vector<aidl::android::hardware::radio::voice::CdmaT53ClirInfoRecord, std::allocator<aidl::android::hardware::radio::voice::CdmaT53ClirInfoRecord>>>::(unnamed enum at frameworks/native/libs/binder/ndk/include_cpp/android/binder_to_string.h:89:5)",
   "referenced_type" : "_ZTIN7android8internal7details19HasToStringFunctionINSt3__16vectorIN4aidl7android8hardware5radio5voice21CdmaT53ClirInfoRecordENS3_9allocatorISA_EEEEE6$valueE",
   "self_type" : "_ZTIN7android8internal7details19HasToStringFunctionINSt3__16vectorIN4aidl7android8hardware5radio5voice21CdmaT53ClirInfoRecordENS3_9allocatorISA_EEEEE6$valueE",
   "size" : 4,
   "source_file" : "frameworks/native/libs/binder/ndk/include_cpp/android/binder_to_string.h",
   "underlying_type" : "_ZTIj"
  },
  {
   "alignment" : 4,
   "enum_fields" :
   [
    {
     "enum_field_value" : 0,
     "name" : "android::internal::details::HasToStringFunction<std::vector<aidl::android::hardware::radio::voice::CdmaLineControlInfoRecord>>::value"
    }
   ],
   "linker_set_key" : "_ZTIN7android8internal7details19HasToStringFunctionINSt3__16vectorIN4aidl7android8hardware5radio5voice25CdmaLineControlInfoRecordENS3_9allocatorISA_EEEEE6$valueE",
   "name" : "android::internal::details::HasToStringFunction<std::vector<aidl::android::hardware::radio::voice::CdmaLineControlInfoRecord, std::allocator<aidl::android::hardware::radio::voice::CdmaLineControlInfoRecord>>>::(unnamed enum at frameworks/native/libs/binder/ndk/include_cpp/android/binder_to_string.h:89:5)",
   "referenced_type" : "_ZTIN7android8internal7details19HasToStringFunctionINSt3__16vectorIN4aidl7android8hardware5radio5voice25CdmaLineControlInfoRecordENS3_9allocatorISA_EEEEE6$valueE",
   "self_type" : "_ZTIN7android8internal7details19HasToStringFunctionINSt3__16vectorIN4aidl7android8hardware5radio5voice25CdmaLineControlInfoRecordENS3_9allocatorISA_EEEEE6$valueE",
   "size" : 4,
   "source_file" : "frameworks/native/libs/binder/ndk/include_cpp/android/binder_to_string.h",
   "underlying_type" : "_ZTIj"
  },
  {
   "alignment" : 4,
   "enum_fields" :
   [
    {
     "enum_field_value" : 0,
     "name" : "android::internal::details::HasToStringFunction<std::vector<aidl::android::hardware::radio::voice::CdmaT53AudioControlInfoRecord>>::value"
    }
   ],
   "linker_set_key" : "_ZTIN7android8internal7details19HasToStringFunctionINSt3__16vectorIN4aidl7android8hardware5radio5voice29CdmaT53AudioControlInfoRecordENS3_9allocatorISA_EEEEE6$valueE",
   "name" : "android::internal::details::HasToStringFunction<std::vector<aidl::android::hardware::radio::voice::CdmaT53AudioControlInfoRecord, std::allocator<aidl::android::hardware::radio::voice::CdmaT53AudioControlInfoRecord>>>::(unnamed enum at frameworks/native/libs/binder/ndk/include_cpp/android/binder_to_string.h:89:5)",
   "referenced_type" : "_ZTIN7android8internal7details19HasToStringFunctionINSt3__16vectorIN4aidl7android8hardware5radio5voice29CdmaT53AudioControlInfoRecordENS3_9allocatorISA_EEEEE6$valueE",
   "self_type" : "_ZTIN7android8internal7details19HasToStringFunctionINSt3__16vectorIN4aidl7android8hardware5radio5voice29CdmaT53AudioControlInfoRecordENS3_9allocatorISA_EEEEE6$valueE",
   "size" : 4,
   "source_file" : "frameworks/native/libs/binder/ndk/include_cpp/android/binder_to_string.h",
   "underlying_type" : "_ZTIj"
  },
  {
   "alignment" : 4,
   "enum_fields" :
   [
    {
     "enum_field_value" : 0,
     "name" : "android::internal::details::HasToStringFunction<std::vector<aidl::android::hardware::radio::voice::CdmaRedirectingNumberInfoRecord>>::value"
    }
   ],
   "linker_set_key" : "_ZTIN7android8internal7details19HasToStringFunctionINSt3__16vectorIN4aidl7android8hardware5radio5voice31CdmaRedirectingNumberInfoRecordENS3_9allocatorISA_EEEEE6$valueE",
   "name" : "android::internal::details::HasToStringFunction<std::vector<aidl::android::hardware::radio::voice::CdmaRedirectingNumberInfoRecord, std::allocator<aidl::android::hardware::radio::voice::CdmaRedirectingNumberInfoRecord>>>::(unnamed enum at frameworks/native/libs/binder/ndk/include_cpp/android/binder_to_string.h:89:5)",
   "referenced_type" : "_ZTIN7android8internal7details19HasToStringFunctionINSt3__16vectorIN4aidl7android8hardware5radio5voice31CdmaRedirectingNumberInfoRecordENS3_9allocatorISA_EEEEE6$valueE",
   "self_type" : "_ZTIN7android8internal7details19HasToStringFunctionINSt3__16vectorIN4aidl7android8hardware5radio5voice31CdmaRedirectingNumberInfoRecordENS3_9allocatorISA_EEEEE6$valueE",
   "size" : 4,
   "source_file" : "frameworks/native/libs/binder/ndk/include_cpp/android/binder_to_string.h",
   "underlying_type" : "_ZTIj"
  },
  {
   "alignment" : 4,
   "enum_fields" :
   [
    {
     "enum_field_value" : 0,
     "name" : "android::internal::details::HasToStringFunction<std::vector<aidl::android::hardware::radio::voice::CfData>>::value"
    }
   ],
   "linker_set_key" : "_ZTIN7android8internal7details19HasToStringFunctionINSt3__16vectorIN4aidl7android8hardware5radio5voice6CfDataENS3_9allocatorISA_EEEEE6$valueE",
   "name" : "android::internal::details::HasToStringFunction<std::vector<aidl::android::hardware::radio::voice::CfData, std::allocator<aidl::android::hardware::radio::voice::CfData>>>::(unnamed enum at frameworks/native/libs/binder/ndk/include_cpp/android/binder_to_string.h:89:5)",
   "referenced_type" : "_ZTIN7android8internal7details19HasToStringFunctionINSt3__16vectorIN4aidl7android8hardware5radio5voice6CfDataENS3_9allocatorISA_EEEEE6$valueE",
   "self_type" : "_ZTIN7android8internal7details19HasToStringFunctionINSt3__16vectorIN4aidl7android8hardware5radio5voice6CfDataENS3_9allocatorISA_EEEEE6$valueE",
   "size" : 4,
   "source_file" : "frameworks/native/libs/binder/ndk/include_cpp/android/binder_to_string.h",
   "underlying_type" : "_ZTIj"
  },
  {
   "alignment" : 4,
   "enum_fields" :
   [
    {
     "enum_field_value" : 0,
     "name" : "android::internal::details::HasToStringFunction<std::vector<aidl::android::hardware::radio::voice::UusInfo>>::value"
    }
   ],
   "linker_set_key" : "_ZTIN7android8internal7details19HasToStringFunctionINSt3__16vectorIN4aidl7android8hardware5radio5voice7UusInfoENS3_9allocatorISA_EEEEE6$valueE",
   "name" : "android::internal::details::HasToStringFunction<std::vector<aidl::android::hardware::radio::voice::UusInfo, std::allocator<aidl::android::hardware::radio::voice::UusInfo>>>::(unnamed enum at frameworks/native/libs/binder/ndk/include_cpp/android/binder_to_string.h:89:5)",
   "referenced_type" : "_ZTIN7android8internal7details19HasToStringFunctionINSt3__16vectorIN4aidl7android8hardware5radio5voice7UusInfoENS3_9allocatorISA_EEEEE6$valueE",
   "self_type" : "_ZTIN7android8internal7details19HasToStringFunctionINSt3__16vectorIN4aidl7android8hardware5radio5voice7UusInfoENS3_9allocatorISA_EEEEE6$valueE",
   "size" : 4,
   "source_file" : "frameworks/native/libs/binder/ndk/include_cpp/android/binder_to_string.h",
   "underlying_type" : "_ZTIj"
  },
  {
   "alignment" : 4,
   "enum_fields" :
   [
    {
     "enum_field_value" : 0,
     "name" : "android::internal::details::HasToStringFunction<std::vector<std::basic_string<char>>>::value"
    }
   ],
   "linker_set_key" : "_ZTIN7android8internal7details19HasToStringFunctionINSt3__16vectorINS3_12basic_stringIcNS3_11char_traitsIcEENS3_9allocatorIcEEEENS8_ISA_EEEEE6$valueE",
   "name" : "android::internal::details::HasToStringFunction<std::vector<std::basic_string<char, std::char_traits<char>, std::allocator<char>>, std::allocator<std::basic_string<char, std::char_traits<char>, std::allocator<char>>>>>::(unnamed enum at frameworks/native/libs/binder/ndk/include_cpp/android/binder_to_string.h:89:5)",
   "referenced_type" : "_ZTIN7android8internal7details19HasToStringFunctionINSt3__16vectorINS3_12basic_stringIcNS3_11char_traitsIcEENS3_9allocatorIcEEEENS8_ISA_EEEEE6$valueE",
   "self_type" : "_ZTIN7android8internal7details19HasToStringFunctionINSt3__16vectorINS3_12basic_stringIcNS3_11char_traitsIcEENS3_9allocatorIcEEEENS8_ISA_EEEEE6$valueE",
   "size" : 4,
   "source_file" : "frameworks/native/libs/binder/ndk/include_cpp/android/binder_to_string.h",
   "underlying_type" : "_ZTIj"
  },
  {
   "alignment" : 4,
   "enum_fields" :
   [
    {
     "enum_field_value" : 0,
     "name" : "android::internal::details::HasToStringFunction<std::vector<int>>::value"
    }
   ],
   "linker_set_key" : "_ZTIN7android8internal7details19HasToStringFunctionINSt3__16vectorIiNS3_9allocatorIiEEEEE6$valueE",
   "name" : "android::internal::details::HasToStringFunction<std::vector<int, std::allocator<int>>>::(unnamed enum at frameworks/native/libs/binder/ndk/include_cpp/android/binder_to_string.h:89:5)",
   "referenced_type" : "_ZTIN7android8internal7details19HasToStringFunctionINSt3__16vectorIiNS3_9allocatorIiEEEEE6$valueE",
   "self_type" : "_ZTIN7android8internal7details19HasToStringFunctionINSt3__16vectorIiNS3_9allocatorIiEEEEE6$valueE",
   "size" : 4,
   "source_file" : "frameworks/native/libs/binder/ndk/include_cpp/android/binder_to_string.h",
   "underlying_type" : "_ZTIj"
  }
 ],
 "function_types" :
 [
  {
   "alignment" : 4,
   "linker_set_key" : "_ZTIFiP8AIBinderjPK7AParcelPS1_E",
   "name" : "int (AIBinder *, unsigned int, const AParcel *, AParcel *)",
   "parameters" :
   [
    {
     "referenced_type" : "_ZTIP8AIBinder"
    },
    {
     "referenced_type" : "_ZTIj"
    },
    {
     "referenced_type" : "_ZTIPK7AParcel"
    },
    {
     "referenced_type" : "_ZTIP7AParcel"
    }
   ],
   "referenced_type" : "_ZTIFiP8AIBinderjPK7AParcelPS1_E",
   "return_type" : "_ZTIi",
   "self_type" : "_ZTIFiP8AIBinderjPK7AParcelPS1_E",
   "source_file" : "frameworks/native/libs/binder/ndk/include_cpp/android/binder_interface_utils.h"
  }
 ],
 "functions" :
 [
  {
   "function_name" : "ndk::BnCInterface<aidl::android::hardware::radio::voice::IRadioVoice>::asBinder",
   "linker_set_key" : "_ZN3ndk12BnCInterfaceIN4aidl7android8hardware5radio5voice11IRadioVoiceEE8asBinderEv",
   "parameters" :
   [
    {
     "is_this_ptr" : true,
     "referenced_type" : "_ZTIPN3ndk12BnCInterfaceIN4aidl7android8hardware5radio5voice11IRadioVoiceEEE"
    }
   ],
   "return_type" : "_ZTIN3ndk10SpAIBinderE",
   "source_file" : "frameworks/native/libs/binder/ndk/include_cpp/android/binder_interface_utils.h"
  },
  {
   "function_name" : "ndk::BnCInterface<aidl::android::hardware::radio::voice::IRadioVoiceResponse>::asBinder",
   "linker_set_key" : "_ZN3ndk12BnCInterfaceIN4aidl7android8hardware5radio5voice19IRadioVoiceResponseEE8asBinderEv",
   "parameters" :
   [
    {
     "is_this_ptr" : true,
     "referenced_type" : "_ZTIPN3ndk12BnCInterfaceIN4aidl7android8hardware5radio5voice19IRadioVoiceResponseEEE"
    }
   ],
   "return_type" : "_ZTIN3ndk10SpAIBinderE",
   "source_file" : "frameworks/native/libs/binder/ndk/include_cpp/android/binder_interface_utils.h"
  },
  {
   "function_name" : "ndk::BnCInterface<aidl::android::hardware::radio::voice::IRadioVoiceIndication>::asBinder",
   "linker_set_key" : "_ZN3ndk12BnCInterfaceIN4aidl7android8hardware5radio5voice21IRadioVoiceIndicationEE8asBinderEv",
   "parameters" :
   [
    {
     "is_this_ptr" : true,
     "referenced_type" : "_ZTIPN3ndk12BnCInterfaceIN4aidl7android8hardware5radio5voice21IRadioVoiceIndicationEEE"
    }
   ],
   "return_type" : "_ZTIN3ndk10SpAIBinderE",
   "source_file" : "frameworks/native/libs/binder/ndk/include_cpp/android/binder_interface_utils.h"
  },
  {
   "function_name" : "ndk::BpCInterface<aidl::android::hardware::radio::voice::IRadioVoice>::asBinder",
   "linker_set_key" : "_ZN3ndk12BpCInterfaceIN4aidl7android8hardware5radio5voice11IRadioVoiceEE8asBinderEv",
   "parameters" :
   [
    {
     "is_this_ptr" : true,
     "referenced_type" : "_ZTIPN3ndk12BpCInterfaceIN4aidl7android8hardware5radio5voice11IRadioVoiceEEE"
    }
   ],
   "return_type" : "_ZTIN3ndk10SpAIBinderE",
   "source_file" : "frameworks/native/libs/binder/ndk/include_cpp/android/binder_interface_utils.h"
  },
  {
   "function_name" : "ndk::BpCInterface<aidl::android::hardware::radio::voice::IRadioVoiceResponse>::asBinder",
   "linker_set_key" : "_ZN3ndk12BpCInterfaceIN4aidl7android8hardware5radio5voice19IRadioVoiceResponseEE8asBinderEv",
   "parameters" :
   [
    {
     "is_this_ptr" : true,
     "referenced_type" : "_ZTIPN3ndk12BpCInterfaceIN4aidl7android8hardware5radio5voice19IRadioVoiceResponseEEE"
    }
   ],
   "return_type" : "_ZTIN3ndk10SpAIBinderE",
   "source_file" : "frameworks/native/libs/binder/ndk/include_cpp/android/binder_interface_utils.h"
  },
  {
   "function_name" : "ndk::BpCInterface<aidl::android::hardware::radio::voice::IRadioVoiceIndication>::asBinder",
   "linker_set_key" : "_ZN3ndk12BpCInterfaceIN4aidl7android8hardware5radio5voice21IRadioVoiceIndicationEE8asBinderEv",
   "parameters" :
   [
    {
     "is_this_ptr" : true,
     "referenced_type" : "_ZTIPN3ndk12BpCInterfaceIN4aidl7android8hardware5radio5voice21IRadioVoiceIndicationEEE"
    }
   ],
   "return_type" : "_ZTIN3ndk10SpAIBinderE",
   "source_file" : "frameworks/native/libs/binder/ndk/include_cpp/android/binder_interface_utils.h"
  },
  {
   "function_name" : "ndk::AParcel_readStdVectorParcelableElement",
   "linker_set_key" : "_ZN3ndk38AParcel_readStdVectorParcelableElementIN4aidl7android8hardware5radio5voice10SsInfoDataEEEiPK7AParcelPvj",
   "parameters" :
   [
    {
     "referenced_type" : "_ZTIPK7AParcel"
    },
    {
     "referenced_type" : "_ZTIPv"
    },
    {
     "referenced_type" : "_ZTIj"
    }
   ],
   "return_type" : "_ZTIi",
   "source_file" : "frameworks/native/libs/binder/ndk/include_cpp/android/binder_parcel_utils.h",
   "template_args" :
   [
    "_ZTIN4aidl7android8hardware5radio5voice10SsInfoDataE"
   ]
  },
  {
   "function_name" : "ndk::AParcel_readStdVectorParcelableElement",
   "linker_set_key" : "_ZN3ndk38AParcel_readStdVectorParcelableElementIN4aidl7android8hardware5radio5voice15CallForwardInfoEEEiPK7AParcelPvj",
   "parameters" :
   [
    {
     "referenced_type" : "_ZTIPK7AParcel"
    },
    {
     "referenced_type" : "_ZTIPv"
    },
    {
     "referenced_type" : "_ZTIj"
    }
   ],
   "return_type" : "_ZTIi",
   "source_file" : "frameworks/native/libs/binder/ndk/include_cpp/android/binder_parcel_utils.h",
   "template_args" :
   [
    "_ZTIN4aidl7android8hardware5radio5voice15CallForwardInfoE"
   ]
  },
  {
   "function_name" : "ndk::AParcel_readStdVectorParcelableElement",
   "linker_set_key" : "_ZN3ndk38AParcel_readStdVectorParcelableElementIN4aidl7android8hardware5radio5voice15EmergencyNumberEEEiPK7AParcelPvj",
   "parameters" :
   [
    {
     "referenced_type" : "_ZTIPK7AParcel"
    },
    {
     "referenced_type" : "_ZTIPv"
    },
    {
     "referenced_type" : "_ZTIj"
    }
   ],
   "return_type" : "_ZTIi",
   "source_file" : "frameworks/native/libs/binder/ndk/include_cpp/android/binder_parcel_utils.h",
   "template_args" :
   [
    "_ZTIN4aidl7android8hardware5radio5voice15EmergencyNumberE"
   ]
  },
  {
   "function_name" : "ndk::AParcel_readStdVectorParcelableElement",
   "linker_set_key" : "_ZN3ndk38AParcel_readStdVectorParcelableElementIN4aidl7android8hardware5radio5voice20CdmaNumberInfoRecordEEEiPK7AParcelPvj",
   "parameters" :
   [
    {
     "referenced_type" : "_ZTIPK7AParcel"
    },
    {
     "referenced_type" : "_ZTIPv"
    },
    {
     "referenced_type" : "_ZTIj"
    }
   ],
   "return_type" : "_ZTIi",
   "source_file" : "frameworks/native/libs/binder/ndk/include_cpp/android/binder_parcel_utils.h",
   "template_args" :
   [
    "_ZTIN4aidl7android8hardware5radio5voice20CdmaNumberInfoRecordE"
   ]
  },
  {
   "function_name" : "ndk::AParcel_readStdVectorParcelableElement",
   "linker_set_key" : "_ZN3ndk38AParcel_readStdVectorParcelableElementIN4aidl7android8hardware5radio5voice20CdmaSignalInfoRecordEEEiPK7AParcelPvj",
   "parameters" :
   [
    {
     "referenced_type" : "_ZTIPK7AParcel"
    },
    {
     "referenced_type" : "_ZTIPv"
    },
    {
     "referenced_type" : "_ZTIj"
    }
   ],
   "return_type" : "_ZTIi",
   "source_file" : "frameworks/native/libs/binder/ndk/include_cpp/android/binder_parcel_utils.h",
   "template_args" :
   [
    "_ZTIN4aidl7android8hardware5radio5voice20CdmaSignalInfoRecordE"
   ]
  },
  {
   "function_name" : "ndk::AParcel_readStdVectorParcelableElement",
   "linker_set_key" : "_ZN3ndk38AParcel_readStdVectorParcelableElementIN4aidl7android8hardware5radio5voice21CdmaDisplayInfoRecordEEEiPK7AParcelPvj",
   "parameters" :
   [
    {
     "referenced_type" : "_ZTIPK7AParcel"
    },
    {
     "referenced_type" : "_ZTIPv"
    },
    {
     "referenced_type" : "_ZTIj"
    }
   ],
   "return_type" : "_ZTIi",
   "source_file" : "frameworks/native/libs/binder/ndk/include_cpp/android/binder_parcel_utils.h",
   "template_args" :
   [
    "_ZTIN4aidl7android8hardware5radio5voice21CdmaDisplayInfoRecordE"
   ]
  },
  {
   "function_name" : "ndk::AParcel_readStdVectorParcelableElement",
   "linker_set_key" : "_ZN3ndk38AParcel_readStdVectorParcelableElementIN4aidl7android8hardware5radio5voice21CdmaInformationRecordEEEiPK7AParcelPvj",
   "parameters" :
   [
    {
     "referenced_type" : "_ZTIPK7AParcel"
    },
    {
     "referenced_type" : "_ZTIPv"
    },
    {
     "referenced_type" : "_ZTIj"
    }
   ],
   "return_type" : "_ZTIi",
   "source_file" : "frameworks/native/libs/binder/ndk/include_cpp/android/binder_parcel_utils.h",
   "template_args" :
   [
    "_ZTIN4aidl7android8hardware5radio5voice21CdmaInformationRecordE"
   ]
  },
  {
   "function_name" : "ndk::AParcel_readStdVectorParcelableElement",
   "linker_set_key" : "_ZN3ndk38AParcel_readStdVectorParcelableElementIN4aidl7android8hardware5radio5voice21CdmaT53ClirInfoRecordEEEiPK7AParcelPvj",
   "parameters" :
   [
    {
     "referenced_type" : "_ZTIPK7AParcel"
    },
    {
     "referenced_type" : "_ZTIPv"
    },
    {
     "referenced_type" : "_ZTIj"
    }
   ],
   "return_type" : "_ZTIi",
   "source_file" : "frameworks/native/libs/binder/ndk/include_cpp/android/binder_parcel_utils.h",
   "template_args" :
   [
    "_ZTIN4aidl7android8hardware5radio5voice21CdmaT53ClirInfoRecordE"
   ]
  },
  {
   "function_name" : "ndk::AParcel_readStdVectorParcelableElement",
   "linker_set_key" : "_ZN3ndk38AParcel_readStdVectorParcelableElementIN4aidl7android8hardware5radio5voice25CdmaLineControlInfoRecordEEEiPK7AParcelPvj",
   "parameters" :
   [
    {
     "referenced_type" : "_ZTIPK7AParcel"
    },
    {
     "referenced_type" : "_ZTIPv"
    },
    {
     "referenced_type" : "_ZTIj"
    }
   ],
   "return_type" : "_ZTIi",
   "source_file" : "frameworks/native/libs/binder/ndk/include_cpp/android/binder_parcel_utils.h",
   "template_args" :
   [
    "_ZTIN4aidl7android8hardware5radio5voice25CdmaLineControlInfoRecordE"
   ]
  },
  {
   "function_name" : "ndk::AParcel_readStdVectorParcelableElement",
   "linker_set_key" : "_ZN3ndk38AParcel_readStdVectorParcelableElementIN4aidl7android8hardware5radio5voice29CdmaT53AudioControlInfoRecordEEEiPK7AParcelPvj",
   "parameters" :
   [
    {
     "referenced_type" : "_ZTIPK7AParcel"
    },
    {
     "referenced_type" : "_ZTIPv"
    },
    {
     "referenced_type" : "_ZTIj"
    }
   ],
   "return_type" : "_ZTIi",
   "source_file" : "frameworks/native/libs/binder/ndk/include_cpp/android/binder_parcel_utils.h",
   "template_args" :
   [
    "_ZTIN4aidl7android8hardware5radio5voice29CdmaT53AudioControlInfoRecordE"
   ]
  },
  {
   "function_name" : "ndk::AParcel_readStdVectorParcelableElement",
   "linker_set_key" : "_ZN3ndk38AParcel_readStdVectorParcelableElementIN4aidl7android8hardware5radio5voice31CdmaRedirectingNumberInfoRecordEEEiPK7AParcelPvj",
   "parameters" :
   [
    {
     "referenced_type" : "_ZTIPK7AParcel"
    },
    {
     "referenced_type" : "_ZTIPv"
    },
    {
     "referenced_type" : "_ZTIj"
    }
   ],
   "return_type" : "_ZTIi",
   "source_file" : "frameworks/native/libs/binder/ndk/include_cpp/android/binder_parcel_utils.h",
   "template_args" :
   [
    "_ZTIN4aidl7android8hardware5radio5voice31CdmaRedirectingNumberInfoRecordE"
   ]
  },
  {
   "function_name" : "ndk::AParcel_readStdVectorParcelableElement",
   "linker_set_key" : "_ZN3ndk38AParcel_readStdVectorParcelableElementIN4aidl7android8hardware5radio5voice4CallEEEiPK7AParcelPvj",
   "parameters" :
   [
    {
     "referenced_type" : "_ZTIPK7AParcel"
    },
    {
     "referenced_type" : "_ZTIPv"
    },
    {
     "referenced_type" : "_ZTIj"
    }
   ],
   "return_type" : "_ZTIi",
   "source_file" : "frameworks/native/libs/binder/ndk/include_cpp/android/binder_parcel_utils.h",
   "template_args" :
   [
    "_ZTIN4aidl7android8hardware5radio5voice4CallE"
   ]
  },
  {
   "function_name" : "ndk::AParcel_readStdVectorParcelableElement",
   "linker_set_key" : "_ZN3ndk38AParcel_readStdVectorParcelableElementIN4aidl7android8hardware5radio5voice6CfDataEEEiPK7AParcelPvj",
   "parameters" :
   [
    {
     "referenced_type" : "_ZTIPK7AParcel"
    },
    {
     "referenced_type" : "_ZTIPv"
    },
    {
     "referenced_type" : "_ZTIj"
    }
   ],
   "return_type" : "_ZTIi",
   "source_file" : "frameworks/native/libs/binder/ndk/include_cpp/android/binder_parcel_utils.h",
   "template_args" :
   [
    "_ZTIN4aidl7android8hardware5radio5voice6CfDataE"
   ]
  },
  {
   "function_name" : "ndk::AParcel_readStdVectorParcelableElement",
   "linker_set_key" : "_ZN3ndk38AParcel_readStdVectorParcelableElementIN4aidl7android8hardware5radio5voice7UusInfoEEEiPK7AParcelPvj",
   "parameters" :
   [
    {
     "referenced_type" : "_ZTIPK7AParcel"
    },
    {
     "referenced_type" : "_ZTIPv"
    },
    {
     "referenced_type" : "_ZTIj"
    }
   ],
   "return_type" : "_ZTIi",
   "source_file" : "frameworks/native/libs/binder/ndk/include_cpp/android/binder_parcel_utils.h",
   "template_args" :
   [
    "_ZTIN4aidl7android8hardware5radio5voice7UusInfoE"
   ]
  },
  {
   "function_name" : "ndk::AParcel_writeStdVectorParcelableElement",
   "linker_set_key" : "_ZN3ndk39AParcel_writeStdVectorParcelableElementIN4aidl7android8hardware5radio5voice10SsInfoDataEEEiP7AParcelPKvj",
   "parameters" :
   [
    {
     "referenced_type" : "_ZTIP7AParcel"
    },
    {
     "referenced_type" : "_ZTIPKv"
    },
    {
     "referenced_type" : "_ZTIj"
    }
   ],
   "return_type" : "_ZTIi",
   "source_file" : "frameworks/native/libs/binder/ndk/include_cpp/android/binder_parcel_utils.h",
   "template_args" :
   [
    "_ZTIN4aidl7android8hardware5radio5voice10SsInfoDataE"
   ]
  },
  {
   "function_name" : "ndk::AParcel_writeStdVectorParcelableElement",
   "linker_set_key" : "_ZN3ndk39AParcel_writeStdVectorParcelableElementIN4aidl7android8hardware5radio5voice15CallForwardInfoEEEiP7AParcelPKvj",
   "parameters" :
   [
    {
     "referenced_type" : "_ZTIP7AParcel"
    },
    {
     "referenced_type" : "_ZTIPKv"
    },
    {
     "referenced_type" : "_ZTIj"
    }
   ],
   "return_type" : "_ZTIi",
   "source_file" : "frameworks/native/libs/binder/ndk/include_cpp/android/binder_parcel_utils.h",
   "template_args" :
   [
    "_ZTIN4aidl7android8hardware5radio5voice15CallForwardInfoE"
   ]
  },
  {
   "function_name" : "ndk::AParcel_writeStdVectorParcelableElement",
   "linker_set_key" : "_ZN3ndk39AParcel_writeStdVectorParcelableElementIN4aidl7android8hardware5radio5voice15EmergencyNumberEEEiP7AParcelPKvj",
   "parameters" :
   [
    {
     "referenced_type" : "_ZTIP7AParcel"
    },
    {
     "referenced_type" : "_ZTIPKv"
    },
    {
     "referenced_type" : "_ZTIj"
    }
   ],
   "return_type" : "_ZTIi",
   "source_file" : "frameworks/native/libs/binder/ndk/include_cpp/android/binder_parcel_utils.h",
   "template_args" :
   [
    "_ZTIN4aidl7android8hardware5radio5voice15EmergencyNumberE"
   ]
  },
  {
   "function_name" : "ndk::AParcel_writeStdVectorParcelableElement",
   "linker_set_key" : "_ZN3ndk39AParcel_writeStdVectorParcelableElementIN4aidl7android8hardware5radio5voice20CdmaNumberInfoRecordEEEiP7AParcelPKvj",
   "parameters" :
   [
    {
     "referenced_type" : "_ZTIP7AParcel"
    },
    {
     "referenced_type" : "_ZTIPKv"
    },
    {
     "referenced_type" : "_ZTIj"
    }
   ],
   "return_type" : "_ZTIi",
   "source_file" : "frameworks/native/libs/binder/ndk/include_cpp/android/binder_parcel_utils.h",
   "template_args" :
   [
    "_ZTIN4aidl7android8hardware5radio5voice20CdmaNumberInfoRecordE"
   ]
  },
  {
   "function_name" : "ndk::AParcel_writeStdVectorParcelableElement",
   "linker_set_key" : "_ZN3ndk39AParcel_writeStdVectorParcelableElementIN4aidl7android8hardware5radio5voice20CdmaSignalInfoRecordEEEiP7AParcelPKvj",
   "parameters" :
   [
    {
     "referenced_type" : "_ZTIP7AParcel"
    },
    {
     "referenced_type" : "_ZTIPKv"
    },
    {
     "referenced_type" : "_ZTIj"
    }
   ],
   "return_type" : "_ZTIi",
   "source_file" : "frameworks/native/libs/binder/ndk/include_cpp/android/binder_parcel_utils.h",
   "template_args" :
   [
    "_ZTIN4aidl7android8hardware5radio5voice20CdmaSignalInfoRecordE"
   ]
  },
  {
   "function_name" : "ndk::AParcel_writeStdVectorParcelableElement",
   "linker_set_key" : "_ZN3ndk39AParcel_writeStdVectorParcelableElementIN4aidl7android8hardware5radio5voice21CdmaDisplayInfoRecordEEEiP7AParcelPKvj",
   "parameters" :
   [
    {
     "referenced_type" : "_ZTIP7AParcel"
    },
    {
     "referenced_type" : "_ZTIPKv"
    },
    {
     "referenced_type" : "_ZTIj"
    }
   ],
   "return_type" : "_ZTIi",
   "source_file" : "frameworks/native/libs/binder/ndk/include_cpp/android/binder_parcel_utils.h",
   "template_args" :
   [
    "_ZTIN4aidl7android8hardware5radio5voice21CdmaDisplayInfoRecordE"
   ]
  },
  {
   "function_name" : "ndk::AParcel_writeStdVectorParcelableElement",
   "linker_set_key" : "_ZN3ndk39AParcel_writeStdVectorParcelableElementIN4aidl7android8hardware5radio5voice21CdmaInformationRecordEEEiP7AParcelPKvj",
   "parameters" :
   [
    {
     "referenced_type" : "_ZTIP7AParcel"
    },
    {
     "referenced_type" : "_ZTIPKv"
    },
    {
     "referenced_type" : "_ZTIj"
    }
   ],
   "return_type" : "_ZTIi",
   "source_file" : "frameworks/native/libs/binder/ndk/include_cpp/android/binder_parcel_utils.h",
   "template_args" :
   [
    "_ZTIN4aidl7android8hardware5radio5voice21CdmaInformationRecordE"
   ]
  },
  {
   "function_name" : "ndk::AParcel_writeStdVectorParcelableElement",
   "linker_set_key" : "_ZN3ndk39AParcel_writeStdVectorParcelableElementIN4aidl7android8hardware5radio5voice21CdmaT53ClirInfoRecordEEEiP7AParcelPKvj",
   "parameters" :
   [
    {
     "referenced_type" : "_ZTIP7AParcel"
    },
    {
     "referenced_type" : "_ZTIPKv"
    },
    {
     "referenced_type" : "_ZTIj"
    }
   ],
   "return_type" : "_ZTIi",
   "source_file" : "frameworks/native/libs/binder/ndk/include_cpp/android/binder_parcel_utils.h",
   "template_args" :
   [
    "_ZTIN4aidl7android8hardware5radio5voice21CdmaT53ClirInfoRecordE"
   ]
  },
  {
   "function_name" : "ndk::AParcel_writeStdVectorParcelableElement",
   "linker_set_key" : "_ZN3ndk39AParcel_writeStdVectorParcelableElementIN4aidl7android8hardware5radio5voice25CdmaLineControlInfoRecordEEEiP7AParcelPKvj",
   "parameters" :
   [
    {
     "referenced_type" : "_ZTIP7AParcel"
    },
    {
     "referenced_type" : "_ZTIPKv"
    },
    {
     "referenced_type" : "_ZTIj"
    }
   ],
   "return_type" : "_ZTIi",
   "source_file" : "frameworks/native/libs/binder/ndk/include_cpp/android/binder_parcel_utils.h",
   "template_args" :
   [
    "_ZTIN4aidl7android8hardware5radio5voice25CdmaLineControlInfoRecordE"
   ]
  },
  {
   "function_name" : "ndk::AParcel_writeStdVectorParcelableElement",
   "linker_set_key" : "_ZN3ndk39AParcel_writeStdVectorParcelableElementIN4aidl7android8hardware5radio5voice29CdmaT53AudioControlInfoRecordEEEiP7AParcelPKvj",
   "parameters" :
   [
    {
     "referenced_type" : "_ZTIP7AParcel"
    },
    {
     "referenced_type" : "_ZTIPKv"
    },
    {
     "referenced_type" : "_ZTIj"
    }
   ],
   "return_type" : "_ZTIi",
   "source_file" : "frameworks/native/libs/binder/ndk/include_cpp/android/binder_parcel_utils.h",
   "template_args" :
   [
    "_ZTIN4aidl7android8hardware5radio5voice29CdmaT53AudioControlInfoRecordE"
   ]
  },
  {
   "function_name" : "ndk::AParcel_writeStdVectorParcelableElement",
   "linker_set_key" : "_ZN3ndk39AParcel_writeStdVectorParcelableElementIN4aidl7android8hardware5radio5voice31CdmaRedirectingNumberInfoRecordEEEiP7AParcelPKvj",
   "parameters" :
   [
    {
     "referenced_type" : "_ZTIP7AParcel"
    },
    {
     "referenced_type" : "_ZTIPKv"
    },
    {
     "referenced_type" : "_ZTIj"
    }
   ],
   "return_type" : "_ZTIi",
   "source_file" : "frameworks/native/libs/binder/ndk/include_cpp/android/binder_parcel_utils.h",
   "template_args" :
   [
    "_ZTIN4aidl7android8hardware5radio5voice31CdmaRedirectingNumberInfoRecordE"
   ]
  },
  {
   "function_name" : "ndk::AParcel_writeStdVectorParcelableElement",
   "linker_set_key" : "_ZN3ndk39AParcel_writeStdVectorParcelableElementIN4aidl7android8hardware5radio5voice4CallEEEiP7AParcelPKvj",
   "parameters" :
   [
    {
     "referenced_type" : "_ZTIP7AParcel"
    },
    {
     "referenced_type" : "_ZTIPKv"
    },
    {
     "referenced_type" : "_ZTIj"
    }
   ],
   "return_type" : "_ZTIi",
   "source_file" : "frameworks/native/libs/binder/ndk/include_cpp/android/binder_parcel_utils.h",
   "template_args" :
   [
    "_ZTIN4aidl7android8hardware5radio5voice4CallE"
   ]
  },
  {
   "function_name" : "ndk::AParcel_writeStdVectorParcelableElement",
   "linker_set_key" : "_ZN3ndk39AParcel_writeStdVectorParcelableElementIN4aidl7android8hardware5radio5voice6CfDataEEEiP7AParcelPKvj",
   "parameters" :
   [
    {
     "referenced_type" : "_ZTIP7AParcel"
    },
    {
     "referenced_type" : "_ZTIPKv"
    },
    {
     "referenced_type" : "_ZTIj"
    }
   ],
   "return_type" : "_ZTIi",
   "source_file" : "frameworks/native/libs/binder/ndk/include_cpp/android/binder_parcel_utils.h",
   "template_args" :
   [
    "_ZTIN4aidl7android8hardware5radio5voice6CfDataE"
   ]
  },
  {
   "function_name" : "ndk::AParcel_writeStdVectorParcelableElement",
   "linker_set_key" : "_ZN3ndk39AParcel_writeStdVectorParcelableElementIN4aidl7android8hardware5radio5voice7UusInfoEEEiP7AParcelPKvj",
   "parameters" :
   [
    {
     "referenced_type" : "_ZTIP7AParcel"
    },
    {
     "referenced_type" : "_ZTIPKv"
    },
    {
     "referenced_type" : "_ZTIj"
    }
   ],
   "return_type" : "_ZTIi",
   "source_file" : "frameworks/native/libs/binder/ndk/include_cpp/android/binder_parcel_utils.h",
   "template_args" :
   [
    "_ZTIN4aidl7android8hardware5radio5voice7UusInfoE"
   ]
  },
  {
   "function_name" : "aidl::android::hardware::radio::voice::SsInfoData::readFromParcel",
   "linker_set_key" : "_ZN4aidl7android8hardware5radio5voice10SsInfoData14readFromParcelEPK7AParcel",
   "parameters" :
   [
    {
     "is_this_ptr" : true,
     "referenced_type" : "_ZTIPN4aidl7android8hardware5radio5voice10SsInfoDataE"
    },
    {
     "referenced_type" : "_ZTIPK7AParcel"
    }
   ],
   "return_type" : "_ZTIi",
   "source_file" : "out/soong/.intermediates/hardware/interfaces/radio/aidl/android.hardware.radio.voice-V1-ndk-source/gen/include/aidl/android/hardware/radio/voice/SsInfoData.h"
  },
  {
   "function_name" : "aidl::android::hardware::radio::voice::IRadioVoice::fromBinder",
   "linker_set_key" : "_ZN4aidl7android8hardware5radio5voice11IRadioVoice10fromBinderERKN3ndk10SpAIBinderE",
   "parameters" :
   [
    {
     "referenced_type" : "_ZTIRKN3ndk10SpAIBinderE"
    }
   ],
   "return_type" : "_ZTINSt3__110shared_ptrIN4aidl7android8hardware5radio5voice11IRadioVoiceEEE",
   "source_file" : "out/soong/.intermediates/hardware/interfaces/radio/aidl/android.hardware.radio.voice-V1-ndk-source/gen/include/aidl/android/hardware/radio/voice/IRadioVoice.h"
  },
  {
   "function_name" : "aidl::android::hardware::radio::voice::IRadioVoice::writeToParcel",
   "linker_set_key" : "_ZN4aidl7android8hardware5radio5voice11IRadioVoice13writeToParcelEP7AParcelRKNSt3__110shared_ptrIS4_EE",
   "parameters" :
   [
    {
     "referenced_type" : "_ZTIP7AParcel"
    },
    {
     "referenced_type" : "_ZTIRKNSt3__110shared_ptrIN4aidl7android8hardware5radio5voice11IRadioVoiceEEE"
    }
   ],
   "return_type" : "_ZTIi",
   "source_file" : "out/soong/.intermediates/hardware/interfaces/radio/aidl/android.hardware.radio.voice-V1-ndk-source/gen/include/aidl/android/hardware/radio/voice/IRadioVoice.h"
  },
  {
   "function_name" : "aidl::android::hardware::radio::voice::IRadioVoice::getDefaultImpl",
   "linker_set_key" : "_ZN4aidl7android8hardware5radio5voice11IRadioVoice14getDefaultImplEv",
   "return_type" : "_ZTIRKNSt3__110shared_ptrIN4aidl7android8hardware5radio5voice11IRadioVoiceEEE",
   "source_file" : "out/soong/.intermediates/hardware/interfaces/radio/aidl/android.hardware.radio.voice-V1-ndk-source/gen/include/aidl/android/hardware/radio/voice/IRadioVoice.h"
  },
  {
   "function_name" : "aidl::android::hardware::radio::voice::IRadioVoice::readFromParcel",
   "linker_set_key" : "_ZN4aidl7android8hardware5radio5voice11IRadioVoice14readFromParcelEPK7AParcelPNSt3__110shared_ptrIS4_EE",
   "parameters" :
   [
    {
     "referenced_type" : "_ZTIPK7AParcel"
    },
    {
     "referenced_type" : "_ZTIPNSt3__110shared_ptrIN4aidl7android8hardware5radio5voice11IRadioVoiceEEE"
    }
   ],
   "return_type" : "_ZTIi",
   "source_file" : "out/soong/.intermediates/hardware/interfaces/radio/aidl/android.hardware.radio.voice-V1-ndk-source/gen/include/aidl/android/hardware/radio/voice/IRadioVoice.h"
  },
  {
   "function_name" : "aidl::android::hardware::radio::voice::IRadioVoice::setDefaultImpl",
   "linker_set_key" : "_ZN4aidl7android8hardware5radio5voice11IRadioVoice14setDefaultImplERKNSt3__110shared_ptrIS4_EE",
   "parameters" :
   [
    {
     "referenced_type" : "_ZTIRKNSt3__110shared_ptrIN4aidl7android8hardware5radio5voice11IRadioVoiceEEE"
    }
   ],
   "return_type" : "_ZTIb",
   "source_file" : "out/soong/.intermediates/hardware/interfaces/radio/aidl/android.hardware.radio.voice-V1-ndk-source/gen/include/aidl/android/hardware/radio/voice/IRadioVoice.h"
  },
  {
   "function_name" : "aidl::android::hardware::radio::voice::IRadioVoice::IRadioVoice",
   "linker_set_key" : "_ZN4aidl7android8hardware5radio5voice11IRadioVoiceC2Ev",
   "parameters" :
   [
    {
     "is_this_ptr" : true,
     "referenced_type" : "_ZTIPN4aidl7android8hardware5radio5voice11IRadioVoiceE"
    }
   ],
   "return_type" : "_ZTIv",
   "source_file" : "out/soong/.intermediates/hardware/interfaces/radio/aidl/android.hardware.radio.voice-V1-ndk-source/gen/include/aidl/android/hardware/radio/voice/IRadioVoice.h"
  },
  {
   "function_name" : "aidl::android::hardware::radio::voice::IRadioVoice::~IRadioVoice",
   "linker_set_key" : "_ZN4aidl7android8hardware5radio5voice11IRadioVoiceD0Ev",
   "parameters" :
   [
    {
     "is_this_ptr" : true,
     "referenced_type" : "_ZTIPN4aidl7android8hardware5radio5voice11IRadioVoiceE"
    }
   ],
   "return_type" : "_ZTIv",
   "source_file" : "out/soong/.intermediates/hardware/interfaces/radio/aidl/android.hardware.radio.voice-V1-ndk-source/gen/include/aidl/android/hardware/radio/voice/IRadioVoice.h"
  },
  {
   "function_name" : "aidl::android::hardware::radio::voice::IRadioVoice::~IRadioVoice",
   "linker_set_key" : "_ZN4aidl7android8hardware5radio5voice11IRadioVoiceD1Ev",
   "parameters" :
   [
    {
     "is_this_ptr" : true,
     "referenced_type" : "_ZTIPN4aidl7android8hardware5radio5voice11IRadioVoiceE"
    }
   ],
   "return_type" : "_ZTIv",
   "source_file" : "out/soong/.intermediates/hardware/interfaces/radio/aidl/android.hardware.radio.voice-V1-ndk-source/gen/include/aidl/android/hardware/radio/voice/IRadioVoice.h"
  },
  {
   "function_name" : "aidl::android::hardware::radio::voice::IRadioVoice::~IRadioVoice",
   "linker_set_key" : "_ZN4aidl7android8hardware5radio5voice11IRadioVoiceD2Ev",
   "parameters" :
   [
    {
     "is_this_ptr" : true,
     "referenced_type" : "_ZTIPN4aidl7android8hardware5radio5voice11IRadioVoiceE"
    }
   ],
   "return_type" : "_ZTIv",
   "source_file" : "out/soong/.intermediates/hardware/interfaces/radio/aidl/android.hardware.radio.voice-V1-ndk-source/gen/include/aidl/android/hardware/radio/voice/IRadioVoice.h"
  },
  {
   "access" : "protected",
   "function_name" : "aidl::android::hardware::radio::voice::BnRadioVoice::createBinder",
   "linker_set_key" : "_ZN4aidl7android8hardware5radio5voice12BnRadioVoice12createBinderEv",
   "parameters" :
   [
    {
     "is_this_ptr" : true,
     "referenced_type" : "_ZTIPN4aidl7android8hardware5radio5voice12BnRadioVoiceE"
    }
   ],
   "return_type" : "_ZTIN3ndk10SpAIBinderE",
   "source_file" : "out/soong/.intermediates/hardware/interfaces/radio/aidl/android.hardware.radio.voice-V1-ndk-source/gen/include/aidl/android/hardware/radio/voice/BnRadioVoice.h"
  },
  {
   "function_name" : "aidl::android::hardware::radio::voice::BnRadioVoice::getInterfaceHash",
   "linker_set_key" : "_ZN4aidl7android8hardware5radio5voice12BnRadioVoice16getInterfaceHashEPNSt3__112basic_stringIcNS5_11char_traitsIcEENS5_9allocatorIcEEEE",
   "parameters" :
   [
    {
     "is_this_ptr" : true,
     "referenced_type" : "_ZTIPN4aidl7android8hardware5radio5voice12BnRadioVoiceE"
    },
    {
     "referenced_type" : "_ZTIPNSt3__112basic_stringIcNS_11char_traitsIcEENS_9allocatorIcEEEE"
    }
   ],
   "return_type" : "_ZTIN3ndk13ScopedAStatusE",
   "source_file" : "out/soong/.intermediates/hardware/interfaces/radio/aidl/android.hardware.radio.voice-V1-ndk-source/gen/include/aidl/android/hardware/radio/voice/BnRadioVoice.h"
  },
  {
   "function_name" : "aidl::android::hardware::radio::voice::BnRadioVoice::getInterfaceVersion",
   "linker_set_key" : "_ZN4aidl7android8hardware5radio5voice12BnRadioVoice19getInterfaceVersionEPi",
   "parameters" :
   [
    {
     "is_this_ptr" : true,
     "referenced_type" : "_ZTIPN4aidl7android8hardware5radio5voice12BnRadioVoiceE"
    },
    {
     "referenced_type" : "_ZTIPi"
    }
   ],
   "return_type" : "_ZTIN3ndk13ScopedAStatusE",
   "source_file" : "out/soong/.intermediates/hardware/interfaces/radio/aidl/android.hardware.radio.voice-V1-ndk-source/gen/include/aidl/android/hardware/radio/voice/BnRadioVoice.h"
  },
  {
   "function_name" : "aidl::android::hardware::radio::voice::BnRadioVoice::BnRadioVoice",
   "linker_set_key" : "_ZN4aidl7android8hardware5radio5voice12BnRadioVoiceC2Ev",
   "parameters" :
   [
    {
     "is_this_ptr" : true,
     "referenced_type" : "_ZTIPN4aidl7android8hardware5radio5voice12BnRadioVoiceE"
    }
   ],
   "return_type" : "_ZTIv",
   "source_file" : "out/soong/.intermediates/hardware/interfaces/radio/aidl/android.hardware.radio.voice-V1-ndk-source/gen/include/aidl/android/hardware/radio/voice/BnRadioVoice.h"
  },
  {
   "function_name" : "aidl::android::hardware::radio::voice::BnRadioVoice::~BnRadioVoice",
   "linker_set_key" : "_ZN4aidl7android8hardware5radio5voice12BnRadioVoiceD0Ev",
   "parameters" :
   [
    {
     "is_this_ptr" : true,
     "referenced_type" : "_ZTIPN4aidl7android8hardware5radio5voice12BnRadioVoiceE"
    }
   ],
   "return_type" : "_ZTIv",
   "source_file" : "out/soong/.intermediates/hardware/interfaces/radio/aidl/android.hardware.radio.voice-V1-ndk-source/gen/include/aidl/android/hardware/radio/voice/BnRadioVoice.h"
  },
  {
   "function_name" : "aidl::android::hardware::radio::voice::BnRadioVoice::~BnRadioVoice",
   "linker_set_key" : "_ZN4aidl7android8hardware5radio5voice12BnRadioVoiceD1Ev",
   "parameters" :
   [
    {
     "is_this_ptr" : true,
     "referenced_type" : "_ZTIPN4aidl7android8hardware5radio5voice12BnRadioVoiceE"
    }
   ],
   "return_type" : "_ZTIv",
   "source_file" : "out/soong/.intermediates/hardware/interfaces/radio/aidl/android.hardware.radio.voice-V1-ndk-source/gen/include/aidl/android/hardware/radio/voice/BnRadioVoice.h"
  },
  {
   "function_name" : "aidl::android::hardware::radio::voice::BnRadioVoice::~BnRadioVoice",
   "linker_set_key" : "_ZN4aidl7android8hardware5radio5voice12BnRadioVoiceD2Ev",
   "parameters" :
   [
    {
     "is_this_ptr" : true,
     "referenced_type" : "_ZTIPN4aidl7android8hardware5radio5voice12BnRadioVoiceE"
    }
   ],
   "return_type" : "_ZTIv",
   "source_file" : "out/soong/.intermediates/hardware/interfaces/radio/aidl/android.hardware.radio.voice-V1-ndk-source/gen/include/aidl/android/hardware/radio/voice/BnRadioVoice.h"
  },
  {
   "function_name" : "aidl::android::hardware::radio::voice::BpRadioVoice::acceptCall",
   "linker_set_key" : "_ZN4aidl7android8hardware5radio5voice12BpRadioVoice10acceptCallEi",
   "parameters" :
   [
    {
     "is_this_ptr" : true,
     "referenced_type" : "_ZTIPN4aidl7android8hardware5radio5voice12BpRadioVoiceE"
    },
    {
     "referenced_type" : "_ZTIi"
    }
   ],
   "return_type" : "_ZTIN3ndk13ScopedAStatusE",
   "source_file" : "out/soong/.intermediates/hardware/interfaces/radio/aidl/android.hardware.radio.voice-V1-ndk-source/gen/include/aidl/android/hardware/radio/voice/BpRadioVoice.h"
  },
  {
   "function_name" : "aidl::android::hardware::radio::voice::BpRadioVoice::conference",
   "linker_set_key" : "_ZN4aidl7android8hardware5radio5voice12BpRadioVoice10conferenceEi",
   "parameters" :
   [
    {
     "is_this_ptr" : true,
     "referenced_type" : "_ZTIPN4aidl7android8hardware5radio5voice12BpRadioVoiceE"
    },
    {
     "referenced_type" : "_ZTIi"
    }
   ],
   "return_type" : "_ZTIN3ndk13ScopedAStatusE",
   "source_file" : "out/soong/.intermediates/hardware/interfaces/radio/aidl/android.hardware.radio.voice-V1-ndk-source/gen/include/aidl/android/hardware/radio/voice/BpRadioVoice.h"
  },
  {
   "function_name" : "aidl::android::hardware::radio::voice::BpRadioVoice::getTtyMode",
   "linker_set_key" : "_ZN4aidl7android8hardware5radio5voice12BpRadioVoice10getTtyModeEi",
   "parameters" :
   [
    {
     "is_this_ptr" : true,
     "referenced_type" : "_ZTIPN4aidl7android8hardware5radio5voice12BpRadioVoiceE"
    },
    {
     "referenced_type" : "_ZTIi"
    }
   ],
   "return_type" : "_ZTIN3ndk13ScopedAStatusE",
   "source_file" : "out/soong/.intermediates/hardware/interfaces/radio/aidl/android.hardware.radio.voice-V1-ndk-source/gen/include/aidl/android/hardware/radio/voice/BpRadioVoice.h"
  },
  {
   "function_name" : "aidl::android::hardware::radio::voice::BpRadioVoice::rejectCall",
   "linker_set_key" : "_ZN4aidl7android8hardware5radio5voice12BpRadioVoice10rejectCallEi",
   "parameters" :
   [
    {
     "is_this_ptr" : true,
     "referenced_type" : "_ZTIPN4aidl7android8hardware5radio5voice12BpRadioVoiceE"
    },
    {
     "referenced_type" : "_ZTIi"
    }
   ],
   "return_type" : "_ZTIN3ndk13ScopedAStatusE",
   "source_file" : "out/soong/.intermediates/hardware/interfaces/radio/aidl/android.hardware.radio.voice-V1-ndk-source/gen/include/aidl/android/hardware/radio/voice/BpRadioVoice.h"
  },
  {
   "function_name" : "aidl::android::hardware::radio::voice::BpRadioVoice::setTtyMode",
   "linker_set_key" : "_ZN4aidl7android8hardware5radio5voice12BpRadioVoice10setTtyModeEiNS3_7TtyModeE",
   "parameters" :
   [
    {
     "is_this_ptr" : true,
     "referenced_type" : "_ZTIPN4aidl7android8hardware5radio5voice12BpRadioVoiceE"
    },
    {
     "referenced_type" : "_ZTIi"
    },
    {
     "referenced_type" : "_ZTIN4aidl7android8hardware5radio5voice7TtyModeE"
    }
   ],
   "return_type" : "_ZTIN3ndk13ScopedAStatusE",
   "source_file" : "out/soong/.intermediates/hardware/interfaces/radio/aidl/android.hardware.radio.voice-V1-ndk-source/gen/include/aidl/android/hardware/radio/voice/BpRadioVoice.h"
  },
  {
   "function_name" : "aidl::android::hardware::radio::voice::BpRadioVoice::emergencyDial",
   "linker_set_key" : "_ZN4aidl7android8hardware5radio5voice12BpRadioVoice13emergencyDialEiRKNS3_4DialEiRKNSt3__16vectorINS8_12basic_stringIcNS8_11char_traitsIcEENS8_9allocatorIcEEEENSD_ISF_EEEENS3_20EmergencyCallRoutingEbb",
   "parameters" :
   [
    {
     "is_this_ptr" : true,
     "referenced_type" : "_ZTIPN4aidl7android8hardware5radio5voice12BpRadioVoiceE"
    },
    {
     "referenced_type" : "_ZTIi"
    },
    {
     "referenced_type" : "_ZTIRKN4aidl7android8hardware5radio5voice4DialE"
    },
    {
     "referenced_type" : "_ZTIi"
    },
    {
     "referenced_type" : "_ZTIRKNSt3__16vectorINS_12basic_stringIcNS_11char_traitsIcEENS_9allocatorIcEEEENS4_IS6_EEEE"
    },
    {
     "referenced_type" : "_ZTIN4aidl7android8hardware5radio5voice20EmergencyCallRoutingE"
    },
    {
     "referenced_type" : "_ZTIb"
    },
    {
     "referenced_type" : "_ZTIb"
    }
   ],
   "return_type" : "_ZTIN3ndk13ScopedAStatusE",
   "source_file" : "out/soong/.intermediates/hardware/interfaces/radio/aidl/android.hardware.radio.voice-V1-ndk-source/gen/include/aidl/android/hardware/radio/voice/BpRadioVoice.h"
  },
  {
   "function_name" : "aidl::android::hardware::radio::voice::BpRadioVoice::isVoNrEnabled",
   "linker_set_key" : "_ZN4aidl7android8hardware5radio5voice12BpRadioVoice13isVoNrEnabledEi",
   "parameters" :
   [
    {
     "is_this_ptr" : true,
     "referenced_type" : "_ZTIPN4aidl7android8hardware5radio5voice12BpRadioVoiceE"
    },
    {
     "referenced_type" : "_ZTIi"
    }
   ],
   "return_type" : "_ZTIN3ndk13ScopedAStatusE",
   "source_file" : "out/soong/.intermediates/hardware/interfaces/radio/aidl/android.hardware.radio.voice-V1-ndk-source/gen/include/aidl/android/hardware/radio/voice/BpRadioVoice.h"
  },
  {
   "function_name" : "aidl::android::hardware::radio::voice::BpRadioVoice::sendBurstDtmf",
   "linker_set_key" : "_ZN4aidl7android8hardware5radio5voice12BpRadioVoice13sendBurstDtmfEiRKNSt3__112basic_stringIcNS5_11char_traitsIcEENS5_9allocatorIcEEEEii",
   "parameters" :
   [
    {
     "is_this_ptr" : true,
     "referenced_type" : "_ZTIPN4aidl7android8hardware5radio5voice12BpRadioVoiceE"
    },
    {
     "referenced_type" : "_ZTIi"
    },
    {
     "referenced_type" : "_ZTIRKNSt3__112basic_stringIcNS_11char_traitsIcEENS_9allocatorIcEEEE"
    },
    {
     "referenced_type" : "_ZTIi"
    },
    {
     "referenced_type" : "_ZTIi"
    }
   ],
   "return_type" : "_ZTIN3ndk13ScopedAStatusE",
   "source_file" : "out/soong/.intermediates/hardware/interfaces/radio/aidl/android.hardware.radio.voice-V1-ndk-source/gen/include/aidl/android/hardware/radio/voice/BpRadioVoice.h"
  },
  {
   "function_name" : "aidl::android::hardware::radio::voice::BpRadioVoice::getCallWaiting",
   "linker_set_key" : "_ZN4aidl7android8hardware5radio5voice12BpRadioVoice14getCallWaitingEii",
   "parameters" :
   [
    {
     "is_this_ptr" : true,
     "referenced_type" : "_ZTIPN4aidl7android8hardware5radio5voice12BpRadioVoiceE"
    },
    {
     "referenced_type" : "_ZTIi"
    },
    {
     "referenced_type" : "_ZTIi"
    }
   ],
   "return_type" : "_ZTIN3ndk13ScopedAStatusE",
   "source_file" : "out/soong/.intermediates/hardware/interfaces/radio/aidl/android.hardware.radio.voice-V1-ndk-source/gen/include/aidl/android/hardware/radio/voice/BpRadioVoice.h"
  },
  {
   "function_name" : "aidl::android::hardware::radio::voice::BpRadioVoice::setCallForward",
   "linker_set_key" : "_ZN4aidl7android8hardware5radio5voice12BpRadioVoice14setCallForwardEiRKNS3_15CallForwardInfoE",
   "parameters" :
   [
    {
     "is_this_ptr" : true,
     "referenced_type" : "_ZTIPN4aidl7android8hardware5radio5voice12BpRadioVoiceE"
    },
    {
     "referenced_type" : "_ZTIi"
    },
    {
     "referenced_type" : "_ZTIRKN4aidl7android8hardware5radio5voice15CallForwardInfoE"
    }
   ],
   "return_type" : "_ZTIN3ndk13ScopedAStatusE",
   "source_file" : "out/soong/.intermediates/hardware/interfaces/radio/aidl/android.hardware.radio.voice-V1-ndk-source/gen/include/aidl/android/hardware/radio/voice/BpRadioVoice.h"
  },
  {
   "function_name" : "aidl::android::hardware::radio::voice::BpRadioVoice::setCallWaiting",
   "linker_set_key" : "_ZN4aidl7android8hardware5radio5voice12BpRadioVoice14setCallWaitingEibi",
   "parameters" :
   [
    {
     "is_this_ptr" : true,
     "referenced_type" : "_ZTIPN4aidl7android8hardware5radio5voice12BpRadioVoiceE"
    },
    {
     "referenced_type" : "_ZTIi"
    },
    {
     "referenced_type" : "_ZTIb"
    },
    {
     "referenced_type" : "_ZTIi"
    }
   ],
   "return_type" : "_ZTIN3ndk13ScopedAStatusE",
   "source_file" : "out/soong/.intermediates/hardware/interfaces/radio/aidl/android.hardware.radio.voice-V1-ndk-source/gen/include/aidl/android/hardware/radio/voice/BpRadioVoice.h"
  },
  {
   "function_name" : "aidl::android::hardware::radio::voice::BpRadioVoice::setVoNrEnabled",
   "linker_set_key" : "_ZN4aidl7android8hardware5radio5voice12BpRadioVoice14setVoNrEnabledEib",
   "parameters" :
   [
    {
     "is_this_ptr" : true,
     "referenced_type" : "_ZTIPN4aidl7android8hardware5radio5voice12BpRadioVoiceE"
    },
    {
     "referenced_type" : "_ZTIi"
    },
    {
     "referenced_type" : "_ZTIb"
    }
   ],
   "return_type" : "_ZTIN3ndk13ScopedAStatusE",
   "source_file" : "out/soong/.intermediates/hardware/interfaces/radio/aidl/android.hardware.radio.voice-V1-ndk-source/gen/include/aidl/android/hardware/radio/voice/BpRadioVoice.h"
  },
  {
   "function_name" : "aidl::android::hardware::radio::voice::BpRadioVoice::getCurrentCalls",
   "linker_set_key" : "_ZN4aidl7android8hardware5radio5voice12BpRadioVoice15getCurrentCallsEi",
   "parameters" :
   [
    {
     "is_this_ptr" : true,
     "referenced_type" : "_ZTIPN4aidl7android8hardware5radio5voice12BpRadioVoiceE"
    },
    {
     "referenced_type" : "_ZTIi"
    }
   ],
   "return_type" : "_ZTIN3ndk13ScopedAStatusE",
   "source_file" : "out/soong/.intermediates/hardware/interfaces/radio/aidl/android.hardware.radio.voice-V1-ndk-source/gen/include/aidl/android/hardware/radio/voice/BpRadioVoice.h"
  },
  {
   "function_name" : "aidl::android::hardware::radio::voice::BpRadioVoice::getInterfaceHash",
   "linker_set_key" : "_ZN4aidl7android8hardware5radio5voice12BpRadioVoice16getInterfaceHashEPNSt3__112basic_stringIcNS5_11char_traitsIcEENS5_9allocatorIcEEEE",
   "parameters" :
   [
    {
     "is_this_ptr" : true,
     "referenced_type" : "_ZTIPN4aidl7android8hardware5radio5voice12BpRadioVoiceE"
    },
    {
     "referenced_type" : "_ZTIPNSt3__112basic_stringIcNS_11char_traitsIcEENS_9allocatorIcEEEE"
    }
   ],
   "return_type" : "_ZTIN3ndk13ScopedAStatusE",
   "source_file" : "out/soong/.intermediates/hardware/interfaces/radio/aidl/android.hardware.radio.voice-V1-ndk-source/gen/include/aidl/android/hardware/radio/voice/BpRadioVoice.h"
  },
  {
   "function_name" : "aidl::android::hardware::radio::voice::BpRadioVoice::cancelPendingUssd",
   "linker_set_key" : "_ZN4aidl7android8hardware5radio5voice12BpRadioVoice17cancelPendingUssdEi",
   "parameters" :
   [
    {
     "is_this_ptr" : true,
     "referenced_type" : "_ZTIPN4aidl7android8hardware5radio5voice12BpRadioVoiceE"
    },
    {
     "referenced_type" : "_ZTIi"
    }
   ],
   "return_type" : "_ZTIN3ndk13ScopedAStatusE",
   "source_file" : "out/soong/.intermediates/hardware/interfaces/radio/aidl/android.hardware.radio.voice-V1-ndk-source/gen/include/aidl/android/hardware/radio/voice/BpRadioVoice.h"
  },
  {
   "function_name" : "aidl::android::hardware::radio::voice::BpRadioVoice::separateConnection",
   "linker_set_key" : "_ZN4aidl7android8hardware5radio5voice12BpRadioVoice18separateConnectionEii",
   "parameters" :
   [
    {
     "is_this_ptr" : true,
     "referenced_type" : "_ZTIPN4aidl7android8hardware5radio5voice12BpRadioVoiceE"
    },
    {
     "referenced_type" : "_ZTIi"
    },
    {
     "referenced_type" : "_ZTIi"
    }
   ],
   "return_type" : "_ZTIN3ndk13ScopedAStatusE",
   "source_file" : "out/soong/.intermediates/hardware/interfaces/radio/aidl/android.hardware.radio.voice-V1-ndk-source/gen/include/aidl/android/hardware/radio/voice/BpRadioVoice.h"
  },
  {
   "function_name" : "aidl::android::hardware::radio::voice::BpRadioVoice::getInterfaceVersion",
   "linker_set_key" : "_ZN4aidl7android8hardware5radio5voice12BpRadioVoice19getInterfaceVersionEPi",
   "parameters" :
   [
    {
     "is_this_ptr" : true,
     "referenced_type" : "_ZTIPN4aidl7android8hardware5radio5voice12BpRadioVoiceE"
    },
    {
     "referenced_type" : "_ZTIPi"
    }
   ],
   "return_type" : "_ZTIN3ndk13ScopedAStatusE",
   "source_file" : "out/soong/.intermediates/hardware/interfaces/radio/aidl/android.hardware.radio.voice-V1-ndk-source/gen/include/aidl/android/hardware/radio/voice/BpRadioVoice.h"
  },
  {
   "function_name" : "aidl::android::hardware::radio::voice::BpRadioVoice::sendCdmaFeatureCode",
   "linker_set_key" : "_ZN4aidl7android8hardware5radio5voice12BpRadioVoice19sendCdmaFeatureCodeEiRKNSt3__112basic_stringIcNS5_11char_traitsIcEENS5_9allocatorIcEEEE",
   "parameters" :
   [
    {
     "is_this_ptr" : true,
     "referenced_type" : "_ZTIPN4aidl7android8hardware5radio5voice12BpRadioVoiceE"
    },
    {
     "referenced_type" : "_ZTIi"
    },
    {
     "referenced_type" : "_ZTIRKNSt3__112basic_stringIcNS_11char_traitsIcEENS_9allocatorIcEEEE"
    }
   ],
   "return_type" : "_ZTIN3ndk13ScopedAStatusE",
   "source_file" : "out/soong/.intermediates/hardware/interfaces/radio/aidl/android.hardware.radio.voice-V1-ndk-source/gen/include/aidl/android/hardware/radio/voice/BpRadioVoice.h"
  },
  {
   "function_name" : "aidl::android::hardware::radio::voice::BpRadioVoice::explicitCallTransfer",
   "linker_set_key" : "_ZN4aidl7android8hardware5radio5voice12BpRadioVoice20explicitCallTransferEi",
   "parameters" :
   [
    {
     "is_this_ptr" : true,
     "referenced_type" : "_ZTIPN4aidl7android8hardware5radio5voice12BpRadioVoiceE"
    },
    {
     "referenced_type" : "_ZTIi"
    }
   ],
   "return_type" : "_ZTIN3ndk13ScopedAStatusE",
   "source_file" : "out/soong/.intermediates/hardware/interfaces/radio/aidl/android.hardware.radio.voice-V1-ndk-source/gen/include/aidl/android/hardware/radio/voice/BpRadioVoice.h"
  },
  {
   "function_name" : "aidl::android::hardware::radio::voice::BpRadioVoice::getCallForwardStatus",
   "linker_set_key" : "_ZN4aidl7android8hardware5radio5voice12BpRadioVoice20getCallForwardStatusEiRKNS3_15CallForwardInfoE",
   "parameters" :
   [
    {
     "is_this_ptr" : true,
     "referenced_type" : "_ZTIPN4aidl7android8hardware5radio5voice12BpRadioVoiceE"
    },
    {
     "referenced_type" : "_ZTIi"
    },
    {
     "referenced_type" : "_ZTIRKN4aidl7android8hardware5radio5voice15CallForwardInfoE"
    }
   ],
   "return_type" : "_ZTIN3ndk13ScopedAStatusE",
   "source_file" : "out/soong/.intermediates/hardware/interfaces/radio/aidl/android.hardware.radio.voice-V1-ndk-source/gen/include/aidl/android/hardware/radio/voice/BpRadioVoice.h"
  },
  {
   "function_name" : "aidl::android::hardware::radio::voice::BpRadioVoice::getLastCallFailCause",
   "linker_set_key" : "_ZN4aidl7android8hardware5radio5voice12BpRadioVoice20getLastCallFailCauseEi",
   "parameters" :
   [
    {
     "is_this_ptr" : true,
     "referenced_type" : "_ZTIPN4aidl7android8hardware5radio5voice12BpRadioVoiceE"
    },
    {
     "referenced_type" : "_ZTIi"
    }
   ],
   "return_type" : "_ZTIN3ndk13ScopedAStatusE",
   "source_file" : "out/soong/.intermediates/hardware/interfaces/radio/aidl/android.hardware.radio.voice-V1-ndk-source/gen/include/aidl/android/hardware/radio/voice/BpRadioVoice.h"
  },
  {
   "function_name" : "aidl::android::hardware::radio::voice::BpRadioVoice::setResponseFunctions",
   "linker_set_key" : "_ZN4aidl7android8hardware5radio5voice12BpRadioVoice20setResponseFunctionsERKNSt3__110shared_ptrINS3_19IRadioVoiceResponseEEERKNS6_INS3_21IRadioVoiceIndicationEEE",
   "parameters" :
   [
    {
     "is_this_ptr" : true,
     "referenced_type" : "_ZTIPN4aidl7android8hardware5radio5voice12BpRadioVoiceE"
    },
    {
     "referenced_type" : "_ZTIRKNSt3__110shared_ptrIN4aidl7android8hardware5radio5voice19IRadioVoiceResponseEEE"
    },
    {
     "referenced_type" : "_ZTIRKNSt3__110shared_ptrIN4aidl7android8hardware5radio5voice21IRadioVoiceIndicationEEE"
    }
   ],
   "return_type" : "_ZTIN3ndk13ScopedAStatusE",
   "source_file" : "out/soong/.intermediates/hardware/interfaces/radio/aidl/android.hardware.radio.voice-V1-ndk-source/gen/include/aidl/android/hardware/radio/voice/BpRadioVoice.h"
  },
  {
   "function_name" : "aidl::android::hardware::radio::voice::BpRadioVoice::responseAcknowledgement",
   "linker_set_key" : "_ZN4aidl7android8hardware5radio5voice12BpRadioVoice23responseAcknowledgementEv",
   "parameters" :
   [
    {
     "is_this_ptr" : true,
     "referenced_type" : "_ZTIPN4aidl7android8hardware5radio5voice12BpRadioVoiceE"
    }
   ],
   "return_type" : "_ZTIN3ndk13ScopedAStatusE",
   "source_file" : "out/soong/.intermediates/hardware/interfaces/radio/aidl/android.hardware.radio.voice-V1-ndk-source/gen/include/aidl/android/hardware/radio/voice/BpRadioVoice.h"
  },
  {
   "function_name" : "aidl::android::hardware::radio::voice::BpRadioVoice::getPreferredVoicePrivacy",
   "linker_set_key" : "_ZN4aidl7android8hardware5radio5voice12BpRadioVoice24getPreferredVoicePrivacyEi",
   "parameters" :
   [
    {
     "is_this_ptr" : true,
     "referenced_type" : "_ZTIPN4aidl7android8hardware5radio5voice12BpRadioVoiceE"
    },
    {
     "referenced_type" : "_ZTIi"
    }
   ],
   "return_type" : "_ZTIN3ndk13ScopedAStatusE",
   "source_file" : "out/soong/.intermediates/hardware/interfaces/radio/aidl/android.hardware.radio.voice-V1-ndk-source/gen/include/aidl/android/hardware/radio/voice/BpRadioVoice.h"
  },
  {
   "function_name" : "aidl::android::hardware::radio::voice::BpRadioVoice::setPreferredVoicePrivacy",
   "linker_set_key" : "_ZN4aidl7android8hardware5radio5voice12BpRadioVoice24setPreferredVoicePrivacyEib",
   "parameters" :
   [
    {
     "is_this_ptr" : true,
     "referenced_type" : "_ZTIPN4aidl7android8hardware5radio5voice12BpRadioVoiceE"
    },
    {
     "referenced_type" : "_ZTIi"
    },
    {
     "referenced_type" : "_ZTIb"
    }
   ],
   "return_type" : "_ZTIN3ndk13ScopedAStatusE",
   "source_file" : "out/soong/.intermediates/hardware/interfaces/radio/aidl/android.hardware.radio.voice-V1-ndk-source/gen/include/aidl/android/hardware/radio/voice/BpRadioVoice.h"
  },
  {
   "function_name" : "aidl::android::hardware::radio::voice::BpRadioVoice::exitEmergencyCallbackMode",
   "linker_set_key" : "_ZN4aidl7android8hardware5radio5voice12BpRadioVoice25exitEmergencyCallbackModeEi",
   "parameters" :
   [
    {
     "is_this_ptr" : true,
     "referenced_type" : "_ZTIPN4aidl7android8hardware5radio5voice12BpRadioVoiceE"
    },
    {
     "referenced_type" : "_ZTIi"
    }
   ],
   "return_type" : "_ZTIN3ndk13ScopedAStatusE",
   "source_file" : "out/soong/.intermediates/hardware/interfaces/radio/aidl/android.hardware.radio.voice-V1-ndk-source/gen/include/aidl/android/hardware/radio/voice/BpRadioVoice.h"
  },
  {
   "function_name" : "aidl::android::hardware::radio::voice::BpRadioVoice::hangupWaitingOrBackground",
   "linker_set_key" : "_ZN4aidl7android8hardware5radio5voice12BpRadioVoice25hangupWaitingOrBackgroundEi",
   "parameters" :
   [
    {
     "is_this_ptr" : true,
     "referenced_type" : "_ZTIPN4aidl7android8hardware5radio5voice12BpRadioVoiceE"
    },
    {
     "referenced_type" : "_ZTIi"
    }
   ],
   "return_type" : "_ZTIN3ndk13ScopedAStatusE",
   "source_file" : "out/soong/.intermediates/hardware/interfaces/radio/aidl/android.hardware.radio.voice-V1-ndk-source/gen/include/aidl/android/hardware/radio/voice/BpRadioVoice.h"
  },
  {
   "function_name" : "aidl::android::hardware::radio::voice::BpRadioVoice::switchWaitingOrHoldingAndActive",
   "linker_set_key" : "_ZN4aidl7android8hardware5radio5voice12BpRadioVoice31switchWaitingOrHoldingAndActiveEi",
   "parameters" :
   [
    {
     "is_this_ptr" : true,
     "referenced_type" : "_ZTIPN4aidl7android8hardware5radio5voice12BpRadioVoiceE"
    },
    {
     "referenced_type" : "_ZTIi"
    }
   ],
   "return_type" : "_ZTIN3ndk13ScopedAStatusE",
   "source_file" : "out/soong/.intermediates/hardware/interfaces/radio/aidl/android.hardware.radio.voice-V1-ndk-source/gen/include/aidl/android/hardware/radio/voice/BpRadioVoice.h"
  },
  {
   "function_name" : "aidl::android::hardware::radio::voice::BpRadioVoice::handleStkCallSetupRequestFromSim",
   "linker_set_key" : "_ZN4aidl7android8hardware5radio5voice12BpRadioVoice32handleStkCallSetupRequestFromSimEib",
   "parameters" :
   [
    {
     "is_this_ptr" : true,
     "referenced_type" : "_ZTIPN4aidl7android8hardware5radio5voice12BpRadioVoiceE"
    },
    {
     "referenced_type" : "_ZTIi"
    },
    {
     "referenced_type" : "_ZTIb"
    }
   ],
   "return_type" : "_ZTIN3ndk13ScopedAStatusE",
   "source_file" : "out/soong/.intermediates/hardware/interfaces/radio/aidl/android.hardware.radio.voice-V1-ndk-source/gen/include/aidl/android/hardware/radio/voice/BpRadioVoice.h"
  },
  {
   "function_name" : "aidl::android::hardware::radio::voice::BpRadioVoice::hangupForegroundResumeBackground",
   "linker_set_key" : "_ZN4aidl7android8hardware5radio5voice12BpRadioVoice32hangupForegroundResumeBackgroundEi",
   "parameters" :
   [
    {
     "is_this_ptr" : true,
     "referenced_type" : "_ZTIPN4aidl7android8hardware5radio5voice12BpRadioVoiceE"
    },
    {
     "referenced_type" : "_ZTIi"
    }
   ],
   "return_type" : "_ZTIN3ndk13ScopedAStatusE",
   "source_file" : "out/soong/.intermediates/hardware/interfaces/radio/aidl/android.hardware.radio.voice-V1-ndk-source/gen/include/aidl/android/hardware/radio/voice/BpRadioVoice.h"
  },
  {
   "function_name" : "aidl::android::hardware::radio::voice::BpRadioVoice::dial",
   "linker_set_key" : "_ZN4aidl7android8hardware5radio5voice12BpRadioVoice4dialEiRKNS3_4DialE",
   "parameters" :
   [
    {
     "is_this_ptr" : true,
     "referenced_type" : "_ZTIPN4aidl7android8hardware5radio5voice12BpRadioVoiceE"
    },
    {
     "referenced_type" : "_ZTIi"
    },
    {
     "referenced_type" : "_ZTIRKN4aidl7android8hardware5radio5voice4DialE"
    }
   ],
   "return_type" : "_ZTIN3ndk13ScopedAStatusE",
   "source_file" : "out/soong/.intermediates/hardware/interfaces/radio/aidl/android.hardware.radio.voice-V1-ndk-source/gen/include/aidl/android/hardware/radio/voice/BpRadioVoice.h"
  },
  {
   "function_name" : "aidl::android::hardware::radio::voice::BpRadioVoice::hangup",
   "linker_set_key" : "_ZN4aidl7android8hardware5radio5voice12BpRadioVoice6hangupEii",
   "parameters" :
   [
    {
     "is_this_ptr" : true,
     "referenced_type" : "_ZTIPN4aidl7android8hardware5radio5voice12BpRadioVoiceE"
    },
    {
     "referenced_type" : "_ZTIi"
    },
    {
     "referenced_type" : "_ZTIi"
    }
   ],
   "return_type" : "_ZTIN3ndk13ScopedAStatusE",
   "source_file" : "out/soong/.intermediates/hardware/interfaces/radio/aidl/android.hardware.radio.voice-V1-ndk-source/gen/include/aidl/android/hardware/radio/voice/BpRadioVoice.h"
  },
  {
   "function_name" : "aidl::android::hardware::radio::voice::BpRadioVoice::getClip",
   "linker_set_key" : "_ZN4aidl7android8hardware5radio5voice12BpRadioVoice7getClipEi",
   "parameters" :
   [
    {
     "is_this_ptr" : true,
     "referenced_type" : "_ZTIPN4aidl7android8hardware5radio5voice12BpRadioVoiceE"
    },
    {
     "referenced_type" : "_ZTIi"
    }
   ],
   "return_type" : "_ZTIN3ndk13ScopedAStatusE",
   "source_file" : "out/soong/.intermediates/hardware/interfaces/radio/aidl/android.hardware.radio.voice-V1-ndk-source/gen/include/aidl/android/hardware/radio/voice/BpRadioVoice.h"
  },
  {
   "function_name" : "aidl::android::hardware::radio::voice::BpRadioVoice::getClir",
   "linker_set_key" : "_ZN4aidl7android8hardware5radio5voice12BpRadioVoice7getClirEi",
   "parameters" :
   [
    {
     "is_this_ptr" : true,
     "referenced_type" : "_ZTIPN4aidl7android8hardware5radio5voice12BpRadioVoiceE"
    },
    {
     "referenced_type" : "_ZTIi"
    }
   ],
   "return_type" : "_ZTIN3ndk13ScopedAStatusE",
   "source_file" : "out/soong/.intermediates/hardware/interfaces/radio/aidl/android.hardware.radio.voice-V1-ndk-source/gen/include/aidl/android/hardware/radio/voice/BpRadioVoice.h"
  },
  {
   "function_name" : "aidl::android::hardware::radio::voice::BpRadioVoice::getMute",
   "linker_set_key" : "_ZN4aidl7android8hardware5radio5voice12BpRadioVoice7getMuteEi",
   "parameters" :
   [
    {
     "is_this_ptr" : true,
     "referenced_type" : "_ZTIPN4aidl7android8hardware5radio5voice12BpRadioVoiceE"
    },
    {
     "referenced_type" : "_ZTIi"
    }
   ],
   "return_type" : "_ZTIN3ndk13ScopedAStatusE",
   "source_file" : "out/soong/.intermediates/hardware/interfaces/radio/aidl/android.hardware.radio.voice-V1-ndk-source/gen/include/aidl/android/hardware/radio/voice/BpRadioVoice.h"
  },
  {
   "function_name" : "aidl::android::hardware::radio::voice::BpRadioVoice::setClir",
   "linker_set_key" : "_ZN4aidl7android8hardware5radio5voice12BpRadioVoice7setClirEii",
   "parameters" :
   [
    {
     "is_this_ptr" : true,
     "referenced_type" : "_ZTIPN4aidl7android8hardware5radio5voice12BpRadioVoiceE"
    },
    {
     "referenced_type" : "_ZTIi"
    },
    {
     "referenced_type" : "_ZTIi"
    }
   ],
   "return_type" : "_ZTIN3ndk13ScopedAStatusE",
   "source_file" : "out/soong/.intermediates/hardware/interfaces/radio/aidl/android.hardware.radio.voice-V1-ndk-source/gen/include/aidl/android/hardware/radio/voice/BpRadioVoice.h"
  },
  {
   "function_name" : "aidl::android::hardware::radio::voice::BpRadioVoice::setMute",
   "linker_set_key" : "_ZN4aidl7android8hardware5radio5voice12BpRadioVoice7setMuteEib",
   "parameters" :
   [
    {
     "is_this_ptr" : true,
     "referenced_type" : "_ZTIPN4aidl7android8hardware5radio5voice12BpRadioVoiceE"
    },
    {
     "referenced_type" : "_ZTIi"
    },
    {
     "referenced_type" : "_ZTIb"
    }
   ],
   "return_type" : "_ZTIN3ndk13ScopedAStatusE",
   "source_file" : "out/soong/.intermediates/hardware/interfaces/radio/aidl/android.hardware.radio.voice-V1-ndk-source/gen/include/aidl/android/hardware/radio/voice/BpRadioVoice.h"
  },
  {
   "function_name" : "aidl::android::hardware::radio::voice::BpRadioVoice::sendDtmf",
   "linker_set_key" : "_ZN4aidl7android8hardware5radio5voice12BpRadioVoice8sendDtmfEiRKNSt3__112basic_stringIcNS5_11char_traitsIcEENS5_9allocatorIcEEEE",
   "parameters" :
   [
    {
     "is_this_ptr" : true,
     "referenced_type" : "_ZTIPN4aidl7android8hardware5radio5voice12BpRadioVoiceE"
    },
    {
     "referenced_type" : "_ZTIi"
    },
    {
     "referenced_type" : "_ZTIRKNSt3__112basic_stringIcNS_11char_traitsIcEENS_9allocatorIcEEEE"
    }
   ],
   "return_type" : "_ZTIN3ndk13ScopedAStatusE",
   "source_file" : "out/soong/.intermediates/hardware/interfaces/radio/aidl/android.hardware.radio.voice-V1-ndk-source/gen/include/aidl/android/hardware/radio/voice/BpRadioVoice.h"
  },
  {
   "function_name" : "aidl::android::hardware::radio::voice::BpRadioVoice::sendUssd",
   "linker_set_key" : "_ZN4aidl7android8hardware5radio5voice12BpRadioVoice8sendUssdEiRKNSt3__112basic_stringIcNS5_11char_traitsIcEENS5_9allocatorIcEEEE",
   "parameters" :
   [
    {
     "is_this_ptr" : true,
     "referenced_type" : "_ZTIPN4aidl7android8hardware5radio5voice12BpRadioVoiceE"
    },
    {
     "referenced_type" : "_ZTIi"
    },
    {
     "referenced_type" : "_ZTIRKNSt3__112basic_stringIcNS_11char_traitsIcEENS_9allocatorIcEEEE"
    }
   ],
   "return_type" : "_ZTIN3ndk13ScopedAStatusE",
   "source_file" : "out/soong/.intermediates/hardware/interfaces/radio/aidl/android.hardware.radio.voice-V1-ndk-source/gen/include/aidl/android/hardware/radio/voice/BpRadioVoice.h"
  },
  {
   "function_name" : "aidl::android::hardware::radio::voice::BpRadioVoice::stopDtmf",
   "linker_set_key" : "_ZN4aidl7android8hardware5radio5voice12BpRadioVoice8stopDtmfEi",
   "parameters" :
   [
    {
     "is_this_ptr" : true,
     "referenced_type" : "_ZTIPN4aidl7android8hardware5radio5voice12BpRadioVoiceE"
    },
    {
     "referenced_type" : "_ZTIi"
    }
   ],
   "return_type" : "_ZTIN3ndk13ScopedAStatusE",
   "source_file" : "out/soong/.intermediates/hardware/interfaces/radio/aidl/android.hardware.radio.voice-V1-ndk-source/gen/include/aidl/android/hardware/radio/voice/BpRadioVoice.h"
  },
  {
   "function_name" : "aidl::android::hardware::radio::voice::BpRadioVoice::startDtmf",
   "linker_set_key" : "_ZN4aidl7android8hardware5radio5voice12BpRadioVoice9startDtmfEiRKNSt3__112basic_stringIcNS5_11char_traitsIcEENS5_9allocatorIcEEEE",
   "parameters" :
   [
    {
     "is_this_ptr" : true,
     "referenced_type" : "_ZTIPN4aidl7android8hardware5radio5voice12BpRadioVoiceE"
    },
    {
     "referenced_type" : "_ZTIi"
    },
    {
     "referenced_type" : "_ZTIRKNSt3__112basic_stringIcNS_11char_traitsIcEENS_9allocatorIcEEEE"
    }
   ],
   "return_type" : "_ZTIN3ndk13ScopedAStatusE",
   "source_file" : "out/soong/.intermediates/hardware/interfaces/radio/aidl/android.hardware.radio.voice-V1-ndk-source/gen/include/aidl/android/hardware/radio/voice/BpRadioVoice.h"
  },
  {
   "function_name" : "aidl::android::hardware::radio::voice::BpRadioVoice::BpRadioVoice",
   "linker_set_key" : "_ZN4aidl7android8hardware5radio5voice12BpRadioVoiceC1ERKN3ndk10SpAIBinderE",
   "parameters" :
   [
    {
     "is_this_ptr" : true,
     "referenced_type" : "_ZTIPN4aidl7android8hardware5radio5voice12BpRadioVoiceE"
    },
    {
     "referenced_type" : "_ZTIRKN3ndk10SpAIBinderE"
    }
   ],
   "return_type" : "_ZTIv",
   "source_file" : "out/soong/.intermediates/hardware/interfaces/radio/aidl/android.hardware.radio.voice-V1-ndk-source/gen/include/aidl/android/hardware/radio/voice/BpRadioVoice.h"
  },
  {
   "function_name" : "aidl::android::hardware::radio::voice::BpRadioVoice::BpRadioVoice",
   "linker_set_key" : "_ZN4aidl7android8hardware5radio5voice12BpRadioVoiceC2ERKN3ndk10SpAIBinderE",
   "parameters" :
   [
    {
     "is_this_ptr" : true,
     "referenced_type" : "_ZTIPN4aidl7android8hardware5radio5voice12BpRadioVoiceE"
    },
    {
     "referenced_type" : "_ZTIRKN3ndk10SpAIBinderE"
    }
   ],
   "return_type" : "_ZTIv",
   "source_file" : "out/soong/.intermediates/hardware/interfaces/radio/aidl/android.hardware.radio.voice-V1-ndk-source/gen/include/aidl/android/hardware/radio/voice/BpRadioVoice.h"
  },
  {
   "function_name" : "aidl::android::hardware::radio::voice::BpRadioVoice::~BpRadioVoice",
   "linker_set_key" : "_ZN4aidl7android8hardware5radio5voice12BpRadioVoiceD0Ev",
   "parameters" :
   [
    {
     "is_this_ptr" : true,
     "referenced_type" : "_ZTIPN4aidl7android8hardware5radio5voice12BpRadioVoiceE"
    }
   ],
   "return_type" : "_ZTIv",
   "source_file" : "out/soong/.intermediates/hardware/interfaces/radio/aidl/android.hardware.radio.voice-V1-ndk-source/gen/include/aidl/android/hardware/radio/voice/BpRadioVoice.h"
  },
  {
   "function_name" : "aidl::android::hardware::radio::voice::BpRadioVoice::~BpRadioVoice",
   "linker_set_key" : "_ZN4aidl7android8hardware5radio5voice12BpRadioVoiceD1Ev",
   "parameters" :
   [
    {
     "is_this_ptr" : true,
     "referenced_type" : "_ZTIPN4aidl7android8hardware5radio5voice12BpRadioVoiceE"
    }
   ],
   "return_type" : "_ZTIv",
   "source_file" : "out/soong/.intermediates/hardware/interfaces/radio/aidl/android.hardware.radio.voice-V1-ndk-source/gen/include/aidl/android/hardware/radio/voice/BpRadioVoice.h"
  },
  {
   "function_name" : "aidl::android::hardware::radio::voice::BpRadioVoice::~BpRadioVoice",
   "linker_set_key" : "_ZN4aidl7android8hardware5radio5voice12BpRadioVoiceD2Ev",
   "parameters" :
   [
    {
     "is_this_ptr" : true,
     "referenced_type" : "_ZTIPN4aidl7android8hardware5radio5voice12BpRadioVoiceE"
    }
   ],
   "return_type" : "_ZTIv",
   "source_file" : "out/soong/.intermediates/hardware/interfaces/radio/aidl/android.hardware.radio.voice-V1-ndk-source/gen/include/aidl/android/hardware/radio/voice/BpRadioVoice.h"
  },
  {
   "function_name" : "aidl::android::hardware::radio::voice::CallForwardInfo::readFromParcel",
   "linker_set_key" : "_ZN4aidl7android8hardware5radio5voice15CallForwardInfo14readFromParcelEPK7AParcel",
   "parameters" :
   [
    {
     "is_this_ptr" : true,
     "referenced_type" : "_ZTIPN4aidl7android8hardware5radio5voice15CallForwardInfoE"
    },
    {
     "referenced_type" : "_ZTIPK7AParcel"
    }
   ],
   "return_type" : "_ZTIi",
   "source_file" : "out/soong/.intermediates/hardware/interfaces/radio/aidl/android.hardware.radio.voice-V1-ndk-source/gen/include/aidl/android/hardware/radio/voice/CallForwardInfo.h"
  },
  {
   "function_name" : "aidl::android::hardware::radio::voice::CdmaCallWaiting::readFromParcel",
   "linker_set_key" : "_ZN4aidl7android8hardware5radio5voice15CdmaCallWaiting14readFromParcelEPK7AParcel",
   "parameters" :
   [
    {
     "is_this_ptr" : true,
     "referenced_type" : "_ZTIPN4aidl7android8hardware5radio5voice15CdmaCallWaitingE"
    },
    {
     "referenced_type" : "_ZTIPK7AParcel"
    }
   ],
   "return_type" : "_ZTIi",
   "source_file" : "out/soong/.intermediates/hardware/interfaces/radio/aidl/android.hardware.radio.voice-V1-ndk-source/gen/include/aidl/android/hardware/radio/voice/CdmaCallWaiting.h"
  },
  {
   "function_name" : "aidl::android::hardware::radio::voice::EmergencyNumber::readFromParcel",
   "linker_set_key" : "_ZN4aidl7android8hardware5radio5voice15EmergencyNumber14readFromParcelEPK7AParcel",
   "parameters" :
   [
    {
     "is_this_ptr" : true,
     "referenced_type" : "_ZTIPN4aidl7android8hardware5radio5voice15EmergencyNumberE"
    },
    {
     "referenced_type" : "_ZTIPK7AParcel"
    }
   ],
   "return_type" : "_ZTIi",
   "source_file" : "out/soong/.intermediates/hardware/interfaces/radio/aidl/android.hardware.radio.voice-V1-ndk-source/gen/include/aidl/android/hardware/radio/voice/EmergencyNumber.h"
  },
  {
   "function_name" : "aidl::android::hardware::radio::voice::IRadioVoiceDefault::acceptCall",
   "linker_set_key" : "_ZN4aidl7android8hardware5radio5voice18IRadioVoiceDefault10acceptCallEi",
   "parameters" :
   [
    {
     "is_this_ptr" : true,
     "referenced_type" : "_ZTIPN4aidl7android8hardware5radio5voice18IRadioVoiceDefaultE"
    },
    {
     "referenced_type" : "_ZTIi"
    }
   ],
   "return_type" : "_ZTIN3ndk13ScopedAStatusE",
   "source_file" : "out/soong/.intermediates/hardware/interfaces/radio/aidl/android.hardware.radio.voice-V1-ndk-source/gen/include/aidl/android/hardware/radio/voice/IRadioVoice.h"
  },
  {
   "function_name" : "aidl::android::hardware::radio::voice::IRadioVoiceDefault::conference",
   "linker_set_key" : "_ZN4aidl7android8hardware5radio5voice18IRadioVoiceDefault10conferenceEi",
   "parameters" :
   [
    {
     "is_this_ptr" : true,
     "referenced_type" : "_ZTIPN4aidl7android8hardware5radio5voice18IRadioVoiceDefaultE"
    },
    {
     "referenced_type" : "_ZTIi"
    }
   ],
   "return_type" : "_ZTIN3ndk13ScopedAStatusE",
   "source_file" : "out/soong/.intermediates/hardware/interfaces/radio/aidl/android.hardware.radio.voice-V1-ndk-source/gen/include/aidl/android/hardware/radio/voice/IRadioVoice.h"
  },
  {
   "function_name" : "aidl::android::hardware::radio::voice::IRadioVoiceDefault::getTtyMode",
   "linker_set_key" : "_ZN4aidl7android8hardware5radio5voice18IRadioVoiceDefault10getTtyModeEi",
   "parameters" :
   [
    {
     "is_this_ptr" : true,
     "referenced_type" : "_ZTIPN4aidl7android8hardware5radio5voice18IRadioVoiceDefaultE"
    },
    {
     "referenced_type" : "_ZTIi"
    }
   ],
   "return_type" : "_ZTIN3ndk13ScopedAStatusE",
   "source_file" : "out/soong/.intermediates/hardware/interfaces/radio/aidl/android.hardware.radio.voice-V1-ndk-source/gen/include/aidl/android/hardware/radio/voice/IRadioVoice.h"
  },
  {
   "function_name" : "aidl::android::hardware::radio::voice::IRadioVoiceDefault::rejectCall",
   "linker_set_key" : "_ZN4aidl7android8hardware5radio5voice18IRadioVoiceDefault10rejectCallEi",
   "parameters" :
   [
    {
     "is_this_ptr" : true,
     "referenced_type" : "_ZTIPN4aidl7android8hardware5radio5voice18IRadioVoiceDefaultE"
    },
    {
     "referenced_type" : "_ZTIi"
    }
   ],
   "return_type" : "_ZTIN3ndk13ScopedAStatusE",
   "source_file" : "out/soong/.intermediates/hardware/interfaces/radio/aidl/android.hardware.radio.voice-V1-ndk-source/gen/include/aidl/android/hardware/radio/voice/IRadioVoice.h"
  },
  {
   "function_name" : "aidl::android::hardware::radio::voice::IRadioVoiceDefault::setTtyMode",
   "linker_set_key" : "_ZN4aidl7android8hardware5radio5voice18IRadioVoiceDefault10setTtyModeEiNS3_7TtyModeE",
   "parameters" :
   [
    {
     "is_this_ptr" : true,
     "referenced_type" : "_ZTIPN4aidl7android8hardware5radio5voice18IRadioVoiceDefaultE"
    },
    {
     "referenced_type" : "_ZTIi"
    },
    {
     "referenced_type" : "_ZTIN4aidl7android8hardware5radio5voice7TtyModeE"
    }
   ],
   "return_type" : "_ZTIN3ndk13ScopedAStatusE",
   "source_file" : "out/soong/.intermediates/hardware/interfaces/radio/aidl/android.hardware.radio.voice-V1-ndk-source/gen/include/aidl/android/hardware/radio/voice/IRadioVoice.h"
  },
  {
   "function_name" : "aidl::android::hardware::radio::voice::IRadioVoiceDefault::emergencyDial",
   "linker_set_key" : "_ZN4aidl7android8hardware5radio5voice18IRadioVoiceDefault13emergencyDialEiRKNS3_4DialEiRKNSt3__16vectorINS8_12basic_stringIcNS8_11char_traitsIcEENS8_9allocatorIcEEEENSD_ISF_EEEENS3_20EmergencyCallRoutingEbb",
   "parameters" :
   [
    {
     "is_this_ptr" : true,
     "referenced_type" : "_ZTIPN4aidl7android8hardware5radio5voice18IRadioVoiceDefaultE"
    },
    {
     "referenced_type" : "_ZTIi"
    },
    {
     "referenced_type" : "_ZTIRKN4aidl7android8hardware5radio5voice4DialE"
    },
    {
     "referenced_type" : "_ZTIi"
    },
    {
     "referenced_type" : "_ZTIRKNSt3__16vectorINS_12basic_stringIcNS_11char_traitsIcEENS_9allocatorIcEEEENS4_IS6_EEEE"
    },
    {
     "referenced_type" : "_ZTIN4aidl7android8hardware5radio5voice20EmergencyCallRoutingE"
    },
    {
     "referenced_type" : "_ZTIb"
    },
    {
     "referenced_type" : "_ZTIb"
    }
   ],
   "return_type" : "_ZTIN3ndk13ScopedAStatusE",
   "source_file" : "out/soong/.intermediates/hardware/interfaces/radio/aidl/android.hardware.radio.voice-V1-ndk-source/gen/include/aidl/android/hardware/radio/voice/IRadioVoice.h"
  },
  {
   "function_name" : "aidl::android::hardware::radio::voice::IRadioVoiceDefault::isVoNrEnabled",
   "linker_set_key" : "_ZN4aidl7android8hardware5radio5voice18IRadioVoiceDefault13isVoNrEnabledEi",
   "parameters" :
   [
    {
     "is_this_ptr" : true,
     "referenced_type" : "_ZTIPN4aidl7android8hardware5radio5voice18IRadioVoiceDefaultE"
    },
    {
     "referenced_type" : "_ZTIi"
    }
   ],
   "return_type" : "_ZTIN3ndk13ScopedAStatusE",
   "source_file" : "out/soong/.intermediates/hardware/interfaces/radio/aidl/android.hardware.radio.voice-V1-ndk-source/gen/include/aidl/android/hardware/radio/voice/IRadioVoice.h"
  },
  {
   "function_name" : "aidl::android::hardware::radio::voice::IRadioVoiceDefault::sendBurstDtmf",
   "linker_set_key" : "_ZN4aidl7android8hardware5radio5voice18IRadioVoiceDefault13sendBurstDtmfEiRKNSt3__112basic_stringIcNS5_11char_traitsIcEENS5_9allocatorIcEEEEii",
   "parameters" :
   [
    {
     "is_this_ptr" : true,
     "referenced_type" : "_ZTIPN4aidl7android8hardware5radio5voice18IRadioVoiceDefaultE"
    },
    {
     "referenced_type" : "_ZTIi"
    },
    {
     "referenced_type" : "_ZTIRKNSt3__112basic_stringIcNS_11char_traitsIcEENS_9allocatorIcEEEE"
    },
    {
     "referenced_type" : "_ZTIi"
    },
    {
     "referenced_type" : "_ZTIi"
    }
   ],
   "return_type" : "_ZTIN3ndk13ScopedAStatusE",
   "source_file" : "out/soong/.intermediates/hardware/interfaces/radio/aidl/android.hardware.radio.voice-V1-ndk-source/gen/include/aidl/android/hardware/radio/voice/IRadioVoice.h"
  },
  {
   "function_name" : "aidl::android::hardware::radio::voice::IRadioVoiceDefault::getCallWaiting",
   "linker_set_key" : "_ZN4aidl7android8hardware5radio5voice18IRadioVoiceDefault14getCallWaitingEii",
   "parameters" :
   [
    {
     "is_this_ptr" : true,
     "referenced_type" : "_ZTIPN4aidl7android8hardware5radio5voice18IRadioVoiceDefaultE"
    },
    {
     "referenced_type" : "_ZTIi"
    },
    {
     "referenced_type" : "_ZTIi"
    }
   ],
   "return_type" : "_ZTIN3ndk13ScopedAStatusE",
   "source_file" : "out/soong/.intermediates/hardware/interfaces/radio/aidl/android.hardware.radio.voice-V1-ndk-source/gen/include/aidl/android/hardware/radio/voice/IRadioVoice.h"
  },
  {
   "function_name" : "aidl::android::hardware::radio::voice::IRadioVoiceDefault::setCallForward",
   "linker_set_key" : "_ZN4aidl7android8hardware5radio5voice18IRadioVoiceDefault14setCallForwardEiRKNS3_15CallForwardInfoE",
   "parameters" :
   [
    {
     "is_this_ptr" : true,
     "referenced_type" : "_ZTIPN4aidl7android8hardware5radio5voice18IRadioVoiceDefaultE"
    },
    {
     "referenced_type" : "_ZTIi"
    },
    {
     "referenced_type" : "_ZTIRKN4aidl7android8hardware5radio5voice15CallForwardInfoE"
    }
   ],
   "return_type" : "_ZTIN3ndk13ScopedAStatusE",
   "source_file" : "out/soong/.intermediates/hardware/interfaces/radio/aidl/android.hardware.radio.voice-V1-ndk-source/gen/include/aidl/android/hardware/radio/voice/IRadioVoice.h"
  },
  {
   "function_name" : "aidl::android::hardware::radio::voice::IRadioVoiceDefault::setCallWaiting",
   "linker_set_key" : "_ZN4aidl7android8hardware5radio5voice18IRadioVoiceDefault14setCallWaitingEibi",
   "parameters" :
   [
    {
     "is_this_ptr" : true,
     "referenced_type" : "_ZTIPN4aidl7android8hardware5radio5voice18IRadioVoiceDefaultE"
    },
    {
     "referenced_type" : "_ZTIi"
    },
    {
     "referenced_type" : "_ZTIb"
    },
    {
     "referenced_type" : "_ZTIi"
    }
   ],
   "return_type" : "_ZTIN3ndk13ScopedAStatusE",
   "source_file" : "out/soong/.intermediates/hardware/interfaces/radio/aidl/android.hardware.radio.voice-V1-ndk-source/gen/include/aidl/android/hardware/radio/voice/IRadioVoice.h"
  },
  {
   "function_name" : "aidl::android::hardware::radio::voice::IRadioVoiceDefault::setVoNrEnabled",
   "linker_set_key" : "_ZN4aidl7android8hardware5radio5voice18IRadioVoiceDefault14setVoNrEnabledEib",
   "parameters" :
   [
    {
     "is_this_ptr" : true,
     "referenced_type" : "_ZTIPN4aidl7android8hardware5radio5voice18IRadioVoiceDefaultE"
    },
    {
     "referenced_type" : "_ZTIi"
    },
    {
     "referenced_type" : "_ZTIb"
    }
   ],
   "return_type" : "_ZTIN3ndk13ScopedAStatusE",
   "source_file" : "out/soong/.intermediates/hardware/interfaces/radio/aidl/android.hardware.radio.voice-V1-ndk-source/gen/include/aidl/android/hardware/radio/voice/IRadioVoice.h"
  },
  {
   "function_name" : "aidl::android::hardware::radio::voice::IRadioVoiceDefault::getCurrentCalls",
   "linker_set_key" : "_ZN4aidl7android8hardware5radio5voice18IRadioVoiceDefault15getCurrentCallsEi",
   "parameters" :
   [
    {
     "is_this_ptr" : true,
     "referenced_type" : "_ZTIPN4aidl7android8hardware5radio5voice18IRadioVoiceDefaultE"
    },
    {
     "referenced_type" : "_ZTIi"
    }
   ],
   "return_type" : "_ZTIN3ndk13ScopedAStatusE",
   "source_file" : "out/soong/.intermediates/hardware/interfaces/radio/aidl/android.hardware.radio.voice-V1-ndk-source/gen/include/aidl/android/hardware/radio/voice/IRadioVoice.h"
  },
  {
   "function_name" : "aidl::android::hardware::radio::voice::IRadioVoiceDefault::getInterfaceHash",
   "linker_set_key" : "_ZN4aidl7android8hardware5radio5voice18IRadioVoiceDefault16getInterfaceHashEPNSt3__112basic_stringIcNS5_11char_traitsIcEENS5_9allocatorIcEEEE",
   "parameters" :
   [
    {
     "is_this_ptr" : true,
     "referenced_type" : "_ZTIPN4aidl7android8hardware5radio5voice18IRadioVoiceDefaultE"
    },
    {
     "referenced_type" : "_ZTIPNSt3__112basic_stringIcNS_11char_traitsIcEENS_9allocatorIcEEEE"
    }
   ],
   "return_type" : "_ZTIN3ndk13ScopedAStatusE",
   "source_file" : "out/soong/.intermediates/hardware/interfaces/radio/aidl/android.hardware.radio.voice-V1-ndk-source/gen/include/aidl/android/hardware/radio/voice/IRadioVoice.h"
  },
  {
   "function_name" : "aidl::android::hardware::radio::voice::IRadioVoiceDefault::cancelPendingUssd",
   "linker_set_key" : "_ZN4aidl7android8hardware5radio5voice18IRadioVoiceDefault17cancelPendingUssdEi",
   "parameters" :
   [
    {
     "is_this_ptr" : true,
     "referenced_type" : "_ZTIPN4aidl7android8hardware5radio5voice18IRadioVoiceDefaultE"
    },
    {
     "referenced_type" : "_ZTIi"
    }
   ],
   "return_type" : "_ZTIN3ndk13ScopedAStatusE",
   "source_file" : "out/soong/.intermediates/hardware/interfaces/radio/aidl/android.hardware.radio.voice-V1-ndk-source/gen/include/aidl/android/hardware/radio/voice/IRadioVoice.h"
  },
  {
   "function_name" : "aidl::android::hardware::radio::voice::IRadioVoiceDefault::separateConnection",
   "linker_set_key" : "_ZN4aidl7android8hardware5radio5voice18IRadioVoiceDefault18separateConnectionEii",
   "parameters" :
   [
    {
     "is_this_ptr" : true,
     "referenced_type" : "_ZTIPN4aidl7android8hardware5radio5voice18IRadioVoiceDefaultE"
    },
    {
     "referenced_type" : "_ZTIi"
    },
    {
     "referenced_type" : "_ZTIi"
    }
   ],
   "return_type" : "_ZTIN3ndk13ScopedAStatusE",
   "source_file" : "out/soong/.intermediates/hardware/interfaces/radio/aidl/android.hardware.radio.voice-V1-ndk-source/gen/include/aidl/android/hardware/radio/voice/IRadioVoice.h"
  },
  {
   "function_name" : "aidl::android::hardware::radio::voice::IRadioVoiceDefault::getInterfaceVersion",
   "linker_set_key" : "_ZN4aidl7android8hardware5radio5voice18IRadioVoiceDefault19getInterfaceVersionEPi",
   "parameters" :
   [
    {
     "is_this_ptr" : true,
     "referenced_type" : "_ZTIPN4aidl7android8hardware5radio5voice18IRadioVoiceDefaultE"
    },
    {
     "referenced_type" : "_ZTIPi"
    }
   ],
   "return_type" : "_ZTIN3ndk13ScopedAStatusE",
   "source_file" : "out/soong/.intermediates/hardware/interfaces/radio/aidl/android.hardware.radio.voice-V1-ndk-source/gen/include/aidl/android/hardware/radio/voice/IRadioVoice.h"
  },
  {
   "function_name" : "aidl::android::hardware::radio::voice::IRadioVoiceDefault::sendCdmaFeatureCode",
   "linker_set_key" : "_ZN4aidl7android8hardware5radio5voice18IRadioVoiceDefault19sendCdmaFeatureCodeEiRKNSt3__112basic_stringIcNS5_11char_traitsIcEENS5_9allocatorIcEEEE",
   "parameters" :
   [
    {
     "is_this_ptr" : true,
     "referenced_type" : "_ZTIPN4aidl7android8hardware5radio5voice18IRadioVoiceDefaultE"
    },
    {
     "referenced_type" : "_ZTIi"
    },
    {
     "referenced_type" : "_ZTIRKNSt3__112basic_stringIcNS_11char_traitsIcEENS_9allocatorIcEEEE"
    }
   ],
   "return_type" : "_ZTIN3ndk13ScopedAStatusE",
   "source_file" : "out/soong/.intermediates/hardware/interfaces/radio/aidl/android.hardware.radio.voice-V1-ndk-source/gen/include/aidl/android/hardware/radio/voice/IRadioVoice.h"
  },
  {
   "function_name" : "aidl::android::hardware::radio::voice::IRadioVoiceDefault::explicitCallTransfer",
   "linker_set_key" : "_ZN4aidl7android8hardware5radio5voice18IRadioVoiceDefault20explicitCallTransferEi",
   "parameters" :
   [
    {
     "is_this_ptr" : true,
     "referenced_type" : "_ZTIPN4aidl7android8hardware5radio5voice18IRadioVoiceDefaultE"
    },
    {
     "referenced_type" : "_ZTIi"
    }
   ],
   "return_type" : "_ZTIN3ndk13ScopedAStatusE",
   "source_file" : "out/soong/.intermediates/hardware/interfaces/radio/aidl/android.hardware.radio.voice-V1-ndk-source/gen/include/aidl/android/hardware/radio/voice/IRadioVoice.h"
  },
  {
   "function_name" : "aidl::android::hardware::radio::voice::IRadioVoiceDefault::getCallForwardStatus",
   "linker_set_key" : "_ZN4aidl7android8hardware5radio5voice18IRadioVoiceDefault20getCallForwardStatusEiRKNS3_15CallForwardInfoE",
   "parameters" :
   [
    {
     "is_this_ptr" : true,
     "referenced_type" : "_ZTIPN4aidl7android8hardware5radio5voice18IRadioVoiceDefaultE"
    },
    {
     "referenced_type" : "_ZTIi"
    },
    {
     "referenced_type" : "_ZTIRKN4aidl7android8hardware5radio5voice15CallForwardInfoE"
    }
   ],
   "return_type" : "_ZTIN3ndk13ScopedAStatusE",
   "source_file" : "out/soong/.intermediates/hardware/interfaces/radio/aidl/android.hardware.radio.voice-V1-ndk-source/gen/include/aidl/android/hardware/radio/voice/IRadioVoice.h"
  },
  {
   "function_name" : "aidl::android::hardware::radio::voice::IRadioVoiceDefault::getLastCallFailCause",
   "linker_set_key" : "_ZN4aidl7android8hardware5radio5voice18IRadioVoiceDefault20getLastCallFailCauseEi",
   "parameters" :
   [
    {
     "is_this_ptr" : true,
     "referenced_type" : "_ZTIPN4aidl7android8hardware5radio5voice18IRadioVoiceDefaultE"
    },
    {
     "referenced_type" : "_ZTIi"
    }
   ],
   "return_type" : "_ZTIN3ndk13ScopedAStatusE",
   "source_file" : "out/soong/.intermediates/hardware/interfaces/radio/aidl/android.hardware.radio.voice-V1-ndk-source/gen/include/aidl/android/hardware/radio/voice/IRadioVoice.h"
  },
  {
   "function_name" : "aidl::android::hardware::radio::voice::IRadioVoiceDefault::setResponseFunctions",
   "linker_set_key" : "_ZN4aidl7android8hardware5radio5voice18IRadioVoiceDefault20setResponseFunctionsERKNSt3__110shared_ptrINS3_19IRadioVoiceResponseEEERKNS6_INS3_21IRadioVoiceIndicationEEE",
   "parameters" :
   [
    {
     "is_this_ptr" : true,
     "referenced_type" : "_ZTIPN4aidl7android8hardware5radio5voice18IRadioVoiceDefaultE"
    },
    {
     "referenced_type" : "_ZTIRKNSt3__110shared_ptrIN4aidl7android8hardware5radio5voice19IRadioVoiceResponseEEE"
    },
    {
     "referenced_type" : "_ZTIRKNSt3__110shared_ptrIN4aidl7android8hardware5radio5voice21IRadioVoiceIndicationEEE"
    }
   ],
   "return_type" : "_ZTIN3ndk13ScopedAStatusE",
   "source_file" : "out/soong/.intermediates/hardware/interfaces/radio/aidl/android.hardware.radio.voice-V1-ndk-source/gen/include/aidl/android/hardware/radio/voice/IRadioVoice.h"
  },
  {
   "function_name" : "aidl::android::hardware::radio::voice::IRadioVoiceDefault::responseAcknowledgement",
   "linker_set_key" : "_ZN4aidl7android8hardware5radio5voice18IRadioVoiceDefault23responseAcknowledgementEv",
   "parameters" :
   [
    {
     "is_this_ptr" : true,
     "referenced_type" : "_ZTIPN4aidl7android8hardware5radio5voice18IRadioVoiceDefaultE"
    }
   ],
   "return_type" : "_ZTIN3ndk13ScopedAStatusE",
   "source_file" : "out/soong/.intermediates/hardware/interfaces/radio/aidl/android.hardware.radio.voice-V1-ndk-source/gen/include/aidl/android/hardware/radio/voice/IRadioVoice.h"
  },
  {
   "function_name" : "aidl::android::hardware::radio::voice::IRadioVoiceDefault::getPreferredVoicePrivacy",
   "linker_set_key" : "_ZN4aidl7android8hardware5radio5voice18IRadioVoiceDefault24getPreferredVoicePrivacyEi",
   "parameters" :
   [
    {
     "is_this_ptr" : true,
     "referenced_type" : "_ZTIPN4aidl7android8hardware5radio5voice18IRadioVoiceDefaultE"
    },
    {
     "referenced_type" : "_ZTIi"
    }
   ],
   "return_type" : "_ZTIN3ndk13ScopedAStatusE",
   "source_file" : "out/soong/.intermediates/hardware/interfaces/radio/aidl/android.hardware.radio.voice-V1-ndk-source/gen/include/aidl/android/hardware/radio/voice/IRadioVoice.h"
  },
  {
   "function_name" : "aidl::android::hardware::radio::voice::IRadioVoiceDefault::setPreferredVoicePrivacy",
   "linker_set_key" : "_ZN4aidl7android8hardware5radio5voice18IRadioVoiceDefault24setPreferredVoicePrivacyEib",
   "parameters" :
   [
    {
     "is_this_ptr" : true,
     "referenced_type" : "_ZTIPN4aidl7android8hardware5radio5voice18IRadioVoiceDefaultE"
    },
    {
     "referenced_type" : "_ZTIi"
    },
    {
     "referenced_type" : "_ZTIb"
    }
   ],
   "return_type" : "_ZTIN3ndk13ScopedAStatusE",
   "source_file" : "out/soong/.intermediates/hardware/interfaces/radio/aidl/android.hardware.radio.voice-V1-ndk-source/gen/include/aidl/android/hardware/radio/voice/IRadioVoice.h"
  },
  {
   "function_name" : "aidl::android::hardware::radio::voice::IRadioVoiceDefault::exitEmergencyCallbackMode",
   "linker_set_key" : "_ZN4aidl7android8hardware5radio5voice18IRadioVoiceDefault25exitEmergencyCallbackModeEi",
   "parameters" :
   [
    {
     "is_this_ptr" : true,
     "referenced_type" : "_ZTIPN4aidl7android8hardware5radio5voice18IRadioVoiceDefaultE"
    },
    {
     "referenced_type" : "_ZTIi"
    }
   ],
   "return_type" : "_ZTIN3ndk13ScopedAStatusE",
   "source_file" : "out/soong/.intermediates/hardware/interfaces/radio/aidl/android.hardware.radio.voice-V1-ndk-source/gen/include/aidl/android/hardware/radio/voice/IRadioVoice.h"
  },
  {
   "function_name" : "aidl::android::hardware::radio::voice::IRadioVoiceDefault::hangupWaitingOrBackground",
   "linker_set_key" : "_ZN4aidl7android8hardware5radio5voice18IRadioVoiceDefault25hangupWaitingOrBackgroundEi",
   "parameters" :
   [
    {
     "is_this_ptr" : true,
     "referenced_type" : "_ZTIPN4aidl7android8hardware5radio5voice18IRadioVoiceDefaultE"
    },
    {
     "referenced_type" : "_ZTIi"
    }
   ],
   "return_type" : "_ZTIN3ndk13ScopedAStatusE",
   "source_file" : "out/soong/.intermediates/hardware/interfaces/radio/aidl/android.hardware.radio.voice-V1-ndk-source/gen/include/aidl/android/hardware/radio/voice/IRadioVoice.h"
  },
  {
   "function_name" : "aidl::android::hardware::radio::voice::IRadioVoiceDefault::switchWaitingOrHoldingAndActive",
   "linker_set_key" : "_ZN4aidl7android8hardware5radio5voice18IRadioVoiceDefault31switchWaitingOrHoldingAndActiveEi",
   "parameters" :
   [
    {
     "is_this_ptr" : true,
     "referenced_type" : "_ZTIPN4aidl7android8hardware5radio5voice18IRadioVoiceDefaultE"
    },
    {
     "referenced_type" : "_ZTIi"
    }
   ],
   "return_type" : "_ZTIN3ndk13ScopedAStatusE",
   "source_file" : "out/soong/.intermediates/hardware/interfaces/radio/aidl/android.hardware.radio.voice-V1-ndk-source/gen/include/aidl/android/hardware/radio/voice/IRadioVoice.h"
  },
  {
   "function_name" : "aidl::android::hardware::radio::voice::IRadioVoiceDefault::handleStkCallSetupRequestFromSim",
   "linker_set_key" : "_ZN4aidl7android8hardware5radio5voice18IRadioVoiceDefault32handleStkCallSetupRequestFromSimEib",
   "parameters" :
   [
    {
     "is_this_ptr" : true,
     "referenced_type" : "_ZTIPN4aidl7android8hardware5radio5voice18IRadioVoiceDefaultE"
    },
    {
     "referenced_type" : "_ZTIi"
    },
    {
     "referenced_type" : "_ZTIb"
    }
   ],
   "return_type" : "_ZTIN3ndk13ScopedAStatusE",
   "source_file" : "out/soong/.intermediates/hardware/interfaces/radio/aidl/android.hardware.radio.voice-V1-ndk-source/gen/include/aidl/android/hardware/radio/voice/IRadioVoice.h"
  },
  {
   "function_name" : "aidl::android::hardware::radio::voice::IRadioVoiceDefault::hangupForegroundResumeBackground",
   "linker_set_key" : "_ZN4aidl7android8hardware5radio5voice18IRadioVoiceDefault32hangupForegroundResumeBackgroundEi",
   "parameters" :
   [
    {
     "is_this_ptr" : true,
     "referenced_type" : "_ZTIPN4aidl7android8hardware5radio5voice18IRadioVoiceDefaultE"
    },
    {
     "referenced_type" : "_ZTIi"
    }
   ],
   "return_type" : "_ZTIN3ndk13ScopedAStatusE",
   "source_file" : "out/soong/.intermediates/hardware/interfaces/radio/aidl/android.hardware.radio.voice-V1-ndk-source/gen/include/aidl/android/hardware/radio/voice/IRadioVoice.h"
  },
  {
   "function_name" : "aidl::android::hardware::radio::voice::IRadioVoiceDefault::dial",
   "linker_set_key" : "_ZN4aidl7android8hardware5radio5voice18IRadioVoiceDefault4dialEiRKNS3_4DialE",
   "parameters" :
   [
    {
     "is_this_ptr" : true,
     "referenced_type" : "_ZTIPN4aidl7android8hardware5radio5voice18IRadioVoiceDefaultE"
    },
    {
     "referenced_type" : "_ZTIi"
    },
    {
     "referenced_type" : "_ZTIRKN4aidl7android8hardware5radio5voice4DialE"
    }
   ],
   "return_type" : "_ZTIN3ndk13ScopedAStatusE",
   "source_file" : "out/soong/.intermediates/hardware/interfaces/radio/aidl/android.hardware.radio.voice-V1-ndk-source/gen/include/aidl/android/hardware/radio/voice/IRadioVoice.h"
  },
  {
   "function_name" : "aidl::android::hardware::radio::voice::IRadioVoiceDefault::hangup",
   "linker_set_key" : "_ZN4aidl7android8hardware5radio5voice18IRadioVoiceDefault6hangupEii",
   "parameters" :
   [
    {
     "is_this_ptr" : true,
     "referenced_type" : "_ZTIPN4aidl7android8hardware5radio5voice18IRadioVoiceDefaultE"
    },
    {
     "referenced_type" : "_ZTIi"
    },
    {
     "referenced_type" : "_ZTIi"
    }
   ],
   "return_type" : "_ZTIN3ndk13ScopedAStatusE",
   "source_file" : "out/soong/.intermediates/hardware/interfaces/radio/aidl/android.hardware.radio.voice-V1-ndk-source/gen/include/aidl/android/hardware/radio/voice/IRadioVoice.h"
  },
  {
   "function_name" : "aidl::android::hardware::radio::voice::IRadioVoiceDefault::getClip",
   "linker_set_key" : "_ZN4aidl7android8hardware5radio5voice18IRadioVoiceDefault7getClipEi",
   "parameters" :
   [
    {
     "is_this_ptr" : true,
     "referenced_type" : "_ZTIPN4aidl7android8hardware5radio5voice18IRadioVoiceDefaultE"
    },
    {
     "referenced_type" : "_ZTIi"
    }
   ],
   "return_type" : "_ZTIN3ndk13ScopedAStatusE",
   "source_file" : "out/soong/.intermediates/hardware/interfaces/radio/aidl/android.hardware.radio.voice-V1-ndk-source/gen/include/aidl/android/hardware/radio/voice/IRadioVoice.h"
  },
  {
   "function_name" : "aidl::android::hardware::radio::voice::IRadioVoiceDefault::getClir",
   "linker_set_key" : "_ZN4aidl7android8hardware5radio5voice18IRadioVoiceDefault7getClirEi",
   "parameters" :
   [
    {
     "is_this_ptr" : true,
     "referenced_type" : "_ZTIPN4aidl7android8hardware5radio5voice18IRadioVoiceDefaultE"
    },
    {
     "referenced_type" : "_ZTIi"
    }
   ],
   "return_type" : "_ZTIN3ndk13ScopedAStatusE",
   "source_file" : "out/soong/.intermediates/hardware/interfaces/radio/aidl/android.hardware.radio.voice-V1-ndk-source/gen/include/aidl/android/hardware/radio/voice/IRadioVoice.h"
  },
  {
   "function_name" : "aidl::android::hardware::radio::voice::IRadioVoiceDefault::getMute",
   "linker_set_key" : "_ZN4aidl7android8hardware5radio5voice18IRadioVoiceDefault7getMuteEi",
   "parameters" :
   [
    {
     "is_this_ptr" : true,
     "referenced_type" : "_ZTIPN4aidl7android8hardware5radio5voice18IRadioVoiceDefaultE"
    },
    {
     "referenced_type" : "_ZTIi"
    }
   ],
   "return_type" : "_ZTIN3ndk13ScopedAStatusE",
   "source_file" : "out/soong/.intermediates/hardware/interfaces/radio/aidl/android.hardware.radio.voice-V1-ndk-source/gen/include/aidl/android/hardware/radio/voice/IRadioVoice.h"
  },
  {
   "function_name" : "aidl::android::hardware::radio::voice::IRadioVoiceDefault::setClir",
   "linker_set_key" : "_ZN4aidl7android8hardware5radio5voice18IRadioVoiceDefault7setClirEii",
   "parameters" :
   [
    {
     "is_this_ptr" : true,
     "referenced_type" : "_ZTIPN4aidl7android8hardware5radio5voice18IRadioVoiceDefaultE"
    },
    {
     "referenced_type" : "_ZTIi"
    },
    {
     "referenced_type" : "_ZTIi"
    }
   ],
   "return_type" : "_ZTIN3ndk13ScopedAStatusE",
   "source_file" : "out/soong/.intermediates/hardware/interfaces/radio/aidl/android.hardware.radio.voice-V1-ndk-source/gen/include/aidl/android/hardware/radio/voice/IRadioVoice.h"
  },
  {
   "function_name" : "aidl::android::hardware::radio::voice::IRadioVoiceDefault::setMute",
   "linker_set_key" : "_ZN4aidl7android8hardware5radio5voice18IRadioVoiceDefault7setMuteEib",
   "parameters" :
   [
    {
     "is_this_ptr" : true,
     "referenced_type" : "_ZTIPN4aidl7android8hardware5radio5voice18IRadioVoiceDefaultE"
    },
    {
     "referenced_type" : "_ZTIi"
    },
    {
     "referenced_type" : "_ZTIb"
    }
   ],
   "return_type" : "_ZTIN3ndk13ScopedAStatusE",
   "source_file" : "out/soong/.intermediates/hardware/interfaces/radio/aidl/android.hardware.radio.voice-V1-ndk-source/gen/include/aidl/android/hardware/radio/voice/IRadioVoice.h"
  },
  {
   "function_name" : "aidl::android::hardware::radio::voice::IRadioVoiceDefault::asBinder",
   "linker_set_key" : "_ZN4aidl7android8hardware5radio5voice18IRadioVoiceDefault8asBinderEv",
   "parameters" :
   [
    {
     "is_this_ptr" : true,
     "referenced_type" : "_ZTIPN4aidl7android8hardware5radio5voice18IRadioVoiceDefaultE"
    }
   ],
   "return_type" : "_ZTIN3ndk10SpAIBinderE",
   "source_file" : "out/soong/.intermediates/hardware/interfaces/radio/aidl/android.hardware.radio.voice-V1-ndk-source/gen/include/aidl/android/hardware/radio/voice/IRadioVoice.h"
  },
  {
   "function_name" : "aidl::android::hardware::radio::voice::IRadioVoiceDefault::isRemote",
   "linker_set_key" : "_ZN4aidl7android8hardware5radio5voice18IRadioVoiceDefault8isRemoteEv",
   "parameters" :
   [
    {
     "is_this_ptr" : true,
     "referenced_type" : "_ZTIPN4aidl7android8hardware5radio5voice18IRadioVoiceDefaultE"
    }
   ],
   "return_type" : "_ZTIb",
   "source_file" : "out/soong/.intermediates/hardware/interfaces/radio/aidl/android.hardware.radio.voice-V1-ndk-source/gen/include/aidl/android/hardware/radio/voice/IRadioVoice.h"
  },
  {
   "function_name" : "aidl::android::hardware::radio::voice::IRadioVoiceDefault::sendDtmf",
   "linker_set_key" : "_ZN4aidl7android8hardware5radio5voice18IRadioVoiceDefault8sendDtmfEiRKNSt3__112basic_stringIcNS5_11char_traitsIcEENS5_9allocatorIcEEEE",
   "parameters" :
   [
    {
     "is_this_ptr" : true,
     "referenced_type" : "_ZTIPN4aidl7android8hardware5radio5voice18IRadioVoiceDefaultE"
    },
    {
     "referenced_type" : "_ZTIi"
    },
    {
     "referenced_type" : "_ZTIRKNSt3__112basic_stringIcNS_11char_traitsIcEENS_9allocatorIcEEEE"
    }
   ],
   "return_type" : "_ZTIN3ndk13ScopedAStatusE",
   "source_file" : "out/soong/.intermediates/hardware/interfaces/radio/aidl/android.hardware.radio.voice-V1-ndk-source/gen/include/aidl/android/hardware/radio/voice/IRadioVoice.h"
  },
  {
   "function_name" : "aidl::android::hardware::radio::voice::IRadioVoiceDefault::sendUssd",
   "linker_set_key" : "_ZN4aidl7android8hardware5radio5voice18IRadioVoiceDefault8sendUssdEiRKNSt3__112basic_stringIcNS5_11char_traitsIcEENS5_9allocatorIcEEEE",
   "parameters" :
   [
    {
     "is_this_ptr" : true,
     "referenced_type" : "_ZTIPN4aidl7android8hardware5radio5voice18IRadioVoiceDefaultE"
    },
    {
     "referenced_type" : "_ZTIi"
    },
    {
     "referenced_type" : "_ZTIRKNSt3__112basic_stringIcNS_11char_traitsIcEENS_9allocatorIcEEEE"
    }
   ],
   "return_type" : "_ZTIN3ndk13ScopedAStatusE",
   "source_file" : "out/soong/.intermediates/hardware/interfaces/radio/aidl/android.hardware.radio.voice-V1-ndk-source/gen/include/aidl/android/hardware/radio/voice/IRadioVoice.h"
  },
  {
   "function_name" : "aidl::android::hardware::radio::voice::IRadioVoiceDefault::stopDtmf",
   "linker_set_key" : "_ZN4aidl7android8hardware5radio5voice18IRadioVoiceDefault8stopDtmfEi",
   "parameters" :
   [
    {
     "is_this_ptr" : true,
     "referenced_type" : "_ZTIPN4aidl7android8hardware5radio5voice18IRadioVoiceDefaultE"
    },
    {
     "referenced_type" : "_ZTIi"
    }
   ],
   "return_type" : "_ZTIN3ndk13ScopedAStatusE",
   "source_file" : "out/soong/.intermediates/hardware/interfaces/radio/aidl/android.hardware.radio.voice-V1-ndk-source/gen/include/aidl/android/hardware/radio/voice/IRadioVoice.h"
  },
  {
   "function_name" : "aidl::android::hardware::radio::voice::IRadioVoiceDefault::startDtmf",
   "linker_set_key" : "_ZN4aidl7android8hardware5radio5voice18IRadioVoiceDefault9startDtmfEiRKNSt3__112basic_stringIcNS5_11char_traitsIcEENS5_9allocatorIcEEEE",
   "parameters" :
   [
    {
     "is_this_ptr" : true,
     "referenced_type" : "_ZTIPN4aidl7android8hardware5radio5voice18IRadioVoiceDefaultE"
    },
    {
     "referenced_type" : "_ZTIi"
    },
    {
     "referenced_type" : "_ZTIRKNSt3__112basic_stringIcNS_11char_traitsIcEENS_9allocatorIcEEEE"
    }
   ],
   "return_type" : "_ZTIN3ndk13ScopedAStatusE",
   "source_file" : "out/soong/.intermediates/hardware/interfaces/radio/aidl/android.hardware.radio.voice-V1-ndk-source/gen/include/aidl/android/hardware/radio/voice/IRadioVoice.h"
  },
  {
   "function_name" : "aidl::android::hardware::radio::voice::StkCcUnsolSsResult::readFromParcel",
   "linker_set_key" : "_ZN4aidl7android8hardware5radio5voice18StkCcUnsolSsResult14readFromParcelEPK7AParcel",
   "parameters" :
   [
    {
     "is_this_ptr" : true,
     "referenced_type" : "_ZTIPN4aidl7android8hardware5radio5voice18StkCcUnsolSsResultE"
    },
    {
     "referenced_type" : "_ZTIPK7AParcel"
    }
   ],
   "return_type" : "_ZTIi",
   "source_file" : "out/soong/.intermediates/hardware/interfaces/radio/aidl/android.hardware.radio.voice-V1-ndk-source/gen/include/aidl/android/hardware/radio/voice/StkCcUnsolSsResult.h"
  },
  {
   "function_name" : "aidl::android::hardware::radio::voice::IRadioVoiceResponse::fromBinder",
   "linker_set_key" : "_ZN4aidl7android8hardware5radio5voice19IRadioVoiceResponse10fromBinderERKN3ndk10SpAIBinderE",
   "parameters" :
   [
    {
     "referenced_type" : "_ZTIRKN3ndk10SpAIBinderE"
    }
   ],
   "return_type" : "_ZTINSt3__110shared_ptrIN4aidl7android8hardware5radio5voice19IRadioVoiceResponseEEE",
   "source_file" : "out/soong/.intermediates/hardware/interfaces/radio/aidl/android.hardware.radio.voice-V1-ndk-source/gen/include/aidl/android/hardware/radio/voice/IRadioVoiceResponse.h"
  },
  {
   "function_name" : "aidl::android::hardware::radio::voice::IRadioVoiceResponse::writeToParcel",
   "linker_set_key" : "_ZN4aidl7android8hardware5radio5voice19IRadioVoiceResponse13writeToParcelEP7AParcelRKNSt3__110shared_ptrIS4_EE",
   "parameters" :
   [
    {
     "referenced_type" : "_ZTIP7AParcel"
    },
    {
     "referenced_type" : "_ZTIRKNSt3__110shared_ptrIN4aidl7android8hardware5radio5voice19IRadioVoiceResponseEEE"
    }
   ],
   "return_type" : "_ZTIi",
   "source_file" : "out/soong/.intermediates/hardware/interfaces/radio/aidl/android.hardware.radio.voice-V1-ndk-source/gen/include/aidl/android/hardware/radio/voice/IRadioVoiceResponse.h"
  },
  {
   "function_name" : "aidl::android::hardware::radio::voice::IRadioVoiceResponse::getDefaultImpl",
   "linker_set_key" : "_ZN4aidl7android8hardware5radio5voice19IRadioVoiceResponse14getDefaultImplEv",
   "return_type" : "_ZTIRKNSt3__110shared_ptrIN4aidl7android8hardware5radio5voice19IRadioVoiceResponseEEE",
   "source_file" : "out/soong/.intermediates/hardware/interfaces/radio/aidl/android.hardware.radio.voice-V1-ndk-source/gen/include/aidl/android/hardware/radio/voice/IRadioVoiceResponse.h"
  },
  {
   "function_name" : "aidl::android::hardware::radio::voice::IRadioVoiceResponse::readFromParcel",
   "linker_set_key" : "_ZN4aidl7android8hardware5radio5voice19IRadioVoiceResponse14readFromParcelEPK7AParcelPNSt3__110shared_ptrIS4_EE",
   "parameters" :
   [
    {
     "referenced_type" : "_ZTIPK7AParcel"
    },
    {
     "referenced_type" : "_ZTIPNSt3__110shared_ptrIN4aidl7android8hardware5radio5voice19IRadioVoiceResponseEEE"
    }
   ],
   "return_type" : "_ZTIi",
   "source_file" : "out/soong/.intermediates/hardware/interfaces/radio/aidl/android.hardware.radio.voice-V1-ndk-source/gen/include/aidl/android/hardware/radio/voice/IRadioVoiceResponse.h"
  },
  {
   "function_name" : "aidl::android::hardware::radio::voice::IRadioVoiceResponse::setDefaultImpl",
   "linker_set_key" : "_ZN4aidl7android8hardware5radio5voice19IRadioVoiceResponse14setDefaultImplERKNSt3__110shared_ptrIS4_EE",
   "parameters" :
   [
    {
     "referenced_type" : "_ZTIRKNSt3__110shared_ptrIN4aidl7android8hardware5radio5voice19IRadioVoiceResponseEEE"
    }
   ],
   "return_type" : "_ZTIb",
   "source_file" : "out/soong/.intermediates/hardware/interfaces/radio/aidl/android.hardware.radio.voice-V1-ndk-source/gen/include/aidl/android/hardware/radio/voice/IRadioVoiceResponse.h"
  },
  {
   "function_name" : "aidl::android::hardware::radio::voice::IRadioVoiceResponse::IRadioVoiceResponse",
   "linker_set_key" : "_ZN4aidl7android8hardware5radio5voice19IRadioVoiceResponseC2Ev",
   "parameters" :
   [
    {
     "is_this_ptr" : true,
     "referenced_type" : "_ZTIPN4aidl7android8hardware5radio5voice19IRadioVoiceResponseE"
    }
   ],
   "return_type" : "_ZTIv",
   "source_file" : "out/soong/.intermediates/hardware/interfaces/radio/aidl/android.hardware.radio.voice-V1-ndk-source/gen/include/aidl/android/hardware/radio/voice/IRadioVoiceResponse.h"
  },
  {
   "function_name" : "aidl::android::hardware::radio::voice::IRadioVoiceResponse::~IRadioVoiceResponse",
   "linker_set_key" : "_ZN4aidl7android8hardware5radio5voice19IRadioVoiceResponseD0Ev",
   "parameters" :
   [
    {
     "is_this_ptr" : true,
     "referenced_type" : "_ZTIPN4aidl7android8hardware5radio5voice19IRadioVoiceResponseE"
    }
   ],
   "return_type" : "_ZTIv",
   "source_file" : "out/soong/.intermediates/hardware/interfaces/radio/aidl/android.hardware.radio.voice-V1-ndk-source/gen/include/aidl/android/hardware/radio/voice/IRadioVoiceResponse.h"
  },
  {
   "function_name" : "aidl::android::hardware::radio::voice::IRadioVoiceResponse::~IRadioVoiceResponse",
   "linker_set_key" : "_ZN4aidl7android8hardware5radio5voice19IRadioVoiceResponseD1Ev",
   "parameters" :
   [
    {
     "is_this_ptr" : true,
     "referenced_type" : "_ZTIPN4aidl7android8hardware5radio5voice19IRadioVoiceResponseE"
    }
   ],
   "return_type" : "_ZTIv",
   "source_file" : "out/soong/.intermediates/hardware/interfaces/radio/aidl/android.hardware.radio.voice-V1-ndk-source/gen/include/aidl/android/hardware/radio/voice/IRadioVoiceResponse.h"
  },
  {
   "function_name" : "aidl::android::hardware::radio::voice::IRadioVoiceResponse::~IRadioVoiceResponse",
   "linker_set_key" : "_ZN4aidl7android8hardware5radio5voice19IRadioVoiceResponseD2Ev",
   "parameters" :
   [
    {
     "is_this_ptr" : true,
     "referenced_type" : "_ZTIPN4aidl7android8hardware5radio5voice19IRadioVoiceResponseE"
    }
   ],
   "return_type" : "_ZTIv",
   "source_file" : "out/soong/.intermediates/hardware/interfaces/radio/aidl/android.hardware.radio.voice-V1-ndk-source/gen/include/aidl/android/hardware/radio/voice/IRadioVoiceResponse.h"
  },
  {
   "access" : "protected",
   "function_name" : "aidl::android::hardware::radio::voice::BnRadioVoiceResponse::createBinder",
   "linker_set_key" : "_ZN4aidl7android8hardware5radio5voice20BnRadioVoiceResponse12createBinderEv",
   "parameters" :
   [
    {
     "is_this_ptr" : true,
     "referenced_type" : "_ZTIPN4aidl7android8hardware5radio5voice20BnRadioVoiceResponseE"
    }
   ],
   "return_type" : "_ZTIN3ndk10SpAIBinderE",
   "source_file" : "out/soong/.intermediates/hardware/interfaces/radio/aidl/android.hardware.radio.voice-V1-ndk-source/gen/include/aidl/android/hardware/radio/voice/BnRadioVoiceResponse.h"
  },
  {
   "function_name" : "aidl::android::hardware::radio::voice::BnRadioVoiceResponse::getInterfaceHash",
   "linker_set_key" : "_ZN4aidl7android8hardware5radio5voice20BnRadioVoiceResponse16getInterfaceHashEPNSt3__112basic_stringIcNS5_11char_traitsIcEENS5_9allocatorIcEEEE",
   "parameters" :
   [
    {
     "is_this_ptr" : true,
     "referenced_type" : "_ZTIPN4aidl7android8hardware5radio5voice20BnRadioVoiceResponseE"
    },
    {
     "referenced_type" : "_ZTIPNSt3__112basic_stringIcNS_11char_traitsIcEENS_9allocatorIcEEEE"
    }
   ],
   "return_type" : "_ZTIN3ndk13ScopedAStatusE",
   "source_file" : "out/soong/.intermediates/hardware/interfaces/radio/aidl/android.hardware.radio.voice-V1-ndk-source/gen/include/aidl/android/hardware/radio/voice/BnRadioVoiceResponse.h"
  },
  {
   "function_name" : "aidl::android::hardware::radio::voice::BnRadioVoiceResponse::getInterfaceVersion",
   "linker_set_key" : "_ZN4aidl7android8hardware5radio5voice20BnRadioVoiceResponse19getInterfaceVersionEPi",
   "parameters" :
   [
    {
     "is_this_ptr" : true,
     "referenced_type" : "_ZTIPN4aidl7android8hardware5radio5voice20BnRadioVoiceResponseE"
    },
    {
     "referenced_type" : "_ZTIPi"
    }
   ],
   "return_type" : "_ZTIN3ndk13ScopedAStatusE",
   "source_file" : "out/soong/.intermediates/hardware/interfaces/radio/aidl/android.hardware.radio.voice-V1-ndk-source/gen/include/aidl/android/hardware/radio/voice/BnRadioVoiceResponse.h"
  },
  {
   "function_name" : "aidl::android::hardware::radio::voice::BnRadioVoiceResponse::BnRadioVoiceResponse",
   "linker_set_key" : "_ZN4aidl7android8hardware5radio5voice20BnRadioVoiceResponseC2Ev",
   "parameters" :
   [
    {
     "is_this_ptr" : true,
     "referenced_type" : "_ZTIPN4aidl7android8hardware5radio5voice20BnRadioVoiceResponseE"
    }
   ],
   "return_type" : "_ZTIv",
   "source_file" : "out/soong/.intermediates/hardware/interfaces/radio/aidl/android.hardware.radio.voice-V1-ndk-source/gen/include/aidl/android/hardware/radio/voice/BnRadioVoiceResponse.h"
  },
  {
   "function_name" : "aidl::android::hardware::radio::voice::BnRadioVoiceResponse::~BnRadioVoiceResponse",
   "linker_set_key" : "_ZN4aidl7android8hardware5radio5voice20BnRadioVoiceResponseD0Ev",
   "parameters" :
   [
    {
     "is_this_ptr" : true,
     "referenced_type" : "_ZTIPN4aidl7android8hardware5radio5voice20BnRadioVoiceResponseE"
    }
   ],
   "return_type" : "_ZTIv",
   "source_file" : "out/soong/.intermediates/hardware/interfaces/radio/aidl/android.hardware.radio.voice-V1-ndk-source/gen/include/aidl/android/hardware/radio/voice/BnRadioVoiceResponse.h"
  },
  {
   "function_name" : "aidl::android::hardware::radio::voice::BnRadioVoiceResponse::~BnRadioVoiceResponse",
   "linker_set_key" : "_ZN4aidl7android8hardware5radio5voice20BnRadioVoiceResponseD1Ev",
   "parameters" :
   [
    {
     "is_this_ptr" : true,
     "referenced_type" : "_ZTIPN4aidl7android8hardware5radio5voice20BnRadioVoiceResponseE"
    }
   ],
   "return_type" : "_ZTIv",
   "source_file" : "out/soong/.intermediates/hardware/interfaces/radio/aidl/android.hardware.radio.voice-V1-ndk-source/gen/include/aidl/android/hardware/radio/voice/BnRadioVoiceResponse.h"
  },
  {
   "function_name" : "aidl::android::hardware::radio::voice::BnRadioVoiceResponse::~BnRadioVoiceResponse",
   "linker_set_key" : "_ZN4aidl7android8hardware5radio5voice20BnRadioVoiceResponseD2Ev",
   "parameters" :
   [
    {
     "is_this_ptr" : true,
     "referenced_type" : "_ZTIPN4aidl7android8hardware5radio5voice20BnRadioVoiceResponseE"
    }
   ],
   "return_type" : "_ZTIv",
   "source_file" : "out/soong/.intermediates/hardware/interfaces/radio/aidl/android.hardware.radio.voice-V1-ndk-source/gen/include/aidl/android/hardware/radio/voice/BnRadioVoiceResponse.h"
  },
  {
   "function_name" : "aidl::android::hardware::radio::voice::BpRadioVoiceResponse::dialResponse",
   "linker_set_key" : "_ZN4aidl7android8hardware5radio5voice20BpRadioVoiceResponse12dialResponseERKNS2_17RadioResponseInfoE",
   "parameters" :
   [
    {
     "is_this_ptr" : true,
     "referenced_type" : "_ZTIPN4aidl7android8hardware5radio5voice20BpRadioVoiceResponseE"
    },
    {
     "referenced_type" : "_ZTIRKN4aidl7android8hardware5radio17RadioResponseInfoE"
    }
   ],
   "return_type" : "_ZTIN3ndk13ScopedAStatusE",
   "source_file" : "out/soong/.intermediates/hardware/interfaces/radio/aidl/android.hardware.radio.voice-V1-ndk-source/gen/include/aidl/android/hardware/radio/voice/BpRadioVoiceResponse.h"
  },
  {
   "function_name" : "aidl::android::hardware::radio::voice::BpRadioVoiceResponse::getClipResponse",
   "linker_set_key" : "_ZN4aidl7android8hardware5radio5voice20BpRadioVoiceResponse15getClipResponseERKNS2_17RadioResponseInfoENS3_10ClipStatusE",
   "parameters" :
   [
    {
     "is_this_ptr" : true,
     "referenced_type" : "_ZTIPN4aidl7android8hardware5radio5voice20BpRadioVoiceResponseE"
    },
    {
     "referenced_type" : "_ZTIRKN4aidl7android8hardware5radio17RadioResponseInfoE"
    },
    {
     "referenced_type" : "_ZTIN4aidl7android8hardware5radio5voice10ClipStatusE"
    }
   ],
   "return_type" : "_ZTIN3ndk13ScopedAStatusE",
   "source_file" : "out/soong/.intermediates/hardware/interfaces/radio/aidl/android.hardware.radio.voice-V1-ndk-source/gen/include/aidl/android/hardware/radio/voice/BpRadioVoiceResponse.h"
  },
  {
   "function_name" : "aidl::android::hardware::radio::voice::BpRadioVoiceResponse::getClirResponse",
   "linker_set_key" : "_ZN4aidl7android8hardware5radio5voice20BpRadioVoiceResponse15getClirResponseERKNS2_17RadioResponseInfoEii",
   "parameters" :
   [
    {
     "is_this_ptr" : true,
     "referenced_type" : "_ZTIPN4aidl7android8hardware5radio5voice20BpRadioVoiceResponseE"
    },
    {
     "referenced_type" : "_ZTIRKN4aidl7android8hardware5radio17RadioResponseInfoE"
    },
    {
     "referenced_type" : "_ZTIi"
    },
    {
     "referenced_type" : "_ZTIi"
    }
   ],
   "return_type" : "_ZTIN3ndk13ScopedAStatusE",
   "source_file" : "out/soong/.intermediates/hardware/interfaces/radio/aidl/android.hardware.radio.voice-V1-ndk-source/gen/include/aidl/android/hardware/radio/voice/BpRadioVoiceResponse.h"
  },
  {
   "function_name" : "aidl::android::hardware::radio::voice::BpRadioVoiceResponse::getMuteResponse",
   "linker_set_key" : "_ZN4aidl7android8hardware5radio5voice20BpRadioVoiceResponse15getMuteResponseERKNS2_17RadioResponseInfoEb",
   "parameters" :
   [
    {
     "is_this_ptr" : true,
     "referenced_type" : "_ZTIPN4aidl7android8hardware5radio5voice20BpRadioVoiceResponseE"
    },
    {
     "referenced_type" : "_ZTIRKN4aidl7android8hardware5radio17RadioResponseInfoE"
    },
    {
     "referenced_type" : "_ZTIb"
    }
   ],
   "return_type" : "_ZTIN3ndk13ScopedAStatusE",
   "source_file" : "out/soong/.intermediates/hardware/interfaces/radio/aidl/android.hardware.radio.voice-V1-ndk-source/gen/include/aidl/android/hardware/radio/voice/BpRadioVoiceResponse.h"
  },
  {
   "function_name" : "aidl::android::hardware::radio::voice::BpRadioVoiceResponse::setClirResponse",
   "linker_set_key" : "_ZN4aidl7android8hardware5radio5voice20BpRadioVoiceResponse15setClirResponseERKNS2_17RadioResponseInfoE",
   "parameters" :
   [
    {
     "is_this_ptr" : true,
     "referenced_type" : "_ZTIPN4aidl7android8hardware5radio5voice20BpRadioVoiceResponseE"
    },
    {
     "referenced_type" : "_ZTIRKN4aidl7android8hardware5radio17RadioResponseInfoE"
    }
   ],
   "return_type" : "_ZTIN3ndk13ScopedAStatusE",
   "source_file" : "out/soong/.intermediates/hardware/interfaces/radio/aidl/android.hardware.radio.voice-V1-ndk-source/gen/include/aidl/android/hardware/radio/voice/BpRadioVoiceResponse.h"
  },
  {
   "function_name" : "aidl::android::hardware::radio::voice::BpRadioVoiceResponse::setMuteResponse",
   "linker_set_key" : "_ZN4aidl7android8hardware5radio5voice20BpRadioVoiceResponse15setMuteResponseERKNS2_17RadioResponseInfoE",
   "parameters" :
   [
    {
     "is_this_ptr" : true,
     "referenced_type" : "_ZTIPN4aidl7android8hardware5radio5voice20BpRadioVoiceResponseE"
    },
    {
     "referenced_type" : "_ZTIRKN4aidl7android8hardware5radio17RadioResponseInfoE"
    }
   ],
   "return_type" : "_ZTIN3ndk13ScopedAStatusE",
   "source_file" : "out/soong/.intermediates/hardware/interfaces/radio/aidl/android.hardware.radio.voice-V1-ndk-source/gen/include/aidl/android/hardware/radio/voice/BpRadioVoiceResponse.h"
  },
  {
   "function_name" : "aidl::android::hardware::radio::voice::BpRadioVoiceResponse::getInterfaceHash",
   "linker_set_key" : "_ZN4aidl7android8hardware5radio5voice20BpRadioVoiceResponse16getInterfaceHashEPNSt3__112basic_stringIcNS5_11char_traitsIcEENS5_9allocatorIcEEEE",
   "parameters" :
   [
    {
     "is_this_ptr" : true,
     "referenced_type" : "_ZTIPN4aidl7android8hardware5radio5voice20BpRadioVoiceResponseE"
    },
    {
     "referenced_type" : "_ZTIPNSt3__112basic_stringIcNS_11char_traitsIcEENS_9allocatorIcEEEE"
    }
   ],
   "return_type" : "_ZTIN3ndk13ScopedAStatusE",
   "source_file" : "out/soong/.intermediates/hardware/interfaces/radio/aidl/android.hardware.radio.voice-V1-ndk-source/gen/include/aidl/android/hardware/radio/voice/BpRadioVoiceResponse.h"
  },
  {
   "function_name" : "aidl::android::hardware::radio::voice::BpRadioVoiceResponse::sendDtmfResponse",
   "linker_set_key" : "_ZN4aidl7android8hardware5radio5voice20BpRadioVoiceResponse16sendDtmfResponseERKNS2_17RadioResponseInfoE",
   "parameters" :
   [
    {
     "is_this_ptr" : true,
     "referenced_type" : "_ZTIPN4aidl7android8hardware5radio5voice20BpRadioVoiceResponseE"
    },
    {
     "referenced_type" : "_ZTIRKN4aidl7android8hardware5radio17RadioResponseInfoE"
    }
   ],
   "return_type" : "_ZTIN3ndk13ScopedAStatusE",
   "source_file" : "out/soong/.intermediates/hardware/interfaces/radio/aidl/android.hardware.radio.voice-V1-ndk-source/gen/include/aidl/android/hardware/radio/voice/BpRadioVoiceResponse.h"
  },
  {
   "function_name" : "aidl::android::hardware::radio::voice::BpRadioVoiceResponse::sendUssdResponse",
   "linker_set_key" : "_ZN4aidl7android8hardware5radio5voice20BpRadioVoiceResponse16sendUssdResponseERKNS2_17RadioResponseInfoE",
   "parameters" :
   [
    {
     "is_this_ptr" : true,
     "referenced_type" : "_ZTIPN4aidl7android8hardware5radio5voice20BpRadioVoiceResponseE"
    },
    {
     "referenced_type" : "_ZTIRKN4aidl7android8hardware5radio17RadioResponseInfoE"
    }
   ],
   "return_type" : "_ZTIN3ndk13ScopedAStatusE",
   "source_file" : "out/soong/.intermediates/hardware/interfaces/radio/aidl/android.hardware.radio.voice-V1-ndk-source/gen/include/aidl/android/hardware/radio/voice/BpRadioVoiceResponse.h"
  },
  {
   "function_name" : "aidl::android::hardware::radio::voice::BpRadioVoiceResponse::stopDtmfResponse",
   "linker_set_key" : "_ZN4aidl7android8hardware5radio5voice20BpRadioVoiceResponse16stopDtmfResponseERKNS2_17RadioResponseInfoE",
   "parameters" :
   [
    {
     "is_this_ptr" : true,
     "referenced_type" : "_ZTIPN4aidl7android8hardware5radio5voice20BpRadioVoiceResponseE"
    },
    {
     "referenced_type" : "_ZTIRKN4aidl7android8hardware5radio17RadioResponseInfoE"
    }
   ],
   "return_type" : "_ZTIN3ndk13ScopedAStatusE",
   "source_file" : "out/soong/.intermediates/hardware/interfaces/radio/aidl/android.hardware.radio.voice-V1-ndk-source/gen/include/aidl/android/hardware/radio/voice/BpRadioVoiceResponse.h"
  },
  {
   "function_name" : "aidl::android::hardware::radio::voice::BpRadioVoiceResponse::startDtmfResponse",
   "linker_set_key" : "_ZN4aidl7android8hardware5radio5voice20BpRadioVoiceResponse17startDtmfResponseERKNS2_17RadioResponseInfoE",
   "parameters" :
   [
    {
     "is_this_ptr" : true,
     "referenced_type" : "_ZTIPN4aidl7android8hardware5radio5voice20BpRadioVoiceResponseE"
    },
    {
     "referenced_type" : "_ZTIRKN4aidl7android8hardware5radio17RadioResponseInfoE"
    }
   ],
   "return_type" : "_ZTIN3ndk13ScopedAStatusE",
   "source_file" : "out/soong/.intermediates/hardware/interfaces/radio/aidl/android.hardware.radio.voice-V1-ndk-source/gen/include/aidl/android/hardware/radio/voice/BpRadioVoiceResponse.h"
  },
  {
   "function_name" : "aidl::android::hardware::radio::voice::BpRadioVoiceResponse::acceptCallResponse",
   "linker_set_key" : "_ZN4aidl7android8hardware5radio5voice20BpRadioVoiceResponse18acceptCallResponseERKNS2_17RadioResponseInfoE",
   "parameters" :
   [
    {
     "is_this_ptr" : true,
     "referenced_type" : "_ZTIPN4aidl7android8hardware5radio5voice20BpRadioVoiceResponseE"
    },
    {
     "referenced_type" : "_ZTIRKN4aidl7android8hardware5radio17RadioResponseInfoE"
    }
   ],
   "return_type" : "_ZTIN3ndk13ScopedAStatusE",
   "source_file" : "out/soong/.intermediates/hardware/interfaces/radio/aidl/android.hardware.radio.voice-V1-ndk-source/gen/include/aidl/android/hardware/radio/voice/BpRadioVoiceResponse.h"
  },
  {
   "function_name" : "aidl::android::hardware::radio::voice::BpRadioVoiceResponse::acknowledgeRequest",
   "linker_set_key" : "_ZN4aidl7android8hardware5radio5voice20BpRadioVoiceResponse18acknowledgeRequestEi",
   "parameters" :
   [
    {
     "is_this_ptr" : true,
     "referenced_type" : "_ZTIPN4aidl7android8hardware5radio5voice20BpRadioVoiceResponseE"
    },
    {
     "referenced_type" : "_ZTIi"
    }
   ],
   "return_type" : "_ZTIN3ndk13ScopedAStatusE",
   "source_file" : "out/soong/.intermediates/hardware/interfaces/radio/aidl/android.hardware.radio.voice-V1-ndk-source/gen/include/aidl/android/hardware/radio/voice/BpRadioVoiceResponse.h"
  },
  {
   "function_name" : "aidl::android::hardware::radio::voice::BpRadioVoiceResponse::conferenceResponse",
   "linker_set_key" : "_ZN4aidl7android8hardware5radio5voice20BpRadioVoiceResponse18conferenceResponseERKNS2_17RadioResponseInfoE",
   "parameters" :
   [
    {
     "is_this_ptr" : true,
     "referenced_type" : "_ZTIPN4aidl7android8hardware5radio5voice20BpRadioVoiceResponseE"
    },
    {
     "referenced_type" : "_ZTIRKN4aidl7android8hardware5radio17RadioResponseInfoE"
    }
   ],
   "return_type" : "_ZTIN3ndk13ScopedAStatusE",
   "source_file" : "out/soong/.intermediates/hardware/interfaces/radio/aidl/android.hardware.radio.voice-V1-ndk-source/gen/include/aidl/android/hardware/radio/voice/BpRadioVoiceResponse.h"
  },
  {
   "function_name" : "aidl::android::hardware::radio::voice::BpRadioVoiceResponse::getTtyModeResponse",
   "linker_set_key" : "_ZN4aidl7android8hardware5radio5voice20BpRadioVoiceResponse18getTtyModeResponseERKNS2_17RadioResponseInfoENS3_7TtyModeE",
   "parameters" :
   [
    {
     "is_this_ptr" : true,
     "referenced_type" : "_ZTIPN4aidl7android8hardware5radio5voice20BpRadioVoiceResponseE"
    },
    {
     "referenced_type" : "_ZTIRKN4aidl7android8hardware5radio17RadioResponseInfoE"
    },
    {
     "referenced_type" : "_ZTIN4aidl7android8hardware5radio5voice7TtyModeE"
    }
   ],
   "return_type" : "_ZTIN3ndk13ScopedAStatusE",
   "source_file" : "out/soong/.intermediates/hardware/interfaces/radio/aidl/android.hardware.radio.voice-V1-ndk-source/gen/include/aidl/android/hardware/radio/voice/BpRadioVoiceResponse.h"
  },
  {
   "function_name" : "aidl::android::hardware::radio::voice::BpRadioVoiceResponse::rejectCallResponse",
   "linker_set_key" : "_ZN4aidl7android8hardware5radio5voice20BpRadioVoiceResponse18rejectCallResponseERKNS2_17RadioResponseInfoE",
   "parameters" :
   [
    {
     "is_this_ptr" : true,
     "referenced_type" : "_ZTIPN4aidl7android8hardware5radio5voice20BpRadioVoiceResponseE"
    },
    {
     "referenced_type" : "_ZTIRKN4aidl7android8hardware5radio17RadioResponseInfoE"
    }
   ],
   "return_type" : "_ZTIN3ndk13ScopedAStatusE",
   "source_file" : "out/soong/.intermediates/hardware/interfaces/radio/aidl/android.hardware.radio.voice-V1-ndk-source/gen/include/aidl/android/hardware/radio/voice/BpRadioVoiceResponse.h"
  },
  {
   "function_name" : "aidl::android::hardware::radio::voice::BpRadioVoiceResponse::setTtyModeResponse",
   "linker_set_key" : "_ZN4aidl7android8hardware5radio5voice20BpRadioVoiceResponse18setTtyModeResponseERKNS2_17RadioResponseInfoE",
   "parameters" :
   [
    {
     "is_this_ptr" : true,
     "referenced_type" : "_ZTIPN4aidl7android8hardware5radio5voice20BpRadioVoiceResponseE"
    },
    {
     "referenced_type" : "_ZTIRKN4aidl7android8hardware5radio17RadioResponseInfoE"
    }
   ],
   "return_type" : "_ZTIN3ndk13ScopedAStatusE",
   "source_file" : "out/soong/.intermediates/hardware/interfaces/radio/aidl/android.hardware.radio.voice-V1-ndk-source/gen/include/aidl/android/hardware/radio/voice/BpRadioVoiceResponse.h"
  },
  {
   "function_name" : "aidl::android::hardware::radio::voice::BpRadioVoiceResponse::getInterfaceVersion",
   "linker_set_key" : "_ZN4aidl7android8hardware5radio5voice20BpRadioVoiceResponse19getInterfaceVersionEPi",
   "parameters" :
   [
    {
     "is_this_ptr" : true,
     "referenced_type" : "_ZTIPN4aidl7android8hardware5radio5voice20BpRadioVoiceResponseE"
    },
    {
     "referenced_type" : "_ZTIPi"
    }
   ],
   "return_type" : "_ZTIN3ndk13ScopedAStatusE",
   "source_file" : "out/soong/.intermediates/hardware/interfaces/radio/aidl/android.hardware.radio.voice-V1-ndk-source/gen/include/aidl/android/hardware/radio/voice/BpRadioVoiceResponse.h"
  },
  {
   "function_name" : "aidl::android::hardware::radio::voice::BpRadioVoiceResponse::emergencyDialResponse",
   "linker_set_key" : "_ZN4aidl7android8hardware5radio5voice20BpRadioVoiceResponse21emergencyDialResponseERKNS2_17RadioResponseInfoE",
   "parameters" :
   [
    {
     "is_this_ptr" : true,
     "referenced_type" : "_ZTIPN4aidl7android8hardware5radio5voice20BpRadioVoiceResponseE"
    },
    {
     "referenced_type" : "_ZTIRKN4aidl7android8hardware5radio17RadioResponseInfoE"
    }
   ],
   "return_type" : "_ZTIN3ndk13ScopedAStatusE",
   "source_file" : "out/soong/.intermediates/hardware/interfaces/radio/aidl/android.hardware.radio.voice-V1-ndk-source/gen/include/aidl/android/hardware/radio/voice/BpRadioVoiceResponse.h"
  },
  {
   "function_name" : "aidl::android::hardware::radio::voice::BpRadioVoiceResponse::isVoNrEnabledResponse",
   "linker_set_key" : "_ZN4aidl7android8hardware5radio5voice20BpRadioVoiceResponse21isVoNrEnabledResponseERKNS2_17RadioResponseInfoEb",
   "parameters" :
   [
    {
     "is_this_ptr" : true,
     "referenced_type" : "_ZTIPN4aidl7android8hardware5radio5voice20BpRadioVoiceResponseE"
    },
    {
     "referenced_type" : "_ZTIRKN4aidl7android8hardware5radio17RadioResponseInfoE"
    },
    {
     "referenced_type" : "_ZTIb"
    }
   ],
   "return_type" : "_ZTIN3ndk13ScopedAStatusE",
   "source_file" : "out/soong/.intermediates/hardware/interfaces/radio/aidl/android.hardware.radio.voice-V1-ndk-source/gen/include/aidl/android/hardware/radio/voice/BpRadioVoiceResponse.h"
  },
  {
   "function_name" : "aidl::android::hardware::radio::voice::BpRadioVoiceResponse::sendBurstDtmfResponse",
   "linker_set_key" : "_ZN4aidl7android8hardware5radio5voice20BpRadioVoiceResponse21sendBurstDtmfResponseERKNS2_17RadioResponseInfoE",
   "parameters" :
   [
    {
     "is_this_ptr" : true,
     "referenced_type" : "_ZTIPN4aidl7android8hardware5radio5voice20BpRadioVoiceResponseE"
    },
    {
     "referenced_type" : "_ZTIRKN4aidl7android8hardware5radio17RadioResponseInfoE"
    }
   ],
   "return_type" : "_ZTIN3ndk13ScopedAStatusE",
   "source_file" : "out/soong/.intermediates/hardware/interfaces/radio/aidl/android.hardware.radio.voice-V1-ndk-source/gen/include/aidl/android/hardware/radio/voice/BpRadioVoiceResponse.h"
  },
  {
   "function_name" : "aidl::android::hardware::radio::voice::BpRadioVoiceResponse::getCallWaitingResponse",
   "linker_set_key" : "_ZN4aidl7android8hardware5radio5voice20BpRadioVoiceResponse22getCallWaitingResponseERKNS2_17RadioResponseInfoEbi",
   "parameters" :
   [
    {
     "is_this_ptr" : true,
     "referenced_type" : "_ZTIPN4aidl7android8hardware5radio5voice20BpRadioVoiceResponseE"
    },
    {
     "referenced_type" : "_ZTIRKN4aidl7android8hardware5radio17RadioResponseInfoE"
    },
    {
     "referenced_type" : "_ZTIb"
    },
    {
     "referenced_type" : "_ZTIi"
    }
   ],
   "return_type" : "_ZTIN3ndk13ScopedAStatusE",
   "source_file" : "out/soong/.intermediates/hardware/interfaces/radio/aidl/android.hardware.radio.voice-V1-ndk-source/gen/include/aidl/android/hardware/radio/voice/BpRadioVoiceResponse.h"
  },
  {
   "function_name" : "aidl::android::hardware::radio::voice::BpRadioVoiceResponse::setCallForwardResponse",
   "linker_set_key" : "_ZN4aidl7android8hardware5radio5voice20BpRadioVoiceResponse22setCallForwardResponseERKNS2_17RadioResponseInfoE",
   "parameters" :
   [
    {
     "is_this_ptr" : true,
     "referenced_type" : "_ZTIPN4aidl7android8hardware5radio5voice20BpRadioVoiceResponseE"
    },
    {
     "referenced_type" : "_ZTIRKN4aidl7android8hardware5radio17RadioResponseInfoE"
    }
   ],
   "return_type" : "_ZTIN3ndk13ScopedAStatusE",
   "source_file" : "out/soong/.intermediates/hardware/interfaces/radio/aidl/android.hardware.radio.voice-V1-ndk-source/gen/include/aidl/android/hardware/radio/voice/BpRadioVoiceResponse.h"
  },
  {
   "function_name" : "aidl::android::hardware::radio::voice::BpRadioVoiceResponse::setCallWaitingResponse",
   "linker_set_key" : "_ZN4aidl7android8hardware5radio5voice20BpRadioVoiceResponse22setCallWaitingResponseERKNS2_17RadioResponseInfoE",
   "parameters" :
   [
    {
     "is_this_ptr" : true,
     "referenced_type" : "_ZTIPN4aidl7android8hardware5radio5voice20BpRadioVoiceResponseE"
    },
    {
     "referenced_type" : "_ZTIRKN4aidl7android8hardware5radio17RadioResponseInfoE"
    }
   ],
   "return_type" : "_ZTIN3ndk13ScopedAStatusE",
   "source_file" : "out/soong/.intermediates/hardware/interfaces/radio/aidl/android.hardware.radio.voice-V1-ndk-source/gen/include/aidl/android/hardware/radio/voice/BpRadioVoiceResponse.h"
  },
  {
   "function_name" : "aidl::android::hardware::radio::voice::BpRadioVoiceResponse::setVoNrEnabledResponse",
   "linker_set_key" : "_ZN4aidl7android8hardware5radio5voice20BpRadioVoiceResponse22setVoNrEnabledResponseERKNS2_17RadioResponseInfoE",
   "parameters" :
   [
    {
     "is_this_ptr" : true,
     "referenced_type" : "_ZTIPN4aidl7android8hardware5radio5voice20BpRadioVoiceResponseE"
    },
    {
     "referenced_type" : "_ZTIRKN4aidl7android8hardware5radio17RadioResponseInfoE"
    }
   ],
   "return_type" : "_ZTIN3ndk13ScopedAStatusE",
   "source_file" : "out/soong/.intermediates/hardware/interfaces/radio/aidl/android.hardware.radio.voice-V1-ndk-source/gen/include/aidl/android/hardware/radio/voice/BpRadioVoiceResponse.h"
  },
  {
   "function_name" : "aidl::android::hardware::radio::voice::BpRadioVoiceResponse::getCurrentCallsResponse",
   "linker_set_key" : "_ZN4aidl7android8hardware5radio5voice20BpRadioVoiceResponse23getCurrentCallsResponseERKNS2_17RadioResponseInfoERKNSt3__16vectorINS3_4CallENS8_9allocatorISA_EEEE",
   "parameters" :
   [
    {
     "is_this_ptr" : true,
     "referenced_type" : "_ZTIPN4aidl7android8hardware5radio5voice20BpRadioVoiceResponseE"
    },
    {
     "referenced_type" : "_ZTIRKN4aidl7android8hardware5radio17RadioResponseInfoE"
    },
    {
     "referenced_type" : "_ZTIRKNSt3__16vectorIN4aidl7android8hardware5radio5voice4CallENS_9allocatorIS6_EEEE"
    }
   ],
   "return_type" : "_ZTIN3ndk13ScopedAStatusE",
   "source_file" : "out/soong/.intermediates/hardware/interfaces/radio/aidl/android.hardware.radio.voice-V1-ndk-source/gen/include/aidl/android/hardware/radio/voice/BpRadioVoiceResponse.h"
  },
  {
   "function_name" : "aidl::android::hardware::radio::voice::BpRadioVoiceResponse::hangupConnectionResponse",
   "linker_set_key" : "_ZN4aidl7android8hardware5radio5voice20BpRadioVoiceResponse24hangupConnectionResponseERKNS2_17RadioResponseInfoE",
   "parameters" :
   [
    {
     "is_this_ptr" : true,
     "referenced_type" : "_ZTIPN4aidl7android8hardware5radio5voice20BpRadioVoiceResponseE"
    },
    {
     "referenced_type" : "_ZTIRKN4aidl7android8hardware5radio17RadioResponseInfoE"
    }
   ],
   "return_type" : "_ZTIN3ndk13ScopedAStatusE",
   "source_file" : "out/soong/.intermediates/hardware/interfaces/radio/aidl/android.hardware.radio.voice-V1-ndk-source/gen/include/aidl/android/hardware/radio/voice/BpRadioVoiceResponse.h"
  },
  {
   "function_name" : "aidl::android::hardware::radio::voice::BpRadioVoiceResponse::cancelPendingUssdResponse",
   "linker_set_key" : "_ZN4aidl7android8hardware5radio5voice20BpRadioVoiceResponse25cancelPendingUssdResponseERKNS2_17RadioResponseInfoE",
   "parameters" :
   [
    {
     "is_this_ptr" : true,
     "referenced_type" : "_ZTIPN4aidl7android8hardware5radio5voice20BpRadioVoiceResponseE"
    },
    {
     "referenced_type" : "_ZTIRKN4aidl7android8hardware5radio17RadioResponseInfoE"
    }
   ],
   "return_type" : "_ZTIN3ndk13ScopedAStatusE",
   "source_file" : "out/soong/.intermediates/hardware/interfaces/radio/aidl/android.hardware.radio.voice-V1-ndk-source/gen/include/aidl/android/hardware/radio/voice/BpRadioVoiceResponse.h"
  },
  {
   "function_name" : "aidl::android::hardware::radio::voice::BpRadioVoiceResponse::separateConnectionResponse",
   "linker_set_key" : "_ZN4aidl7android8hardware5radio5voice20BpRadioVoiceResponse26separateConnectionResponseERKNS2_17RadioResponseInfoE",
   "parameters" :
   [
    {
     "is_this_ptr" : true,
     "referenced_type" : "_ZTIPN4aidl7android8hardware5radio5voice20BpRadioVoiceResponseE"
    },
    {
     "referenced_type" : "_ZTIRKN4aidl7android8hardware5radio17RadioResponseInfoE"
    }
   ],
   "return_type" : "_ZTIN3ndk13ScopedAStatusE",
   "source_file" : "out/soong/.intermediates/hardware/interfaces/radio/aidl/android.hardware.radio.voice-V1-ndk-source/gen/include/aidl/android/hardware/radio/voice/BpRadioVoiceResponse.h"
  },
  {
   "function_name" : "aidl::android::hardware::radio::voice::BpRadioVoiceResponse::sendCdmaFeatureCodeResponse",
   "linker_set_key" : "_ZN4aidl7android8hardware5radio5voice20BpRadioVoiceResponse27sendCdmaFeatureCodeResponseERKNS2_17RadioResponseInfoE",
   "parameters" :
   [
    {
     "is_this_ptr" : true,
     "referenced_type" : "_ZTIPN4aidl7android8hardware5radio5voice20BpRadioVoiceResponseE"
    },
    {
     "referenced_type" : "_ZTIRKN4aidl7android8hardware5radio17RadioResponseInfoE"
    }
   ],
   "return_type" : "_ZTIN3ndk13ScopedAStatusE",
   "source_file" : "out/soong/.intermediates/hardware/interfaces/radio/aidl/android.hardware.radio.voice-V1-ndk-source/gen/include/aidl/android/hardware/radio/voice/BpRadioVoiceResponse.h"
  },
  {
   "function_name" : "aidl::android::hardware::radio::voice::BpRadioVoiceResponse::explicitCallTransferResponse",
   "linker_set_key" : "_ZN4aidl7android8hardware5radio5voice20BpRadioVoiceResponse28explicitCallTransferResponseERKNS2_17RadioResponseInfoE",
   "parameters" :
   [
    {
     "is_this_ptr" : true,
     "referenced_type" : "_ZTIPN4aidl7android8hardware5radio5voice20BpRadioVoiceResponseE"
    },
    {
     "referenced_type" : "_ZTIRKN4aidl7android8hardware5radio17RadioResponseInfoE"
    }
   ],
   "return_type" : "_ZTIN3ndk13ScopedAStatusE",
   "source_file" : "out/soong/.intermediates/hardware/interfaces/radio/aidl/android.hardware.radio.voice-V1-ndk-source/gen/include/aidl/android/hardware/radio/voice/BpRadioVoiceResponse.h"
  },
  {
   "function_name" : "aidl::android::hardware::radio::voice::BpRadioVoiceResponse::getCallForwardStatusResponse",
   "linker_set_key" : "_ZN4aidl7android8hardware5radio5voice20BpRadioVoiceResponse28getCallForwardStatusResponseERKNS2_17RadioResponseInfoERKNSt3__16vectorINS3_15CallForwardInfoENS8_9allocatorISA_EEEE",
   "parameters" :
   [
    {
     "is_this_ptr" : true,
     "referenced_type" : "_ZTIPN4aidl7android8hardware5radio5voice20BpRadioVoiceResponseE"
    },
    {
     "referenced_type" : "_ZTIRKN4aidl7android8hardware5radio17RadioResponseInfoE"
    },
    {
     "referenced_type" : "_ZTIRKNSt3__16vectorIN4aidl7android8hardware5radio5voice15CallForwardInfoENS_9allocatorIS6_EEEE"
    }
   ],
   "return_type" : "_ZTIN3ndk13ScopedAStatusE",
   "source_file" : "out/soong/.intermediates/hardware/interfaces/radio/aidl/android.hardware.radio.voice-V1-ndk-source/gen/include/aidl/android/hardware/radio/voice/BpRadioVoiceResponse.h"
  },
  {
   "function_name" : "aidl::android::hardware::radio::voice::BpRadioVoiceResponse::getLastCallFailCauseResponse",
   "linker_set_key" : "_ZN4aidl7android8hardware5radio5voice20BpRadioVoiceResponse28getLastCallFailCauseResponseERKNS2_17RadioResponseInfoERKNS3_21LastCallFailCauseInfoE",
   "parameters" :
   [
    {
     "is_this_ptr" : true,
     "referenced_type" : "_ZTIPN4aidl7android8hardware5radio5voice20BpRadioVoiceResponseE"
    },
    {
     "referenced_type" : "_ZTIRKN4aidl7android8hardware5radio17RadioResponseInfoE"
    },
    {
     "referenced_type" : "_ZTIRKN4aidl7android8hardware5radio5voice21LastCallFailCauseInfoE"
    }
   ],
   "return_type" : "_ZTIN3ndk13ScopedAStatusE",
   "source_file" : "out/soong/.intermediates/hardware/interfaces/radio/aidl/android.hardware.radio.voice-V1-ndk-source/gen/include/aidl/android/hardware/radio/voice/BpRadioVoiceResponse.h"
  },
  {
   "function_name" : "aidl::android::hardware::radio::voice::BpRadioVoiceResponse::getPreferredVoicePrivacyResponse",
   "linker_set_key" : "_ZN4aidl7android8hardware5radio5voice20BpRadioVoiceResponse32getPreferredVoicePrivacyResponseERKNS2_17RadioResponseInfoEb",
   "parameters" :
   [
    {
     "is_this_ptr" : true,
     "referenced_type" : "_ZTIPN4aidl7android8hardware5radio5voice20BpRadioVoiceResponseE"
    },
    {
     "referenced_type" : "_ZTIRKN4aidl7android8hardware5radio17RadioResponseInfoE"
    },
    {
     "referenced_type" : "_ZTIb"
    }
   ],
   "return_type" : "_ZTIN3ndk13ScopedAStatusE",
   "source_file" : "out/soong/.intermediates/hardware/interfaces/radio/aidl/android.hardware.radio.voice-V1-ndk-source/gen/include/aidl/android/hardware/radio/voice/BpRadioVoiceResponse.h"
  },
  {
   "function_name" : "aidl::android::hardware::radio::voice::BpRadioVoiceResponse::setPreferredVoicePrivacyResponse",
   "linker_set_key" : "_ZN4aidl7android8hardware5radio5voice20BpRadioVoiceResponse32setPreferredVoicePrivacyResponseERKNS2_17RadioResponseInfoE",
   "parameters" :
   [
    {
     "is_this_ptr" : true,
     "referenced_type" : "_ZTIPN4aidl7android8hardware5radio5voice20BpRadioVoiceResponseE"
    },
    {
     "referenced_type" : "_ZTIRKN4aidl7android8hardware5radio17RadioResponseInfoE"
    }
   ],
   "return_type" : "_ZTIN3ndk13ScopedAStatusE",
   "source_file" : "out/soong/.intermediates/hardware/interfaces/radio/aidl/android.hardware.radio.voice-V1-ndk-source/gen/include/aidl/android/hardware/radio/voice/BpRadioVoiceResponse.h"
  },
  {
   "function_name" : "aidl::android::hardware::radio::voice::BpRadioVoiceResponse::exitEmergencyCallbackModeResponse",
   "linker_set_key" : "_ZN4aidl7android8hardware5radio5voice20BpRadioVoiceResponse33exitEmergencyCallbackModeResponseERKNS2_17RadioResponseInfoE",
   "parameters" :
   [
    {
     "is_this_ptr" : true,
     "referenced_type" : "_ZTIPN4aidl7android8hardware5radio5voice20BpRadioVoiceResponseE"
    },
    {
     "referenced_type" : "_ZTIRKN4aidl7android8hardware5radio17RadioResponseInfoE"
    }
   ],
   "return_type" : "_ZTIN3ndk13ScopedAStatusE",
   "source_file" : "out/soong/.intermediates/hardware/interfaces/radio/aidl/android.hardware.radio.voice-V1-ndk-source/gen/include/aidl/android/hardware/radio/voice/BpRadioVoiceResponse.h"
  },
  {
   "function_name" : "aidl::android::hardware::radio::voice::BpRadioVoiceResponse::hangupWaitingOrBackgroundResponse",
   "linker_set_key" : "_ZN4aidl7android8hardware5radio5voice20BpRadioVoiceResponse33hangupWaitingOrBackgroundResponseERKNS2_17RadioResponseInfoE",
   "parameters" :
   [
    {
     "is_this_ptr" : true,
     "referenced_type" : "_ZTIPN4aidl7android8hardware5radio5voice20BpRadioVoiceResponseE"
    },
    {
     "referenced_type" : "_ZTIRKN4aidl7android8hardware5radio17RadioResponseInfoE"
    }
   ],
   "return_type" : "_ZTIN3ndk13ScopedAStatusE",
   "source_file" : "out/soong/.intermediates/hardware/interfaces/radio/aidl/android.hardware.radio.voice-V1-ndk-source/gen/include/aidl/android/hardware/radio/voice/BpRadioVoiceResponse.h"
  },
  {
   "function_name" : "aidl::android::hardware::radio::voice::BpRadioVoiceResponse::switchWaitingOrHoldingAndActiveResponse",
   "linker_set_key" : "_ZN4aidl7android8hardware5radio5voice20BpRadioVoiceResponse39switchWaitingOrHoldingAndActiveResponseERKNS2_17RadioResponseInfoE",
   "parameters" :
   [
    {
     "is_this_ptr" : true,
     "referenced_type" : "_ZTIPN4aidl7android8hardware5radio5voice20BpRadioVoiceResponseE"
    },
    {
     "referenced_type" : "_ZTIRKN4aidl7android8hardware5radio17RadioResponseInfoE"
    }
   ],
   "return_type" : "_ZTIN3ndk13ScopedAStatusE",
   "source_file" : "out/soong/.intermediates/hardware/interfaces/radio/aidl/android.hardware.radio.voice-V1-ndk-source/gen/include/aidl/android/hardware/radio/voice/BpRadioVoiceResponse.h"
  },
  {
   "function_name" : "aidl::android::hardware::radio::voice::BpRadioVoiceResponse::handleStkCallSetupRequestFromSimResponse",
   "linker_set_key" : "_ZN4aidl7android8hardware5radio5voice20BpRadioVoiceResponse40handleStkCallSetupRequestFromSimResponseERKNS2_17RadioResponseInfoE",
   "parameters" :
   [
    {
     "is_this_ptr" : true,
     "referenced_type" : "_ZTIPN4aidl7android8hardware5radio5voice20BpRadioVoiceResponseE"
    },
    {
     "referenced_type" : "_ZTIRKN4aidl7android8hardware5radio17RadioResponseInfoE"
    }
   ],
   "return_type" : "_ZTIN3ndk13ScopedAStatusE",
   "source_file" : "out/soong/.intermediates/hardware/interfaces/radio/aidl/android.hardware.radio.voice-V1-ndk-source/gen/include/aidl/android/hardware/radio/voice/BpRadioVoiceResponse.h"
  },
  {
   "function_name" : "aidl::android::hardware::radio::voice::BpRadioVoiceResponse::hangupForegroundResumeBackgroundResponse",
   "linker_set_key" : "_ZN4aidl7android8hardware5radio5voice20BpRadioVoiceResponse40hangupForegroundResumeBackgroundResponseERKNS2_17RadioResponseInfoE",
   "parameters" :
   [
    {
     "is_this_ptr" : true,
     "referenced_type" : "_ZTIPN4aidl7android8hardware5radio5voice20BpRadioVoiceResponseE"
    },
    {
     "referenced_type" : "_ZTIRKN4aidl7android8hardware5radio17RadioResponseInfoE"
    }
   ],
   "return_type" : "_ZTIN3ndk13ScopedAStatusE",
   "source_file" : "out/soong/.intermediates/hardware/interfaces/radio/aidl/android.hardware.radio.voice-V1-ndk-source/gen/include/aidl/android/hardware/radio/voice/BpRadioVoiceResponse.h"
  },
  {
   "function_name" : "aidl::android::hardware::radio::voice::BpRadioVoiceResponse::BpRadioVoiceResponse",
   "linker_set_key" : "_ZN4aidl7android8hardware5radio5voice20BpRadioVoiceResponseC1ERKN3ndk10SpAIBinderE",
   "parameters" :
   [
    {
     "is_this_ptr" : true,
     "referenced_type" : "_ZTIPN4aidl7android8hardware5radio5voice20BpRadioVoiceResponseE"
    },
    {
     "referenced_type" : "_ZTIRKN3ndk10SpAIBinderE"
    }
   ],
   "return_type" : "_ZTIv",
   "source_file" : "out/soong/.intermediates/hardware/interfaces/radio/aidl/android.hardware.radio.voice-V1-ndk-source/gen/include/aidl/android/hardware/radio/voice/BpRadioVoiceResponse.h"
  },
  {
   "function_name" : "aidl::android::hardware::radio::voice::BpRadioVoiceResponse::BpRadioVoiceResponse",
   "linker_set_key" : "_ZN4aidl7android8hardware5radio5voice20BpRadioVoiceResponseC2ERKN3ndk10SpAIBinderE",
   "parameters" :
   [
    {
     "is_this_ptr" : true,
     "referenced_type" : "_ZTIPN4aidl7android8hardware5radio5voice20BpRadioVoiceResponseE"
    },
    {
     "referenced_type" : "_ZTIRKN3ndk10SpAIBinderE"
    }
   ],
   "return_type" : "_ZTIv",
   "source_file" : "out/soong/.intermediates/hardware/interfaces/radio/aidl/android.hardware.radio.voice-V1-ndk-source/gen/include/aidl/android/hardware/radio/voice/BpRadioVoiceResponse.h"
  },
  {
   "function_name" : "aidl::android::hardware::radio::voice::BpRadioVoiceResponse::~BpRadioVoiceResponse",
   "linker_set_key" : "_ZN4aidl7android8hardware5radio5voice20BpRadioVoiceResponseD0Ev",
   "parameters" :
   [
    {
     "is_this_ptr" : true,
     "referenced_type" : "_ZTIPN4aidl7android8hardware5radio5voice20BpRadioVoiceResponseE"
    }
   ],
   "return_type" : "_ZTIv",
   "source_file" : "out/soong/.intermediates/hardware/interfaces/radio/aidl/android.hardware.radio.voice-V1-ndk-source/gen/include/aidl/android/hardware/radio/voice/BpRadioVoiceResponse.h"
  },
  {
   "function_name" : "aidl::android::hardware::radio::voice::BpRadioVoiceResponse::~BpRadioVoiceResponse",
   "linker_set_key" : "_ZN4aidl7android8hardware5radio5voice20BpRadioVoiceResponseD1Ev",
   "parameters" :
   [
    {
     "is_this_ptr" : true,
     "referenced_type" : "_ZTIPN4aidl7android8hardware5radio5voice20BpRadioVoiceResponseE"
    }
   ],
   "return_type" : "_ZTIv",
   "source_file" : "out/soong/.intermediates/hardware/interfaces/radio/aidl/android.hardware.radio.voice-V1-ndk-source/gen/include/aidl/android/hardware/radio/voice/BpRadioVoiceResponse.h"
  },
  {
   "function_name" : "aidl::android::hardware::radio::voice::BpRadioVoiceResponse::~BpRadioVoiceResponse",
   "linker_set_key" : "_ZN4aidl7android8hardware5radio5voice20BpRadioVoiceResponseD2Ev",
   "parameters" :
   [
    {
     "is_this_ptr" : true,
     "referenced_type" : "_ZTIPN4aidl7android8hardware5radio5voice20BpRadioVoiceResponseE"
    }
   ],
   "return_type" : "_ZTIv",
   "source_file" : "out/soong/.intermediates/hardware/interfaces/radio/aidl/android.hardware.radio.voice-V1-ndk-source/gen/include/aidl/android/hardware/radio/voice/BpRadioVoiceResponse.h"
  },
  {
   "function_name" : "aidl::android::hardware::radio::voice::CdmaNumberInfoRecord::readFromParcel",
   "linker_set_key" : "_ZN4aidl7android8hardware5radio5voice20CdmaNumberInfoRecord14readFromParcelEPK7AParcel",
   "parameters" :
   [
    {
     "is_this_ptr" : true,
     "referenced_type" : "_ZTIPN4aidl7android8hardware5radio5voice20CdmaNumberInfoRecordE"
    },
    {
     "referenced_type" : "_ZTIPK7AParcel"
    }
   ],
   "return_type" : "_ZTIi",
   "source_file" : "out/soong/.intermediates/hardware/interfaces/radio/aidl/android.hardware.radio.voice-V1-ndk-source/gen/include/aidl/android/hardware/radio/voice/CdmaNumberInfoRecord.h"
  },
  {
   "function_name" : "aidl::android::hardware::radio::voice::CdmaSignalInfoRecord::readFromParcel",
   "linker_set_key" : "_ZN4aidl7android8hardware5radio5voice20CdmaSignalInfoRecord14readFromParcelEPK7AParcel",
   "parameters" :
   [
    {
     "is_this_ptr" : true,
     "referenced_type" : "_ZTIPN4aidl7android8hardware5radio5voice20CdmaSignalInfoRecordE"
    },
    {
     "referenced_type" : "_ZTIPK7AParcel"
    }
   ],
   "return_type" : "_ZTIi",
   "source_file" : "out/soong/.intermediates/hardware/interfaces/radio/aidl/android.hardware.radio.voice-V1-ndk-source/gen/include/aidl/android/hardware/radio/voice/CdmaSignalInfoRecord.h"
  },
  {
   "function_name" : "aidl::android::hardware::radio::voice::CdmaDisplayInfoRecord::readFromParcel",
   "linker_set_key" : "_ZN4aidl7android8hardware5radio5voice21CdmaDisplayInfoRecord14readFromParcelEPK7AParcel",
   "parameters" :
   [
    {
     "is_this_ptr" : true,
     "referenced_type" : "_ZTIPN4aidl7android8hardware5radio5voice21CdmaDisplayInfoRecordE"
    },
    {
     "referenced_type" : "_ZTIPK7AParcel"
    }
   ],
   "return_type" : "_ZTIi",
   "source_file" : "out/soong/.intermediates/hardware/interfaces/radio/aidl/android.hardware.radio.voice-V1-ndk-source/gen/include/aidl/android/hardware/radio/voice/CdmaDisplayInfoRecord.h"
  },
  {
   "function_name" : "aidl::android::hardware::radio::voice::CdmaInformationRecord::readFromParcel",
   "linker_set_key" : "_ZN4aidl7android8hardware5radio5voice21CdmaInformationRecord14readFromParcelEPK7AParcel",
   "parameters" :
   [
    {
     "is_this_ptr" : true,
     "referenced_type" : "_ZTIPN4aidl7android8hardware5radio5voice21CdmaInformationRecordE"
    },
    {
     "referenced_type" : "_ZTIPK7AParcel"
    }
   ],
   "return_type" : "_ZTIi",
   "source_file" : "out/soong/.intermediates/hardware/interfaces/radio/aidl/android.hardware.radio.voice-V1-ndk-source/gen/include/aidl/android/hardware/radio/voice/CdmaInformationRecord.h"
  },
  {
   "function_name" : "aidl::android::hardware::radio::voice::CdmaT53ClirInfoRecord::readFromParcel",
   "linker_set_key" : "_ZN4aidl7android8hardware5radio5voice21CdmaT53ClirInfoRecord14readFromParcelEPK7AParcel",
   "parameters" :
   [
    {
     "is_this_ptr" : true,
     "referenced_type" : "_ZTIPN4aidl7android8hardware5radio5voice21CdmaT53ClirInfoRecordE"
    },
    {
     "referenced_type" : "_ZTIPK7AParcel"
    }
   ],
   "return_type" : "_ZTIi",
   "source_file" : "out/soong/.intermediates/hardware/interfaces/radio/aidl/android.hardware.radio.voice-V1-ndk-source/gen/include/aidl/android/hardware/radio/voice/CdmaT53ClirInfoRecord.h"
  },
  {
   "function_name" : "aidl::android::hardware::radio::voice::IRadioVoiceIndication::fromBinder",
   "linker_set_key" : "_ZN4aidl7android8hardware5radio5voice21IRadioVoiceIndication10fromBinderERKN3ndk10SpAIBinderE",
   "parameters" :
   [
    {
     "referenced_type" : "_ZTIRKN3ndk10SpAIBinderE"
    }
   ],
   "return_type" : "_ZTINSt3__110shared_ptrIN4aidl7android8hardware5radio5voice21IRadioVoiceIndicationEEE",
   "source_file" : "out/soong/.intermediates/hardware/interfaces/radio/aidl/android.hardware.radio.voice-V1-ndk-source/gen/include/aidl/android/hardware/radio/voice/IRadioVoiceIndication.h"
  },
  {
   "function_name" : "aidl::android::hardware::radio::voice::IRadioVoiceIndication::writeToParcel",
   "linker_set_key" : "_ZN4aidl7android8hardware5radio5voice21IRadioVoiceIndication13writeToParcelEP7AParcelRKNSt3__110shared_ptrIS4_EE",
   "parameters" :
   [
    {
     "referenced_type" : "_ZTIP7AParcel"
    },
    {
     "referenced_type" : "_ZTIRKNSt3__110shared_ptrIN4aidl7android8hardware5radio5voice21IRadioVoiceIndicationEEE"
    }
   ],
   "return_type" : "_ZTIi",
   "source_file" : "out/soong/.intermediates/hardware/interfaces/radio/aidl/android.hardware.radio.voice-V1-ndk-source/gen/include/aidl/android/hardware/radio/voice/IRadioVoiceIndication.h"
  },
  {
   "function_name" : "aidl::android::hardware::radio::voice::IRadioVoiceIndication::getDefaultImpl",
   "linker_set_key" : "_ZN4aidl7android8hardware5radio5voice21IRadioVoiceIndication14getDefaultImplEv",
   "return_type" : "_ZTIRKNSt3__110shared_ptrIN4aidl7android8hardware5radio5voice21IRadioVoiceIndicationEEE",
   "source_file" : "out/soong/.intermediates/hardware/interfaces/radio/aidl/android.hardware.radio.voice-V1-ndk-source/gen/include/aidl/android/hardware/radio/voice/IRadioVoiceIndication.h"
  },
  {
   "function_name" : "aidl::android::hardware::radio::voice::IRadioVoiceIndication::readFromParcel",
   "linker_set_key" : "_ZN4aidl7android8hardware5radio5voice21IRadioVoiceIndication14readFromParcelEPK7AParcelPNSt3__110shared_ptrIS4_EE",
   "parameters" :
   [
    {
     "referenced_type" : "_ZTIPK7AParcel"
    },
    {
     "referenced_type" : "_ZTIPNSt3__110shared_ptrIN4aidl7android8hardware5radio5voice21IRadioVoiceIndicationEEE"
    }
   ],
   "return_type" : "_ZTIi",
   "source_file" : "out/soong/.intermediates/hardware/interfaces/radio/aidl/android.hardware.radio.voice-V1-ndk-source/gen/include/aidl/android/hardware/radio/voice/IRadioVoiceIndication.h"
  },
  {
   "function_name" : "aidl::android::hardware::radio::voice::IRadioVoiceIndication::setDefaultImpl",
   "linker_set_key" : "_ZN4aidl7android8hardware5radio5voice21IRadioVoiceIndication14setDefaultImplERKNSt3__110shared_ptrIS4_EE",
   "parameters" :
   [
    {
     "referenced_type" : "_ZTIRKNSt3__110shared_ptrIN4aidl7android8hardware5radio5voice21IRadioVoiceIndicationEEE"
    }
   ],
   "return_type" : "_ZTIb",
   "source_file" : "out/soong/.intermediates/hardware/interfaces/radio/aidl/android.hardware.radio.voice-V1-ndk-source/gen/include/aidl/android/hardware/radio/voice/IRadioVoiceIndication.h"
  },
  {
   "function_name" : "aidl::android::hardware::radio::voice::IRadioVoiceIndication::IRadioVoiceIndication",
   "linker_set_key" : "_ZN4aidl7android8hardware5radio5voice21IRadioVoiceIndicationC2Ev",
   "parameters" :
   [
    {
     "is_this_ptr" : true,
     "referenced_type" : "_ZTIPN4aidl7android8hardware5radio5voice21IRadioVoiceIndicationE"
    }
   ],
   "return_type" : "_ZTIv",
   "source_file" : "out/soong/.intermediates/hardware/interfaces/radio/aidl/android.hardware.radio.voice-V1-ndk-source/gen/include/aidl/android/hardware/radio/voice/IRadioVoiceIndication.h"
  },
  {
   "function_name" : "aidl::android::hardware::radio::voice::IRadioVoiceIndication::~IRadioVoiceIndication",
   "linker_set_key" : "_ZN4aidl7android8hardware5radio5voice21IRadioVoiceIndicationD0Ev",
   "parameters" :
   [
    {
     "is_this_ptr" : true,
     "referenced_type" : "_ZTIPN4aidl7android8hardware5radio5voice21IRadioVoiceIndicationE"
    }
   ],
   "return_type" : "_ZTIv",
   "source_file" : "out/soong/.intermediates/hardware/interfaces/radio/aidl/android.hardware.radio.voice-V1-ndk-source/gen/include/aidl/android/hardware/radio/voice/IRadioVoiceIndication.h"
  },
  {
   "function_name" : "aidl::android::hardware::radio::voice::IRadioVoiceIndication::~IRadioVoiceIndication",
   "linker_set_key" : "_ZN4aidl7android8hardware5radio5voice21IRadioVoiceIndicationD1Ev",
   "parameters" :
   [
    {
     "is_this_ptr" : true,
     "referenced_type" : "_ZTIPN4aidl7android8hardware5radio5voice21IRadioVoiceIndicationE"
    }
   ],
   "return_type" : "_ZTIv",
   "source_file" : "out/soong/.intermediates/hardware/interfaces/radio/aidl/android.hardware.radio.voice-V1-ndk-source/gen/include/aidl/android/hardware/radio/voice/IRadioVoiceIndication.h"
  },
  {
   "function_name" : "aidl::android::hardware::radio::voice::IRadioVoiceIndication::~IRadioVoiceIndication",
   "linker_set_key" : "_ZN4aidl7android8hardware5radio5voice21IRadioVoiceIndicationD2Ev",
   "parameters" :
   [
    {
     "is_this_ptr" : true,
     "referenced_type" : "_ZTIPN4aidl7android8hardware5radio5voice21IRadioVoiceIndicationE"
    }
   ],
   "return_type" : "_ZTIv",
   "source_file" : "out/soong/.intermediates/hardware/interfaces/radio/aidl/android.hardware.radio.voice-V1-ndk-source/gen/include/aidl/android/hardware/radio/voice/IRadioVoiceIndication.h"
  },
  {
   "function_name" : "aidl::android::hardware::radio::voice::LastCallFailCauseInfo::readFromParcel",
   "linker_set_key" : "_ZN4aidl7android8hardware5radio5voice21LastCallFailCauseInfo14readFromParcelEPK7AParcel",
   "parameters" :
   [
    {
     "is_this_ptr" : true,
     "referenced_type" : "_ZTIPN4aidl7android8hardware5radio5voice21LastCallFailCauseInfoE"
    },
    {
     "referenced_type" : "_ZTIPK7AParcel"
    }
   ],
   "return_type" : "_ZTIi",
   "source_file" : "out/soong/.intermediates/hardware/interfaces/radio/aidl/android.hardware.radio.voice-V1-ndk-source/gen/include/aidl/android/hardware/radio/voice/LastCallFailCauseInfo.h"
  },
  {
   "access" : "protected",
   "function_name" : "aidl::android::hardware::radio::voice::BnRadioVoiceIndication::createBinder",
   "linker_set_key" : "_ZN4aidl7android8hardware5radio5voice22BnRadioVoiceIndication12createBinderEv",
   "parameters" :
   [
    {
     "is_this_ptr" : true,
     "referenced_type" : "_ZTIPN4aidl7android8hardware5radio5voice22BnRadioVoiceIndicationE"
    }
   ],
   "return_type" : "_ZTIN3ndk10SpAIBinderE",
   "source_file" : "out/soong/.intermediates/hardware/interfaces/radio/aidl/android.hardware.radio.voice-V1-ndk-source/gen/include/aidl/android/hardware/radio/voice/BnRadioVoiceIndication.h"
  },
  {
   "function_name" : "aidl::android::hardware::radio::voice::BnRadioVoiceIndication::getInterfaceHash",
   "linker_set_key" : "_ZN4aidl7android8hardware5radio5voice22BnRadioVoiceIndication16getInterfaceHashEPNSt3__112basic_stringIcNS5_11char_traitsIcEENS5_9allocatorIcEEEE",
   "parameters" :
   [
    {
     "is_this_ptr" : true,
     "referenced_type" : "_ZTIPN4aidl7android8hardware5radio5voice22BnRadioVoiceIndicationE"
    },
    {
     "referenced_type" : "_ZTIPNSt3__112basic_stringIcNS_11char_traitsIcEENS_9allocatorIcEEEE"
    }
   ],
   "return_type" : "_ZTIN3ndk13ScopedAStatusE",
   "source_file" : "out/soong/.intermediates/hardware/interfaces/radio/aidl/android.hardware.radio.voice-V1-ndk-source/gen/include/aidl/android/hardware/radio/voice/BnRadioVoiceIndication.h"
  },
  {
   "function_name" : "aidl::android::hardware::radio::voice::BnRadioVoiceIndication::getInterfaceVersion",
   "linker_set_key" : "_ZN4aidl7android8hardware5radio5voice22BnRadioVoiceIndication19getInterfaceVersionEPi",
   "parameters" :
   [
    {
     "is_this_ptr" : true,
     "referenced_type" : "_ZTIPN4aidl7android8hardware5radio5voice22BnRadioVoiceIndicationE"
    },
    {
     "referenced_type" : "_ZTIPi"
    }
   ],
   "return_type" : "_ZTIN3ndk13ScopedAStatusE",
   "source_file" : "out/soong/.intermediates/hardware/interfaces/radio/aidl/android.hardware.radio.voice-V1-ndk-source/gen/include/aidl/android/hardware/radio/voice/BnRadioVoiceIndication.h"
  },
  {
   "function_name" : "aidl::android::hardware::radio::voice::BnRadioVoiceIndication::BnRadioVoiceIndication",
   "linker_set_key" : "_ZN4aidl7android8hardware5radio5voice22BnRadioVoiceIndicationC2Ev",
   "parameters" :
   [
    {
     "is_this_ptr" : true,
     "referenced_type" : "_ZTIPN4aidl7android8hardware5radio5voice22BnRadioVoiceIndicationE"
    }
   ],
   "return_type" : "_ZTIv",
   "source_file" : "out/soong/.intermediates/hardware/interfaces/radio/aidl/android.hardware.radio.voice-V1-ndk-source/gen/include/aidl/android/hardware/radio/voice/BnRadioVoiceIndication.h"
  },
  {
   "function_name" : "aidl::android::hardware::radio::voice::BnRadioVoiceIndication::~BnRadioVoiceIndication",
   "linker_set_key" : "_ZN4aidl7android8hardware5radio5voice22BnRadioVoiceIndicationD0Ev",
   "parameters" :
   [
    {
     "is_this_ptr" : true,
     "referenced_type" : "_ZTIPN4aidl7android8hardware5radio5voice22BnRadioVoiceIndicationE"
    }
   ],
   "return_type" : "_ZTIv",
   "source_file" : "out/soong/.intermediates/hardware/interfaces/radio/aidl/android.hardware.radio.voice-V1-ndk-source/gen/include/aidl/android/hardware/radio/voice/BnRadioVoiceIndication.h"
  },
  {
   "function_name" : "aidl::android::hardware::radio::voice::BnRadioVoiceIndication::~BnRadioVoiceIndication",
   "linker_set_key" : "_ZN4aidl7android8hardware5radio5voice22BnRadioVoiceIndicationD1Ev",
   "parameters" :
   [
    {
     "is_this_ptr" : true,
     "referenced_type" : "_ZTIPN4aidl7android8hardware5radio5voice22BnRadioVoiceIndicationE"
    }
   ],
   "return_type" : "_ZTIv",
   "source_file" : "out/soong/.intermediates/hardware/interfaces/radio/aidl/android.hardware.radio.voice-V1-ndk-source/gen/include/aidl/android/hardware/radio/voice/BnRadioVoiceIndication.h"
  },
  {
   "function_name" : "aidl::android::hardware::radio::voice::BnRadioVoiceIndication::~BnRadioVoiceIndication",
   "linker_set_key" : "_ZN4aidl7android8hardware5radio5voice22BnRadioVoiceIndicationD2Ev",
   "parameters" :
   [
    {
     "is_this_ptr" : true,
     "referenced_type" : "_ZTIPN4aidl7android8hardware5radio5voice22BnRadioVoiceIndicationE"
    }
   ],
   "return_type" : "_ZTIv",
   "source_file" : "out/soong/.intermediates/hardware/interfaces/radio/aidl/android.hardware.radio.voice-V1-ndk-source/gen/include/aidl/android/hardware/radio/voice/BnRadioVoiceIndication.h"
  },
  {
   "function_name" : "aidl::android::hardware::radio::voice::BpRadioVoiceIndication::cdmaInfoRec",
   "linker_set_key" : "_ZN4aidl7android8hardware5radio5voice22BpRadioVoiceIndication11cdmaInfoRecENS2_19RadioIndicationTypeERKNSt3__16vectorINS3_21CdmaInformationRecordENS6_9allocatorIS8_EEEE",
   "parameters" :
   [
    {
     "is_this_ptr" : true,
     "referenced_type" : "_ZTIPN4aidl7android8hardware5radio5voice22BpRadioVoiceIndicationE"
    },
    {
     "referenced_type" : "_ZTIN4aidl7android8hardware5radio19RadioIndicationTypeE"
    },
    {
     "referenced_type" : "_ZTIRKNSt3__16vectorIN4aidl7android8hardware5radio5voice21CdmaInformationRecordENS_9allocatorIS6_EEEE"
    }
   ],
   "return_type" : "_ZTIN3ndk13ScopedAStatusE",
   "source_file" : "out/soong/.intermediates/hardware/interfaces/radio/aidl/android.hardware.radio.voice-V1-ndk-source/gen/include/aidl/android/hardware/radio/voice/BpRadioVoiceIndication.h"
  },
  {
   "function_name" : "aidl::android::hardware::radio::voice::BpRadioVoiceIndication::stkCallSetup",
   "linker_set_key" : "_ZN4aidl7android8hardware5radio5voice22BpRadioVoiceIndication12stkCallSetupENS2_19RadioIndicationTypeEx",
   "parameters" :
   [
    {
     "is_this_ptr" : true,
     "referenced_type" : "_ZTIPN4aidl7android8hardware5radio5voice22BpRadioVoiceIndicationE"
    },
    {
     "referenced_type" : "_ZTIN4aidl7android8hardware5radio19RadioIndicationTypeE"
    },
    {
     "referenced_type" : "_ZTIx"
    }
   ],
   "return_type" : "_ZTIN3ndk13ScopedAStatusE",
   "source_file" : "out/soong/.intermediates/hardware/interfaces/radio/aidl/android.hardware.radio.voice-V1-ndk-source/gen/include/aidl/android/hardware/radio/voice/BpRadioVoiceIndication.h"
  },
  {
   "function_name" : "aidl::android::hardware::radio::voice::BpRadioVoiceIndication::cdmaCallWaiting",
   "linker_set_key" : "_ZN4aidl7android8hardware5radio5voice22BpRadioVoiceIndication15cdmaCallWaitingENS2_19RadioIndicationTypeERKNS3_15CdmaCallWaitingE",
   "parameters" :
   [
    {
     "is_this_ptr" : true,
     "referenced_type" : "_ZTIPN4aidl7android8hardware5radio5voice22BpRadioVoiceIndicationE"
    },
    {
     "referenced_type" : "_ZTIN4aidl7android8hardware5radio19RadioIndicationTypeE"
    },
    {
     "referenced_type" : "_ZTIRKN4aidl7android8hardware5radio5voice15CdmaCallWaitingE"
    }
   ],
   "return_type" : "_ZTIN3ndk13ScopedAStatusE",
   "source_file" : "out/soong/.intermediates/hardware/interfaces/radio/aidl/android.hardware.radio.voice-V1-ndk-source/gen/include/aidl/android/hardware/radio/voice/BpRadioVoiceIndication.h"
  },
  {
   "function_name" : "aidl::android::hardware::radio::voice::BpRadioVoiceIndication::callStateChanged",
   "linker_set_key" : "_ZN4aidl7android8hardware5radio5voice22BpRadioVoiceIndication16callStateChangedENS2_19RadioIndicationTypeE",
   "parameters" :
   [
    {
     "is_this_ptr" : true,
     "referenced_type" : "_ZTIPN4aidl7android8hardware5radio5voice22BpRadioVoiceIndicationE"
    },
    {
     "referenced_type" : "_ZTIN4aidl7android8hardware5radio19RadioIndicationTypeE"
    }
   ],
   "return_type" : "_ZTIN3ndk13ScopedAStatusE",
   "source_file" : "out/soong/.intermediates/hardware/interfaces/radio/aidl/android.hardware.radio.voice-V1-ndk-source/gen/include/aidl/android/hardware/radio/voice/BpRadioVoiceIndication.h"
  },
  {
   "function_name" : "aidl::android::hardware::radio::voice::BpRadioVoiceIndication::getInterfaceHash",
   "linker_set_key" : "_ZN4aidl7android8hardware5radio5voice22BpRadioVoiceIndication16getInterfaceHashEPNSt3__112basic_stringIcNS5_11char_traitsIcEENS5_9allocatorIcEEEE",
   "parameters" :
   [
    {
     "is_this_ptr" : true,
     "referenced_type" : "_ZTIPN4aidl7android8hardware5radio5voice22BpRadioVoiceIndicationE"
    },
    {
     "referenced_type" : "_ZTIPNSt3__112basic_stringIcNS_11char_traitsIcEENS_9allocatorIcEEEE"
    }
   ],
   "return_type" : "_ZTIN3ndk13ScopedAStatusE",
   "source_file" : "out/soong/.intermediates/hardware/interfaces/radio/aidl/android.hardware.radio.voice-V1-ndk-source/gen/include/aidl/android/hardware/radio/voice/BpRadioVoiceIndication.h"
  },
  {
   "function_name" : "aidl::android::hardware::radio::voice::BpRadioVoiceIndication::resendIncallMute",
   "linker_set_key" : "_ZN4aidl7android8hardware5radio5voice22BpRadioVoiceIndication16resendIncallMuteENS2_19RadioIndicationTypeE",
   "parameters" :
   [
    {
     "is_this_ptr" : true,
     "referenced_type" : "_ZTIPN4aidl7android8hardware5radio5voice22BpRadioVoiceIndicationE"
    },
    {
     "referenced_type" : "_ZTIN4aidl7android8hardware5radio19RadioIndicationTypeE"
    }
   ],
   "return_type" : "_ZTIN3ndk13ScopedAStatusE",
   "source_file" : "out/soong/.intermediates/hardware/interfaces/radio/aidl/android.hardware.radio.voice-V1-ndk-source/gen/include/aidl/android/hardware/radio/voice/BpRadioVoiceIndication.h"
  },
  {
   "function_name" : "aidl::android::hardware::radio::voice::BpRadioVoiceIndication::srvccStateNotify",
   "linker_set_key" : "_ZN4aidl7android8hardware5radio5voice22BpRadioVoiceIndication16srvccStateNotifyENS2_19RadioIndicationTypeENS3_10SrvccStateE",
   "parameters" :
   [
    {
     "is_this_ptr" : true,
     "referenced_type" : "_ZTIPN4aidl7android8hardware5radio5voice22BpRadioVoiceIndicationE"
    },
    {
     "referenced_type" : "_ZTIN4aidl7android8hardware5radio19RadioIndicationTypeE"
    },
    {
     "referenced_type" : "_ZTIN4aidl7android8hardware5radio5voice10SrvccStateE"
    }
   ],
   "return_type" : "_ZTIN3ndk13ScopedAStatusE",
   "source_file" : "out/soong/.intermediates/hardware/interfaces/radio/aidl/android.hardware.radio.voice-V1-ndk-source/gen/include/aidl/android/hardware/radio/voice/BpRadioVoiceIndication.h"
  },
  {
   "function_name" : "aidl::android::hardware::radio::voice::BpRadioVoiceIndication::getInterfaceVersion",
   "linker_set_key" : "_ZN4aidl7android8hardware5radio5voice22BpRadioVoiceIndication19getInterfaceVersionEPi",
   "parameters" :
   [
    {
     "is_this_ptr" : true,
     "referenced_type" : "_ZTIPN4aidl7android8hardware5radio5voice22BpRadioVoiceIndicationE"
    },
    {
     "referenced_type" : "_ZTIPi"
    }
   ],
   "return_type" : "_ZTIN3ndk13ScopedAStatusE",
   "source_file" : "out/soong/.intermediates/hardware/interfaces/radio/aidl/android.hardware.radio.voice-V1-ndk-source/gen/include/aidl/android/hardware/radio/voice/BpRadioVoiceIndication.h"
  },
  {
   "function_name" : "aidl::android::hardware::radio::voice::BpRadioVoiceIndication::indicateRingbackTone",
   "linker_set_key" : "_ZN4aidl7android8hardware5radio5voice22BpRadioVoiceIndication20indicateRingbackToneENS2_19RadioIndicationTypeEb",
   "parameters" :
   [
    {
     "is_this_ptr" : true,
     "referenced_type" : "_ZTIPN4aidl7android8hardware5radio5voice22BpRadioVoiceIndicationE"
    },
    {
     "referenced_type" : "_ZTIN4aidl7android8hardware5radio19RadioIndicationTypeE"
    },
    {
     "referenced_type" : "_ZTIb"
    }
   ],
   "return_type" : "_ZTIN3ndk13ScopedAStatusE",
   "source_file" : "out/soong/.intermediates/hardware/interfaces/radio/aidl/android.hardware.radio.voice-V1-ndk-source/gen/include/aidl/android/hardware/radio/voice/BpRadioVoiceIndication.h"
  },
  {
   "function_name" : "aidl::android::hardware::radio::voice::BpRadioVoiceIndication::cdmaOtaProvisionStatus",
   "linker_set_key" : "_ZN4aidl7android8hardware5radio5voice22BpRadioVoiceIndication22cdmaOtaProvisionStatusENS2_19RadioIndicationTypeENS3_22CdmaOtaProvisionStatusE",
   "parameters" :
   [
    {
     "is_this_ptr" : true,
     "referenced_type" : "_ZTIPN4aidl7android8hardware5radio5voice22BpRadioVoiceIndicationE"
    },
    {
     "referenced_type" : "_ZTIN4aidl7android8hardware5radio19RadioIndicationTypeE"
    },
    {
     "referenced_type" : "_ZTIN4aidl7android8hardware5radio5voice22CdmaOtaProvisionStatusE"
    }
   ],
   "return_type" : "_ZTIN3ndk13ScopedAStatusE",
   "source_file" : "out/soong/.intermediates/hardware/interfaces/radio/aidl/android.hardware.radio.voice-V1-ndk-source/gen/include/aidl/android/hardware/radio/voice/BpRadioVoiceIndication.h"
  },
  {
   "function_name" : "aidl::android::hardware::radio::voice::BpRadioVoiceIndication::exitEmergencyCallbackMode",
   "linker_set_key" : "_ZN4aidl7android8hardware5radio5voice22BpRadioVoiceIndication25exitEmergencyCallbackModeENS2_19RadioIndicationTypeE",
   "parameters" :
   [
    {
     "is_this_ptr" : true,
     "referenced_type" : "_ZTIPN4aidl7android8hardware5radio5voice22BpRadioVoiceIndicationE"
    },
    {
     "referenced_type" : "_ZTIN4aidl7android8hardware5radio19RadioIndicationTypeE"
    }
   ],
   "return_type" : "_ZTIN3ndk13ScopedAStatusE",
   "source_file" : "out/soong/.intermediates/hardware/interfaces/radio/aidl/android.hardware.radio.voice-V1-ndk-source/gen/include/aidl/android/hardware/radio/voice/BpRadioVoiceIndication.h"
  },
  {
   "function_name" : "aidl::android::hardware::radio::voice::BpRadioVoiceIndication::stkCallControlAlphaNotify",
   "linker_set_key" : "_ZN4aidl7android8hardware5radio5voice22BpRadioVoiceIndication25stkCallControlAlphaNotifyENS2_19RadioIndicationTypeERKNSt3__112basic_stringIcNS6_11char_traitsIcEENS6_9allocatorIcEEEE",
   "parameters" :
   [
    {
     "is_this_ptr" : true,
     "referenced_type" : "_ZTIPN4aidl7android8hardware5radio5voice22BpRadioVoiceIndicationE"
    },
    {
     "referenced_type" : "_ZTIN4aidl7android8hardware5radio19RadioIndicationTypeE"
    },
    {
     "referenced_type" : "_ZTIRKNSt3__112basic_stringIcNS_11char_traitsIcEENS_9allocatorIcEEEE"
    }
   ],
   "return_type" : "_ZTIN3ndk13ScopedAStatusE",
   "source_file" : "out/soong/.intermediates/hardware/interfaces/radio/aidl/android.hardware.radio.voice-V1-ndk-source/gen/include/aidl/android/hardware/radio/voice/BpRadioVoiceIndication.h"
  },
  {
   "function_name" : "aidl::android::hardware::radio::voice::BpRadioVoiceIndication::currentEmergencyNumberList",
   "linker_set_key" : "_ZN4aidl7android8hardware5radio5voice22BpRadioVoiceIndication26currentEmergencyNumberListENS2_19RadioIndicationTypeERKNSt3__16vectorINS3_15EmergencyNumberENS6_9allocatorIS8_EEEE",
   "parameters" :
   [
    {
     "is_this_ptr" : true,
     "referenced_type" : "_ZTIPN4aidl7android8hardware5radio5voice22BpRadioVoiceIndicationE"
    },
    {
     "referenced_type" : "_ZTIN4aidl7android8hardware5radio19RadioIndicationTypeE"
    },
    {
     "referenced_type" : "_ZTIRKNSt3__16vectorIN4aidl7android8hardware5radio5voice15EmergencyNumberENS_9allocatorIS6_EEEE"
    }
   ],
   "return_type" : "_ZTIN3ndk13ScopedAStatusE",
   "source_file" : "out/soong/.intermediates/hardware/interfaces/radio/aidl/android.hardware.radio.voice-V1-ndk-source/gen/include/aidl/android/hardware/radio/voice/BpRadioVoiceIndication.h"
  },
  {
   "function_name" : "aidl::android::hardware::radio::voice::BpRadioVoiceIndication::enterEmergencyCallbackMode",
   "linker_set_key" : "_ZN4aidl7android8hardware5radio5voice22BpRadioVoiceIndication26enterEmergencyCallbackModeENS2_19RadioIndicationTypeE",
   "parameters" :
   [
    {
     "is_this_ptr" : true,
     "referenced_type" : "_ZTIPN4aidl7android8hardware5radio5voice22BpRadioVoiceIndicationE"
    },
    {
     "referenced_type" : "_ZTIN4aidl7android8hardware5radio19RadioIndicationTypeE"
    }
   ],
   "return_type" : "_ZTIN3ndk13ScopedAStatusE",
   "source_file" : "out/soong/.intermediates/hardware/interfaces/radio/aidl/android.hardware.radio.voice-V1-ndk-source/gen/include/aidl/android/hardware/radio/voice/BpRadioVoiceIndication.h"
  },
  {
   "function_name" : "aidl::android::hardware::radio::voice::BpRadioVoiceIndication::onSupplementaryServiceIndication",
   "linker_set_key" : "_ZN4aidl7android8hardware5radio5voice22BpRadioVoiceIndication32onSupplementaryServiceIndicationENS2_19RadioIndicationTypeERKNS3_18StkCcUnsolSsResultE",
   "parameters" :
   [
    {
     "is_this_ptr" : true,
     "referenced_type" : "_ZTIPN4aidl7android8hardware5radio5voice22BpRadioVoiceIndicationE"
    },
    {
     "referenced_type" : "_ZTIN4aidl7android8hardware5radio19RadioIndicationTypeE"
    },
    {
     "referenced_type" : "_ZTIRKN4aidl7android8hardware5radio5voice18StkCcUnsolSsResultE"
    }
   ],
   "return_type" : "_ZTIN3ndk13ScopedAStatusE",
   "source_file" : "out/soong/.intermediates/hardware/interfaces/radio/aidl/android.hardware.radio.voice-V1-ndk-source/gen/include/aidl/android/hardware/radio/voice/BpRadioVoiceIndication.h"
  },
  {
   "function_name" : "aidl::android::hardware::radio::voice::BpRadioVoiceIndication::onUssd",
   "linker_set_key" : "_ZN4aidl7android8hardware5radio5voice22BpRadioVoiceIndication6onUssdENS2_19RadioIndicationTypeENS3_12UssdModeTypeERKNSt3__112basic_stringIcNS7_11char_traitsIcEENS7_9allocatorIcEEEE",
   "parameters" :
   [
    {
     "is_this_ptr" : true,
     "referenced_type" : "_ZTIPN4aidl7android8hardware5radio5voice22BpRadioVoiceIndicationE"
    },
    {
