{
 "array_types" : [],
 "builtin_types" :
 [
  {
   "alignment" : 4,
   "linker_set_key" : "_ZTIDn",
   "name" : "std::nullptr_t",
   "referenced_type" : "_ZTIDn",
   "self_type" : "_ZTIDn",
   "size" : 4
  },
  {
   "alignment" : 1,
   "is_integral" : true,
   "is_unsigned" : true,
   "linker_set_key" : "_ZTIb",
   "name" : "bool",
   "referenced_type" : "_ZTIb",
   "self_type" : "_ZTIb",
   "size" : 1
  },
  {
   "alignment" : 1,
   "is_integral" : true,
   "linker_set_key" : "_ZTIc",
   "name" : "char",
   "referenced_type" : "_ZTIc",
   "self_type" : "_ZTIc",
   "size" : 1
  },
  {
   "alignment" : 4,
   "linker_set_key" : "_ZTId",
   "name" : "double",
   "referenced_type" : "_ZTId",
   "self_type" : "_ZTId",
   "size" : 8
  },
  {
   "alignment" : 1,
   "is_integral" : true,
   "is_unsigned" : true,
   "linker_set_key" : "_ZTIh",
   "name" : "unsigned char",
   "referenced_type" : "_ZTIh",
   "self_type" : "_ZTIh",
   "size" : 1
  },
  {
   "alignment" : 4,
   "is_integral" : true,
   "linker_set_key" : "_ZTIi",
   "name" : "int",
   "referenced_type" : "_ZTIi",
   "self_type" : "_ZTIi",
   "size" : 4
  },
  {
   "alignment" : 4,
   "is_integral" : true,
   "is_unsigned" : true,
   "linker_set_key" : "_ZTIj",
   "name" : "unsigned int",
   "referenced_type" : "_ZTIj",
   "self_type" : "_ZTIj",
   "size" : 4
  },
  {
   "linker_set_key" : "_ZTIv",
   "name" : "void",
   "referenced_type" : "_ZTIv",
   "self_type" : "_ZTIv"
  },
  {
   "alignment" : 4,
   "is_integral" : true,
   "linker_set_key" : "_ZTIx",
   "name" : "long long",
   "referenced_type" : "_ZTIx",
   "self_type" : "_ZTIx",
   "size" : 8
  }
 ],
 "elf_functions" :
 [
  {
   "binding" : "weak",
   "name" : "_ZN3ndk12BnCInterfaceIN4aidl7android8hardware3drm10IDrmPluginEE8asBinderEv"
  },
  {
   "binding" : "weak",
   "name" : "_ZN3ndk12BnCInterfaceIN4aidl7android8hardware3drm11IDrmFactoryEE8asBinderEv"
  },
  {
   "binding" : "weak",
   "name" : "_ZN3ndk12BnCInterfaceIN4aidl7android8hardware3drm13ICryptoPluginEE8asBinderEv"
  },
  {
   "binding" : "weak",
   "name" : "_ZN3ndk12BnCInterfaceIN4aidl7android8hardware3drm18IDrmPluginListenerEE8asBinderEv"
  },
  {
   "binding" : "weak",
   "name" : "_ZN3ndk12BpCInterfaceIN4aidl7android8hardware3drm10IDrmPluginEE8asBinderEv"
  },
  {
   "binding" : "weak",
   "name" : "_ZN3ndk12BpCInterfaceIN4aidl7android8hardware3drm11IDrmFactoryEE8asBinderEv"
  },
  {
   "binding" : "weak",
   "name" : "_ZN3ndk12BpCInterfaceIN4aidl7android8hardware3drm13ICryptoPluginEE8asBinderEv"
  },
  {
   "binding" : "weak",
   "name" : "_ZN3ndk12BpCInterfaceIN4aidl7android8hardware3drm18IDrmPluginListenerEE8asBinderEv"
  },
  {
   "binding" : "weak",
   "name" : "_ZN3ndk38AParcel_readStdVectorParcelableElementIN4aidl7android8hardware3drm10LogMessageEEEiPK7AParcelPvj"
  },
  {
   "binding" : "weak",
   "name" : "_ZN3ndk38AParcel_readStdVectorParcelableElementIN4aidl7android8hardware3drm10SecureStopEEEiPK7AParcelPvj"
  },
  {
   "binding" : "weak",
   "name" : "_ZN3ndk38AParcel_readStdVectorParcelableElementIN4aidl7android8hardware3drm12SecureStopIdEEEiPK7AParcelPvj"
  },
  {
   "binding" : "weak",
   "name" : "_ZN3ndk38AParcel_readStdVectorParcelableElementIN4aidl7android8hardware3drm14DrmMetricGroupEEEiPK7AParcelPvj"
  },
  {
   "binding" : "weak",
   "name" : "_ZN3ndk38AParcel_readStdVectorParcelableElementIN4aidl7android8hardware3drm19DrmMetricNamedValueEEEiPK7AParcelPvj"
  },
  {
   "binding" : "weak",
   "name" : "_ZN3ndk38AParcel_readStdVectorParcelableElementIN4aidl7android8hardware3drm20SupportedContentTypeEEEiPK7AParcelPvj"
  },
  {
   "binding" : "weak",
   "name" : "_ZN3ndk38AParcel_readStdVectorParcelableElementIN4aidl7android8hardware3drm4UuidEEEiPK7AParcelPvj"
  },
  {
   "binding" : "weak",
   "name" : "_ZN3ndk38AParcel_readStdVectorParcelableElementIN4aidl7android8hardware3drm8KeySetIdEEEiPK7AParcelPvj"
  },
  {
   "binding" : "weak",
   "name" : "_ZN3ndk38AParcel_readStdVectorParcelableElementIN4aidl7android8hardware3drm8KeyValueEEEiPK7AParcelPvj"
  },
  {
   "binding" : "weak",
   "name" : "_ZN3ndk38AParcel_readStdVectorParcelableElementIN4aidl7android8hardware3drm9DrmMetricEEEiPK7AParcelPvj"
  },
  {
   "binding" : "weak",
   "name" : "_ZN3ndk38AParcel_readStdVectorParcelableElementIN4aidl7android8hardware3drm9KeyStatusEEEiPK7AParcelPvj"
  },
  {
   "binding" : "weak",
   "name" : "_ZN3ndk38AParcel_readStdVectorParcelableElementIN4aidl7android8hardware3drm9SubSampleEEEiPK7AParcelPvj"
  },
  {
   "binding" : "weak",
   "name" : "_ZN3ndk39AParcel_writeStdVectorParcelableElementIN4aidl7android8hardware3drm10LogMessageEEEiP7AParcelPKvj"
  },
  {
   "binding" : "weak",
   "name" : "_ZN3ndk39AParcel_writeStdVectorParcelableElementIN4aidl7android8hardware3drm10SecureStopEEEiP7AParcelPKvj"
  },
  {
   "binding" : "weak",
   "name" : "_ZN3ndk39AParcel_writeStdVectorParcelableElementIN4aidl7android8hardware3drm12SecureStopIdEEEiP7AParcelPKvj"
  },
  {
   "binding" : "weak",
   "name" : "_ZN3ndk39AParcel_writeStdVectorParcelableElementIN4aidl7android8hardware3drm14DrmMetricGroupEEEiP7AParcelPKvj"
  },
  {
   "binding" : "weak",
   "name" : "_ZN3ndk39AParcel_writeStdVectorParcelableElementIN4aidl7android8hardware3drm19DrmMetricNamedValueEEEiP7AParcelPKvj"
  },
  {
   "binding" : "weak",
   "name" : "_ZN3ndk39AParcel_writeStdVectorParcelableElementIN4aidl7android8hardware3drm20SupportedContentTypeEEEiP7AParcelPKvj"
  },
  {
   "binding" : "weak",
   "name" : "_ZN3ndk39AParcel_writeStdVectorParcelableElementIN4aidl7android8hardware3drm4UuidEEEiP7AParcelPKvj"
  },
  {
   "binding" : "weak",
   "name" : "_ZN3ndk39AParcel_writeStdVectorParcelableElementIN4aidl7android8hardware3drm8KeySetIdEEEiP7AParcelPKvj"
  },
  {
   "binding" : "weak",
   "name" : "_ZN3ndk39AParcel_writeStdVectorParcelableElementIN4aidl7android8hardware3drm8KeyValueEEEiP7AParcelPKvj"
  },
  {
   "binding" : "weak",
   "name" : "_ZN3ndk39AParcel_writeStdVectorParcelableElementIN4aidl7android8hardware3drm9DrmMetricEEEiP7AParcelPKvj"
  },
  {
   "binding" : "weak",
   "name" : "_ZN3ndk39AParcel_writeStdVectorParcelableElementIN4aidl7android8hardware3drm9KeyStatusEEEiP7AParcelPKvj"
  },
  {
   "binding" : "weak",
   "name" : "_ZN3ndk39AParcel_writeStdVectorParcelableElementIN4aidl7android8hardware3drm9SubSampleEEEiP7AParcelPKvj"
  },
  {
   "name" : "_ZN4aidl7android8hardware3drm10HdcpLevels14readFromParcelEPK7AParcel"
  },
  {
   "name" : "_ZN4aidl7android8hardware3drm10IDrmPlugin10fromBinderERKN3ndk10SpAIBinderE"
  },
  {
   "name" : "_ZN4aidl7android8hardware3drm10IDrmPlugin13writeToParcelEP7AParcelRKNSt3__110shared_ptrIS3_EE"
  },
  {
   "name" : "_ZN4aidl7android8hardware3drm10IDrmPlugin14getDefaultImplEv"
  },
  {
   "name" : "_ZN4aidl7android8hardware3drm10IDrmPlugin14readFromParcelEPK7AParcelPNSt3__110shared_ptrIS3_EE"
  },
  {
   "name" : "_ZN4aidl7android8hardware3drm10IDrmPlugin14setDefaultImplERKNSt3__110shared_ptrIS3_EE"
  },
  {
   "name" : "_ZN4aidl7android8hardware3drm10IDrmPluginC2Ev"
  },
  {
   "name" : "_ZN4aidl7android8hardware3drm10IDrmPluginD0Ev"
  },
  {
   "name" : "_ZN4aidl7android8hardware3drm10IDrmPluginD1Ev"
  },
  {
   "name" : "_ZN4aidl7android8hardware3drm10IDrmPluginD2Ev"
  },
  {
   "name" : "_ZN4aidl7android8hardware3drm10KeyRequest14readFromParcelEPK7AParcel"
  },
  {
   "name" : "_ZN4aidl7android8hardware3drm10LogMessage14readFromParcelEPK7AParcel"
  },
  {
   "name" : "_ZN4aidl7android8hardware3drm10OpaqueData14readFromParcelEPK7AParcel"
  },
  {
   "name" : "_ZN4aidl7android8hardware3drm10SecureStop14readFromParcelEPK7AParcel"
  },
  {
   "name" : "_ZN4aidl7android8hardware3drm11BnDrmPlugin12createBinderEv"
  },
  {
   "name" : "_ZN4aidl7android8hardware3drm11BnDrmPlugin16getInterfaceHashEPNSt3__112basic_stringIcNS4_11char_traitsIcEENS4_9allocatorIcEEEE"
  },
  {
   "name" : "_ZN4aidl7android8hardware3drm11BnDrmPlugin19getInterfaceVersionEPi"
  },
  {
   "name" : "_ZN4aidl7android8hardware3drm11BnDrmPluginC2Ev"
  },
  {
   "name" : "_ZN4aidl7android8hardware3drm11BnDrmPluginD0Ev"
  },
  {
   "name" : "_ZN4aidl7android8hardware3drm11BnDrmPluginD1Ev"
  },
  {
   "name" : "_ZN4aidl7android8hardware3drm11BnDrmPluginD2Ev"
  },
  {
   "name" : "_ZN4aidl7android8hardware3drm11BpDrmPlugin10getMetricsEPNSt3__16vectorINS2_14DrmMetricGroupENS4_9allocatorIS6_EEEE"
  },
  {
   "name" : "_ZN4aidl7android8hardware3drm11BpDrmPlugin10removeKeysERKNSt3__16vectorIhNS4_9allocatorIhEEEE"
  },
  {
   "name" : "_ZN4aidl7android8hardware3drm11BpDrmPlugin11openSessionENS2_13SecurityLevelEPNSt3__16vectorIhNS5_9allocatorIhEEEE"
  },
  {
   "name" : "_ZN4aidl7android8hardware3drm11BpDrmPlugin11restoreKeysERKNSt3__16vectorIhNS4_9allocatorIhEEEERKNS2_8KeySetIdE"
  },
  {
   "name" : "_ZN4aidl7android8hardware3drm11BpDrmPlugin11setListenerERKNSt3__110shared_ptrINS2_18IDrmPluginListenerEEE"
  },
  {
   "name" : "_ZN4aidl7android8hardware3drm11BpDrmPlugin12closeSessionERKNSt3__16vectorIhNS4_9allocatorIhEEEE"
  },
  {
   "name" : "_ZN4aidl7android8hardware3drm11BpDrmPlugin13getHdcpLevelsEPNS2_10HdcpLevelsE"
  },
  {
   "name" : "_ZN4aidl7android8hardware3drm11BpDrmPlugin13getKeyRequestERKNSt3__16vectorIhNS4_9allocatorIhEEEESA_RKNS4_12basic_stringIcNS4_11char_traitsIcEENS6_IcEEEENS2_7KeyTypeERKNS5_INS2_8KeyValueENS6_ISJ_EEEEPNS2_10KeyRequestE"
  },
  {
   "name" : "_ZN4aidl7android8hardware3drm11BpDrmPlugin13getSecureStopERKNS2_12SecureStopIdEPNS2_10SecureStopE"
  },
  {
   "name" : "_ZN4aidl7android8hardware3drm11BpDrmPlugin13setPlaybackIdERKNSt3__16vectorIhNS4_9allocatorIhEEEERKNS4_12basic_stringIcNS4_11char_traitsIcEENS6_IcEEEE"
  },
  {
   "name" : "_ZN4aidl7android8hardware3drm11BpDrmPlugin14getLogMessagesEPNSt3__16vectorINS2_10LogMessageENS4_9allocatorIS6_EEEE"
  },
  {
   "name" : "_ZN4aidl7android8hardware3drm11BpDrmPlugin14getSecureStopsEPNSt3__16vectorINS2_10SecureStopENS4_9allocatorIS6_EEEE"
  },
  {
   "name" : "_ZN4aidl7android8hardware3drm11BpDrmPlugin14queryKeyStatusERKNSt3__16vectorIhNS4_9allocatorIhEEEEPNS5_INS2_8KeyValueENS6_ISB_EEEE"
  },
  {
   "name" : "_ZN4aidl7android8hardware3drm11BpDrmPlugin15setMacAlgorithmERKNSt3__16vectorIhNS4_9allocatorIhEEEERKNS4_12basic_stringIcNS4_11char_traitsIcEENS6_IcEEEE"
  },
  {
   "name" : "_ZN4aidl7android8hardware3drm11BpDrmPlugin16getInterfaceHashEPNSt3__112basic_stringIcNS4_11char_traitsIcEENS4_9allocatorIcEEEE"
  },
  {
   "name" : "_ZN4aidl7android8hardware3drm11BpDrmPlugin16getSecureStopIdsEPNSt3__16vectorINS2_12SecureStopIdENS4_9allocatorIS6_EEEE"
  },
  {
   "name" : "_ZN4aidl7android8hardware3drm11BpDrmPlugin16getSecurityLevelERKNSt3__16vectorIhNS4_9allocatorIhEEEEPNS2_13SecurityLevelE"
  },
  {
   "name" : "_ZN4aidl7android8hardware3drm11BpDrmPlugin16removeSecureStopERKNS2_12SecureStopIdE"
  },
  {
   "name" : "_ZN4aidl7android8hardware3drm11BpDrmPlugin17getPropertyStringERKNSt3__112basic_stringIcNS4_11char_traitsIcEENS4_9allocatorIcEEEEPSA_"
  },
  {
   "name" : "_ZN4aidl7android8hardware3drm11BpDrmPlugin17releaseSecureStopERKNS2_12SecureStopIdE"
  },
  {
   "name" : "_ZN4aidl7android8hardware3drm11BpDrmPlugin17setPropertyStringERKNSt3__112basic_stringIcNS4_11char_traitsIcEENS4_9allocatorIcEEEESC_"
  },
  {
   "name" : "_ZN4aidl7android8hardware3drm11BpDrmPlugin18provideKeyResponseERKNSt3__16vectorIhNS4_9allocatorIhEEEESA_PNS2_8KeySetIdE"
  },
  {
   "name" : "_ZN4aidl7android8hardware3drm11BpDrmPlugin18releaseSecureStopsERKNS2_10OpaqueDataE"
  },
  {
   "name" : "_ZN4aidl7android8hardware3drm11BpDrmPlugin18setCipherAlgorithmERKNSt3__16vectorIhNS4_9allocatorIhEEEERKNS4_12basic_stringIcNS4_11char_traitsIcEENS6_IcEEEE"
  },
  {
   "name" : "_ZN4aidl7android8hardware3drm11BpDrmPlugin19getInterfaceVersionEPi"
  },
  {
   "name" : "_ZN4aidl7android8hardware3drm11BpDrmPlugin19getNumberOfSessionsEPNS2_16NumberOfSessionsE"
  },
  {
   "name" : "_ZN4aidl7android8hardware3drm11BpDrmPlugin19getProvisionRequestERKNSt3__112basic_stringIcNS4_11char_traitsIcEENS4_9allocatorIcEEEESC_PNS2_16ProvisionRequestE"
  },
  {
   "name" : "_ZN4aidl7android8hardware3drm11BpDrmPlugin20getPropertyByteArrayERKNSt3__112basic_stringIcNS4_11char_traitsIcEENS4_9allocatorIcEEEEPNS4_6vectorIhNS8_IhEEEE"
  },
  {
   "name" : "_ZN4aidl7android8hardware3drm11BpDrmPlugin20removeAllSecureStopsEv"
  },
  {
   "name" : "_ZN4aidl7android8hardware3drm11BpDrmPlugin20removeOfflineLicenseERKNS2_8KeySetIdE"
  },
  {
   "name" : "_ZN4aidl7android8hardware3drm11BpDrmPlugin20setPropertyByteArrayERKNSt3__112basic_stringIcNS4_11char_traitsIcEENS4_9allocatorIcEEEERKNS4_6vectorIhNS8_IhEEEE"
  },
  {
   "name" : "_ZN4aidl7android8hardware3drm11BpDrmPlugin21releaseAllSecureStopsEv"
  },
  {
   "name" : "_ZN4aidl7android8hardware3drm11BpDrmPlugin21requiresSecureDecoderERKNSt3__112basic_stringIcNS4_11char_traitsIcEENS4_9allocatorIcEEEENS2_13SecurityLevelEPb"
  },
  {
   "name" : "_ZN4aidl7android8hardware3drm11BpDrmPlugin22getOfflineLicenseStateERKNS2_8KeySetIdEPNS2_19OfflineLicenseStateE"
  },
  {
   "name" : "_ZN4aidl7android8hardware3drm11BpDrmPlugin24provideProvisionResponseERKNSt3__16vectorIhNS4_9allocatorIhEEEEPNS2_30ProvideProvisionResponseResultE"
  },
  {
   "name" : "_ZN4aidl7android8hardware3drm11BpDrmPlugin26getOfflineLicenseKeySetIdsEPNSt3__16vectorINS2_8KeySetIdENS4_9allocatorIS6_EEEE"
  },
  {
   "name" : "_ZN4aidl7android8hardware3drm11BpDrmPlugin4signERKNSt3__16vectorIhNS4_9allocatorIhEEEESA_SA_PS8_"
  },
  {
   "name" : "_ZN4aidl7android8hardware3drm11BpDrmPlugin6verifyERKNSt3__16vectorIhNS4_9allocatorIhEEEESA_SA_SA_Pb"
  },
  {
   "name" : "_ZN4aidl7android8hardware3drm11BpDrmPlugin7decryptERKNSt3__16vectorIhNS4_9allocatorIhEEEESA_SA_SA_PS8_"
  },
  {
   "name" : "_ZN4aidl7android8hardware3drm11BpDrmPlugin7encryptERKNSt3__16vectorIhNS4_9allocatorIhEEEESA_SA_SA_PS8_"
  },
  {
   "name" : "_ZN4aidl7android8hardware3drm11BpDrmPlugin7signRSAERKNSt3__16vectorIhNS4_9allocatorIhEEEERKNS4_12basic_stringIcNS4_11char_traitsIcEENS6_IcEEEESA_SA_PS8_"
  },
  {
   "name" : "_ZN4aidl7android8hardware3drm11BpDrmPluginC1ERKN3ndk10SpAIBinderE"
  },
  {
   "name" : "_ZN4aidl7android8hardware3drm11BpDrmPluginC2ERKN3ndk10SpAIBinderE"
  },
  {
   "name" : "_ZN4aidl7android8hardware3drm11BpDrmPluginD0Ev"
  },
  {
   "name" : "_ZN4aidl7android8hardware3drm11BpDrmPluginD1Ev"
  },
  {
   "name" : "_ZN4aidl7android8hardware3drm11BpDrmPluginD2Ev"
  },
  {
   "name" : "_ZN4aidl7android8hardware3drm11DecryptArgs14readFromParcelEPK7AParcel"
  },
  {
   "name" : "_ZN4aidl7android8hardware3drm11IDrmFactory10fromBinderERKN3ndk10SpAIBinderE"
  },
  {
   "name" : "_ZN4aidl7android8hardware3drm11IDrmFactory13writeToParcelEP7AParcelRKNSt3__110shared_ptrIS3_EE"
  },
  {
   "name" : "_ZN4aidl7android8hardware3drm11IDrmFactory14getDefaultImplEv"
  },
  {
   "name" : "_ZN4aidl7android8hardware3drm11IDrmFactory14readFromParcelEPK7AParcelPNSt3__110shared_ptrIS3_EE"
  },
  {
   "name" : "_ZN4aidl7android8hardware3drm11IDrmFactory14setDefaultImplERKNSt3__110shared_ptrIS3_EE"
  },
  {
   "name" : "_ZN4aidl7android8hardware3drm11IDrmFactoryC2Ev"
  },
  {
   "name" : "_ZN4aidl7android8hardware3drm11IDrmFactoryD0Ev"
  },
  {
   "name" : "_ZN4aidl7android8hardware3drm11IDrmFactoryD1Ev"
  },
  {
   "name" : "_ZN4aidl7android8hardware3drm11IDrmFactoryD2Ev"
  },
  {
   "name" : "_ZN4aidl7android8hardware3drm12BnDrmFactory12createBinderEv"
  },
  {
   "name" : "_ZN4aidl7android8hardware3drm12BnDrmFactory16getInterfaceHashEPNSt3__112basic_stringIcNS4_11char_traitsIcEENS4_9allocatorIcEEEE"
  },
  {
   "name" : "_ZN4aidl7android8hardware3drm12BnDrmFactory19getInterfaceVersionEPi"
  },
  {
   "name" : "_ZN4aidl7android8hardware3drm12BnDrmFactoryC2Ev"
  },
  {
   "name" : "_ZN4aidl7android8hardware3drm12BnDrmFactoryD0Ev"
  },
  {
   "name" : "_ZN4aidl7android8hardware3drm12BnDrmFactoryD1Ev"
  },
  {
   "name" : "_ZN4aidl7android8hardware3drm12BnDrmFactoryD2Ev"
  },
  {
   "name" : "_ZN4aidl7android8hardware3drm12BpDrmFactory15createDrmPluginERKNS2_4UuidERKNSt3__112basic_stringIcNS7_11char_traitsIcEENS7_9allocatorIcEEEEPNS7_10shared_ptrINS2_10IDrmPluginEEE"
  },
  {
   "name" : "_ZN4aidl7android8hardware3drm12BpDrmFactory16getInterfaceHashEPNSt3__112basic_stringIcNS4_11char_traitsIcEENS4_9allocatorIcEEEE"
  },
  {
   "name" : "_ZN4aidl7android8hardware3drm12BpDrmFactory18createCryptoPluginERKNS2_4UuidERKNSt3__16vectorIhNS7_9allocatorIhEEEEPNS7_10shared_ptrINS2_13ICryptoPluginEEE"
  },
  {
   "name" : "_ZN4aidl7android8hardware3drm12BpDrmFactory19getInterfaceVersionEPi"
  },
  {
   "name" : "_ZN4aidl7android8hardware3drm12BpDrmFactory25getSupportedCryptoSchemesEPNS2_13CryptoSchemesE"
  },
  {
   "name" : "_ZN4aidl7android8hardware3drm12BpDrmFactoryC1ERKN3ndk10SpAIBinderE"
  },
  {
   "name" : "_ZN4aidl7android8hardware3drm12BpDrmFactoryC2ERKN3ndk10SpAIBinderE"
  },
  {
   "name" : "_ZN4aidl7android8hardware3drm12BpDrmFactoryD0Ev"
  },
  {
   "name" : "_ZN4aidl7android8hardware3drm12BpDrmFactoryD1Ev"
  },
  {
   "name" : "_ZN4aidl7android8hardware3drm12BpDrmFactoryD2Ev"
  },
  {
   "name" : "_ZN4aidl7android8hardware3drm12SecureStopId14readFromParcelEPK7AParcel"
  },
  {
   "name" : "_ZN4aidl7android8hardware3drm12SharedBuffer14readFromParcelEPK7AParcel"
  },
  {
   "name" : "_ZN4aidl7android8hardware3drm13CryptoSchemes14readFromParcelEPK7AParcel"
  },
  {
   "name" : "_ZN4aidl7android8hardware3drm13ICryptoPlugin10fromBinderERKN3ndk10SpAIBinderE"
  },
  {
   "name" : "_ZN4aidl7android8hardware3drm13ICryptoPlugin13writeToParcelEP7AParcelRKNSt3__110shared_ptrIS3_EE"
  },
  {
   "name" : "_ZN4aidl7android8hardware3drm13ICryptoPlugin14getDefaultImplEv"
  },
  {
   "name" : "_ZN4aidl7android8hardware3drm13ICryptoPlugin14readFromParcelEPK7AParcelPNSt3__110shared_ptrIS3_EE"
  },
  {
   "name" : "_ZN4aidl7android8hardware3drm13ICryptoPlugin14setDefaultImplERKNSt3__110shared_ptrIS3_EE"
  },
  {
   "name" : "_ZN4aidl7android8hardware3drm13ICryptoPluginC2Ev"
  },
  {
   "name" : "_ZN4aidl7android8hardware3drm13ICryptoPluginD0Ev"
  },
  {
   "name" : "_ZN4aidl7android8hardware3drm13ICryptoPluginD1Ev"
  },
  {
   "name" : "_ZN4aidl7android8hardware3drm13ICryptoPluginD2Ev"
  },
  {
   "name" : "_ZN4aidl7android8hardware3drm14BnCryptoPlugin12createBinderEv"
  },
  {
   "name" : "_ZN4aidl7android8hardware3drm14BnCryptoPlugin16getInterfaceHashEPNSt3__112basic_stringIcNS4_11char_traitsIcEENS4_9allocatorIcEEEE"
  },
  {
   "name" : "_ZN4aidl7android8hardware3drm14BnCryptoPlugin19getInterfaceVersionEPi"
  },
  {
   "name" : "_ZN4aidl7android8hardware3drm14BnCryptoPluginC2Ev"
  },
  {
   "name" : "_ZN4aidl7android8hardware3drm14BnCryptoPluginD0Ev"
  },
  {
   "name" : "_ZN4aidl7android8hardware3drm14BnCryptoPluginD1Ev"
  },
  {
   "name" : "_ZN4aidl7android8hardware3drm14BnCryptoPluginD2Ev"
  },
  {
   "name" : "_ZN4aidl7android8hardware3drm14BpCryptoPlugin14getLogMessagesEPNSt3__16vectorINS2_10LogMessageENS4_9allocatorIS6_EEEE"
  },
  {
   "name" : "_ZN4aidl7android8hardware3drm14BpCryptoPlugin16getInterfaceHashEPNSt3__112basic_stringIcNS4_11char_traitsIcEENS4_9allocatorIcEEEE"
  },
  {
   "name" : "_ZN4aidl7android8hardware3drm14BpCryptoPlugin16notifyResolutionEii"
  },
  {
   "name" : "_ZN4aidl7android8hardware3drm14BpCryptoPlugin18setMediaDrmSessionERKNSt3__16vectorIhNS4_9allocatorIhEEEE"
  },
  {
   "name" : "_ZN4aidl7android8hardware3drm14BpCryptoPlugin19getInterfaceVersionEPi"
  },
  {
   "name" : "_ZN4aidl7android8hardware3drm14BpCryptoPlugin19setSharedBufferBaseERKNS2_12SharedBufferE"
  },
  {
   "name" : "_ZN4aidl7android8hardware3drm14BpCryptoPlugin30requiresSecureDecoderComponentERKNSt3__112basic_stringIcNS4_11char_traitsIcEENS4_9allocatorIcEEEEPb"
  },
  {
   "name" : "_ZN4aidl7android8hardware3drm14BpCryptoPlugin7decryptERKNS2_11DecryptArgsEPi"
  },
  {
   "name" : "_ZN4aidl7android8hardware3drm14BpCryptoPluginC1ERKN3ndk10SpAIBinderE"
  },
  {
   "name" : "_ZN4aidl7android8hardware3drm14BpCryptoPluginC2ERKN3ndk10SpAIBinderE"
  },
  {
   "name" : "_ZN4aidl7android8hardware3drm14BpCryptoPluginD0Ev"
  },
  {
   "name" : "_ZN4aidl7android8hardware3drm14BpCryptoPluginD1Ev"
  },
  {
   "name" : "_ZN4aidl7android8hardware3drm14BpCryptoPluginD2Ev"
  },
  {
   "name" : "_ZN4aidl7android8hardware3drm14DrmMetricGroup14readFromParcelEPK7AParcel"
  },
  {
   "name" : "_ZN4aidl7android8hardware3drm14DrmMetricValue14readFromParcelEPK7AParcel"
  },
  {
   "name" : "_ZN4aidl7android8hardware3drm16NumberOfSessions14readFromParcelEPK7AParcel"
  },
  {
   "name" : "_ZN4aidl7android8hardware3drm16ProvisionRequest14readFromParcelEPK7AParcel"
  },
  {
   "name" : "_ZN4aidl7android8hardware3drm17DestinationBuffer14readFromParcelEPK7AParcel"
  },
  {
   "name" : "_ZN4aidl7android8hardware3drm17IDrmPluginDefault10getMetricsEPNSt3__16vectorINS2_14DrmMetricGroupENS4_9allocatorIS6_EEEE"
  },
  {
   "name" : "_ZN4aidl7android8hardware3drm17IDrmPluginDefault10removeKeysERKNSt3__16vectorIhNS4_9allocatorIhEEEE"
  },
  {
   "name" : "_ZN4aidl7android8hardware3drm17IDrmPluginDefault11openSessionENS2_13SecurityLevelEPNSt3__16vectorIhNS5_9allocatorIhEEEE"
  },
  {
   "name" : "_ZN4aidl7android8hardware3drm17IDrmPluginDefault11restoreKeysERKNSt3__16vectorIhNS4_9allocatorIhEEEERKNS2_8KeySetIdE"
  },
  {
   "name" : "_ZN4aidl7android8hardware3drm17IDrmPluginDefault11setListenerERKNSt3__110shared_ptrINS2_18IDrmPluginListenerEEE"
  },
  {
   "name" : "_ZN4aidl7android8hardware3drm17IDrmPluginDefault12closeSessionERKNSt3__16vectorIhNS4_9allocatorIhEEEE"
  },
  {
   "name" : "_ZN4aidl7android8hardware3drm17IDrmPluginDefault13getHdcpLevelsEPNS2_10HdcpLevelsE"
  },
  {
   "name" : "_ZN4aidl7android8hardware3drm17IDrmPluginDefault13getKeyRequestERKNSt3__16vectorIhNS4_9allocatorIhEEEESA_RKNS4_12basic_stringIcNS4_11char_traitsIcEENS6_IcEEEENS2_7KeyTypeERKNS5_INS2_8KeyValueENS6_ISJ_EEEEPNS2_10KeyRequestE"
  },
  {
   "name" : "_ZN4aidl7android8hardware3drm17IDrmPluginDefault13getSecureStopERKNS2_12SecureStopIdEPNS2_10SecureStopE"
  },
  {
   "name" : "_ZN4aidl7android8hardware3drm17IDrmPluginDefault13setPlaybackIdERKNSt3__16vectorIhNS4_9allocatorIhEEEERKNS4_12basic_stringIcNS4_11char_traitsIcEENS6_IcEEEE"
  },
  {
   "name" : "_ZN4aidl7android8hardware3drm17IDrmPluginDefault14getLogMessagesEPNSt3__16vectorINS2_10LogMessageENS4_9allocatorIS6_EEEE"
  },
  {
   "name" : "_ZN4aidl7android8hardware3drm17IDrmPluginDefault14getSecureStopsEPNSt3__16vectorINS2_10SecureStopENS4_9allocatorIS6_EEEE"
  },
  {
   "name" : "_ZN4aidl7android8hardware3drm17IDrmPluginDefault14queryKeyStatusERKNSt3__16vectorIhNS4_9allocatorIhEEEEPNS5_INS2_8KeyValueENS6_ISB_EEEE"
  },
  {
   "name" : "_ZN4aidl7android8hardware3drm17IDrmPluginDefault15setMacAlgorithmERKNSt3__16vectorIhNS4_9allocatorIhEEEERKNS4_12basic_stringIcNS4_11char_traitsIcEENS6_IcEEEE"
  },
  {
   "name" : "_ZN4aidl7android8hardware3drm17IDrmPluginDefault16getInterfaceHashEPNSt3__112basic_stringIcNS4_11char_traitsIcEENS4_9allocatorIcEEEE"
  },
  {
   "name" : "_ZN4aidl7android8hardware3drm17IDrmPluginDefault16getSecureStopIdsEPNSt3__16vectorINS2_12SecureStopIdENS4_9allocatorIS6_EEEE"
  },
  {
   "name" : "_ZN4aidl7android8hardware3drm17IDrmPluginDefault16getSecurityLevelERKNSt3__16vectorIhNS4_9allocatorIhEEEEPNS2_13SecurityLevelE"
  },
  {
   "name" : "_ZN4aidl7android8hardware3drm17IDrmPluginDefault16removeSecureStopERKNS2_12SecureStopIdE"
  },
  {
   "name" : "_ZN4aidl7android8hardware3drm17IDrmPluginDefault17getPropertyStringERKNSt3__112basic_stringIcNS4_11char_traitsIcEENS4_9allocatorIcEEEEPSA_"
  },
  {
   "name" : "_ZN4aidl7android8hardware3drm17IDrmPluginDefault17releaseSecureStopERKNS2_12SecureStopIdE"
  },
  {
   "name" : "_ZN4aidl7android8hardware3drm17IDrmPluginDefault17setPropertyStringERKNSt3__112basic_stringIcNS4_11char_traitsIcEENS4_9allocatorIcEEEESC_"
  },
  {
   "name" : "_ZN4aidl7android8hardware3drm17IDrmPluginDefault18provideKeyResponseERKNSt3__16vectorIhNS4_9allocatorIhEEEESA_PNS2_8KeySetIdE"
  },
  {
   "name" : "_ZN4aidl7android8hardware3drm17IDrmPluginDefault18releaseSecureStopsERKNS2_10OpaqueDataE"
  },
  {
   "name" : "_ZN4aidl7android8hardware3drm17IDrmPluginDefault18setCipherAlgorithmERKNSt3__16vectorIhNS4_9allocatorIhEEEERKNS4_12basic_stringIcNS4_11char_traitsIcEENS6_IcEEEE"
  },
  {
   "name" : "_ZN4aidl7android8hardware3drm17IDrmPluginDefault19getInterfaceVersionEPi"
  },
  {
   "name" : "_ZN4aidl7android8hardware3drm17IDrmPluginDefault19getNumberOfSessionsEPNS2_16NumberOfSessionsE"
  },
  {
   "name" : "_ZN4aidl7android8hardware3drm17IDrmPluginDefault19getProvisionRequestERKNSt3__112basic_stringIcNS4_11char_traitsIcEENS4_9allocatorIcEEEESC_PNS2_16ProvisionRequestE"
  },
  {
   "name" : "_ZN4aidl7android8hardware3drm17IDrmPluginDefault20getPropertyByteArrayERKNSt3__112basic_stringIcNS4_11char_traitsIcEENS4_9allocatorIcEEEEPNS4_6vectorIhNS8_IhEEEE"
  },
  {
   "name" : "_ZN4aidl7android8hardware3drm17IDrmPluginDefault20removeAllSecureStopsEv"
  },
  {
   "name" : "_ZN4aidl7android8hardware3drm17IDrmPluginDefault20removeOfflineLicenseERKNS2_8KeySetIdE"
  },
  {
   "name" : "_ZN4aidl7android8hardware3drm17IDrmPluginDefault20setPropertyByteArrayERKNSt3__112basic_stringIcNS4_11char_traitsIcEENS4_9allocatorIcEEEERKNS4_6vectorIhNS8_IhEEEE"
  },
  {
   "name" : "_ZN4aidl7android8hardware3drm17IDrmPluginDefault21releaseAllSecureStopsEv"
  },
  {
   "name" : "_ZN4aidl7android8hardware3drm17IDrmPluginDefault21requiresSecureDecoderERKNSt3__112basic_stringIcNS4_11char_traitsIcEENS4_9allocatorIcEEEENS2_13SecurityLevelEPb"
  },
  {
   "name" : "_ZN4aidl7android8hardware3drm17IDrmPluginDefault22getOfflineLicenseStateERKNS2_8KeySetIdEPNS2_19OfflineLicenseStateE"
  },
  {
   "name" : "_ZN4aidl7android8hardware3drm17IDrmPluginDefault24provideProvisionResponseERKNSt3__16vectorIhNS4_9allocatorIhEEEEPNS2_30ProvideProvisionResponseResultE"
  },
  {
   "name" : "_ZN4aidl7android8hardware3drm17IDrmPluginDefault26getOfflineLicenseKeySetIdsEPNSt3__16vectorINS2_8KeySetIdENS4_9allocatorIS6_EEEE"
  },
  {
   "name" : "_ZN4aidl7android8hardware3drm17IDrmPluginDefault4signERKNSt3__16vectorIhNS4_9allocatorIhEEEESA_SA_PS8_"
  },
  {
   "name" : "_ZN4aidl7android8hardware3drm17IDrmPluginDefault6verifyERKNSt3__16vectorIhNS4_9allocatorIhEEEESA_SA_SA_Pb"
  },
  {
   "name" : "_ZN4aidl7android8hardware3drm17IDrmPluginDefault7decryptERKNSt3__16vectorIhNS4_9allocatorIhEEEESA_SA_SA_PS8_"
  },
  {
   "name" : "_ZN4aidl7android8hardware3drm17IDrmPluginDefault7encryptERKNSt3__16vectorIhNS4_9allocatorIhEEEESA_SA_SA_PS8_"
  },
  {
   "name" : "_ZN4aidl7android8hardware3drm17IDrmPluginDefault7signRSAERKNSt3__16vectorIhNS4_9allocatorIhEEEERKNS4_12basic_stringIcNS4_11char_traitsIcEENS6_IcEEEESA_SA_PS8_"
  },
  {
   "name" : "_ZN4aidl7android8hardware3drm17IDrmPluginDefault8asBinderEv"
  },
  {
   "name" : "_ZN4aidl7android8hardware3drm17IDrmPluginDefault8isRemoteEv"
  },
  {
   "name" : "_ZN4aidl7android8hardware3drm18IDrmFactoryDefault15createDrmPluginERKNS2_4UuidERKNSt3__112basic_stringIcNS7_11char_traitsIcEENS7_9allocatorIcEEEEPNS7_10shared_ptrINS2_10IDrmPluginEEE"
  },
  {
   "name" : "_ZN4aidl7android8hardware3drm18IDrmFactoryDefault16getInterfaceHashEPNSt3__112basic_stringIcNS4_11char_traitsIcEENS4_9allocatorIcEEEE"
  },
  {
   "name" : "_ZN4aidl7android8hardware3drm18IDrmFactoryDefault18createCryptoPluginERKNS2_4UuidERKNSt3__16vectorIhNS7_9allocatorIhEEEEPNS7_10shared_ptrINS2_13ICryptoPluginEEE"
  },
  {
   "name" : "_ZN4aidl7android8hardware3drm18IDrmFactoryDefault19getInterfaceVersionEPi"
  },
  {
   "name" : "_ZN4aidl7android8hardware3drm18IDrmFactoryDefault25getSupportedCryptoSchemesEPNS2_13CryptoSchemesE"
  },
  {
   "name" : "_ZN4aidl7android8hardware3drm18IDrmFactoryDefault8asBinderEv"
  },
  {
   "name" : "_ZN4aidl7android8hardware3drm18IDrmFactoryDefault8isRemoteEv"
  },
  {
   "name" : "_ZN4aidl7android8hardware3drm18IDrmPluginListener10fromBinderERKN3ndk10SpAIBinderE"
  },
  {
   "name" : "_ZN4aidl7android8hardware3drm18IDrmPluginListener13writeToParcelEP7AParcelRKNSt3__110shared_ptrIS3_EE"
  },
  {
   "name" : "_ZN4aidl7android8hardware3drm18IDrmPluginListener14getDefaultImplEv"
  },
  {
   "name" : "_ZN4aidl7android8hardware3drm18IDrmPluginListener14readFromParcelEPK7AParcelPNSt3__110shared_ptrIS3_EE"
  },
  {
   "name" : "_ZN4aidl7android8hardware3drm18IDrmPluginListener14setDefaultImplERKNSt3__110shared_ptrIS3_EE"
  },
  {
   "name" : "_ZN4aidl7android8hardware3drm18IDrmPluginListenerC2Ev"
  },
  {
   "name" : "_ZN4aidl7android8hardware3drm18IDrmPluginListenerD0Ev"
  },
  {
   "name" : "_ZN4aidl7android8hardware3drm18IDrmPluginListenerD1Ev"
  },
  {
   "name" : "_ZN4aidl7android8hardware3drm18IDrmPluginListenerD2Ev"
  },
  {
   "name" : "_ZN4aidl7android8hardware3drm19BnDrmPluginListener12createBinderEv"
  },
  {
   "name" : "_ZN4aidl7android8hardware3drm19BnDrmPluginListener16getInterfaceHashEPNSt3__112basic_stringIcNS4_11char_traitsIcEENS4_9allocatorIcEEEE"
  },
  {
   "name" : "_ZN4aidl7android8hardware3drm19BnDrmPluginListener19getInterfaceVersionEPi"
  },
  {
   "name" : "_ZN4aidl7android8hardware3drm19BnDrmPluginListenerC2Ev"
  },
  {
   "name" : "_ZN4aidl7android8hardware3drm19BnDrmPluginListenerD0Ev"
  },
  {
   "name" : "_ZN4aidl7android8hardware3drm19BnDrmPluginListenerD1Ev"
  },
  {
   "name" : "_ZN4aidl7android8hardware3drm19BnDrmPluginListenerD2Ev"
  },
  {
   "name" : "_ZN4aidl7android8hardware3drm19BpDrmPluginListener12onKeysChangeERKNSt3__16vectorIhNS4_9allocatorIhEEEERKNS5_INS2_9KeyStatusENS6_ISB_EEEEb"
  },
  {
   "name" : "_ZN4aidl7android8hardware3drm19BpDrmPluginListener16getInterfaceHashEPNSt3__112basic_stringIcNS4_11char_traitsIcEENS4_9allocatorIcEEEE"
  },
  {
   "name" : "_ZN4aidl7android8hardware3drm19BpDrmPluginListener18onExpirationUpdateERKNSt3__16vectorIhNS4_9allocatorIhEEEEx"
  },
  {
   "name" : "_ZN4aidl7android8hardware3drm19BpDrmPluginListener18onSessionLostStateERKNSt3__16vectorIhNS4_9allocatorIhEEEE"
  },
  {
   "name" : "_ZN4aidl7android8hardware3drm19BpDrmPluginListener19getInterfaceVersionEPi"
  },
  {
   "name" : "_ZN4aidl7android8hardware3drm19BpDrmPluginListener7onEventENS2_9EventTypeERKNSt3__16vectorIhNS5_9allocatorIhEEEESB_"
  },
  {
   "name" : "_ZN4aidl7android8hardware3drm19BpDrmPluginListenerC1ERKN3ndk10SpAIBinderE"
  },
  {
   "name" : "_ZN4aidl7android8hardware3drm19BpDrmPluginListenerC2ERKN3ndk10SpAIBinderE"
  },
  {
   "name" : "_ZN4aidl7android8hardware3drm19BpDrmPluginListenerD0Ev"
  },
  {
   "name" : "_ZN4aidl7android8hardware3drm19BpDrmPluginListenerD1Ev"
  },
  {
   "name" : "_ZN4aidl7android8hardware3drm19BpDrmPluginListenerD2Ev"
  },
  {
   "name" : "_ZN4aidl7android8hardware3drm19DrmMetricNamedValue14readFromParcelEPK7AParcel"
  },
  {
   "name" : "_ZN4aidl7android8hardware3drm20ICryptoPluginDefault14getLogMessagesEPNSt3__16vectorINS2_10LogMessageENS4_9allocatorIS6_EEEE"
  },
  {
   "name" : "_ZN4aidl7android8hardware3drm20ICryptoPluginDefault16getInterfaceHashEPNSt3__112basic_stringIcNS4_11char_traitsIcEENS4_9allocatorIcEEEE"
  },
  {
   "name" : "_ZN4aidl7android8hardware3drm20ICryptoPluginDefault16notifyResolutionEii"
  },
  {
   "name" : "_ZN4aidl7android8hardware3drm20ICryptoPluginDefault18setMediaDrmSessionERKNSt3__16vectorIhNS4_9allocatorIhEEEE"
  },
  {
   "name" : "_ZN4aidl7android8hardware3drm20ICryptoPluginDefault19getInterfaceVersionEPi"
  },
  {
   "name" : "_ZN4aidl7android8hardware3drm20ICryptoPluginDefault19setSharedBufferBaseERKNS2_12SharedBufferE"
  },
  {
   "name" : "_ZN4aidl7android8hardware3drm20ICryptoPluginDefault30requiresSecureDecoderComponentERKNSt3__112basic_stringIcNS4_11char_traitsIcEENS4_9allocatorIcEEEEPb"
  },
  {
   "name" : "_ZN4aidl7android8hardware3drm20ICryptoPluginDefault7decryptERKNS2_11DecryptArgsEPi"
  },
  {
   "name" : "_ZN4aidl7android8hardware3drm20ICryptoPluginDefault8asBinderEv"
  },
  {
   "name" : "_ZN4aidl7android8hardware3drm20ICryptoPluginDefault8isRemoteEv"
  },
  {
   "name" : "_ZN4aidl7android8hardware3drm20SupportedContentType14readFromParcelEPK7AParcel"
  },
  {
   "name" : "_ZN4aidl7android8hardware3drm25IDrmPluginListenerDefault12onKeysChangeERKNSt3__16vectorIhNS4_9allocatorIhEEEERKNS5_INS2_9KeyStatusENS6_ISB_EEEEb"
  },
  {
   "name" : "_ZN4aidl7android8hardware3drm25IDrmPluginListenerDefault16getInterfaceHashEPNSt3__112basic_stringIcNS4_11char_traitsIcEENS4_9allocatorIcEEEE"
  },
  {
   "name" : "_ZN4aidl7android8hardware3drm25IDrmPluginListenerDefault18onExpirationUpdateERKNSt3__16vectorIhNS4_9allocatorIhEEEEx"
  },
  {
   "name" : "_ZN4aidl7android8hardware3drm25IDrmPluginListenerDefault18onSessionLostStateERKNSt3__16vectorIhNS4_9allocatorIhEEEE"
  },
  {
   "name" : "_ZN4aidl7android8hardware3drm25IDrmPluginListenerDefault19getInterfaceVersionEPi"
  },
  {
   "name" : "_ZN4aidl7android8hardware3drm25IDrmPluginListenerDefault7onEventENS2_9EventTypeERKNSt3__16vectorIhNS5_9allocatorIhEEEESB_"
  },
  {
   "name" : "_ZN4aidl7android8hardware3drm25IDrmPluginListenerDefault8asBinderEv"
  },
  {
   "name" : "_ZN4aidl7android8hardware3drm25IDrmPluginListenerDefault8isRemoteEv"
  },
  {
   "name" : "_ZN4aidl7android8hardware3drm30ProvideProvisionResponseResult14readFromParcelEPK7AParcel"
  },
  {
   "name" : "_ZN4aidl7android8hardware3drm4Uuid14readFromParcelEPK7AParcel"
  },
  {
   "name" : "_ZN4aidl7android8hardware3drm7Pattern14readFromParcelEPK7AParcel"
  },
  {
   "name" : "_ZN4aidl7android8hardware3drm8KeySetId14readFromParcelEPK7AParcel"
  },
  {
   "name" : "_ZN4aidl7android8hardware3drm8KeyValue14readFromParcelEPK7AParcel"
  },
  {
   "name" : "_ZN4aidl7android8hardware3drm9DrmMetric14readFromParcelEPK7AParcel"
  },
  {
   "name" : "_ZN4aidl7android8hardware3drm9KeyStatus14readFromParcelEPK7AParcel"
  },
  {
   "name" : "_ZN4aidl7android8hardware3drm9SubSample14readFromParcelEPK7AParcel"
  },
  {
   "name" : "_ZNK4aidl7android8hardware3drm10HdcpLevels13writeToParcelEP7AParcel"
  },
  {
   "name" : "_ZNK4aidl7android8hardware3drm10KeyRequest13writeToParcelEP7AParcel"
  },
  {
   "name" : "_ZNK4aidl7android8hardware3drm10LogMessage13writeToParcelEP7AParcel"
  },
  {
   "name" : "_ZNK4aidl7android8hardware3drm10OpaqueData13writeToParcelEP7AParcel"
  },
  {
   "name" : "_ZNK4aidl7android8hardware3drm10SecureStop13writeToParcelEP7AParcel"
  },
  {
   "name" : "_ZNK4aidl7android8hardware3drm11DecryptArgs13writeToParcelEP7AParcel"
  },
  {
   "name" : "_ZNK4aidl7android8hardware3drm12SecureStopId13writeToParcelEP7AParcel"
  },
  {
   "name" : "_ZNK4aidl7android8hardware3drm12SharedBuffer13writeToParcelEP7AParcel"
  },
  {
   "name" : "_ZNK4aidl7android8hardware3drm13CryptoSchemes13writeToParcelEP7AParcel"
  },
  {
   "name" : "_ZNK4aidl7android8hardware3drm14DrmMetricGroup13writeToParcelEP7AParcel"
  },
  {
   "name" : "_ZNK4aidl7android8hardware3drm14DrmMetricValue13writeToParcelEP7AParcel"
  },
  {
   "name" : "_ZNK4aidl7android8hardware3drm16NumberOfSessions13writeToParcelEP7AParcel"
  },
  {
   "name" : "_ZNK4aidl7android8hardware3drm16ProvisionRequest13writeToParcelEP7AParcel"
  },
  {
   "name" : "_ZNK4aidl7android8hardware3drm17DestinationBuffer13writeToParcelEP7AParcel"
  },
  {
   "name" : "_ZNK4aidl7android8hardware3drm19DrmMetricNamedValue13writeToParcelEP7AParcel"
  },
  {
   "name" : "_ZNK4aidl7android8hardware3drm20SupportedContentType13writeToParcelEP7AParcel"
  },
  {
   "name" : "_ZNK4aidl7android8hardware3drm30ProvideProvisionResponseResult13writeToParcelEP7AParcel"
  },
  {
   "name" : "_ZNK4aidl7android8hardware3drm4Uuid13writeToParcelEP7AParcel"
  },
  {
   "name" : "_ZNK4aidl7android8hardware3drm7Pattern13writeToParcelEP7AParcel"
  },
  {
   "name" : "_ZNK4aidl7android8hardware3drm8KeySetId13writeToParcelEP7AParcel"
  },
  {
   "name" : "_ZNK4aidl7android8hardware3drm8KeyValue13writeToParcelEP7AParcel"
  },
  {
   "name" : "_ZNK4aidl7android8hardware3drm9DrmMetric13writeToParcelEP7AParcel"
  },
  {
   "name" : "_ZNK4aidl7android8hardware3drm9KeyStatus13writeToParcelEP7AParcel"
  },
  {
   "name" : "_ZNK4aidl7android8hardware3drm9SubSample13writeToParcelEP7AParcel"
  },
  {
   "binding" : "weak",
   "name" : "_ZNSt3__110shared_ptrIN4aidl7android8hardware3drm10IDrmPluginEED2Ev"
  },
  {
   "binding" : "weak",
   "name" : "_ZNSt3__110shared_ptrIN4aidl7android8hardware3drm11IDrmFactoryEED2Ev"
  },
  {
   "binding" : "weak",
   "name" : "_ZNSt3__110shared_ptrIN4aidl7android8hardware3drm13ICryptoPluginEED2Ev"
  },
  {
   "binding" : "weak",
   "name" : "_ZNSt3__110shared_ptrIN4aidl7android8hardware3drm18IDrmPluginListenerEED2Ev"
  },
  {
   "binding" : "weak",
   "name" : "_ZNSt3__120__shared_ptr_pointerIPN3ndk13SharedRefBaseENS_14default_deleteIS2_EENS_9allocatorIS2_EEE16__on_zero_sharedEv"
  },
  {
   "binding" : "weak",
   "name" : "_ZNSt3__120__shared_ptr_pointerIPN3ndk13SharedRefBaseENS_14default_deleteIS2_EENS_9allocatorIS2_EEE21__on_zero_shared_weakEv"
  },
  {
   "binding" : "weak",
   "name" : "_ZNSt3__16vectorIN4aidl7android8hardware3drm10LogMessageENS_9allocatorIS5_EEE8__appendEj"
  },
  {
   "binding" : "weak",
   "name" : "_ZNSt3__16vectorIN4aidl7android8hardware3drm10SecureStopENS_9allocatorIS5_EEE8__appendEj"
  },
  {
   "binding" : "weak",
   "name" : "_ZNSt3__16vectorIN4aidl7android8hardware3drm12SecureStopIdENS_9allocatorIS5_EEE8__appendEj"
  },
  {
   "binding" : "weak",
   "name" : "_ZNSt3__16vectorIN4aidl7android8hardware3drm14DrmMetricGroupENS_9allocatorIS5_EEE8__appendEj"
  },
  {
   "binding" : "weak",
   "name" : "_ZNSt3__16vectorIN4aidl7android8hardware3drm19DrmMetricNamedValueENS_9allocatorIS5_EEE8__appendEj"
  },
  {
   "binding" : "weak",
   "name" : "_ZNSt3__16vectorIN4aidl7android8hardware3drm20SupportedContentTypeENS_9allocatorIS5_EEE8__appendEj"
  },
  {
   "binding" : "weak",
   "name" : "_ZNSt3__16vectorIN4aidl7android8hardware3drm4UuidENS_9allocatorIS5_EEE8__appendEj"
  },
  {
   "binding" : "weak",
   "name" : "_ZNSt3__16vectorIN4aidl7android8hardware3drm8KeySetIdENS_9allocatorIS5_EEE8__appendEj"
  },
  {
   "binding" : "weak",
   "name" : "_ZNSt3__16vectorIN4aidl7android8hardware3drm8KeyValueENS_9allocatorIS5_EEE8__appendEj"
  },
  {
   "binding" : "weak",
   "name" : "_ZNSt3__16vectorIN4aidl7android8hardware3drm9DrmMetricENS_9allocatorIS5_EEE8__appendEj"
  },
  {
   "binding" : "weak",
   "name" : "_ZNSt3__16vectorIN4aidl7android8hardware3drm9KeyStatusENS_9allocatorIS5_EEE8__appendEj"
  },
  {
   "binding" : "weak",
   "name" : "_ZNSt3__16vectorIN4aidl7android8hardware3drm9SubSampleENS_9allocatorIS5_EEE8__appendEj"
  },
  {
   "binding" : "weak",
   "name" : "_ZNSt3__16vectorIaNS_9allocatorIaEEE8__appendEj"
  }
 ],
 "elf_objects" :
 [
  {
   "binding" : "weak",
   "name" : "_ZGVN4aidl7android8hardware3drm10IDrmPlugin4hashE"
  },
  {
   "binding" : "weak",
   "name" : "_ZGVN4aidl7android8hardware3drm11IDrmFactory4hashE"
  },
  {
   "binding" : "weak",
   "name" : "_ZGVN4aidl7android8hardware3drm13ICryptoPlugin4hashE"
  },
  {
   "binding" : "weak",
   "name" : "_ZGVN4aidl7android8hardware3drm18IDrmPluginListener4hashE"
  },
  {
   "name" : "_ZN4aidl7android8hardware3drm10HdcpLevels10descriptorE"
  },
  {
   "name" : "_ZN4aidl7android8hardware3drm10IDrmPlugin10descriptorE"
  },
  {
   "name" : "_ZN4aidl7android8hardware3drm10IDrmPlugin12default_implE"
  },
  {
   "binding" : "weak",
   "name" : "_ZN4aidl7android8hardware3drm10IDrmPlugin4hashE"
  },
  {
   "name" : "_ZN4aidl7android8hardware3drm10KeyRequest10descriptorE"
  },
  {
   "name" : "_ZN4aidl7android8hardware3drm10LogMessage10descriptorE"
  },
  {
   "name" : "_ZN4aidl7android8hardware3drm10OpaqueData10descriptorE"
  },
  {
   "name" : "_ZN4aidl7android8hardware3drm10SecureStop10descriptorE"
  },
  {
   "name" : "_ZN4aidl7android8hardware3drm11DecryptArgs10descriptorE"
  },
  {
   "name" : "_ZN4aidl7android8hardware3drm11IDrmFactory10descriptorE"
  },
  {
   "name" : "_ZN4aidl7android8hardware3drm11IDrmFactory12default_implE"
  },
  {
   "binding" : "weak",
   "name" : "_ZN4aidl7android8hardware3drm11IDrmFactory4hashE"
  },
  {
   "name" : "_ZN4aidl7android8hardware3drm12SecureStopId10descriptorE"
  },
  {
   "name" : "_ZN4aidl7android8hardware3drm12SharedBuffer10descriptorE"
  },
  {
   "name" : "_ZN4aidl7android8hardware3drm13CryptoSchemes10descriptorE"
  },
  {
   "name" : "_ZN4aidl7android8hardware3drm13ICryptoPlugin10descriptorE"
  },
  {
   "name" : "_ZN4aidl7android8hardware3drm13ICryptoPlugin12default_implE"
  },
  {
   "binding" : "weak",
   "name" : "_ZN4aidl7android8hardware3drm13ICryptoPlugin4hashE"
  },
  {
   "name" : "_ZN4aidl7android8hardware3drm14DrmMetricGroup10descriptorE"
  },
  {
   "name" : "_ZN4aidl7android8hardware3drm14DrmMetricValue10descriptorE"
  },
  {
   "name" : "_ZN4aidl7android8hardware3drm16NumberOfSessions10descriptorE"
  },
  {
   "name" : "_ZN4aidl7android8hardware3drm16ProvisionRequest10descriptorE"
  },
  {
   "name" : "_ZN4aidl7android8hardware3drm17DestinationBuffer10descriptorE"
  },
  {
   "name" : "_ZN4aidl7android8hardware3drm18IDrmPluginListener10descriptorE"
  },
  {
   "name" : "_ZN4aidl7android8hardware3drm18IDrmPluginListener12default_implE"
  },
  {
   "binding" : "weak",
   "name" : "_ZN4aidl7android8hardware3drm18IDrmPluginListener4hashE"
  },
  {
   "name" : "_ZN4aidl7android8hardware3drm19DrmMetricNamedValue10descriptorE"
  },
  {
   "name" : "_ZN4aidl7android8hardware3drm20SupportedContentType10descriptorE"
  },
  {
   "name" : "_ZN4aidl7android8hardware3drm30ProvideProvisionResponseResult10descriptorE"
  },
  {
   "name" : "_ZN4aidl7android8hardware3drm4Uuid10descriptorE"
  },
  {
   "name" : "_ZN4aidl7android8hardware3drm7Pattern10descriptorE"
  },
  {
   "name" : "_ZN4aidl7android8hardware3drm8KeySetId10descriptorE"
  },
  {
   "name" : "_ZN4aidl7android8hardware3drm8KeyValue10descriptorE"
  },
  {
   "name" : "_ZN4aidl7android8hardware3drm9DrmMetric10descriptorE"
  },
  {
   "name" : "_ZN4aidl7android8hardware3drm9KeyStatus10descriptorE"
  },
  {
   "name" : "_ZN4aidl7android8hardware3drm9SubSample10descriptorE"
  },
  {
   "binding" : "weak",
   "name" : "_ZTVN3ndk12BnCInterfaceIN4aidl7android8hardware3drm10IDrmPluginEEE"
  },
  {
   "binding" : "weak",
   "name" : "_ZTVN3ndk12BnCInterfaceIN4aidl7android8hardware3drm11IDrmFactoryEEE"
  },
  {
   "binding" : "weak",
   "name" : "_ZTVN3ndk12BnCInterfaceIN4aidl7android8hardware3drm13ICryptoPluginEEE"
  },
  {
   "binding" : "weak",
   "name" : "_ZTVN3ndk12BnCInterfaceIN4aidl7android8hardware3drm18IDrmPluginListenerEEE"
  },
  {
   "binding" : "weak",
   "name" : "_ZTVN3ndk12BpCInterfaceIN4aidl7android8hardware3drm10IDrmPluginEEE"
  },
  {
   "binding" : "weak",
   "name" : "_ZTVN3ndk12BpCInterfaceIN4aidl7android8hardware3drm11IDrmFactoryEEE"
  },
  {
   "binding" : "weak",
   "name" : "_ZTVN3ndk12BpCInterfaceIN4aidl7android8hardware3drm13ICryptoPluginEEE"
  },
  {
   "binding" : "weak",
   "name" : "_ZTVN3ndk12BpCInterfaceIN4aidl7android8hardware3drm18IDrmPluginListenerEEE"
  },
  {
   "binding" : "weak",
   "name" : "_ZTVN3ndk13SharedRefBaseE"
  },
  {
   "name" : "_ZTVN4aidl7android8hardware3drm10IDrmPluginE"
  },
  {
   "name" : "_ZTVN4aidl7android8hardware3drm11BnDrmPluginE"
  },
  {
   "name" : "_ZTVN4aidl7android8hardware3drm11BpDrmPluginE"
  },
  {
   "name" : "_ZTVN4aidl7android8hardware3drm11IDrmFactoryE"
  },
  {
   "name" : "_ZTVN4aidl7android8hardware3drm12BnDrmFactoryE"
  },
  {
   "name" : "_ZTVN4aidl7android8hardware3drm12BpDrmFactoryE"
  },
  {
   "name" : "_ZTVN4aidl7android8hardware3drm13ICryptoPluginE"
  },
  {
   "name" : "_ZTVN4aidl7android8hardware3drm14BnCryptoPluginE"
  },
  {
   "name" : "_ZTVN4aidl7android8hardware3drm14BpCryptoPluginE"
  },
  {
   "name" : "_ZTVN4aidl7android8hardware3drm17IDrmPluginDefaultE"
  },
  {
   "name" : "_ZTVN4aidl7android8hardware3drm18IDrmFactoryDefaultE"
  },
  {
   "name" : "_ZTVN4aidl7android8hardware3drm18IDrmPluginListenerE"
  },
  {
   "name" : "_ZTVN4aidl7android8hardware3drm19BnDrmPluginListenerE"
  },
  {
   "name" : "_ZTVN4aidl7android8hardware3drm19BpDrmPluginListenerE"
  },
  {
   "name" : "_ZTVN4aidl7android8hardware3drm20ICryptoPluginDefaultE"
  },
  {
   "name" : "_ZTVN4aidl7android8hardware3drm25IDrmPluginListenerDefaultE"
  },
  {
   "binding" : "weak",
   "name" : "_ZTVNSt3__120__shared_ptr_pointerIPN3ndk13SharedRefBaseENS_14default_deleteIS2_EENS_9allocatorIS2_EEEE"
  }
 ],
 "enum_types" :
 [
  {
   "alignment" : 4,
   "enum_fields" :
   [
    {
     "enum_field_value" : 1,
     "name" : "FLAG_ONEWAY"
    }
   ],
   "linker_set_key" : "_ZTI12$FLAG_ONEWAY",
   "name" : "(unnamed enum at frameworks/native/libs/binder/ndk/include_ndk/android/binder_ibinder.h:43:1)",
   "referenced_type" : "_ZTI12$FLAG_ONEWAY",
   "self_type" : "_ZTI12$FLAG_ONEWAY",
   "size" : 4,
   "source_file" : "frameworks/native/libs/binder/ndk/include_ndk/android/binder_ibinder.h",
   "underlying_type" : "_ZTIj"
  },
  {
   "alignment" : 4,
   "enum_fields" :
   [
    {
     "enum_field_value" : 0,
     "name" : "EX_NONE"
    },
    {
     "enum_field_value" : -1,
     "name" : "EX_SECURITY"
    },
    {
     "enum_field_value" : -2,
     "name" : "EX_BAD_PARCELABLE"
    },
    {
     "enum_field_value" : -3,
     "name" : "EX_ILLEGAL_ARGUMENT"
    },
    {
     "enum_field_value" : -4,
     "name" : "EX_NULL_POINTER"
    },
    {
     "enum_field_value" : -5,
     "name" : "EX_ILLEGAL_STATE"
    },
    {
     "enum_field_value" : -6,
     "name" : "EX_NETWORK_MAIN_THREAD"
    },
    {
     "enum_field_value" : -7,
     "name" : "EX_UNSUPPORTED_OPERATION"
    },
    {
     "enum_field_value" : -8,
     "name" : "EX_SERVICE_SPECIFIC"
    },
    {
     "enum_field_value" : -9,
     "name" : "EX_PARCELABLE"
    },
    {
     "enum_field_value" : -129,
     "name" : "EX_TRANSACTION_FAILED"
    }
   ],
   "linker_set_key" : "_ZTI18$EX_BAD_PARCELABLE",
   "name" : "(unnamed enum at frameworks/native/libs/binder/ndk/include_ndk/android/binder_status.h:94:1)",
   "referenced_type" : "_ZTI18$EX_BAD_PARCELABLE",
   "self_type" : "_ZTI18$EX_BAD_PARCELABLE",
   "size" : 4,
   "source_file" : "frameworks/native/libs/binder/ndk/include_ndk/android/binder_status.h",
   "underlying_type" : "_ZTIi"
  },
  {
   "alignment" : 4,
   "enum_fields" :
   [
    {
     "enum_field_value" : 268435456,
     "name" : "FLAG_PRIVATE_LOCAL"
    }
   ],
   "linker_set_key" : "_ZTI19$FLAG_PRIVATE_LOCAL",
   "name" : "(unnamed enum at frameworks/native/libs/binder/ndk/include_platform/android/binder_stability.h:35:1)",
   "referenced_type" : "_ZTI19$FLAG_PRIVATE_LOCAL",
   "self_type" : "_ZTI19$FLAG_PRIVATE_LOCAL",
   "size" : 4,
   "source_file" : "frameworks/native/libs/binder/ndk/include_platform/android/binder_stability.h",
   "underlying_type" : "_ZTIj"
  },
  {
   "alignment" : 4,
   "enum_fields" :
   [
    {
     "enum_field_value" : 268435456,
     "name" : "FLAG_PRIVATE_VENDOR"
    }
   ],
   "linker_set_key" : "_ZTI20$FLAG_PRIVATE_VENDOR",
   "name" : "(unnamed enum at frameworks/native/libs/binder/ndk/include_platform/android/binder_stability.h:26:1)",
   "referenced_type" : "_ZTI20$FLAG_PRIVATE_VENDOR",
   "self_type" : "_ZTI20$FLAG_PRIVATE_VENDOR",
   "size" : 4,
   "source_file" : "frameworks/native/libs/binder/ndk/include_platform/android/binder_stability.h",
   "underlying_type" : "_ZTIj"
  },
  {
   "alignment" : 4,
   "enum_fields" :
   [
    {
     "enum_field_value" : 0,
     "name" : "STATUS_OK"
    },
    {
     "enum_field_value" : -2147483648,
     "name" : "STATUS_UNKNOWN_ERROR"
    },
    {
     "enum_field_value" : -12,
     "name" : "STATUS_NO_MEMORY"
    },
    {
     "enum_field_value" : -38,
     "name" : "STATUS_INVALID_OPERATION"
    },
    {
     "enum_field_value" : -22,
     "name" : "STATUS_BAD_VALUE"
    },
    {
     "enum_field_value" : -2147483647,
     "name" : "STATUS_BAD_TYPE"
    },
    {
     "enum_field_value" : -2,
     "name" : "STATUS_NAME_NOT_FOUND"
    },
    {
     "enum_field_value" : -1,
     "name" : "STATUS_PERMISSION_DENIED"
    },
    {
     "enum_field_value" : -19,
     "name" : "STATUS_NO_INIT"
    },
    {
     "enum_field_value" : -17,
     "name" : "STATUS_ALREADY_EXISTS"
    },
    {
     "enum_field_value" : -32,
     "name" : "STATUS_DEAD_OBJECT"
    },
    {
     "enum_field_value" : -2147483646,
     "name" : "STATUS_FAILED_TRANSACTION"
    },
    {
     "enum_field_value" : -75,
     "name" : "STATUS_BAD_INDEX"
    },
    {
     "enum_field_value" : -61,
     "name" : "STATUS_NOT_ENOUGH_DATA"
    },
    {
     "enum_field_value" : -11,
     "name" : "STATUS_WOULD_BLOCK"
    },
    {
     "enum_field_value" : -110,
     "name" : "STATUS_TIMED_OUT"
    },
    {
     "enum_field_value" : -74,
     "name" : "STATUS_UNKNOWN_TRANSACTION"
    },
    {
     "enum_field_value" : -2147483641,
     "name" : "STATUS_FDS_NOT_ALLOWED"
    },
    {
     "enum_field_value" : -2147483640,
     "name" : "STATUS_UNEXPECTED_NULL"
    }
   ],
   "linker_set_key" : "_ZTI22$STATUS_ALREADY_EXISTS",
   "name" : "(unnamed enum at frameworks/native/libs/binder/ndk/include_ndk/android/binder_status.h:60:1)",
   "referenced_type" : "_ZTI22$STATUS_ALREADY_EXISTS",
   "self_type" : "_ZTI22$STATUS_ALREADY_EXISTS",
   "size" : 4,
   "source_file" : "frameworks/native/libs/binder/ndk/include_ndk/android/binder_status.h",
   "underlying_type" : "_ZTIi"
  },
  {
   "alignment" : 4,
   "enum_fields" :
   [
    {
     "enum_field_value" : 1,
     "name" : "FIRST_CALL_TRANSACTION"
    },
    {
     "enum_field_value" : 16777215,
     "name" : "LAST_CALL_TRANSACTION"
    }
   ],
   "linker_set_key" : "_ZTI23$FIRST_CALL_TRANSACTION",
   "name" : "(unnamed enum at frameworks/native/libs/binder/ndk/include_ndk/android/binder_ibinder.h:58:1)",
   "referenced_type" : "_ZTI23$FIRST_CALL_TRANSACTION",
   "self_type" : "_ZTI23$FIRST_CALL_TRANSACTION",
   "size" : 4,
   "source_file" : "frameworks/native/libs/binder/ndk/include_ndk/android/binder_ibinder.h",
   "underlying_type" : "_ZTIj"
  },
  {
   "alignment" : 4,
   "enum_fields" :
   [
    {
     "enum_field_value" : 0,
     "name" : "ndk::STABILITY_LOCAL"
    },
    {
     "enum_field_value" : 1,
     "name" : "ndk::STABILITY_VINTF"
    }
   ],
   "linker_set_key" : "_ZTIN3ndk16$STABILITY_LOCALE",
   "name" : "ndk::(unnamed enum at frameworks/native/libs/binder/ndk/include_cpp/android/binder_parcelable_utils.h:34:1)",
   "referenced_type" : "_ZTIN3ndk16$STABILITY_LOCALE",
   "self_type" : "_ZTIN3ndk16$STABILITY_LOCALE",
   "size" : 4,
   "source_file" : "frameworks/native/libs/binder/ndk/include_cpp/android/binder_parcelable_utils.h",
   "underlying_type" : "_ZTIj"
  },
  {
   "alignment" : 4,
   "enum_fields" :
   [
    {
     "enum_field_value" : 0,
     "name" : "aidl::android::hardware::drm::LogPriority::UNKNOWN"
    },
    {
     "enum_field_value" : 1,
     "name" : "aidl::android::hardware::drm::LogPriority::DEFAULT"
    },
    {
     "enum_field_value" : 2,
     "name" : "aidl::android::hardware::drm::LogPriority::VERBOSE"
    },
    {
     "enum_field_value" : 3,
     "name" : "aidl::android::hardware::drm::LogPriority::DEBUG"
    },
    {
     "enum_field_value" : 4,
     "name" : "aidl::android::hardware::drm::LogPriority::INFO"
    },
    {
     "enum_field_value" : 5,
     "name" : "aidl::android::hardware::drm::LogPriority::WARN"
    },
    {
     "enum_field_value" : 6,
     "name" : "aidl::android::hardware::drm::LogPriority::ERROR"
    },
    {
     "enum_field_value" : 7,
     "name" : "aidl::android::hardware::drm::LogPriority::FATAL"
    }
   ],
   "linker_set_key" : "_ZTIN4aidl7android8hardware3drm11LogPriorityE",
   "name" : "aidl::android::hardware::drm::LogPriority",
   "referenced_type" : "_ZTIN4aidl7android8hardware3drm11LogPriorityE",
   "self_type" : "_ZTIN4aidl7android8hardware3drm11LogPriorityE",
   "size" : 4,
   "source_file" : "out/soong/.intermediates/hardware/interfaces/drm/aidl/android.hardware.drm-V1-ndk-source/gen/include/aidl/android/hardware/drm/LogPriority.h",
   "underlying_type" : "_ZTIi"
  },
  {
   "alignment" : 4,
   "enum_fields" :
   [
    {
     "enum_field_value" : 0,
     "name" : "aidl::android::hardware::drm::KeyStatusType::USABLE"
    },
    {
     "enum_field_value" : 1,
     "name" : "aidl::android::hardware::drm::KeyStatusType::EXPIRED"
    },
    {
     "enum_field_value" : 2,
     "name" : "aidl::android::hardware::drm::KeyStatusType::OUTPUT_NOT_ALLOWED"
    },
    {
     "enum_field_value" : 3,
     "name" : "aidl::android::hardware::drm::KeyStatusType::STATUS_PENDING"
    },
    {
     "enum_field_value" : 4,
     "name" : "aidl::android::hardware::drm::KeyStatusType::INTERNAL_ERROR"
    },
    {
     "enum_field_value" : 5,
     "name" : "aidl::android::hardware::drm::KeyStatusType::USABLE_IN_FUTURE"
    }
   ],
   "linker_set_key" : "_ZTIN4aidl7android8hardware3drm13KeyStatusTypeE",
   "name" : "aidl::android::hardware::drm::KeyStatusType",
   "referenced_type" : "_ZTIN4aidl7android8hardware3drm13KeyStatusTypeE",
   "self_type" : "_ZTIN4aidl7android8hardware3drm13KeyStatusTypeE",
   "size" : 4,
   "source_file" : "out/soong/.intermediates/hardware/interfaces/drm/aidl/android.hardware.drm-V1-ndk-source/gen/include/aidl/android/hardware/drm/KeyStatusType.h",
   "underlying_type" : "_ZTIi"
  },
  {
   "alignment" : 4,
   "enum_fields" :
   [
    {
     "enum_field_value" : 0,
     "name" : "aidl::android::hardware::drm::SecurityLevel::UNKNOWN"
    },
    {
     "enum_field_value" : 1,
     "name" : "aidl::android::hardware::drm::SecurityLevel::SW_SECURE_CRYPTO"
    },
    {
     "enum_field_value" : 2,
     "name" : "aidl::android::hardware::drm::SecurityLevel::SW_SECURE_DECODE"
    },
    {
     "enum_field_value" : 3,
     "name" : "aidl::android::hardware::drm::SecurityLevel::HW_SECURE_CRYPTO"
    },
    {
     "enum_field_value" : 4,
     "name" : "aidl::android::hardware::drm::SecurityLevel::HW_SECURE_DECODE"
    },
    {
     "enum_field_value" : 5,
     "name" : "aidl::android::hardware::drm::SecurityLevel::HW_SECURE_ALL"
    },
    {
     "enum_field_value" : 6,
     "name" : "aidl::android::hardware::drm::SecurityLevel::DEFAULT"
    }
   ],
   "linker_set_key" : "_ZTIN4aidl7android8hardware3drm13SecurityLevelE",
   "name" : "aidl::android::hardware::drm::SecurityLevel",
   "referenced_type" : "_ZTIN4aidl7android8hardware3drm13SecurityLevelE",
   "self_type" : "_ZTIN4aidl7android8hardware3drm13SecurityLevelE",
   "size" : 4,
   "source_file" : "out/soong/.intermediates/hardware/interfaces/drm/aidl/android.hardware.drm-V1-ndk-source/gen/include/aidl/android/hardware/drm/SecurityLevel.h",
   "underlying_type" : "_ZTIi"
  },
  {
   "alignment" : 4,
   "enum_fields" :
   [
    {
     "enum_field_value" : 0,
     "name" : "aidl::android::hardware::drm::DrmMetricValue::Tag::int64Value"
    },
    {
     "enum_field_value" : 1,
     "name" : "aidl::android::hardware::drm::DrmMetricValue::Tag::doubleValue"
    },
    {
     "enum_field_value" : 2,
     "name" : "aidl::android::hardware::drm::DrmMetricValue::Tag::stringValue"
    }
   ],
   "linker_set_key" : "_ZTIN4aidl7android8hardware3drm14DrmMetricValue3TagE",
   "name" : "aidl::android::hardware::drm::DrmMetricValue::Tag",
   "referenced_type" : "_ZTIN4aidl7android8hardware3drm14DrmMetricValue3TagE",
   "self_type" : "_ZTIN4aidl7android8hardware3drm14DrmMetricValue3TagE",
   "size" : 4,
   "source_file" : "out/soong/.intermediates/hardware/interfaces/drm/aidl/android.hardware.drm-V1-ndk-source/gen/include/aidl/android/hardware/drm/DrmMetricValue.h",
   "underlying_type" : "_ZTIi"
  },
  {
   "alignment" : 4,
   "enum_fields" :
   [
    {
     "enum_field_value" : 0,
     "name" : "aidl::android::hardware::drm::KeyRequestType::INITIAL"
    },
    {
     "enum_field_value" : 1,
     "name" : "aidl::android::hardware::drm::KeyRequestType::RENEWAL"
    },
    {
     "enum_field_value" : 2,
     "name" : "aidl::android::hardware::drm::KeyRequestType::RELEASE"
    },
    {
     "enum_field_value" : 3,
     "name" : "aidl::android::hardware::drm::KeyRequestType::UNKNOWN"
    },
    {
     "enum_field_value" : 4,
     "name" : "aidl::android::hardware::drm::KeyRequestType::NONE"
    },
    {
     "enum_field_value" : 5,
     "name" : "aidl::android::hardware::drm::KeyRequestType::UPDATE"
    }
   ],
   "linker_set_key" : "_ZTIN4aidl7android8hardware3drm14KeyRequestTypeE",
   "name" : "aidl::android::hardware::drm::KeyRequestType",
   "referenced_type" : "_ZTIN4aidl7android8hardware3drm14KeyRequestTypeE",
   "self_type" : "_ZTIN4aidl7android8hardware3drm14KeyRequestTypeE",
   "size" : 4,
   "source_file" : "out/soong/.intermediates/hardware/interfaces/drm/aidl/android.hardware.drm-V1-ndk-source/gen/include/aidl/android/hardware/drm/KeyRequestType.h",
   "underlying_type" : "_ZTIi"
  },
  {
   "alignment" : 4,
   "enum_fields" :
   [
    {
     "enum_field_value" : 0,
     "name" : "aidl::android::hardware::drm::DestinationBuffer::Tag::nonsecureMemory"
    },
    {
     "enum_field_value" : 1,
     "name" : "aidl::android::hardware::drm::DestinationBuffer::Tag::secureMemory"
    }
   ],
   "linker_set_key" : "_ZTIN4aidl7android8hardware3drm17DestinationBuffer3TagE",
   "name" : "aidl::android::hardware::drm::DestinationBuffer::Tag",
   "referenced_type" : "_ZTIN4aidl7android8hardware3drm17DestinationBuffer3TagE",
   "self_type" : "_ZTIN4aidl7android8hardware3drm17DestinationBuffer3TagE",
   "size" : 4,
   "source_file" : "out/soong/.intermediates/hardware/interfaces/drm/aidl/android.hardware.drm-V1-ndk-source/gen/include/aidl/android/hardware/drm/DestinationBuffer.h",
   "underlying_type" : "_ZTIi"
  },
  {
   "alignment" : 4,
   "enum_fields" :
   [
    {
     "enum_field_value" : 0,
     "name" : "aidl::android::hardware::drm::OfflineLicenseState::UNKNOWN"
    },
    {
     "enum_field_value" : 1,
     "name" : "aidl::android::hardware::drm::OfflineLicenseState::USABLE"
    },
    {
     "enum_field_value" : 2,
     "name" : "aidl::android::hardware::drm::OfflineLicenseState::INACTIVE"
    }
   ],
   "linker_set_key" : "_ZTIN4aidl7android8hardware3drm19OfflineLicenseStateE",
   "name" : "aidl::android::hardware::drm::OfflineLicenseState",
   "referenced_type" : "_ZTIN4aidl7android8hardware3drm19OfflineLicenseStateE",
   "self_type" : "_ZTIN4aidl7android8hardware3drm19OfflineLicenseStateE",
   "size" : 4,
   "source_file" : "out/soong/.intermediates/hardware/interfaces/drm/aidl/android.hardware.drm-V1-ndk-source/gen/include/aidl/android/hardware/drm/OfflineLicenseState.h",
   "underlying_type" : "_ZTIi"
  },
  {
   "alignment" : 4,
   "enum_fields" :
   [
    {
     "enum_field_value" : 0,
     "name" : "aidl::android::hardware::drm::Mode::UNENCRYPTED"
    },
    {
     "enum_field_value" : 1,
     "name" : "aidl::android::hardware::drm::Mode::AES_CTR"
    },
    {
     "enum_field_value" : 2,
     "name" : "aidl::android::hardware::drm::Mode::AES_CBC_CTS"
    },
    {
     "enum_field_value" : 3,
     "name" : "aidl::android::hardware::drm::Mode::AES_CBC"
    }
   ],
   "linker_set_key" : "_ZTIN4aidl7android8hardware3drm4ModeE",
   "name" : "aidl::android::hardware::drm::Mode",
   "referenced_type" : "_ZTIN4aidl7android8hardware3drm4ModeE",
   "self_type" : "_ZTIN4aidl7android8hardware3drm4ModeE",
   "size" : 4,
   "source_file" : "out/soong/.intermediates/hardware/interfaces/drm/aidl/android.hardware.drm-V1-ndk-source/gen/include/aidl/android/hardware/drm/Mode.h",
   "underlying_type" : "_ZTIi"
  },
  {
   "alignment" : 4,
   "enum_fields" :
   [
    {
     "enum_field_value" : 0,
     "name" : "aidl::android::hardware::drm::KeyType::OFFLINE"
    },
    {
     "enum_field_value" : 1,
     "name" : "aidl::android::hardware::drm::KeyType::STREAMING"
    },
    {
     "enum_field_value" : 2,
     "name" : "aidl::android::hardware::drm::KeyType::RELEASE"
    }
   ],
   "linker_set_key" : "_ZTIN4aidl7android8hardware3drm7KeyTypeE",
   "name" : "aidl::android::hardware::drm::KeyType",
   "referenced_type" : "_ZTIN4aidl7android8hardware3drm7KeyTypeE",
   "self_type" : "_ZTIN4aidl7android8hardware3drm7KeyTypeE",
   "size" : 4,
   "source_file" : "out/soong/.intermediates/hardware/interfaces/drm/aidl/android.hardware.drm-V1-ndk-source/gen/include/aidl/android/hardware/drm/KeyType.h",
   "underlying_type" : "_ZTIi"
  },
  {
   "alignment" : 4,
   "enum_fields" :
   [
    {
     "enum_field_value" : 0,
     "name" : "aidl::android::hardware::drm::EventType::PROVISION_REQUIRED"
    },
    {
     "enum_field_value" : 1,
     "name" : "aidl::android::hardware::drm::EventType::KEY_NEEDED"
    },
    {
     "enum_field_value" : 2,
     "name" : "aidl::android::hardware::drm::EventType::KEY_EXPIRED"
    },
    {
     "enum_field_value" : 3,
     "name" : "aidl::android::hardware::drm::EventType::VENDOR_DEFINED"
    },
    {
     "enum_field_value" : 4,
     "name" : "aidl::android::hardware::drm::EventType::SESSION_RECLAIMED"
    }
   ],
   "linker_set_key" : "_ZTIN4aidl7android8hardware3drm9EventTypeE",
   "name" : "aidl::android::hardware::drm::EventType",
   "referenced_type" : "_ZTIN4aidl7android8hardware3drm9EventTypeE",
   "self_type" : "_ZTIN4aidl7android8hardware3drm9EventTypeE",
   "size" : 4,
   "source_file" : "out/soong/.intermediates/hardware/interfaces/drm/aidl/android.hardware.drm-V1-ndk-source/gen/include/aidl/android/hardware/drm/EventType.h",
   "underlying_type" : "_ZTIi"
  },
  {
   "alignment" : 4,
   "enum_fields" :
   [
    {
     "enum_field_value" : 0,
     "name" : "aidl::android::hardware::drm::HdcpLevel::HDCP_UNKNOWN"
    },
    {
     "enum_field_value" : 1,
     "name" : "aidl::android::hardware::drm::HdcpLevel::HDCP_NONE"
    },
    {
     "enum_field_value" : 2,
     "name" : "aidl::android::hardware::drm::HdcpLevel::HDCP_V1"
    },
    {
     "enum_field_value" : 3,
     "name" : "aidl::android::hardware::drm::HdcpLevel::HDCP_V2"
    },
    {
     "enum_field_value" : 4,
     "name" : "aidl::android::hardware::drm::HdcpLevel::HDCP_V2_1"
    },
    {
     "enum_field_value" : 5,
     "name" : "aidl::android::hardware::drm::HdcpLevel::HDCP_V2_2"
    },
    {
     "enum_field_value" : 6,
     "name" : "aidl::android::hardware::drm::HdcpLevel::HDCP_NO_OUTPUT"
    },
    {
     "enum_field_value" : 7,
     "name" : "aidl::android::hardware::drm::HdcpLevel::HDCP_V2_3"
    }
   ],
   "linker_set_key" : "_ZTIN4aidl7android8hardware3drm9HdcpLevelE",
   "name" : "aidl::android::hardware::drm::HdcpLevel",
   "referenced_type" : "_ZTIN4aidl7android8hardware3drm9HdcpLevelE",
   "self_type" : "_ZTIN4aidl7android8hardware3drm9HdcpLevelE",
   "size" : 4,
   "source_file" : "out/soong/.intermediates/hardware/interfaces/drm/aidl/android.hardware.drm-V1-ndk-source/gen/include/aidl/android/hardware/drm/HdcpLevel.h",
   "underlying_type" : "_ZTIi"
  },
  {
   "alignment" : 4,
   "enum_fields" :
   [
    {
     "enum_field_value" : 1,
     "name" : "android::internal::details::IsIterable<std::array<unsigned char, 16>>::value"
    }
   ],
   "linker_set_key" : "_ZTIN7android8internal7details10IsIterableINSt3__15arrayIhLj16EEEE6$valueE",
   "name" : "android::internal::details::IsIterable<std::array<unsigned char, 16>>::(unnamed enum at frameworks/native/libs/binder/ndk/include_cpp/android/binder_to_string.h:131:5)",
   "referenced_type" : "_ZTIN7android8internal7details10IsIterableINSt3__15arrayIhLj16EEEE6$valueE",
   "self_type" : "_ZTIN7android8internal7details10IsIterableINSt3__15arrayIhLj16EEEE6$valueE",
   "size" : 4,
   "source_file" : "frameworks/native/libs/binder/ndk/include_cpp/android/binder_to_string.h",
   "underlying_type" : "_ZTIj"
  },
  {
   "alignment" : 4,
   "enum_fields" :
   [
    {
     "enum_field_value" : 1,
     "name" : "android::internal::details::IsIterable<std::vector<ndk::ScopedFileDescriptor>>::value"
    }
   ],
   "linker_set_key" : "_ZTIN7android8internal7details10IsIterableINSt3__16vectorIN3ndk20ScopedFileDescriptorENS3_9allocatorIS6_EEEEE6$valueE",
   "name" : "android::internal::details::IsIterable<std::vector<ndk::ScopedFileDescriptor, std::allocator<ndk::ScopedFileDescriptor>>>::(unnamed enum at frameworks/native/libs/binder/ndk/include_cpp/android/binder_to_string.h:131:5)",
   "referenced_type" : "_ZTIN7android8internal7details10IsIterableINSt3__16vectorIN3ndk20ScopedFileDescriptorENS3_9allocatorIS6_EEEEE6$valueE",
   "self_type" : "_ZTIN7android8internal7details10IsIterableINSt3__16vectorIN3ndk20ScopedFileDescriptorENS3_9allocatorIS6_EEEEE6$valueE",
   "size" : 4,
   "source_file" : "frameworks/native/libs/binder/ndk/include_cpp/android/binder_to_string.h",
   "underlying_type" : "_ZTIj"
  },
  {
   "alignment" : 4,
   "enum_fields" :
   [
    {
     "enum_field_value" : 1,
     "name" : "android::internal::details::IsIterable<std::vector<aidl::android::hardware::drm::DrmMetricNamedValue>>::value"
    }
   ],
   "linker_set_key" : "_ZTIN7android8internal7details10IsIterableINSt3__16vectorIN4aidl7android8hardware3drm19DrmMetricNamedValueENS3_9allocatorIS9_EEEEE6$valueE",
   "name" : "android::internal::details::IsIterable<std::vector<aidl::android::hardware::drm::DrmMetricNamedValue, std::allocator<aidl::android::hardware::drm::DrmMetricNamedValue>>>::(unnamed enum at frameworks/native/libs/binder/ndk/include_cpp/android/binder_to_string.h:131:5)",
   "referenced_type" : "_ZTIN7android8internal7details10IsIterableINSt3__16vectorIN4aidl7android8hardware3drm19DrmMetricNamedValueENS3_9allocatorIS9_EEEEE6$valueE",
   "self_type" : "_ZTIN7android8internal7details10IsIterableINSt3__16vectorIN4aidl7android8hardware3drm19DrmMetricNamedValueENS3_9allocatorIS9_EEEEE6$valueE",
   "size" : 4,
   "source_file" : "frameworks/native/libs/binder/ndk/include_cpp/android/binder_to_string.h",
   "underlying_type" : "_ZTIj"
  },
  {
   "alignment" : 4,
   "enum_fields" :
   [
    {
     "enum_field_value" : 1,
     "name" : "android::internal::details::IsIterable<std::vector<aidl::android::hardware::drm::SupportedContentType>>::value"
    }
   ],
   "linker_set_key" : "_ZTIN7android8internal7details10IsIterableINSt3__16vectorIN4aidl7android8hardware3drm20SupportedContentTypeENS3_9allocatorIS9_EEEEE6$valueE",
   "name" : "android::internal::details::IsIterable<std::vector<aidl::android::hardware::drm::SupportedContentType, std::allocator<aidl::android::hardware::drm::SupportedContentType>>>::(unnamed enum at frameworks/native/libs/binder/ndk/include_cpp/android/binder_to_string.h:131:5)",
   "referenced_type" : "_ZTIN7android8internal7details10IsIterableINSt3__16vectorIN4aidl7android8hardware3drm20SupportedContentTypeENS3_9allocatorIS9_EEEEE6$valueE",
   "self_type" : "_ZTIN7android8internal7details10IsIterableINSt3__16vectorIN4aidl7android8hardware3drm20SupportedContentTypeENS3_9allocatorIS9_EEEEE6$valueE",
   "size" : 4,
   "source_file" : "frameworks/native/libs/binder/ndk/include_cpp/android/binder_to_string.h",
   "underlying_type" : "_ZTIj"
  },
  {
   "alignment" : 4,
   "enum_fields" :
   [
    {
     "enum_field_value" : 1,
     "name" : "android::internal::details::IsIterable<std::vector<aidl::android::hardware::drm::Uuid>>::value"
    }
   ],
   "linker_set_key" : "_ZTIN7android8internal7details10IsIterableINSt3__16vectorIN4aidl7android8hardware3drm4UuidENS3_9allocatorIS9_EEEEE6$valueE",
   "name" : "android::internal::details::IsIterable<std::vector<aidl::android::hardware::drm::Uuid, std::allocator<aidl::android::hardware::drm::Uuid>>>::(unnamed enum at frameworks/native/libs/binder/ndk/include_cpp/android/binder_to_string.h:131:5)",
   "referenced_type" : "_ZTIN7android8internal7details10IsIterableINSt3__16vectorIN4aidl7android8hardware3drm4UuidENS3_9allocatorIS9_EEEEE6$valueE",
   "self_type" : "_ZTIN7android8internal7details10IsIterableINSt3__16vectorIN4aidl7android8hardware3drm4UuidENS3_9allocatorIS9_EEEEE6$valueE",
   "size" : 4,
   "source_file" : "frameworks/native/libs/binder/ndk/include_cpp/android/binder_to_string.h",
   "underlying_type" : "_ZTIj"
  },
  {
   "alignment" : 4,
   "enum_fields" :
   [
    {
     "enum_field_value" : 1,
     "name" : "android::internal::details::IsIterable<std::vector<aidl::android::hardware::drm::DrmMetric>>::value"
    }
   ],
   "linker_set_key" : "_ZTIN7android8internal7details10IsIterableINSt3__16vectorIN4aidl7android8hardware3drm9DrmMetricENS3_9allocatorIS9_EEEEE6$valueE",
   "name" : "android::internal::details::IsIterable<std::vector<aidl::android::hardware::drm::DrmMetric, std::allocator<aidl::android::hardware::drm::DrmMetric>>>::(unnamed enum at frameworks/native/libs/binder/ndk/include_cpp/android/binder_to_string.h:131:5)",
   "referenced_type" : "_ZTIN7android8internal7details10IsIterableINSt3__16vectorIN4aidl7android8hardware3drm9DrmMetricENS3_9allocatorIS9_EEEEE6$valueE",
   "self_type" : "_ZTIN7android8internal7details10IsIterableINSt3__16vectorIN4aidl7android8hardware3drm9DrmMetricENS3_9allocatorIS9_EEEEE6$valueE",
   "size" : 4,
   "source_file" : "frameworks/native/libs/binder/ndk/include_cpp/android/binder_to_string.h",
   "underlying_type" : "_ZTIj"
  },
  {
   "alignment" : 4,
   "enum_fields" :
   [
    {
     "enum_field_value" : 1,
     "name" : "android::internal::details::IsIterable<std::vector<aidl::android::hardware::drm::SubSample>>::value"
    }
   ],
   "linker_set_key" : "_ZTIN7android8internal7details10IsIterableINSt3__16vectorIN4aidl7android8hardware3drm9SubSampleENS3_9allocatorIS9_EEEEE6$valueE",
   "name" : "android::internal::details::IsIterable<std::vector<aidl::android::hardware::drm::SubSample, std::allocator<aidl::android::hardware::drm::SubSample>>>::(unnamed enum at frameworks/native/libs/binder/ndk/include_cpp/android/binder_to_string.h:131:5)",
   "referenced_type" : "_ZTIN7android8internal7details10IsIterableINSt3__16vectorIN4aidl7android8hardware3drm9SubSampleENS3_9allocatorIS9_EEEEE6$valueE",
   "self_type" : "_ZTIN7android8internal7details10IsIterableINSt3__16vectorIN4aidl7android8hardware3drm9SubSampleENS3_9allocatorIS9_EEEEE6$valueE",
   "size" : 4,
   "source_file" : "frameworks/native/libs/binder/ndk/include_cpp/android/binder_to_string.h",
   "underlying_type" : "_ZTIj"
  },
  {
   "alignment" : 4,
   "enum_fields" :
   [
    {
     "enum_field_value" : 1,
     "name" : "android::internal::details::IsIterable<std::vector<unsigned char>>::value"
    }
   ],
   "linker_set_key" : "_ZTIN7android8internal7details10IsIterableINSt3__16vectorIhNS3_9allocatorIhEEEEE6$valueE",
   "name" : "android::internal::details::IsIterable<std::vector<unsigned char, std::allocator<unsigned char>>>::(unnamed enum at frameworks/native/libs/binder/ndk/include_cpp/android/binder_to_string.h:131:5)",
   "referenced_type" : "_ZTIN7android8internal7details10IsIterableINSt3__16vectorIhNS3_9allocatorIhEEEEE6$valueE",
   "self_type" : "_ZTIN7android8internal7details10IsIterableINSt3__16vectorIhNS3_9allocatorIhEEEEE6$valueE",
   "size" : 4,
   "source_file" : "frameworks/native/libs/binder/ndk/include_cpp/android/binder_to_string.h",
   "underlying_type" : "_ZTIj"
  },
  {
   "alignment" : 4,
   "enum_fields" :
   [
    {
     "enum_field_value" : 1,
     "name" : "android::internal::details::IsIterable<std::vector<int>>::value"
    }
   ],
   "linker_set_key" : "_ZTIN7android8internal7details10IsIterableINSt3__16vectorIiNS3_9allocatorIiEEEEE6$valueE",
   "name" : "android::internal::details::IsIterable<std::vector<int, std::allocator<int>>>::(unnamed enum at frameworks/native/libs/binder/ndk/include_cpp/android/binder_to_string.h:131:5)",
   "referenced_type" : "_ZTIN7android8internal7details10IsIterableINSt3__16vectorIiNS3_9allocatorIiEEEEE6$valueE",
   "self_type" : "_ZTIN7android8internal7details10IsIterableINSt3__16vectorIiNS3_9allocatorIiEEEEE6$valueE",
   "size" : 4,
   "source_file" : "frameworks/native/libs/binder/ndk/include_cpp/android/binder_to_string.h",
   "underlying_type" : "_ZTIj"
  },
  {
   "alignment" : 4,
   "enum_fields" :
   [
    {
     "enum_field_value" : 0,
     "name" : "android::internal::details::IsPointerLike<aidl::android::hardware::drm::LogPriority>::value"
    }
   ],
   "linker_set_key" : "_ZTIN7android8internal7details13IsPointerLikeIN4aidl7android8hardware3drm11LogPriorityEE6$valueE",
   "name" : "android::internal::details::IsPointerLike<aidl::android::hardware::drm::LogPriority>::(unnamed enum at frameworks/native/libs/binder/ndk/include_cpp/android/binder_to_string.h:118:5)",
   "referenced_type" : "_ZTIN7android8internal7details13IsPointerLikeIN4aidl7android8hardware3drm11LogPriorityEE6$valueE",
   "self_type" : "_ZTIN7android8internal7details13IsPointerLikeIN4aidl7android8hardware3drm11LogPriorityEE6$valueE",
   "size" : 4,
   "source_file" : "frameworks/native/libs/binder/ndk/include_cpp/android/binder_to_string.h",
   "underlying_type" : "_ZTIj"
  },
  {
   "alignment" : 4,
   "enum_fields" :
   [
    {
     "enum_field_value" : 0,
     "name" : "android::internal::details::IsPointerLike<aidl::android::hardware::drm::SharedBuffer>::value"
    }
   ],
   "linker_set_key" : "_ZTIN7android8internal7details13IsPointerLikeIN4aidl7android8hardware3drm12SharedBufferEE6$valueE",
   "name" : "android::internal::details::IsPointerLike<aidl::android::hardware::drm::SharedBuffer>::(unnamed enum at frameworks/native/libs/binder/ndk/include_cpp/android/binder_to_string.h:118:5)",
   "referenced_type" : "_ZTIN7android8internal7details13IsPointerLikeIN4aidl7android8hardware3drm12SharedBufferEE6$valueE",
   "self_type" : "_ZTIN7android8internal7details13IsPointerLikeIN4aidl7android8hardware3drm12SharedBufferEE6$valueE",
   "size" : 4,
   "source_file" : "frameworks/native/libs/binder/ndk/include_cpp/android/binder_to_string.h",
   "underlying_type" : "_ZTIj"
  },
  {
   "alignment" : 4,
   "enum_fields" :
   [
    {
     "enum_field_value" : 0,
     "name" : "android::internal::details::IsPointerLike<aidl::android::hardware::drm::KeyStatusType>::value"
    }
   ],
   "linker_set_key" : "_ZTIN7android8internal7details13IsPointerLikeIN4aidl7android8hardware3drm13KeyStatusTypeEE6$valueE",
   "name" : "android::internal::details::IsPointerLike<aidl::android::hardware::drm::KeyStatusType>::(unnamed enum at frameworks/native/libs/binder/ndk/include_cpp/android/binder_to_string.h:118:5)",
   "referenced_type" : "_ZTIN7android8internal7details13IsPointerLikeIN4aidl7android8hardware3drm13KeyStatusTypeEE6$valueE",
   "self_type" : "_ZTIN7android8internal7details13IsPointerLikeIN4aidl7android8hardware3drm13KeyStatusTypeEE6$valueE",
   "size" : 4,
   "source_file" : "frameworks/native/libs/binder/ndk/include_cpp/android/binder_to_string.h",
   "underlying_type" : "_ZTIj"
  },
  {
   "alignment" : 4,
   "enum_fields" :
   [
    {
     "enum_field_value" : 0,
     "name" : "android::internal::details::IsPointerLike<aidl::android::hardware::drm::SecurityLevel>::value"
    }
   ],
   "linker_set_key" : "_ZTIN7android8internal7details13IsPointerLikeIN4aidl7android8hardware3drm13SecurityLevelEE6$valueE",
   "name" : "android::internal::details::IsPointerLike<aidl::android::hardware::drm::SecurityLevel>::(unnamed enum at frameworks/native/libs/binder/ndk/include_cpp/android/binder_to_string.h:118:5)",
   "referenced_type" : "_ZTIN7android8internal7details13IsPointerLikeIN4aidl7android8hardware3drm13SecurityLevelEE6$valueE",
   "self_type" : "_ZTIN7android8internal7details13IsPointerLikeIN4aidl7android8hardware3drm13SecurityLevelEE6$valueE",
   "size" : 4,
   "source_file" : "frameworks/native/libs/binder/ndk/include_cpp/android/binder_to_string.h",
   "underlying_type" : "_ZTIj"
  },
  {
   "alignment" : 4,
   "enum_fields" :
   [
    {
     "enum_field_value" : 0,
     "name" : "android::internal::details::IsPointerLike<aidl::android::hardware::drm::DrmMetricValue>::value"
    }
   ],
   "linker_set_key" : "_ZTIN7android8internal7details13IsPointerLikeIN4aidl7android8hardware3drm14DrmMetricValueEE6$valueE",
   "name" : "android::internal::details::IsPointerLike<aidl::android::hardware::drm::DrmMetricValue>::(unnamed enum at frameworks/native/libs/binder/ndk/include_cpp/android/binder_to_string.h:118:5)",
   "referenced_type" : "_ZTIN7android8internal7details13IsPointerLikeIN4aidl7android8hardware3drm14DrmMetricValueEE6$valueE",
   "self_type" : "_ZTIN7android8internal7details13IsPointerLikeIN4aidl7android8hardware3drm14DrmMetricValueEE6$valueE",
   "size" : 4,
   "source_file" : "frameworks/native/libs/binder/ndk/include_cpp/android/binder_to_string.h",
   "underlying_type" : "_ZTIj"
  },
  {
   "alignment" : 4,
   "enum_fields" :
   [
    {
     "enum_field_value" : 0,
     "name" : "android::internal::details::IsPointerLike<aidl::android::hardware::drm::KeyRequestType>::value"
    }
   ],
   "linker_set_key" : "_ZTIN7android8internal7details13IsPointerLikeIN4aidl7android8hardware3drm14KeyRequestTypeEE6$valueE",
   "name" : "android::internal::details::IsPointerLike<aidl::android::hardware::drm::KeyRequestType>::(unnamed enum at frameworks/native/libs/binder/ndk/include_cpp/android/binder_to_string.h:118:5)",
   "referenced_type" : "_ZTIN7android8internal7details13IsPointerLikeIN4aidl7android8hardware3drm14KeyRequestTypeEE6$valueE",
   "self_type" : "_ZTIN7android8internal7details13IsPointerLikeIN4aidl7android8hardware3drm14KeyRequestTypeEE6$valueE",
   "size" : 4,
   "source_file" : "frameworks/native/libs/binder/ndk/include_cpp/android/binder_to_string.h",
   "underlying_type" : "_ZTIj"
  },
  {
   "alignment" : 4,
   "enum_fields" :
   [
    {
     "enum_field_value" : 0,
     "name" : "android::internal::details::IsPointerLike<aidl::android::hardware::drm::DestinationBuffer>::value"
    }
   ],
   "linker_set_key" : "_ZTIN7android8internal7details13IsPointerLikeIN4aidl7android8hardware3drm17DestinationBufferEE6$valueE",
   "name" : "android::internal::details::IsPointerLike<aidl::android::hardware::drm::DestinationBuffer>::(unnamed enum at frameworks/native/libs/binder/ndk/include_cpp/android/binder_to_string.h:118:5)",
   "referenced_type" : "_ZTIN7android8internal7details13IsPointerLikeIN4aidl7android8hardware3drm17DestinationBufferEE6$valueE",
   "self_type" : "_ZTIN7android8internal7details13IsPointerLikeIN4aidl7android8hardware3drm17DestinationBufferEE6$valueE",
   "size" : 4,
   "source_file" : "frameworks/native/libs/binder/ndk/include_cpp/android/binder_to_string.h",
   "underlying_type" : "_ZTIj"
  },
  {
   "alignment" : 4,
   "enum_fields" :
   [
    {
     "enum_field_value" : 0,
     "name" : "android::internal::details::IsPointerLike<aidl::android::hardware::drm::DrmMetricNamedValue>::value"
    }
   ],
   "linker_set_key" : "_ZTIN7android8internal7details13IsPointerLikeIN4aidl7android8hardware3drm19DrmMetricNamedValueEE6$valueE",
   "name" : "android::internal::details::IsPointerLike<aidl::android::hardware::drm::DrmMetricNamedValue>::(unnamed enum at frameworks/native/libs/binder/ndk/include_cpp/android/binder_to_string.h:118:5)",
   "referenced_type" : "_ZTIN7android8internal7details13IsPointerLikeIN4aidl7android8hardware3drm19DrmMetricNamedValueEE6$valueE",
   "self_type" : "_ZTIN7android8internal7details13IsPointerLikeIN4aidl7android8hardware3drm19DrmMetricNamedValueEE6$valueE",
   "size" : 4,
   "source_file" : "frameworks/native/libs/binder/ndk/include_cpp/android/binder_to_string.h",
   "underlying_type" : "_ZTIj"
  },
  {
   "alignment" : 4,
   "enum_fields" :
   [
    {
     "enum_field_value" : 0,
     "name" : "android::internal::details::IsPointerLike<aidl::android::hardware::drm::SupportedContentType>::value"
    }
   ],
   "linker_set_key" : "_ZTIN7android8internal7details13IsPointerLikeIN4aidl7android8hardware3drm20SupportedContentTypeEE6$valueE",
   "name" : "android::internal::details::IsPointerLike<aidl::android::hardware::drm::SupportedContentType>::(unnamed enum at frameworks/native/libs/binder/ndk/include_cpp/android/binder_to_string.h:118:5)",
   "referenced_type" : "_ZTIN7android8internal7details13IsPointerLikeIN4aidl7android8hardware3drm20SupportedContentTypeEE6$valueE",
   "self_type" : "_ZTIN7android8internal7details13IsPointerLikeIN4aidl7android8hardware3drm20SupportedContentTypeEE6$valueE",
   "size" : 4,
   "source_file" : "frameworks/native/libs/binder/ndk/include_cpp/android/binder_to_string.h",
   "underlying_type" : "_ZTIj"
  },
  {
   "alignment" : 4,
   "enum_fields" :
   [
    {
     "enum_field_value" : 0,
     "name" : "android::internal::details::IsPointerLike<aidl::android::hardware::drm::Mode>::value"
    }
   ],
   "linker_set_key" : "_ZTIN7android8internal7details13IsPointerLikeIN4aidl7android8hardware3drm4ModeEE6$valueE",
   "name" : "android::internal::details::IsPointerLike<aidl::android::hardware::drm::Mode>::(unnamed enum at frameworks/native/libs/binder/ndk/include_cpp/android/binder_to_string.h:118:5)",
   "referenced_type" : "_ZTIN7android8internal7details13IsPointerLikeIN4aidl7android8hardware3drm4ModeEE6$valueE",
   "self_type" : "_ZTIN7android8internal7details13IsPointerLikeIN4aidl7android8hardware3drm4ModeEE6$valueE",
   "size" : 4,
   "source_file" : "frameworks/native/libs/binder/ndk/include_cpp/android/binder_to_string.h",
   "underlying_type" : "_ZTIj"
  },
  {
   "alignment" : 4,
   "enum_fields" :
   [
    {
     "enum_field_value" : 0,
     "name" : "android::internal::details::IsPointerLike<aidl::android::hardware::drm::Uuid>::value"
    }
   ],
   "linker_set_key" : "_ZTIN7android8internal7details13IsPointerLikeIN4aidl7android8hardware3drm4UuidEE6$valueE",
   "name" : "android::internal::details::IsPointerLike<aidl::android::hardware::drm::Uuid>::(unnamed enum at frameworks/native/libs/binder/ndk/include_cpp/android/binder_to_string.h:118:5)",
   "referenced_type" : "_ZTIN7android8internal7details13IsPointerLikeIN4aidl7android8hardware3drm4UuidEE6$valueE",
   "self_type" : "_ZTIN7android8internal7details13IsPointerLikeIN4aidl7android8hardware3drm4UuidEE6$valueE",
   "size" : 4,
   "source_file" : "frameworks/native/libs/binder/ndk/include_cpp/android/binder_to_string.h",
   "underlying_type" : "_ZTIj"
  },
  {
   "alignment" : 4,
   "enum_fields" :
   [
    {
     "enum_field_value" : 0,
     "name" : "android::internal::details::IsPointerLike<aidl::android::hardware::drm::Pattern>::value"
    }
   ],
   "linker_set_key" : "_ZTIN7android8internal7details13IsPointerLikeIN4aidl7android8hardware3drm7PatternEE6$valueE",
   "name" : "android::internal::details::IsPointerLike<aidl::android::hardware::drm::Pattern>::(unnamed enum at frameworks/native/libs/binder/ndk/include_cpp/android/binder_to_string.h:118:5)",
   "referenced_type" : "_ZTIN7android8internal7details13IsPointerLikeIN4aidl7android8hardware3drm7PatternEE6$valueE",
   "self_type" : "_ZTIN7android8internal7details13IsPointerLikeIN4aidl7android8hardware3drm7PatternEE6$valueE",
   "size" : 4,
   "source_file" : "frameworks/native/libs/binder/ndk/include_cpp/android/binder_to_string.h",
   "underlying_type" : "_ZTIj"
  },
  {
   "alignment" : 4,
   "enum_fields" :
   [
    {
     "enum_field_value" : 0,
     "name" : "android::internal::details::IsPointerLike<aidl::android::hardware::drm::DrmMetric>::value"
    }
   ],
   "linker_set_key" : "_ZTIN7android8internal7details13IsPointerLikeIN4aidl7android8hardware3drm9DrmMetricEE6$valueE",
   "name" : "android::internal::details::IsPointerLike<aidl::android::hardware::drm::DrmMetric>::(unnamed enum at frameworks/native/libs/binder/ndk/include_cpp/android/binder_to_string.h:118:5)",
   "referenced_type" : "_ZTIN7android8internal7details13IsPointerLikeIN4aidl7android8hardware3drm9DrmMetricEE6$valueE",
   "self_type" : "_ZTIN7android8internal7details13IsPointerLikeIN4aidl7android8hardware3drm9DrmMetricEE6$valueE",
   "size" : 4,
   "source_file" : "frameworks/native/libs/binder/ndk/include_cpp/android/binder_to_string.h",
   "underlying_type" : "_ZTIj"
  },
  {
   "alignment" : 4,
   "enum_fields" :
   [
    {
     "enum_field_value" : 0,
     "name" : "android::internal::details::IsPointerLike<aidl::android::hardware::drm::HdcpLevel>::value"
    }
   ],
   "linker_set_key" : "_ZTIN7android8internal7details13IsPointerLikeIN4aidl7android8hardware3drm9HdcpLevelEE6$valueE",
   "name" : "android::internal::details::IsPointerLike<aidl::android::hardware::drm::HdcpLevel>::(unnamed enum at frameworks/native/libs/binder/ndk/include_cpp/android/binder_to_string.h:118:5)",
   "referenced_type" : "_ZTIN7android8internal7details13IsPointerLikeIN4aidl7android8hardware3drm9HdcpLevelEE6$valueE",
   "self_type" : "_ZTIN7android8internal7details13IsPointerLikeIN4aidl7android8hardware3drm9HdcpLevelEE6$valueE",
   "size" : 4,
   "source_file" : "frameworks/native/libs/binder/ndk/include_cpp/android/binder_to_string.h",
   "underlying_type" : "_ZTIj"
  },
  {
   "alignment" : 4,
   "enum_fields" :
   [
    {
     "enum_field_value" : 0,
     "name" : "android::internal::details::IsPointerLike<aidl::android::hardware::drm::SubSample>::value"
    }
   ],
   "linker_set_key" : "_ZTIN7android8internal7details13IsPointerLikeIN4aidl7android8hardware3drm9SubSampleEE6$valueE",
   "name" : "android::internal::details::IsPointerLike<aidl::android::hardware::drm::SubSample>::(unnamed enum at frameworks/native/libs/binder/ndk/include_cpp/android/binder_to_string.h:118:5)",
   "referenced_type" : "_ZTIN7android8internal7details13IsPointerLikeIN4aidl7android8hardware3drm9SubSampleEE6$valueE",
   "self_type" : "_ZTIN7android8internal7details13IsPointerLikeIN4aidl7android8hardware3drm9SubSampleEE6$valueE",
   "size" : 4,
   "source_file" : "frameworks/native/libs/binder/ndk/include_cpp/android/binder_to_string.h",
   "underlying_type" : "_ZTIj"
  },
  {
   "alignment" : 4,
   "enum_fields" :
   [
    {
     "enum_field_value" : 0,
     "name" : "android::internal::details::IsPointerLike<aidl::android::hardware::common::NativeHandle>::value"
    }
   ],
   "linker_set_key" : "_ZTIN7android8internal7details13IsPointerLikeIN4aidl7android8hardware6common12NativeHandleEE6$valueE",
   "name" : "android::internal::details::IsPointerLike<aidl::android::hardware::common::NativeHandle>::(unnamed enum at frameworks/native/libs/binder/ndk/include_cpp/android/binder_to_string.h:118:5)",
   "referenced_type" : "_ZTIN7android8internal7details13IsPointerLikeIN4aidl7android8hardware6common12NativeHandleEE6$valueE",
   "self_type" : "_ZTIN7android8internal7details13IsPointerLikeIN4aidl7android8hardware6common12NativeHandleEE6$valueE",
   "size" : 4,
   "source_file" : "frameworks/native/libs/binder/ndk/include_cpp/android/binder_to_string.h",
   "underlying_type" : "_ZTIj"
  },
  {
   "alignment" : 4,
   "enum_fields" :
   [
    {
     "enum_field_value" : 0,
     "name" : "android::internal::details::IsPointerLike<std::array<unsigned char, 16>>::value"
    }
   ],
   "linker_set_key" : "_ZTIN7android8internal7details13IsPointerLikeINSt3__15arrayIhLj16EEEE6$valueE",
   "name" : "android::internal::details::IsPointerLike<std::array<unsigned char, 16>>::(unnamed enum at frameworks/native/libs/binder/ndk/include_cpp/android/binder_to_string.h:118:5)",
   "referenced_type" : "_ZTIN7android8internal7details13IsPointerLikeINSt3__15arrayIhLj16EEEE6$valueE",
   "self_type" : "_ZTIN7android8internal7details13IsPointerLikeINSt3__15arrayIhLj16EEEE6$valueE",
   "size" : 4,
   "source_file" : "frameworks/native/libs/binder/ndk/include_cpp/android/binder_to_string.h",
   "underlying_type" : "_ZTIj"
  },
  {
   "alignment" : 4,
   "enum_fields" :
   [
    {
     "enum_field_value" : 0,
     "name" : "android::internal::details::IsPointerLike<std::vector<ndk::ScopedFileDescriptor>>::value"
    }
   ],
   "linker_set_key" : "_ZTIN7android8internal7details13IsPointerLikeINSt3__16vectorIN3ndk20ScopedFileDescriptorENS3_9allocatorIS6_EEEEE6$valueE",
   "name" : "android::internal::details::IsPointerLike<std::vector<ndk::ScopedFileDescriptor, std::allocator<ndk::ScopedFileDescriptor>>>::(unnamed enum at frameworks/native/libs/binder/ndk/include_cpp/android/binder_to_string.h:118:5)",
   "referenced_type" : "_ZTIN7android8internal7details13IsPointerLikeINSt3__16vectorIN3ndk20ScopedFileDescriptorENS3_9allocatorIS6_EEEEE6$valueE",
   "self_type" : "_ZTIN7android8internal7details13IsPointerLikeINSt3__16vectorIN3ndk20ScopedFileDescriptorENS3_9allocatorIS6_EEEEE6$valueE",
   "size" : 4,
   "source_file" : "frameworks/native/libs/binder/ndk/include_cpp/android/binder_to_string.h",
   "underlying_type" : "_ZTIj"
  },
  {
   "alignment" : 4,
   "enum_fields" :
   [
    {
     "enum_field_value" : 0,
     "name" : "android::internal::details::IsPointerLike<std::vector<aidl::android::hardware::drm::DrmMetricNamedValue>>::value"
    }
   ],
   "linker_set_key" : "_ZTIN7android8internal7details13IsPointerLikeINSt3__16vectorIN4aidl7android8hardware3drm19DrmMetricNamedValueENS3_9allocatorIS9_EEEEE6$valueE",
   "name" : "android::internal::details::IsPointerLike<std::vector<aidl::android::hardware::drm::DrmMetricNamedValue, std::allocator<aidl::android::hardware::drm::DrmMetricNamedValue>>>::(unnamed enum at frameworks/native/libs/binder/ndk/include_cpp/android/binder_to_string.h:118:5)",
   "referenced_type" : "_ZTIN7android8internal7details13IsPointerLikeINSt3__16vectorIN4aidl7android8hardware3drm19DrmMetricNamedValueENS3_9allocatorIS9_EEEEE6$valueE",
   "self_type" : "_ZTIN7android8internal7details13IsPointerLikeINSt3__16vectorIN4aidl7android8hardware3drm19DrmMetricNamedValueENS3_9allocatorIS9_EEEEE6$valueE",
   "size" : 4,
   "source_file" : "frameworks/native/libs/binder/ndk/include_cpp/android/binder_to_string.h",
   "underlying_type" : "_ZTIj"
  },
  {
   "alignment" : 4,
   "enum_fields" :
   [
    {
     "enum_field_value" : 0,
     "name" : "android::internal::details::IsPointerLike<std::vector<aidl::android::hardware::drm::SupportedContentType>>::value"
    }
   ],
   "linker_set_key" : "_ZTIN7android8internal7details13IsPointerLikeINSt3__16vectorIN4aidl7android8hardware3drm20SupportedContentTypeENS3_9allocatorIS9_EEEEE6$valueE",
   "name" : "android::internal::details::IsPointerLike<std::vector<aidl::android::hardware::drm::SupportedContentType, std::allocator<aidl::android::hardware::drm::SupportedContentType>>>::(unnamed enum at frameworks/native/libs/binder/ndk/include_cpp/android/binder_to_string.h:118:5)",
   "referenced_type" : "_ZTIN7android8internal7details13IsPointerLikeINSt3__16vectorIN4aidl7android8hardware3drm20SupportedContentTypeENS3_9allocatorIS9_EEEEE6$valueE",
   "self_type" : "_ZTIN7android8internal7details13IsPointerLikeINSt3__16vectorIN4aidl7android8hardware3drm20SupportedContentTypeENS3_9allocatorIS9_EEEEE6$valueE",
   "size" : 4,
   "source_file" : "frameworks/native/libs/binder/ndk/include_cpp/android/binder_to_string.h",
   "underlying_type" : "_ZTIj"
  },
  {
   "alignment" : 4,
   "enum_fields" :
   [
    {
     "enum_field_value" : 0,
     "name" : "android::internal::details::IsPointerLike<std::vector<aidl::android::hardware::drm::Uuid>>::value"
    }
   ],
   "linker_set_key" : "_ZTIN7android8internal7details13IsPointerLikeINSt3__16vectorIN4aidl7android8hardware3drm4UuidENS3_9allocatorIS9_EEEEE6$valueE",
   "name" : "android::internal::details::IsPointerLike<std::vector<aidl::android::hardware::drm::Uuid, std::allocator<aidl::android::hardware::drm::Uuid>>>::(unnamed enum at frameworks/native/libs/binder/ndk/include_cpp/android/binder_to_string.h:118:5)",
   "referenced_type" : "_ZTIN7android8internal7details13IsPointerLikeINSt3__16vectorIN4aidl7android8hardware3drm4UuidENS3_9allocatorIS9_EEEEE6$valueE",
   "self_type" : "_ZTIN7android8internal7details13IsPointerLikeINSt3__16vectorIN4aidl7android8hardware3drm4UuidENS3_9allocatorIS9_EEEEE6$valueE",
   "size" : 4,
   "source_file" : "frameworks/native/libs/binder/ndk/include_cpp/android/binder_to_string.h",
   "underlying_type" : "_ZTIj"
  },
  {
   "alignment" : 4,
   "enum_fields" :
   [
    {
     "enum_field_value" : 0,
     "name" : "android::internal::details::IsPointerLike<std::vector<aidl::android::hardware::drm::DrmMetric>>::value"
    }
   ],
   "linker_set_key" : "_ZTIN7android8internal7details13IsPointerLikeINSt3__16vectorIN4aidl7android8hardware3drm9DrmMetricENS3_9allocatorIS9_EEEEE6$valueE",
   "name" : "android::internal::details::IsPointerLike<std::vector<aidl::android::hardware::drm::DrmMetric, std::allocator<aidl::android::hardware::drm::DrmMetric>>>::(unnamed enum at frameworks/native/libs/binder/ndk/include_cpp/android/binder_to_string.h:118:5)",
   "referenced_type" : "_ZTIN7android8internal7details13IsPointerLikeINSt3__16vectorIN4aidl7android8hardware3drm9DrmMetricENS3_9allocatorIS9_EEEEE6$valueE",
   "self_type" : "_ZTIN7android8internal7details13IsPointerLikeINSt3__16vectorIN4aidl7android8hardware3drm9DrmMetricENS3_9allocatorIS9_EEEEE6$valueE",
   "size" : 4,
   "source_file" : "frameworks/native/libs/binder/ndk/include_cpp/android/binder_to_string.h",
   "underlying_type" : "_ZTIj"
  },
  {
   "alignment" : 4,
   "enum_fields" :
   [
    {
     "enum_field_value" : 0,
     "name" : "android::internal::details::IsPointerLike<std::vector<aidl::android::hardware::drm::SubSample>>::value"
    }
   ],
   "linker_set_key" : "_ZTIN7android8internal7details13IsPointerLikeINSt3__16vectorIN4aidl7android8hardware3drm9SubSampleENS3_9allocatorIS9_EEEEE6$valueE",
   "name" : "android::internal::details::IsPointerLike<std::vector<aidl::android::hardware::drm::SubSample, std::allocator<aidl::android::hardware::drm::SubSample>>>::(unnamed enum at frameworks/native/libs/binder/ndk/include_cpp/android/binder_to_string.h:118:5)",
   "referenced_type" : "_ZTIN7android8internal7details13IsPointerLikeINSt3__16vectorIN4aidl7android8hardware3drm9SubSampleENS3_9allocatorIS9_EEEEE6$valueE",
   "self_type" : "_ZTIN7android8internal7details13IsPointerLikeINSt3__16vectorIN4aidl7android8hardware3drm9SubSampleENS3_9allocatorIS9_EEEEE6$valueE",
   "size" : 4,
   "source_file" : "frameworks/native/libs/binder/ndk/include_cpp/android/binder_to_string.h",
   "underlying_type" : "_ZTIj"
  },
  {
   "alignment" : 4,
   "enum_fields" :
   [
    {
     "enum_field_value" : 0,
     "name" : "android::internal::details::IsPointerLike<std::vector<unsigned char>>::value"
    }
   ],
   "linker_set_key" : "_ZTIN7android8internal7details13IsPointerLikeINSt3__16vectorIhNS3_9allocatorIhEEEEE6$valueE",
   "name" : "android::internal::details::IsPointerLike<std::vector<unsigned char, std::allocator<unsigned char>>>::(unnamed enum at frameworks/native/libs/binder/ndk/include_cpp/android/binder_to_string.h:118:5)",
   "referenced_type" : "_ZTIN7android8internal7details13IsPointerLikeINSt3__16vectorIhNS3_9allocatorIhEEEEE6$valueE",
   "self_type" : "_ZTIN7android8internal7details13IsPointerLikeINSt3__16vectorIhNS3_9allocatorIhEEEEE6$valueE",
   "size" : 4,
   "source_file" : "frameworks/native/libs/binder/ndk/include_cpp/android/binder_to_string.h",
   "underlying_type" : "_ZTIj"
  },
  {
   "alignment" : 4,
   "enum_fields" :
   [
    {
     "enum_field_value" : 0,
     "name" : "android::internal::details::IsPointerLike<std::vector<int>>::value"
    }
   ],
   "linker_set_key" : "_ZTIN7android8internal7details13IsPointerLikeINSt3__16vectorIiNS3_9allocatorIiEEEEE6$valueE",
   "name" : "android::internal::details::IsPointerLike<std::vector<int, std::allocator<int>>>::(unnamed enum at frameworks/native/libs/binder/ndk/include_cpp/android/binder_to_string.h:118:5)",
   "referenced_type" : "_ZTIN7android8internal7details13IsPointerLikeINSt3__16vectorIiNS3_9allocatorIiEEEEE6$valueE",
   "self_type" : "_ZTIN7android8internal7details13IsPointerLikeINSt3__16vectorIiNS3_9allocatorIiEEEEE6$valueE",
   "size" : 4,
   "source_file" : "frameworks/native/libs/binder/ndk/include_cpp/android/binder_to_string.h",
   "underlying_type" : "_ZTIj"
  },
  {
   "alignment" : 4,
   "enum_fields" :
   [
    {
     "enum_field_value" : 0,
     "name" : "android::internal::details::ToEmptyString<ndk::ScopedFileDescriptor>::value"
    }
   ],
   "linker_set_key" : "_ZTIN7android8internal7details13ToEmptyStringIN3ndk20ScopedFileDescriptorEE6$valueE",
   "name" : "android::internal::details::ToEmptyString<ndk::ScopedFileDescriptor>::(unnamed enum at frameworks/native/libs/binder/ndk/include_cpp/android/binder_to_string.h:153:5)",
   "referenced_type" : "_ZTIN7android8internal7details13ToEmptyStringIN3ndk20ScopedFileDescriptorEE6$valueE",
   "self_type" : "_ZTIN7android8internal7details13ToEmptyStringIN3ndk20ScopedFileDescriptorEE6$valueE",
   "size" : 4,
   "source_file" : "frameworks/native/libs/binder/ndk/include_cpp/android/binder_to_string.h",
   "underlying_type" : "_ZTIj"
  },
  {
   "alignment" : 4,
   "enum_fields" :
   [
    {
     "enum_field_value" : 0,
     "name" : "android::internal::details::ToEmptyString<aidl::android::hardware::drm::LogPriority>::value"
    }
   ],
   "linker_set_key" : "_ZTIN7android8internal7details13ToEmptyStringIN4aidl7android8hardware3drm11LogPriorityEE6$valueE",
   "name" : "android::internal::details::ToEmptyString<aidl::android::hardware::drm::LogPriority>::(unnamed enum at frameworks/native/libs/binder/ndk/include_cpp/android/binder_to_string.h:153:5)",
   "referenced_type" : "_ZTIN7android8internal7details13ToEmptyStringIN4aidl7android8hardware3drm11LogPriorityEE6$valueE",
   "self_type" : "_ZTIN7android8internal7details13ToEmptyStringIN4aidl7android8hardware3drm11LogPriorityEE6$valueE",
   "size" : 4,
   "source_file" : "frameworks/native/libs/binder/ndk/include_cpp/android/binder_to_string.h",
   "underlying_type" : "_ZTIj"
  },
  {
   "alignment" : 4,
   "enum_fields" :
   [
    {
     "enum_field_value" : 0,
     "name" : "android::internal::details::ToEmptyString<aidl::android::hardware::drm::SharedBuffer>::value"
    }
   ],
   "linker_set_key" : "_ZTIN7android8internal7details13ToEmptyStringIN4aidl7android8hardware3drm12SharedBufferEE6$valueE",
   "name" : "android::internal::details::ToEmptyString<aidl::android::hardware::drm::SharedBuffer>::(unnamed enum at frameworks/native/libs/binder/ndk/include_cpp/android/binder_to_string.h:153:5)",
   "referenced_type" : "_ZTIN7android8internal7details13ToEmptyStringIN4aidl7android8hardware3drm12SharedBufferEE6$valueE",
   "self_type" : "_ZTIN7android8internal7details13ToEmptyStringIN4aidl7android8hardware3drm12SharedBufferEE6$valueE",
   "size" : 4,
   "source_file" : "frameworks/native/libs/binder/ndk/include_cpp/android/binder_to_string.h",
   "underlying_type" : "_ZTIj"
  },
  {
   "alignment" : 4,
   "enum_fields" :
   [
    {
     "enum_field_value" : 0,
     "name" : "android::internal::details::ToEmptyString<aidl::android::hardware::drm::KeyStatusType>::value"
    }
   ],
   "linker_set_key" : "_ZTIN7android8internal7details13ToEmptyStringIN4aidl7android8hardware3drm13KeyStatusTypeEE6$valueE",
   "name" : "android::internal::details::ToEmptyString<aidl::android::hardware::drm::KeyStatusType>::(unnamed enum at frameworks/native/libs/binder/ndk/include_cpp/android/binder_to_string.h:153:5)",
   "referenced_type" : "_ZTIN7android8internal7details13ToEmptyStringIN4aidl7android8hardware3drm13KeyStatusTypeEE6$valueE",
   "self_type" : "_ZTIN7android8internal7details13ToEmptyStringIN4aidl7android8hardware3drm13KeyStatusTypeEE6$valueE",
   "size" : 4,
   "source_file" : "frameworks/native/libs/binder/ndk/include_cpp/android/binder_to_string.h",
   "underlying_type" : "_ZTIj"
  },
  {
   "alignment" : 4,
   "enum_fields" :
   [
    {
     "enum_field_value" : 0,
     "name" : "android::internal::details::ToEmptyString<aidl::android::hardware::drm::SecurityLevel>::value"
    }
   ],
   "linker_set_key" : "_ZTIN7android8internal7details13ToEmptyStringIN4aidl7android8hardware3drm13SecurityLevelEE6$valueE",
   "name" : "android::internal::details::ToEmptyString<aidl::android::hardware::drm::SecurityLevel>::(unnamed enum at frameworks/native/libs/binder/ndk/include_cpp/android/binder_to_string.h:153:5)",
   "referenced_type" : "_ZTIN7android8internal7details13ToEmptyStringIN4aidl7android8hardware3drm13SecurityLevelEE6$valueE",
   "self_type" : "_ZTIN7android8internal7details13ToEmptyStringIN4aidl7android8hardware3drm13SecurityLevelEE6$valueE",
   "size" : 4,
   "source_file" : "frameworks/native/libs/binder/ndk/include_cpp/android/binder_to_string.h",
   "underlying_type" : "_ZTIj"
  },
  {
   "alignment" : 4,
   "enum_fields" :
   [
    {
     "enum_field_value" : 0,
     "name" : "android::internal::details::ToEmptyString<aidl::android::hardware::drm::DrmMetricValue>::value"
    }
   ],
   "linker_set_key" : "_ZTIN7android8internal7details13ToEmptyStringIN4aidl7android8hardware3drm14DrmMetricValueEE6$valueE",
   "name" : "android::internal::details::ToEmptyString<aidl::android::hardware::drm::DrmMetricValue>::(unnamed enum at frameworks/native/libs/binder/ndk/include_cpp/android/binder_to_string.h:153:5)",
   "referenced_type" : "_ZTIN7android8internal7details13ToEmptyStringIN4aidl7android8hardware3drm14DrmMetricValueEE6$valueE",
   "self_type" : "_ZTIN7android8internal7details13ToEmptyStringIN4aidl7android8hardware3drm14DrmMetricValueEE6$valueE",
   "size" : 4,
   "source_file" : "frameworks/native/libs/binder/ndk/include_cpp/android/binder_to_string.h",
   "underlying_type" : "_ZTIj"
  },
  {
   "alignment" : 4,
   "enum_fields" :
   [
    {
     "enum_field_value" : 0,
     "name" : "android::internal::details::ToEmptyString<aidl::android::hardware::drm::KeyRequestType>::value"
    }
   ],
   "linker_set_key" : "_ZTIN7android8internal7details13ToEmptyStringIN4aidl7android8hardware3drm14KeyRequestTypeEE6$valueE",
   "name" : "android::internal::details::ToEmptyString<aidl::android::hardware::drm::KeyRequestType>::(unnamed enum at frameworks/native/libs/binder/ndk/include_cpp/android/binder_to_string.h:153:5)",
   "referenced_type" : "_ZTIN7android8internal7details13ToEmptyStringIN4aidl7android8hardware3drm14KeyRequestTypeEE6$valueE",
   "self_type" : "_ZTIN7android8internal7details13ToEmptyStringIN4aidl7android8hardware3drm14KeyRequestTypeEE6$valueE",
   "size" : 4,
   "source_file" : "frameworks/native/libs/binder/ndk/include_cpp/android/binder_to_string.h",
   "underlying_type" : "_ZTIj"
  },
  {
   "alignment" : 4,
   "enum_fields" :
   [
    {
     "enum_field_value" : 0,
     "name" : "android::internal::details::ToEmptyString<aidl::android::hardware::drm::DestinationBuffer>::value"
    }
   ],
   "linker_set_key" : "_ZTIN7android8internal7details13ToEmptyStringIN4aidl7android8hardware3drm17DestinationBufferEE6$valueE",
   "name" : "android::internal::details::ToEmptyString<aidl::android::hardware::drm::DestinationBuffer>::(unnamed enum at frameworks/native/libs/binder/ndk/include_cpp/android/binder_to_string.h:153:5)",
   "referenced_type" : "_ZTIN7android8internal7details13ToEmptyStringIN4aidl7android8hardware3drm17DestinationBufferEE6$valueE",
   "self_type" : "_ZTIN7android8internal7details13ToEmptyStringIN4aidl7android8hardware3drm17DestinationBufferEE6$valueE",
   "size" : 4,
   "source_file" : "frameworks/native/libs/binder/ndk/include_cpp/android/binder_to_string.h",
   "underlying_type" : "_ZTIj"
  },
  {
   "alignment" : 4,
   "enum_fields" :
   [
    {
     "enum_field_value" : 0,
     "name" : "android::internal::details::ToEmptyString<aidl::android::hardware::drm::DrmMetricNamedValue>::value"
    }
   ],
   "linker_set_key" : "_ZTIN7android8internal7details13ToEmptyStringIN4aidl7android8hardware3drm19DrmMetricNamedValueEE6$valueE",
   "name" : "android::internal::details::ToEmptyString<aidl::android::hardware::drm::DrmMetricNamedValue>::(unnamed enum at frameworks/native/libs/binder/ndk/include_cpp/android/binder_to_string.h:153:5)",
   "referenced_type" : "_ZTIN7android8internal7details13ToEmptyStringIN4aidl7android8hardware3drm19DrmMetricNamedValueEE6$valueE",
   "self_type" : "_ZTIN7android8internal7details13ToEmptyStringIN4aidl7android8hardware3drm19DrmMetricNamedValueEE6$valueE",
   "size" : 4,
   "source_file" : "frameworks/native/libs/binder/ndk/include_cpp/android/binder_to_string.h",
   "underlying_type" : "_ZTIj"
  },
  {
   "alignment" : 4,
   "enum_fields" :
   [
    {
     "enum_field_value" : 0,
     "name" : "android::internal::details::ToEmptyString<aidl::android::hardware::drm::SupportedContentType>::value"
    }
   ],
   "linker_set_key" : "_ZTIN7android8internal7details13ToEmptyStringIN4aidl7android8hardware3drm20SupportedContentTypeEE6$valueE",
   "name" : "android::internal::details::ToEmptyString<aidl::android::hardware::drm::SupportedContentType>::(unnamed enum at frameworks/native/libs/binder/ndk/include_cpp/android/binder_to_string.h:153:5)",
   "referenced_type" : "_ZTIN7android8internal7details13ToEmptyStringIN4aidl7android8hardware3drm20SupportedContentTypeEE6$valueE",
   "self_type" : "_ZTIN7android8internal7details13ToEmptyStringIN4aidl7android8hardware3drm20SupportedContentTypeEE6$valueE",
   "size" : 4,
   "source_file" : "frameworks/native/libs/binder/ndk/include_cpp/android/binder_to_string.h",
   "underlying_type" : "_ZTIj"
  },
  {
   "alignment" : 4,
   "enum_fields" :
   [
    {
     "enum_field_value" : 0,
     "name" : "android::internal::details::ToEmptyString<aidl::android::hardware::drm::Mode>::value"
    }
   ],
   "linker_set_key" : "_ZTIN7android8internal7details13ToEmptyStringIN4aidl7android8hardware3drm4ModeEE6$valueE",
   "name" : "android::internal::details::ToEmptyString<aidl::android::hardware::drm::Mode>::(unnamed enum at frameworks/native/libs/binder/ndk/include_cpp/android/binder_to_string.h:153:5)",
   "referenced_type" : "_ZTIN7android8internal7details13ToEmptyStringIN4aidl7android8hardware3drm4ModeEE6$valueE",
   "self_type" : "_ZTIN7android8internal7details13ToEmptyStringIN4aidl7android8hardware3drm4ModeEE6$valueE",
   "size" : 4,
   "source_file" : "frameworks/native/libs/binder/ndk/include_cpp/android/binder_to_string.h",
   "underlying_type" : "_ZTIj"
  },
  {
   "alignment" : 4,
   "enum_fields" :
   [
    {
     "enum_field_value" : 0,
     "name" : "android::internal::details::ToEmptyString<aidl::android::hardware::drm::Uuid>::value"
    }
   ],
   "linker_set_key" : "_ZTIN7android8internal7details13ToEmptyStringIN4aidl7android8hardware3drm4UuidEE6$valueE",
   "name" : "android::internal::details::ToEmptyString<aidl::android::hardware::drm::Uuid>::(unnamed enum at frameworks/native/libs/binder/ndk/include_cpp/android/binder_to_string.h:153:5)",
   "referenced_type" : "_ZTIN7android8internal7details13ToEmptyStringIN4aidl7android8hardware3drm4UuidEE6$valueE",
   "self_type" : "_ZTIN7android8internal7details13ToEmptyStringIN4aidl7android8hardware3drm4UuidEE6$valueE",
   "size" : 4,
   "source_file" : "frameworks/native/libs/binder/ndk/include_cpp/android/binder_to_string.h",
   "underlying_type" : "_ZTIj"
  },
  {
   "alignment" : 4,
   "enum_fields" :
   [
    {
     "enum_field_value" : 0,
     "name" : "android::internal::details::ToEmptyString<aidl::android::hardware::drm::Pattern>::value"
    }
   ],
   "linker_set_key" : "_ZTIN7android8internal7details13ToEmptyStringIN4aidl7android8hardware3drm7PatternEE6$valueE",
   "name" : "android::internal::details::ToEmptyString<aidl::android::hardware::drm::Pattern>::(unnamed enum at frameworks/native/libs/binder/ndk/include_cpp/android/binder_to_string.h:153:5)",
   "referenced_type" : "_ZTIN7android8internal7details13ToEmptyStringIN4aidl7android8hardware3drm7PatternEE6$valueE",
   "self_type" : "_ZTIN7android8internal7details13ToEmptyStringIN4aidl7android8hardware3drm7PatternEE6$valueE",
   "size" : 4,
   "source_file" : "frameworks/native/libs/binder/ndk/include_cpp/android/binder_to_string.h",
   "underlying_type" : "_ZTIj"
  },
  {
   "alignment" : 4,
   "enum_fields" :
   [
    {
     "enum_field_value" : 0,
     "name" : "android::internal::details::ToEmptyString<aidl::android::hardware::drm::DrmMetric>::value"
    }
   ],
   "linker_set_key" : "_ZTIN7android8internal7details13ToEmptyStringIN4aidl7android8hardware3drm9DrmMetricEE6$valueE",
   "name" : "android::internal::details::ToEmptyString<aidl::android::hardware::drm::DrmMetric>::(unnamed enum at frameworks/native/libs/binder/ndk/include_cpp/android/binder_to_string.h:153:5)",
   "referenced_type" : "_ZTIN7android8internal7details13ToEmptyStringIN4aidl7android8hardware3drm9DrmMetricEE6$valueE",
   "self_type" : "_ZTIN7android8internal7details13ToEmptyStringIN4aidl7android8hardware3drm9DrmMetricEE6$valueE",
   "size" : 4,
   "source_file" : "frameworks/native/libs/binder/ndk/include_cpp/android/binder_to_string.h",
   "underlying_type" : "_ZTIj"
  },
  {
   "alignment" : 4,
   "enum_fields" :
   [
    {
     "enum_field_value" : 0,
     "name" : "android::internal::details::ToEmptyString<aidl::android::hardware::drm::HdcpLevel>::value"
    }
   ],
   "linker_set_key" : "_ZTIN7android8internal7details13ToEmptyStringIN4aidl7android8hardware3drm9HdcpLevelEE6$valueE",
   "name" : "android::internal::details::ToEmptyString<aidl::android::hardware::drm::HdcpLevel>::(unnamed enum at frameworks/native/libs/binder/ndk/include_cpp/android/binder_to_string.h:153:5)",
   "referenced_type" : "_ZTIN7android8internal7details13ToEmptyStringIN4aidl7android8hardware3drm9HdcpLevelEE6$valueE",
   "self_type" : "_ZTIN7android8internal7details13ToEmptyStringIN4aidl7android8hardware3drm9HdcpLevelEE6$valueE",
   "size" : 4,
   "source_file" : "frameworks/native/libs/binder/ndk/include_cpp/android/binder_to_string.h",
   "underlying_type" : "_ZTIj"
  },
  {
   "alignment" : 4,
   "enum_fields" :
   [
    {
     "enum_field_value" : 0,
     "name" : "android::internal::details::ToEmptyString<aidl::android::hardware::drm::SubSample>::value"
    }
   ],
   "linker_set_key" : "_ZTIN7android8internal7details13ToEmptyStringIN4aidl7android8hardware3drm9SubSampleEE6$valueE",
   "name" : "android::internal::details::ToEmptyString<aidl::android::hardware::drm::SubSample>::(unnamed enum at frameworks/native/libs/binder/ndk/include_cpp/android/binder_to_string.h:153:5)",
   "referenced_type" : "_ZTIN7android8internal7details13ToEmptyStringIN4aidl7android8hardware3drm9SubSampleEE6$valueE",
   "self_type" : "_ZTIN7android8internal7details13ToEmptyStringIN4aidl7android8hardware3drm9SubSampleEE6$valueE",
   "size" : 4,
   "source_file" : "frameworks/native/libs/binder/ndk/include_cpp/android/binder_to_string.h",
   "underlying_type" : "_ZTIj"
  },
  {
   "alignment" : 4,
   "enum_fields" :
   [
    {
     "enum_field_value" : 0,
     "name" : "android::internal::details::ToEmptyString<aidl::android::hardware::common::NativeHandle>::value"
    }
   ],
   "linker_set_key" : "_ZTIN7android8internal7details13ToEmptyStringIN4aidl7android8hardware6common12NativeHandleEE6$valueE",
   "name" : "android::internal::details::ToEmptyString<aidl::android::hardware::common::NativeHandle>::(unnamed enum at frameworks/native/libs/binder/ndk/include_cpp/android/binder_to_string.h:153:5)",
   "referenced_type" : "_ZTIN7android8internal7details13ToEmptyStringIN4aidl7android8hardware6common12NativeHandleEE6$valueE",
   "self_type" : "_ZTIN7android8internal7details13ToEmptyStringIN4aidl7android8hardware6common12NativeHandleEE6$valueE",
   "size" : 4,
   "source_file" : "frameworks/native/libs/binder/ndk/include_cpp/android/binder_to_string.h",
   "underlying_type" : "_ZTIj"
  },
  {
   "alignment" : 4,
   "enum_fields" :
   [
    {
     "enum_field_value" : 0,
     "name" : "android::internal::details::ToEmptyString<std::basic_string<char>>::value"
    }
   ],
   "linker_set_key" : "_ZTIN7android8internal7details13ToEmptyStringINSt3__112basic_stringIcNS3_11char_traitsIcEENS3_9allocatorIcEEEEE6$valueE",
   "name" : "android::internal::details::ToEmptyString<std::basic_string<char, std::char_traits<char>, std::allocator<char>>>::(unnamed enum at frameworks/native/libs/binder/ndk/include_cpp/android/binder_to_string.h:153:5)",
   "referenced_type" : "_ZTIN7android8internal7details13ToEmptyStringINSt3__112basic_stringIcNS3_11char_traitsIcEENS3_9allocatorIcEEEEE6$valueE",
   "self_type" : "_ZTIN7android8internal7details13ToEmptyStringINSt3__112basic_stringIcNS3_11char_traitsIcEENS3_9allocatorIcEEEEE6$valueE",
   "size" : 4,
   "source_file" : "frameworks/native/libs/binder/ndk/include_cpp/android/binder_to_string.h",
   "underlying_type" : "_ZTIj"
  },
  {
   "alignment" : 4,
   "enum_fields" :
   [
    {
     "enum_field_value" : 0,
     "name" : "android::internal::details::ToEmptyString<std::array<unsigned char, 16>>::value"
    }
   ],
   "linker_set_key" : "_ZTIN7android8internal7details13ToEmptyStringINSt3__15arrayIhLj16EEEE6$valueE",
   "name" : "android::internal::details::ToEmptyString<std::array<unsigned char, 16>>::(unnamed enum at frameworks/native/libs/binder/ndk/include_cpp/android/binder_to_string.h:153:5)",
   "referenced_type" : "_ZTIN7android8internal7details13ToEmptyStringINSt3__15arrayIhLj16EEEE6$valueE",
   "self_type" : "_ZTIN7android8internal7details13ToEmptyStringINSt3__15arrayIhLj16EEEE6$valueE",
   "size" : 4,
   "source_file" : "frameworks/native/libs/binder/ndk/include_cpp/android/binder_to_string.h",
   "underlying_type" : "_ZTIj"
  },
  {
   "alignment" : 4,
   "enum_fields" :
   [
    {
     "enum_field_value" : 0,
     "name" : "android::internal::details::ToEmptyString<std::vector<ndk::ScopedFileDescriptor>>::value"
    }
   ],
   "linker_set_key" : "_ZTIN7android8internal7details13ToEmptyStringINSt3__16vectorIN3ndk20ScopedFileDescriptorENS3_9allocatorIS6_EEEEE6$valueE",
   "name" : "android::internal::details::ToEmptyString<std::vector<ndk::ScopedFileDescriptor, std::allocator<ndk::ScopedFileDescriptor>>>::(unnamed enum at frameworks/native/libs/binder/ndk/include_cpp/android/binder_to_string.h:153:5)",
   "referenced_type" : "_ZTIN7android8internal7details13ToEmptyStringINSt3__16vectorIN3ndk20ScopedFileDescriptorENS3_9allocatorIS6_EEEEE6$valueE",
   "self_type" : "_ZTIN7android8internal7details13ToEmptyStringINSt3__16vectorIN3ndk20ScopedFileDescriptorENS3_9allocatorIS6_EEEEE6$valueE",
   "size" : 4,
   "source_file" : "frameworks/native/libs/binder/ndk/include_cpp/android/binder_to_string.h",
   "underlying_type" : "_ZTIj"
  },
  {
   "alignment" : 4,
   "enum_fields" :
   [
    {
     "enum_field_value" : 0,
     "name" : "android::internal::details::ToEmptyString<std::vector<aidl::android::hardware::drm::DrmMetricNamedValue>>::value"
    }
   ],
   "linker_set_key" : "_ZTIN7android8internal7details13ToEmptyStringINSt3__16vectorIN4aidl7android8hardware3drm19DrmMetricNamedValueENS3_9allocatorIS9_EEEEE6$valueE",
   "name" : "android::internal::details::ToEmptyString<std::vector<aidl::android::hardware::drm::DrmMetricNamedValue, std::allocator<aidl::android::hardware::drm::DrmMetricNamedValue>>>::(unnamed enum at frameworks/native/libs/binder/ndk/include_cpp/android/binder_to_string.h:153:5)",
   "referenced_type" : "_ZTIN7android8internal7details13ToEmptyStringINSt3__16vectorIN4aidl7android8hardware3drm19DrmMetricNamedValueENS3_9allocatorIS9_EEEEE6$valueE",
   "self_type" : "_ZTIN7android8internal7details13ToEmptyStringINSt3__16vectorIN4aidl7android8hardware3drm19DrmMetricNamedValueENS3_9allocatorIS9_EEEEE6$valueE",
   "size" : 4,
   "source_file" : "frameworks/native/libs/binder/ndk/include_cpp/android/binder_to_string.h",
   "underlying_type" : "_ZTIj"
  },
  {
   "alignment" : 4,
   "enum_fields" :
   [
    {
     "enum_field_value" : 0,
     "name" : "android::internal::details::ToEmptyString<std::vector<aidl::android::hardware::drm::SupportedContentType>>::value"
    }
   ],
   "linker_set_key" : "_ZTIN7android8internal7details13ToEmptyStringINSt3__16vectorIN4aidl7android8hardware3drm20SupportedContentTypeENS3_9allocatorIS9_EEEEE6$valueE",
   "name" : "android::internal::details::ToEmptyString<std::vector<aidl::android::hardware::drm::SupportedContentType, std::allocator<aidl::android::hardware::drm::SupportedContentType>>>::(unnamed enum at frameworks/native/libs/binder/ndk/include_cpp/android/binder_to_string.h:153:5)",
   "referenced_type" : "_ZTIN7android8internal7details13ToEmptyStringINSt3__16vectorIN4aidl7android8hardware3drm20SupportedContentTypeENS3_9allocatorIS9_EEEEE6$valueE",
   "self_type" : "_ZTIN7android8internal7details13ToEmptyStringINSt3__16vectorIN4aidl7android8hardware3drm20SupportedContentTypeENS3_9allocatorIS9_EEEEE6$valueE",
   "size" : 4,
   "source_file" : "frameworks/native/libs/binder/ndk/include_cpp/android/binder_to_string.h",
   "underlying_type" : "_ZTIj"
  },
  {
   "alignment" : 4,
   "enum_fields" :
   [
    {
     "enum_field_value" : 0,
     "name" : "android::internal::details::ToEmptyString<std::vector<aidl::android::hardware::drm::Uuid>>::value"
    }
   ],
   "linker_set_key" : "_ZTIN7android8internal7details13ToEmptyStringINSt3__16vectorIN4aidl7android8hardware3drm4UuidENS3_9allocatorIS9_EEEEE6$valueE",
   "name" : "android::internal::details::ToEmptyString<std::vector<aidl::android::hardware::drm::Uuid, std::allocator<aidl::android::hardware::drm::Uuid>>>::(unnamed enum at frameworks/native/libs/binder/ndk/include_cpp/android/binder_to_string.h:153:5)",
   "referenced_type" : "_ZTIN7android8internal7details13ToEmptyStringINSt3__16vectorIN4aidl7android8hardware3drm4UuidENS3_9allocatorIS9_EEEEE6$valueE",
   "self_type" : "_ZTIN7android8internal7details13ToEmptyStringINSt3__16vectorIN4aidl7android8hardware3drm4UuidENS3_9allocatorIS9_EEEEE6$valueE",
   "size" : 4,
   "source_file" : "frameworks/native/libs/binder/ndk/include_cpp/android/binder_to_string.h",
   "underlying_type" : "_ZTIj"
  },
  {
   "alignment" : 4,
   "enum_fields" :
   [
    {
     "enum_field_value" : 0,
     "name" : "android::internal::details::ToEmptyString<std::vector<aidl::android::hardware::drm::DrmMetric>>::value"
    }
   ],
   "linker_set_key" : "_ZTIN7android8internal7details13ToEmptyStringINSt3__16vectorIN4aidl7android8hardware3drm9DrmMetricENS3_9allocatorIS9_EEEEE6$valueE",
   "name" : "android::internal::details::ToEmptyString<std::vector<aidl::android::hardware::drm::DrmMetric, std::allocator<aidl::android::hardware::drm::DrmMetric>>>::(unnamed enum at frameworks/native/libs/binder/ndk/include_cpp/android/binder_to_string.h:153:5)",
   "referenced_type" : "_ZTIN7android8internal7details13ToEmptyStringINSt3__16vectorIN4aidl7android8hardware3drm9DrmMetricENS3_9allocatorIS9_EEEEE6$valueE",
   "self_type" : "_ZTIN7android8internal7details13ToEmptyStringINSt3__16vectorIN4aidl7android8hardware3drm9DrmMetricENS3_9allocatorIS9_EEEEE6$valueE",
   "size" : 4,
   "source_file" : "frameworks/native/libs/binder/ndk/include_cpp/android/binder_to_string.h",
   "underlying_type" : "_ZTIj"
  },
  {
   "alignment" : 4,
   "enum_fields" :
   [
    {
     "enum_field_value" : 0,
     "name" : "android::internal::details::ToEmptyString<std::vector<aidl::android::hardware::drm::SubSample>>::value"
    }
   ],
   "linker_set_key" : "_ZTIN7android8internal7details13ToEmptyStringINSt3__16vectorIN4aidl7android8hardware3drm9SubSampleENS3_9allocatorIS9_EEEEE6$valueE",
   "name" : "android::internal::details::ToEmptyString<std::vector<aidl::android::hardware::drm::SubSample, std::allocator<aidl::android::hardware::drm::SubSample>>>::(unnamed enum at frameworks/native/libs/binder/ndk/include_cpp/android/binder_to_string.h:153:5)",
   "referenced_type" : "_ZTIN7android8internal7details13ToEmptyStringINSt3__16vectorIN4aidl7android8hardware3drm9SubSampleENS3_9allocatorIS9_EEEEE6$valueE",
   "self_type" : "_ZTIN7android8internal7details13ToEmptyStringINSt3__16vectorIN4aidl7android8hardware3drm9SubSampleENS3_9allocatorIS9_EEEEE6$valueE",
   "size" : 4,
   "source_file" : "frameworks/native/libs/binder/ndk/include_cpp/android/binder_to_string.h",
   "underlying_type" : "_ZTIj"
  },
  {
   "alignment" : 4,
   "enum_fields" :
   [
    {
     "enum_field_value" : 0,
     "name" : "android::internal::details::ToEmptyString<std::vector<unsigned char>>::value"
    }
   ],
   "linker_set_key" : "_ZTIN7android8internal7details13ToEmptyStringINSt3__16vectorIhNS3_9allocatorIhEEEEE6$valueE",
   "name" : "android::internal::details::ToEmptyString<std::vector<unsigned char, std::allocator<unsigned char>>>::(unnamed enum at frameworks/native/libs/binder/ndk/include_cpp/android/binder_to_string.h:153:5)",
   "referenced_type" : "_ZTIN7android8internal7details13ToEmptyStringINSt3__16vectorIhNS3_9allocatorIhEEEEE6$valueE",
   "self_type" : "_ZTIN7android8internal7details13ToEmptyStringINSt3__16vectorIhNS3_9allocatorIhEEEEE6$valueE",
   "size" : 4,
   "source_file" : "frameworks/native/libs/binder/ndk/include_cpp/android/binder_to_string.h",
   "underlying_type" : "_ZTIj"
  },
  {
   "alignment" : 4,
   "enum_fields" :
   [
    {
     "enum_field_value" : 0,
     "name" : "android::internal::details::ToEmptyString<std::vector<int>>::value"
    }
   ],
   "linker_set_key" : "_ZTIN7android8internal7details13ToEmptyStringINSt3__16vectorIiNS3_9allocatorIiEEEEE6$valueE",
   "name" : "android::internal::details::ToEmptyString<std::vector<int, std::allocator<int>>>::(unnamed enum at frameworks/native/libs/binder/ndk/include_cpp/android/binder_to_string.h:153:5)",
   "referenced_type" : "_ZTIN7android8internal7details13ToEmptyStringINSt3__16vectorIiNS3_9allocatorIiEEEEE6$valueE",
   "self_type" : "_ZTIN7android8internal7details13ToEmptyStringINSt3__16vectorIiNS3_9allocatorIiEEEEE6$valueE",
   "size" : 4,
   "source_file" : "frameworks/native/libs/binder/ndk/include_cpp/android/binder_to_string.h",
   "underlying_type" : "_ZTIj"
  },
  {
   "alignment" : 4,
   "enum_fields" :
   [
    {
     "enum_field_value" : 0,
     "name" : "android::internal::details::ToEmptyString<bool>::value"
    }
   ],
   "linker_set_key" : "_ZTIN7android8internal7details13ToEmptyStringIbE6$valueE",
   "name" : "android::internal::details::ToEmptyString<bool>::(unnamed enum at frameworks/native/libs/binder/ndk/include_cpp/android/binder_to_string.h:153:5)",
   "referenced_type" : "_ZTIN7android8internal7details13ToEmptyStringIbE6$valueE",
   "self_type" : "_ZTIN7android8internal7details13ToEmptyStringIbE6$valueE",
   "size" : 4,
   "source_file" : "frameworks/native/libs/binder/ndk/include_cpp/android/binder_to_string.h",
   "underlying_type" : "_ZTIj"
  },
  {
   "alignment" : 4,
   "enum_fields" :
   [
    {
     "enum_field_value" : 0,
     "name" : "android::internal::details::ToEmptyString<double>::value"
    }
   ],
   "linker_set_key" : "_ZTIN7android8internal7details13ToEmptyStringIdE6$valueE",
   "name" : "android::internal::details::ToEmptyString<double>::(unnamed enum at frameworks/native/libs/binder/ndk/include_cpp/android/binder_to_string.h:153:5)",
   "referenced_type" : "_ZTIN7android8internal7details13ToEmptyStringIdE6$valueE",
   "self_type" : "_ZTIN7android8internal7details13ToEmptyStringIdE6$valueE",
   "size" : 4,
   "source_file" : "frameworks/native/libs/binder/ndk/include_cpp/android/binder_to_string.h",
   "underlying_type" : "_ZTIj"
  },
  {
   "alignment" : 4,
   "enum_fields" :
   [
    {
     "enum_field_value" : 0,
     "name" : "android::internal::details::ToEmptyString<unsigned char>::value"
    }
   ],
   "linker_set_key" : "_ZTIN7android8internal7details13ToEmptyStringIhE6$valueE",
   "name" : "android::internal::details::ToEmptyString<unsigned char>::(unnamed enum at frameworks/native/libs/binder/ndk/include_cpp/android/binder_to_string.h:153:5)",
   "referenced_type" : "_ZTIN7android8internal7details13ToEmptyStringIhE6$valueE",
   "self_type" : "_ZTIN7android8internal7details13ToEmptyStringIhE6$valueE",
   "size" : 4,
   "source_file" : "frameworks/native/libs/binder/ndk/include_cpp/android/binder_to_string.h",
   "underlying_type" : "_ZTIj"
  },
  {
   "alignment" : 4,
   "enum_fields" :
   [
    {
     "enum_field_value" : 0,
     "name" : "android::internal::details::ToEmptyString<int>::value"
    }
   ],
   "linker_set_key" : "_ZTIN7android8internal7details13ToEmptyStringIiE6$valueE",
   "name" : "android::internal::details::ToEmptyString<int>::(unnamed enum at frameworks/native/libs/binder/ndk/include_cpp/android/binder_to_string.h:153:5)",
   "referenced_type" : "_ZTIN7android8internal7details13ToEmptyStringIiE6$valueE",
   "self_type" : "_ZTIN7android8internal7details13ToEmptyStringIiE6$valueE",
   "size" : 4,
   "source_file" : "frameworks/native/libs/binder/ndk/include_cpp/android/binder_to_string.h",
   "underlying_type" : "_ZTIj"
  },
  {
   "alignment" : 4,
   "enum_fields" :
   [
    {
     "enum_field_value" : 0,
     "name" : "android::internal::details::ToEmptyString<long long>::value"
    }
   ],
   "linker_set_key" : "_ZTIN7android8internal7details13ToEmptyStringIxE6$valueE",
   "name" : "android::internal::details::ToEmptyString<long long>::(unnamed enum at frameworks/native/libs/binder/ndk/include_cpp/android/binder_to_string.h:153:5)",
   "referenced_type" : "_ZTIN7android8internal7details13ToEmptyStringIxE6$valueE",
   "self_type" : "_ZTIN7android8internal7details13ToEmptyStringIxE6$valueE",
   "size" : 4,
   "source_file" : "frameworks/native/libs/binder/ndk/include_cpp/android/binder_to_string.h",
   "underlying_type" : "_ZTIj"
  },
  {
   "alignment" : 4,
   "enum_fields" :
   [
    {
     "enum_field_value" : 0,
     "name" : "android::internal::details::HasToStringMethod<aidl::android::hardware::drm::LogPriority>::value"
    }
   ],
   "linker_set_key" : "_ZTIN7android8internal7details17HasToStringMethodIN4aidl7android8hardware3drm11LogPriorityEE6$valueE",
   "name" : "android::internal::details::HasToStringMethod<aidl::android::hardware::drm::LogPriority>::(unnamed enum at frameworks/native/libs/binder/ndk/include_cpp/android/binder_to_string.h:77:5)",
   "referenced_type" : "_ZTIN7android8internal7details17HasToStringMethodIN4aidl7android8hardware3drm11LogPriorityEE6$valueE",
   "self_type" : "_ZTIN7android8internal7details17HasToStringMethodIN4aidl7android8hardware3drm11LogPriorityEE6$valueE",
   "size" : 4,
   "source_file" : "frameworks/native/libs/binder/ndk/include_cpp/android/binder_to_string.h",
   "underlying_type" : "_ZTIj"
  },
  {
   "alignment" : 4,
   "enum_fields" :
   [
    {
     "enum_field_value" : 1,
     "name" : "android::internal::details::HasToStringMethod<aidl::android::hardware::drm::SharedBuffer>::value"
    }
   ],
   "linker_set_key" : "_ZTIN7android8internal7details17HasToStringMethodIN4aidl7android8hardware3drm12SharedBufferEE6$valueE",
   "name" : "android::internal::details::HasToStringMethod<aidl::android::hardware::drm::SharedBuffer>::(unnamed enum at frameworks/native/libs/binder/ndk/include_cpp/android/binder_to_string.h:77:5)",
   "referenced_type" : "_ZTIN7android8internal7details17HasToStringMethodIN4aidl7android8hardware3drm12SharedBufferEE6$valueE",
   "self_type" : "_ZTIN7android8internal7details17HasToStringMethodIN4aidl7android8hardware3drm12SharedBufferEE6$valueE",
   "size" : 4,
   "source_file" : "frameworks/native/libs/binder/ndk/include_cpp/android/binder_to_string.h",
   "underlying_type" : "_ZTIj"
  },
  {
   "alignment" : 4,
   "enum_fields" :
   [
    {
     "enum_field_value" : 0,
     "name" : "android::internal::details::HasToStringMethod<aidl::android::hardware::drm::KeyStatusType>::value"
    }
   ],
   "linker_set_key" : "_ZTIN7android8internal7details17HasToStringMethodIN4aidl7android8hardware3drm13KeyStatusTypeEE6$valueE",
   "name" : "android::internal::details::HasToStringMethod<aidl::android::hardware::drm::KeyStatusType>::(unnamed enum at frameworks/native/libs/binder/ndk/include_cpp/android/binder_to_string.h:77:5)",
   "referenced_type" : "_ZTIN7android8internal7details17HasToStringMethodIN4aidl7android8hardware3drm13KeyStatusTypeEE6$valueE",
   "self_type" : "_ZTIN7android8internal7details17HasToStringMethodIN4aidl7android8hardware3drm13KeyStatusTypeEE6$valueE",
   "size" : 4,
   "source_file" : "frameworks/native/libs/binder/ndk/include_cpp/android/binder_to_string.h",
   "underlying_type" : "_ZTIj"
  },
  {
   "alignment" : 4,
   "enum_fields" :
   [
    {
     "enum_field_value" : 0,
     "name" : "android::internal::details::HasToStringMethod<aidl::android::hardware::drm::SecurityLevel>::value"
    }
   ],
   "linker_set_key" : "_ZTIN7android8internal7details17HasToStringMethodIN4aidl7android8hardware3drm13SecurityLevelEE6$valueE",
   "name" : "android::internal::details::HasToStringMethod<aidl::android::hardware::drm::SecurityLevel>::(unnamed enum at frameworks/native/libs/binder/ndk/include_cpp/android/binder_to_string.h:77:5)",
   "referenced_type" : "_ZTIN7android8internal7details17HasToStringMethodIN4aidl7android8hardware3drm13SecurityLevelEE6$valueE",
   "self_type" : "_ZTIN7android8internal7details17HasToStringMethodIN4aidl7android8hardware3drm13SecurityLevelEE6$valueE",
   "size" : 4,
   "source_file" : "frameworks/native/libs/binder/ndk/include_cpp/android/binder_to_string.h",
   "underlying_type" : "_ZTIj"
  },
  {
   "alignment" : 4,
   "enum_fields" :
   [
    {
     "enum_field_value" : 1,
     "name" : "android::internal::details::HasToStringMethod<aidl::android::hardware::drm::DrmMetricValue>::value"
    }
   ],
   "linker_set_key" : "_ZTIN7android8internal7details17HasToStringMethodIN4aidl7android8hardware3drm14DrmMetricValueEE6$valueE",
   "name" : "android::internal::details::HasToStringMethod<aidl::android::hardware::drm::DrmMetricValue>::(unnamed enum at frameworks/native/libs/binder/ndk/include_cpp/android/binder_to_string.h:77:5)",
   "referenced_type" : "_ZTIN7android8internal7details17HasToStringMethodIN4aidl7android8hardware3drm14DrmMetricValueEE6$valueE",
   "self_type" : "_ZTIN7android8internal7details17HasToStringMethodIN4aidl7android8hardware3drm14DrmMetricValueEE6$valueE",
   "size" : 4,
   "source_file" : "frameworks/native/libs/binder/ndk/include_cpp/android/binder_to_string.h",
   "underlying_type" : "_ZTIj"
  },
  {
   "alignment" : 4,
   "enum_fields" :
   [
    {
     "enum_field_value" : 0,
     "name" : "android::internal::details::HasToStringMethod<aidl::android::hardware::drm::KeyRequestType>::value"
    }
   ],
   "linker_set_key" : "_ZTIN7android8internal7details17HasToStringMethodIN4aidl7android8hardware3drm14KeyRequestTypeEE6$valueE",
   "name" : "android::internal::details::HasToStringMethod<aidl::android::hardware::drm::KeyRequestType>::(unnamed enum at frameworks/native/libs/binder/ndk/include_cpp/android/binder_to_string.h:77:5)",
   "referenced_type" : "_ZTIN7android8internal7details17HasToStringMethodIN4aidl7android8hardware3drm14KeyRequestTypeEE6$valueE",
   "self_type" : "_ZTIN7android8internal7details17HasToStringMethodIN4aidl7android8hardware3drm14KeyRequestTypeEE6$valueE",
   "size" : 4,
   "source_file" : "frameworks/native/libs/binder/ndk/include_cpp/android/binder_to_string.h",
   "underlying_type" : "_ZTIj"
  },
  {
   "alignment" : 4,
   "enum_fields" :
   [
    {
     "enum_field_value" : 1,
     "name" : "android::internal::details::HasToStringMethod<aidl::android::hardware::drm::DestinationBuffer>::value"
    }
   ],
   "linker_set_key" : "_ZTIN7android8internal7details17HasToStringMethodIN4aidl7android8hardware3drm17DestinationBufferEE6$valueE",
   "name" : "android::internal::details::HasToStringMethod<aidl::android::hardware::drm::DestinationBuffer>::(unnamed enum at frameworks/native/libs/binder/ndk/include_cpp/android/binder_to_string.h:77:5)",
   "referenced_type" : "_ZTIN7android8internal7details17HasToStringMethodIN4aidl7android8hardware3drm17DestinationBufferEE6$valueE",
   "self_type" : "_ZTIN7android8internal7details17HasToStringMethodIN4aidl7android8hardware3drm17DestinationBufferEE6$valueE",
   "size" : 4,
   "source_file" : "frameworks/native/libs/binder/ndk/include_cpp/android/binder_to_string.h",
   "underlying_type" : "_ZTIj"
  },
  {
   "alignment" : 4,
   "enum_fields" :
   [
    {
     "enum_field_value" : 1,
     "name" : "android::internal::details::HasToStringMethod<aidl::android::hardware::drm::DrmMetricNamedValue>::value"
    }
   ],
   "linker_set_key" : "_ZTIN7android8internal7details17HasToStringMethodIN4aidl7android8hardware3drm19DrmMetricNamedValueEE6$valueE",
   "name" : "android::internal::details::HasToStringMethod<aidl::android::hardware::drm::DrmMetricNamedValue>::(unnamed enum at frameworks/native/libs/binder/ndk/include_cpp/android/binder_to_string.h:77:5)",
   "referenced_type" : "_ZTIN7android8internal7details17HasToStringMethodIN4aidl7android8hardware3drm19DrmMetricNamedValueEE6$valueE",
   "self_type" : "_ZTIN7android8internal7details17HasToStringMethodIN4aidl7android8hardware3drm19DrmMetricNamedValueEE6$valueE",
   "size" : 4,
   "source_file" : "frameworks/native/libs/binder/ndk/include_cpp/android/binder_to_string.h",
   "underlying_type" : "_ZTIj"
  },
  {
   "alignment" : 4,
   "enum_fields" :
   [
    {
     "enum_field_value" : 1,
     "name" : "android::internal::details::HasToStringMethod<aidl::android::hardware::drm::SupportedContentType>::value"
    }
   ],
   "linker_set_key" : "_ZTIN7android8internal7details17HasToStringMethodIN4aidl7android8hardware3drm20SupportedContentTypeEE6$valueE",
   "name" : "android::internal::details::HasToStringMethod<aidl::android::hardware::drm::SupportedContentType>::(unnamed enum at frameworks/native/libs/binder/ndk/include_cpp/android/binder_to_string.h:77:5)",
   "referenced_type" : "_ZTIN7android8internal7details17HasToStringMethodIN4aidl7android8hardware3drm20SupportedContentTypeEE6$valueE",
   "self_type" : "_ZTIN7android8internal7details17HasToStringMethodIN4aidl7android8hardware3drm20SupportedContentTypeEE6$valueE",
   "size" : 4,
   "source_file" : "frameworks/native/libs/binder/ndk/include_cpp/android/binder_to_string.h",
   "underlying_type" : "_ZTIj"
  },
  {
   "alignment" : 4,
   "enum_fields" :
   [
    {
     "enum_field_value" : 0,
     "name" : "android::internal::details::HasToStringMethod<aidl::android::hardware::drm::Mode>::value"
    }
   ],
   "linker_set_key" : "_ZTIN7android8internal7details17HasToStringMethodIN4aidl7android8hardware3drm4ModeEE6$valueE",
   "name" : "android::internal::details::HasToStringMethod<aidl::android::hardware::drm::Mode>::(unnamed enum at frameworks/native/libs/binder/ndk/include_cpp/android/binder_to_string.h:77:5)",
   "referenced_type" : "_ZTIN7android8internal7details17HasToStringMethodIN4aidl7android8hardware3drm4ModeEE6$valueE",
   "self_type" : "_ZTIN7android8internal7details17HasToStringMethodIN4aidl7android8hardware3drm4ModeEE6$valueE",
   "size" : 4,
   "source_file" : "frameworks/native/libs/binder/ndk/include_cpp/android/binder_to_string.h",
   "underlying_type" : "_ZTIj"
  },
  {
   "alignment" : 4,
   "enum_fields" :
   [
    {
     "enum_field_value" : 1,
     "name" : "android::internal::details::HasToStringMethod<aidl::android::hardware::drm::Uuid>::value"
    }
   ],
   "linker_set_key" : "_ZTIN7android8internal7details17HasToStringMethodIN4aidl7android8hardware3drm4UuidEE6$valueE",
   "name" : "android::internal::details::HasToStringMethod<aidl::android::hardware::drm::Uuid>::(unnamed enum at frameworks/native/libs/binder/ndk/include_cpp/android/binder_to_string.h:77:5)",
   "referenced_type" : "_ZTIN7android8internal7details17HasToStringMethodIN4aidl7android8hardware3drm4UuidEE6$valueE",
   "self_type" : "_ZTIN7android8internal7details17HasToStringMethodIN4aidl7android8hardware3drm4UuidEE6$valueE",
   "size" : 4,
   "source_file" : "frameworks/native/libs/binder/ndk/include_cpp/android/binder_to_string.h",
   "underlying_type" : "_ZTIj"
  },
  {
   "alignment" : 4,
   "enum_fields" :
   [
    {
     "enum_field_value" : 1,
     "name" : "android::internal::details::HasToStringMethod<aidl::android::hardware::drm::Pattern>::value"
    }
   ],
   "linker_set_key" : "_ZTIN7android8internal7details17HasToStringMethodIN4aidl7android8hardware3drm7PatternEE6$valueE",
   "name" : "android::internal::details::HasToStringMethod<aidl::android::hardware::drm::Pattern>::(unnamed enum at frameworks/native/libs/binder/ndk/include_cpp/android/binder_to_string.h:77:5)",
   "referenced_type" : "_ZTIN7android8internal7details17HasToStringMethodIN4aidl7android8hardware3drm7PatternEE6$valueE",
   "self_type" : "_ZTIN7android8internal7details17HasToStringMethodIN4aidl7android8hardware3drm7PatternEE6$valueE",
   "size" : 4,
   "source_file" : "frameworks/native/libs/binder/ndk/include_cpp/android/binder_to_string.h",
   "underlying_type" : "_ZTIj"
  },
  {
   "alignment" : 4,
   "enum_fields" :
   [
    {
     "enum_field_value" : 1,
     "name" : "android::internal::details::HasToStringMethod<aidl::android::hardware::drm::DrmMetric>::value"
    }
   ],
   "linker_set_key" : "_ZTIN7android8internal7details17HasToStringMethodIN4aidl7android8hardware3drm9DrmMetricEE6$valueE",
   "name" : "android::internal::details::HasToStringMethod<aidl::android::hardware::drm::DrmMetric>::(unnamed enum at frameworks/native/libs/binder/ndk/include_cpp/android/binder_to_string.h:77:5)",
   "referenced_type" : "_ZTIN7android8internal7details17HasToStringMethodIN4aidl7android8hardware3drm9DrmMetricEE6$valueE",
   "self_type" : "_ZTIN7android8internal7details17HasToStringMethodIN4aidl7android8hardware3drm9DrmMetricEE6$valueE",
   "size" : 4,
   "source_file" : "frameworks/native/libs/binder/ndk/include_cpp/android/binder_to_string.h",
   "underlying_type" : "_ZTIj"
  },
  {
   "alignment" : 4,
   "enum_fields" :
   [
    {
     "enum_field_value" : 0,
     "name" : "android::internal::details::HasToStringMethod<aidl::android::hardware::drm::HdcpLevel>::value"
    }
   ],
   "linker_set_key" : "_ZTIN7android8internal7details17HasToStringMethodIN4aidl7android8hardware3drm9HdcpLevelEE6$valueE",
   "name" : "android::internal::details::HasToStringMethod<aidl::android::hardware::drm::HdcpLevel>::(unnamed enum at frameworks/native/libs/binder/ndk/include_cpp/android/binder_to_string.h:77:5)",
   "referenced_type" : "_ZTIN7android8internal7details17HasToStringMethodIN4aidl7android8hardware3drm9HdcpLevelEE6$valueE",
   "self_type" : "_ZTIN7android8internal7details17HasToStringMethodIN4aidl7android8hardware3drm9HdcpLevelEE6$valueE",
   "size" : 4,
   "source_file" : "frameworks/native/libs/binder/ndk/include_cpp/android/binder_to_string.h",
   "underlying_type" : "_ZTIj"
  },
  {
   "alignment" : 4,
   "enum_fields" :
   [
    {
     "enum_field_value" : 1,
     "name" : "android::internal::details::HasToStringMethod<aidl::android::hardware::drm::SubSample>::value"
    }
   ],
   "linker_set_key" : "_ZTIN7android8internal7details17HasToStringMethodIN4aidl7android8hardware3drm9SubSampleEE6$valueE",
   "name" : "android::internal::details::HasToStringMethod<aidl::android::hardware::drm::SubSample>::(unnamed enum at frameworks/native/libs/binder/ndk/include_cpp/android/binder_to_string.h:77:5)",
   "referenced_type" : "_ZTIN7android8internal7details17HasToStringMethodIN4aidl7android8hardware3drm9SubSampleEE6$valueE",
   "self_type" : "_ZTIN7android8internal7details17HasToStringMethodIN4aidl7android8hardware3drm9SubSampleEE6$valueE",
   "size" : 4,
   "source_file" : "frameworks/native/libs/binder/ndk/include_cpp/android/binder_to_string.h",
   "underlying_type" : "_ZTIj"
  },
  {
   "alignment" : 4,
   "enum_fields" :
   [
    {
     "enum_field_value" : 1,
     "name" : "android::internal::details::HasToStringMethod<aidl::android::hardware::common::NativeHandle>::value"
    }
   ],
   "linker_set_key" : "_ZTIN7android8internal7details17HasToStringMethodIN4aidl7android8hardware6common12NativeHandleEE6$valueE",
   "name" : "android::internal::details::HasToStringMethod<aidl::android::hardware::common::NativeHandle>::(unnamed enum at frameworks/native/libs/binder/ndk/include_cpp/android/binder_to_string.h:77:5)",
   "referenced_type" : "_ZTIN7android8internal7details17HasToStringMethodIN4aidl7android8hardware6common12NativeHandleEE6$valueE",
   "self_type" : "_ZTIN7android8internal7details17HasToStringMethodIN4aidl7android8hardware6common12NativeHandleEE6$valueE",
   "size" : 4,
   "source_file" : "frameworks/native/libs/binder/ndk/include_cpp/android/binder_to_string.h",
   "underlying_type" : "_ZTIj"
  },
  {
   "alignment" : 4,
   "enum_fields" :
   [
    {
     "enum_field_value" : 0,
     "name" : "android::internal::details::HasToStringMethod<std::array<unsigned char, 16>>::value"
    }
   ],
   "linker_set_key" : "_ZTIN7android8internal7details17HasToStringMethodINSt3__15arrayIhLj16EEEE6$valueE",
   "name" : "android::internal::details::HasToStringMethod<std::array<unsigned char, 16>>::(unnamed enum at frameworks/native/libs/binder/ndk/include_cpp/android/binder_to_string.h:77:5)",
   "referenced_type" : "_ZTIN7android8internal7details17HasToStringMethodINSt3__15arrayIhLj16EEEE6$valueE",
   "self_type" : "_ZTIN7android8internal7details17HasToStringMethodINSt3__15arrayIhLj16EEEE6$valueE",
   "size" : 4,
   "source_file" : "frameworks/native/libs/binder/ndk/include_cpp/android/binder_to_string.h",
   "underlying_type" : "_ZTIj"
  },
  {
   "alignment" : 4,
   "enum_fields" :
   [
    {
     "enum_field_value" : 0,
     "name" : "android::internal::details::HasToStringMethod<std::vector<ndk::ScopedFileDescriptor>>::value"
    }
   ],
   "linker_set_key" : "_ZTIN7android8internal7details17HasToStringMethodINSt3__16vectorIN3ndk20ScopedFileDescriptorENS3_9allocatorIS6_EEEEE6$valueE",
   "name" : "android::internal::details::HasToStringMethod<std::vector<ndk::ScopedFileDescriptor, std::allocator<ndk::ScopedFileDescriptor>>>::(unnamed enum at frameworks/native/libs/binder/ndk/include_cpp/android/binder_to_string.h:77:5)",
   "referenced_type" : "_ZTIN7android8internal7details17HasToStringMethodINSt3__16vectorIN3ndk20ScopedFileDescriptorENS3_9allocatorIS6_EEEEE6$valueE",
   "self_type" : "_ZTIN7android8internal7details17HasToStringMethodINSt3__16vectorIN3ndk20ScopedFileDescriptorENS3_9allocatorIS6_EEEEE6$valueE",
   "size" : 4,
   "source_file" : "frameworks/native/libs/binder/ndk/include_cpp/android/binder_to_string.h",
   "underlying_type" : "_ZTIj"
  },
  {
   "alignment" : 4,
   "enum_fields" :
   [
    {
     "enum_field_value" : 0,
     "name" : "android::internal::details::HasToStringMethod<std::vector<aidl::android::hardware::drm::DrmMetricNamedValue>>::value"
    }
   ],
   "linker_set_key" : "_ZTIN7android8internal7details17HasToStringMethodINSt3__16vectorIN4aidl7android8hardware3drm19DrmMetricNamedValueENS3_9allocatorIS9_EEEEE6$valueE",
   "name" : "android::internal::details::HasToStringMethod<std::vector<aidl::android::hardware::drm::DrmMetricNamedValue, std::allocator<aidl::android::hardware::drm::DrmMetricNamedValue>>>::(unnamed enum at frameworks/native/libs/binder/ndk/include_cpp/android/binder_to_string.h:77:5)",
   "referenced_type" : "_ZTIN7android8internal7details17HasToStringMethodINSt3__16vectorIN4aidl7android8hardware3drm19DrmMetricNamedValueENS3_9allocatorIS9_EEEEE6$valueE",
   "self_type" : "_ZTIN7android8internal7details17HasToStringMethodINSt3__16vectorIN4aidl7android8hardware3drm19DrmMetricNamedValueENS3_9allocatorIS9_EEEEE6$valueE",
   "size" : 4,
   "source_file" : "frameworks/native/libs/binder/ndk/include_cpp/android/binder_to_string.h",
   "underlying_type" : "_ZTIj"
  },
  {
   "alignment" : 4,
   "enum_fields" :
   [
    {
     "enum_field_value" : 0,
     "name" : "android::internal::details::HasToStringMethod<std::vector<aidl::android::hardware::drm::SupportedContentType>>::value"
    }
   ],
   "linker_set_key" : "_ZTIN7android8internal7details17HasToStringMethodINSt3__16vectorIN4aidl7android8hardware3drm20SupportedContentTypeENS3_9allocatorIS9_EEEEE6$valueE",
   "name" : "android::internal::details::HasToStringMethod<std::vector<aidl::android::hardware::drm::SupportedContentType, std::allocator<aidl::android::hardware::drm::SupportedContentType>>>::(unnamed enum at frameworks/native/libs/binder/ndk/include_cpp/android/binder_to_string.h:77:5)",
   "referenced_type" : "_ZTIN7android8internal7details17HasToStringMethodINSt3__16vectorIN4aidl7android8hardware3drm20SupportedContentTypeENS3_9allocatorIS9_EEEEE6$valueE",
   "self_type" : "_ZTIN7android8internal7details17HasToStringMethodINSt3__16vectorIN4aidl7android8hardware3drm20SupportedContentTypeENS3_9allocatorIS9_EEEEE6$valueE",
   "size" : 4,
   "source_file" : "frameworks/native/libs/binder/ndk/include_cpp/android/binder_to_string.h",
   "underlying_type" : "_ZTIj"
  },
  {
   "alignment" : 4,
   "enum_fields" :
   [
    {
     "enum_field_value" : 0,
     "name" : "android::internal::details::HasToStringMethod<std::vector<aidl::android::hardware::drm::Uuid>>::value"
    }
   ],
   "linker_set_key" : "_ZTIN7android8internal7details17HasToStringMethodINSt3__16vectorIN4aidl7android8hardware3drm4UuidENS3_9allocatorIS9_EEEEE6$valueE",
   "name" : "android::internal::details::HasToStringMethod<std::vector<aidl::android::hardware::drm::Uuid, std::allocator<aidl::android::hardware::drm::Uuid>>>::(unnamed enum at frameworks/native/libs/binder/ndk/include_cpp/android/binder_to_string.h:77:5)",
   "referenced_type" : "_ZTIN7android8internal7details17HasToStringMethodINSt3__16vectorIN4aidl7android8hardware3drm4UuidENS3_9allocatorIS9_EEEEE6$valueE",
   "self_type" : "_ZTIN7android8internal7details17HasToStringMethodINSt3__16vectorIN4aidl7android8hardware3drm4UuidENS3_9allocatorIS9_EEEEE6$valueE",
   "size" : 4,
   "source_file" : "frameworks/native/libs/binder/ndk/include_cpp/android/binder_to_string.h",
   "underlying_type" : "_ZTIj"
  },
  {
   "alignment" : 4,
   "enum_fields" :
   [
    {
     "enum_field_value" : 0,
     "name" : "android::internal::details::HasToStringMethod<std::vector<aidl::android::hardware::drm::DrmMetric>>::value"
    }
   ],
   "linker_set_key" : "_ZTIN7android8internal7details17HasToStringMethodINSt3__16vectorIN4aidl7android8hardware3drm9DrmMetricENS3_9allocatorIS9_EEEEE6$valueE",
   "name" : "android::internal::details::HasToStringMethod<std::vector<aidl::android::hardware::drm::DrmMetric, std::allocator<aidl::android::hardware::drm::DrmMetric>>>::(unnamed enum at frameworks/native/libs/binder/ndk/include_cpp/android/binder_to_string.h:77:5)",
   "referenced_type" : "_ZTIN7android8internal7details17HasToStringMethodINSt3__16vectorIN4aidl7android8hardware3drm9DrmMetricENS3_9allocatorIS9_EEEEE6$valueE",
   "self_type" : "_ZTIN7android8internal7details17HasToStringMethodINSt3__16vectorIN4aidl7android8hardware3drm9DrmMetricENS3_9allocatorIS9_EEEEE6$valueE",
   "size" : 4,
   "source_file" : "frameworks/native/libs/binder/ndk/include_cpp/android/binder_to_string.h",
   "underlying_type" : "_ZTIj"
  },
  {
   "alignment" : 4,
   "enum_fields" :
   [
    {
     "enum_field_value" : 0,
     "name" : "android::internal::details::HasToStringMethod<std::vector<aidl::android::hardware::drm::SubSample>>::value"
    }
   ],
   "linker_set_key" : "_ZTIN7android8internal7details17HasToStringMethodINSt3__16vectorIN4aidl7android8hardware3drm9SubSampleENS3_9allocatorIS9_EEEEE6$valueE",
   "name" : "android::internal::details::HasToStringMethod<std::vector<aidl::android::hardware::drm::SubSample, std::allocator<aidl::android::hardware::drm::SubSample>>>::(unnamed enum at frameworks/native/libs/binder/ndk/include_cpp/android/binder_to_string.h:77:5)",
   "referenced_type" : "_ZTIN7android8internal7details17HasToStringMethodINSt3__16vectorIN4aidl7android8hardware3drm9SubSampleENS3_9allocatorIS9_EEEEE6$valueE",
   "self_type" : "_ZTIN7android8internal7details17HasToStringMethodINSt3__16vectorIN4aidl7android8hardware3drm9SubSampleENS3_9allocatorIS9_EEEEE6$valueE",
   "size" : 4,
   "source_file" : "frameworks/native/libs/binder/ndk/include_cpp/android/binder_to_string.h",
   "underlying_type" : "_ZTIj"
  },
  {
   "alignment" : 4,
   "enum_fields" :
   [
    {
     "enum_field_value" : 0,
     "name" : "android::internal::details::HasToStringMethod<std::vector<unsigned char>>::value"
    }
   ],
   "linker_set_key" : "_ZTIN7android8internal7details17HasToStringMethodINSt3__16vectorIhNS3_9allocatorIhEEEEE6$valueE",
   "name" : "android::internal::details::HasToStringMethod<std::vector<unsigned char, std::allocator<unsigned char>>>::(unnamed enum at frameworks/native/libs/binder/ndk/include_cpp/android/binder_to_string.h:77:5)",
   "referenced_type" : "_ZTIN7android8internal7details17HasToStringMethodINSt3__16vectorIhNS3_9allocatorIhEEEEE6$valueE",
   "self_type" : "_ZTIN7android8internal7details17HasToStringMethodINSt3__16vectorIhNS3_9allocatorIhEEEEE6$valueE",
   "size" : 4,
   "source_file" : "frameworks/native/libs/binder/ndk/include_cpp/android/binder_to_string.h",
   "underlying_type" : "_ZTIj"
  },
  {
   "alignment" : 4,
   "enum_fields" :
   [
    {
     "enum_field_value" : 0,
     "name" : "android::internal::details::HasToStringMethod<std::vector<int>>::value"
    }
   ],
   "linker_set_key" : "_ZTIN7android8internal7details17HasToStringMethodINSt3__16vectorIiNS3_9allocatorIiEEEEE6$valueE",
   "name" : "android::internal::details::HasToStringMethod<std::vector<int, std::allocator<int>>>::(unnamed enum at frameworks/native/libs/binder/ndk/include_cpp/android/binder_to_string.h:77:5)",
   "referenced_type" : "_ZTIN7android8internal7details17HasToStringMethodINSt3__16vectorIiNS3_9allocatorIiEEEEE6$valueE",
   "self_type" : "_ZTIN7android8internal7details17HasToStringMethodINSt3__16vectorIiNS3_9allocatorIiEEEEE6$valueE",
   "size" : 4,
   "source_file" : "frameworks/native/libs/binder/ndk/include_cpp/android/binder_to_string.h",
   "underlying_type" : "_ZTIj"
  },
  {
   "alignment" : 4,
   "enum_fields" :
   [
    {
     "enum_field_value" : 1,
     "name" : "android::internal::details::HasToStringFunction<aidl::android::hardware::drm::LogPriority>::value"
    }
   ],
   "linker_set_key" : "_ZTIN7android8internal7details19HasToStringFunctionIN4aidl7android8hardware3drm11LogPriorityEE6$valueE",
   "name" : "android::internal::details::HasToStringFunction<aidl::android::hardware::drm::LogPriority>::(unnamed enum at frameworks/native/libs/binder/ndk/include_cpp/android/binder_to_string.h:89:5)",
   "referenced_type" : "_ZTIN7android8internal7details19HasToStringFunctionIN4aidl7android8hardware3drm11LogPriorityEE6$valueE",
   "self_type" : "_ZTIN7android8internal7details19HasToStringFunctionIN4aidl7android8hardware3drm11LogPriorityEE6$valueE",
   "size" : 4,
   "source_file" : "frameworks/native/libs/binder/ndk/include_cpp/android/binder_to_string.h",
   "underlying_type" : "_ZTIj"
  },
  {
   "alignment" : 4,
   "enum_fields" :
   [
    {
     "enum_field_value" : 1,
     "name" : "android::internal::details::HasToStringFunction<aidl::android::hardware::drm::KeyStatusType>::value"
    }
   ],
   "linker_set_key" : "_ZTIN7android8internal7details19HasToStringFunctionIN4aidl7android8hardware3drm13KeyStatusTypeEE6$valueE",
   "name" : "android::internal::details::HasToStringFunction<aidl::android::hardware::drm::KeyStatusType>::(unnamed enum at frameworks/native/libs/binder/ndk/include_cpp/android/binder_to_string.h:89:5)",
   "referenced_type" : "_ZTIN7android8internal7details19HasToStringFunctionIN4aidl7android8hardware3drm13KeyStatusTypeEE6$valueE",
   "self_type" : "_ZTIN7android8internal7details19HasToStringFunctionIN4aidl7android8hardware3drm13KeyStatusTypeEE6$valueE",
   "size" : 4,
   "source_file" : "frameworks/native/libs/binder/ndk/include_cpp/android/binder_to_string.h",
   "underlying_type" : "_ZTIj"
  },
  {
   "alignment" : 4,
   "enum_fields" :
   [
    {
     "enum_field_value" : 1,
     "name" : "android::internal::details::HasToStringFunction<aidl::android::hardware::drm::SecurityLevel>::value"
    }
   ],
   "linker_set_key" : "_ZTIN7android8internal7details19HasToStringFunctionIN4aidl7android8hardware3drm13SecurityLevelEE6$valueE",
   "name" : "android::internal::details::HasToStringFunction<aidl::android::hardware::drm::SecurityLevel>::(unnamed enum at frameworks/native/libs/binder/ndk/include_cpp/android/binder_to_string.h:89:5)",
   "referenced_type" : "_ZTIN7android8internal7details19HasToStringFunctionIN4aidl7android8hardware3drm13SecurityLevelEE6$valueE",
   "self_type" : "_ZTIN7android8internal7details19HasToStringFunctionIN4aidl7android8hardware3drm13SecurityLevelEE6$valueE",
   "size" : 4,
   "source_file" : "frameworks/native/libs/binder/ndk/include_cpp/android/binder_to_string.h",
   "underlying_type" : "_ZTIj"
  },
  {
   "alignment" : 4,
   "enum_fields" :
   [
    {
     "enum_field_value" : 1,
     "name" : "android::internal::details::HasToStringFunction<aidl::android::hardware::drm::KeyRequestType>::value"
    }
   ],
   "linker_set_key" : "_ZTIN7android8internal7details19HasToStringFunctionIN4aidl7android8hardware3drm14KeyRequestTypeEE6$valueE",
   "name" : "android::internal::details::HasToStringFunction<aidl::android::hardware::drm::KeyRequestType>::(unnamed enum at frameworks/native/libs/binder/ndk/include_cpp/android/binder_to_string.h:89:5)",
   "referenced_type" : "_ZTIN7android8internal7details19HasToStringFunctionIN4aidl7android8hardware3drm14KeyRequestTypeEE6$valueE",
   "self_type" : "_ZTIN7android8internal7details19HasToStringFunctionIN4aidl7android8hardware3drm14KeyRequestTypeEE6$valueE",
   "size" : 4,
   "source_file" : "frameworks/native/libs/binder/ndk/include_cpp/android/binder_to_string.h",
   "underlying_type" : "_ZTIj"
  },
  {
   "alignment" : 4,
   "enum_fields" :
   [
    {
     "enum_field_value" : 1,
     "name" : "android::internal::details::HasToStringFunction<aidl::android::hardware::drm::Mode>::value"
    }
   ],
   "linker_set_key" : "_ZTIN7android8internal7details19HasToStringFunctionIN4aidl7android8hardware3drm4ModeEE6$valueE",
   "name" : "android::internal::details::HasToStringFunction<aidl::android::hardware::drm::Mode>::(unnamed enum at frameworks/native/libs/binder/ndk/include_cpp/android/binder_to_string.h:89:5)",
   "referenced_type" : "_ZTIN7android8internal7details19HasToStringFunctionIN4aidl7android8hardware3drm4ModeEE6$valueE",
   "self_type" : "_ZTIN7android8internal7details19HasToStringFunctionIN4aidl7android8hardware3drm4ModeEE6$valueE",
   "size" : 4,
   "source_file" : "frameworks/native/libs/binder/ndk/include_cpp/android/binder_to_string.h",
   "underlying_type" : "_ZTIj"
  },
  {
   "alignment" : 4,
   "enum_fields" :
   [
    {
     "enum_field_value" : 1,
     "name" : "android::internal::details::HasToStringFunction<aidl::android::hardware::drm::HdcpLevel>::value"
    }
   ],
   "linker_set_key" : "_ZTIN7android8internal7details19HasToStringFunctionIN4aidl7android8hardware3drm9HdcpLevelEE6$valueE",
   "name" : "android::internal::details::HasToStringFunction<aidl::android::hardware::drm::HdcpLevel>::(unnamed enum at frameworks/native/libs/binder/ndk/include_cpp/android/binder_to_string.h:89:5)",
   "referenced_type" : "_ZTIN7android8internal7details19HasToStringFunctionIN4aidl7android8hardware3drm9HdcpLevelEE6$valueE",
   "self_type" : "_ZTIN7android8internal7details19HasToStringFunctionIN4aidl7android8hardware3drm9HdcpLevelEE6$valueE",
   "size" : 4,
   "source_file" : "frameworks/native/libs/binder/ndk/include_cpp/android/binder_to_string.h",
   "underlying_type" : "_ZTIj"
  },
  {
   "alignment" : 4,
   "enum_fields" :
   [
    {
     "enum_field_value" : 0,
     "name" : "android::internal::details::HasToStringFunction<std::array<unsigned char, 16>>::value"
    }
   ],
   "linker_set_key" : "_ZTIN7android8internal7details19HasToStringFunctionINSt3__15arrayIhLj16EEEE6$valueE",
   "name" : "android::internal::details::HasToStringFunction<std::array<unsigned char, 16>>::(unnamed enum at frameworks/native/libs/binder/ndk/include_cpp/android/binder_to_string.h:89:5)",
   "referenced_type" : "_ZTIN7android8internal7details19HasToStringFunctionINSt3__15arrayIhLj16EEEE6$valueE",
   "self_type" : "_ZTIN7android8internal7details19HasToStringFunctionINSt3__15arrayIhLj16EEEE6$valueE",
   "size" : 4,
   "source_file" : "frameworks/native/libs/binder/ndk/include_cpp/android/binder_to_string.h",
   "underlying_type" : "_ZTIj"
  },
  {
   "alignment" : 4,
   "enum_fields" :
   [
    {
     "enum_field_value" : 0,
     "name" : "android::internal::details::HasToStringFunction<std::vector<ndk::ScopedFileDescriptor>>::value"
    }
   ],
   "linker_set_key" : "_ZTIN7android8internal7details19HasToStringFunctionINSt3__16vectorIN3ndk20ScopedFileDescriptorENS3_9allocatorIS6_EEEEE6$valueE",
   "name" : "android::internal::details::HasToStringFunction<std::vector<ndk::ScopedFileDescriptor, std::allocator<ndk::ScopedFileDescriptor>>>::(unnamed enum at frameworks/native/libs/binder/ndk/include_cpp/android/binder_to_string.h:89:5)",
   "referenced_type" : "_ZTIN7android8internal7details19HasToStringFunctionINSt3__16vectorIN3ndk20ScopedFileDescriptorENS3_9allocatorIS6_EEEEE6$valueE",
   "self_type" : "_ZTIN7android8internal7details19HasToStringFunctionINSt3__16vectorIN3ndk20ScopedFileDescriptorENS3_9allocatorIS6_EEEEE6$valueE",
   "size" : 4,
   "source_file" : "frameworks/native/libs/binder/ndk/include_cpp/android/binder_to_string.h",
   "underlying_type" : "_ZTIj"
  },
  {
   "alignment" : 4,
   "enum_fields" :
   [
    {
     "enum_field_value" : 0,
     "name" : "android::internal::details::HasToStringFunction<std::vector<aidl::android::hardware::drm::DrmMetricNamedValue>>::value"
    }
   ],
   "linker_set_key" : "_ZTIN7android8internal7details19HasToStringFunctionINSt3__16vectorIN4aidl7android8hardware3drm19DrmMetricNamedValueENS3_9allocatorIS9_EEEEE6$valueE",
   "name" : "android::internal::details::HasToStringFunction<std::vector<aidl::android::hardware::drm::DrmMetricNamedValue, std::allocator<aidl::android::hardware::drm::DrmMetricNamedValue>>>::(unnamed enum at frameworks/native/libs/binder/ndk/include_cpp/android/binder_to_string.h:89:5)",
   "referenced_type" : "_ZTIN7android8internal7details19HasToStringFunctionINSt3__16vectorIN4aidl7android8hardware3drm19DrmMetricNamedValueENS3_9allocatorIS9_EEEEE6$valueE",
   "self_type" : "_ZTIN7android8internal7details19HasToStringFunctionINSt3__16vectorIN4aidl7android8hardware3drm19DrmMetricNamedValueENS3_9allocatorIS9_EEEEE6$valueE",
   "size" : 4,
   "source_file" : "frameworks/native/libs/binder/ndk/include_cpp/android/binder_to_string.h",
   "underlying_type" : "_ZTIj"
  },
  {
   "alignment" : 4,
   "enum_fields" :
   [
    {
     "enum_field_value" : 0,
     "name" : "android::internal::details::HasToStringFunction<std::vector<aidl::android::hardware::drm::SupportedContentType>>::value"
    }
   ],
   "linker_set_key" : "_ZTIN7android8internal7details19HasToStringFunctionINSt3__16vectorIN4aidl7android8hardware3drm20SupportedContentTypeENS3_9allocatorIS9_EEEEE6$valueE",
   "name" : "android::internal::details::HasToStringFunction<std::vector<aidl::android::hardware::drm::SupportedContentType, std::allocator<aidl::android::hardware::drm::SupportedContentType>>>::(unnamed enum at frameworks/native/libs/binder/ndk/include_cpp/android/binder_to_string.h:89:5)",
   "referenced_type" : "_ZTIN7android8internal7details19HasToStringFunctionINSt3__16vectorIN4aidl7android8hardware3drm20SupportedContentTypeENS3_9allocatorIS9_EEEEE6$valueE",
   "self_type" : "_ZTIN7android8internal7details19HasToStringFunctionINSt3__16vectorIN4aidl7android8hardware3drm20SupportedContentTypeENS3_9allocatorIS9_EEEEE6$valueE",
   "size" : 4,
   "source_file" : "frameworks/native/libs/binder/ndk/include_cpp/android/binder_to_string.h",
   "underlying_type" : "_ZTIj"
  },
  {
   "alignment" : 4,
   "enum_fields" :
   [
    {
     "enum_field_value" : 0,
     "name" : "android::internal::details::HasToStringFunction<std::vector<aidl::android::hardware::drm::Uuid>>::value"
    }
   ],
   "linker_set_key" : "_ZTIN7android8internal7details19HasToStringFunctionINSt3__16vectorIN4aidl7android8hardware3drm4UuidENS3_9allocatorIS9_EEEEE6$valueE",
   "name" : "android::internal::details::HasToStringFunction<std::vector<aidl::android::hardware::drm::Uuid, std::allocator<aidl::android::hardware::drm::Uuid>>>::(unnamed enum at frameworks/native/libs/binder/ndk/include_cpp/android/binder_to_string.h:89:5)",
   "referenced_type" : "_ZTIN7android8internal7details19HasToStringFunctionINSt3__16vectorIN4aidl7android8hardware3drm4UuidENS3_9allocatorIS9_EEEEE6$valueE",
   "self_type" : "_ZTIN7android8internal7details19HasToStringFunctionINSt3__16vectorIN4aidl7android8hardware3drm4UuidENS3_9allocatorIS9_EEEEE6$valueE",
   "size" : 4,
   "source_file" : "frameworks/native/libs/binder/ndk/include_cpp/android/binder_to_string.h",
   "underlying_type" : "_ZTIj"
  },
  {
   "alignment" : 4,
   "enum_fields" :
   [
    {
     "enum_field_value" : 0,
     "name" : "android::internal::details::HasToStringFunction<std::vector<aidl::android::hardware::drm::DrmMetric>>::value"
    }
   ],
   "linker_set_key" : "_ZTIN7android8internal7details19HasToStringFunctionINSt3__16vectorIN4aidl7android8hardware3drm9DrmMetricENS3_9allocatorIS9_EEEEE6$valueE",
   "name" : "android::internal::details::HasToStringFunction<std::vector<aidl::android::hardware::drm::DrmMetric, std::allocator<aidl::android::hardware::drm::DrmMetric>>>::(unnamed enum at frameworks/native/libs/binder/ndk/include_cpp/android/binder_to_string.h:89:5)",
   "referenced_type" : "_ZTIN7android8internal7details19HasToStringFunctionINSt3__16vectorIN4aidl7android8hardware3drm9DrmMetricENS3_9allocatorIS9_EEEEE6$valueE",
   "self_type" : "_ZTIN7android8internal7details19HasToStringFunctionINSt3__16vectorIN4aidl7android8hardware3drm9DrmMetricENS3_9allocatorIS9_EEEEE6$valueE",
   "size" : 4,
   "source_file" : "frameworks/native/libs/binder/ndk/include_cpp/android/binder_to_string.h",
   "underlying_type" : "_ZTIj"
  },
  {
   "alignment" : 4,
   "enum_fields" :
   [
    {
     "enum_field_value" : 0,
     "name" : "android::internal::details::HasToStringFunction<std::vector<aidl::android::hardware::drm::SubSample>>::value"
    }
   ],
   "linker_set_key" : "_ZTIN7android8internal7details19HasToStringFunctionINSt3__16vectorIN4aidl7android8hardware3drm9SubSampleENS3_9allocatorIS9_EEEEE6$valueE",
   "name" : "android::internal::details::HasToStringFunction<std::vector<aidl::android::hardware::drm::SubSample, std::allocator<aidl::android::hardware::drm::SubSample>>>::(unnamed enum at frameworks/native/libs/binder/ndk/include_cpp/android/binder_to_string.h:89:5)",
   "referenced_type" : "_ZTIN7android8internal7details19HasToStringFunctionINSt3__16vectorIN4aidl7android8hardware3drm9SubSampleENS3_9allocatorIS9_EEEEE6$valueE",
   "self_type" : "_ZTIN7android8internal7details19HasToStringFunctionINSt3__16vectorIN4aidl7android8hardware3drm9SubSampleENS3_9allocatorIS9_EEEEE6$valueE",
   "size" : 4,
   "source_file" : "frameworks/native/libs/binder/ndk/include_cpp/android/binder_to_string.h",
   "underlying_type" : "_ZTIj"
  },
  {
   "alignment" : 4,
   "enum_fields" :
   [
    {
     "enum_field_value" : 0,
     "name" : "android::internal::details::HasToStringFunction<std::vector<unsigned char>>::value"
    }
   ],
   "linker_set_key" : "_ZTIN7android8internal7details19HasToStringFunctionINSt3__16vectorIhNS3_9allocatorIhEEEEE6$valueE",
   "name" : "android::internal::details::HasToStringFunction<std::vector<unsigned char, std::allocator<unsigned char>>>::(unnamed enum at frameworks/native/libs/binder/ndk/include_cpp/android/binder_to_string.h:89:5)",
   "referenced_type" : "_ZTIN7android8internal7details19HasToStringFunctionINSt3__16vectorIhNS3_9allocatorIhEEEEE6$valueE",
   "self_type" : "_ZTIN7android8internal7details19HasToStringFunctionINSt3__16vectorIhNS3_9allocatorIhEEEEE6$valueE",
   "size" : 4,
   "source_file" : "frameworks/native/libs/binder/ndk/include_cpp/android/binder_to_string.h",
   "underlying_type" : "_ZTIj"
  },
  {
   "alignment" : 4,
   "enum_fields" :
   [
    {
     "enum_field_value" : 0,
     "name" : "android::internal::details::HasToStringFunction<std::vector<int>>::value"
    }
   ],
   "linker_set_key" : "_ZTIN7android8internal7details19HasToStringFunctionINSt3__16vectorIiNS3_9allocatorIiEEEEE6$valueE",
   "name" : "android::internal::details::HasToStringFunction<std::vector<int, std::allocator<int>>>::(unnamed enum at frameworks/native/libs/binder/ndk/include_cpp/android/binder_to_string.h:89:5)",
   "referenced_type" : "_ZTIN7android8internal7details19HasToStringFunctionINSt3__16vectorIiNS3_9allocatorIiEEEEE6$valueE",
   "self_type" : "_ZTIN7android8internal7details19HasToStringFunctionINSt3__16vectorIiNS3_9allocatorIiEEEEE6$valueE",
   "size" : 4,
   "source_file" : "frameworks/native/libs/binder/ndk/include_cpp/android/binder_to_string.h",
   "underlying_type" : "_ZTIj"
  }
 ],
 "function_types" :
 [
  {
   "alignment" : 4,
   "linker_set_key" : "_ZTIFiP8AIBinderjPK7AParcelPS1_E",
   "name" : "int (AIBinder *, unsigned int, const AParcel *, AParcel *)",
   "parameters" :
   [
    {
     "referenced_type" : "_ZTIP8AIBinder"
    },
    {
     "referenced_type" : "_ZTIj"
    },
    {
     "referenced_type" : "_ZTIPK7AParcel"
    },
    {
     "referenced_type" : "_ZTIP7AParcel"
    }
   ],
   "referenced_type" : "_ZTIFiP8AIBinderjPK7AParcelPS1_E",
   "return_type" : "_ZTIi",
   "self_type" : "_ZTIFiP8AIBinderjPK7AParcelPS1_E",
   "source_file" : "frameworks/native/libs/binder/ndk/include_cpp/android/binder_interface_utils.h"
  }
 ],
 "functions" :
 [
  {
   "function_name" : "ndk::BnCInterface<aidl::android::hardware::drm::IDrmPlugin>::asBinder",
   "linker_set_key" : "_ZN3ndk12BnCInterfaceIN4aidl7android8hardware3drm10IDrmPluginEE8asBinderEv",
   "parameters" :
   [
    {
     "is_this_ptr" : true,
     "referenced_type" : "_ZTIPN3ndk12BnCInterfaceIN4aidl7android8hardware3drm10IDrmPluginEEE"
    }
   ],
   "return_type" : "_ZTIN3ndk10SpAIBinderE",
   "source_file" : "frameworks/native/libs/binder/ndk/include_cpp/android/binder_interface_utils.h"
  },
  {
   "function_name" : "ndk::BnCInterface<aidl::android::hardware::drm::IDrmFactory>::asBinder",
   "linker_set_key" : "_ZN3ndk12BnCInterfaceIN4aidl7android8hardware3drm11IDrmFactoryEE8asBinderEv",
   "parameters" :
   [
    {
     "is_this_ptr" : true,
     "referenced_type" : "_ZTIPN3ndk12BnCInterfaceIN4aidl7android8hardware3drm11IDrmFactoryEEE"
    }
   ],
   "return_type" : "_ZTIN3ndk10SpAIBinderE",
   "source_file" : "frameworks/native/libs/binder/ndk/include_cpp/android/binder_interface_utils.h"
  },
  {
   "function_name" : "ndk::BnCInterface<aidl::android::hardware::drm::ICryptoPlugin>::asBinder",
   "linker_set_key" : "_ZN3ndk12BnCInterfaceIN4aidl7android8hardware3drm13ICryptoPluginEE8asBinderEv",
   "parameters" :
   [
    {
     "is_this_ptr" : true,
     "referenced_type" : "_ZTIPN3ndk12BnCInterfaceIN4aidl7android8hardware3drm13ICryptoPluginEEE"
    }
   ],
   "return_type" : "_ZTIN3ndk10SpAIBinderE",
   "source_file" : "frameworks/native/libs/binder/ndk/include_cpp/android/binder_interface_utils.h"
  },
  {
   "function_name" : "ndk::BnCInterface<aidl::android::hardware::drm::IDrmPluginListener>::asBinder",
   "linker_set_key" : "_ZN3ndk12BnCInterfaceIN4aidl7android8hardware3drm18IDrmPluginListenerEE8asBinderEv",
   "parameters" :
   [
    {
     "is_this_ptr" : true,
     "referenced_type" : "_ZTIPN3ndk12BnCInterfaceIN4aidl7android8hardware3drm18IDrmPluginListenerEEE"
    }
   ],
   "return_type" : "_ZTIN3ndk10SpAIBinderE",
   "source_file" : "frameworks/native/libs/binder/ndk/include_cpp/android/binder_interface_utils.h"
  },
  {
   "function_name" : "ndk::BpCInterface<aidl::android::hardware::drm::IDrmPlugin>::asBinder",
   "linker_set_key" : "_ZN3ndk12BpCInterfaceIN4aidl7android8hardware3drm10IDrmPluginEE8asBinderEv",
   "parameters" :
   [
    {
     "is_this_ptr" : true,
     "referenced_type" : "_ZTIPN3ndk12BpCInterfaceIN4aidl7android8hardware3drm10IDrmPluginEEE"
    }
   ],
   "return_type" : "_ZTIN3ndk10SpAIBinderE",
   "source_file" : "frameworks/native/libs/binder/ndk/include_cpp/android/binder_interface_utils.h"
  },
  {
   "function_name" : "ndk::BpCInterface<aidl::android::hardware::drm::IDrmFactory>::asBinder",
   "linker_set_key" : "_ZN3ndk12BpCInterfaceIN4aidl7android8hardware3drm11IDrmFactoryEE8asBinderEv",
   "parameters" :
   [
    {
     "is_this_ptr" : true,
     "referenced_type" : "_ZTIPN3ndk12BpCInterfaceIN4aidl7android8hardware3drm11IDrmFactoryEEE"
    }
   ],
   "return_type" : "_ZTIN3ndk10SpAIBinderE",
   "source_file" : "frameworks/native/libs/binder/ndk/include_cpp/android/binder_interface_utils.h"
  },
  {
   "function_name" : "ndk::BpCInterface<aidl::android::hardware::drm::ICryptoPlugin>::asBinder",
   "linker_set_key" : "_ZN3ndk12BpCInterfaceIN4aidl7android8hardware3drm13ICryptoPluginEE8asBinderEv",
   "parameters" :
   [
    {
     "is_this_ptr" : true,
     "referenced_type" : "_ZTIPN3ndk12BpCInterfaceIN4aidl7android8hardware3drm13ICryptoPluginEEE"
    }
   ],
   "return_type" : "_ZTIN3ndk10SpAIBinderE",
   "source_file" : "frameworks/native/libs/binder/ndk/include_cpp/android/binder_interface_utils.h"
  },
  {
   "function_name" : "ndk::BpCInterface<aidl::android::hardware::drm::IDrmPluginListener>::asBinder",
   "linker_set_key" : "_ZN3ndk12BpCInterfaceIN4aidl7android8hardware3drm18IDrmPluginListenerEE8asBinderEv",
   "parameters" :
   [
    {
     "is_this_ptr" : true,
     "referenced_type" : "_ZTIPN3ndk12BpCInterfaceIN4aidl7android8hardware3drm18IDrmPluginListenerEEE"
    }
   ],
   "return_type" : "_ZTIN3ndk10SpAIBinderE",
   "source_file" : "frameworks/native/libs/binder/ndk/include_cpp/android/binder_interface_utils.h"
  },
  {
   "function_name" : "ndk::AParcel_readStdVectorParcelableElement",
   "linker_set_key" : "_ZN3ndk38AParcel_readStdVectorParcelableElementIN4aidl7android8hardware3drm10LogMessageEEEiPK7AParcelPvj",
   "parameters" :
   [
    {
     "referenced_type" : "_ZTIPK7AParcel"
    },
    {
     "referenced_type" : "_ZTIPv"
    },
    {
     "referenced_type" : "_ZTIj"
    }
   ],
   "return_type" : "_ZTIi",
   "source_file" : "frameworks/native/libs/binder/ndk/include_cpp/android/binder_parcel_utils.h",
   "template_args" :
   [
    "_ZTIN4aidl7android8hardware3drm10LogMessageE"
   ]
  },
  {
   "function_name" : "ndk::AParcel_readStdVectorParcelableElement",
   "linker_set_key" : "_ZN3ndk38AParcel_readStdVectorParcelableElementIN4aidl7android8hardware3drm10SecureStopEEEiPK7AParcelPvj",
   "parameters" :
   [
    {
     "referenced_type" : "_ZTIPK7AParcel"
    },
    {
     "referenced_type" : "_ZTIPv"
    },
    {
     "referenced_type" : "_ZTIj"
    }
   ],
   "return_type" : "_ZTIi",
   "source_file" : "frameworks/native/libs/binder/ndk/include_cpp/android/binder_parcel_utils.h",
   "template_args" :
   [
    "_ZTIN4aidl7android8hardware3drm10SecureStopE"
   ]
  },
  {
   "function_name" : "ndk::AParcel_readStdVectorParcelableElement",
   "linker_set_key" : "_ZN3ndk38AParcel_readStdVectorParcelableElementIN4aidl7android8hardware3drm12SecureStopIdEEEiPK7AParcelPvj",
   "parameters" :
   [
    {
     "referenced_type" : "_ZTIPK7AParcel"
    },
    {
     "referenced_type" : "_ZTIPv"
    },
    {
     "referenced_type" : "_ZTIj"
    }
   ],
   "return_type" : "_ZTIi",
   "source_file" : "frameworks/native/libs/binder/ndk/include_cpp/android/binder_parcel_utils.h",
   "template_args" :
   [
    "_ZTIN4aidl7android8hardware3drm12SecureStopIdE"
   ]
  },
  {
   "function_name" : "ndk::AParcel_readStdVectorParcelableElement",
   "linker_set_key" : "_ZN3ndk38AParcel_readStdVectorParcelableElementIN4aidl7android8hardware3drm14DrmMetricGroupEEEiPK7AParcelPvj",
   "parameters" :
   [
    {
     "referenced_type" : "_ZTIPK7AParcel"
    },
    {
     "referenced_type" : "_ZTIPv"
    },
    {
     "referenced_type" : "_ZTIj"
    }
   ],
   "return_type" : "_ZTIi",
   "source_file" : "frameworks/native/libs/binder/ndk/include_cpp/android/binder_parcel_utils.h",
   "template_args" :
   [
    "_ZTIN4aidl7android8hardware3drm14DrmMetricGroupE"
   ]
  },
  {
   "function_name" : "ndk::AParcel_readStdVectorParcelableElement",
   "linker_set_key" : "_ZN3ndk38AParcel_readStdVectorParcelableElementIN4aidl7android8hardware3drm19DrmMetricNamedValueEEEiPK7AParcelPvj",
   "parameters" :
   [
    {
     "referenced_type" : "_ZTIPK7AParcel"
    },
    {
     "referenced_type" : "_ZTIPv"
    },
    {
     "referenced_type" : "_ZTIj"
    }
   ],
   "return_type" : "_ZTIi",
   "source_file" : "frameworks/native/libs/binder/ndk/include_cpp/android/binder_parcel_utils.h",
   "template_args" :
   [
    "_ZTIN4aidl7android8hardware3drm19DrmMetricNamedValueE"
   ]
  },
  {
   "function_name" : "ndk::AParcel_readStdVectorParcelableElement",
   "linker_set_key" : "_ZN3ndk38AParcel_readStdVectorParcelableElementIN4aidl7android8hardware3drm20SupportedContentTypeEEEiPK7AParcelPvj",
   "parameters" :
   [
    {
     "referenced_type" : "_ZTIPK7AParcel"
    },
    {
     "referenced_type" : "_ZTIPv"
    },
    {
     "referenced_type" : "_ZTIj"
    }
   ],
   "return_type" : "_ZTIi",
   "source_file" : "frameworks/native/libs/binder/ndk/include_cpp/android/binder_parcel_utils.h",
   "template_args" :
   [
    "_ZTIN4aidl7android8hardware3drm20SupportedContentTypeE"
   ]
  },
  {
   "function_name" : "ndk::AParcel_readStdVectorParcelableElement",
   "linker_set_key" : "_ZN3ndk38AParcel_readStdVectorParcelableElementIN4aidl7android8hardware3drm4UuidEEEiPK7AParcelPvj",
   "parameters" :
   [
    {
     "referenced_type" : "_ZTIPK7AParcel"
    },
    {
     "referenced_type" : "_ZTIPv"
    },
    {
     "referenced_type" : "_ZTIj"
    }
   ],
   "return_type" : "_ZTIi",
   "source_file" : "frameworks/native/libs/binder/ndk/include_cpp/android/binder_parcel_utils.h",
   "template_args" :
   [
    "_ZTIN4aidl7android8hardware3drm4UuidE"
   ]
  },
  {
   "function_name" : "ndk::AParcel_readStdVectorParcelableElement",
   "linker_set_key" : "_ZN3ndk38AParcel_readStdVectorParcelableElementIN4aidl7android8hardware3drm8KeySetIdEEEiPK7AParcelPvj",
   "parameters" :
   [
    {
     "referenced_type" : "_ZTIPK7AParcel"
    },
    {
     "referenced_type" : "_ZTIPv"
    },
    {
     "referenced_type" : "_ZTIj"
    }
   ],
   "return_type" : "_ZTIi",
   "source_file" : "frameworks/native/libs/binder/ndk/include_cpp/android/binder_parcel_utils.h",
   "template_args" :
   [
    "_ZTIN4aidl7android8hardware3drm8KeySetIdE"
   ]
  },
  {
   "function_name" : "ndk::AParcel_readStdVectorParcelableElement",
   "linker_set_key" : "_ZN3ndk38AParcel_readStdVectorParcelableElementIN4aidl7android8hardware3drm8KeyValueEEEiPK7AParcelPvj",
   "parameters" :
   [
    {
     "referenced_type" : "_ZTIPK7AParcel"
    },
    {
     "referenced_type" : "_ZTIPv"
    },
    {
     "referenced_type" : "_ZTIj"
    }
   ],
   "return_type" : "_ZTIi",
   "source_file" : "frameworks/native/libs/binder/ndk/include_cpp/android/binder_parcel_utils.h",
   "template_args" :
   [
    "_ZTIN4aidl7android8hardware3drm8KeyValueE"
   ]
  },
  {
   "function_name" : "ndk::AParcel_readStdVectorParcelableElement",
   "linker_set_key" : "_ZN3ndk38AParcel_readStdVectorParcelableElementIN4aidl7android8hardware3drm9DrmMetricEEEiPK7AParcelPvj",
   "parameters" :
   [
    {
     "referenced_type" : "_ZTIPK7AParcel"
    },
    {
     "referenced_type" : "_ZTIPv"
    },
    {
     "referenced_type" : "_ZTIj"
    }
   ],
   "return_type" : "_ZTIi",
   "source_file" : "frameworks/native/libs/binder/ndk/include_cpp/android/binder_parcel_utils.h",
   "template_args" :
   [
    "_ZTIN4aidl7android8hardware3drm9DrmMetricE"
   ]
  },
  {
   "function_name" : "ndk::AParcel_readStdVectorParcelableElement",
   "linker_set_key" : "_ZN3ndk38AParcel_readStdVectorParcelableElementIN4aidl7android8hardware3drm9KeyStatusEEEiPK7AParcelPvj",
   "parameters" :
   [
    {
     "referenced_type" : "_ZTIPK7AParcel"
    },
    {
     "referenced_type" : "_ZTIPv"
    },
    {
     "referenced_type" : "_ZTIj"
    }
   ],
   "return_type" : "_ZTIi",
   "source_file" : "frameworks/native/libs/binder/ndk/include_cpp/android/binder_parcel_utils.h",
   "template_args" :
   [
    "_ZTIN4aidl7android8hardware3drm9KeyStatusE"
   ]
  },
  {
   "function_name" : "ndk::AParcel_readStdVectorParcelableElement",
   "linker_set_key" : "_ZN3ndk38AParcel_readStdVectorParcelableElementIN4aidl7android8hardware3drm9SubSampleEEEiPK7AParcelPvj",
   "parameters" :
   [
    {
     "referenced_type" : "_ZTIPK7AParcel"
    },
    {
     "referenced_type" : "_ZTIPv"
    },
    {
     "referenced_type" : "_ZTIj"
    }
   ],
   "return_type" : "_ZTIi",
   "source_file" : "frameworks/native/libs/binder/ndk/include_cpp/android/binder_parcel_utils.h",
   "template_args" :
   [
    "_ZTIN4aidl7android8hardware3drm9SubSampleE"
   ]
  },
  {
   "function_name" : "ndk::AParcel_writeStdVectorParcelableElement",
   "linker_set_key" : "_ZN3ndk39AParcel_writeStdVectorParcelableElementIN4aidl7android8hardware3drm10LogMessageEEEiP7AParcelPKvj",
   "parameters" :
   [
    {
     "referenced_type" : "_ZTIP7AParcel"
    },
    {
     "referenced_type" : "_ZTIPKv"
    },
    {
     "referenced_type" : "_ZTIj"
    }
   ],
   "return_type" : "_ZTIi",
   "source_file" : "frameworks/native/libs/binder/ndk/include_cpp/android/binder_parcel_utils.h",
   "template_args" :
   [
    "_ZTIN4aidl7android8hardware3drm10LogMessageE"
   ]
  },
  {
   "function_name" : "ndk::AParcel_writeStdVectorParcelableElement",
   "linker_set_key" : "_ZN3ndk39AParcel_writeStdVectorParcelableElementIN4aidl7android8hardware3drm10SecureStopEEEiP7AParcelPKvj",
   "parameters" :
   [
    {
     "referenced_type" : "_ZTIP7AParcel"
    },
    {
     "referenced_type" : "_ZTIPKv"
    },
    {
     "referenced_type" : "_ZTIj"
    }
   ],
   "return_type" : "_ZTIi",
   "source_file" : "frameworks/native/libs/binder/ndk/include_cpp/android/binder_parcel_utils.h",
   "template_args" :
   [
    "_ZTIN4aidl7android8hardware3drm10SecureStopE"
   ]
  },
  {
   "function_name" : "ndk::AParcel_writeStdVectorParcelableElement",
   "linker_set_key" : "_ZN3ndk39AParcel_writeStdVectorParcelableElementIN4aidl7android8hardware3drm12SecureStopIdEEEiP7AParcelPKvj",
   "parameters" :
   [
    {
     "referenced_type" : "_ZTIP7AParcel"
    },
    {
     "referenced_type" : "_ZTIPKv"
    },
    {
     "referenced_type" : "_ZTIj"
    }
   ],
   "return_type" : "_ZTIi",
   "source_file" : "frameworks/native/libs/binder/ndk/include_cpp/android/binder_parcel_utils.h",
   "template_args" :
   [
    "_ZTIN4aidl7android8hardware3drm12SecureStopIdE"
   ]
  },
  {
   "function_name" : "ndk::AParcel_writeStdVectorParcelableElement",
   "linker_set_key" : "_ZN3ndk39AParcel_writeStdVectorParcelableElementIN4aidl7android8hardware3drm14DrmMetricGroupEEEiP7AParcelPKvj",
   "parameters" :
   [
    {
     "referenced_type" : "_ZTIP7AParcel"
    },
    {
     "referenced_type" : "_ZTIPKv"
    },
    {
     "referenced_type" : "_ZTIj"
    }
   ],
   "return_type" : "_ZTIi",
   "source_file" : "frameworks/native/libs/binder/ndk/include_cpp/android/binder_parcel_utils.h",
   "template_args" :
   [
    "_ZTIN4aidl7android8hardware3drm14DrmMetricGroupE"
   ]
  },
  {
   "function_name" : "ndk::AParcel_writeStdVectorParcelableElement",
   "linker_set_key" : "_ZN3ndk39AParcel_writeStdVectorParcelableElementIN4aidl7android8hardware3drm19DrmMetricNamedValueEEEiP7AParcelPKvj",
   "parameters" :
   [
    {
     "referenced_type" : "_ZTIP7AParcel"
    },
    {
     "referenced_type" : "_ZTIPKv"
    },
    {
     "referenced_type" : "_ZTIj"
    }
   ],
   "return_type" : "_ZTIi",
   "source_file" : "frameworks/native/libs/binder/ndk/include_cpp/android/binder_parcel_utils.h",
   "template_args" :
   [
    "_ZTIN4aidl7android8hardware3drm19DrmMetricNamedValueE"
   ]
  },
  {
   "function_name" : "ndk::AParcel_writeStdVectorParcelableElement",
   "linker_set_key" : "_ZN3ndk39AParcel_writeStdVectorParcelableElementIN4aidl7android8hardware3drm20SupportedContentTypeEEEiP7AParcelPKvj",
   "parameters" :
   [
    {
     "referenced_type" : "_ZTIP7AParcel"
    },
    {
     "referenced_type" : "_ZTIPKv"
    },
    {
     "referenced_type" : "_ZTIj"
    }
   ],
   "return_type" : "_ZTIi",
   "source_file" : "frameworks/native/libs/binder/ndk/include_cpp/android/binder_parcel_utils.h",
   "template_args" :
   [
    "_ZTIN4aidl7android8hardware3drm20SupportedContentTypeE"
   ]
  },
  {
   "function_name" : "ndk::AParcel_writeStdVectorParcelableElement",
   "linker_set_key" : "_ZN3ndk39AParcel_writeStdVectorParcelableElementIN4aidl7android8hardware3drm4UuidEEEiP7AParcelPKvj",
   "parameters" :
   [
    {
     "referenced_type" : "_ZTIP7AParcel"
    },
    {
     "referenced_type" : "_ZTIPKv"
    },
    {
     "referenced_type" : "_ZTIj"
    }
   ],
   "return_type" : "_ZTIi",
   "source_file" : "frameworks/native/libs/binder/ndk/include_cpp/android/binder_parcel_utils.h",
   "template_args" :
   [
    "_ZTIN4aidl7android8hardware3drm4UuidE"
   ]
  },
  {
   "function_name" : "ndk::AParcel_writeStdVectorParcelableElement",
   "linker_set_key" : "_ZN3ndk39AParcel_writeStdVectorParcelableElementIN4aidl7android8hardware3drm8KeySetIdEEEiP7AParcelPKvj",
   "parameters" :
   [
    {
     "referenced_type" : "_ZTIP7AParcel"
    },
    {
     "referenced_type" : "_ZTIPKv"
    },
    {
     "referenced_type" : "_ZTIj"
    }
   ],
   "return_type" : "_ZTIi",
   "source_file" : "frameworks/native/libs/binder/ndk/include_cpp/android/binder_parcel_utils.h",
   "template_args" :
   [
    "_ZTIN4aidl7android8hardware3drm8KeySetIdE"
   ]
  },
  {
   "function_name" : "ndk::AParcel_writeStdVectorParcelableElement",
   "linker_set_key" : "_ZN3ndk39AParcel_writeStdVectorParcelableElementIN4aidl7android8hardware3drm8KeyValueEEEiP7AParcelPKvj",
   "parameters" :
   [
    {
     "referenced_type" : "_ZTIP7AParcel"
    },
    {
     "referenced_type" : "_ZTIPKv"
    },
    {
     "referenced_type" : "_ZTIj"
    }
   ],
   "return_type" : "_ZTIi",
   "source_file" : "frameworks/native/libs/binder/ndk/include_cpp/android/binder_parcel_utils.h",
   "template_args" :
   [
    "_ZTIN4aidl7android8hardware3drm8KeyValueE"
   ]
  },
  {
   "function_name" : "ndk::AParcel_writeStdVectorParcelableElement",
   "linker_set_key" : "_ZN3ndk39AParcel_writeStdVectorParcelableElementIN4aidl7android8hardware3drm9DrmMetricEEEiP7AParcelPKvj",
   "parameters" :
   [
    {
     "referenced_type" : "_ZTIP7AParcel"
    },
    {
     "referenced_type" : "_ZTIPKv"
    },
    {
     "referenced_type" : "_ZTIj"
    }
   ],
   "return_type" : "_ZTIi",
   "source_file" : "frameworks/native/libs/binder/ndk/include_cpp/android/binder_parcel_utils.h",
   "template_args" :
   [
    "_ZTIN4aidl7android8hardware3drm9DrmMetricE"
   ]
  },
  {
   "function_name" : "ndk::AParcel_writeStdVectorParcelableElement",
   "linker_set_key" : "_ZN3ndk39AParcel_writeStdVectorParcelableElementIN4aidl7android8hardware3drm9KeyStatusEEEiP7AParcelPKvj",
   "parameters" :
   [
    {
     "referenced_type" : "_ZTIP7AParcel"
    },
    {
     "referenced_type" : "_ZTIPKv"
    },
    {
     "referenced_type" : "_ZTIj"
    }
   ],
   "return_type" : "_ZTIi",
   "source_file" : "frameworks/native/libs/binder/ndk/include_cpp/android/binder_parcel_utils.h",
   "template_args" :
   [
    "_ZTIN4aidl7android8hardware3drm9KeyStatusE"
   ]
  },
  {
   "function_name" : "ndk::AParcel_writeStdVectorParcelableElement",
   "linker_set_key" : "_ZN3ndk39AParcel_writeStdVectorParcelableElementIN4aidl7android8hardware3drm9SubSampleEEEiP7AParcelPKvj",
   "parameters" :
   [
    {
     "referenced_type" : "_ZTIP7AParcel"
    },
    {
     "referenced_type" : "_ZTIPKv"
    },
    {
     "referenced_type" : "_ZTIj"
    }
   ],
   "return_type" : "_ZTIi",
   "source_file" : "frameworks/native/libs/binder/ndk/include_cpp/android/binder_parcel_utils.h",
   "template_args" :
   [
    "_ZTIN4aidl7android8hardware3drm9SubSampleE"
   ]
  },
  {
   "function_name" : "aidl::android::hardware::drm::HdcpLevels::readFromParcel",
   "linker_set_key" : "_ZN4aidl7android8hardware3drm10HdcpLevels14readFromParcelEPK7AParcel",
   "parameters" :
   [
    {
     "is_this_ptr" : true,
     "referenced_type" : "_ZTIPN4aidl7android8hardware3drm10HdcpLevelsE"
    },
    {
     "referenced_type" : "_ZTIPK7AParcel"
    }
   ],
   "return_type" : "_ZTIi",
   "source_file" : "out/soong/.intermediates/hardware/interfaces/drm/aidl/android.hardware.drm-V1-ndk-source/gen/include/aidl/android/hardware/drm/HdcpLevels.h"
  },
  {
   "function_name" : "aidl::android::hardware::drm::IDrmPlugin::fromBinder",
   "linker_set_key" : "_ZN4aidl7android8hardware3drm10IDrmPlugin10fromBinderERKN3ndk10SpAIBinderE",
   "parameters" :
   [
    {
     "referenced_type" : "_ZTIRKN3ndk10SpAIBinderE"
    }
   ],
   "return_type" : "_ZTINSt3__110shared_ptrIN4aidl7android8hardware3drm10IDrmPluginEEE",
   "source_file" : "out/soong/.intermediates/hardware/interfaces/drm/aidl/android.hardware.drm-V1-ndk-source/gen/include/aidl/android/hardware/drm/IDrmPlugin.h"
  },
  {
   "function_name" : "aidl::android::hardware::drm::IDrmPlugin::writeToParcel",
   "linker_set_key" : "_ZN4aidl7android8hardware3drm10IDrmPlugin13writeToParcelEP7AParcelRKNSt3__110shared_ptrIS3_EE",
   "parameters" :
   [
    {
     "referenced_type" : "_ZTIP7AParcel"
    },
    {
     "referenced_type" : "_ZTIRKNSt3__110shared_ptrIN4aidl7android8hardware3drm10IDrmPluginEEE"
    }
   ],
   "return_type" : "_ZTIi",
   "source_file" : "out/soong/.intermediates/hardware/interfaces/drm/aidl/android.hardware.drm-V1-ndk-source/gen/include/aidl/android/hardware/drm/IDrmPlugin.h"
  },
  {
   "function_name" : "aidl::android::hardware::drm::IDrmPlugin::getDefaultImpl",
   "linker_set_key" : "_ZN4aidl7android8hardware3drm10IDrmPlugin14getDefaultImplEv",
   "return_type" : "_ZTIRKNSt3__110shared_ptrIN4aidl7android8hardware3drm10IDrmPluginEEE",
   "source_file" : "out/soong/.intermediates/hardware/interfaces/drm/aidl/android.hardware.drm-V1-ndk-source/gen/include/aidl/android/hardware/drm/IDrmPlugin.h"
  },
  {
   "function_name" : "aidl::android::hardware::drm::IDrmPlugin::readFromParcel",
   "linker_set_key" : "_ZN4aidl7android8hardware3drm10IDrmPlugin14readFromParcelEPK7AParcelPNSt3__110shared_ptrIS3_EE",
   "parameters" :
   [
    {
     "referenced_type" : "_ZTIPK7AParcel"
    },
    {
     "referenced_type" : "_ZTIPNSt3__110shared_ptrIN4aidl7android8hardware3drm10IDrmPluginEEE"
    }
   ],
   "return_type" : "_ZTIi",
   "source_file" : "out/soong/.intermediates/hardware/interfaces/drm/aidl/android.hardware.drm-V1-ndk-source/gen/include/aidl/android/hardware/drm/IDrmPlugin.h"
  },
  {
   "function_name" : "aidl::android::hardware::drm::IDrmPlugin::setDefaultImpl",
   "linker_set_key" : "_ZN4aidl7android8hardware3drm10IDrmPlugin14setDefaultImplERKNSt3__110shared_ptrIS3_EE",
   "parameters" :
   [
    {
     "referenced_type" : "_ZTIRKNSt3__110shared_ptrIN4aidl7android8hardware3drm10IDrmPluginEEE"
    }
   ],
   "return_type" : "_ZTIb",
   "source_file" : "out/soong/.intermediates/hardware/interfaces/drm/aidl/android.hardware.drm-V1-ndk-source/gen/include/aidl/android/hardware/drm/IDrmPlugin.h"
  },
  {
   "function_name" : "aidl::android::hardware::drm::IDrmPlugin::IDrmPlugin",
   "linker_set_key" : "_ZN4aidl7android8hardware3drm10IDrmPluginC2Ev",
   "parameters" :
   [
    {
     "is_this_ptr" : true,
     "referenced_type" : "_ZTIPN4aidl7android8hardware3drm10IDrmPluginE"
    }
   ],
   "return_type" : "_ZTIv",
   "source_file" : "out/soong/.intermediates/hardware/interfaces/drm/aidl/android.hardware.drm-V1-ndk-source/gen/include/aidl/android/hardware/drm/IDrmPlugin.h"
  },
  {
   "function_name" : "aidl::android::hardware::drm::IDrmPlugin::~IDrmPlugin",
   "linker_set_key" : "_ZN4aidl7android8hardware3drm10IDrmPluginD0Ev",
   "parameters" :
   [
    {
     "is_this_ptr" : true,
     "referenced_type" : "_ZTIPN4aidl7android8hardware3drm10IDrmPluginE"
    }
   ],
   "return_type" : "_ZTIv",
   "source_file" : "out/soong/.intermediates/hardware/interfaces/drm/aidl/android.hardware.drm-V1-ndk-source/gen/include/aidl/android/hardware/drm/IDrmPlugin.h"
  },
  {
   "function_name" : "aidl::android::hardware::drm::IDrmPlugin::~IDrmPlugin",
   "linker_set_key" : "_ZN4aidl7android8hardware3drm10IDrmPluginD1Ev",
   "parameters" :
   [
    {
     "is_this_ptr" : true,
     "referenced_type" : "_ZTIPN4aidl7android8hardware3drm10IDrmPluginE"
    }
   ],
   "return_type" : "_ZTIv",
   "source_file" : "out/soong/.intermediates/hardware/interfaces/drm/aidl/android.hardware.drm-V1-ndk-source/gen/include/aidl/android/hardware/drm/IDrmPlugin.h"
  },
  {
   "function_name" : "aidl::android::hardware::drm::IDrmPlugin::~IDrmPlugin",
   "linker_set_key" : "_ZN4aidl7android8hardware3drm10IDrmPluginD2Ev",
   "parameters" :
   [
    {
     "is_this_ptr" : true,
     "referenced_type" : "_ZTIPN4aidl7android8hardware3drm10IDrmPluginE"
    }
   ],
   "return_type" : "_ZTIv",
   "source_file" : "out/soong/.intermediates/hardware/interfaces/drm/aidl/android.hardware.drm-V1-ndk-source/gen/include/aidl/android/hardware/drm/IDrmPlugin.h"
  },
  {
   "function_name" : "aidl::android::hardware::drm::KeyRequest::readFromParcel",
   "linker_set_key" : "_ZN4aidl7android8hardware3drm10KeyRequest14readFromParcelEPK7AParcel",
   "parameters" :
   [
    {
     "is_this_ptr" : true,
     "referenced_type" : "_ZTIPN4aidl7android8hardware3drm10KeyRequestE"
    },
    {
     "referenced_type" : "_ZTIPK7AParcel"
    }
   ],
   "return_type" : "_ZTIi",
   "source_file" : "out/soong/.intermediates/hardware/interfaces/drm/aidl/android.hardware.drm-V1-ndk-source/gen/include/aidl/android/hardware/drm/KeyRequest.h"
  },
  {
   "function_name" : "aidl::android::hardware::drm::LogMessage::readFromParcel",
   "linker_set_key" : "_ZN4aidl7android8hardware3drm10LogMessage14readFromParcelEPK7AParcel",
   "parameters" :
   [
    {
     "is_this_ptr" : true,
     "referenced_type" : "_ZTIPN4aidl7android8hardware3drm10LogMessageE"
    },
    {
     "referenced_type" : "_ZTIPK7AParcel"
    }
   ],
   "return_type" : "_ZTIi",
   "source_file" : "out/soong/.intermediates/hardware/interfaces/drm/aidl/android.hardware.drm-V1-ndk-source/gen/include/aidl/android/hardware/drm/LogMessage.h"
  },
  {
   "function_name" : "aidl::android::hardware::drm::OpaqueData::readFromParcel",
   "linker_set_key" : "_ZN4aidl7android8hardware3drm10OpaqueData14readFromParcelEPK7AParcel",
   "parameters" :
   [
    {
     "is_this_ptr" : true,
     "referenced_type" : "_ZTIPN4aidl7android8hardware3drm10OpaqueDataE"
    },
    {
     "referenced_type" : "_ZTIPK7AParcel"
    }
   ],
   "return_type" : "_ZTIi",
   "source_file" : "out/soong/.intermediates/hardware/interfaces/drm/aidl/android.hardware.drm-V1-ndk-source/gen/include/aidl/android/hardware/drm/OpaqueData.h"
  },
  {
   "function_name" : "aidl::android::hardware::drm::SecureStop::readFromParcel",
   "linker_set_key" : "_ZN4aidl7android8hardware3drm10SecureStop14readFromParcelEPK7AParcel",
   "parameters" :
   [
    {
     "is_this_ptr" : true,
     "referenced_type" : "_ZTIPN4aidl7android8hardware3drm10SecureStopE"
    },
    {
     "referenced_type" : "_ZTIPK7AParcel"
    }
   ],
   "return_type" : "_ZTIi",
   "source_file" : "out/soong/.intermediates/hardware/interfaces/drm/aidl/android.hardware.drm-V1-ndk-source/gen/include/aidl/android/hardware/drm/SecureStop.h"
  },
  {
   "access" : "protected",
   "function_name" : "aidl::android::hardware::drm::BnDrmPlugin::createBinder",
   "linker_set_key" : "_ZN4aidl7android8hardware3drm11BnDrmPlugin12createBinderEv",
   "parameters" :
   [
    {
     "is_this_ptr" : true,
     "referenced_type" : "_ZTIPN4aidl7android8hardware3drm11BnDrmPluginE"
    }
   ],
   "return_type" : "_ZTIN3ndk10SpAIBinderE",
   "source_file" : "out/soong/.intermediates/hardware/interfaces/drm/aidl/android.hardware.drm-V1-ndk-source/gen/include/aidl/android/hardware/drm/BnDrmPlugin.h"
  },
  {
   "function_name" : "aidl::android::hardware::drm::BnDrmPlugin::getInterfaceHash",
   "linker_set_key" : "_ZN4aidl7android8hardware3drm11BnDrmPlugin16getInterfaceHashEPNSt3__112basic_stringIcNS4_11char_traitsIcEENS4_9allocatorIcEEEE",
   "parameters" :
   [
    {
     "is_this_ptr" : true,
     "referenced_type" : "_ZTIPN4aidl7android8hardware3drm11BnDrmPluginE"
    },
    {
     "referenced_type" : "_ZTIPNSt3__112basic_stringIcNS_11char_traitsIcEENS_9allocatorIcEEEE"
    }
   ],
   "return_type" : "_ZTIN3ndk13ScopedAStatusE",
   "source_file" : "out/soong/.intermediates/hardware/interfaces/drm/aidl/android.hardware.drm-V1-ndk-source/gen/include/aidl/android/hardware/drm/BnDrmPlugin.h"
  },
  {
   "function_name" : "aidl::android::hardware::drm::BnDrmPlugin::getInterfaceVersion",
   "linker_set_key" : "_ZN4aidl7android8hardware3drm11BnDrmPlugin19getInterfaceVersionEPi",
   "parameters" :
   [
    {
     "is_this_ptr" : true,
     "referenced_type" : "_ZTIPN4aidl7android8hardware3drm11BnDrmPluginE"
    },
    {
     "referenced_type" : "_ZTIPi"
    }
   ],
   "return_type" : "_ZTIN3ndk13ScopedAStatusE",
   "source_file" : "out/soong/.intermediates/hardware/interfaces/drm/aidl/android.hardware.drm-V1-ndk-source/gen/include/aidl/android/hardware/drm/BnDrmPlugin.h"
  },
  {
   "function_name" : "aidl::android::hardware::drm::BnDrmPlugin::BnDrmPlugin",
   "linker_set_key" : "_ZN4aidl7android8hardware3drm11BnDrmPluginC2Ev",
   "parameters" :
   [
    {
     "is_this_ptr" : true,
     "referenced_type" : "_ZTIPN4aidl7android8hardware3drm11BnDrmPluginE"
    }
   ],
   "return_type" : "_ZTIv",
   "source_file" : "out/soong/.intermediates/hardware/interfaces/drm/aidl/android.hardware.drm-V1-ndk-source/gen/include/aidl/android/hardware/drm/BnDrmPlugin.h"
  },
  {
   "function_name" : "aidl::android::hardware::drm::BnDrmPlugin::~BnDrmPlugin",
   "linker_set_key" : "_ZN4aidl7android8hardware3drm11BnDrmPluginD0Ev",
   "parameters" :
   [
    {
     "is_this_ptr" : true,
     "referenced_type" : "_ZTIPN4aidl7android8hardware3drm11BnDrmPluginE"
    }
   ],
   "return_type" : "_ZTIv",
   "source_file" : "out/soong/.intermediates/hardware/interfaces/drm/aidl/android.hardware.drm-V1-ndk-source/gen/include/aidl/android/hardware/drm/BnDrmPlugin.h"
  },
  {
   "function_name" : "aidl::android::hardware::drm::BnDrmPlugin::~BnDrmPlugin",
   "linker_set_key" : "_ZN4aidl7android8hardware3drm11BnDrmPluginD1Ev",
   "parameters" :
   [
    {
     "is_this_ptr" : true,
     "referenced_type" : "_ZTIPN4aidl7android8hardware3drm11BnDrmPluginE"
    }
   ],
   "return_type" : "_ZTIv",
   "source_file" : "out/soong/.intermediates/hardware/interfaces/drm/aidl/android.hardware.drm-V1-ndk-source/gen/include/aidl/android/hardware/drm/BnDrmPlugin.h"
  },
  {
   "function_name" : "aidl::android::hardware::drm::BnDrmPlugin::~BnDrmPlugin",
   "linker_set_key" : "_ZN4aidl7android8hardware3drm11BnDrmPluginD2Ev",
   "parameters" :
   [
    {
     "is_this_ptr" : true,
     "referenced_type" : "_ZTIPN4aidl7android8hardware3drm11BnDrmPluginE"
    }
   ],
   "return_type" : "_ZTIv",
   "source_file" : "out/soong/.intermediates/hardware/interfaces/drm/aidl/android.hardware.drm-V1-ndk-source/gen/include/aidl/android/hardware/drm/BnDrmPlugin.h"
  },
  {
   "function_name" : "aidl::android::hardware::drm::BpDrmPlugin::getMetrics",
   "linker_set_key" : "_ZN4aidl7android8hardware3drm11BpDrmPlugin10getMetricsEPNSt3__16vectorINS2_14DrmMetricGroupENS4_9allocatorIS6_EEEE",
   "parameters" :
   [
    {
     "is_this_ptr" : true,
     "referenced_type" : "_ZTIPN4aidl7android8hardware3drm11BpDrmPluginE"
    },
    {
     "referenced_type" : "_ZTIPNSt3__16vectorIN4aidl7android8hardware3drm14DrmMetricGroupENS_9allocatorIS5_EEEE"
    }
   ],
   "return_type" : "_ZTIN3ndk13ScopedAStatusE",
   "source_file" : "out/soong/.intermediates/hardware/interfaces/drm/aidl/android.hardware.drm-V1-ndk-source/gen/include/aidl/android/hardware/drm/BpDrmPlugin.h"
  },
  {
   "function_name" : "aidl::android::hardware::drm::BpDrmPlugin::removeKeys",
   "linker_set_key" : "_ZN4aidl7android8hardware3drm11BpDrmPlugin10removeKeysERKNSt3__16vectorIhNS4_9allocatorIhEEEE",
   "parameters" :
   [
    {
     "is_this_ptr" : true,
     "referenced_type" : "_ZTIPN4aidl7android8hardware3drm11BpDrmPluginE"
    },
    {
     "referenced_type" : "_ZTIRKNSt3__16vectorIhNS_9allocatorIhEEEE"
    }
   ],
   "return_type" : "_ZTIN3ndk13ScopedAStatusE",
   "source_file" : "out/soong/.intermediates/hardware/interfaces/drm/aidl/android.hardware.drm-V1-ndk-source/gen/include/aidl/android/hardware/drm/BpDrmPlugin.h"
  },
  {
   "function_name" : "aidl::android::hardware::drm::BpDrmPlugin::openSession",
   "linker_set_key" : "_ZN4aidl7android8hardware3drm11BpDrmPlugin11openSessionENS2_13SecurityLevelEPNSt3__16vectorIhNS5_9allocatorIhEEEE",
   "parameters" :
   [
    {
     "is_this_ptr" : true,
     "referenced_type" : "_ZTIPN4aidl7android8hardware3drm11BpDrmPluginE"
    },
    {
     "referenced_type" : "_ZTIN4aidl7android8hardware3drm13SecurityLevelE"
    },
    {
     "referenced_type" : "_ZTIPNSt3__16vectorIhNS_9allocatorIhEEEE"
    }
   ],
   "return_type" : "_ZTIN3ndk13ScopedAStatusE",
   "source_file" : "out/soong/.intermediates/hardware/interfaces/drm/aidl/android.hardware.drm-V1-ndk-source/gen/include/aidl/android/hardware/drm/BpDrmPlugin.h"
  },
  {
   "function_name" : "aidl::android::hardware::drm::BpDrmPlugin::restoreKeys",
   "linker_set_key" : "_ZN4aidl7android8hardware3drm11BpDrmPlugin11restoreKeysERKNSt3__16vectorIhNS4_9allocatorIhEEEERKNS2_8KeySetIdE",
   "parameters" :
   [
    {
     "is_this_ptr" : true,
     "referenced_type" : "_ZTIPN4aidl7android8hardware3drm11BpDrmPluginE"
    },
    {
     "referenced_type" : "_ZTIRKNSt3__16vectorIhNS_9allocatorIhEEEE"
    },
    {
     "referenced_type" : "_ZTIRKN4aidl7android8hardware3drm8KeySetIdE"
    }
   ],
   "return_type" : "_ZTIN3ndk13ScopedAStatusE",
   "source_file" : "out/soong/.intermediates/hardware/interfaces/drm/aidl/android.hardware.drm-V1-ndk-source/gen/include/aidl/android/hardware/drm/BpDrmPlugin.h"
  },
  {
   "function_name" : "aidl::android::hardware::drm::BpDrmPlugin::setListener",
   "linker_set_key" : "_ZN4aidl7android8hardware3drm11BpDrmPlugin11setListenerERKNSt3__110shared_ptrINS2_18IDrmPluginListenerEEE",
   "parameters" :
   [
    {
     "is_this_ptr" : true,
     "referenced_type" : "_ZTIPN4aidl7android8hardware3drm11BpDrmPluginE"
    },
    {
     "referenced_type" : "_ZTIRKNSt3__110shared_ptrIN4aidl7android8hardware3drm18IDrmPluginListenerEEE"
    }
   ],
   "return_type" : "_ZTIN3ndk13ScopedAStatusE",
   "source_file" : "out/soong/.intermediates/hardware/interfaces/drm/aidl/android.hardware.drm-V1-ndk-source/gen/include/aidl/android/hardware/drm/BpDrmPlugin.h"
  },
  {
   "function_name" : "aidl::android::hardware::drm::BpDrmPlugin::closeSession",
   "linker_set_key" : "_ZN4aidl7android8hardware3drm11BpDrmPlugin12closeSessionERKNSt3__16vectorIhNS4_9allocatorIhEEEE",
   "parameters" :
   [
    {
     "is_this_ptr" : true,
     "referenced_type" : "_ZTIPN4aidl7android8hardware3drm11BpDrmPluginE"
    },
    {
     "referenced_type" : "_ZTIRKNSt3__16vectorIhNS_9allocatorIhEEEE"
    }
   ],
   "return_type" : "_ZTIN3ndk13ScopedAStatusE",
   "source_file" : "out/soong/.intermediates/hardware/interfaces/drm/aidl/android.hardware.drm-V1-ndk-source/gen/include/aidl/android/hardware/drm/BpDrmPlugin.h"
  },
  {
   "function_name" : "aidl::android::hardware::drm::BpDrmPlugin::getHdcpLevels",
   "linker_set_key" : "_ZN4aidl7android8hardware3drm11BpDrmPlugin13getHdcpLevelsEPNS2_10HdcpLevelsE",
   "parameters" :
   [
    {
     "is_this_ptr" : true,
     "referenced_type" : "_ZTIPN4aidl7android8hardware3drm11BpDrmPluginE"
    },
    {
     "referenced_type" : "_ZTIPN4aidl7android8hardware3drm10HdcpLevelsE"
    }
   ],
   "return_type" : "_ZTIN3ndk13ScopedAStatusE",
   "source_file" : "out/soong/.intermediates/hardware/interfaces/drm/aidl/android.hardware.drm-V1-ndk-source/gen/include/aidl/android/hardware/drm/BpDrmPlugin.h"
  },
  {
   "function_name" : "aidl::android::hardware::drm::BpDrmPlugin::getKeyRequest",
   "linker_set_key" : "_ZN4aidl7android8hardware3drm11BpDrmPlugin13getKeyRequestERKNSt3__16vectorIhNS4_9allocatorIhEEEESA_RKNS4_12basic_stringIcNS4_11char_traitsIcEENS6_IcEEEENS2_7KeyTypeERKNS5_INS2_8KeyValueENS6_ISJ_EEEEPNS2_10KeyRequestE",
   "parameters" :
   [
    {
     "is_this_ptr" : true,
     "referenced_type" : "_ZTIPN4aidl7android8hardware3drm11BpDrmPluginE"
    },
    {
     "referenced_type" : "_ZTIRKNSt3__16vectorIhNS_9allocatorIhEEEE"
    },
    {
     "referenced_type" : "_ZTIRKNSt3__16vectorIhNS_9allocatorIhEEEE"
    },
    {
     "referenced_type" : "_ZTIRKNSt3__112basic_stringIcNS_11char_traitsIcEENS_9allocatorIcEEEE"
    },
    {
     "referenced_type" : "_ZTIN4aidl7android8hardware3drm7KeyTypeE"
    },
    {
     "referenced_type" : "_ZTIRKNSt3__16vectorIN4aidl7android8hardware3drm8KeyValueENS_9allocatorIS5_EEEE"
    },
    {
     "referenced_type" : "_ZTIPN4aidl7android8hardware3drm10KeyRequestE"
    }
   ],
   "return_type" : "_ZTIN3ndk13ScopedAStatusE",
   "source_file" : "out/soong/.intermediates/hardware/interfaces/drm/aidl/android.hardware.drm-V1-ndk-source/gen/include/aidl/android/hardware/drm/BpDrmPlugin.h"
  },
  {
   "function_name" : "aidl::android::hardware::drm::BpDrmPlugin::getSecureStop",
   "linker_set_key" : "_ZN4aidl7android8hardware3drm11BpDrmPlugin13getSecureStopERKNS2_12SecureStopIdEPNS2_10SecureStopE",
   "parameters" :
   [
    {
     "is_this_ptr" : true,
     "referenced_type" : "_ZTIPN4aidl7android8hardware3drm11BpDrmPluginE"
    },
    {
     "referenced_type" : "_ZTIRKN4aidl7android8hardware3drm12SecureStopIdE"
    },
    {
     "referenced_type" : "_ZTIPN4aidl7android8hardware3drm10SecureStopE"
    }
   ],
   "return_type" : "_ZTIN3ndk13ScopedAStatusE",
   "source_file" : "out/soong/.intermediates/hardware/interfaces/drm/aidl/android.hardware.drm-V1-ndk-source/gen/include/aidl/android/hardware/drm/BpDrmPlugin.h"
  },
  {
   "function_name" : "aidl::android::hardware::drm::BpDrmPlugin::setPlaybackId",
   "linker_set_key" : "_ZN4aidl7android8hardware3drm11BpDrmPlugin13setPlaybackIdERKNSt3__16vectorIhNS4_9allocatorIhEEEERKNS4_12basic_stringIcNS4_11char_traitsIcEENS6_IcEEEE",
   "parameters" :
   [
    {
     "is_this_ptr" : true,
     "referenced_type" : "_ZTIPN4aidl7android8hardware3drm11BpDrmPluginE"
    },
    {
     "referenced_type" : "_ZTIRKNSt3__16vectorIhNS_9allocatorIhEEEE"
    },
    {
     "referenced_type" : "_ZTIRKNSt3__112basic_stringIcNS_11char_traitsIcEENS_9allocatorIcEEEE"
    }
   ],
   "return_type" : "_ZTIN3ndk13ScopedAStatusE",
   "source_file" : "out/soong/.intermediates/hardware/interfaces/drm/aidl/android.hardware.drm-V1-ndk-source/gen/include/aidl/android/hardware/drm/BpDrmPlugin.h"
  },
  {
   "function_name" : "aidl::android::hardware::drm::BpDrmPlugin::getLogMessages",
   "linker_set_key" : "_ZN4aidl7android8hardware3drm11BpDrmPlugin14getLogMessagesEPNSt3__16vectorINS2_10LogMessageENS4_9allocatorIS6_EEEE",
   "parameters" :
   [
    {
     "is_this_ptr" : true,
     "referenced_type" : "_ZTIPN4aidl7android8hardware3drm11BpDrmPluginE"
    },
    {
     "referenced_type" : "_ZTIPNSt3__16vectorIN4aidl7android8hardware3drm10LogMessageENS_9allocatorIS5_EEEE"
    }
   ],
   "return_type" : "_ZTIN3ndk13ScopedAStatusE",
   "source_file" : "out/soong/.intermediates/hardware/interfaces/drm/aidl/android.hardware.drm-V1-ndk-source/gen/include/aidl/android/hardware/drm/BpDrmPlugin.h"
  },
  {
   "function_name" : "aidl::android::hardware::drm::BpDrmPlugin::getSecureStops",
   "linker_set_key" : "_ZN4aidl7android8hardware3drm11BpDrmPlugin14getSecureStopsEPNSt3__16vectorINS2_10SecureStopENS4_9allocatorIS6_EEEE",
   "parameters" :
   [
    {
     "is_this_ptr" : true,
     "referenced_type" : "_ZTIPN4aidl7android8hardware3drm11BpDrmPluginE"
    },
    {
     "referenced_type" : "_ZTIPNSt3__16vectorIN4aidl7android8hardware3drm10SecureStopENS_9allocatorIS5_EEEE"
    }
   ],
   "return_type" : "_ZTIN3ndk13ScopedAStatusE",
   "source_file" : "out/soong/.intermediates/hardware/interfaces/drm/aidl/android.hardware.drm-V1-ndk-source/gen/include/aidl/android/hardware/drm/BpDrmPlugin.h"
  },
  {
   "function_name" : "aidl::android::hardware::drm::BpDrmPlugin::queryKeyStatus",
   "linker_set_key" : "_ZN4aidl7android8hardware3drm11BpDrmPlugin14queryKeyStatusERKNSt3__16vectorIhNS4_9allocatorIhEEEEPNS5_INS2_8KeyValueENS6_ISB_EEEE",
   "parameters" :
   [
    {
     "is_this_ptr" : true,
     "referenced_type" : "_ZTIPN4aidl7android8hardware3drm11BpDrmPluginE"
    },
    {
     "referenced_type" : "_ZTIRKNSt3__16vectorIhNS_9allocatorIhEEEE"
    },
    {
     "referenced_type" : "_ZTIPNSt3__16vectorIN4aidl7android8hardware3drm8KeyValueENS_9allocatorIS5_EEEE"
    }
   ],
   "return_type" : "_ZTIN3ndk13ScopedAStatusE",
   "source_file" : "out/soong/.intermediates/hardware/interfaces/drm/aidl/android.hardware.drm-V1-ndk-source/gen/include/aidl/android/hardware/drm/BpDrmPlugin.h"
  },
  {
   "function_name" : "aidl::android::hardware::drm::BpDrmPlugin::setMacAlgorithm",
   "linker_set_key" : "_ZN4aidl7android8hardware3drm11BpDrmPlugin15setMacAlgorithmERKNSt3__16vectorIhNS4_9allocatorIhEEEERKNS4_12basic_stringIcNS4_11char_traitsIcEENS6_IcEEEE",
   "parameters" :
   [
    {
     "is_this_ptr" : true,
     "referenced_type" : "_ZTIPN4aidl7android8hardware3drm11BpDrmPluginE"
    },
    {
     "referenced_type" : "_ZTIRKNSt3__16vectorIhNS_9allocatorIhEEEE"
    },
    {
     "referenced_type" : "_ZTIRKNSt3__112basic_stringIcNS_11char_traitsIcEENS_9allocatorIcEEEE"
    }
   ],
   "return_type" : "_ZTIN3ndk13ScopedAStatusE",
   "source_file" : "out/soong/.intermediates/hardware/interfaces/drm/aidl/android.hardware.drm-V1-ndk-source/gen/include/aidl/android/hardware/drm/BpDrmPlugin.h"
  },
  {
   "function_name" : "aidl::android::hardware::drm::BpDrmPlugin::getInterfaceHash",
   "linker_set_key" : "_ZN4aidl7android8hardware3drm11BpDrmPlugin16getInterfaceHashEPNSt3__112basic_stringIcNS4_11char_traitsIcEENS4_9allocatorIcEEEE",
   "parameters" :
   [
    {
     "is_this_ptr" : true,
     "referenced_type" : "_ZTIPN4aidl7android8hardware3drm11BpDrmPluginE"
    },
    {
     "referenced_type" : "_ZTIPNSt3__112basic_stringIcNS_11char_traitsIcEENS_9allocatorIcEEEE"
    }
   ],
   "return_type" : "_ZTIN3ndk13ScopedAStatusE",
   "source_file" : "out/soong/.intermediates/hardware/interfaces/drm/aidl/android.hardware.drm-V1-ndk-source/gen/include/aidl/android/hardware/drm/BpDrmPlugin.h"
  },
  {
   "function_name" : "aidl::android::hardware::drm::BpDrmPlugin::getSecureStopIds",
   "linker_set_key" : "_ZN4aidl7android8hardware3drm11BpDrmPlugin16getSecureStopIdsEPNSt3__16vectorINS2_12SecureStopIdENS4_9allocatorIS6_EEEE",
   "parameters" :
   [
    {
     "is_this_ptr" : true,
     "referenced_type" : "_ZTIPN4aidl7android8hardware3drm11BpDrmPluginE"
    },
    {
     "referenced_type" : "_ZTIPNSt3__16vectorIN4aidl7android8hardware3drm12SecureStopIdENS_9allocatorIS5_EEEE"
    }
   ],
   "return_type" : "_ZTIN3ndk13ScopedAStatusE",
   "source_file" : "out/soong/.intermediates/hardware/interfaces/drm/aidl/android.hardware.drm-V1-ndk-source/gen/include/aidl/android/hardware/drm/BpDrmPlugin.h"
  },
  {
   "function_name" : "aidl::android::hardware::drm::BpDrmPlugin::getSecurityLevel",
   "linker_set_key" : "_ZN4aidl7android8hardware3drm11BpDrmPlugin16getSecurityLevelERKNSt3__16vectorIhNS4_9allocatorIhEEEEPNS2_13SecurityLevelE",
   "parameters" :
   [
    {
     "is_this_ptr" : true,
     "referenced_type" : "_ZTIPN4aidl7android8hardware3drm11BpDrmPluginE"
    },
    {
     "referenced_type" : "_ZTIRKNSt3__16vectorIhNS_9allocatorIhEEEE"
    },
    {
     "referenced_type" : "_ZTIPN4aidl7android8hardware3drm13SecurityLevelE"
    }
   ],
   "return_type" : "_ZTIN3ndk13ScopedAStatusE",
   "source_file" : "out/soong/.intermediates/hardware/interfaces/drm/aidl/android.hardware.drm-V1-ndk-source/gen/include/aidl/android/hardware/drm/BpDrmPlugin.h"
  },
  {
   "function_name" : "aidl::android::hardware::drm::BpDrmPlugin::removeSecureStop",
   "linker_set_key" : "_ZN4aidl7android8hardware3drm11BpDrmPlugin16removeSecureStopERKNS2_12SecureStopIdE",
   "parameters" :
   [
    {
     "is_this_ptr" : true,
     "referenced_type" : "_ZTIPN4aidl7android8hardware3drm11BpDrmPluginE"
    },
    {
     "referenced_type" : "_ZTIRKN4aidl7android8hardware3drm12SecureStopIdE"
    }
   ],
   "return_type" : "_ZTIN3ndk13ScopedAStatusE",
   "source_file" : "out/soong/.intermediates/hardware/interfaces/drm/aidl/android.hardware.drm-V1-ndk-source/gen/include/aidl/android/hardware/drm/BpDrmPlugin.h"
  },
  {
   "function_name" : "aidl::android::hardware::drm::BpDrmPlugin::getPropertyString",
   "linker_set_key" : "_ZN4aidl7android8hardware3drm11BpDrmPlugin17getPropertyStringERKNSt3__112basic_stringIcNS4_11char_traitsIcEENS4_9allocatorIcEEEEPSA_",
   "parameters" :
   [
    {
     "is_this_ptr" : true,
     "referenced_type" : "_ZTIPN4aidl7android8hardware3drm11BpDrmPluginE"
    },
    {
     "referenced_type" : "_ZTIRKNSt3__112basic_stringIcNS_11char_traitsIcEENS_9allocatorIcEEEE"
    },
    {
     "referenced_type" : "_ZTIPNSt3__112basic_stringIcNS_11char_traitsIcEENS_9allocatorIcEEEE"
    }
   ],
   "return_type" : "_ZTIN3ndk13ScopedAStatusE",
   "source_file" : "out/soong/.intermediates/hardware/interfaces/drm/aidl/android.hardware.drm-V1-ndk-source/gen/include/aidl/android/hardware/drm/BpDrmPlugin.h"
  },
  {
   "function_name" : "aidl::android::hardware::drm::BpDrmPlugin::releaseSecureStop",
   "linker_set_key" : "_ZN4aidl7android8hardware3drm11BpDrmPlugin17releaseSecureStopERKNS2_12SecureStopIdE",
   "parameters" :
   [
    {
     "is_this_ptr" : true,
     "referenced_type" : "_ZTIPN4aidl7android8hardware3drm11BpDrmPluginE"
    },
    {
     "referenced_type" : "_ZTIRKN4aidl7android8hardware3drm12SecureStopIdE"
    }
   ],
   "return_type" : "_ZTIN3ndk13ScopedAStatusE",
   "source_file" : "out/soong/.intermediates/hardware/interfaces/drm/aidl/android.hardware.drm-V1-ndk-source/gen/include/aidl/android/hardware/drm/BpDrmPlugin.h"
  },
  {
   "function_name" : "aidl::android::hardware::drm::BpDrmPlugin::setPropertyString",
   "linker_set_key" : "_ZN4aidl7android8hardware3drm11BpDrmPlugin17setPropertyStringERKNSt3__112basic_stringIcNS4_11char_traitsIcEENS4_9allocatorIcEEEESC_",
   "parameters" :
   [
    {
     "is_this_ptr" : true,
     "referenced_type" : "_ZTIPN4aidl7android8hardware3drm11BpDrmPluginE"
    },
    {
     "referenced_type" : "_ZTIRKNSt3__112basic_stringIcNS_11char_traitsIcEENS_9allocatorIcEEEE"
    },
    {
     "referenced_type" : "_ZTIRKNSt3__112basic_stringIcNS_11char_traitsIcEENS_9allocatorIcEEEE"
    }
   ],
   "return_type" : "_ZTIN3ndk13ScopedAStatusE",
   "source_file" : "out/soong/.intermediates/hardware/interfaces/drm/aidl/android.hardware.drm-V1-ndk-source/gen/include/aidl/android/hardware/drm/BpDrmPlugin.h"
  },
  {
   "function_name" : "aidl::android::hardware::drm::BpDrmPlugin::provideKeyResponse",
   "linker_set_key" : "_ZN4aidl7android8hardware3drm11BpDrmPlugin18provideKeyResponseERKNSt3__16vectorIhNS4_9allocatorIhEEEESA_PNS2_8KeySetIdE",
   "parameters" :
   [
    {
     "is_this_ptr" : true,
     "referenced_type" : "_ZTIPN4aidl7android8hardware3drm11BpDrmPluginE"
    },
    {
     "referenced_type" : "_ZTIRKNSt3__16vectorIhNS_9allocatorIhEEEE"
    },
    {
     "referenced_type" : "_ZTIRKNSt3__16vectorIhNS_9allocatorIhEEEE"
    },
    {
     "referenced_type" : "_ZTIPN4aidl7android8hardware3drm8KeySetIdE"
    }
   ],
   "return_type" : "_ZTIN3ndk13ScopedAStatusE",
   "source_file" : "out/soong/.intermediates/hardware/interfaces/drm/aidl/android.hardware.drm-V1-ndk-source/gen/include/aidl/android/hardware/drm/BpDrmPlugin.h"
  },
  {
   "function_name" : "aidl::android::hardware::drm::BpDrmPlugin::releaseSecureStops",
   "linker_set_key" : "_ZN4aidl7android8hardware3drm11BpDrmPlugin18releaseSecureStopsERKNS2_10OpaqueDataE",
   "parameters" :
   [
    {
     "is_this_ptr" : true,
     "referenced_type" : "_ZTIPN4aidl7android8hardware3drm11BpDrmPluginE"
    },
    {
     "referenced_type" : "_ZTIRKN4aidl7android8hardware3drm10OpaqueDataE"
    }
   ],
   "return_type" : "_ZTIN3ndk13ScopedAStatusE",
   "source_file" : "out/soong/.intermediates/hardware/interfaces/drm/aidl/android.hardware.drm-V1-ndk-source/gen/include/aidl/android/hardware/drm/BpDrmPlugin.h"
  },
  {
   "function_name" : "aidl::android::hardware::drm::BpDrmPlugin::setCipherAlgorithm",
   "linker_set_key" : "_ZN4aidl7android8hardware3drm11BpDrmPlugin18setCipherAlgorithmERKNSt3__16vectorIhNS4_9allocatorIhEEEERKNS4_12basic_stringIcNS4_11char_traitsIcEENS6_IcEEEE",
   "parameters" :
   [
    {
     "is_this_ptr" : true,
     "referenced_type" : "_ZTIPN4aidl7android8hardware3drm11BpDrmPluginE"
    },
    {
     "referenced_type" : "_ZTIRKNSt3__16vectorIhNS_9allocatorIhEEEE"
    },
    {
     "referenced_type" : "_ZTIRKNSt3__112basic_stringIcNS_11char_traitsIcEENS_9allocatorIcEEEE"
    }
   ],
   "return_type" : "_ZTIN3ndk13ScopedAStatusE",
   "source_file" : "out/soong/.intermediates/hardware/interfaces/drm/aidl/android.hardware.drm-V1-ndk-source/gen/include/aidl/android/hardware/drm/BpDrmPlugin.h"
  },
  {
   "function_name" : "aidl::android::hardware::drm::BpDrmPlugin::getInterfaceVersion",
   "linker_set_key" : "_ZN4aidl7android8hardware3drm11BpDrmPlugin19getInterfaceVersionEPi",
   "parameters" :
   [
    {
     "is_this_ptr" : true,
     "referenced_type" : "_ZTIPN4aidl7android8hardware3drm11BpDrmPluginE"
    },
    {
     "referenced_type" : "_ZTIPi"
    }
   ],
   "return_type" : "_ZTIN3ndk13ScopedAStatusE",
   "source_file" : "out/soong/.intermediates/hardware/interfaces/drm/aidl/android.hardware.drm-V1-ndk-source/gen/include/aidl/android/hardware/drm/BpDrmPlugin.h"
  },
  {
   "function_name" : "aidl::android::hardware::drm::BpDrmPlugin::getNumberOfSessions",
   "linker_set_key" : "_ZN4aidl7android8hardware3drm11BpDrmPlugin19getNumberOfSessionsEPNS2_16NumberOfSessionsE",
   "parameters" :
   [
    {
     "is_this_ptr" : true,
     "referenced_type" : "_ZTIPN4aidl7android8hardware3drm11BpDrmPluginE"
    },
    {
     "referenced_type" : "_ZTIPN4aidl7android8hardware3drm16NumberOfSessionsE"
    }
   ],
   "return_type" : "_ZTIN3ndk13ScopedAStatusE",
   "source_file" : "out/soong/.intermediates/hardware/interfaces/drm/aidl/android.hardware.drm-V1-ndk-source/gen/include/aidl/android/hardware/drm/BpDrmPlugin.h"
  },
  {
   "function_name" : "aidl::android::hardware::drm::BpDrmPlugin::getProvisionRequest",
   "linker_set_key" : "_ZN4aidl7android8hardware3drm11BpDrmPlugin19getProvisionRequestERKNSt3__112basic_stringIcNS4_11char_traitsIcEENS4_9allocatorIcEEEESC_PNS2_16ProvisionRequestE",
   "parameters" :
   [
    {
     "is_this_ptr" : true,
     "referenced_type" : "_ZTIPN4aidl7android8hardware3drm11BpDrmPluginE"
    },
    {
     "referenced_type" : "_ZTIRKNSt3__112basic_stringIcNS_11char_traitsIcEENS_9allocatorIcEEEE"
    },
    {
     "referenced_type" : "_ZTIRKNSt3__112basic_stringIcNS_11char_traitsIcEENS_9allocatorIcEEEE"
    },
    {
     "referenced_type" : "_ZTIPN4aidl7android8hardware3drm16ProvisionRequestE"
    }
   ],
   "return_type" : "_ZTIN3ndk13ScopedAStatusE",
   "source_file" : "out/soong/.intermediates/hardware/interfaces/drm/aidl/android.hardware.drm-V1-ndk-source/gen/include/aidl/android/hardware/drm/BpDrmPlugin.h"
  },
  {
   "function_name" : "aidl::android::hardware::drm::BpDrmPlugin::getPropertyByteArray",
   "linker_set_key" : "_ZN4aidl7android8hardware3drm11BpDrmPlugin20getPropertyByteArrayERKNSt3__112basic_stringIcNS4_11char_traitsIcEENS4_9allocatorIcEEEEPNS4_6vectorIhNS8_IhEEEE",
   "parameters" :
   [
    {
     "is_this_ptr" : true,
     "referenced_type" : "_ZTIPN4aidl7android8hardware3drm11BpDrmPluginE"
    },
    {
     "referenced_type" : "_ZTIRKNSt3__112basic_stringIcNS_11char_traitsIcEENS_9allocatorIcEEEE"
    },
    {
     "referenced_type" : "_ZTIPNSt3__16vectorIhNS_9allocatorIhEEEE"
    }
   ],
   "return_type" : "_ZTIN3ndk13ScopedAStatusE",
   "source_file" : "out/soong/.intermediates/hardware/interfaces/drm/aidl/android.hardware.drm-V1-ndk-source/gen/include/aidl/android/hardware/drm/BpDrmPlugin.h"
  },
  {
   "function_name" : "aidl::android::hardware::drm::BpDrmPlugin::removeAllSecureStops",
   "linker_set_key" : "_ZN4aidl7android8hardware3drm11BpDrmPlugin20removeAllSecureStopsEv",
   "parameters" :
   [
    {
     "is_this_ptr" : true,
     "referenced_type" : "_ZTIPN4aidl7android8hardware3drm11BpDrmPluginE"
    }
   ],
   "return_type" : "_ZTIN3ndk13ScopedAStatusE",
   "source_file" : "out/soong/.intermediates/hardware/interfaces/drm/aidl/android.hardware.drm-V1-ndk-source/gen/include/aidl/android/hardware/drm/BpDrmPlugin.h"
  },
  {
   "function_name" : "aidl::android::hardware::drm::BpDrmPlugin::removeOfflineLicense",
   "linker_set_key" : "_ZN4aidl7android8hardware3drm11BpDrmPlugin20removeOfflineLicenseERKNS2_8KeySetIdE",
   "parameters" :
   [
    {
     "is_this_ptr" : true,
     "referenced_type" : "_ZTIPN4aidl7android8hardware3drm11BpDrmPluginE"
    },
    {
     "referenced_type" : "_ZTIRKN4aidl7android8hardware3drm8KeySetIdE"
    }
   ],
   "return_type" : "_ZTIN3ndk13ScopedAStatusE",
   "source_file" : "out/soong/.intermediates/hardware/interfaces/drm/aidl/android.hardware.drm-V1-ndk-source/gen/include/aidl/android/hardware/drm/BpDrmPlugin.h"
  },
  {
   "function_name" : "aidl::android::hardware::drm::BpDrmPlugin::setPropertyByteArray",
   "linker_set_key" : "_ZN4aidl7android8hardware3drm11BpDrmPlugin20setPropertyByteArrayERKNSt3__112basic_stringIcNS4_11char_traitsIcEENS4_9allocatorIcEEEERKNS4_6vectorIhNS8_IhEEEE",
   "parameters" :
   [
    {
     "is_this_ptr" : true,
     "referenced_type" : "_ZTIPN4aidl7android8hardware3drm11BpDrmPluginE"
    },
    {
     "referenced_type" : "_ZTIRKNSt3__112basic_stringIcNS_11char_traitsIcEENS_9allocatorIcEEEE"
    },
    {
     "referenced_type" : "_ZTIRKNSt3__16vectorIhNS_9allocatorIhEEEE"
    }
   ],
   "return_type" : "_ZTIN3ndk13ScopedAStatusE",
   "source_file" : "out/soong/.intermediates/hardware/interfaces/drm/aidl/android.hardware.drm-V1-ndk-source/gen/include/aidl/android/hardware/drm/BpDrmPlugin.h"
  },
  {
   "function_name" : "aidl::android::hardware::drm::BpDrmPlugin::releaseAllSecureStops",
   "linker_set_key" : "_ZN4aidl7android8hardware3drm11BpDrmPlugin21releaseAllSecureStopsEv",
   "parameters" :
   [
    {
     "is_this_ptr" : true,
     "referenced_type" : "_ZTIPN4aidl7android8hardware3drm11BpDrmPluginE"
    }
   ],
   "return_type" : "_ZTIN3ndk13ScopedAStatusE",
   "source_file" : "out/soong/.intermediates/hardware/interfaces/drm/aidl/android.hardware.drm-V1-ndk-source/gen/include/aidl/android/hardware/drm/BpDrmPlugin.h"
  },
  {
   "function_name" : "aidl::android::hardware::drm::BpDrmPlugin::requiresSecureDecoder",
   "linker_set_key" : "_ZN4aidl7android8hardware3drm11BpDrmPlugin21requiresSecureDecoderERKNSt3__112basic_stringIcNS4_11char_traitsIcEENS4_9allocatorIcEEEENS2_13SecurityLevelEPb",
   "parameters" :
   [
    {
     "is_this_ptr" : true,
     "referenced_type" : "_ZTIPN4aidl7android8hardware3drm11BpDrmPluginE"
    },
    {
     "referenced_type" : "_ZTIRKNSt3__112basic_stringIcNS_11char_traitsIcEENS_9allocatorIcEEEE"
    },
    {
     "referenced_type" : "_ZTIN4aidl7android8hardware3drm13SecurityLevelE"
    },
    {
     "referenced_type" : "_ZTIPb"
    }
   ],
   "return_type" : "_ZTIN3ndk13ScopedAStatusE",
   "source_file" : "out/soong/.intermediates/hardware/interfaces/drm/aidl/android.hardware.drm-V1-ndk-source/gen/include/aidl/android/hardware/drm/BpDrmPlugin.h"
  },
  {
   "function_name" : "aidl::android::hardware::drm::BpDrmPlugin::getOfflineLicenseState",
   "linker_set_key" : "_ZN4aidl7android8hardware3drm11BpDrmPlugin22getOfflineLicenseStateERKNS2_8KeySetIdEPNS2_19OfflineLicenseStateE",
   "parameters" :
   [
    {
     "is_this_ptr" : true,
     "referenced_type" : "_ZTIPN4aidl7android8hardware3drm11BpDrmPluginE"
    },
    {
     "referenced_type" : "_ZTIRKN4aidl7android8hardware3drm8KeySetIdE"
    },
    {
     "referenced_type" : "_ZTIPN4aidl7android8hardware3drm19OfflineLicenseStateE"
    }
   ],
   "return_type" : "_ZTIN3ndk13ScopedAStatusE",
   "source_file" : "out/soong/.intermediates/hardware/interfaces/drm/aidl/android.hardware.drm-V1-ndk-source/gen/include/aidl/android/hardware/drm/BpDrmPlugin.h"
  },
  {
   "function_name" : "aidl::android::hardware::drm::BpDrmPlugin::provideProvisionResponse",
   "linker_set_key" : "_ZN4aidl7android8hardware3drm11BpDrmPlugin24provideProvisionResponseERKNSt3__16vectorIhNS4_9allocatorIhEEEEPNS2_30ProvideProvisionResponseResultE",
   "parameters" :
   [
    {
     "is_this_ptr" : true,
     "referenced_type" : "_ZTIPN4aidl7android8hardware3drm11BpDrmPluginE"
    },
    {
     "referenced_type" : "_ZTIRKNSt3__16vectorIhNS_9allocatorIhEEEE"
    },
    {
     "referenced_type" : "_ZTIPN4aidl7android8hardware3drm30ProvideProvisionResponseResultE"
    }
   ],
   "return_type" : "_ZTIN3ndk13ScopedAStatusE",
   "source_file" : "out/soong/.intermediates/hardware/interfaces/drm/aidl/android.hardware.drm-V1-ndk-source/gen/include/aidl/android/hardware/drm/BpDrmPlugin.h"
  },
  {
   "function_name" : "aidl::android::hardware::drm::BpDrmPlugin::getOfflineLicenseKeySetIds",
   "linker_set_key" : "_ZN4aidl7android8hardware3drm11BpDrmPlugin26getOfflineLicenseKeySetIdsEPNSt3__16vectorINS2_8KeySetIdENS4_9allocatorIS6_EEEE",
   "parameters" :
   [
    {
     "is_this_ptr" : true,
     "referenced_type" : "_ZTIPN4aidl7android8hardware3drm11BpDrmPluginE"
    },
    {
     "referenced_type" : "_ZTIPNSt3__16vectorIN4aidl7android8hardware3drm8KeySetIdENS_9allocatorIS5_EEEE"
    }
   ],
   "return_type" : "_ZTIN3ndk13ScopedAStatusE",
   "source_file" : "out/soong/.intermediates/hardware/interfaces/drm/aidl/android.hardware.drm-V1-ndk-source/gen/include/aidl/android/hardware/drm/BpDrmPlugin.h"
  },
  {
   "function_name" : "aidl::android::hardware::drm::BpDrmPlugin::sign",
   "linker_set_key" : "_ZN4aidl7android8hardware3drm11BpDrmPlugin4signERKNSt3__16vectorIhNS4_9allocatorIhEEEESA_SA_PS8_",
   "parameters" :
   [
    {
     "is_this_ptr" : true,
     "referenced_type" : "_ZTIPN4aidl7android8hardware3drm11BpDrmPluginE"
    },
    {
     "referenced_type" : "_ZTIRKNSt3__16vectorIhNS_9allocatorIhEEEE"
    },
    {
     "referenced_type" : "_ZTIRKNSt3__16vectorIhNS_9allocatorIhEEEE"
    },
    {
     "referenced_type" : "_ZTIRKNSt3__16vectorIhNS_9allocatorIhEEEE"
    },
    {
     "referenced_type" : "_ZTIPNSt3__16vectorIhNS_9allocatorIhEEEE"
    }
   ],
   "return_type" : "_ZTIN3ndk13ScopedAStatusE",
   "source_file" : "out/soong/.intermediates/hardware/interfaces/drm/aidl/android.hardware.drm-V1-ndk-source/gen/include/aidl/android/hardware/drm/BpDrmPlugin.h"
  },
  {
   "function_name" : "aidl::android::hardware::drm::BpDrmPlugin::verify",
   "linker_set_key" : "_ZN4aidl7android8hardware3drm11BpDrmPlugin6verifyERKNSt3__16vectorIhNS4_9allocatorIhEEEESA_SA_SA_Pb",
   "parameters" :
   [
    {
     "is_this_ptr" : true,
     "referenced_type" : "_ZTIPN4aidl7android8hardware3drm11BpDrmPluginE"
    },
    {
     "referenced_type" : "_ZTIRKNSt3__16vectorIhNS_9allocatorIhEEEE"
    },
    {
     "referenced_type" : "_ZTIRKNSt3__16vectorIhNS_9allocatorIhEEEE"
    },
    {
     "referenced_type" : "_ZTIRKNSt3__16vectorIhNS_9allocatorIhEEEE"
    },
    {
     "referenced_type" : "_ZTIRKNSt3__16vectorIhNS_9allocatorIhEEEE"
    },
    {
     "referenced_type" : "_ZTIPb"
    }
   ],
   "return_type" : "_ZTIN3ndk13ScopedAStatusE",
   "source_file" : "out/soong/.intermediates/hardware/interfaces/drm/aidl/android.hardware.drm-V1-ndk-source/gen/include/aidl/android/hardware/drm/BpDrmPlugin.h"
  },
  {
   "function_name" : "aidl::android::hardware::drm::BpDrmPlugin::decrypt",
   "linker_set_key" : "_ZN4aidl7android8hardware3drm11BpDrmPlugin7decryptERKNSt3__16vectorIhNS4_9allocatorIhEEEESA_SA_SA_PS8_",
   "parameters" :
   [
    {
     "is_this_ptr" : true,
     "referenced_type" : "_ZTIPN4aidl7android8hardware3drm11BpDrmPluginE"
    },
    {
     "referenced_type" : "_ZTIRKNSt3__16vectorIhNS_9allocatorIhEEEE"
    },
    {
     "referenced_type" : "_ZTIRKNSt3__16vectorIhNS_9allocatorIhEEEE"
    },
    {
     "referenced_type" : "_ZTIRKNSt3__16vectorIhNS_9allocatorIhEEEE"
    },
    {
     "referenced_type" : "_ZTIRKNSt3__16vectorIhNS_9allocatorIhEEEE"
    },
    {
     "referenced_type" : "_ZTIPNSt3__16vectorIhNS_9allocatorIhEEEE"
    }
   ],
   "return_type" : "_ZTIN3ndk13ScopedAStatusE",
   "source_file" : "out/soong/.intermediates/hardware/interfaces/drm/aidl/android.hardware.drm-V1-ndk-source/gen/include/aidl/android/hardware/drm/BpDrmPlugin.h"
  },
  {
   "function_name" : "aidl::android::hardware::drm::BpDrmPlugin::encrypt",
   "linker_set_key" : "_ZN4aidl7android8hardware3drm11BpDrmPlugin7encryptERKNSt3__16vectorIhNS4_9allocatorIhEEEESA_SA_SA_PS8_",
   "parameters" :
   [
    {
     "is_this_ptr" : true,
     "referenced_type" : "_ZTIPN4aidl7android8hardware3drm11BpDrmPluginE"
    },
    {
     "referenced_type" : "_ZTIRKNSt3__16vectorIhNS_9allocatorIhEEEE"
    },
    {
     "referenced_type" : "_ZTIRKNSt3__16vectorIhNS_9allocatorIhEEEE"
    },
    {
     "referenced_type" : "_ZTIRKNSt3__16vectorIhNS_9allocatorIhEEEE"
    },
    {
     "referenced_type" : "_ZTIRKNSt3__16vectorIhNS_9allocatorIhEEEE"
    },
    {
     "referenced_type" : "_ZTIPNSt3__16vectorIhNS_9allocatorIhEEEE"
    }
   ],
   "return_type" : "_ZTIN3ndk13ScopedAStatusE",
   "source_file" : "out/soong/.intermediates/hardware/interfaces/drm/aidl/android.hardware.drm-V1-ndk-source/gen/include/aidl/android/hardware/drm/BpDrmPlugin.h"
  },
  {
   "function_name" : "aidl::android::hardware::drm::BpDrmPlugin::signRSA",
   "linker_set_key" : "_ZN4aidl7android8hardware3drm11BpDrmPlugin7signRSAERKNSt3__16vectorIhNS4_9allocatorIhEEEERKNS4_12basic_stringIcNS4_11char_traitsIcEENS6_IcEEEESA_SA_PS8_",
   "parameters" :
   [
    {
     "is_this_ptr" : true,
     "referenced_type" : "_ZTIPN4aidl7android8hardware3drm11BpDrmPluginE"
    },
    {
     "referenced_type" : "_ZTIRKNSt3__16vectorIhNS_9allocatorIhEEEE"
    },
    {
     "referenced_type" : "_ZTIRKNSt3__112basic_stringIcNS_11char_traitsIcEENS_9allocatorIcEEEE"
    },
    {
     "referenced_type" : "_ZTIRKNSt3__16vectorIhNS_9allocatorIhEEEE"
    },
    {
     "referenced_type" : "_ZTIRKNSt3__16vectorIhNS_9allocatorIhEEEE"
    },
    {
     "referenced_type" : "_ZTIPNSt3__16vectorIhNS_9allocatorIhEEEE"
    }
   ],
   "return_type" : "_ZTIN3ndk13ScopedAStatusE",
   "source_file" : "out/soong/.intermediates/hardware/interfaces/drm/aidl/android.hardware.drm-V1-ndk-source/gen/include/aidl/android/hardware/drm/BpDrmPlugin.h"
  },
  {
   "function_name" : "aidl::android::hardware::drm::BpDrmPlugin::BpDrmPlugin",
   "linker_set_key" : "_ZN4aidl7android8hardware3drm11BpDrmPluginC1ERKN3ndk10SpAIBinderE",
   "parameters" :
   [
    {
     "is_this_ptr" : true,
     "referenced_type" : "_ZTIPN4aidl7android8hardware3drm11BpDrmPluginE"
    },
    {
     "referenced_type" : "_ZTIRKN3ndk10SpAIBinderE"
    }
   ],
   "return_type" : "_ZTIv",
   "source_file" : "out/soong/.intermediates/hardware/interfaces/drm/aidl/android.hardware.drm-V1-ndk-source/gen/include/aidl/android/hardware/drm/BpDrmPlugin.h"
  },
  {
   "function_name" : "aidl::android::hardware::drm::BpDrmPlugin::BpDrmPlugin",
   "linker_set_key" : "_ZN4aidl7android8hardware3drm11BpDrmPluginC2ERKN3ndk10SpAIBinderE",
   "parameters" :
   [
    {
     "is_this_ptr" : true,
     "referenced_type" : "_ZTIPN4aidl7android8hardware3drm11BpDrmPluginE"
    },
    {
     "referenced_type" : "_ZTIRKN3ndk10SpAIBinderE"
    }
   ],
   "return_type" : "_ZTIv",
   "source_file" : "out/soong/.intermediates/hardware/interfaces/drm/aidl/android.hardware.drm-V1-ndk-source/gen/include/aidl/android/hardware/drm/BpDrmPlugin.h"
  },
  {
   "function_name" : "aidl::android::hardware::drm::BpDrmPlugin::~BpDrmPlugin",
   "linker_set_key" : "_ZN4aidl7android8hardware3drm11BpDrmPluginD0Ev",
   "parameters" :
   [
    {
     "is_this_ptr" : true,
     "referenced_type" : "_ZTIPN4aidl7android8hardware3drm11BpDrmPluginE"
    }
   ],
   "return_type" : "_ZTIv",
   "source_file" : "out/soong/.intermediates/hardware/interfaces/drm/aidl/android.hardware.drm-V1-ndk-source/gen/include/aidl/android/hardware/drm/BpDrmPlugin.h"
  },
  {
   "function_name" : "aidl::android::hardware::drm::BpDrmPlugin::~BpDrmPlugin",
   "linker_set_key" : "_ZN4aidl7android8hardware3drm11BpDrmPluginD1Ev",
   "parameters" :
   [
    {
     "is_this_ptr" : true,
     "referenced_type" : "_ZTIPN4aidl7android8hardware3drm11BpDrmPluginE"
    }
   ],
   "return_type" : "_ZTIv",
   "source_file" : "out/soong/.intermediates/hardware/interfaces/drm/aidl/android.hardware.drm-V1-ndk-source/gen/include/aidl/android/hardware/drm/BpDrmPlugin.h"
  },
  {
   "function_name" : "aidl::android::hardware::drm::BpDrmPlugin::~BpDrmPlugin",
   "linker_set_key" : "_ZN4aidl7android8hardware3drm11BpDrmPluginD2Ev",
   "parameters" :
   [
    {
     "is_this_ptr" : true,
     "referenced_type" : "_ZTIPN4aidl7android8hardware3drm11BpDrmPluginE"
    }
   ],
   "return_type" : "_ZTIv",
   "source_file" : "out/soong/.intermediates/hardware/interfaces/drm/aidl/android.hardware.drm-V1-ndk-source/gen/include/aidl/android/hardware/drm/BpDrmPlugin.h"
  },
  {
   "function_name" : "aidl::android::hardware::drm::DecryptArgs::readFromParcel",
   "linker_set_key" : "_ZN4aidl7android8hardware3drm11DecryptArgs14readFromParcelEPK7AParcel",
   "parameters" :
   [
    {
     "is_this_ptr" : true,
     "referenced_type" : "_ZTIPN4aidl7android8hardware3drm11DecryptArgsE"
    },
    {
     "referenced_type" : "_ZTIPK7AParcel"
    }
   ],
   "return_type" : "_ZTIi",
   "source_file" : "out/soong/.intermediates/hardware/interfaces/drm/aidl/android.hardware.drm-V1-ndk-source/gen/include/aidl/android/hardware/drm/DecryptArgs.h"
  },
  {
   "function_name" : "aidl::android::hardware::drm::IDrmFactory::fromBinder",
   "linker_set_key" : "_ZN4aidl7android8hardware3drm11IDrmFactory10fromBinderERKN3ndk10SpAIBinderE",
   "parameters" :
   [
    {
     "referenced_type" : "_ZTIRKN3ndk10SpAIBinderE"
    }
   ],
   "return_type" : "_ZTINSt3__110shared_ptrIN4aidl7android8hardware3drm11IDrmFactoryEEE",
   "source_file" : "out/soong/.intermediates/hardware/interfaces/drm/aidl/android.hardware.drm-V1-ndk-source/gen/include/aidl/android/hardware/drm/IDrmFactory.h"
  },
  {
   "function_name" : "aidl::android::hardware::drm::IDrmFactory::writeToParcel",
   "linker_set_key" : "_ZN4aidl7android8hardware3drm11IDrmFactory13writeToParcelEP7AParcelRKNSt3__110shared_ptrIS3_EE",
   "parameters" :
   [
    {
     "referenced_type" : "_ZTIP7AParcel"
    },
    {
     "referenced_type" : "_ZTIRKNSt3__110shared_ptrIN4aidl7android8hardware3drm11IDrmFactoryEEE"
    }
   ],
   "return_type" : "_ZTIi",
   "source_file" : "out/soong/.intermediates/hardware/interfaces/drm/aidl/android.hardware.drm-V1-ndk-source/gen/include/aidl/android/hardware/drm/IDrmFactory.h"
  },
  {
   "function_name" : "aidl::android::hardware::drm::IDrmFactory::getDefaultImpl",
   "linker_set_key" : "_ZN4aidl7android8hardware3drm11IDrmFactory14getDefaultImplEv",
   "return_type" : "_ZTIRKNSt3__110shared_ptrIN4aidl7android8hardware3drm11IDrmFactoryEEE",
   "source_file" : "out/soong/.intermediates/hardware/interfaces/drm/aidl/android.hardware.drm-V1-ndk-source/gen/include/aidl/android/hardware/drm/IDrmFactory.h"
  },
  {
   "function_name" : "aidl::android::hardware::drm::IDrmFactory::readFromParcel",
   "linker_set_key" : "_ZN4aidl7android8hardware3drm11IDrmFactory14readFromParcelEPK7AParcelPNSt3__110shared_ptrIS3_EE",
   "parameters" :
   [
    {
     "referenced_type" : "_ZTIPK7AParcel"
    },
    {
     "referenced_type" : "_ZTIPNSt3__110shared_ptrIN4aidl7android8hardware3drm11IDrmFactoryEEE"
    }
   ],
   "return_type" : "_ZTIi",
   "source_file" : "out/soong/.intermediates/hardware/interfaces/drm/aidl/android.hardware.drm-V1-ndk-source/gen/include/aidl/android/hardware/drm/IDrmFactory.h"
  },
  {
   "function_name" : "aidl::android::hardware::drm::IDrmFactory::setDefaultImpl",
   "linker_set_key" : "_ZN4aidl7android8hardware3drm11IDrmFactory14setDefaultImplERKNSt3__110shared_ptrIS3_EE",
   "parameters" :
   [
    {
     "referenced_type" : "_ZTIRKNSt3__110shared_ptrIN4aidl7android8hardware3drm11IDrmFactoryEEE"
    }
   ],
   "return_type" : "_ZTIb",
   "source_file" : "out/soong/.intermediates/hardware/interfaces/drm/aidl/android.hardware.drm-V1-ndk-source/gen/include/aidl/android/hardware/drm/IDrmFactory.h"
  },
  {
   "function_name" : "aidl::android::hardware::drm::IDrmFactory::IDrmFactory",
   "linker_set_key" : "_ZN4aidl7android8hardware3drm11IDrmFactoryC2Ev",
   "parameters" :
   [
    {
     "is_this_ptr" : true,
     "referenced_type" : "_ZTIPN4aidl7android8hardware3drm11IDrmFactoryE"
    }
   ],
   "return_type" : "_ZTIv",
   "source_file" : "out/soong/.intermediates/hardware/interfaces/drm/aidl/android.hardware.drm-V1-ndk-source/gen/include/aidl/android/hardware/drm/IDrmFactory.h"
  },
  {
   "function_name" : "aidl::android::hardware::drm::IDrmFactory::~IDrmFactory",
   "linker_set_key" : "_ZN4aidl7android8hardware3drm11IDrmFactoryD0Ev",
   "parameters" :
   [
    {
     "is_this_ptr" : true,
     "referenced_type" : "_ZTIPN4aidl7android8hardware3drm11IDrmFactoryE"
    }
   ],
   "return_type" : "_ZTIv",
   "source_file" : "out/soong/.intermediates/hardware/interfaces/drm/aidl/android.hardware.drm-V1-ndk-source/gen/include/aidl/android/hardware/drm/IDrmFactory.h"
  },
  {
   "function_name" : "aidl::android::hardware::drm::IDrmFactory::~IDrmFactory",
   "linker_set_key" : "_ZN4aidl7android8hardware3drm11IDrmFactoryD1Ev",
   "parameters" :
   [
    {
     "is_this_ptr" : true,
     "referenced_type" : "_ZTIPN4aidl7android8hardware3drm11IDrmFactoryE"
    }
   ],
   "return_type" : "_ZTIv",
   "source_file" : "out/soong/.intermediates/hardware/interfaces/drm/aidl/android.hardware.drm-V1-ndk-source/gen/include/aidl/android/hardware/drm/IDrmFactory.h"
  },
  {
   "function_name" : "aidl::android::hardware::drm::IDrmFactory::~IDrmFactory",
   "linker_set_key" : "_ZN4aidl7android8hardware3drm11IDrmFactoryD2Ev",
   "parameters" :
   [
    {
     "is_this_ptr" : true,
     "referenced_type" : "_ZTIPN4aidl7android8hardware3drm11IDrmFactoryE"
    }
   ],
   "return_type" : "_ZTIv",
   "source_file" : "out/soong/.intermediates/hardware/interfaces/drm/aidl/android.hardware.drm-V1-ndk-source/gen/include/aidl/android/hardware/drm/IDrmFactory.h"
  },
  {
   "access" : "protected",
   "function_name" : "aidl::android::hardware::drm::BnDrmFactory::createBinder",
   "linker_set_key" : "_ZN4aidl7android8hardware3drm12BnDrmFactory12createBinderEv",
   "parameters" :
   [
    {
     "is_this_ptr" : true,
     "referenced_type" : "_ZTIPN4aidl7android8hardware3drm12BnDrmFactoryE"
    }
   ],
   "return_type" : "_ZTIN3ndk10SpAIBinderE",
   "source_file" : "out/soong/.intermediates/hardware/interfaces/drm/aidl/android.hardware.drm-V1-ndk-source/gen/include/aidl/android/hardware/drm/BnDrmFactory.h"
  },
  {
   "function_name" : "aidl::android::hardware::drm::BnDrmFactory::getInterfaceHash",
   "linker_set_key" : "_ZN4aidl7android8hardware3drm12BnDrmFactory16getInterfaceHashEPNSt3__112basic_stringIcNS4_11char_traitsIcEENS4_9allocatorIcEEEE",
   "parameters" :
   [
    {
     "is_this_ptr" : true,
     "referenced_type" : "_ZTIPN4aidl7android8hardware3drm12BnDrmFactoryE"
    },
    {
     "referenced_type" : "_ZTIPNSt3__112basic_stringIcNS_11char_traitsIcEENS_9allocatorIcEEEE"
    }
   ],
   "return_type" : "_ZTIN3ndk13ScopedAStatusE",
   "source_file" : "out/soong/.intermediates/hardware/interfaces/drm/aidl/android.hardware.drm-V1-ndk-source/gen/include/aidl/android/hardware/drm/BnDrmFactory.h"
  },
  {
   "function_name" : "aidl::android::hardware::drm::BnDrmFactory::getInterfaceVersion",
   "linker_set_key" : "_ZN4aidl7android8hardware3drm12BnDrmFactory19getInterfaceVersionEPi",
   "parameters" :
   [
    {
     "is_this_ptr" : true,
     "referenced_type" : "_ZTIPN4aidl7android8hardware3drm12BnDrmFactoryE"
    },
    {
     "referenced_type" : "_ZTIPi"
    }
   ],
   "return_type" : "_ZTIN3ndk13ScopedAStatusE",
   "source_file" : "out/soong/.intermediates/hardware/interfaces/drm/aidl/android.hardware.drm-V1-ndk-source/gen/include/aidl/android/hardware/drm/BnDrmFactory.h"
  },
  {
   "function_name" : "aidl::android::hardware::drm::BnDrmFactory::BnDrmFactory",
   "linker_set_key" : "_ZN4aidl7android8hardware3drm12BnDrmFactoryC2Ev",
   "parameters" :
   [
    {
     "is_this_ptr" : true,
     "referenced_type" : "_ZTIPN4aidl7android8hardware3drm12BnDrmFactoryE"
    }
   ],
   "return_type" : "_ZTIv",
   "source_file" : "out/soong/.intermediates/hardware/interfaces/drm/aidl/android.hardware.drm-V1-ndk-source/gen/include/aidl/android/hardware/drm/BnDrmFactory.h"
  },
  {
   "function_name" : "aidl::android::hardware::drm::BnDrmFactory::~BnDrmFactory",
   "linker_set_key" : "_ZN4aidl7android8hardware3drm12BnDrmFactoryD0Ev",
   "parameters" :
   [
    {
     "is_this_ptr" : true,
     "referenced_type" : "_ZTIPN4aidl7android8hardware3drm12BnDrmFactoryE"
    }
   ],
   "return_type" : "_ZTIv",
   "source_file" : "out/soong/.intermediates/hardware/interfaces/drm/aidl/android.hardware.drm-V1-ndk-source/gen/include/aidl/android/hardware/drm/BnDrmFactory.h"
  },
  {
   "function_name" : "aidl::android::hardware::drm::BnDrmFactory::~BnDrmFactory",
   "linker_set_key" : "_ZN4aidl7android8hardware3drm12BnDrmFactoryD1Ev",
   "parameters" :
   [
    {
     "is_this_ptr" : true,
     "referenced_type" : "_ZTIPN4aidl7android8hardware3drm12BnDrmFactoryE"
    }
   ],
   "return_type" : "_ZTIv",
   "source_file" : "out/soong/.intermediates/hardware/interfaces/drm/aidl/android.hardware.drm-V1-ndk-source/gen/include/aidl/android/hardware/drm/BnDrmFactory.h"
  },
  {
   "function_name" : "aidl::android::hardware::drm::BnDrmFactory::~BnDrmFactory",
   "linker_set_key" : "_ZN4aidl7android8hardware3drm12BnDrmFactoryD2Ev",
   "parameters" :
   [
    {
     "is_this_ptr" : true,
     "referenced_type" : "_ZTIPN4aidl7android8hardware3drm12BnDrmFactoryE"
    }
   ],
   "return_type" : "_ZTIv",
   "source_file" : "out/soong/.intermediates/hardware/interfaces/drm/aidl/android.hardware.drm-V1-ndk-source/gen/include/aidl/android/hardware/drm/BnDrmFactory.h"
  },
  {
   "function_name" : "aidl::android::hardware::drm::BpDrmFactory::createDrmPlugin",
   "linker_set_key" : "_ZN4aidl7android8hardware3drm12BpDrmFactory15createDrmPluginERKNS2_4UuidERKNSt3__112basic_stringIcNS7_11char_traitsIcEENS7_9allocatorIcEEEEPNS7_10shared_ptrINS2_10IDrmPluginEEE",
   "parameters" :
   [
    {
     "is_this_ptr" : true,
     "referenced_type" : "_ZTIPN4aidl7android8hardware3drm12BpDrmFactoryE"
    },
    {
     "referenced_type" : "_ZTIRKN4aidl7android8hardware3drm4UuidE"
    },
    {
     "referenced_type" : "_ZTIRKNSt3__112basic_stringIcNS_11char_traitsIcEENS_9allocatorIcEEEE"
    },
    {
     "referenced_type" : "_ZTIPNSt3__110shared_ptrIN4aidl7android8hardware3drm10IDrmPluginEEE"
    }
   ],
   "return_type" : "_ZTIN3ndk13ScopedAStatusE",
   "source_file" : "out/soong/.intermediates/hardware/interfaces/drm/aidl/android.hardware.drm-V1-ndk-source/gen/include/aidl/android/hardware/drm/BpDrmFactory.h"
  },
  {
   "function_name" : "aidl::android::hardware::drm::BpDrmFactory::getInterfaceHash",
   "linker_set_key" : "_ZN4aidl7android8hardware3drm12BpDrmFactory16getInterfaceHashEPNSt3__112basic_stringIcNS4_11char_traitsIcEENS4_9allocatorIcEEEE",
   "parameters" :
   [
    {
     "is_this_ptr" : true,
     "referenced_type" : "_ZTIPN4aidl7android8hardware3drm12BpDrmFactoryE"
    },
    {
     "referenced_type" : "_ZTIPNSt3__112basic_stringIcNS_11char_traitsIcEENS_9allocatorIcEEEE"
    }
   ],
   "return_type" : "_ZTIN3ndk13ScopedAStatusE",
   "source_file" : "out/soong/.intermediates/hardware/interfaces/drm/aidl/android.hardware.drm-V1-ndk-source/gen/include/aidl/android/hardware/drm/BpDrmFactory.h"
  },
  {
   "function_name" : "aidl::android::hardware::drm::BpDrmFactory::createCryptoPlugin",
   "linker_set_key" : "_ZN4aidl7android8hardware3drm12BpDrmFactory18createCryptoPluginERKNS2_4UuidERKNSt3__16vectorIhNS7_9allocatorIhEEEEPNS7_10shared_ptrINS2_13ICryptoPluginEEE",
   "parameters" :
   [
    {
     "is_this_ptr" : true,
     "referenced_type" : "_ZTIPN4aidl7android8hardware3drm12BpDrmFactoryE"
    },
    {
     "referenced_type" : "_ZTIRKN4aidl7android8hardware3drm4UuidE"
    },
    {
     "referenced_type" : "_ZTIRKNSt3__16vectorIhNS_9allocatorIhEEEE"
    },
    {
     "referenced_type" : "_ZTIPNSt3__110shared_ptrIN4aidl7android8hardware3drm13ICryptoPluginEEE"
    }
   ],
   "return_type" : "_ZTIN3ndk13ScopedAStatusE",
   "source_file" : "out/soong/.intermediates/hardware/interfaces/drm/aidl/android.hardware.drm-V1-ndk-source/gen/include/aidl/android/hardware/drm/BpDrmFactory.h"
  },
  {
   "function_name" : "aidl::android::hardware::drm::BpDrmFactory::getInterfaceVersion",
   "linker_set_key" : "_ZN4aidl7android8hardware3drm12BpDrmFactory19getInterfaceVersionEPi",
   "parameters" :
   [
    {
     "is_this_ptr" : true,
     "referenced_type" : "_ZTIPN4aidl7android8hardware3drm12BpDrmFactoryE"
    },
    {
     "referenced_type" : "_ZTIPi"
    }
   ],
   "return_type" : "_ZTIN3ndk13ScopedAStatusE",
   "source_file" : "out/soong/.intermediates/hardware/interfaces/drm/aidl/android.hardware.drm-V1-ndk-source/gen/include/aidl/android/hardware/drm/BpDrmFactory.h"
  },
  {
   "function_name" : "aidl::android::hardware::drm::BpDrmFactory::getSupportedCryptoSchemes",
   "linker_set_key" : "_ZN4aidl7android8hardware3drm12BpDrmFactory25getSupportedCryptoSchemesEPNS2_13CryptoSchemesE",
   "parameters" :
   [
    {
     "is_this_ptr" : true,
     "referenced_type" : "_ZTIPN4aidl7android8hardware3drm12BpDrmFactoryE"
    },
    {
     "referenced_type" : "_ZTIPN4aidl7android8hardware3drm13CryptoSchemesE"
    }
   ],
   "return_type" : "_ZTIN3ndk13ScopedAStatusE",
   "source_file" : "out/soong/.intermediates/hardware/interfaces/drm/aidl/android.hardware.drm-V1-ndk-source/gen/include/aidl/android/hardware/drm/BpDrmFactory.h"
  },
  {
   "function_name" : "aidl::android::hardware::drm::BpDrmFactory::BpDrmFactory",
   "linker_set_key" : "_ZN4aidl7android8hardware3drm12BpDrmFactoryC1ERKN3ndk10SpAIBinderE",
   "parameters" :
   [
    {
     "is_this_ptr" : true,
     "referenced_type" : "_ZTIPN4aidl7android8hardware3drm12BpDrmFactoryE"
    },
    {
     "referenced_type" : "_ZTIRKN3ndk10SpAIBinderE"
    }
   ],
   "return_type" : "_ZTIv",
   "source_file" : "out/soong/.intermediates/hardware/interfaces/drm/aidl/android.hardware.drm-V1-ndk-source/gen/include/aidl/android/hardware/drm/BpDrmFactory.h"
  },
  {
   "function_name" : "aidl::android::hardware::drm::BpDrmFactory::BpDrmFactory",
   "linker_set_key" : "_ZN4aidl7android8hardware3drm12BpDrmFactoryC2ERKN3ndk10SpAIBinderE",
   "parameters" :
   [
    {
     "is_this_ptr" : true,
     "referenced_type" : "_ZTIPN4aidl7android8hardware3drm12BpDrmFactoryE"
    },
    {
     "referenced_type" : "_ZTIRKN3ndk10SpAIBinderE"
    }
   ],
   "return_type" : "_ZTIv",
   "source_file" : "out/soong/.intermediates/hardware/interfaces/drm/aidl/android.hardware.drm-V1-ndk-source/gen/include/aidl/android/hardware/drm/BpDrmFactory.h"
  },
  {
   "function_name" : "aidl::android::hardware::drm::BpDrmFactory::~BpDrmFactory",
   "linker_set_key" : "_ZN4aidl7android8hardware3drm12BpDrmFactoryD0Ev",
   "parameters" :
   [
    {
     "is_this_ptr" : true,
     "referenced_type" : "_ZTIPN4aidl7android8hardware3drm12BpDrmFactoryE"
    }
   ],
   "return_type" : "_ZTIv",
   "source_file" : "out/soong/.intermediates/hardware/interfaces/drm/aidl/android.hardware.drm-V1-ndk-source/gen/include/aidl/android/hardware/drm/BpDrmFactory.h"
  },
  {
   "function_name" : "aidl::android::hardware::drm::BpDrmFactory::~BpDrmFactory",
   "linker_set_key" : "_ZN4aidl7android8hardware3drm12BpDrmFactoryD1Ev",
   "parameters" :
   [
    {
     "is_this_ptr" : true,
     "referenced_type" : "_ZTIPN4aidl7android8hardware3drm12BpDrmFactoryE"
    }
   ],
   "return_type" : "_ZTIv",
   "source_file" : "out/soong/.intermediates/hardware/interfaces/drm/aidl/android.hardware.drm-V1-ndk-source/gen/include/aidl/android/hardware/drm/BpDrmFactory.h"
  },
  {
   "function_name" : "aidl::android::hardware::drm::BpDrmFactory::~BpDrmFactory",
   "linker_set_key" : "_ZN4aidl7android8hardware3drm12BpDrmFactoryD2Ev",
   "parameters" :
   [
    {
     "is_this_ptr" : true,
     "referenced_type" : "_ZTIPN4aidl7android8hardware3drm12BpDrmFactoryE"
    }
   ],
   "return_type" : "_ZTIv",
   "source_file" : "out/soong/.intermediates/hardware/interfaces/drm/aidl/android.hardware.drm-V1-ndk-source/gen/include/aidl/android/hardware/drm/BpDrmFactory.h"
  },
  {
   "function_name" : "aidl::android::hardware::drm::SecureStopId::readFromParcel",
   "linker_set_key" : "_ZN4aidl7android8hardware3drm12SecureStopId14readFromParcelEPK7AParcel",
   "parameters" :
   [
    {
     "is_this_ptr" : true,
     "referenced_type" : "_ZTIPN4aidl7android8hardware3drm12SecureStopIdE"
    },
    {
     "referenced_type" : "_ZTIPK7AParcel"
    }
   ],
   "return_type" : "_ZTIi",
   "source_file" : "out/soong/.intermediates/hardware/interfaces/drm/aidl/android.hardware.drm-V1-ndk-source/gen/include/aidl/android/hardware/drm/SecureStopId.h"
  },
  {
   "function_name" : "aidl::android::hardware::drm::SharedBuffer::readFromParcel",
   "linker_set_key" : "_ZN4aidl7android8hardware3drm12SharedBuffer14readFromParcelEPK7AParcel",
   "parameters" :
   [
    {
     "is_this_ptr" : true,
     "referenced_type" : "_ZTIPN4aidl7android8hardware3drm12SharedBufferE"
    },
    {
     "referenced_type" : "_ZTIPK7AParcel"
    }
   ],
   "return_type" : "_ZTIi",
   "source_file" : "out/soong/.intermediates/hardware/interfaces/drm/aidl/android.hardware.drm-V1-ndk-source/gen/include/aidl/android/hardware/drm/SharedBuffer.h"
  },
  {
   "function_name" : "aidl::android::hardware::drm::CryptoSchemes::readFromParcel",
   "linker_set_key" : "_ZN4aidl7android8hardware3drm13CryptoSchemes14readFromParcelEPK7AParcel",
   "parameters" :
   [
    {
     "is_this_ptr" : true,
     "referenced_type" : "_ZTIPN4aidl7android8hardware3drm13CryptoSchemesE"
    },
    {
     "referenced_type" : "_ZTIPK7AParcel"
    }
   ],
   "return_type" : "_ZTIi",
   "source_file" : "out/soong/.intermediates/hardware/interfaces/drm/aidl/android.hardware.drm-V1-ndk-source/gen/include/aidl/android/hardware/drm/CryptoSchemes.h"
  },
  {
   "function_name" : "aidl::android::hardware::drm::ICryptoPlugin::fromBinder",
   "linker_set_key" : "_ZN4aidl7android8hardware3drm13ICryptoPlugin10fromBinderERKN3ndk10SpAIBinderE",
   "parameters" :
   [
    {
     "referenced_type" : "_ZTIRKN3ndk10SpAIBinderE"
    }
   ],
   "return_type" : "_ZTINSt3__110shared_ptrIN4aidl7android8hardware3drm13ICryptoPluginEEE",
   "source_file" : "out/soong/.intermediates/hardware/interfaces/drm/aidl/android.hardware.drm-V1-ndk-source/gen/include/aidl/android/hardware/drm/ICryptoPlugin.h"
  },
  {
   "function_name" : "aidl::android::hardware::drm::ICryptoPlugin::writeToParcel",
   "linker_set_key" : "_ZN4aidl7android8hardware3drm13ICryptoPlugin13writeToParcelEP7AParcelRKNSt3__110shared_ptrIS3_EE",
   "parameters" :
   [
    {
     "referenced_type" : "_ZTIP7AParcel"
    },
    {
     "referenced_type" : "_ZTIRKNSt3__110shared_ptrIN4aidl7android8hardware3drm13ICryptoPluginEEE"
    }
   ],
   "return_type" : "_ZTIi",
   "source_file" : "out/soong/.intermediates/hardware/interfaces/drm/aidl/android.hardware.drm-V1-ndk-source/gen/include/aidl/android/hardware/drm/ICryptoPlugin.h"
  },
  {
   "function_name" : "aidl::android::hardware::drm::ICryptoPlugin::getDefaultImpl",
   "linker_set_key" : "_ZN4aidl7android8hardware3drm13ICryptoPlugin14getDefaultImplEv",
   "return_type" : "_ZTIRKNSt3__110shared_ptrIN4aidl7android8hardware3drm13ICryptoPluginEEE",
   "source_file" : "out/soong/.intermediates/hardware/interfaces/drm/aidl/android.hardware.drm-V1-ndk-source/gen/include/aidl/android/hardware/drm/ICryptoPlugin.h"
  },
  {
   "function_name" : "aidl::android::hardware::drm::ICryptoPlugin::readFromParcel",
   "linker_set_key" : "_ZN4aidl7android8hardware3drm13ICryptoPlugin14readFromParcelEPK7AParcelPNSt3__110shared_ptrIS3_EE",
   "parameters" :
   [
    {
     "referenced_type" : "_ZTIPK7AParcel"
    },
    {
     "referenced_type" : "_ZTIPNSt3__110shared_ptrIN4aidl7android8hardware3drm13ICryptoPluginEEE"
    }
   ],
   "return_type" : "_ZTIi",
   "source_file" : "out/soong/.intermediates/hardware/interfaces/drm/aidl/android.hardware.drm-V1-ndk-source/gen/include/aidl/android/hardware/drm/ICryptoPlugin.h"
  },
  {
   "function_name" : "aidl::android::hardware::drm::ICryptoPlugin::setDefaultImpl",
   "linker_set_key" : "_ZN4aidl7android8hardware3drm13ICryptoPlugin14setDefaultImplERKNSt3__110shared_ptrIS3_EE",
   "parameters" :
   [
    {
     "referenced_type" : "_ZTIRKNSt3__110shared_ptrIN4aidl7android8hardware3drm13ICryptoPluginEEE"
    }
   ],
   "return_type" : "_ZTIb",
   "source_file" : "out/soong/.intermediates/hardware/interfaces/drm/aidl/android.hardware.drm-V1-ndk-source/gen/include/aidl/android/hardware/drm/ICryptoPlugin.h"
  },
  {
   "function_name" : "aidl::android::hardware::drm::ICryptoPlugin::ICryptoPlugin",
   "linker_set_key" : "_ZN4aidl7android8hardware3drm13ICryptoPluginC2Ev",
   "parameters" :
   [
    {
     "is_this_ptr" : true,
     "referenced_type" : "_ZTIPN4aidl7android8hardware3drm13ICryptoPluginE"
    }
   ],
   "return_type" : "_ZTIv",
   "source_file" : "out/soong/.intermediates/hardware/interfaces/drm/aidl/android.hardware.drm-V1-ndk-source/gen/include/aidl/android/hardware/drm/ICryptoPlugin.h"
  },
  {
   "function_name" : "aidl::android::hardware::drm::ICryptoPlugin::~ICryptoPlugin",
   "linker_set_key" : "_ZN4aidl7android8hardware3drm13ICryptoPluginD0Ev",
   "parameters" :
   [
    {
     "is_this_ptr" : true,
     "referenced_type" : "_ZTIPN4aidl7android8hardware3drm13ICryptoPluginE"
    }
   ],
   "return_type" : "_ZTIv",
   "source_file" : "out/soong/.intermediates/hardware/interfaces/drm/aidl/android.hardware.drm-V1-ndk-source/gen/include/aidl/android/hardware/drm/ICryptoPlugin.h"
  },
  {
   "function_name" : "aidl::android::hardware::drm::ICryptoPlugin::~ICryptoPlugin",
   "linker_set_key" : "_ZN4aidl7android8hardware3drm13ICryptoPluginD1Ev",
   "parameters" :
   [
    {
     "is_this_ptr" : true,
     "referenced_type" : "_ZTIPN4aidl7android8hardware3drm13ICryptoPluginE"
    }
   ],
   "return_type" : "_ZTIv",
   "source_file" : "out/soong/.intermediates/hardware/interfaces/drm/aidl/android.hardware.drm-V1-ndk-source/gen/include/aidl/android/hardware/drm/ICryptoPlugin.h"
  },
  {
   "function_name" : "aidl::android::hardware::drm::ICryptoPlugin::~ICryptoPlugin",
   "linker_set_key" : "_ZN4aidl7android8hardware3drm13ICryptoPluginD2Ev",
   "parameters" :
   [
    {
     "is_this_ptr" : true,
     "referenced_type" : "_ZTIPN4aidl7android8hardware3drm13ICryptoPluginE"
    }
   ],
   "return_type" : "_ZTIv",
   "source_file" : "out/soong/.intermediates/hardware/interfaces/drm/aidl/android.hardware.drm-V1-ndk-source/gen/include/aidl/android/hardware/drm/ICryptoPlugin.h"
  },
  {
   "access" : "protected",
   "function_name" : "aidl::android::hardware::drm::BnCryptoPlugin::createBinder",
   "linker_set_key" : "_ZN4aidl7android8hardware3drm14BnCryptoPlugin12createBinderEv",
   "parameters" :
   [
    {
     "is_this_ptr" : true,
     "referenced_type" : "_ZTIPN4aidl7android8hardware3drm14BnCryptoPluginE"
    }
   ],
   "return_type" : "_ZTIN3ndk10SpAIBinderE",
   "source_file" : "out/soong/.intermediates/hardware/interfaces/drm/aidl/android.hardware.drm-V1-ndk-source/gen/include/aidl/android/hardware/drm/BnCryptoPlugin.h"
  },
  {
   "function_name" : "aidl::android::hardware::drm::BnCryptoPlugin::getInterfaceHash",
   "linker_set_key" : "_ZN4aidl7android8hardware3drm14BnCryptoPlugin16getInterfaceHashEPNSt3__112basic_stringIcNS4_11char_traitsIcEENS4_9allocatorIcEEEE",
   "parameters" :
   [
    {
     "is_this_ptr" : true,
     "referenced_type" : "_ZTIPN4aidl7android8hardware3drm14BnCryptoPluginE"
    },
    {
     "referenced_type" : "_ZTIPNSt3__112basic_stringIcNS_11char_traitsIcEENS_9allocatorIcEEEE"
    }
   ],
   "return_type" : "_ZTIN3ndk13ScopedAStatusE",
   "source_file" : "out/soong/.intermediates/hardware/interfaces/drm/aidl/android.hardware.drm-V1-ndk-source/gen/include/aidl/android/hardware/drm/BnCryptoPlugin.h"
  },
  {
   "function_name" : "aidl::android::hardware::drm::BnCryptoPlugin::getInterfaceVersion",
   "linker_set_key" : "_ZN4aidl7android8hardware3drm14BnCryptoPlugin19getInterfaceVersionEPi",
   "parameters" :
   [
    {
     "is_this_ptr" : true,
     "referenced_type" : "_ZTIPN4aidl7android8hardware3drm14BnCryptoPluginE"
    },
    {
     "referenced_type" : "_ZTIPi"
    }
   ],
   "return_type" : "_ZTIN3ndk13ScopedAStatusE",
   "source_file" : "out/soong/.intermediates/hardware/interfaces/drm/aidl/android.hardware.drm-V1-ndk-source/gen/include/aidl/android/hardware/drm/BnCryptoPlugin.h"
  },
  {
   "function_name" : "aidl::android::hardware::drm::BnCryptoPlugin::BnCryptoPlugin",
   "linker_set_key" : "_ZN4aidl7android8hardware3drm14BnCryptoPluginC2Ev",
   "parameters" :
   [
    {
     "is_this_ptr" : true,
     "referenced_type" : "_ZTIPN4aidl7android8hardware3drm14BnCryptoPluginE"
    }
   ],
   "return_type" : "_ZTIv",
   "source_file" : "out/soong/.intermediates/hardware/interfaces/drm/aidl/android.hardware.drm-V1-ndk-source/gen/include/aidl/android/hardware/drm/BnCryptoPlugin.h"
  },
  {
   "function_name" : "aidl::android::hardware::drm::BnCryptoPlugin::~BnCryptoPlugin",
   "linker_set_key" : "_ZN4aidl7android8hardware3drm14BnCryptoPluginD0Ev",
   "parameters" :
   [
    {
     "is_this_ptr" : true,
     "referenced_type" : "_ZTIPN4aidl7android8hardware3drm14BnCryptoPluginE"
    }
   ],
   "return_type" : "_ZTIv",
   "source_file" : "out/soong/.intermediates/hardware/interfaces/drm/aidl/android.hardware.drm-V1-ndk-source/gen/include/aidl/android/hardware/drm/BnCryptoPlugin.h"
  },
  {
   "function_name" : "aidl::android::hardware::drm::BnCryptoPlugin::~BnCryptoPlugin",
   "linker_set_key" : "_ZN4aidl7android8hardware3drm14BnCryptoPluginD1Ev",
   "parameters" :
   [
    {
     "is_this_ptr" : true,
     "referenced_type" : "_ZTIPN4aidl7android8hardware3drm14BnCryptoPluginE"
    }
   ],
   "return_type" : "_ZTIv",
   "source_file" : "out/soong/.intermediates/hardware/interfaces/drm/aidl/android.hardware.drm-V1-ndk-source/gen/include/aidl/android/hardware/drm/BnCryptoPlugin.h"
  },
  {
   "function_name" : "aidl::android::hardware::drm::BnCryptoPlugin::~BnCryptoPlugin",
   "linker_set_key" : "_ZN4aidl7android8hardware3drm14BnCryptoPluginD2Ev",
   "parameters" :
   [
    {
     "is_this_ptr" : true,
     "referenced_type" : "_ZTIPN4aidl7android8hardware3drm14BnCryptoPluginE"
    }
   ],
   "return_type" : "_ZTIv",
   "source_file" : "out/soong/.intermediates/hardware/interfaces/drm/aidl/android.hardware.drm-V1-ndk-source/gen/include/aidl/android/hardware/drm/BnCryptoPlugin.h"
  },
  {
   "function_name" : "aidl::android::hardware::drm::BpCryptoPlugin::getLogMessages",
   "linker_set_key" : "_ZN4aidl7android8hardware3drm14BpCryptoPlugin14getLogMessagesEPNSt3__16vectorINS2_10LogMessageENS4_9allocatorIS6_EEEE",
   "parameters" :
   [
    {
     "is_this_ptr" : true,
     "referenced_type" : "_ZTIPN4aidl7android8hardware3drm14BpCryptoPluginE"
    },
    {
     "referenced_type" : "_ZTIPNSt3__16vectorIN4aidl7android8hardware3drm10LogMessageENS_9allocatorIS5_EEEE"
    }
   ],
   "return_type" : "_ZTIN3ndk13ScopedAStatusE",
   "source_file" : "out/soong/.intermediates/hardware/interfaces/drm/aidl/android.hardware.drm-V1-ndk-source/gen/include/aidl/android/hardware/drm/BpCryptoPlugin.h"
  },
  {
   "function_name" : "aidl::android::hardware::drm::BpCryptoPlugin::getInterfaceHash",
   "linker_set_key" : "_ZN4aidl7android8hardware3drm14BpCryptoPlugin16getInterfaceHashEPNSt3__112basic_stringIcNS4_11char_traitsIcEENS4_9allocatorIcEEEE",
   "parameters" :
   [
    {
     "is_this_ptr" : true,
     "referenced_type" : "_ZTIPN4aidl7android8hardware3drm14BpCryptoPluginE"
    },
    {
     "referenced_type" : "_ZTIPNSt3__112basic_stringIcNS_11char_traitsIcEENS_9allocatorIcEEEE"
    }
   ],
   "return_type" : "_ZTIN3ndk13ScopedAStatusE",
   "source_file" : "out/soong/.intermediates/hardware/interfaces/drm/aidl/android.hardware.drm-V1-ndk-source/gen/include/aidl/android/hardware/drm/BpCryptoPlugin.h"
  },
  {
   "function_name" : "aidl::android::hardware::drm::BpCryptoPlugin::notifyResolution",
   "linker_set_key" : "_ZN4aidl7android8hardware3drm14BpCryptoPlugin16notifyResolutionEii",
   "parameters" :
   [
    {
     "is_this_ptr" : true,
     "referenced_type" : "_ZTIPN4aidl7android8hardware3drm14BpCryptoPluginE"
    },
    {
     "referenced_type" : "_ZTIi"
    },
    {
     "referenced_type" : "_ZTIi"
    }
   ],
   "return_type" : "_ZTIN3ndk13ScopedAStatusE",
   "source_file" : "out/soong/.intermediates/hardware/interfaces/drm/aidl/android.hardware.drm-V1-ndk-source/gen/include/aidl/android/hardware/drm/BpCryptoPlugin.h"
  },
  {
   "function_name" : "aidl::android::hardware::drm::BpCryptoPlugin::setMediaDrmSession",
   "linker_set_key" : "_ZN4aidl7android8hardware3drm14BpCryptoPlugin18setMediaDrmSessionERKNSt3__16vectorIhNS4_9allocatorIhEEEE",
   "parameters" :
   [
    {
     "is_this_ptr" : true,
     "referenced_type" : "_ZTIPN4aidl7android8hardware3drm14BpCryptoPluginE"
    },
    {
     "referenced_type" : "_ZTIRKNSt3__16vectorIhNS_9allocatorIhEEEE"
    }
   ],
   "return_type" : "_ZTIN3ndk13ScopedAStatusE",
   "source_file" : "out/soong/.intermediates/hardware/interfaces/drm/aidl/android.hardware.drm-V1-ndk-source/gen/include/aidl/android/hardware/drm/BpCryptoPlugin.h"
  },
  {
   "function_name" : "aidl::android::hardware::drm::BpCryptoPlugin::getInterfaceVersion",
   "linker_set_key" : "_ZN4aidl7android8hardware3drm14BpCryptoPlugin19getInterfaceVersionEPi",
   "parameters" :
   [
    {
     "is_this_ptr" : true,
     "referenced_type" : "_ZTIPN4aidl7android8hardware3drm14BpCryptoPluginE"
    },
    {
     "referenced_type" : "_ZTIPi"
    }
   ],
   "return_type" : "_ZTIN3ndk13ScopedAStatusE",
   "source_file" : "out/soong/.intermediates/hardware/interfaces/drm/aidl/android.hardware.drm-V1-ndk-source/gen/include/aidl/android/hardware/drm/BpCryptoPlugin.h"
  },
  {
   "function_name" : "aidl::android::hardware::drm::BpCryptoPlugin::setSharedBufferBase",
   "linker_set_key" : "_ZN4aidl7android8hardware3drm14BpCryptoPlugin19setSharedBufferBaseERKNS2_12SharedBufferE",
   "parameters" :
   [
    {
     "is_this_ptr" : true,
     "referenced_type" : "_ZTIPN4aidl7android8hardware3drm14BpCryptoPluginE"
    },
    {
     "referenced_type" : "_ZTIRKN4aidl7android8hardware3drm12SharedBufferE"
    }
   ],
   "return_type" : "_ZTIN3ndk13ScopedAStatusE",
   "source_file" : "out/soong/.intermediates/hardware/interfaces/drm/aidl/android.hardware.drm-V1-ndk-source/gen/include/aidl/android/hardware/drm/BpCryptoPlugin.h"
  },
  {
   "function_name" : "aidl::android::hardware::drm::BpCryptoPlugin::requiresSecureDecoderComponent",
   "linker_set_key" : "_ZN4aidl7android8hardware3drm14BpCryptoPlugin30requiresSecureDecoderComponentERKNSt3__112basic_stringIcNS4_11char_traitsIcEENS4_9allocatorIcEEEEPb",
   "parameters" :
   [
    {
     "is_this_ptr" : true,
     "referenced_type" : "_ZTIPN4aidl7android8hardware3drm14BpCryptoPluginE"
    },
    {
     "referenced_type" : "_ZTIRKNSt3__112basic_stringIcNS_11char_traitsIcEENS_9allocatorIcEEEE"
    },
    {
     "referenced_type" : "_ZTIPb"
    }
   ],
   "return_type" : "_ZTIN3ndk13ScopedAStatusE",
   "source_file" : "out/soong/.intermediates/hardware/interfaces/drm/aidl/android.hardware.drm-V1-ndk-source/gen/include/aidl/android/hardware/drm/BpCryptoPlugin.h"
  },
  {
   "function_name" : "aidl::android::hardware::drm::BpCryptoPlugin::decrypt",
   "linker_set_key" : "_ZN4aidl7android8hardware3drm14BpCryptoPlugin7decryptERKNS2_11DecryptArgsEPi",
   "parameters" :
   [
    {
     "is_this_ptr" : true,
     "referenced_type" : "_ZTIPN4aidl7android8hardware3drm14BpCryptoPluginE"
    },
    {
     "referenced_type" : "_ZTIRKN4aidl7android8hardware3drm11DecryptArgsE"
    },
    {
     "referenced_type" : "_ZTIPi"
    }
   ],
   "return_type" : "_ZTIN3ndk13ScopedAStatusE",
   "source_file" : "out/soong/.intermediates/hardware/interfaces/drm/aidl/android.hardware.drm-V1-ndk-source/gen/include/aidl/android/hardware/drm/BpCryptoPlugin.h"
  },
  {
   "function_name" : "aidl::android::hardware::drm::BpCryptoPlugin::BpCryptoPlugin",
   "linker_set_key" : "_ZN4aidl7android8hardware3drm14BpCryptoPluginC1ERKN3ndk10SpAIBinderE",
   "parameters" :
   [
    {
     "is_this_ptr" : true,
     "referenced_type" : "_ZTIPN4aidl7android8hardware3drm14BpCryptoPluginE"
    },
    {
     "referenced_type" : "_ZTIRKN3ndk10SpAIBinderE"
    }
   ],
   "return_type" : "_ZTIv",
   "source_file" : "out/soong/.intermediates/hardware/interfaces/drm/aidl/android.hardware.drm-V1-ndk-source/gen/include/aidl/android/hardware/drm/BpCryptoPlugin.h"
  },
  {
   "function_name" : "aidl::android::hardware::drm::BpCryptoPlugin::BpCryptoPlugin",
   "linker_set_key" : "_ZN4aidl7android8hardware3drm14BpCryptoPluginC2ERKN3ndk10SpAIBinderE",
   "parameters" :
   [
    {
     "is_this_ptr" : true,
     "referenced_type" : "_ZTIPN4aidl7android8hardware3drm14BpCryptoPluginE"
    },
    {
     "referenced_type" : "_ZTIRKN3ndk10SpAIBinderE"
    }
   ],
   "return_type" : "_ZTIv",
   "source_file" : "out/soong/.intermediates/hardware/interfaces/drm/aidl/android.hardware.drm-V1-ndk-source/gen/include/aidl/android/hardware/drm/BpCryptoPlugin.h"
  },
  {
   "function_name" : "aidl::android::hardware::drm::BpCryptoPlugin::~BpCryptoPlugin",
   "linker_set_key" : "_ZN4aidl7android8hardware3drm14BpCryptoPluginD0Ev",
   "parameters" :
   [
    {
     "is_this_ptr" : true,
     "referenced_type" : "_ZTIPN4aidl7android8hardware3drm14BpCryptoPluginE"
    }
   ],
   "return_type" : "_ZTIv",
   "source_file" : "out/soong/.intermediates/hardware/interfaces/drm/aidl/android.hardware.drm-V1-ndk-source/gen/include/aidl/android/hardware/drm/BpCryptoPlugin.h"
  },
  {
   "function_name" : "aidl::android::hardware::drm::BpCryptoPlugin::~BpCryptoPlugin",
   "linker_set_key" : "_ZN4aidl7android8hardware3drm14BpCryptoPluginD1Ev",
   "parameters" :
   [
    {
     "is_this_ptr" : true,
     "referenced_type" : "_ZTIPN4aidl7android8hardware3drm14BpCryptoPluginE"
    }
   ],
   "return_type" : "_ZTIv",
   "source_file" : "out/soong/.intermediates/hardware/interfaces/drm/aidl/android.hardware.drm-V1-ndk-source/gen/include/aidl/android/hardware/drm/BpCryptoPlugin.h"
  },
  {
   "function_name" : "aidl::android::hardware::drm::BpCryptoPlugin::~BpCryptoPlugin",
   "linker_set_key" : "_ZN4aidl7android8hardware3drm14BpCryptoPluginD2Ev",
   "parameters" :
   [
    {
     "is_this_ptr" : true,
     "referenced_type" : "_ZTIPN4aidl7android8hardware3drm14BpCryptoPluginE"
    }
   ],
   "return_type" : "_ZTIv",
   "source_file" : "out/soong/.intermediates/hardware/interfaces/drm/aidl/android.hardware.drm-V1-ndk-source/gen/include/aidl/android/hardware/drm/BpCryptoPlugin.h"
  },
  {
   "function_name" : "aidl::android::hardware::drm::DrmMetricGroup::readFromParcel",
   "linker_set_key" : "_ZN4aidl7android8hardware3drm14DrmMetricGroup14readFromParcelEPK7AParcel",
   "parameters" :
   [
    {
     "is_this_ptr" : true,
     "referenced_type" : "_ZTIPN4aidl7android8hardware3drm14DrmMetricGroupE"
    },
    {
     "referenced_type" : "_ZTIPK7AParcel"
    }
   ],
   "return_type" : "_ZTIi",
   "source_file" : "out/soong/.intermediates/hardware/interfaces/drm/aidl/android.hardware.drm-V1-ndk-source/gen/include/aidl/android/hardware/drm/DrmMetricGroup.h"
  },
  {
   "function_name" : "aidl::android::hardware::drm::DrmMetricValue::readFromParcel",
   "linker_set_key" : "_ZN4aidl7android8hardware3drm14DrmMetricValue14readFromParcelEPK7AParcel",
   "parameters" :
   [
    {
     "is_this_ptr" : true,
     "referenced_type" : "_ZTIPN4aidl7android8hardware3drm14DrmMetricValueE"
    },
    {
     "referenced_type" : "_ZTIPK7AParcel"
    }
   ],
   "return_type" : "_ZTIi",
   "source_file" : "out/soong/.intermediates/hardware/interfaces/drm/aidl/android.hardware.drm-V1-ndk-source/gen/include/aidl/android/hardware/drm/DrmMetricValue.h"
  },
  {
   "function_name" : "aidl::android::hardware::drm::NumberOfSessions::readFromParcel",
   "linker_set_key" : "_ZN4aidl7android8hardware3drm16NumberOfSessions14readFromParcelEPK7AParcel",
   "parameters" :
   [
    {
     "is_this_ptr" : true,
     "referenced_type" : "_ZTIPN4aidl7android8hardware3drm16NumberOfSessionsE"
    },
    {
     "referenced_type" : "_ZTIPK7AParcel"
    }
   ],
   "return_type" : "_ZTIi",
   "source_file" : "out/soong/.intermediates/hardware/interfaces/drm/aidl/android.hardware.drm-V1-ndk-source/gen/include/aidl/android/hardware/drm/NumberOfSessions.h"
  },
  {
   "function_name" : "aidl::android::hardware::drm::ProvisionRequest::readFromParcel",
   "linker_set_key" : "_ZN4aidl7android8hardware3drm16ProvisionRequest14readFromParcelEPK7AParcel",
   "parameters" :
   [
    {
     "is_this_ptr" : true,
     "referenced_type" : "_ZTIPN4aidl7android8hardware3drm16ProvisionRequestE"
    },
    {
     "referenced_type" : "_ZTIPK7AParcel"
    }
   ],
   "return_type" : "_ZTIi",
   "source_file" : "out/soong/.intermediates/hardware/interfaces/drm/aidl/android.hardware.drm-V1-ndk-source/gen/include/aidl/android/hardware/drm/ProvisionRequest.h"
  },
  {
   "function_name" : "aidl::android::hardware::drm::DestinationBuffer::readFromParcel",
   "linker_set_key" : "_ZN4aidl7android8hardware3drm17DestinationBuffer14readFromParcelEPK7AParcel",
   "parameters" :
   [
    {
     "is_this_ptr" : true,
     "referenced_type" : "_ZTIPN4aidl7android8hardware3drm17DestinationBufferE"
    },
    {
     "referenced_type" : "_ZTIPK7AParcel"
    }
   ],
   "return_type" : "_ZTIi",
   "source_file" : "out/soong/.intermediates/hardware/interfaces/drm/aidl/android.hardware.drm-V1-ndk-source/gen/include/aidl/android/hardware/drm/DestinationBuffer.h"
  },
  {
   "function_name" : "aidl::android::hardware::drm::IDrmPluginDefault::getMetrics",
   "linker_set_key" : "_ZN4aidl7android8hardware3drm17IDrmPluginDefault10getMetricsEPNSt3__16vectorINS2_14DrmMetricGroupENS4_9allocatorIS6_EEEE",
   "parameters" :
   [
    {
     "is_this_ptr" : true,
     "referenced_type" : "_ZTIPN4aidl7android8hardware3drm17IDrmPluginDefaultE"
    },
    {
     "referenced_type" : "_ZTIPNSt3__16vectorIN4aidl7android8hardware3drm14DrmMetricGroupENS_9allocatorIS5_EEEE"
    }
   ],
   "return_type" : "_ZTIN3ndk13ScopedAStatusE",
   "source_file" : "out/soong/.intermediates/hardware/interfaces/drm/aidl/android.hardware.drm-V1-ndk-source/gen/include/aidl/android/hardware/drm/IDrmPlugin.h"
  },
  {
   "function_name" : "aidl::android::hardware::drm::IDrmPluginDefault::removeKeys",
   "linker_set_key" : "_ZN4aidl7android8hardware3drm17IDrmPluginDefault10removeKeysERKNSt3__16vectorIhNS4_9allocatorIhEEEE",
   "parameters" :
   [
    {
     "is_this_ptr" : true,
     "referenced_type" : "_ZTIPN4aidl7android8hardware3drm17IDrmPluginDefaultE"
    },
    {
     "referenced_type" : "_ZTIRKNSt3__16vectorIhNS_9allocatorIhEEEE"
    }
   ],
   "return_type" : "_ZTIN3ndk13ScopedAStatusE",
   "source_file" : "out/soong/.intermediates/hardware/interfaces/drm/aidl/android.hardware.drm-V1-ndk-source/gen/include/aidl/android/hardware/drm/IDrmPlugin.h"
  },
  {
   "function_name" : "aidl::android::hardware::drm::IDrmPluginDefault::openSession",
   "linker_set_key" : "_ZN4aidl7android8hardware3drm17IDrmPluginDefault11openSessionENS2_13SecurityLevelEPNSt3__16vectorIhNS5_9allocatorIhEEEE",
   "parameters" :
   [
    {
     "is_this_ptr" : true,
     "referenced_type" : "_ZTIPN4aidl7android8hardware3drm17IDrmPluginDefaultE"
    },
    {
     "referenced_type" : "_ZTIN4aidl7android8hardware3drm13SecurityLevelE"
    },
    {
     "referenced_type" : "_ZTIPNSt3__16vectorIhNS_9allocatorIhEEEE"
    }
   ],
   "return_type" : "_ZTIN3ndk13ScopedAStatusE",
   "source_file" : "out/soong/.intermediates/hardware/interfaces/drm/aidl/android.hardware.drm-V1-ndk-source/gen/include/aidl/android/hardware/drm/IDrmPlugin.h"
  },
  {
   "function_name" : "aidl::android::hardware::drm::IDrmPluginDefault::restoreKeys",
   "linker_set_key" : "_ZN4aidl7android8hardware3drm17IDrmPluginDefault11restoreKeysERKNSt3__16vectorIhNS4_9allocatorIhEEEERKNS2_8KeySetIdE",
   "parameters" :
   [
    {
     "is_this_ptr" : true,
     "referenced_type" : "_ZTIPN4aidl7android8hardware3drm17IDrmPluginDefaultE"
    },
    {
     "referenced_type" : "_ZTIRKNSt3__16vectorIhNS_9allocatorIhEEEE"
    },
    {
     "referenced_type" : "_ZTIRKN4aidl7android8hardware3drm8KeySetIdE"
    }
   ],
   "return_type" : "_ZTIN3ndk13ScopedAStatusE",
   "source_file" : "out/soong/.intermediates/hardware/interfaces/drm/aidl/android.hardware.drm-V1-ndk-source/gen/include/aidl/android/hardware/drm/IDrmPlugin.h"
  },
  {
   "function_name" : "aidl::android::hardware::drm::IDrmPluginDefault::setListener",
   "linker_set_key" : "_ZN4aidl7android8hardware3drm17IDrmPluginDefault11setListenerERKNSt3__110shared_ptrINS2_18IDrmPluginListenerEEE",
   "parameters" :
   [
    {
     "is_this_ptr" : true,
     "referenced_type" : "_ZTIPN4aidl7android8hardware3drm17IDrmPluginDefaultE"
    },
    {
     "referenced_type" : "_ZTIRKNSt3__110shared_ptrIN4aidl7android8hardware3drm18IDrmPluginListenerEEE"
    }
   ],
   "return_type" : "_ZTIN3ndk13ScopedAStatusE",
   "source_file" : "out/soong/.intermediates/hardware/interfaces/drm/aidl/android.hardware.drm-V1-ndk-source/gen/include/aidl/android/hardware/drm/IDrmPlugin.h"
  },
  {
   "function_name" : "aidl::android::hardware::drm::IDrmPluginDefault::closeSession",
   "linker_set_key" : "_ZN4aidl7android8hardware3drm17IDrmPluginDefault12closeSessionERKNSt3__16vectorIhNS4_9allocatorIhEEEE",
   "parameters" :
   [
    {
     "is_this_ptr" : true,
     "referenced_type" : "_ZTIPN4aidl7android8hardware3drm17IDrmPluginDefaultE"
    },
    {
     "referenced_type" : "_ZTIRKNSt3__16vectorIhNS_9allocatorIhEEEE"
    }
   ],
   "return_type" : "_ZTIN3ndk13ScopedAStatusE",
   "source_file" : "out/soong/.intermediates/hardware/interfaces/drm/aidl/android.hardware.drm-V1-ndk-source/gen/include/aidl/android/hardware/drm/IDrmPlugin.h"
  },
  {
   "function_name" : "aidl::android::hardware::drm::IDrmPluginDefault::getHdcpLevels",
   "linker_set_key" : "_ZN4aidl7android8hardware3drm17IDrmPluginDefault13getHdcpLevelsEPNS2_10HdcpLevelsE",
   "parameters" :
   [
    {
     "is_this_ptr" : true,
     "referenced_type" : "_ZTIPN4aidl7android8hardware3drm17IDrmPluginDefaultE"
    },
    {
     "referenced_type" : "_ZTIPN4aidl7android8hardware3drm10HdcpLevelsE"
    }
   ],
   "return_type" : "_ZTIN3ndk13ScopedAStatusE",
   "source_file" : "out/soong/.intermediates/hardware/interfaces/drm/aidl/android.hardware.drm-V1-ndk-source/gen/include/aidl/android/hardware/drm/IDrmPlugin.h"
  },
  {
   "function_name" : "aidl::android::hardware::drm::IDrmPluginDefault::getKeyRequest",
   "linker_set_key" : "_ZN4aidl7android8hardware3drm17IDrmPluginDefault13getKeyRequestERKNSt3__16vectorIhNS4_9allocatorIhEEEESA_RKNS4_12basic_stringIcNS4_11char_traitsIcEENS6_IcEEEENS2_7KeyTypeERKNS5_INS2_8KeyValueENS6_ISJ_EEEEPNS2_10KeyRequestE",
   "parameters" :
   [
    {
     "is_this_ptr" : true,
     "referenced_type" : "_ZTIPN4aidl7android8hardware3drm17IDrmPluginDefaultE"
    },
    {
     "referenced_type" : "_ZTIRKNSt3__16vectorIhNS_9allocatorIhEEEE"
    },
    {
     "referenced_type" : "_ZTIRKNSt3__16vectorIhNS_9allocatorIhEEEE"
    },
    {
     "referenced_type" : "_ZTIRKNSt3__112basic_stringIcNS_11char_traitsIcEENS_9allocatorIcEEEE"
    },
    {
     "referenced_type" : "_ZTIN4aidl7android8hardware3drm7KeyTypeE"
    },
    {
     "referenced_type" : "_ZTIRKNSt3__16vectorIN4aidl7android8hardware3drm8KeyValueENS_9allocatorIS5_EEEE"
    },
    {
     "referenced_type" : "_ZTIPN4aidl7android8hardware3drm10KeyRequestE"
    }
   ],
   "return_type" : "_ZTIN3ndk13ScopedAStatusE",
   "source_file" : "out/soong/.intermediates/hardware/interfaces/drm/aidl/android.hardware.drm-V1-ndk-source/gen/include/aidl/android/hardware/drm/IDrmPlugin.h"
  },
  {
   "function_name" : "aidl::android::hardware::drm::IDrmPluginDefault::getSecureStop",
   "linker_set_key" : "_ZN4aidl7android8hardware3drm17IDrmPluginDefault13getSecureStopERKNS2_12SecureStopIdEPNS2_10SecureStopE",
   "parameters" :
   [
    {
     "is_this_ptr" : true,
     "referenced_type" : "_ZTIPN4aidl7android8hardware3drm17IDrmPluginDefaultE"
    },
    {
     "referenced_type" : "_ZTIRKN4aidl7android8hardware3drm12SecureStopIdE"
    },
    {
     "referenced_type" : "_ZTIPN4aidl7android8hardware3drm10SecureStopE"
    }
   ],
   "return_type" : "_ZTIN3ndk13ScopedAStatusE",
   "source_file" : "out/soong/.intermediates/hardware/interfaces/drm/aidl/android.hardware.drm-V1-ndk-source/gen/include/aidl/android/hardware/drm/IDrmPlugin.h"
  },
  {
   "function_name" : "aidl::android::hardware::drm::IDrmPluginDefault::setPlaybackId",
   "linker_set_key" : "_ZN4aidl7android8hardware3drm17IDrmPluginDefault13setPlaybackIdERKNSt3__16vectorIhNS4_9allocatorIhEEEERKNS4_12basic_stringIcNS4_11char_traitsIcEENS6_IcEEEE",
   "parameters" :
   [
    {
     "is_this_ptr" : true,
     "referenced_type" : "_ZTIPN4aidl7android8hardware3drm17IDrmPluginDefaultE"
    },
    {
     "referenced_type" : "_ZTIRKNSt3__16vectorIhNS_9allocatorIhEEEE"
    },
    {
     "referenced_type" : "_ZTIRKNSt3__112basic_stringIcNS_11char_traitsIcEENS_9allocatorIcEEEE"
    }
   ],
   "return_type" : "_ZTIN3ndk13ScopedAStatusE",
   "source_file" : "out/soong/.intermediates/hardware/interfaces/drm/aidl/android.hardware.drm-V1-ndk-source/gen/include/aidl/android/hardware/drm/IDrmPlugin.h"
  },
  {
   "function_name" : "aidl::android::hardware::drm::IDrmPluginDefault::getLogMessages",
   "linker_set_key" : "_ZN4aidl7android8hardware3drm17IDrmPluginDefault14getLogMessagesEPNSt3__16vectorINS2_10LogMessageENS4_9allocatorIS6_EEEE",
   "parameters" :
   [
    {
     "is_this_ptr" : true,
     "referenced_type" : "_ZTIPN4aidl7android8hardware3drm17IDrmPluginDefaultE"
    },
    {
     "referenced_type" : "_ZTIPNSt3__16vectorIN4aidl7android8hardware3drm10LogMessageENS_9allocatorIS5_EEEE"
    }
   ],
   "return_type" : "_ZTIN3ndk13ScopedAStatusE",
   "source_file" : "out/soong/.intermediates/hardware/interfaces/drm/aidl/android.hardware.drm-V1-ndk-source/gen/include/aidl/android/hardware/drm/IDrmPlugin.h"
  },
  {
   "function_name" : "aidl::android::hardware::drm::IDrmPluginDefault::getSecureStops",
   "linker_set_key" : "_ZN4aidl7android8hardware3drm17IDrmPluginDefault14getSecureStopsEPNSt3__16vectorINS2_10SecureStopENS4_9allocatorIS6_EEEE",
   "parameters" :
   [
    {
     "is_this_ptr" : true,
     "referenced_type" : "_ZTIPN4aidl7android8hardware3drm17IDrmPluginDefaultE"
    },
    {
     "referenced_type" : "_ZTIPNSt3__16vectorIN4aidl7android8hardware3drm10SecureStopENS_9allocatorIS5_EEEE"
    }
   ],
   "return_type" : "_ZTIN3ndk13ScopedAStatusE",
   "source_file" : "out/soong/.intermediates/hardware/interfaces/drm/aidl/android.hardware.drm-V1-ndk-source/gen/include/aidl/android/hardware/drm/IDrmPlugin.h"
  },
  {
   "function_name" : "aidl::android::hardware::drm::IDrmPluginDefault::queryKeyStatus",
   "linker_set_key" : "_ZN4aidl7android8hardware3drm17IDrmPluginDefault14queryKeyStatusERKNSt3__16vectorIhNS4_9allocatorIhEEEEPNS5_INS2_8KeyValueENS6_ISB_EEEE",
   "parameters" :
   [
    {
     "is_this_ptr" : true,
     "referenced_type" : "_ZTIPN4aidl7android8hardware3drm17IDrmPluginDefaultE"
    },
    {
     "referenced_type" : "_ZTIRKNSt3__16vectorIhNS_9allocatorIhEEEE"
    },
    {
     "referenced_type" : "_ZTIPNSt3__16vectorIN4aidl7android8hardware3drm8KeyValueENS_9allocatorIS5_EEEE"
    }
   ],
   "return_type" : "_ZTIN3ndk13ScopedAStatusE",
   "source_file" : "out/soong/.intermediates/hardware/interfaces/drm/aidl/android.hardware.drm-V1-ndk-source/gen/include/aidl/android/hardware/drm/IDrmPlugin.h"
  },
  {
   "function_name" : "aidl::android::hardware::drm::IDrmPluginDefault::setMacAlgorithm",
   "linker_set_key" : "_ZN4aidl7android8hardware3drm17IDrmPluginDefault15setMacAlgorithmERKNSt3__16vectorIhNS4_9allocatorIhEEEERKNS4_12basic_stringIcNS4_11char_traitsIcEENS6_IcEEEE",
   "parameters" :
   [
    {
     "is_this_ptr" : true,
     "referenced_type" : "_ZTIPN4aidl7android8hardware3drm17IDrmPluginDefaultE"
    },
    {
     "referenced_type" : "_ZTIRKNSt3__16vectorIhNS_9allocatorIhEEEE"
    },
    {
     "referenced_type" : "_ZTIRKNSt3__112basic_stringIcNS_11char_traitsIcEENS_9allocatorIcEEEE"
    }
   ],
   "return_type" : "_ZTIN3ndk13ScopedAStatusE",
   "source_file" : "out/soong/.intermediates/hardware/interfaces/drm/aidl/android.hardware.drm-V1-ndk-source/gen/include/aidl/android/hardware/drm/IDrmPlugin.h"
  },
  {
   "function_name" : "aidl::android::hardware::drm::IDrmPluginDefault::getInterfaceHash",
   "linker_set_key" : "_ZN4aidl7android8hardware3drm17IDrmPluginDefault16getInterfaceHashEPNSt3__112basic_stringIcNS4_11char_traitsIcEENS4_9allocatorIcEEEE",
   "parameters" :
   [
    {
     "is_this_ptr" : true,
     "referenced_type" : "_ZTIPN4aidl7android8hardware3drm17IDrmPluginDefaultE"
    },
    {
     "referenced_type" : "_ZTIPNSt3__112basic_stringIcNS_11char_traitsIcEENS_9allocatorIcEEEE"
    }
   ],
   "return_type" : "_ZTIN3ndk13ScopedAStatusE",
   "source_file" : "out/soong/.intermediates/hardware/interfaces/drm/aidl/android.hardware.drm-V1-ndk-source/gen/include/aidl/android/hardware/drm/IDrmPlugin.h"
  },
  {
   "function_name" : "aidl::android::hardware::drm::IDrmPluginDefault::getSecureStopIds",
   "linker_set_key" : "_ZN4aidl7android8hardware3drm17IDrmPluginDefault16getSecureStopIdsEPNSt3__16vectorINS2_12SecureStopIdENS4_9allocatorIS6_EEEE",
   "parameters" :
   [
    {
     "is_this_ptr" : true,
     "referenced_type" : "_ZTIPN4aidl7android8hardware3drm17IDrmPluginDefaultE"
    },
    {
     "referenced_type" : "_ZTIPNSt3__16vectorIN4aidl7android8hardware3drm12SecureStopIdENS_9allocatorIS5_EEEE"
    }
   ],
   "return_type" : "_ZTIN3ndk13ScopedAStatusE",
   "source_file" : "out/soong/.intermediates/hardware/interfaces/drm/aidl/android.hardware.drm-V1-ndk-source/gen/include/aidl/android/hardware/drm/IDrmPlugin.h"
  },
  {
   "function_name" : "aidl::android::hardware::drm::IDrmPluginDefault::getSecurityLevel",
   "linker_set_key" : "_ZN4aidl7android8hardware3drm17IDrmPluginDefault16getSecurityLevelERKNSt3__16vectorIhNS4_9allocatorIhEEEEPNS2_13SecurityLevelE",
   "parameters" :
   [
    {
     "is_this_ptr" : true,
     "referenced_type" : "_ZTIPN4aidl7android8hardware3drm17IDrmPluginDefaultE"
    },
    {
     "referenced_type" : "_ZTIRKNSt3__16vectorIhNS_9allocatorIhEEEE"
    },
    {
     "referenced_type" : "_ZTIPN4aidl7android8hardware3drm13SecurityLevelE"
    }
   ],
   "return_type" : "_ZTIN3ndk13ScopedAStatusE",
   "source_file" : "out/soong/.intermediates/hardware/interfaces/drm/aidl/android.hardware.drm-V1-ndk-source/gen/include/aidl/android/hardware/drm/IDrmPlugin.h"
  },
  {
   "function_name" : "aidl::android::hardware::drm::IDrmPluginDefault::removeSecureStop",
   "linker_set_key" : "_ZN4aidl7android8hardware3drm17IDrmPluginDefault16removeSecureStopERKNS2_12SecureStopIdE",
   "parameters" :
   [
    {
     "is_this_ptr" : true,
     "referenced_type" : "_ZTIPN4aidl7android8hardware3drm17IDrmPluginDefaultE"
    },
    {
     "referenced_type" : "_ZTIRKN4aidl7android8hardware3drm12SecureStopIdE"
    }
   ],
   "return_type" : "_ZTIN3ndk13ScopedAStatusE",
   "source_file" : "out/soong/.intermediates/hardware/interfaces/drm/aidl/android.hardware.drm-V1-ndk-source/gen/include/aidl/android/hardware/drm/IDrmPlugin.h"
  },
  {
   "function_name" : "aidl::android::hardware::drm::IDrmPluginDefault::getPropertyString",
   "linker_set_key" : "_ZN4aidl7android8hardware3drm17IDrmPluginDefault17getPropertyStringERKNSt3__112basic_stringIcNS4_11char_traitsIcEENS4_9allocatorIcEEEEPSA_",
   "parameters" :
   [
    {
     "is_this_ptr" : true,
     "referenced_type" : "_ZTIPN4aidl7android8hardware3drm17IDrmPluginDefaultE"
    },
    {
     "referenced_type" : "_ZTIRKNSt3__112basic_stringIcNS_11char_traitsIcEENS_9allocatorIcEEEE"
    },
    {
     "referenced_type" : "_ZTIPNSt3__112basic_stringIcNS_11char_traitsIcEENS_9allocatorIcEEEE"
    }
   ],
   "return_type" : "_ZTIN3ndk13ScopedAStatusE",
   "source_file" : "out/soong/.intermediates/hardware/interfaces/drm/aidl/android.hardware.drm-V1-ndk-source/gen/include/aidl/android/hardware/drm/IDrmPlugin.h"
  },
  {
   "function_name" : "aidl::android::hardware::drm::IDrmPluginDefault::releaseSecureStop",
   "linker_set_key" : "_ZN4aidl7android8hardware3drm17IDrmPluginDefault17releaseSecureStopERKNS2_12SecureStopIdE",
   "parameters" :
   [
    {
     "is_this_ptr" : true,
     "referenced_type" : "_ZTIPN4aidl7android8hardware3drm17IDrmPluginDefaultE"
    },
    {
     "referenced_type" : "_ZTIRKN4aidl7android8hardware3drm12SecureStopIdE"
    }
   ],
   "return_type" : "_ZTIN3ndk13ScopedAStatusE",
   "source_file" : "out/soong/.intermediates/hardware/interfaces/drm/aidl/android.hardware.drm-V1-ndk-source/gen/include/aidl/android/hardware/drm/IDrmPlugin.h"
  },
  {
   "function_name" : "aidl::android::hardware::drm::IDrmPluginDefault::setPropertyString",
   "linker_set_key" : "_ZN4aidl7android8hardware3drm17IDrmPluginDefault17setPropertyStringERKNSt3__112basic_stringIcNS4_11char_traitsIcEENS4_9allocatorIcEEEESC_",
   "parameters" :
   [
    {
     "is_this_ptr" : true,
     "referenced_type" : "_ZTIPN4aidl7android8hardware3drm17IDrmPluginDefaultE"
    },
    {
     "referenced_type" : "_ZTIRKNSt3__112basic_stringIcNS_11char_traitsIcEENS_9allocatorIcEEEE"
    },
    {
     "referenced_type" : "_ZTIRKNSt3__112basic_stringIcNS_11char_traitsIcEENS_9allocatorIcEEEE"
    }
   ],
   "return_type" : "_ZTIN3ndk13ScopedAStatusE",
   "source_file" : "out/soong/.intermediates/hardware/interfaces/drm/aidl/android.hardware.drm-V1-ndk-source/gen/include/aidl/android/hardware/drm/IDrmPlugin.h"
  },
  {
   "function_name" : "aidl::android::hardware::drm::IDrmPluginDefault::provideKeyResponse",
   "linker_set_key" : "_ZN4aidl7android8hardware3drm17IDrmPluginDefault18provideKeyResponseERKNSt3__16vectorIhNS4_9allocatorIhEEEESA_PNS2_8KeySetIdE",
   "parameters" :
   [
    {
     "is_this_ptr" : true,
     "referenced_type" : "_ZTIPN4aidl7android8hardware3drm17IDrmPluginDefaultE"
    },
    {
     "referenced_type" : "_ZTIRKNSt3__16vectorIhNS_9allocatorIhEEEE"
    },
    {
     "referenced_type" : "_ZTIRKNSt3__16vectorIhNS_9allocatorIhEEEE"
    },
    {
     "referenced_type" : "_ZTIPN4aidl7android8hardware3drm8KeySetIdE"
    }
   ],
   "return_type" : "_ZTIN3ndk13ScopedAStatusE",
   "source_file" : "out/soong/.intermediates/hardware/interfaces/drm/aidl/android.hardware.drm-V1-ndk-source/gen/include/aidl/android/hardware/drm/IDrmPlugin.h"
  },
  {
   "function_name" : "aidl::android::hardware::drm::IDrmPluginDefault::releaseSecureStops",
   "linker_set_key" : "_ZN4aidl7android8hardware3drm17IDrmPluginDefault18releaseSecureStopsERKNS2_10OpaqueDataE",
   "parameters" :
   [
    {
     "is_this_ptr" : true,
     "referenced_type" : "_ZTIPN4aidl7android8hardware3drm17IDrmPluginDefaultE"
    },
    {
     "referenced_type" : "_ZTIRKN4aidl7android8hardware3drm10OpaqueDataE"
    }
   ],
   "return_type" : "_ZTIN3ndk13ScopedAStatusE",
   "source_file" : "out/soong/.intermediates/hardware/interfaces/drm/aidl/android.hardware.drm-V1-ndk-source/gen/include/aidl/android/hardware/drm/IDrmPlugin.h"
  },
  {
   "function_name" : "aidl::android::hardware::drm::IDrmPluginDefault::setCipherAlgorithm",
   "linker_set_key" : "_ZN4aidl7android8hardware3drm17IDrmPluginDefault18setCipherAlgorithmERKNSt3__16vectorIhNS4_9allocatorIhEEEERKNS4_12basic_stringIcNS4_11char_traitsIcEENS6_IcEEEE",
   "parameters" :
   [
    {
     "is_this_ptr" : true,
     "referenced_type" : "_ZTIPN4aidl7android8hardware3drm17IDrmPluginDefaultE"
    },
    {
     "referenced_type" : "_ZTIRKNSt3__16vectorIhNS_9allocatorIhEEEE"
    },
    {
     "referenced_type" : "_ZTIRKNSt3__112basic_stringIcNS_11char_traitsIcEENS_9allocatorIcEEEE"
    }
   ],
   "return_type" : "_ZTIN3ndk13ScopedAStatusE",
   "source_file" : "out/soong/.intermediates/hardware/interfaces/drm/aidl/android.hardware.drm-V1-ndk-source/gen/include/aidl/android/hardware/drm/IDrmPlugin.h"
  },
  {
   "function_name" : "aidl::android::hardware::drm::IDrmPluginDefault::getInterfaceVersion",
   "linker_set_key" : "_ZN4aidl7android8hardware3drm17IDrmPluginDefault19getInterfaceVersionEPi",
   "parameters" :
   [
    {
     "is_this_ptr" : true,
     "referenced_type" : "_ZTIPN4aidl7android8hardware3drm17IDrmPluginDefaultE"
    },
    {
     "referenced_type" : "_ZTIPi"
    }
   ],
   "return_type" : "_ZTIN3ndk13ScopedAStatusE",
   "source_file" : "out/soong/.intermediates/hardware/interfaces/drm/aidl/android.hardware.drm-V1-ndk-source/gen/include/aidl/android/hardware/drm/IDrmPlugin.h"
  },
  {
   "function_name" : "aidl::android::hardware::drm::IDrmPluginDefault::getNumberOfSessions",
   "linker_set_key" : "_ZN4aidl7android8hardware3drm17IDrmPluginDefault19getNumberOfSessionsEPNS2_16NumberOfSessionsE",
   "parameters" :
   [
    {
     "is_this_ptr" : true,
     "referenced_type" : "_ZTIPN4aidl7android8hardware3drm17IDrmPluginDefaultE"
    },
    {
     "referenced_type" : "_ZTIPN4aidl7android8hardware3drm16NumberOfSessionsE"
    }
   ],
   "return_type" : "_ZTIN3ndk13ScopedAStatusE",
   "source_file" : "out/soong/.intermediates/hardware/interfaces/drm/aidl/android.hardware.drm-V1-ndk-source/gen/include/aidl/android/hardware/drm/IDrmPlugin.h"
  },
  {
   "function_name" : "aidl::android::hardware::drm::IDrmPluginDefault::getProvisionRequest",
   "linker_set_key" : "_ZN4aidl7android8hardware3drm17IDrmPluginDefault19getProvisionRequestERKNSt3__112basic_stringIcNS4_11char_traitsIcEENS4_9allocatorIcEEEESC_PNS2_16ProvisionRequestE",
   "parameters" :
   [
    {
     "is_this_ptr" : true,
     "referenced_type" : "_ZTIPN4aidl7android8hardware3drm17IDrmPluginDefaultE"
    },
    {
     "referenced_type" : "_ZTIRKNSt3__112basic_stringIcNS_11char_traitsIcEENS_9allocatorIcEEEE"
    },
    {
     "referenced_type" : "_ZTIRKNSt3__112basic_stringIcNS_11char_traitsIcEENS_9allocatorIcEEEE"
    },
    {
     "referenced_type" : "_ZTIPN4aidl7android8hardware3drm16ProvisionRequestE"
    }
   ],
   "return_type" : "_ZTIN3ndk13ScopedAStatusE",
   "source_file" : "out/soong/.intermediates/hardware/interfaces/drm/aidl/android.hardware.drm-V1-ndk-source/gen/include/aidl/android/hardware/drm/IDrmPlugin.h"
  },
  {
   "function_name" : "aidl::android::hardware::drm::IDrmPluginDefault::getPropertyByteArray",
   "linker_set_key" : "_ZN4aidl7android8hardware3drm17IDrmPluginDefault20getPropertyByteArrayERKNSt3__112basic_stringIcNS4_11char_traitsIcEENS4_9allocatorIcEEEEPNS4_6vectorIhNS8_IhEEEE",
   "parameters" :
   [
    {
     "is_this_ptr" : true,
     "referenced_type" : "_ZTIPN4aidl7android8hardware3drm17IDrmPluginDefaultE"
    },
    {
     "referenced_type" : "_ZTIRKNSt3__112basic_stringIcNS_11char_traitsIcEENS_9allocatorIcEEEE"
    },
    {
     "referenced_type" : "_ZTIPNSt3__16vectorIhNS_9allocatorIhEEEE"
    }
   ],
   "return_type" : "_ZTIN3ndk13ScopedAStatusE",
   "source_file" : "out/soong/.intermediates/hardware/interfaces/drm/aidl/android.hardware.drm-V1-ndk-source/gen/include/aidl/android/hardware/drm/IDrmPlugin.h"
  },
  {
   "function_name" : "aidl::android::hardware::drm::IDrmPluginDefault::removeAllSecureStops",
   "linker_set_key" : "_ZN4aidl7android8hardware3drm17IDrmPluginDefault20removeAllSecureStopsEv",
   "parameters" :
   [
    {
     "is_this_ptr" : true,
     "referenced_type" : "_ZTIPN4aidl7android8hardware3drm17IDrmPluginDefaultE"
    }
   ],
   "return_type" : "_ZTIN3ndk13ScopedAStatusE",
   "source_file" : "out/soong/.intermediates/hardware/interfaces/drm/aidl/android.hardware.drm-V1-ndk-source/gen/include/aidl/android/hardware/drm/IDrmPlugin.h"
  },
  {
   "function_name" : "aidl::android::hardware::drm::IDrmPluginDefault::removeOfflineLicense",
   "linker_set_key" : "_ZN4aidl7android8hardware3drm17IDrmPluginDefault20removeOfflineLicenseERKNS2_8KeySetIdE",
   "parameters" :
   [
    {
     "is_this_ptr" : true,
     "referenced_type" : "_ZTIPN4aidl7android8hardware3drm17IDrmPluginDefaultE"
    },
    {
     "referenced_type" : "_ZTIRKN4aidl7android8hardware3drm8KeySetIdE"
    }
   ],
   "return_type" : "_ZTIN3ndk13ScopedAStatusE",
   "source_file" : "out/soong/.intermediates/hardware/interfaces/drm/aidl/android.hardware.drm-V1-ndk-source/gen/include/aidl/android/hardware/drm/IDrmPlugin.h"
  },
  {
   "function_name" : "aidl::android::hardware::drm::IDrmPluginDefault::setPropertyByteArray",
   "linker_set_key" : "_ZN4aidl7android8hardware3drm17IDrmPluginDefault20setPropertyByteArrayERKNSt3__112basic_stringIcNS4_11char_traitsIcEENS4_9allocatorIcEEEERKNS4_6vectorIhNS8_IhEEEE",
   "parameters" :
   [
    {
     "is_this_ptr" : true,
     "referenced_type" : "_ZTIPN4aidl7android8hardware3drm17IDrmPluginDefaultE"
    },
    {
     "referenced_type" : "_ZTIRKNSt3__112basic_stringIcNS_11char_traitsIcEENS_9allocatorIcEEEE"
    },
    {
     "referenced_type" : "_ZTIRKNSt3__16vectorIhNS_9allocatorIhEEEE"
    }
   ],
   "return_type" : "_ZTIN3ndk13ScopedAStatusE",
   "source_file" : "out/soong/.intermediates/hardware/interfaces/drm/aidl/android.hardware.drm-V1-ndk-source/gen/include/aidl/android/hardware/drm/IDrmPlugin.h"
  },
  {
   "function_name" : "aidl::android::hardware::drm::IDrmPluginDefault::releaseAllSecureStops",
   "linker_set_key" : "_ZN4aidl7android8hardware3drm17IDrmPluginDefault21releaseAllSecureStopsEv",
   "parameters" :
   [
    {
     "is_this_ptr" : true,
     "referenced_type" : "_ZTIPN4aidl7android8hardware3drm17IDrmPluginDefaultE"
    }
   ],
   "return_type" : "_ZTIN3ndk13ScopedAStatusE",
   "source_file" : "out/soong/.intermediates/hardware/interfaces/drm/aidl/android.hardware.drm-V1-ndk-source/gen/include/aidl/android/hardware/drm/IDrmPlugin.h"
  },
  {
   "function_name" : "aidl::android::hardware::drm::IDrmPluginDefault::requiresSecureDecoder",
   "linker_set_key" : "_ZN4aidl7android8hardware3drm17IDrmPluginDefault21requiresSecureDecoderERKNSt3__112basic_stringIcNS4_11char_traitsIcEENS4_9allocatorIcEEEENS2_13SecurityLevelEPb",
   "parameters" :
   [
    {
     "is_this_ptr" : true,
     "referenced_type" : "_ZTIPN4aidl7android8hardware3drm17IDrmPluginDefaultE"
    },
    {
     "referenced_type" : "_ZTIRKNSt3__112basic_stringIcNS_11char_traitsIcEENS_9allocatorIcEEEE"
    },
    {
     "referenced_type" : "_ZTIN4aidl7android8hardware3drm13SecurityLevelE"
    },
    {
     "referenced_type" : "_ZTIPb"
    }
   ],
   "return_type" : "_ZTIN3ndk13ScopedAStatusE",
   "source_file" : "out/soong/.intermediates/hardware/interfaces/drm/aidl/android.hardware.drm-V1-ndk-source/gen/include/aidl/android/hardware/drm/IDrmPlugin.h"
  },
  {
   "function_name" : "aidl::android::hardware::drm::IDrmPluginDefault::getOfflineLicenseState",
   "linker_set_key" : "_ZN4aidl7android8hardware3drm17IDrmPluginDefault22getOfflineLicenseStateERKNS2_8KeySetIdEPNS2_19OfflineLicenseStateE",
   "parameters" :
   [
    {
     "is_this_ptr" : true,
     "referenced_type" : "_ZTIPN4aidl7android8hardware3drm17IDrmPluginDefaultE"
    },
    {
     "referenced_type" : "_ZTIRKN4aidl7android8hardware3drm8KeySetIdE"
    },
    {
     "referenced_type" : "_ZTIPN4aidl7android8hardware3drm19OfflineLicenseStateE"
    }
   ],
   "return_type" : "_ZTIN3ndk13ScopedAStatusE",
   "source_file" : "out/soong/.intermediates/hardware/interfaces/drm/aidl/android.hardware.drm-V1-ndk-source/gen/include/aidl/android/hardware/drm/IDrmPlugin.h"
  },
  {
   "function_name" : "aidl::android::hardware::drm::IDrmPluginDefault::provideProvisionResponse",
   "linker_set_key" : "_ZN4aidl7android8hardware3drm17IDrmPluginDefault24provideProvisionResponseERKNSt3__16vectorIhNS4_9allocatorIhEEEEPNS2_30ProvideProvisionResponseResultE",
   "parameters" :
   [
    {
     "is_this_ptr" : true,
     "referenced_type" : "_ZTIPN4aidl7android8hardware3drm17IDrmPluginDefaultE"
    },
    {
     "referenced_type" : "_ZTIRKNSt3__16vectorIhNS_9allocatorIhEEEE"
    },
    {
     "referenced_type" : "_ZTIPN4aidl7android8hardware3drm30ProvideProvisionResponseResultE"
    }
   ],
   "return_type" : "_ZTIN3ndk13ScopedAStatusE",
   "source_file" : "out/soong/.intermediates/hardware/interfaces/drm/aidl/android.hardware.drm-V1-ndk-source/gen/include/aidl/android/hardware/drm/IDrmPlugin.h"
  },
  {
   "function_name" : "aidl::android::hardware::drm::IDrmPluginDefault::getOfflineLicenseKeySetIds",
   "linker_set_key" : "_ZN4aidl7android8hardware3drm17IDrmPluginDefault26getOfflineLicenseKeySetIdsEPNSt3__16vectorINS2_8KeySetIdENS4_9allocatorIS6_EEEE",
   "parameters" :
   [
    {
     "is_this_ptr" : true,
     "referenced_type" : "_ZTIPN4aidl7android8hardware3drm17IDrmPluginDefaultE"
    },
    {
     "referenced_type" : "_ZTIPNSt3__16vectorIN4aidl7android8hardware3drm8KeySetIdENS_9allocatorIS5_EEEE"
    }
   ],
   "return_type" : "_ZTIN3ndk13ScopedAStatusE",
   "source_file" : "out/soong/.intermediates/hardware/interfaces/drm/aidl/android.hardware.drm-V1-ndk-source/gen/include/aidl/android/hardware/drm/IDrmPlugin.h"
  },
  {
   "function_name" : "aidl::android::hardware::drm::IDrmPluginDefault::sign",
   "linker_set_key" : "_ZN4aidl7android8hardware3drm17IDrmPluginDefault4signERKNSt3__16vectorIhNS4_9allocatorIhEEEESA_SA_PS8_",
   "parameters" :
   [
    {
     "is_this_ptr" : true,
     "referenced_type" : "_ZTIPN4aidl7android8hardware3drm17IDrmPluginDefaultE"
    },
    {
     "referenced_type" : "_ZTIRKNSt3__16vectorIhNS_9allocatorIhEEEE"
    },
    {
     "referenced_type" : "_ZTIRKNSt3__16vectorIhNS_9allocatorIhEEEE"
    },
    {
     "referenced_type" : "_ZTIRKNSt3__16vectorIhNS_9allocatorIhEEEE"
    },
    {
     "referenced_type" : "_ZTIPNSt3__16vectorIhNS_9allocatorIhEEEE"
    }
   ],
   "return_type" : "_ZTIN3ndk13ScopedAStatusE",
   "source_file" : "out/soong/.intermediates/hardware/interfaces/drm/aidl/android.hardware.drm-V1-ndk-source/gen/include/aidl/android/hardware/drm/IDrmPlugin.h"
  },
  {
   "function_name" : "aidl::android::hardware::drm::IDrmPluginDefault::verify",
   "linker_set_key" : "_ZN4aidl7android8hardware3drm17IDrmPluginDefault6verifyERKNSt3__16vectorIhNS4_9allocatorIhEEEESA_SA_SA_Pb",
   "parameters" :
   [
    {
     "is_this_ptr" : true,
     "referenced_type" : "_ZTIPN4aidl7android8hardware3drm17IDrmPluginDefaultE"
    },
    {
     "referenced_type" : "_ZTIRKNSt3__16vectorIhNS_9allocatorIhEEEE"
    },
    {
     "referenced_type" : "_ZTIRKNSt3__16vectorIhNS_9allocatorIhEEEE"
    },
    {
     "referenced_type" : "_ZTIRKNSt3__16vectorIhNS_9allocatorIhEEEE"
    },
    {
     "referenced_type" : "_ZTIRKNSt3__16vectorIhNS_9allocatorIhEEEE"
    },
    {
     "referenced_type" : "_ZTIPb"
    }
   ],
   "return_type" : "_ZTIN3ndk13ScopedAStatusE",
   "source_file" : "out/soong/.intermediates/hardware/interfaces/drm/aidl/android.hardware.drm-V1-ndk-source/gen/include/aidl/android/hardware/drm/IDrmPlugin.h"
  },
  {
   "function_name" : "aidl::android::hardware::drm::IDrmPluginDefault::decrypt",
   "linker_set_key" : "_ZN4aidl7android8hardware3drm17IDrmPluginDefault7decryptERKNSt3__16vectorIhNS4_9allocatorIhEEEESA_SA_SA_PS8_",
   "parameters" :
   [
    {
     "is_this_ptr" : true,
     "referenced_type" : "_ZTIPN4aidl7android8hardware3drm17IDrmPluginDefaultE"
    },
    {
     "referenced_type" : "_ZTIRKNSt3__16vectorIhNS_9allocatorIhEEEE"
    },
    {
     "referenced_type" : "_ZTIRKNSt3__16vectorIhNS_9allocatorIhEEEE"
    },
    {
     "referenced_type" : "_ZTIRKNSt3__16vectorIhNS_9allocatorIhEEEE"
    },
    {
     "referenced_type" : "_ZTIRKNSt3__16vectorIhNS_9allocatorIhEEEE"
    },
    {
     "referenced_type" : "_ZTIPNSt3__16vectorIhNS_9allocatorIhEEEE"
    }
   ],
   "return_type" : "_ZTIN3ndk13ScopedAStatusE",
   "source_file" : "out/soong/.intermediates/hardware/interfaces/drm/aidl/android.hardware.drm-V1-ndk-source/gen/include/aidl/android/hardware/drm/IDrmPlugin.h"
  },
  {
   "function_name" : "aidl::android::hardware::drm::IDrmPluginDefault::encrypt",
   "linker_set_key" : "_ZN4aidl7android8hardware3drm17IDrmPluginDefault7encryptERKNSt3__16vectorIhNS4_9allocatorIhEEEESA_SA_SA_PS8_",
   "parameters" :
   [
    {
     "is_this_ptr" : true,
     "referenced_type" : "_ZTIPN4aidl7android8hardware3drm17IDrmPluginDefaultE"
    },
    {
     "referenced_type" : "_ZTIRKNSt3__16vectorIhNS_9allocatorIhEEEE"
    },
    {
     "referenced_type" : "_ZTIRKNSt3__16vectorIhNS_9allocatorIhEEEE"
    },
    {
     "referenced_type" : "_ZTIRKNSt3__16vectorIhNS_9allocatorIhEEEE"
    },
    {
     "referenced_type" : "_ZTIRKNSt3__16vectorIhNS_9allocatorIhEEEE"
    },
    {
     "referenced_type" : "_ZTIPNSt3__16vectorIhNS_9allocatorIhEEEE"
    }
   ],
   "return_type" : "_ZTIN3ndk13ScopedAStatusE",
   "source_file" : "out/soong/.intermediates/hardware/interfaces/drm/aidl/android.hardware.drm-V1-ndk-source/gen/include/aidl/android/hardware/drm/IDrmPlugin.h"
  },
  {
   "function_name" : "aidl::android::hardware::drm::IDrmPluginDefault::signRSA",
   "linker_set_key" : "_ZN4aidl7android8hardware3drm17IDrmPluginDefault7signRSAERKNSt3__16vectorIhNS4_9allocatorIhEEEERKNS4_12basic_stringIcNS4_11char_traitsIcEENS6_IcEEEESA_SA_PS8_",
   "parameters" :
   [
    {
     "is_this_ptr" : true,
     "referenced_type" : "_ZTIPN4aidl7android8hardware3drm17IDrmPluginDefaultE"
    },
    {
     "referenced_type" : "_ZTIRKNSt3__16vectorIhNS_9allocatorIhEEEE"
    },
    {
     "referenced_type" : "_ZTIRKNSt3__112basic_stringIcNS_11char_traitsIcEENS_9allocatorIcEEEE"
    },
    {
     "referenced_type" : "_ZTIRKNSt3__16vectorIhNS_9allocatorIhEEEE"
    },
    {
     "referenced_type" : "_ZTIRKNSt3__16vectorIhNS_9allocatorIhEEEE"
    },
    {
     "referenced_type" : "_ZTIPNSt3__16vectorIhNS_9allocatorIhEEEE"
    }
   ],
   "return_type" : "_ZTIN3ndk13ScopedAStatusE",
   "source_file" : "out/soong/.intermediates/hardware/interfaces/drm/aidl/android.hardware.drm-V1-ndk-source/gen/include/aidl/android/hardware/drm/IDrmPlugin.h"
  },
  {
   "function_name" : "aidl::android::hardware::drm::IDrmPluginDefault::asBinder",
   "linker_set_key" : "_ZN4aidl7android8hardware3drm17IDrmPluginDefault8asBinderEv",
   "parameters" :
   [
    {
     "is_this_ptr" : true,
     "referenced_type" : "_ZTIPN4aidl7android8hardware3drm17IDrmPluginDefaultE"
    }
   ],
   "return_type" : "_ZTIN3ndk10SpAIBinderE",
   "source_file" : "out/soong/.intermediates/hardware/interfaces/drm/aidl/android.hardware.drm-V1-ndk-source/gen/include/aidl/android/hardware/drm/IDrmPlugin.h"
  },
  {
   "function_name" : "aidl::android::hardware::drm::IDrmPluginDefault::isRemote",
   "linker_set_key" : "_ZN4aidl7android8hardware3drm17IDrmPluginDefault8isRemoteEv",
   "parameters" :
   [
    {
     "is_this_ptr" : true,
     "referenced_type" : "_ZTIPN4aidl7android8hardware3drm17IDrmPluginDefaultE"
    }
   ],
   "return_type" : "_ZTIb",
   "source_file" : "out/soong/.intermediates/hardware/interfaces/drm/aidl/android.hardware.drm-V1-ndk-source/gen/include/aidl/android/hardware/drm/IDrmPlugin.h"
  },
  {
   "function_name" : "aidl::android::hardware::drm::IDrmFactoryDefault::createDrmPlugin",
   "linker_set_key" : "_ZN4aidl7android8hardware3drm18IDrmFactoryDefault15createDrmPluginERKNS2_4UuidERKNSt3__112basic_stringIcNS7_11char_traitsIcEENS7_9allocatorIcEEEEPNS7_10shared_ptrINS2_10IDrmPluginEEE",
   "parameters" :
   [
    {
     "is_this_ptr" : true,
     "referenced_type" : "_ZTIPN4aidl7android8hardware3drm18IDrmFactoryDefaultE"
    },
    {
     "referenced_type" : "_ZTIRKN4aidl7android8hardware3drm4UuidE"
    },
    {
     "referenced_type" : "_ZTIRKNSt3__112basic_stringIcNS_11char_traitsIcEENS_9allocatorIcEEEE"
    },
    {
     "referenced_type" : "_ZTIPNSt3__110shared_ptrIN4aidl7android8hardware3drm10IDrmPluginEEE"
    }
   ],
   "return_type" : "_ZTIN3ndk13ScopedAStatusE",
   "source_file" : "out/soong/.intermediates/hardware/interfaces/drm/aidl/android.hardware.drm-V1-ndk-source/gen/include/aidl/android/hardware/drm/IDrmFactory.h"
  },
  {
   "function_name" : "aidl::android::hardware::drm::IDrmFactoryDefault::getInterfaceHash",
   "linker_set_key" : "_ZN4aidl7android8hardware3drm18IDrmFactoryDefault16getInterfaceHashEPNSt3__112basic_stringIcNS4_11char_traitsIcEENS4_9allocatorIcEEEE",
   "parameters" :
   [
    {
     "is_this_ptr" : true,
     "referenced_type" : "_ZTIPN4aidl7android8hardware3drm18IDrmFactoryDefaultE"
    },
    {
     "referenced_type" : "_ZTIPNSt3__112basic_stringIcNS_11char_traitsIcEENS_9allocatorIcEEEE"
    }
   ],
   "return_type" : "_ZTIN3ndk13ScopedAStatusE",
   "source_file" : "out/soong/.intermediates/hardware/interfaces/drm/aidl/android.hardware.drm-V1-ndk-source/gen/include/aidl/android/hardware/drm/IDrmFactory.h"
  },
  {
   "function_name" : "aidl::android::hardware::drm::IDrmFactoryDefault::createCryptoPlugin",
   "linker_set_key" : "_ZN4aidl7android8hardware3drm18IDrmFactoryDefault18createCryptoPluginERKNS2_4UuidERKNSt3__16vectorIhNS7_9allocatorIhEEEEPNS7_10shared_ptrINS2_13ICryptoPluginEEE",
   "parameters" :
   [
    {
     "is_this_ptr" : true,
     "referenced_type" : "_ZTIPN4aidl7android8hardware3drm18IDrmFactoryDefaultE"
    },
    {
     "referenced_type" : "_ZTIRKN4aidl7android8hardware3drm4UuidE"
    },
    {
     "referenced_type" : "_ZTIRKNSt3__16vectorIhNS_9allocatorIhEEEE"
    },
    {
     "referenced_type" : "_ZTIPNSt3__110shared_ptrIN4aidl7android8hardware3drm13ICryptoPluginEEE"
    }
   ],
   "return_type" : "_ZTIN3ndk13ScopedAStatusE",
   "source_file" : "out/soong/.intermediates/hardware/interfaces/drm/aidl/android.hardware.drm-V1-ndk-source/gen/include/aidl/android/hardware/drm/IDrmFactory.h"
  },
  {
   "function_name" : "aidl::android::hardware::drm::IDrmFactoryDefault::getInterfaceVersion",
   "linker_set_key" : "_ZN4aidl7android8hardware3drm18IDrmFactoryDefault19getInterfaceVersionEPi",
   "parameters" :
   [
    {
     "is_this_ptr" : true,
     "referenced_type" : "_ZTIPN4aidl7android8hardware3drm18IDrmFactoryDefaultE"
    },
    {
     "referenced_type" : "_ZTIPi"
    }
   ],
   "return_type" : "_ZTIN3ndk13ScopedAStatusE",
   "source_file" : "out/soong/.intermediates/hardware/interfaces/drm/aidl/android.hardware.drm-V1-ndk-source/gen/include/aidl/android/hardware/drm/IDrmFactory.h"
  },
  {
   "function_name" : "aidl::android::hardware::drm::IDrmFactoryDefault::getSupportedCryptoSchemes",
   "linker_set_key" : "_ZN4aidl7android8hardware3drm18IDrmFactoryDefault25getSupportedCryptoSchemesEPNS2_13CryptoSchemesE",
   "parameters" :
   [
    {
     "is_this_ptr" : true,
     "referenced_type" : "_ZTIPN4aidl7android8hardware3drm18IDrmFactoryDefaultE"
    },
    {
     "referenced_type" : "_ZTIPN4aidl7android8hardware3drm13CryptoSchemesE"
    }
   ],
   "return_type" : "_ZTIN3ndk13ScopedAStatusE",
   "source_file" : "out/soong/.intermediates/hardware/interfaces/drm/aidl/android.hardware.drm-V1-ndk-source/gen/include/aidl/android/hardware/drm/IDrmFactory.h"
  },
  {
   "function_name" : "aidl::android::hardware::drm::IDrmFactoryDefault::asBinder",
   "linker_set_key" : "_ZN4aidl7android8hardware3drm18IDrmFactoryDefault8asBinderEv",
   "parameters" :
   [
    {
     "is_this_ptr" : true,
     "referenced_type" : "_ZTIPN4aidl7android8hardware3drm18IDrmFactoryDefaultE"
    }
   ],
   "return_type" : "_ZTIN3ndk10SpAIBinderE",
   "source_file" : "out/soong/.intermediates/hardware/interfaces/drm/aidl/android.hardware.drm-V1-ndk-source/gen/include/aidl/android/hardware/drm/IDrmFactory.h"
  },
  {
   "function_name" : "aidl::android::hardware::drm::IDrmFactoryDefault::isRemote",
   "linker_set_key" : "_ZN4aidl7android8hardware3drm18IDrmFactoryDefault8isRemoteEv",
   "parameters" :
   [
    {
     "is_this_ptr" : true,
     "referenced_type" : "_ZTIPN4aidl7android8hardware3drm18IDrmFactoryDefaultE"
    }
   ],
   "return_type" : "_ZTIb",
   "source_file" : "out/soong/.intermediates/hardware/interfaces/drm/aidl/android.hardware.drm-V1-ndk-source/gen/include/aidl/android/hardware/drm/IDrmFactory.h"
  },
  {
   "function_name" : "aidl::android::hardware::drm::IDrmPluginListener::fromBinder",
   "linker_set_key" : "_ZN4aidl7android8hardware3drm18IDrmPluginListener10fromBinderERKN3ndk10SpAIBinderE",
   "parameters" :
   [
    {
     "referenced_type" : "_ZTIRKN3ndk10SpAIBinderE"
    }
   ],
   "return_type" : "_ZTINSt3__110shared_ptrIN4aidl7android8hardware3drm18IDrmPluginListenerEEE",
   "source_file" : "out/soong/.intermediates/hardware/interfaces/drm/aidl/android.hardware.drm-V1-ndk-source/gen/include/aidl/android/hardware/drm/IDrmPluginListener.h"
  },
  {
   "function_name" : "aidl::android::hardware::drm::IDrmPluginListener::writeToParcel",
   "linker_set_key" : "_ZN4aidl7android8hardware3drm18IDrmPluginListener13writeToParcelEP7AParcelRKNSt3__110shared_ptrIS3_EE",
   "parameters" :
   [
    {
     "referenced_type" : "_ZTIP7AParcel"
    },
    {
     "referenced_type" : "_ZTIRKNSt3__110shared_ptrIN4aidl7android8hardware3drm18IDrmPluginListenerEEE"
    }
   ],
   "return_type" : "_ZTIi",
   "source_file" : "out/soong/.intermediates/hardware/interfaces/drm/aidl/android.hardware.drm-V1-ndk-source/gen/include/aidl/android/hardware/drm/IDrmPluginListener.h"
  },
  {
   "function_name" : "aidl::android::hardware::drm::IDrmPluginListener::getDefaultImpl",
   "linker_set_key" : "_ZN4aidl7android8hardware3drm18IDrmPluginListener14getDefaultImplEv",
   "return_type" : "_ZTIRKNSt3__110shared_ptrIN4aidl7android8hardware3drm18IDrmPluginListenerEEE",
   "source_file" : "out/soong/.intermediates/hardware/interfaces/drm/aidl/android.hardware.drm-V1-ndk-source/gen/include/aidl/android/hardware/drm/IDrmPluginListener.h"
  },
  {
   "function_name" : "aidl::android::hardware::drm::IDrmPluginListener::readFromParcel",
   "linker_set_key" : "_ZN4aidl7android8hardware3drm18IDrmPluginListener14readFromParcelEPK7AParcelPNSt3__110shared_ptrIS3_EE",
   "parameters" :
   [
    {
     "referenced_type" : "_ZTIPK7AParcel"
    },
    {
     "referenced_type" : "_ZTIPNSt3__110shared_ptrIN4aidl7android8hardware3drm18IDrmPluginListenerEEE"
    }
   ],
   "return_type" : "_ZTIi",
   "source_file" : "out/soong/.intermediates/hardware/interfaces/drm/aidl/android.hardware.drm-V1-ndk-source/gen/include/aidl/android/hardware/drm/IDrmPluginListener.h"
  },
  {
   "function_name" : "aidl::android::hardware::drm::IDrmPluginListener::setDefaultImpl",
   "linker_set_key" : "_ZN4aidl7android8hardware3drm18IDrmPluginListener14setDefaultImplERKNSt3__110shared_ptrIS3_EE",
   "parameters" :
   [
    {
     "referenced_type" : "_ZTIRKNSt3__110shared_ptrIN4aidl7android8hardware3drm18IDrmPluginListenerEEE"
    }
   ],
   "return_type" : "_ZTIb",
   "source_file" : "out/soong/.intermediates/hardware/interfaces/drm/aidl/android.hardware.drm-V1-ndk-source/gen/include/aidl/android/hardware/drm/IDrmPluginListener.h"
  },
  {
   "function_name" : "aidl::android::hardware::drm::IDrmPluginListener::IDrmPluginListener",
   "linker_set_key" : "_ZN4aidl7android8hardware3drm18IDrmPluginListenerC2Ev",
   "parameters" :
   [
    {
     "is_this_ptr" : true,
     "referenced_type" : "_ZTIPN4aidl7android8hardware3drm18IDrmPluginListenerE"
    }
   ],
   "return_type" : "_ZTIv",
   "source_file" : "out/soong/.intermediates/hardware/interfaces/drm/aidl/android.hardware.drm-V1-ndk-source/gen/include/aidl/android/hardware/drm/IDrmPluginListener.h"
  },
  {
   "function_name" : "aidl::android::hardware::drm::IDrmPluginListener::~IDrmPluginListener",
   "linker_set_key" : "_ZN4aidl7android8hardware3drm18IDrmPluginListenerD0Ev",
   "parameters" :
   [
    {
     "is_this_ptr" : true,
     "referenced_type" : "_ZTIPN4aidl7android8hardware3drm18IDrmPluginListenerE"
    }
   ],
   "return_type" : "_ZTIv",
   "source_file" : "out/soong/.intermediates/hardware/interfaces/drm/aidl/android.hardware.drm-V1-ndk-source/gen/include/aidl/android/hardware/drm/IDrmPluginListener.h"
  },
  {
   "function_name" : "aidl::android::hardware::drm::IDrmPluginListener::~IDrmPluginListener",
   "linker_set_key" : "_ZN4aidl7android8hardware3drm18IDrmPluginListenerD1Ev",
   "parameters" :
   [
    {
     "is_this_ptr" : true,
     "referenced_type" : "_ZTIPN4aidl7android8hardware3drm18IDrmPluginListenerE"
    }
   ],
   "return_type" : "_ZTIv",
   "source_file" : "out/soong/.intermediates/hardware/interfaces/drm/aidl/android.hardware.drm-V1-ndk-source/gen/include/aidl/android/hardware/drm/IDrmPluginListener.h"
  },
  {
   "function_name" : "aidl::android::hardware::drm::IDrmPluginListener::~IDrmPluginListener",
   "linker_set_key" : "_ZN4aidl7android8hardware3drm18IDrmPluginListenerD2Ev",
   "parameters" :
   [
    {
     "is_this_ptr" : true,
     "referenced_type" : "_ZTIPN4aidl7android8hardware3drm18IDrmPluginListenerE"
    }
   ],
   "return_type" : "_ZTIv",
   "source_file" : "out/soong/.intermediates/hardware/interfaces/drm/aidl/android.hardware.drm-V1-ndk-source/gen/include/aidl/android/hardware/drm/IDrmPluginListener.h"
  },
  {
   "access" : "protected",
   "function_name" : "aidl::android::hardware::drm::BnDrmPluginListener::createBinder",
   "linker_set_key" : "_ZN4aidl7android8hardware3drm19BnDrmPluginListener12createBinderEv",
   "parameters" :
   [
    {
     "is_this_ptr" : true,
     "referenced_type" : "_ZTIPN4aidl7android8hardware3drm19BnDrmPluginListenerE"
    }
   ],
   "return_type" : "_ZTIN3ndk10SpAIBinderE",
   "source_file" : "out/soong/.intermediates/hardware/interfaces/drm/aidl/android.hardware.drm-V1-ndk-source/gen/include/aidl/android/hardware/drm/BnDrmPluginListener.h"
  },
  {
   "function_name" : "aidl::android::hardware::drm::BnDrmPluginListener::getInterfaceHash",
   "linker_set_key" : "_ZN4aidl7android8hardware3drm19BnDrmPluginListener16getInterfaceHashEPNSt3__112basic_stringIcNS4_11char_traitsIcEENS4_9allocatorIcEEEE",
   "parameters" :
   [
    {
     "is_this_ptr" : true,
     "referenced_type" : "_ZTIPN4aidl7android8hardware3drm19BnDrmPluginListenerE"
    },
    {
     "referenced_type" : "_ZTIPNSt3__112basic_stringIcNS_11char_traitsIcEENS_9allocatorIcEEEE"
    }
   ],
   "return_type" : "_ZTIN3ndk13ScopedAStatusE",
   "source_file" : "out/soong/.intermediates/hardware/interfaces/drm/aidl/android.hardware.drm-V1-ndk-source/gen/include/aidl/android/hardware/drm/BnDrmPluginListener.h"
  },
  {
   "function_name" : "aidl::android::hardware::drm::BnDrmPluginListener::getInterfaceVersion",
   "linker_set_key" : "_ZN4aidl7android8hardware3drm19BnDrmPluginListener19getInterfaceVersionEPi",
   "parameters" :
   [
    {
     "is_this_ptr" : true,
     "referenced_type" : "_ZTIPN4aidl7android8hardware3drm19BnDrmPluginListenerE"
    },
    {
     "referenced_type" : "_ZTIPi"
    }
   ],
   "return_type" : "_ZTIN3ndk13ScopedAStatusE",
   "source_file" : "out/soong/.intermediates/hardware/interfaces/drm/aidl/android.hardware.drm-V1-ndk-source/gen/include/aidl/android/hardware/drm/BnDrmPluginListener.h"
  },
  {
   "function_name" : "aidl::android::hardware::drm::BnDrmPluginListener::BnDrmPluginListener",
   "linker_set_key" : "_ZN4aidl7android8hardware3drm19BnDrmPluginListenerC2Ev",
   "parameters" :
   [
    {
     "is_this_ptr" : true,
     "referenced_type" : "_ZTIPN4aidl7android8hardware3drm19BnDrmPluginListenerE"
    }
   ],
   "return_type" : "_ZTIv",
   "source_file" : "out/soong/.intermediates/hardware/interfaces/drm/aidl/android.hardware.drm-V1-ndk-source/gen/include/aidl/android/hardware/drm/BnDrmPluginListener.h"
  },
  {
   "function_name" : "aidl::android::hardware::drm::BnDrmPluginListener::~BnDrmPluginListener",
   "linker_set_key" : "_ZN4aidl7android8hardware3drm19BnDrmPluginListenerD0Ev",
   "parameters" :
   [
    {
     "is_this_ptr" : true,
     "referenced_type" : "_ZTIPN4aidl7android8hardware3drm19BnDrmPluginListenerE"
    }
   ],
   "return_type" : "_ZTIv",
   "source_file" : "out/soong/.intermediates/hardware/interfaces/drm/aidl/android.hardware.drm-V1-ndk-source/gen/include/aidl/android/hardware/drm/BnDrmPluginListener.h"
  },
  {
   "function_name" : "aidl::android::hardware::drm::BnDrmPluginListener::~BnDrmPluginListener",
   "linker_set_key" : "_ZN4aidl7android8hardware3drm19BnDrmPluginListenerD1Ev",
   "parameters" :
   [
    {
     "is_this_ptr" : true,
     "referenced_type" : "_ZTIPN4aidl7android8hardware3drm19BnDrmPluginListenerE"
    }
   ],
   "return_type" : "_ZTIv",
   "source_file" : "out/soong/.intermediates/hardware/interfaces/drm/aidl/android.hardware.drm-V1-ndk-source/gen/include/aidl/android/hardware/drm/BnDrmPluginListener.h"
  },
  {
   "function_name" : "aidl::android::hardware::drm::BnDrmPluginListener::~BnDrmPluginListener",
   "linker_set_key" : "_ZN4aidl7android8hardware3drm19BnDrmPluginListenerD2Ev",
   "parameters" :
   [
    {
     "is_this_ptr" : true,
     "referenced_type" : "_ZTIPN4aidl7android8hardware3drm19BnDrmPluginListenerE"
    }
   ],
   "return_type" : "_ZTIv",
   "source_file" : "out/soong/.intermediates/hardware/interfaces/drm/aidl/android.hardware.drm-V1-ndk-source/gen/include/aidl/android/hardware/drm/BnDrmPluginListener.h"
  },
  {
   "function_name" : "aidl::android::hardware::drm::BpDrmPluginListener::onKeysChange",
   "linker_set_key" : "_ZN4aidl7android8hardware3drm19BpDrmPluginListener12onKeysChangeERKNSt3__16vectorIhNS4_9allocatorIhEEEERKNS5_INS2_9KeyStatusENS6_ISB_EEEEb",
   "parameters" :
   [
    {
     "is_this_ptr" : true,
     "referenced_type" : "_ZTIPN4aidl7android8hardware3drm19BpDrmPluginListenerE"
    },
    {
     "referenced_type" : "_ZTIRKNSt3__16vectorIhNS_9allocatorIhEEEE"
    },
    {
     "referenced_type" : "_ZTIRKNSt3__16vectorIN4aidl7android8hardware3drm9KeyStatusENS_9allocatorIS5_EEEE"
    },
    {
     "referenced_type" : "_ZTIb"
    }
   ],
   "return_type" : "_ZTIN3ndk13ScopedAStatusE",
   "source_file" : "out/soong/.intermediates/hardware/interfaces/drm/aidl/android.hardware.drm-V1-ndk-source/gen/include/aidl/android/hardware/drm/BpDrmPluginListener.h"
  },
  {
   "function_name" : "aidl::android::hardware::drm::BpDrmPluginListener::getInterfaceHash",
   "linker_set_key" : "_ZN4aidl7android8hardware3drm19BpDrmPluginListener16getInterfaceHashEPNSt3__112basic_stringIcNS4_11char_traitsIcEENS4_9allocatorIcEEEE",
   "parameters" :
   [
    {
     "is_this_ptr" : true,
     "referenced_type" : "_ZTIPN4aidl7android8hardware3drm19BpDrmPluginListenerE"
    },
    {
     "referenced_type" : "_ZTIPNSt3__112basic_stringIcNS_11char_traitsIcEENS_9allocatorIcEEEE"
    }
   ],
   "return_type" : "_ZTIN3ndk13ScopedAStatusE",
   "source_file" : "out/soong/.intermediates/hardware/interfaces/drm/aidl/android.hardware.drm-V1-ndk-source/gen/include/aidl/android/hardware/drm/BpDrmPluginListener.h"
  },
  {
   "function_name" : "aidl::android::hardware::drm::BpDrmPluginListener::onExpirationUpdate",
   "linker_set_key" : "_ZN4aidl7android8hardware3drm19BpDrmPluginListener18onExpirationUpdateERKNSt3__16vectorIhNS4_9allocatorIhEEEEx",
   "parameters" :
   [
    {
     "is_this_ptr" : true,
     "referenced_type" : "_ZTIPN4aidl7android8hardware3drm19BpDrmPluginListenerE"
    },
    {
     "referenced_type" : "_ZTIRKNSt3__16vectorIhNS_9allocatorIhEEEE"
    },
    {
     "referenced_type" : "_ZTIx"
    }
   ],
   "return_type" : "_ZTIN3ndk13ScopedAStatusE",
   "source_file" : "out/soong/.intermediates/hardware/interfaces/drm/aidl/android.hardware.drm-V1-ndk-source/gen/include/aidl/android/hardware/drm/BpDrmPluginListener.h"
  },
  {
   "function_name" : "aidl::android::hardware::drm::BpDrmPluginListener::onSessionLostState",
   "linker_set_key" : "_ZN4aidl7android8hardware3drm19BpDrmPluginListener18onSessionLostStateERKNSt3__16vectorIhNS4_9allocatorIhEEEE",
   "parameters" :
   [
    {
     "is_this_ptr" : true,
     "referenced_type" : "_ZTIPN4aidl7android8hardware3drm19BpDrmPluginListenerE"
    },
    {
     "referenced_type" : "_ZTIRKNSt3__16vectorIhNS_9allocatorIhEEEE"
    }
   ],
   "return_type" : "_ZTIN3ndk13ScopedAStatusE",
   "source_file" : "out/soong/.intermediates/hardware/interfaces/drm/aidl/android.hardware.drm-V1-ndk-source/gen/include/aidl/android/hardware/drm/BpDrmPluginListener.h"
  },
  {
   "function_name" : "aidl::android::hardware::drm::BpDrmPluginListener::getInterfaceVersion",
   "linker_set_key" : "_ZN4aidl7android8hardware3drm19BpDrmPluginListener19getInterfaceVersionEPi",
   "parameters" :
   [
    {
     "is_this_ptr" : true,
     "referenced_type" : "_ZTIPN4aidl7android8hardware3drm19BpDrmPluginListenerE"
    },
    {
     "referenced_type" : "_ZTIPi"
    }
   ],
   "return_type" : "_ZTIN3ndk13ScopedAStatusE",
   "source_file" : "out/soong/.intermediates/hardware/interfaces/drm/aidl/android.hardware.drm-V1-ndk-source/gen/include/aidl/android/hardware/drm/BpDrmPluginListener.h"
  },
  {
   "function_name" : "aidl::android::hardware::drm::BpDrmPluginListener::onEvent",
   "linker_set_key" : "_ZN4aidl7android8hardware3drm19BpDrmPluginListener7onEventENS2_9EventTypeERKNSt3__16vectorIhNS5_9allocatorIhEEEESB_",
   "parameters" :
   [
    {
     "is_this_ptr" : true,
     "referenced_type" : "_ZTIPN4aidl7android8hardware3drm19BpDrmPluginListenerE"
    },
    {
     "referenced_type" : "_ZTIN4aidl7android8hardware3drm9EventTypeE"
    },
    {
     "referenced_type" : "_ZTIRKNSt3__16vectorIhNS_9allocatorIhEEEE"
    },
    {
     "referenced_type" : "_ZTIRKNSt3__16vectorIhNS_9allocatorIhEEEE"
    }
   ],
   "return_type" : "_ZTIN3ndk13ScopedAStatusE",
   "source_file" : "out/soong/.intermediates/hardware/interfaces/drm/aidl/android.hardware.drm-V1-ndk-source/gen/include/aidl/android/hardware/drm/BpDrmPluginListener.h"
  },
  {
   "function_name" : "aidl::android::hardware::drm::BpDrmPluginListener::BpDrmPluginListener",
   "linker_set_key" : "_ZN4aidl7android8hardware3drm19BpDrmPluginListenerC1ERKN3ndk10SpAIBinderE",
   "parameters" :
   [
    {
     "is_this_ptr" : true,
     "referenced_type" : "_ZTIPN4aidl7android8hardware3drm19BpDrmPluginListenerE"
    },
    {
     "referenced_type" : "_ZTIRKN3ndk10SpAIBinderE"
    }
   ],
   "return_type" : "_ZTIv",
   "source_file" : "out/soong/.intermediates/hardware/interfaces/drm/aidl/android.hardware.drm-V1-ndk-source/gen/include/aidl/android/hardware/drm/BpDrmPluginListener.h"
  },
  {
   "function_name" : "aidl::android::hardware::drm::BpDrmPluginListener::BpDrmPluginListener",
   "linker_set_key" : "_ZN4aidl7android8hardware3drm19BpDrmPluginListenerC2ERKN3ndk10SpAIBinderE",
   "parameters" :
   [
    {
     "is_this_ptr" : true,
     "referenced_type" : "_ZTIPN4aidl7android8hardware3drm19BpDrmPluginListenerE"
    },
    {
     "referenced_type" : "_ZTIRKN3ndk10SpAIBinderE"
    }
   ],
   "return_type" : "_ZTIv",
   "source_file" : "out/soong/.intermediates/hardware/interfaces/drm/aidl/android.hardware.drm-V1-ndk-source/gen/include/aidl/android/hardware/drm/BpDrmPluginListener.h"
  },
  {
   "function_name" : "aidl::android::hardware::drm::BpDrmPluginListener::~BpDrmPluginListener",
   "linker_set_key" : "_ZN4aidl7android8hardware3drm19BpDrmPluginListenerD0Ev",
   "parameters" :
   [
    {
     "is_this_ptr" : true,
     "referenced_type" : "_ZTIPN4aidl7android8hardware3drm19BpDrmPluginListenerE"
    }
   ],
   "return_type" : "_ZTIv",
   "source_file" : "out/soong/.intermediates/hardware/interfaces/drm/aidl/android.hardware.drm-V1-ndk-source/gen/include/aidl/android/hardware/drm/BpDrmPluginListener.h"
  },
  {
   "function_name" : "aidl::android::hardware::drm::BpDrmPluginListener::~BpDrmPluginListener",
   "linker_set_key" : "_ZN4aidl7android8hardware3drm19BpDrmPluginListenerD1Ev",
   "parameters" :
   [
    {
     "is_this_ptr" : true,
     "referenced_type" : "_ZTIPN4aidl7android8hardware3drm19BpDrmPluginListenerE"
    }
   ],
   "return_type" : "_ZTIv",
   "source_file" : "out/soong/.intermediates/hardware/interfaces/drm/aidl/android.hardware.drm-V1-ndk-source/gen/include/aidl/android/hardware/drm/BpDrmPluginListener.h"
  },
  {
   "function_name" : "aidl::android::hardware::drm::BpDrmPluginListener::~BpDrmPluginListener",
   "linker_set_key" : "_ZN4aidl7android8hardware3drm19BpDrmPluginListenerD2Ev",
   "parameters" :
   [
    {
     "is_this_ptr" : true,
     "referenced_type" : "_ZTIPN4aidl7android8hardware3drm19BpDrmPluginListenerE"
    }
   ],
   "return_type" : "_ZTIv",
   "source_file" : "out/soong/.intermediates/hardware/interfaces/drm/aidl/android.hardware.drm-V1-ndk-source/gen/include/aidl/android/hardware/drm/BpDrmPluginListener.h"
  },
  {
   "function_name" : "aidl::android::hardware::drm::DrmMetricNamedValue::readFromParcel",
   "linker_set_key" : "_ZN4aidl7android8hardware3drm19DrmMetricNamedValue14readFromParcelEPK7AParcel",
   "parameters" :
   [
    {
     "is_this_ptr" : true,
     "referenced_type" : "_ZTIPN4aidl7android8hardware3drm19DrmMetricNamedValueE"
    },
    {
     "referenced_type" : "_ZTIPK7AParcel"
    }
   ],
   "return_type" : "_ZTIi",
   "source_file" : "out/soong/.intermediates/hardware/interfaces/drm/aidl/android.hardware.drm-V1-ndk-source/gen/include/aidl/android/hardware/drm/DrmMetricNamedValue.h"
  },
  {
   "function_name" : "aidl::android::hardware::drm::ICryptoPluginDefault::getLogMessages",
   "linker_set_key" : "_ZN4aidl7android8hardware3drm20ICryptoPluginDefault14getLogMessagesEPNSt3__16vectorINS2_10LogMessageENS4_9allocatorIS6_EEEE",
   "parameters" :
   [
    {
     "is_this_ptr" : true,
     "referenced_type" : "_ZTIPN4aidl7android8hardware3drm20ICryptoPluginDefaultE"
    },
    {
     "referenced_type" : "_ZTIPNSt3__16vectorIN4aidl7android8hardware3drm10LogMessageENS_9allocatorIS5_EEEE"
    }
   ],
   "return_type" : "_ZTIN3ndk13ScopedAStatusE",
   "source_file" : "out/soong/.intermediates/hardware/interfaces/drm/aidl/android.hardware.drm-V1-ndk-source/gen/include/aidl/android/hardware/drm/ICryptoPlugin.h"
  },
  {
   "function_name" : "aidl::android::hardware::drm::ICryptoPluginDefault::getInterfaceHash",
   "linker_set_key" : "_ZN4aidl7android8hardware3drm20ICryptoPluginDefault16getInterfaceHashEPNSt3__112basic_stringIcNS4_11char_traitsIcEENS4_9allocatorIcEEEE",
   "parameters" :
   [
    {
     "is_this_ptr" : true,
     "referenced_type" : "_ZTIPN4aidl7android8hardware3drm20ICryptoPluginDefaultE"
    },
    {
     "referenced_type" : "_ZTIPNSt3__112basic_stringIcNS_11char_traitsIcEENS_9allocatorIcEEEE"
    }
   ],
   "return_type" : "_ZTIN3ndk13ScopedAStatusE",
   "source_file" : "out/soong/.intermediates/hardware/interfaces/drm/aidl/android.hardware.drm-V1-ndk-source/gen/include/aidl/android/hardware/drm/ICryptoPlugin.h"
  },
  {
   "function_name" : "aidl::android::hardware::drm::ICryptoPluginDefault::notifyResolution",
   "linker_set_key" : "_ZN4aidl7android8hardware3drm20ICryptoPluginDefault16notifyResolutionEii",
   "parameters" :
   [
    {
     "is_this_ptr" : true,
     "referenced_type" : "_ZTIPN4aidl7android8hardware3drm20ICryptoPluginDefaultE"
    },
    {
     "referenced_type" : "_ZTIi"
    },
    {
     "referenced_type" : "_ZTIi"
    }
   ],
   "return_type" : "_ZTIN3ndk13ScopedAStatusE",
   "source_file" : "out/soong/.intermediates/hardware/interfaces/drm/aidl/android.hardware.drm-V1-ndk-source/gen/include/aidl/android/hardware/drm/ICryptoPlugin.h"
  },
  {
   "function_name" : "aidl::android::hardware::drm::ICryptoPluginDefault::setMediaDrmSession",
   "linker_set_key" : "_ZN4aidl7android8hardware3drm20ICryptoPluginDefault18setMediaDrmSessionERKNSt3__16vectorIhNS4_9allocatorIhEEEE",
   "parameters" :
   [
    {
     "is_this_ptr" : true,
     "referenced_type" : "_ZTIPN4aidl7android8hardware3drm20ICryptoPluginDefaultE"
    },
    {
     "referenced_type" : "_ZTIRKNSt3__16vectorIhNS_9allocatorIhEEEE"
    }
   ],
   "return_type" : "_ZTIN3ndk13ScopedAStatusE",
   "source_file" : "out/soong/.intermediates/hardware/interfaces/drm/aidl/android.hardware.drm-V1-ndk-source/gen/include/aidl/android/hardware/drm/ICryptoPlugin.h"
  },
  {
   "function_name" : "aidl::android::hardware::drm::ICryptoPluginDefault::getInterfaceVersion",
   "linker_set_key" : "_ZN4aidl7android8hardware3drm20ICryptoPluginDefault19getInterfaceVersionEPi",
   "parameters" :
   [
    {
     "is_this_ptr" : true,
     "referenced_type" : "_ZTIPN4aidl7android8hardware3drm20ICryptoPluginDefaultE"
    },
    {
     "referenced_type" : "_ZTIPi"
    }
   ],
   "return_type" : "_ZTIN3ndk13ScopedAStatusE",
   "source_file" : "out/soong/.intermediates/hardware/interfaces/drm/aidl/android.hardware.drm-V1-ndk-source/gen/include/aidl/android/hardware/drm/ICryptoPlugin.h"
  },
  {
   "function_name" : "aidl::android::hardware::drm::ICryptoPluginDefault::setSharedBufferBase",
   "linker_set_key" : "_ZN4aidl7android8hardware3drm20ICryptoPluginDefault19setSharedBufferBaseERKNS2_12SharedBufferE",
   "parameters" :
   [
    {
     "is_this_ptr" : true,
     "referenced_type" : "_ZTIPN4aidl7android8hardware3drm20ICryptoPluginDefaultE"
    },
    {
     "referenced_type" : "_ZTIRKN4aidl7android8hardware3drm12SharedBufferE"
    }
   ],
   "return_type" : "_ZTIN3ndk13ScopedAStatusE",
   "source_file" : "out/soong/.intermediates/hardware/interfaces/drm/aidl/android.hardware.drm-V1-ndk-source/gen/include/aidl/android/hardware/drm/ICryptoPlugin.h"
  },
  {
   "function_name" : "aidl::android::hardware::drm::ICryptoPluginDefault::requiresSecureDecoderComponent",
   "linker_set_key" : "_ZN4aidl7android8hardware3drm20ICryptoPluginDefault30requiresSecureDecoderComponentERKNSt3__112basic_stringIcNS4_11char_traitsIcEENS4_9allocatorIcEEEEPb",
   "parameters" :
   [
    {
     "is_this_ptr" : true,
     "referenced_type" : "_ZTIPN4aidl7android8hardware3drm20ICryptoPluginDefaultE"
    },
    {
     "referenced_type" : "_ZTIRKNSt3__112basic_stringIcNS_11char_traitsIcEENS_9allocatorIcEEEE"
    },
    {
     "referenced_type" : "_ZTIPb"
    }
   ],
   "return_type" : "_ZTIN3ndk13ScopedAStatusE",
   "source_file" : "out/soong/.intermediates/hardware/interfaces/drm/aidl/android.hardware.drm-V1-ndk-source/gen/include/aidl/android/hardware/drm/ICryptoPlugin.h"
  },
  {
   "function_name" : "aidl::android::hardware::drm::ICryptoPluginDefault::decrypt",
   "linker_set_key" : "_ZN4aidl7android8hardware3drm20ICryptoPluginDefault7decryptERKNS2_11DecryptArgsEPi",
   "parameters" :
   [
    {
     "is_this_ptr" : true,
     "referenced_type" : "_ZTIPN4aidl7android8hardware3drm20ICryptoPluginDefaultE"
    },
    {
     "referenced_type" : "_ZTIRKN4aidl7android8hardware3drm11DecryptArgsE"
    },
    {
     "referenced_type" : "_ZTIPi"
    }
   ],
   "return_type" : "_ZTIN3ndk13ScopedAStatusE",
   "source_file" : "out/soong/.intermediates/hardware/interfaces/drm/aidl/android.hardware.drm-V1-ndk-source/gen/include/aidl/android/hardware/drm/ICryptoPlugin.h"
  },
  {
   "function_name" : "aidl::android::hardware::drm::ICryptoPluginDefault::asBinder",
   "linker_set_key" : "_ZN4aidl7android8hardware3drm20ICryptoPluginDefault8asBinderEv",
   "parameters" :
   [
    {
     "is_this_ptr" : true,
     "referenced_type" : "_ZTIPN4aidl7android8hardware3drm20ICryptoPluginDefaultE"
    }
   ],
   "return_type" : "_ZTIN3ndk10SpAIBinderE",
   "source_file" : "out/soong/.intermediates/hardware/interfaces/drm/aidl/android.hardware.drm-V1-ndk-source/gen/include/aidl/android/hardware/drm/ICryptoPlugin.h"
  },
  {
   "function_name" : "aidl::android::hardware::drm::ICryptoPluginDefault::isRemote",
   "linker_set_key" : "_ZN4aidl7android8hardware3drm20ICryptoPluginDefault8isRemoteEv",
   "parameters" :
   [
    {
     "is_this_ptr" : true,
     "referenced_type" : "_ZTIPN4aidl7android8hardware3drm20ICryptoPluginDefaultE"
    }
   ],
   "return_type" : "_ZTIb",
   "source_file" : "out/soong/.intermediates/hardware/interfaces/drm/aidl/android.hardware.drm-V1-ndk-source/gen/include/aidl/android/hardware/drm/ICryptoPlugin.h"
  },
  {
   "function_name" : "aidl::android::hardware::drm::SupportedContentType::readFromParcel",
   "linker_set_key" : "_ZN4aidl7android8hardware3drm20SupportedContentType14readFromParcelEPK7AParcel",
   "parameters" :
   [
    {
     "is_this_ptr" : true,
     "referenced_type" : "_ZTIPN4aidl7android8hardware3drm20SupportedContentTypeE"
    },
    {
     "referenced_type" : "_ZTIPK7AParcel"
    }
   ],
   "return_type" : "_ZTIi",
   "source_file" : "out/soong/.intermediates/hardware/interfaces/drm/aidl/android.hardware.drm-V1-ndk-source/gen/include/aidl/android/hardware/drm/SupportedContentType.h"
  },
  {
   "function_name" : "aidl::android::hardware::drm::IDrmPluginListenerDefault::onKeysChange",
   "linker_set_key" : "_ZN4aidl7android8hardware3drm25IDrmPluginListenerDefault12onKeysChangeERKNSt3__16vectorIhNS4_9allocatorIhEEEERKNS5_INS2_9KeyStatusENS6_ISB_EEEEb",
   "parameters" :
   [
    {
     "is_this_ptr" : true,
     "referenced_type" : "_ZTIPN4aidl7android8hardware3drm25IDrmPluginListenerDefaultE"
    },
    {
     "referenced_type" : "_ZTIRKNSt3__16vectorIhNS_9allocatorIhEEEE"
    },
    {
     "referenced_type" : "_ZTIRKNSt3__16vectorIN4aidl7android8hardware3drm9KeyStatusENS_9allocatorIS5_EEEE"
    },
    {
     "referenced_type" : "_ZTIb"
    }
   ],
   "return_type" : "_ZTIN3ndk13ScopedAStatusE",
   "source_file" : "out/soong/.intermediates/hardware/interfaces/drm/aidl/android.hardware.drm-V1-ndk-source/gen/include/aidl/android/hardware/drm/IDrmPluginListener.h"
  },
  {
   "function_name" : "aidl::android::hardware::drm::IDrmPluginListenerDefault::getInterfaceHash",
   "linker_set_key" : "_ZN4aidl7android8hardware3drm25IDrmPluginListenerDefault16getInterfaceHashEPNSt3__112basic_stringIcNS4_11char_traitsIcEENS4_9allocatorIcEEEE",
   "parameters" :
   [
    {
     "is_this_ptr" : true,
     "referenced_type" : "_ZTIPN4aidl7android8hardware3drm25IDrmPluginListenerDefaultE"
    },
    {
     "referenced_type" : "_ZTIPNSt3__112basic_stringIcNS_11char_traitsIcEENS_9allocatorIcEEEE"
    }
   ],
   "return_type" : "_ZTIN3ndk13ScopedAStatusE",
   "source_file" : "out/soong/.intermediates/hardware/interfaces/drm/aidl/android.hardware.drm-V1-ndk-source/gen/include/aidl/android/hardware/drm/IDrmPluginListener.h"
  },
  {
   "function_name" : "aidl::android::hardware::drm::IDrmPluginListenerDefault::onExpirationUpdate",
   "linker_set_key" : "_ZN4aidl7android8hardware3drm25IDrmPluginListenerDefault18onExpirationUpdateERKNSt3__16vectorIhNS4_9allocatorIhEEEEx",
   "parameters" :
   [
    {
     "is_this_ptr" : true,
     "referenced_type" : "_ZTIPN4aidl7android8hardware3drm25IDrmPluginListenerDefaultE"
    },
    {
     "referenced_type" : "_ZTIRKNSt3__16vectorIhNS_9allocatorIhEEEE"
    },
    {
     "referenced_type" : "_ZTIx"
    }
   ],
   "return_type" : "_ZTIN3ndk13ScopedAStatusE",
   "source_file" : "out/soong/.intermediates/hardware/interfaces/drm/aidl/android.hardware.drm-V1-ndk-source/gen/include/aidl/android/hardware/drm/IDrmPluginListener.h"
  },
  {
   "function_name" : "aidl::android::hardware::drm::IDrmPluginListenerDefault::onSessionLostState",
   "linker_set_key" : "_ZN4aidl7android8hardware3drm25IDrmPluginListenerDefault18onSessionLostStateERKNSt3__16vectorIhNS4_9allocatorIhEEEE",
   "parameters" :
   [
    {
     "is_this_ptr" : true,
     "referenced_type" : "_ZTIPN4aidl7android8hardware3drm25IDrmPluginListenerDefaultE"
    },
    {
     "referenced_type" : "_ZTIRKNSt3__16vectorIhNS_9allocatorIhEEEE"
    }
   ],
   "return_type" : "_ZTIN3ndk13ScopedAStatusE",
   "source_file" : "out/soong/.intermediates/hardware/interfaces/drm/aidl/android.hardware.drm-V1-ndk-source/gen/include/aidl/android/hardware/drm/IDrmPluginListener.h"
  },
  {
   "function_name" : "aidl::android::hardware::drm::IDrmPluginListenerDefault::getInterfaceVersion",
   "linker_set_key" : "_ZN4aidl7android8hardware3drm25IDrmPluginListenerDefault19getInterfaceVersionEPi",
   "parameters" :
   [
    {
     "is_this_ptr" : true,
     "referenced_type" : "_ZTIPN4aidl7android8hardware3drm25IDrmPluginListenerDefaultE"
    },
    {
     "referenced_type" : "_ZTIPi"
    }
   ],
   "return_type" : "_ZTIN3ndk13ScopedAStatusE",
   "source_file" : "out/soong/.intermediates/hardware/interfaces/drm/aidl/android.hardware.drm-V1-ndk-source/gen/include/aidl/android/hardware/drm/IDrmPluginListener.h"
  },
  {
   "function_name" : "aidl::android::hardware::drm::IDrmPluginListenerDefault::onEvent",
   "linker_set_key" : "_ZN4aidl7android8hardware3drm25IDrmPluginListenerDefault7onEventENS2_9EventTypeERKNSt3__16vectorIhNS5_9allocatorIhEEEESB_",
   "parameters" :
   [
    {
     "is_this_ptr" : true,
     "referenced_type" : "_ZTIPN4aidl7android8hardware3drm25IDrmPluginListenerDefaultE"
    },
    {
     "referenced_type" : "_ZTIN4aidl7android8hardware3drm9EventTypeE"
    },
    {
     "referenced_type" : "_ZTIRKNSt3__16vectorIhNS_9allocatorIhEEEE"
    },
    {
     "referenced_type" : "_ZTIRKNSt3__16vectorIhNS_9allocatorIhEEEE"
    }
   ],
   "return_type" : "_ZTIN3ndk13ScopedAStatusE",
   "source_file" : "out/soong/.intermediates/hardware/interfaces/drm/aidl/android.hardware.drm-V1-ndk-source/gen/include/aidl/android/hardware/drm/IDrmPluginListener.h"
  },
  {
   "function_name" : "aidl::android::hardware::drm::IDrmPluginListenerDefault::asBinder",
   "linker_set_key" : "_ZN4aidl7android8hardware3drm25IDrmPluginListenerDefault8asBinderEv",
   "parameters" :
   [
    {
     "is_this_ptr" : true,
     "referenced_type" : "_ZTIPN4aidl7android8hardware3drm25IDrmPluginListenerDefaultE"
    }
   ],
   "return_type" : "_ZTIN3ndk10SpAIBinderE",
   "source_file" : "out/soong/.intermediates/hardware/interfaces/drm/aidl/android.hardware.drm-V1-ndk-source/gen/include/aidl/android/hardware/drm/IDrmPluginListener.h"
  },
  {
   "function_name" : "aidl::android::hardware::drm::IDrmPluginListenerDefault::isRemote",
   "linker_set_key" : "_ZN4aidl7android8hardware3drm25IDrmPluginListenerDefault8isRemoteEv",
   "parameters" :
   [
    {
     "is_this_ptr" : true,
     "referenced_type" : "_ZTIPN4aidl7android8hardware3drm25IDrmPluginListenerDefaultE"
    }
   ],
   "return_type" : "_ZTIb",
   "source_file" : "out/soong/.intermediates/hardware/interfaces/drm/aidl/android.hardware.drm-V1-ndk-source/gen/include/aidl/android/hardware/drm/IDrmPluginListener.h"
  },
  {
   "function_name" : "aidl::android::hardware::drm::ProvideProvisionResponseResult::readFromParcel",
   "linker_set_key" : "_ZN4aidl7android8hardware3drm30ProvideProvisionResponseResult14readFromParcelEPK7AParcel",
   "parameters" :
   [
    {
     "is_this_ptr" : true,
     "referenced_type" : "_ZTIPN4aidl7android8hardware3drm30ProvideProvisionResponseResultE"
    },
    {
     "referenced_type" : "_ZTIPK7AParcel"
    }
   ],
   "return_type" : "_ZTIi",
   "source_file" : "out/soong/.intermediates/hardware/interfaces/drm/aidl/android.hardware.drm-V1-ndk-source/gen/include/aidl/android/hardware/drm/ProvideProvisionResponseResult.h"
  },
  {
   "function_name" : "aidl::android::hardware::drm::Uuid::readFromParcel",
   "linker_set_key" : "_ZN4aidl7android8hardware3drm4Uuid14readFromParcelEPK7AParcel",
   "parameters" :
   [
    {
     "is_this_ptr" : true,
     "referenced_type" : "_ZTIPN4aidl7android8hardware3drm4UuidE"
    },
    {
     "referenced_type" : "_ZTIPK7AParcel"
    }
   ],
   "return_type" : "_ZTIi",
   "source_file" : "out/soong/.intermediates/hardware/interfaces/drm/aidl/android.hardware.drm-V1-ndk-source/gen/include/aidl/android/hardware/drm/Uuid.h"
  },
  {
   "function_name" : "aidl::android::hardware::drm::Pattern::readFromParcel",
   "linker_set_key" : "_ZN4aidl7android8hardware3drm7Pattern14readFromParcelEPK7AParcel",
   "parameters" :
   [
    {
     "is_this_ptr" : true,
     "referenced_type" : "_ZTIPN4aidl7android8hardware3drm7PatternE"
    },
    {
     "referenced_type" : "_ZTIPK7AParcel"
    }
   ],
   "return_type" : "_ZTIi",
   "source_file" : "out/soong/.intermediates/hardware/interfaces/drm/aidl/android.hardware.drm-V1-ndk-source/gen/include/aidl/android/hardware/drm/Pattern.h"
  },
  {
   "function_name" : "aidl::android::hardware::drm::KeySetId::readFromParcel",
   "linker_set_key" : "_ZN4aidl7android8hardware3drm8KeySetId14readFromParcelEPK7AParcel",
   "parameters" :
   [
    {
     "is_this_ptr" : true,
     "referenced_type" : "_ZTIPN4aidl7android8hardware3drm8KeySetIdE"
    },
    {
     "referenced_type" : "_ZTIPK7AParcel"
    }
   ],
   "return_type" : "_ZTIi",
   "source_file" : "out/soong/.intermediates/hardware/interfaces/drm/aidl/android.hardware.drm-V1-ndk-source/gen/include/aidl/android/hardware/drm/KeySetId.h"
  },
  {
   "function_name" : "aidl::android::hardware::drm::KeyValue::readFromParcel",
   "linker_set_key" : "_ZN4aidl7android8hardware3drm8KeyValue14readFromParcelEPK7AParcel",
   "parameters" :
   [
    {
     "is_this_ptr" : true,
     "referenced_type" : "_ZTIPN4aidl7android8hardware3drm8KeyValueE"
    },
    {
     "referenced_type" : "_ZTIPK7AParcel"
    }
   ],
   "return_type" : "_ZTIi",
   "source_file" : "out/soong/.intermediates/hardware/interfaces/drm/aidl/android.hardware.drm-V1-ndk-source/gen/include/aidl/android/hardware/drm/KeyValue.h"
  },
  {
   "function_name" : "aidl::android::hardware::drm::DrmMetric::readFromParcel",
   "linker_set_key" : "_ZN4aidl7android8hardware3drm9DrmMetric14readFromParcelEPK7AParcel",
   "parameters" :
   [
    {
     "is_this_ptr" : true,
     "referenced_type" : "_ZTIPN4aidl7android8hardware3drm9DrmMetricE"
    },
    {
     "referenced_type" : "_ZTIPK7AParcel"
    }
   ],
   "return_type" : "_ZTIi",
   "source_file" : "out/soong/.intermediates/hardware/interfaces/drm/aidl/android.hardware.drm-V1-ndk-source/gen/include/aidl/android/hardware/drm/DrmMetric.h"
  },
  {
   "function_name" : "aidl::android::hardware::drm::KeyStatus::readFromParcel",
   "linker_set_key" : "_ZN4aidl7android8hardware3drm9KeyStatus14readFromParcelEPK7AParcel",
   "parameters" :
   [
    {
     "is_this_ptr" : true,
     "referenced_type" : "_ZTIPN4aidl7android8hardware3drm9KeyStatusE"
    },
    {
     "referenced_type" : "_ZTIPK7AParcel"
    }
   ],
   "return_type" : "_ZTIi",
   "source_file" : "out/soong/.intermediates/hardware/interfaces/drm/aidl/android.hardware.drm-V1-ndk-source/gen/include/aidl/android/hardware/drm/KeyStatus.h"
  },
  {
   "function_name" : "aidl::android::hardware::drm::SubSample::readFromParcel",
   "linker_set_key" : "_ZN4aidl7android8hardware3drm9SubSample14readFromParcelEPK7AParcel",
   "parameters" :
   [
    {
     "is_this_ptr" : true,
     "referenced_type" : "_ZTIPN4aidl7android8hardware3drm9SubSampleE"
    },
    {
     "referenced_type" : "_ZTIPK7AParcel"
    }
   ],
   "return_type" : "_ZTIi",
   "source_file" : "out/soong/.intermediates/hardware/interfaces/drm/aidl/android.hardware.drm-V1-ndk-source/gen/include/aidl/android/hardware/drm/SubSample.h"
  },
  {
   "function_name" : "aidl::android::hardware::drm::HdcpLevels::writeToParcel",
   "linker_set_key" : "_ZNK4aidl7android8hardware3drm10HdcpLevels13writeToParcelEP7AParcel",
   "parameters" :
   [
    {
     "is_this_ptr" : true,
     "referenced_type" : "_ZTIPKN4aidl7android8hardware3drm10HdcpLevelsE"
    },
    {
     "referenced_type" : "_ZTIP7AParcel"
    }
   ],
   "return_type" : "_ZTIi",
   "source_file" : "out/soong/.intermediates/hardware/interfaces/drm/aidl/android.hardware.drm-V1-ndk-source/gen/include/aidl/android/hardware/drm/HdcpLevels.h"
  },
  {
   "function_name" : "aidl::android::hardware::drm::KeyRequest::writeToParcel",
   "linker_set_key" : "_ZNK4aidl7android8hardware3drm10KeyRequest13writeToParcelEP7AParcel",
   "parameters" :
   [
    {
     "is_this_ptr" : true,
     "referenced_type" : "_ZTIPKN4aidl7android8hardware3drm10KeyRequestE"
    },
    {
     "referenced_type" : "_ZTIP7AParcel"
    }
   ],
   "return_type" : "_ZTIi",
   "source_file" : "out/soong/.intermediates/hardware/interfaces/drm/aidl/android.hardware.drm-V1-ndk-source/gen/include/aidl/android/hardware/drm/KeyRequest.h"
  },
  {
   "function_name" : "aidl::android::hardware::drm::LogMessage::writeToParcel",
   "linker_set_key" : "_ZNK4aidl7android8hardware3drm10LogMessage13writeToParcelEP7AParcel",
   "parameters" :
   [
    {
     "is_this_ptr" : true,
     "referenced_type" : "_ZTIPKN4aidl7android8hardware3drm10LogMessageE"
    },
    {
     "referenced_type" : "_ZTIP7AParcel"
    }
   ],
   "return_type" : "_ZTIi",
   "source_file" : "out/soong/.intermediates/hardware/interfaces/drm/aidl/android.hardware.drm-V1-ndk-source/gen/include/aidl/android/hardware/drm/LogMessage.h"
  },
  {
   "function_name" : "aidl::android::hardware::drm::OpaqueData::writeToParcel",
   "linker_set_key" : "_ZNK4aidl7android8hardware3drm10OpaqueData13writeToParcelEP7AParcel",
   "parameters" :
   [
    {
     "is_this_ptr" : true,
     "referenced_type" : "_ZTIPKN4aidl7android8hardware3drm10OpaqueDataE"
    },
    {
     "referenced_type" : "_ZTIP7AParcel"
    }
   ],
   "return_type" : "_ZTIi",
   "source_file" : "out/soong/.intermediates/hardware/interfaces/drm/aidl/android.hardware.drm-V1-ndk-source/gen/include/aidl/android/hardware/drm/OpaqueData.h"
  },
  {
   "function_name" : "aidl::android::hardware::drm::SecureStop::writeToParcel",
   "linker_set_key" : "_ZNK4aidl7android8hardware3drm10SecureStop13writeToParcelEP7AParcel",
   "parameters" :
   [
    {
     "is_this_ptr" : true,
     "referenced_type" : "_ZTIPKN4aidl7android8hardware3drm10SecureStopE"
    },
    {
     "referenced_type" : "_ZTIP7AParcel"
    }
   ],
   "return_type" : "_ZTIi",
   "source_file" : "out/soong/.intermediates/hardware/interfaces/drm/aidl/android.hardware.drm-V1-ndk-source/gen/include/aidl/android/hardware/drm/SecureStop.h"
  },
  {
   "function_name" : "aidl::android::hardware::drm::DecryptArgs::writeToParcel",
   "linker_set_key" : "_ZNK4aidl7android8hardware3drm11DecryptArgs13writeToParcelEP7AParcel",
   "parameters" :
   [
    {
     "is_this_ptr" : true,
     "referenced_type" : "_ZTIPKN4aidl7android8hardware3drm11DecryptArgsE"
    },
    {
     "referenced_type" : "_ZTIP7AParcel"
    }
   ],
   "return_type" : "_ZTIi",
   "source_file" : "out/soong/.intermediates/hardware/interfaces/drm/aidl/android.hardware.drm-V1-ndk-source/gen/include/aidl/android/hardware/drm/DecryptArgs.h"
  },
  {
   "function_name" : "aidl::android::hardware::drm::SecureStopId::writeToParcel",
   "linker_set_key" : "_ZNK4aidl7android8hardware3drm12SecureStopId13writeToParcelEP7AParcel",
   "parameters" :
   [
    {
     "is_this_ptr" : true,
     "referenced_type" : "_ZTIPKN4aidl7android8hardware3drm12SecureStopIdE"
    },
    {
     "referenced_type" : "_ZTIP7AParcel"
    }
   ],
   "return_type" : "_ZTIi",
   "source_file" : "out/soong/.intermediates/hardware/interfaces/drm/aidl/android.hardware.drm-V1-ndk-source/gen/include/aidl/android/hardware/drm/SecureStopId.h"
  },
  {
   "function_name" : "aidl::android::hardware::drm::SharedBuffer::writeToParcel",
   "linker_set_key" : "_ZNK4aidl7android8hardware3drm12SharedBuffer13writeToParcelEP7AParcel",
   "parameters" :
   [
    {
     "is_this_ptr" : true,
     "referenced_type" : "_ZTIPKN4aidl7android8hardware3drm12SharedBufferE"
    },
    {
     "referenced_type" : "_ZTIP7AParcel"
    }
   ],
   "return_type" : "_ZTIi",
   "source_file" : "out/soong/.intermediates/hardware/interfaces/drm/aidl/android.hardware.drm-V1-ndk-source/gen/include/aidl/android/hardware/drm/SharedBuffer.h"
  },
  {
   "function_name" : "aidl::android::hardware::drm::CryptoSchemes::writeToParcel",
   "linker_set_key" : "_ZNK4aidl7android8hardware3drm13CryptoSchemes13writeToParcelEP7AParcel",
   "parameters" :
   [
    {
     "is_this_ptr" : true,
     "referenced_type" : "_ZTIPKN4aidl7android8hardware3drm13CryptoSchemesE"
    },
    {
     "referenced_type" : "_ZTIP7AParcel"
    }
   ],
   "return_type" : "_ZTIi",
   "source_file" : "out/soong/.intermediates/hardware/interfaces/drm/aidl/android.hardware.drm-V1-ndk-source/gen/include/aidl/android/hardware/drm/CryptoSchemes.h"
  },
  {
   "function_name" : "aidl::android::hardware::drm::DrmMetricGroup::writeToParcel",
   "linker_set_key" : "_ZNK4aidl7android8hardware3drm14DrmMetricGroup13writeToParcelEP7AParcel",
   "parameters" :
   [
    {
     "is_this_ptr" : true,
     "referenced_type" : "_ZTIPKN4aidl7android8hardware3drm14DrmMetricGroupE"
    },
    {
     "referenced_type" : "_ZTIP7AParcel"
    }
   ],
   "return_type" : "_ZTIi",
   "source_file" : "out/soong/.intermediates/hardware/interfaces/drm/aidl/android.hardware.drm-V1-ndk-source/gen/include/aidl/android/hardware/drm/DrmMetricGroup.h"
  },
  {
   "function_name" : "aidl::android::hardware::drm::DrmMetricValue::writeToParcel",
   "linker_set_key" : "_ZNK4aidl7android8hardware3drm14DrmMetricValue13writeToParcelEP7AParcel",
   "parameters" :
   [
    {
     "is_this_ptr" : true,
     "referenced_type" : "_ZTIPKN4aidl7android8hardware3drm14DrmMetricValueE"
    },
    {
     "referenced_type" : "_ZTIP7AParcel"
    }
   ],
   "return_type" : "_ZTIi",
   "source_file" : "out/soong/.intermediates/hardware/interfaces/drm/aidl/android.hardware.drm-V1-ndk-source/gen/include/aidl/android/hardware/drm/DrmMetricValue.h"
  },
  {
   "function_name" : "aidl::android::hardware::drm::NumberOfSessions::writeToParcel",
   "linker_set_key" : "_ZNK4aidl7android8hardware3drm16NumberOfSessions13writeToParcelEP7AParcel",
   "parameters" :
   [
    {
     "is_this_ptr" : true,
     "referenced_type" : "_ZTIPKN4aidl7android8hardware3drm16NumberOfSessionsE"
    },
    {
     "referenced_type" : "_ZTIP7AParcel"
    }
   ],
   "return_type" : "_ZTIi",
   "source_file" : "out/soong/.intermediates/hardware/interfaces/drm/aidl/android.hardware.drm-V1-ndk-source/gen/include/aidl/android/hardware/drm/NumberOfSessions.h"
  },
  {
   "function_name" : "aidl::android::hardware::drm::ProvisionRequest::writeToParcel",
   "linker_set_key" : "_ZNK4aidl7android8hardware3drm16ProvisionRequest13writeToParcelEP7AParcel",
   "parameters" :
   [
    {
     "is_this_ptr" : true,
     "referenced_type" : "_ZTIPKN4aidl7android8hardware3drm16ProvisionRequestE"
    },
    {
     "referenced_type" : "_ZTIP7AParcel"
    }
   ],
   "return_type" : "_ZTIi",
   "source_file" : "out/soong/.intermediates/hardware/interfaces/drm/aidl/android.hardware.drm-V1-ndk-source/gen/include/aidl/android/hardware/drm/ProvisionRequest.h"
  },
  {
   "function_name" : "aidl::android::hardware::drm::DestinationBuffer::writeToParcel",
   "linker_set_key" : "_ZNK4aidl7android8hardware3drm17DestinationBuffer13writeToParcelEP7AParcel",
   "parameters" :
   [
    {
     "is_this_ptr" : true,
     "referenced_type" : "_ZTIPKN4aidl7android8hardware3drm17DestinationBufferE"
    },
    {
     "referenced_type" : "_ZTIP7AParcel"
    }
   ],
   "return_type" : "_ZTIi",
   "source_file" : "out/soong/.intermediates/hardware/interfaces/drm/aidl/android.hardware.drm-V1-ndk-source/gen/include/aidl/android/hardware/drm/DestinationBuffer.h"
  },
  {
   "function_name" : "aidl::android::hardware::drm::DrmMetricNamedValue::writeToParcel",
   "linker_set_key" : "_ZNK4aidl7android8hardware3drm19DrmMetricNamedValue13writeToParcelEP7AParcel",
   "parameters" :
   [
    {
     "is_this_ptr" : true,
     "referenced_type" : "_ZTIPKN4aidl7android8hardware3drm19DrmMetricNamedValueE"
    },
    {
     "referenced_type" : "_ZTIP7AParcel"
    }
   ],
   "return_type" : "_ZTIi",
   "source_file" : "out/soong/.intermediates/hardware/interfaces/drm/aidl/android.hardware.drm-V1-ndk-source/gen/include/aidl/android/hardware/drm/DrmMetricNamedValue.h"
  },
  {
   "function_name" : "aidl::android::hardware::drm::SupportedContentType::writeToParcel",
   "linker_set_key" : "_ZNK4aidl7android8hardware3drm20SupportedContentType13writeToParcelEP7AParcel",
   "parameters" :
   [
    {
     "is_this_ptr" : true,
     "referenced_type" : "_ZTIPKN4aidl7android8hardware3drm20SupportedContentTypeE"
    },
    {
     "referenced_type" : "_ZTIP7AParcel"
    }
   ],
   "return_type" : "_ZTIi",
   "source_file" : "out/soong/.intermediates/hardware/interfaces/drm/aidl/android.hardware.drm-V1-ndk-source/gen/include/aidl/android/hardware/drm/SupportedContentType.h"
  },
  {
   "function_name" : "aidl::android::hardware::drm::ProvideProvisionResponseResult::writeToParcel",
   "linker_set_key" : "_ZNK4aidl7android8hardware3drm30ProvideProvisionResponseResult13writeToParcelEP7AParcel",
   "parameters" :
   [
    {
     "is_this_ptr" : true,
     "referenced_type" : "_ZTIPKN4aidl7android8hardware3drm30ProvideProvisionResponseResultE"
    },
    {
     "referenced_type" : "_ZTIP7AParcel"
    }
   ],
   "return_type" : "_ZTIi",
   "source_file" : "out/soong/.intermediates/hardware/interfaces/drm/aidl/android.hardware.drm-V1-ndk-source/gen/include/aidl/android/hardware/drm/ProvideProvisionResponseResult.h"
  },
  {
   "function_name" : "aidl::android::hardware::drm::Uuid::writeToParcel",
   "linker_set_key" : "_ZNK4aidl7android8hardware3drm4Uuid13writeToParcelEP7AParcel",
   "parameters" :
   [
    {
     "is_this_ptr" : true,
     "referenced_type" : "_ZTIPKN4aidl7android8hardware3drm4UuidE"
    },
    {
     "referenced_type" : "_ZTIP7AParcel"
    }
   ],
   "return_type" : "_ZTIi",
   "source_file" : "out/soong/.intermediates/hardware/interfaces/drm/aidl/android.hardware.drm-V1-ndk-source/gen/include/aidl/android/hardware/drm/Uuid.h"
  },
  {
   "function_name" : "aidl::android::hardware::drm::Pattern::writeToParcel",
   "linker_set_key" : "_ZNK4aidl7android8hardware3drm7Pattern13writeToParcelEP7AParcel",
   "parameters" :
   [
    {
     "is_this_ptr" : true,
     "referenced_type" : "_ZTIPKN4aidl7android8hardware3drm7PatternE"
    },
    {
     "referenced_type" : "_ZTIP7AParcel"
    }
   ],
   "return_type" : "_ZTIi",
   "source_file" : "out/soong/.intermediates/hardware/interfaces/drm/aidl/android.hardware.drm-V1-ndk-source/gen/include/aidl/android/hardware/drm/Pattern.h"
  },
  {
   "function_name" : "aidl::android::hardware::drm::KeySetId::writeToParcel",
   "linker_set_key" : "_ZNK4aidl7android8hardware3drm8KeySetId13writeToParcelEP7AParcel",
   "parameters" :
   [
    {
     "is_this_ptr" : true,
     "referenced_type" : "_ZTIPKN4aidl7android8hardware3drm8KeySetIdE"
    },
    {
     "referenced_type" : "_ZTIP7AParcel"
    }
   ],
   "return_type" : "_ZTIi",
   "source_file" : "out/soong/.intermediates/hardware/interfaces/drm/aidl/android.hardware.drm-V1-ndk-source/gen/include/aidl/android/hardware/drm/KeySetId.h"
  },
  {
   "function_name" : "aidl::android::hardware::drm::KeyValue::writeToParcel",
   "linker_set_key" : "_ZNK4aidl7android8hardware3drm8KeyValue13writeToParcelEP7AParcel",
   "parameters" :
   [
    {
     "is_this_ptr" : true,
     "referenced_type" : "_ZTIPKN4aidl7android8hardware3drm8KeyValueE"
    },
    {
     "referenced_type" : "_ZTIP7AParcel"
    }
   ],
   "return_type" : "_ZTIi",
   "source_file" : "out/soong/.intermediates/hardware/interfaces/drm/aidl/android.hardware.drm-V1-ndk-source/gen/include/aidl/android/hardware/drm/KeyValue.h"
  },
  {
   "function_name" : "aidl::android::hardware::drm::DrmMetric::writeToParcel",
   "linker_set_key" : "_ZNK4aidl7android8hardware3drm9DrmMetric13writeToParcelEP7AParcel",
   "parameters" :
   [
    {
     "is_this_ptr" : true,
     "referenced_type" : "_ZTIPKN4aidl7android8hardware3drm9DrmMetricE"
    },
    {
     "referenced_type" : "_ZTIP7AParcel"
    }
   ],
   "return_type" : "_ZTIi",
   "source_file" : "out/soong/.intermediates/hardware/interfaces/drm/aidl/android.hardware.drm-V1-ndk-source/gen/include/aidl/android/hardware/drm/DrmMetric.h"
  },
  {
   "function_name" : "aidl::android::hardware::drm::KeyStatus::writeToParcel",
   "linker_set_key" : "_ZNK4aidl7android8hardware3drm9KeyStatus13writeToParcelEP7AParcel",
   "parameters" :
   [
    {
     "is_this_ptr" : true,
     "referenced_type" : "_ZTIPKN4aidl7android8hardware3drm9KeyStatusE"
    },
    {
     "referenced_type" : "_ZTIP7AParcel"
    }
   ],
   "return_type" : "_ZTIi",
   "source_file" : "out/soong/.intermediates/hardware/interfaces/drm/aidl/android.hardware.drm-V1-ndk-source/gen/include/aidl/android/hardware/drm/KeyStatus.h"
  },
  {
   "function_name" : "aidl::android::hardware::drm::SubSample::writeToParcel",
   "linker_set_key" : "_ZNK4aidl7android8hardware3drm9SubSample13writeToParcelEP7AParcel",
   "parameters" :
   [
    {
     "is_this_ptr" : true,
     "referenced_type" : "_ZTIPKN4aidl7android8hardware3drm9SubSampleE"
    },
    {
     "referenced_type" : "_ZTIP7AParcel"
    }
   ],
   "return_type" : "_ZTIi",
   "source_file" : "out/soong/.intermediates/hardware/interfaces/drm/aidl/android.hardware.drm-V1-ndk-source/gen/include/aidl/android/hardware/drm/SubSample.h"
  }
 ],
 "global_vars" :
 [
  {
   "linker_set_key" : "_ZN4aidl7android8hardware3drm10HdcpLevels10descriptorE",
   "name" : "aidl::android::hardware::drm::HdcpLevels::descriptor",
   "referenced_type" : "_ZTIPKc",
   "source_file" : "out/soong/.intermediates/hardware/interfaces/drm/aidl/android.hardware.drm-V1-ndk-source/gen/include/aidl/android/hardware/drm/HdcpLevels.h"
  },
  {
   "linker_set_key" : "_ZN4aidl7android8hardware3drm10IDrmPlugin10descriptorE",
   "name" : "aidl::android::hardware::drm::IDrmPlugin::descriptor",
   "referenced_type" : "_ZTIPKc",
   "source_file" : "out/soong/.intermediates/hardware/interfaces/drm/aidl/android.hardware.drm-V1-ndk-source/gen/include/aidl/android/hardware/drm/IDrmPlugin.h"
  },
  {
   "access" : "private",
   "linker_set_key" : "_ZN4aidl7android8hardware3drm10IDrmPlugin12default_implE",
   "name" : "aidl::android::hardware::drm::IDrmPlugin::default_impl",
   "referenced_type" : "_ZTINSt3__110shared_ptrIN4aidl7android8hardware3drm10IDrmPluginEEE",
   "source_file" : "out/soong/.intermediates/hardware/interfaces/drm/aidl/android.hardware.drm-V1-ndk-source/gen/include/aidl/android/hardware/drm/IDrmPlugin.h"
  },
  {
   "linker_set_key" : "_ZN4aidl7android8hardware3drm10IDrmPlugin4hashE",
   "name" : "aidl::android::hardware::drm::IDrmPlugin::hash",
   "referenced_type" : "_ZTIKNSt3__112basic_stringIcNS_11char_traitsIcEENS_9allocatorIcEEEE",
   "source_file" : "out/soong/.intermediates/hardware/interfaces/drm/aidl/android.hardware.drm-V1-ndk-source/gen/include/aidl/android/hardware/drm/IDrmPlugin.h"
  },
  {
   "linker_set_key" : "_ZN4aidl7android8hardware3drm10KeyRequest10descriptorE",
   "name" : "aidl::android::hardware::drm::KeyRequest::descriptor",
   "referenced_type" : "_ZTIPKc",
   "source_file" : "out/soong/.intermediates/hardware/interfaces/drm/aidl/android.hardware.drm-V1-ndk-source/gen/include/aidl/android/hardware/drm/KeyRequest.h"
  },
  {
   "linker_set_key" : "_ZN4aidl7android8hardware3drm10LogMessage10descriptorE",
   "name" : "aidl::android::hardware::drm::LogMessage::descriptor",
   "referenced_type" : "_ZTIPKc",
   "source_file" : "out/soong/.intermediates/hardware/interfaces/drm/aidl/android.hardware.drm-V1-ndk-source/gen/include/aidl/android/hardware/drm/LogMessage.h"
  },
  {
   "linker_set_key" : "_ZN4aidl7android8hardware3drm10OpaqueData10descriptorE",
   "name" : "aidl::android::hardware::drm::OpaqueData::descriptor",
   "referenced_type" : "_ZTIPKc",
   "source_file" : "out/soong/.intermediates/hardware/interfaces/drm/aidl/android.hardware.drm-V1-ndk-source/gen/include/aidl/android/hardware/drm/OpaqueData.h"
  },
  {
   "linker_set_key" : "_ZN4aidl7android8hardware3drm10SecureStop10descriptorE",
   "name" : "aidl::android::hardware::drm::SecureStop::descriptor",
   "referenced_type" : "_ZTIPKc",
   "source_file" : "out/soong/.intermediates/hardware/interfaces/drm/aidl/android.hardware.drm-V1-ndk-source/gen/include/aidl/android/hardware/drm/SecureStop.h"
  },
  {
   "linker_set_key" : "_ZN4aidl7android8hardware3drm11DecryptArgs10descriptorE",
   "name" : "aidl::android::hardware::drm::DecryptArgs::descriptor",
   "referenced_type" : "_ZTIPKc",
   "source_file" : "out/soong/.intermediates/hardware/interfaces/drm/aidl/android.hardware.drm-V1-ndk-source/gen/include/aidl/android/hardware/drm/DecryptArgs.h"
  },
  {
   "linker_set_key" : "_ZN4aidl7android8hardware3drm11IDrmFactory10descriptorE",
   "name" : "aidl::android::hardware::drm::IDrmFactory::descriptor",
   "referenced_type" : "_ZTIPKc",
   "source_file" : "out/soong/.intermediates/hardware/interfaces/drm/aidl/android.hardware.drm-V1-ndk-source/gen/include/aidl/android/hardware/drm/IDrmFactory.h"
  },
  {
   "access" : "private",
   "linker_set_key" : "_ZN4aidl7android8hardware3drm11IDrmFactory12default_implE",
   "name" : "aidl::android::hardware::drm::IDrmFactory::default_impl",
   "referenced_type" : "_ZTINSt3__110shared_ptrIN4aidl7android8hardware3drm11IDrmFactoryEEE",
   "source_file" : "out/soong/.intermediates/hardware/interfaces/drm/aidl/android.hardware.drm-V1-ndk-source/gen/include/aidl/android/hardware/drm/IDrmFactory.h"
  },
  {
   "linker_set_key" : "_ZN4aidl7android8hardware3drm11IDrmFactory4hashE",
   "name" : "aidl::android::hardware::drm::IDrmFactory::hash",
   "referenced_type" : "_ZTIKNSt3__112basic_stringIcNS_11char_traitsIcEENS_9allocatorIcEEEE",
   "source_file" : "out/soong/.intermediates/hardware/interfaces/drm/aidl/android.hardware.drm-V1-ndk-source/gen/include/aidl/android/hardware/drm/IDrmFactory.h"
  },
  {
   "linker_set_key" : "_ZN4aidl7android8hardware3drm12SecureStopId10descriptorE",
   "name" : "aidl::android::hardware::drm::SecureStopId::descriptor",
   "referenced_type" : "_ZTIPKc",
   "source_file" : "out/soong/.intermediates/hardware/interfaces/drm/aidl/android.hardware.drm-V1-ndk-source/gen/include/aidl/android/hardware/drm/SecureStopId.h"
  },
  {
   "linker_set_key" : "_ZN4aidl7android8hardware3drm12SharedBuffer10descriptorE",
   "name" : "aidl::android::hardware::drm::SharedBuffer::descriptor",
   "referenced_type" : "_ZTIPKc",
   "source_file" : "out/soong/.intermediates/hardware/interfaces/drm/aidl/android.hardware.drm-V1-ndk-source/gen/include/aidl/android/hardware/drm/SharedBuffer.h"
  },
  {
   "linker_set_key" : "_ZN4aidl7android8hardware3drm13CryptoSchemes10descriptorE",
   "name" : "aidl::android::hardware::drm::CryptoSchemes::descriptor",
   "referenced_type" : "_ZTIPKc",
   "source_file" : "out/soong/.intermediates/hardware/interfaces/drm/aidl/android.hardware.drm-V1-ndk-source/gen/include/aidl/android/hardware/drm/CryptoSchemes.h"
  },
  {
   "linker_set_key" : "_ZN4aidl7android8hardware3drm13ICryptoPlugin10descriptorE",
   "name" : "aidl::android::hardware::drm::ICryptoPlugin::descriptor",
   "referenced_type" : "_ZTIPKc",
   "source_file" : "out/soong/.intermediates/hardware/interfaces/drm/aidl/android.hardware.drm-V1-ndk-source/gen/include/aidl/android/hardware/drm/ICryptoPlugin.h"
  },
  {
   "access" : "private",
   "linker_set_key" : "_ZN4aidl7android8hardware3drm13ICryptoPlugin12default_implE",
   "name" : "aidl::android::hardware::drm::ICryptoPlugin::default_impl",
   "referenced_type" : "_ZTINSt3__110shared_ptrIN4aidl7android8hardware3drm13ICryptoPluginEEE",
   "source_file" : "out/soong/.intermediates/hardware/interfaces/drm/aidl/android.hardware.drm-V1-ndk-source/gen/include/aidl/android/hardware/drm/ICryptoPlugin.h"
  },
  {
   "linker_set_key" : "_ZN4aidl7android8hardware3drm13ICryptoPlugin4hashE",
   "name" : "aidl::android::hardware::drm::ICryptoPlugin::hash",
   "referenced_type" : "_ZTIKNSt3__112basic_stringIcNS_11char_traitsIcEENS_9allocatorIcEEEE",
   "source_file" : "out/soong/.intermediates/hardware/interfaces/drm/aidl/android.hardware.drm-V1-ndk-source/gen/include/aidl/android/hardware/drm/ICryptoPlugin.h"
  },
  {
   "linker_set_key" : "_ZN4aidl7android8hardware3drm14DrmMetricGroup10descriptorE",
   "name" : "aidl::android::hardware::drm::DrmMetricGroup::descriptor",
   "referenced_type" : "_ZTIPKc",
   "source_file" : "out/soong/.intermediates/hardware/interfaces/drm/aidl/android.hardware.drm-V1-ndk-source/gen/include/aidl/android/hardware/drm/DrmMetricGroup.h"
  },
  {
   "linker_set_key" : "_ZN4aidl7android8hardware3drm14DrmMetricValue10descriptorE",
   "name" : "aidl::android::hardware::drm::DrmMetricValue::descriptor",
   "referenced_type" : "_ZTIPKc",
   "source_file" : "out/soong/.intermediates/hardware/interfaces/drm/aidl/android.hardware.drm-V1-ndk-source/gen/include/aidl/android/hardware/drm/DrmMetricValue.h"
  },
  {
   "linker_set_key" : "_ZN4aidl7android8hardware3drm16NumberOfSessions10descriptorE",
   "name" : "aidl::android::hardware::drm::NumberOfSessions::descriptor",
   "referenced_type" : "_ZTIPKc",
   "source_file" : "out/soong/.intermediates/hardware/interfaces/drm/aidl/android.hardware.drm-V1-ndk-source/gen/include/aidl/android/hardware/drm/NumberOfSessions.h"
  },
  {
   "linker_set_key" : "_ZN4aidl7android8hardware3drm16ProvisionRequest10descriptorE",
   "name" : "aidl::android::hardware::drm::ProvisionRequest::descriptor",
   "referenced_type" : "_ZTIPKc",
   "source_file" : "out/soong/.intermediates/hardware/interfaces/drm/aidl/android.hardware.drm-V1-ndk-source/gen/include/aidl/android/hardware/drm/ProvisionRequest.h"
  },
  {
   "linker_set_key" : "_ZN4aidl7android8hardware3drm17DestinationBuffer10descriptorE",
   "name" : "aidl::android::hardware::drm::DestinationBuffer::descriptor",
   "referenced_type" : "_ZTIPKc",
   "source_file" : "out/soong/.intermediates/hardware/interfaces/drm/aidl/android.hardware.drm-V1-ndk-source/gen/include/aidl/android/hardware/drm/DestinationBuffer.h"
  },
  {
   "linker_set_key" : "_ZN4aidl7android8hardware3drm18IDrmPluginListener10descriptorE",
   "name" : "aidl::android::hardware::drm::IDrmPluginListener::descriptor",
   "referenced_type" : "_ZTIPKc",
   "source_file" : "out/soong/.intermediates/hardware/interfaces/drm/aidl/android.hardware.drm-V1-ndk-source/gen/include/aidl/android/hardware/drm/IDrmPluginListener.h"
  },
  {
   "access" : "private",
   "linker_set_key" : "_ZN4aidl7android8hardware3drm18IDrmPluginListener12default_implE",
   "name" : "aidl::android::hardware::drm::IDrmPluginListener::default_impl",
   "referenced_type" : "_ZTINSt3__110shared_ptrIN4aidl7android8hardware3drm18IDrmPluginListenerEEE",
   "source_file" : "out/soong/.intermediates/hardware/interfaces/drm/aidl/android.hardware.drm-V1-ndk-source/gen/include/aidl/android/hardware/drm/IDrmPluginListener.h"
  },
  {
   "linker_set_key" : "_ZN4aidl7android8hardware3drm18IDrmPluginListener4hashE",
   "name" : "aidl::android::hardware::drm::IDrmPluginListener::hash",
   "referenced_type" : "_ZTIKNSt3__112basic_stringIcNS_11char_traitsIcEENS_9allocatorIcEEEE",
   "source_file" : "out/soong/.intermediates/hardware/interfaces/drm/aidl/android.hardware.drm-V1-ndk-source/gen/include/aidl/android/hardware/drm/IDrmPluginListener.h"
  },
  {
   "linker_set_key" : "_ZN4aidl7android8hardware3drm19DrmMetricNamedValue10descriptorE",
   "name" : "aidl::android::hardware::drm::DrmMetricNamedValue::descriptor",
   "referenced_type" : "_ZTIPKc",
   "source_file" : "out/soong/.intermediates/hardware/interfaces/drm/aidl/android.hardware.drm-V1-ndk-source/gen/include/aidl/android/hardware/drm/DrmMetricNamedValue.h"
  },
  {
   "linker_set_key" : "_ZN4aidl7android8hardware3drm20SupportedContentType10descriptorE",
   "name" : "aidl::android::hardware::drm::SupportedContentType::descriptor",
   "referenced_type" : "_ZTIPKc",
   "source_file" : "out/soong/.intermediates/hardware/interfaces/drm/aidl/android.hardware.drm-V1-ndk-source/gen/include/aidl/android/hardware/drm/SupportedContentType.h"
  },
  {
   "linker_set_key" : "_ZN4aidl7android8hardware3drm30ProvideProvisionResponseResult10descriptorE",
   "name" : "aidl::android::hardware::drm::ProvideProvisionResponseResult::descriptor",
   "referenced_type" : "_ZTIPKc",
   "source_file" : "out/soong/.intermediates/hardware/interfaces/drm/aidl/android.hardware.drm-V1-ndk-source/gen/include/aidl/android/hardware/drm/ProvideProvisionResponseResult.h"
  },
  {
   "linker_set_key" : "_ZN4aidl7android8hardware3drm4Uuid10descriptorE",
   "name" : "aidl::android::hardware::drm::Uuid::descriptor",
   "referenced_type" : "_ZTIPKc",
   "source_file" : "out/soong/.intermediates/hardware/interfaces/drm/aidl/android.hardware.drm-V1-ndk-source/gen/include/aidl/android/hardware/drm/Uuid.h"
  },
  {
   "linker_set_key" : "_ZN4aidl7android8hardware3drm7Pattern10descriptorE",
   "name" : "aidl::android::hardware::drm::Pattern::descriptor",
   "referenced_type" : "_ZTIPKc",
   "source_file" : "out/soong/.intermediates/hardware/interfaces/drm/aidl/android.hardware.drm-V1-ndk-source/gen/include/aidl/android/hardware/drm/Pattern.h"
  },
  {
   "linker_set_key" : "_ZN4aidl7android8hardware3drm8KeySetId10descriptorE",
   "name" : "aidl::android::hardware::drm::KeySetId::descriptor",
   "referenced_type" : "_ZTIPKc",
   "source_file" : "out/soong/.intermediates/hardware/interfaces/drm/aidl/android.hardware.drm-V1-ndk-source/gen/include/aidl/android/hardware/drm/KeySetId.h"
  },
  {
   "linker_set_key" : "_ZN4aidl7android8hardware3drm8KeyValue10descriptorE",
   "name" : "aidl::android::hardware::drm::KeyValue::descriptor",
   "referenced_type" : "_ZTIPKc",
   "source_file" : "out/soong/.intermediates/hardware/interfaces/drm/aidl/android.hardware.drm-V1-ndk-source/gen/include/aidl/android/hardware/drm/KeyValue.h"
  },
  {
   "linker_set_key" : "_ZN4aidl7android8hardware3drm9DrmMetric10descriptorE",
   "name" : "aidl::android::hardware::drm::DrmMetric::descriptor",
   "referenced_type" : "_ZTIPKc",
   "source_file" : "out/soong/.intermediates/hardware/interfaces/drm/aidl/android.hardware.drm-V1-ndk-source/gen/include/aidl/android/hardware/drm/DrmMetric.h"
  },
  {
   "linker_set_key" : "_ZN4aidl7android8hardware3drm9KeyStatus10descriptorE",
   "name" : "aidl::android::hardware::drm::KeyStatus::descriptor",
   "referenced_type" : "_ZTIPKc",
   "source_file" : "out/soong/.intermediates/hardware/interfaces/drm/aidl/android.hardware.drm-V1-ndk-source/gen/include/aidl/android/hardware/drm/KeyStatus.h"
  },
  {
   "linker_set_key" : "_ZN4aidl7android8hardware3drm9SubSample10descriptorE",
   "name" : "aidl::android::hardware::drm::SubSample::descriptor",
   "referenced_type" : "_ZTIPKc",
   "source_file" : "out/soong/.intermediates/hardware/interfaces/drm/aidl/android.hardware.drm-V1-ndk-source/gen/include/aidl/android/hardware/drm/SubSample.h"
  }
 ],
 "lvalue_reference_types" :
 [
  {
   "alignment" : 4,
   "linker_set_key" : "_ZTIRKN3ndk10SpAIBinderE",
   "name" : "const ndk::SpAIBinder &",
   "referenced_type" : "_ZTIKN3ndk10SpAIBinderE",
   "self_type" : "_ZTIRKN3ndk10SpAIBinderE",
   "size" : 4,
   "source_file" : "frameworks/native/libs/binder/ndk/include_cpp/android/binder_auto_utils.h"
  },
  {
   "alignment" : 4,
   "linker_set_key" : "_ZTIRKN3ndk13ScopedAParcelE",
   "name" : "const ndk::ScopedAParcel &",
   "referenced_type" : "_ZTIKN3ndk13ScopedAParcelE",
   "self_type" : "_ZTIRKN3ndk13ScopedAParcelE",
   "size" : 4,
   "source_file" : "frameworks/native/libs/binder/ndk/include_cpp/android/binder_auto_utils.h"
  },
  {
   "alignment" : 4,
   "linker_set_key" : "_ZTIRKN3ndk17AParcelableHolderE",
   "name" : "const ndk::AParcelableHolder &",
   "referenced_type" : "_ZTIKN3ndk17AParcelableHolderE",
   "self_type" : "_ZTIRKN3ndk17AParcelableHolderE",
   "size" : 4,
   "source_file" : "frameworks/native/libs/binder/ndk/include_cpp/android/binder_parcelable_utils.h"
  },
  {
   "alignment" : 4,
   "linker_set_key" : "_ZTIRKN3ndk20ScopedFileDescriptorE",
   "name" : "const ndk::ScopedFileDescriptor &",
   "referenced_type" : "_ZTIKN3ndk20ScopedFileDescriptorE",
   "self_type" : "_ZTIRKN3ndk20ScopedFileDescriptorE",
   "size" : 4,
   "source_file" : "frameworks/native/libs/binder/ndk/include_cpp/android/binder_auto_utils.h"
  },
  {
   "alignment" : 4,
   "linker_set_key" : "_ZTIRKN4aidl7android8hardware3drm10HdcpLevelsE",
   "name" : "const aidl::android::hardware::drm::HdcpLevels &",
   "referenced_type" : "_ZTIKN4aidl7android8hardware3drm10HdcpLevelsE",
   "self_type" : "_ZTIRKN4aidl7android8hardware3drm10HdcpLevelsE",
   "size" : 4,
   "source_file" : "out/soong/.intermediates/hardware/interfaces/drm/aidl/android.hardware.drm-V1-ndk-source/gen/include/aidl/android/hardware/drm/HdcpLevels.h"
  },
  {
   "alignment" : 4,
   "linker_set_key" : "_ZTIRKN4aidl7android8hardware3drm10KeyRequestE",
   "name" : "const aidl::android::hardware::drm::KeyRequest &",
   "referenced_type" : "_ZTIKN4aidl7android8hardware3drm10KeyRequestE",
   "self_type" : "_ZTIRKN4aidl7android8hardware3drm10KeyRequestE",
   "size" : 4,
   "source_file" : "out/soong/.intermediates/hardware/interfaces/drm/aidl/android.hardware.drm-V1-ndk-source/gen/include/aidl/android/hardware/drm/KeyRequest.h"
  },
  {
   "alignment" : 4,
   "linker_set_key" : "_ZTIRKN4aidl7android8hardware3drm10LogMessageE",
   "name" : "const aidl::android::hardware::drm::LogMessage &",
   "referenced_type" : "_ZTIKN4aidl7android8hardware3drm10LogMessageE",
   "self_type" : "_ZTIRKN4aidl7android8hardware3drm10LogMessageE",
   "size" : 4,
   "source_file" : "out/soong/.intermediates/hardware/interfaces/drm/aidl/android.hardware.drm-V1-ndk-source/gen/include/aidl/android/hardware/drm/LogMessage.h"
  },
  {
   "alignment" : 4,
   "linker_set_key" : "_ZTIRKN4aidl7android8hardware3drm10OpaqueDataE",
   "name" : "const aidl::android::hardware::drm::OpaqueData &",
   "referenced_type" : "_ZTIKN4aidl7android8hardware3drm10OpaqueDataE",
   "self_type" : "_ZTIRKN4aidl7android8hardware3drm10OpaqueDataE",
   "size" : 4,
   "source_file" : "out/soong/.intermediates/hardware/interfaces/drm/aidl/android.hardware.drm-V1-ndk-source/gen/include/aidl/android/hardware/drm/OpaqueData.h"
  },
  {
   "alignment" : 4,
   "linker_set_key" : "_ZTIRKN4aidl7android8hardware3drm10SecureStopE",
   "name" : "const aidl::android::hardware::drm::SecureStop &",
   "referenced_type" : "_ZTIKN4aidl7android8hardware3drm10SecureStopE",
   "self_type" : "_ZTIRKN4aidl7android8hardware3drm10SecureStopE",
   "size" : 4,
   "source_file" : "out/soong/.intermediates/hardware/interfaces/drm/aidl/android.hardware.drm-V1-ndk-source/gen/include/aidl/android/hardware/drm/SecureStop.h"
  },
  {
   "alignment" : 4,
   "linker_set_key" : "_ZTIRKN4aidl7android8hardware3drm11DecryptArgsE",
   "name" : "const aidl::android::hardware::drm::DecryptArgs &",
   "referenced_type" : "_ZTIKN4aidl7android8hardware3drm11DecryptArgsE",
   "self_type" : "_ZTIRKN4aidl7android8hardware3drm11DecryptArgsE",
   "size" : 4,
   "source_file" : "out/soong/.intermediates/hardware/interfaces/drm/aidl/android.hardware.drm-V1-ndk-source/gen/include/aidl/android/hardware/drm/DecryptArgs.h"
  },
  {
   "alignment" : 4,
   "linker_set_key" : "_ZTIRKN4aidl7android8hardware3drm11LogPriorityE",
   "name" : "const aidl::android::hardware::drm::LogPriority &",
   "referenced_type" : "_ZTIKN4aidl7android8hardware3drm11LogPriorityE",
   "self_type" : "_ZTIRKN4aidl7android8hardware3drm11LogPriorityE",
   "size" : 4,
   "source_file" : "frameworks/native/libs/binder/ndk/include_cpp/android/binder_to_string.h"
  },
  {
   "alignment" : 4,
   "linker_set_key" : "_ZTIRKN4aidl7android8hardware3drm12SecureStopIdE",
   "name" : "const aidl::android::hardware::drm::SecureStopId &",
   "referenced_type" : "_ZTIKN4aidl7android8hardware3drm12SecureStopIdE",
   "self_type" : "_ZTIRKN4aidl7android8hardware3drm12SecureStopIdE",
   "size" : 4,
   "source_file" : "out/soong/.intermediates/hardware/interfaces/drm/aidl/android.hardware.drm-V1-ndk-source/gen/include/aidl/android/hardware/drm/SecureStopId.h"
  },
  {
   "alignment" : 4,
   "linker_set_key" : "_ZTIRKN4aidl7android8hardware3drm12SharedBufferE",
   "name" : "const aidl::android::hardware::drm::SharedBuffer &",
   "referenced_type" : "_ZTIKN4aidl7android8hardware3drm12SharedBufferE",
   "self_type" : "_ZTIRKN4aidl7android8hardware3drm12SharedBufferE",
   "size" : 4,
   "source_file" : "frameworks/native/libs/binder/ndk/include_cpp/android/binder_to_string.h"
  },
  {
   "alignment" : 4,
   "linker_set_key" : "_ZTIRKN4aidl7android8hardware3drm13CryptoSchemesE",
   "name" : "const aidl::android::hardware::drm::CryptoSchemes &",
   "referenced_type" : "_ZTIKN4aidl7android8hardware3drm13CryptoSchemesE",
   "self_type" : "_ZTIRKN4aidl7android8hardware3drm13CryptoSchemesE",
   "size" : 4,
   "source_file" : "out/soong/.intermediates/hardware/interfaces/drm/aidl/android.hardware.drm-V1-ndk-source/gen/include/aidl/android/hardware/drm/CryptoSchemes.h"
  },
  {
   "alignment" : 4,
   "linker_set_key" : "_ZTIRKN4aidl7android8hardware3drm13KeyStatusTypeE",
   "name" : "const aidl::android::hardware::drm::KeyStatusType &",
   "referenced_type" : "_ZTIKN4aidl7android8hardware3drm13KeyStatusTypeE",
   "self_type" : "_ZTIRKN4aidl7android8hardware3drm13KeyStatusTypeE",
   "size" : 4,
   "source_file" : "frameworks/native/libs/binder/ndk/include_cpp/android/binder_to_string.h"
  },
  {
   "alignment" : 4,
   "linker_set_key" : "_ZTIRKN4aidl7android8hardware3drm13SecurityLevelE",
   "name" : "const aidl::android::hardware::drm::SecurityLevel &",
   "referenced_type" : "_ZTIKN4aidl7android8hardware3drm13SecurityLevelE",
   "self_type" : "_ZTIRKN4aidl7android8hardware3drm13SecurityLevelE",
   "size" : 4,
   "source_file" : "frameworks/native/libs/binder/ndk/include_cpp/android/binder_to_string.h"
  },
  {
   "alignment" : 4,
   "linker_set_key" : "_ZTIRKN4aidl7android8hardware3drm14DrmMetricGroupE",
   "name" : "const aidl::android::hardware::drm::DrmMetricGroup &",
   "referenced_type" : "_ZTIKN4aidl7android8hardware3drm14DrmMetricGroupE",
   "self_type" : "_ZTIRKN4aidl7android8hardware3drm14DrmMetricGroupE",
   "size" : 4,
   "source_file" : "out/soong/.intermediates/hardware/interfaces/drm/aidl/android.hardware.drm-V1-ndk-source/gen/include/aidl/android/hardware/drm/DrmMetricGroup.h"
  },
  {
   "alignment" : 4,
   "linker_set_key" : "_ZTIRKN4aidl7android8hardware3drm14DrmMetricValueE",
   "name" : "const aidl::android::hardware::drm::DrmMetricValue &",
   "referenced_type" : "_ZTIKN4aidl7android8hardware3drm14DrmMetricValueE",
   "self_type" : "_ZTIRKN4aidl7android8hardware3drm14DrmMetricValueE",
   "size" : 4,
   "source_file" : "frameworks/native/libs/binder/ndk/include_cpp/android/binder_to_string.h"
  },
  {
   "alignment" : 4,
   "linker_set_key" : "_ZTIRKN4aidl7android8hardware3drm14KeyRequestTypeE",
   "name" : "const aidl::android::hardware::drm::KeyRequestType &",
   "referenced_type" : "_ZTIKN4aidl7android8hardware3drm14KeyRequestTypeE",
   "self_type" : "_ZTIRKN4aidl7android8hardware3drm14KeyRequestTypeE",
   "size" : 4,
   "source_file" : "frameworks/native/libs/binder/ndk/include_cpp/android/binder_to_string.h"
  },
  {
   "alignment" : 4,
   "linker_set_key" : "_ZTIRKN4aidl7android8hardware3drm16NumberOfSessionsE",
   "name" : "const aidl::android::hardware::drm::NumberOfSessions &",
   "referenced_type" : "_ZTIKN4aidl7android8hardware3drm16NumberOfSessionsE",
   "self_type" : "_ZTIRKN4aidl7android8hardware3drm16NumberOfSessionsE",
   "size" : 4,
   "source_file" : "out/soong/.intermediates/hardware/interfaces/drm/aidl/android.hardware.drm-V1-ndk-source/gen/include/aidl/android/hardware/drm/NumberOfSessions.h"
  },
  {
   "alignment" : 4,
   "linker_set_key" : "_ZTIRKN4aidl7android8hardware3drm16ProvisionRequestE",
   "name" : "const aidl::android::hardware::drm::ProvisionRequest &",
   "referenced_type" : "_ZTIKN4aidl7android8hardware3drm16ProvisionRequestE",
   "self_type" : "_ZTIRKN4aidl7android8hardware3drm16ProvisionRequestE",
   "size" : 4,
   "source_file" : "out/soong/.intermediates/hardware/interfaces/drm/aidl/android.hardware.drm-V1-ndk-source/gen/include/aidl/android/hardware/drm/ProvisionRequest.h"
  },
  {
   "alignment" : 4,
   "linker_set_key" : "_ZTIRKN4aidl7android8hardware3drm17DestinationBufferE",
   "name" : "const aidl::android::hardware::drm::DestinationBuffer &",
   "referenced_type" : "_ZTIKN4aidl7android8hardware3drm17DestinationBufferE",
   "self_type" : "_ZTIRKN4aidl7android8hardware3drm17DestinationBufferE",
   "size" : 4,
   "source_file" : "frameworks/native/libs/binder/ndk/include_cpp/android/binder_to_string.h"
  },
  {
   "alignment" : 4,
   "linker_set_key" : "_ZTIRKN4aidl7android8hardware3drm19DrmMetricNamedValueE",
   "name" : "const aidl::android::hardware::drm::DrmMetricNamedValue &",
   "referenced_type" : "_ZTIKN4aidl7android8hardware3drm19DrmMetricNamedValueE",
   "self_type" : "_ZTIRKN4aidl7android8hardware3drm19DrmMetricNamedValueE",
   "size" : 4,
   "source_file" : "frameworks/native/libs/binder/ndk/include_cpp/android/binder_to_string.h"
  },
  {
   "alignment" : 4,
   "linker_set_key" : "_ZTIRKN4aidl7android8hardware3drm20SupportedContentTypeE",
   "name" : "const aidl::android::hardware::drm::SupportedContentType &",
   "referenced_type" : "_ZTIKN4aidl7android8hardware3drm20SupportedContentTypeE",
   "self_type" : "_ZTIRKN4aidl7android8hardware3drm20SupportedContentTypeE",
   "size" : 4,
   "source_file" : "frameworks/native/libs/binder/ndk/include_cpp/android/binder_to_string.h"
  },
  {
   "alignment" : 4,
   "linker_set_key" : "_ZTIRKN4aidl7android8hardware3drm30ProvideProvisionResponseResultE",
   "name" : "const aidl::android::hardware::drm::ProvideProvisionResponseResult &",
   "referenced_type" : "_ZTIKN4aidl7android8hardware3drm30ProvideProvisionResponseResultE",
   "self_type" : "_ZTIRKN4aidl7android8hardware3drm30ProvideProvisionResponseResultE",
   "size" : 4,
   "source_file" : "out/soong/.intermediates/hardware/interfaces/drm/aidl/android.hardware.drm-V1-ndk-source/gen/include/aidl/android/hardware/drm/ProvideProvisionResponseResult.h"
  },
  {
   "alignment" : 4,
   "linker_set_key" : "_ZTIRKN4aidl7android8hardware3drm4ModeE",
   "name" : "const aidl::android::hardware::drm::Mode &",
   "referenced_type" : "_ZTIKN4aidl7android8hardware3drm4ModeE",
   "self_type" : "_ZTIRKN4aidl7android8hardware3drm4ModeE",
   "size" : 4,
   "source_file" : "frameworks/native/libs/binder/ndk/include_cpp/android/binder_to_string.h"
  },
  {
   "alignment" : 4,
   "linker_set_key" : "_ZTIRKN4aidl7android8hardware3drm4UuidE",
   "name" : "const aidl::android::hardware::drm::Uuid &",
   "referenced_type" : "_ZTIKN4aidl7android8hardware3drm4UuidE",
   "self_type" : "_ZTIRKN4aidl7android8hardware3drm4UuidE",
   "size" : 4,
   "source_file" : "frameworks/native/libs/binder/ndk/include_cpp/android/binder_to_string.h"
  },
  {
   "alignment" : 4,
   "linker_set_key" : "_ZTIRKN4aidl7android8hardware3drm7PatternE",
   "name" : "const aidl::android::hardware::drm::Pattern &",
   "referenced_type" : "_ZTIKN4aidl7android8hardware3drm7PatternE",
   "self_type" : "_ZTIRKN4aidl7android8hardware3drm7PatternE",
   "size" : 4,
   "source_file" : "frameworks/native/libs/binder/ndk/include_cpp/android/binder_to_string.h"
  },
  {
   "alignment" : 4,
   "linker_set_key" : "_ZTIRKN4aidl7android8hardware3drm8KeySetIdE",
   "name" : "const aidl::android::hardware::drm::KeySetId &",
   "referenced_type" : "_ZTIKN4aidl7android8hardware3drm8KeySetIdE",
   "self_type" : "_ZTIRKN4aidl7android8hardware3drm8KeySetIdE",
   "size" : 4,
   "source_file" : "out/soong/.intermediates/hardware/interfaces/drm/aidl/android.hardware.drm-V1-ndk-source/gen/include/aidl/android/hardware/drm/KeySetId.h"
  },
  {
   "alignment" : 4,
   "linker_set_key" : "_ZTIRKN4aidl7android8hardware3drm8KeyValueE",
   "name" : "const aidl::android::hardware::drm::KeyValue &",
   "referenced_type" : "_ZTIKN4aidl7android8hardware3drm8KeyValueE",
   "self_type" : "_ZTIRKN4aidl7android8hardware3drm8KeyValueE",
   "size" : 4,
   "source_file" : "out/soong/.intermediates/hardware/interfaces/drm/aidl/android.hardware.drm-V1-ndk-source/gen/include/aidl/android/hardware/drm/KeyValue.h"
  },
  {
   "alignment" : 4,
   "linker_set_key" : "_ZTIRKN4aidl7android8hardware3drm9DrmMetricE",
   "name" : "const aidl::android::hardware::drm::DrmMetric &",
   "referenced_type" : "_ZTIKN4aidl7android8hardware3drm9DrmMetricE",
   "self_type" : "_ZTIRKN4aidl7android8hardware3drm9DrmMetricE",
   "size" : 4,
   "source_file" : "out/soong/.intermediates/hardware/interfaces/drm/aidl/android.hardware.drm-V1-ndk-source/gen/include/aidl/android/hardware/drm/DrmMetric.h"
  },
  {
   "alignment" : 4,
   "linker_set_key" : "_ZTIRKN4aidl7android8hardware3drm9HdcpLevelE",
   "name" : "const aidl::android::hardware::drm::HdcpLevel &",
   "referenced_type" : "_ZTIKN4aidl7android8hardware3drm9HdcpLevelE",
   "self_type" : "_ZTIRKN4aidl7android8hardware3drm9HdcpLevelE",
   "size" : 4,
   "source_file" : "frameworks/native/libs/binder/ndk/include_cpp/android/binder_to_string.h"
  },
  {
   "alignment" : 4,
   "linker_set_key" : "_ZTIRKN4aidl7android8hardware3drm9KeyStatusE",
   "name" : "const aidl::android::hardware::drm::KeyStatus &",
   "referenced_type" : "_ZTIKN4aidl7android8hardware3drm9KeyStatusE",
   "self_type" : "_ZTIRKN4aidl7android8hardware3drm9KeyStatusE",
   "size" : 4,
   "source_file" : "out/soong/.intermediates/hardware/interfaces/drm/aidl/android.hardware.drm-V1-ndk-source/gen/include/aidl/android/hardware/drm/KeyStatus.h"
  },
  {
   "alignment" : 4,
   "linker_set_key" : "_ZTIRKN4aidl7android8hardware3drm9SubSampleE",
   "name" : "const aidl::android::hardware::drm::SubSample &",
   "referenced_type" : "_ZTIKN4aidl7android8hardware3drm9SubSampleE",
   "self_type" : "_ZTIRKN4aidl7android8hardware3drm9SubSampleE",
   "size" : 4,
   "source_file" : "frameworks/native/libs/binder/ndk/include_cpp/android/binder_to_string.h"
  },
  {
   "alignment" : 4,
   "linker_set_key" : "_ZTIRKN4aidl7android8hardware6common12NativeHandleE",
   "name" : "const aidl::android::hardware::common::NativeHandle &",
   "referenced_type" : "_ZTIKN4aidl7android8hardware6common12NativeHandleE",
   "self_type" : "_ZTIRKN4aidl7android8hardware6common12NativeHandleE",
   "size" : 4,
   "source_file" : "frameworks/native/libs/binder/ndk/include_cpp/android/binder_to_string.h"
  },
  {
   "alignment" : 4,
   "linker_set_key" : "_ZTIRKNSt3__110shared_ptrIN4aidl7android8hardware3drm10IDrmPluginEEE",
   "name" : "const std::shared_ptr<aidl::android::hardware::drm::IDrmPlugin> &",
   "referenced_type" : "_ZTIKNSt3__110shared_ptrIN4aidl7android8hardware3drm10IDrmPluginEEE",
   "self_type" : "_ZTIRKNSt3__110shared_ptrIN4aidl7android8hardware3drm10IDrmPluginEEE",
   "size" : 4,
   "source_file" : "out/soong/.intermediates/hardware/interfaces/drm/aidl/android.hardware.drm-V1-ndk-source/gen/include/aidl/android/hardware/drm/BnDrmPlugin.h"
  },
  {
   "alignment" : 4,
   "linker_set_key" : "_ZTIRKNSt3__110shared_ptrIN4aidl7android8hardware3drm11IDrmFactoryEEE",
   "name" : "const std::shared_ptr<aidl::android::hardware::drm::IDrmFactory> &",
   "referenced_type" : "_ZTIKNSt3__110shared_ptrIN4aidl7android8hardware3drm11IDrmFactoryEEE",
   "self_type" : "_ZTIRKNSt3__110shared_ptrIN4aidl7android8hardware3drm11IDrmFactoryEEE",
   "size" : 4,
   "source_file" : "out/soong/.intermediates/hardware/interfaces/drm/aidl/android.hardware.drm-V1-ndk-source/gen/include/aidl/android/hardware/drm/IDrmFactory.h"
  },
  {
   "alignment" : 4,
   "linker_set_key" : "_ZTIRKNSt3__110shared_ptrIN4aidl7android8hardware3drm13ICryptoPluginEEE",
   "name" : "const std::shared_ptr<aidl::android::hardware::drm::ICryptoPlugin> &",
   "referenced_type" : "_ZTIKNSt3__110shared_ptrIN4aidl7android8hardware3drm13ICryptoPluginEEE",
   "self_type" : "_ZTIRKNSt3__110shared_ptrIN4aidl7android8hardware3drm13ICryptoPluginEEE",
   "size" : 4,
   "source_file" : "out/soong/.intermediates/hardware/interfaces/drm/aidl/android.hardware.drm-V1-ndk-source/gen/include/aidl/android/hardware/drm/ICryptoPlugin.h"
  },
  {
   "alignment" : 4,
   "linker_set_key" : "_ZTIRKNSt3__110shared_ptrIN4aidl7android8hardware3drm18IDrmPluginListenerEEE",
   "name" : "const std::shared_ptr<aidl::android::hardware::drm::IDrmPluginListener> &",
   "referenced_type" : "_ZTIKNSt3__110shared_ptrIN4aidl7android8hardware3drm18IDrmPluginListenerEEE",
   "self_type" : "_ZTIRKNSt3__110shared_ptrIN4aidl7android8hardware3drm18IDrmPluginListenerEEE",
   "size" : 4,
   "source_file" : "out/soong/.intermediates/hardware/interfaces/drm/aidl/android.hardware.drm-V1-ndk-source/gen/include/aidl/android/hardware/drm/BnDrmPlugin.h"
  },
  {
   "alignment" : 4,
   "linker_set_key" : "_ZTIRKNSt3__112basic_stringIcNS_11char_traitsIcEENS_9allocatorIcEEEE",
   "name" : "const std::basic_string<char, std::char_traits<char>, std::allocator<char>> &",
   "referenced_type" : "_ZTIKNSt3__112basic_stringIcNS_11char_traitsIcEENS_9allocatorIcEEEE",
   "self_type" : "_ZTIRKNSt3__112basic_stringIcNS_11char_traitsIcEENS_9allocatorIcEEEE",
   "size" : 4,
   "source_file" : "frameworks/native/libs/binder/ndk/include_cpp/android/binder_to_string.h"
  },
  {
   "alignment" : 4,
   "linker_set_key" : "_ZTIRKNSt3__15arrayIhLj16EEE",
   "name" : "const std::array<unsigned char, 16> &",
   "referenced_type" : "_ZTIKNSt3__15arrayIhLj16EEE",
   "self_type" : "_ZTIRKNSt3__15arrayIhLj16EEE",
   "size" : 4,
   "source_file" : "frameworks/native/libs/binder/ndk/include_cpp/android/binder_to_string.h"
  },
  {
   "alignment" : 4,
   "linker_set_key" : "_ZTIRKNSt3__16vectorIDsNS_9allocatorIDsEEEE",
   "name" : "const std::vector<char16_t, std::allocator<char16_t>> &",
   "referenced_type" : "_ZTIKNSt3__16vectorIDsNS_9allocatorIDsEEEE",
   "self_type" : "_ZTIRKNSt3__16vectorIDsNS_9allocatorIDsEEEE",
   "size" : 4,
   "source_file" : "frameworks/native/libs/binder/ndk/include_cpp/android/binder_parcel_utils.h"
  },
  {
   "alignment" : 4,
   "linker_set_key" : "_ZTIRKNSt3__16vectorIN3ndk20ScopedFileDescriptorENS_9allocatorIS2_EEEE",
   "name" : "const std::vector<ndk::ScopedFileDescriptor, std::allocator<ndk::ScopedFileDescriptor>> &",
   "referenced_type" : "_ZTIKNSt3__16vectorIN3ndk20ScopedFileDescriptorENS_9allocatorIS2_EEEE",
   "self_type" : "_ZTIRKNSt3__16vectorIN3ndk20ScopedFileDescriptorENS_9allocatorIS2_EEEE",
   "size" : 4,
   "source_file" : "frameworks/native/libs/binder/ndk/include_cpp/android/binder_to_string.h"
  },
  {
   "alignment" : 4,
   "linker_set_key" : "_ZTIRKNSt3__16vectorIN4aidl7android8hardware3drm19DrmMetricNamedValueENS_9allocatorIS5_EEEE",
   "name" : "const std::vector<aidl::android::hardware::drm::DrmMetricNamedValue, std::allocator<aidl::android::hardware::drm::DrmMetricNamedValue>> &",
   "referenced_type" : "_ZTIKNSt3__16vectorIN4aidl7android8hardware3drm19DrmMetricNamedValueENS_9allocatorIS5_EEEE",
   "self_type" : "_ZTIRKNSt3__16vectorIN4aidl7android8hardware3drm19DrmMetricNamedValueENS_9allocatorIS5_EEEE",
   "size" : 4,
   "source_file" : "frameworks/native/libs/binder/ndk/include_cpp/android/binder_to_string.h"
  },
  {
   "alignment" : 4,
   "linker_set_key" : "_ZTIRKNSt3__16vectorIN4aidl7android8hardware3drm20SupportedContentTypeENS_9allocatorIS5_EEEE",
   "name" : "const std::vector<aidl::android::hardware::drm::SupportedContentType, std::allocator<aidl::android::hardware::drm::SupportedContentType>> &",
   "referenced_type" : "_ZTIKNSt3__16vectorIN4aidl7android8hardware3drm20SupportedContentTypeENS_9allocatorIS5_EEEE",
   "self_type" : "_ZTIRKNSt3__16vectorIN4aidl7android8hardware3drm20SupportedContentTypeENS_9allocatorIS5_EEEE",
   "size" : 4,
   "source_file" : "frameworks/native/libs/binder/ndk/include_cpp/android/binder_to_string.h"
  },
  {
   "alignment" : 4,
   "linker_set_key" : "_ZTIRKNSt3__16vectorIN4aidl7android8hardware3drm4UuidENS_9allocatorIS5_EEEE",
   "name" : "const std::vector<aidl::android::hardware::drm::Uuid, std::allocator<aidl::android::hardware::drm::Uuid>> &",
   "referenced_type" : "_ZTIKNSt3__16vectorIN4aidl7android8hardware3drm4UuidENS_9allocatorIS5_EEEE",
   "self_type" : "_ZTIRKNSt3__16vectorIN4aidl7android8hardware3drm4UuidENS_9allocatorIS5_EEEE",
   "size" : 4,
   "source_file" : "frameworks/native/libs/binder/ndk/include_cpp/android/binder_to_string.h"
  },
  {
   "alignment" : 4,
   "linker_set_key" : "_ZTIRKNSt3__16vectorIN4aidl7android8hardware3drm8KeyValueENS_9allocatorIS5_EEEE",
   "name" : "const std::vector<aidl::android::hardware::drm::KeyValue, std::allocator<aidl::android::hardware::drm::KeyValue>> &",
   "referenced_type" : "_ZTIKNSt3__16vectorIN4aidl7android8hardware3drm8KeyValueENS_9allocatorIS5_EEEE",
   "self_type" : "_ZTIRKNSt3__16vectorIN4aidl7android8hardware3drm8KeyValueENS_9allocatorIS5_EEEE",
   "size" : 4,
   "source_file" : "out/soong/.intermediates/hardware/interfaces/drm/aidl/android.hardware.drm-V1-ndk-source/gen/include/aidl/android/hardware/drm/BnDrmPlugin.h"
  },
  {
   "alignment" : 4,
   "linker_set_key" : "_ZTIRKNSt3__16vectorIN4aidl7android8hardware3drm9DrmMetricENS_9allocatorIS5_EEEE",
   "name" : "const std::vector<aidl::android::hardware::drm::DrmMetric, std::allocator<aidl::android::hardware::drm::DrmMetric>> &",
   "referenced_type" : "_ZTIKNSt3__16vectorIN4aidl7android8hardware3drm9DrmMetricENS_9allocatorIS5_EEEE",
   "self_type" : "_ZTIRKNSt3__16vectorIN4aidl7android8hardware3drm9DrmMetricENS_9allocatorIS5_EEEE",
   "size" : 4,
   "source_file" : "frameworks/native/libs/binder/ndk/include_cpp/android/binder_to_string.h"
  },
  {
   "alignment" : 4,
   "linker_set_key" : "_ZTIRKNSt3__16vectorIN4aidl7android8hardware3drm9KeyStatusENS_9allocatorIS5_EEEE",
   "name" : "const std::vector<aidl::android::hardware::drm::KeyStatus, std::allocator<aidl::android::hardware::drm::KeyStatus>> &",
   "referenced_type" : "_ZTIKNSt3__16vectorIN4aidl7android8hardware3drm9KeyStatusENS_9allocatorIS5_EEEE",
   "self_type" : "_ZTIRKNSt3__16vectorIN4aidl7android8hardware3drm9KeyStatusENS_9allocatorIS5_EEEE",
   "size" : 4,
   "source_file" : "out/soong/.intermediates/hardware/interfaces/drm/aidl/android.hardware.drm-V1-ndk-source/gen/include/aidl/android/hardware/drm/BnDrmPluginListener.h"
  },
  {
   "alignment" : 4,
   "linker_set_key" : "_ZTIRKNSt3__16vectorIN4aidl7android8hardware3drm9SubSampleENS_9allocatorIS5_EEEE",
   "name" : "const std::vector<aidl::android::hardware::drm::SubSample, std::allocator<aidl::android::hardware::drm::SubSample>> &",
   "referenced_type" : "_ZTIKNSt3__16vectorIN4aidl7android8hardware3drm9SubSampleENS_9allocatorIS5_EEEE",
   "self_type" : "_ZTIRKNSt3__16vectorIN4aidl7android8hardware3drm9SubSampleENS_9allocatorIS5_EEEE",
   "size" : 4,
   "source_file" : "frameworks/native/libs/binder/ndk/include_cpp/android/binder_to_string.h"
  },
  {
   "alignment" : 4,
   "linker_set_key" : "_ZTIRKNSt3__16vectorIbNS_9allocatorIbEEEE",
   "name" : "const std::vector<bool, std::allocator<bool>> &",
   "referenced_type" : "_ZTIKNSt3__16vectorIbNS_9allocatorIbEEEE",
   "self_type" : "_ZTIRKNSt3__16vectorIbNS_9allocatorIbEEEE",
   "size" : 4,
   "source_file" : "frameworks/native/libs/binder/ndk/include_cpp/android/binder_parcel_utils.h"
  },
  {
   "alignment" : 4,
   "linker_set_key" : "_ZTIRKNSt3__16vectorIdNS_9allocatorIdEEEE",
   "name" : "const std::vector<double, std::allocator<double>> &",
   "referenced_type" : "_ZTIKNSt3__16vectorIdNS_9allocatorIdEEEE",
   "self_type" : "_ZTIRKNSt3__16vectorIdNS_9allocatorIdEEEE",
   "size" : 4,
   "source_file" : "frameworks/native/libs/binder/ndk/include_cpp/android/binder_parcel_utils.h"
  },
  {
   "alignment" : 4,
   "linker_set_key" : "_ZTIRKNSt3__16vectorIfNS_9allocatorIfEEEE",
   "name" : "const std::vector<float, std::allocator<float>> &",
   "referenced_type" : "_ZTIKNSt3__16vectorIfNS_9allocatorIfEEEE",
   "self_type" : "_ZTIRKNSt3__16vectorIfNS_9allocatorIfEEEE",
   "size" : 4,
   "source_file" : "frameworks/native/libs/binder/ndk/include_cpp/android/binder_parcel_utils.h"
  },
  {
   "alignment" : 4,
   "linker_set_key" : "_ZTIRKNSt3__16vectorIhNS_9allocatorIhEEEE",
   "name" : "const std::vector<unsigned char, std::allocator<unsigned char>> &",
   "referenced_type" : "_ZTIKNSt3__16vectorIhNS_9allocatorIhEEEE",
   "self_type" : "_ZTIRKNSt3__16vectorIhNS_9allocatorIhEEEE",
   "size" : 4,
   "source_file" : "frameworks/native/libs/binder/ndk/include_cpp/android/binder_parcel_utils.h"
  },
  {
   "alignment" : 4,
   "linker_set_key" : "_ZTIRKNSt3__16vectorIiNS_9allocatorIiEEEE",
   "name" : "const std::vector<int, std::allocator<int>> &",
   "referenced_type" : "_ZTIKNSt3__16vectorIiNS_9allocatorIiEEEE",
   "self_type" : "_ZTIRKNSt3__16vectorIiNS_9allocatorIiEEEE",
   "size" : 4,
   "source_file" : "frameworks/native/libs/binder/ndk/include_cpp/android/binder_parcel_utils.h"
  },
  {
   "alignment" : 4,
   "linker_set_key" : "_ZTIRKNSt3__16vectorIjNS_9allocatorIjEEEE",
   "name" : "const std::vector<unsigned int, std::allocator<unsigned int>> &",
   "referenced_type" : "_ZTIKNSt3__16vectorIjNS_9allocatorIjEEEE",
   "self_type" : "_ZTIRKNSt3__16vectorIjNS_9allocatorIjEEEE",
   "size" : 4,
   "source_file" : "frameworks/native/libs/binder/ndk/include_cpp/android/binder_parcel_utils.h"
  },
  {
   "alignment" : 4,
   "linker_set_key" : "_ZTIRKNSt3__16vectorIxNS_9allocatorIxEEEE",
   "name" : "const std::vector<long long, std::allocator<long long>> &",
   "referenced_type" : "_ZTIKNSt3__16vectorIxNS_9allocatorIxEEEE",
   "self_type" : "_ZTIRKNSt3__16vectorIxNS_9allocatorIxEEEE",
   "size" : 4,
   "source_file" : "frameworks/native/libs/binder/ndk/include_cpp/android/binder_parcel_utils.h"
  },
  {
   "alignment" : 4,
   "linker_set_key" : "_ZTIRKNSt3__16vectorIyNS_9allocatorIyEEEE",
   "name" : "const std::vector<unsigned long long, std::allocator<unsigned long long>> &",
   "referenced_type" : "_ZTIKNSt3__16vectorIyNS_9allocatorIyEEEE",
   "self_type" : "_ZTIRKNSt3__16vectorIyNS_9allocatorIyEEEE",
   "size" : 4,
   "source_file" : "frameworks/native/libs/binder/ndk/include_cpp/android/binder_parcel_utils.h"
  },
  {
   "alignment" : 4,
   "linker_set_key" : "_ZTIRKNSt3__18optionalINS_6vectorIDsNS_9allocatorIDsEEEEEE",
   "name" : "const std::optional<std::vector<char16_t, std::allocator<char16_t>>> &",
   "referenced_type" : "_ZTIKNSt3__18optionalINS_6vectorIDsNS_9allocatorIDsEEEEEE",
   "self_type" : "_ZTIRKNSt3__18optionalINS_6vectorIDsNS_9allocatorIDsEEEEEE",
   "size" : 4,
   "source_file" : "frameworks/native/libs/binder/ndk/include_cpp/android/binder_parcel_utils.h"
  },
  {
   "alignment" : 4,
   "linker_set_key" : "_ZTIRKNSt3__18optionalINS_6vectorIbNS_9allocatorIbEEEEEE",
   "name" : "const std::optional<std::vector<bool, std::allocator<bool>>> &",
   "referenced_type" : "_ZTIKNSt3__18optionalINS_6vectorIbNS_9allocatorIbEEEEEE",
   "self_type" : "_ZTIRKNSt3__18optionalINS_6vectorIbNS_9allocatorIbEEEEEE",
   "size" : 4,
   "source_file" : "frameworks/native/libs/binder/ndk/include_cpp/android/binder_parcel_utils.h"
  },
  {
   "alignment" : 4,
   "linker_set_key" : "_ZTIRKNSt3__18optionalINS_6vectorIdNS_9allocatorIdEEEEEE",
   "name" : "const std::optional<std::vector<double, std::allocator<double>>> &",
   "referenced_type" : "_ZTIKNSt3__18optionalINS_6vectorIdNS_9allocatorIdEEEEEE",
   "self_type" : "_ZTIRKNSt3__18optionalINS_6vectorIdNS_9allocatorIdEEEEEE",
   "size" : 4,
   "source_file" : "frameworks/native/libs/binder/ndk/include_cpp/android/binder_parcel_utils.h"
  },
  {
   "alignment" : 4,
   "linker_set_key" : "_ZTIRKNSt3__18optionalINS_6vectorIfNS_9allocatorIfEEEEEE",
   "name" : "const std::optional<std::vector<float, std::allocator<float>>> &",
   "referenced_type" : "_ZTIKNSt3__18optionalINS_6vectorIfNS_9allocatorIfEEEEEE",
   "self_type" : "_ZTIRKNSt3__18optionalINS_6vectorIfNS_9allocatorIfEEEEEE",
   "size" : 4,
   "source_file" : "frameworks/native/libs/binder/ndk/include_cpp/android/binder_parcel_utils.h"
  },
  {
   "alignment" : 4,
   "linker_set_key" : "_ZTIRKNSt3__18optionalINS_6vectorIhNS_9allocatorIhEEEEEE",
   "name" : "const std::optional<std::vector<unsigned char, std::allocator<unsigned char>>> &",
   "referenced_type" : "_ZTIKNSt3__18optionalINS_6vectorIhNS_9allocatorIhEEEEEE",
   "self_type" : "_ZTIRKNSt3__18optionalINS_6vectorIhNS_9allocatorIhEEEEEE",
   "size" : 4,
   "source_file" : "frameworks/native/libs/binder/ndk/include_cpp/android/binder_parcel_utils.h"
  },
  {
   "alignment" : 4,
   "linker_set_key" : "_ZTIRKNSt3__18optionalINS_6vectorIiNS_9allocatorIiEEEEEE",
   "name" : "const std::optional<std::vector<int, std::allocator<int>>> &",
   "referenced_type" : "_ZTIKNSt3__18optionalINS_6vectorIiNS_9allocatorIiEEEEEE",
   "self_type" : "_ZTIRKNSt3__18optionalINS_6vectorIiNS_9allocatorIiEEEEEE",
   "size" : 4,
   "source_file" : "frameworks/native/libs/binder/ndk/include_cpp/android/binder_parcel_utils.h"
  },
  {
   "alignment" : 4,
   "linker_set_key" : "_ZTIRKNSt3__18optionalINS_6vectorIjNS_9allocatorIjEEEEEE",
   "name" : "const std::optional<std::vector<unsigned int, std::allocator<unsigned int>>> &",
   "referenced_type" : "_ZTIKNSt3__18optionalINS_6vectorIjNS_9allocatorIjEEEEEE",
   "self_type" : "_ZTIRKNSt3__18optionalINS_6vectorIjNS_9allocatorIjEEEEEE",
   "size" : 4,
   "source_file" : "frameworks/native/libs/binder/ndk/include_cpp/android/binder_parcel_utils.h"
  },
  {
   "alignment" : 4,
   "linker_set_key" : "_ZTIRKNSt3__18optionalINS_6vectorIxNS_9allocatorIxEEEEEE",
   "name" : "const std::optional<std::vector<long long, std::allocator<long long>>> &",
   "referenced_type" : "_ZTIKNSt3__18optionalINS_6vectorIxNS_9allocatorIxEEEEEE",
   "self_type" : "_ZTIRKNSt3__18optionalINS_6vectorIxNS_9allocatorIxEEEEEE",
   "size" : 4,
   "source_file" : "frameworks/native/libs/binder/ndk/include_cpp/android/binder_parcel_utils.h"
  },
  {
   "alignment" : 4,
   "linker_set_key" : "_ZTIRKNSt3__18optionalINS_6vectorIyNS_9allocatorIyEEEEEE",
   "name" : "const std::optional<std::vector<unsigned long long, std::allocator<unsigned long long>>> &",
   "referenced_type" : "_ZTIKNSt3__18optionalINS_6vectorIyNS_9allocatorIyEEEEEE",
   "self_type" : "_ZTIRKNSt3__18optionalINS_6vectorIyNS_9allocatorIyEEEEEE",
   "size" : 4,
   "source_file" : "frameworks/native/libs/binder/ndk/include_cpp/android/binder_parcel_utils.h"
  },
  {
   "alignment" : 4,
   "linker_set_key" : "_ZTIRKb",
   "name" : "const bool &",
   "referenced_type" : "_ZTIKb",
   "self_type" : "_ZTIRKb",
   "size" : 4,
   "source_file" : "frameworks/native/libs/binder/ndk/include_cpp/android/binder_to_string.h"
  },
  {
   "alignment" : 4,
   "linker_set_key" : "_ZTIRKd",
   "name" : "const double &",
   "referenced_type" : "_ZTIKd",
   "self_type" : "_ZTIRKd",
   "size" : 4,
   "source_file" : "frameworks/native/libs/binder/ndk/include_cpp/android/binder_to_string.h"
  },
  {
   "alignment" : 4,
   "linker_set_key" : "_ZTIRKh",
   "name" : "const unsigned char &",
   "referenced_type" : "_ZTIKh",
   "self_type" : "_ZTIRKh",
   "size" : 4,
   "source_file" : "frameworks/native/libs/binder/ndk/include_cpp/android/binder_to_string.h"
  },
  {
   "alignment" : 4,
   "linker_set_key" : "_ZTIRKi",
   "name" : "const int &",
   "referenced_type" : "_ZTIKi",
   "self_type" : "_ZTIRKi",
   "size" : 4,
   "source_file" : "frameworks/native/libs/binder/ndk/include_cpp/android/binder_to_string.h"
  },
  {
   "alignment" : 4,
   "linker_set_key" : "_ZTIRKx",
   "name" : "const long long &",
   "referenced_type" : "_ZTIKx",
   "self_type" : "_ZTIRKx",
   "size" : 4,
   "source_file" : "frameworks/native/libs/binder/ndk/include_cpp/android/binder_to_string.h"
  },
  {
   "alignment" : 4,
   "linker_set_key" : "_ZTIRN3ndk10SpAIBinderE",
   "name" : "ndk::SpAIBinder &",
   "referenced_type" : "_ZTIN3ndk10SpAIBinderE",
   "self_type" : "_ZTIRN3ndk10SpAIBinderE",
   "size" : 4,
   "source_file" : "frameworks/native/libs/binder/ndk/include_cpp/android/binder_auto_utils.h"
  },
  {
   "alignment" : 4,
   "linker_set_key" : "_ZTIRN3ndk13ScopedAParcelE",
   "name" : "ndk::ScopedAParcel &",
   "referenced_type" : "_ZTIN3ndk13ScopedAParcelE",
   "self_type" : "_ZTIRN3ndk13ScopedAParcelE",
   "size" : 4,
   "source_file" : "frameworks/native/libs/binder/ndk/include_cpp/android/binder_auto_utils.h"
  },
  {
   "alignment" : 4,
   "linker_set_key" : "_ZTIRN3ndk13ScopedAStatusE",
   "name" : "ndk::ScopedAStatus &",
   "referenced_type" : "_ZTIN3ndk13ScopedAStatusE",
   "self_type" : "_ZTIRN3ndk13ScopedAStatusE",
   "size" : 4,
   "source_file" : "frameworks/native/libs/binder/ndk/include_cpp/android/binder_auto_utils.h"
  },
  {
   "alignment" : 4,
   "linker_set_key" : "_ZTIRN3ndk19ScopedAIBinder_WeakE",
   "name" : "ndk::ScopedAIBinder_Weak &",
   "referenced_type" : "_ZTIN3ndk19ScopedAIBinder_WeakE",
   "self_type" : "_ZTIRN3ndk19ScopedAIBinder_WeakE",
   "size" : 4,
   "source_file" : "frameworks/native/libs/binder/ndk/include_cpp/android/binder_auto_utils.h"
  },
  {
   "alignment" : 4,
   "linker_set_key" : "_ZTIRN3ndk20ScopedFileDescriptorE",
   "name" : "ndk::ScopedFileDescriptor &",
   "referenced_type" : "_ZTIN3ndk20ScopedFileDescriptorE",
   "self_type" : "_ZTIRN3ndk20ScopedFileDescriptorE",
   "size" : 4,
   "source_file" : "frameworks/native/libs/binder/ndk/include_cpp/android/binder_auto_utils.h"
  },
  {
   "alignment" : 4,
   "linker_set_key" : "_ZTIRN3ndk29ScopedAIBinder_DeathRecipientE",
   "name" : "ndk::ScopedAIBinder_DeathRecipient &",
   "referenced_type" : "_ZTIN3ndk29ScopedAIBinder_DeathRecipientE",
   "self_type" : "_ZTIRN3ndk29ScopedAIBinder_DeathRecipientE",
   "size" : 4,
   "source_file" : "frameworks/native/libs/binder/ndk/include_cpp/android/binder_auto_utils.h"
  },
  {
   "alignment" : 4,
   "linker_set_key" : "_ZTIRN3ndk4impl15ScopedAResourceIP7AStatusXadL_Z14AStatus_deleteEELS3_0EEE",
   "name" : "ndk::impl::ScopedAResource<AStatus *, &AStatus_delete, nullptr> &",
   "referenced_type" : "_ZTIN3ndk4impl15ScopedAResourceIP7AStatusXadL_Z14AStatus_deleteEELS3_0EEE",
   "self_type" : "_ZTIRN3ndk4impl15ScopedAResourceIP7AStatusXadL_Z14AStatus_deleteEELS3_0EEE",
   "size" : 4,
   "source_file" : "frameworks/native/libs/binder/ndk/include_cpp/android/binder_auto_utils.h"
  },
  {
   "alignment" : 4,
   "linker_set_key" : "_ZTIRd",
   "name" : "double &",
   "referenced_type" : "_ZTId",
   "self_type" : "_ZTIRd",
   "size" : 4,
   "source_file" : "out/soong/.intermediates/hardware/interfaces/drm/aidl/android.hardware.drm-V1-ndk-source/gen/include/aidl/android/hardware/drm/DrmMetricValue.h"
  },
  {
   "alignment" : 4,
   "linker_set_key" : "_ZTIRx",
   "name" : "long long &",
   "referenced_type" : "_ZTIx",
   "self_type" : "_ZTIRx",
   "size" : 4,
   "source_file" : "out/soong/.intermediates/hardware/interfaces/drm/aidl/android.hardware.drm-V1-ndk-source/gen/include/aidl/android/hardware/drm/DrmMetricValue.h"
  }
 ],
 "pointer_types" :
 [
  {
   "alignment" : 4,
   "linker_set_key" : "_ZTIP13AIBinder_Weak",
   "name" : "AIBinder_Weak *",
   "referenced_type" : "_ZTI13AIBinder_Weak",
   "self_type" : "_ZTIP13AIBinder_Weak",
   "size" : 4,
   "source_file" : "frameworks/native/libs/binder/ndk/include_cpp/android/binder_auto_utils.h"
  },
  {
   "alignment" : 4,
   "linker_set_key" : "_ZTIP14AIBinder_Class",
   "name" : "AIBinder_Class *",
   "referenced_type" : "_ZTI14AIBinder_Class",
   "self_type" : "_ZTIP14AIBinder_Class",
   "size" : 4,
   "source_file" : "frameworks/native/libs/binder/ndk/include_cpp/android/binder_interface_utils.h"
  },
  {
   "alignment" : 4,
   "linker_set_key" : "_ZTIP23AIBinder_DeathRecipient",
   "name" : "AIBinder_DeathRecipient *",
   "referenced_type" : "_ZTI23AIBinder_DeathRecipient",
   "self_type" : "_ZTIP23AIBinder_DeathRecipient",
   "size" : 4,
   "source_file" : "frameworks/native/libs/binder/ndk/include_cpp/android/binder_auto_utils.h"
  },
  {
   "alignment" : 4,
   "linker_set_key" : "_ZTIP7AParcel",
   "name" : "AParcel *",
   "referenced_type" : "_ZTI7AParcel",
   "self_type" : "_ZTIP7AParcel",
   "size" : 4,
   "source_file" : "frameworks/native/libs/binder/ndk/include_cpp/android/binder_auto_utils.h"
  },
  {
   "alignment" : 4,
   "linker_set_key" : "_ZTIP7AStatus",
   "name" : "AStatus *",
   "referenced_type" : "_ZTI7AStatus",
   "self_type" : "_ZTIP7AStatus",
   "size" : 4,
   "source_file" : "frameworks/native/libs/binder/ndk/include_cpp/android/binder_auto_utils.h"
  },
  {
   "alignment" : 4,
   "linker_set_key" : "_ZTIP8AIBinder",
   "name" : "AIBinder *",
   "referenced_type" : "_ZTI8AIBinder",
   "self_type" : "_ZTIP8AIBinder",
   "size" : 4,
   "source_file" : "frameworks/native/libs/binder/ndk/include_cpp/android/binder_auto_utils.h"
  },
  {
   "alignment" : 4,
   "linker_set_key" : "_ZTIPFiP8AIBinderjPK7AParcelPS1_E",
   "name" : "int (*)(AIBinder *, unsigned int, const AParcel *, AParcel *)",
   "referenced_type" : "_ZTIFiP8AIBinderjPK7AParcelPS1_E",
   "self_type" : "_ZTIPFiP8AIBinderjPK7AParcelPS1_E",
   "size" : 4,
   "source_file" : "frameworks/native/libs/binder/ndk/include_cpp/android/binder_interface_utils.h"
  },
  {
   "alignment" : 4,
   "linker_set_key" : "_ZTIPK7AParcel",
   "name" : "const AParcel *",
   "referenced_type" : "_ZTIK7AParcel",
   "self_type" : "_ZTIPK7AParcel",
   "size" : 4,
   "source_file" : "frameworks/native/libs/binder/ndk/include_cpp/android/binder_interface_utils.h"
  },
  {
   "alignment" : 4,
   "linker_set_key" : "_ZTIPKN3ndk10SpAIBinderE",
   "name" : "const ndk::SpAIBinder *",
   "referenced_type" : "_ZTIKN3ndk10SpAIBinderE",
   "self_type" : "_ZTIPKN3ndk10SpAIBinderE",
   "size" : 4,
   "source_file" : "frameworks/native/libs/binder/ndk/include_cpp/android/binder_auto_utils.h"
  },
  {
   "alignment" : 4,
   "linker_set_key" : "_ZTIPKN3ndk13ScopedAParcelE",
   "name" : "const ndk::ScopedAParcel *",
   "referenced_type" : "_ZTIKN3ndk13ScopedAParcelE",
   "self_type" : "_ZTIPKN3ndk13ScopedAParcelE",
   "size" : 4,
   "source_file" : "frameworks/native/libs/binder/ndk/include_cpp/android/binder_auto_utils.h"
  },
  {
   "alignment" : 4,
   "linker_set_key" : "_ZTIPKN3ndk13ScopedAStatusE",
   "name" : "const ndk::ScopedAStatus *",
   "referenced_type" : "_ZTIKN3ndk13ScopedAStatusE",
   "self_type" : "_ZTIPKN3ndk13ScopedAStatusE",
   "size" : 4,
   "source_file" : "frameworks/native/libs/binder/ndk/include_cpp/android/binder_auto_utils.h"
  },
  {
   "alignment" : 4,
   "linker_set_key" : "_ZTIPKN3ndk17AParcelableHolderE",
   "name" : "const ndk::AParcelableHolder *",
   "referenced_type" : "_ZTIKN3ndk17AParcelableHolderE",
   "self_type" : "_ZTIPKN3ndk17AParcelableHolderE",
   "size" : 4,
   "source_file" : "frameworks/native/libs/binder/ndk/include_cpp/android/binder_parcelable_utils.h"
  },
  {
   "alignment" : 4,
   "linker_set_key" : "_ZTIPKN3ndk20ScopedFileDescriptorE",
   "name" : "const ndk::ScopedFileDescriptor *",
   "referenced_type" : "_ZTIKN3ndk20ScopedFileDescriptorE",
   "self_type" : "_ZTIPKN3ndk20ScopedFileDescriptorE",
   "size" : 4,
   "source_file" : "frameworks/native/libs/binder/ndk/include_cpp/android/binder_auto_utils.h"
  },
  {
   "alignment" : 4,
   "linker_set_key" : "_ZTIPKN3ndk4impl15ScopedAResourceIP7AParcelXadL_Z14AParcel_deleteEELS3_0EEE",
   "name" : "const ndk::impl::ScopedAResource<AParcel *, &AParcel_delete, nullptr> *",
   "referenced_type" : "_ZTIKN3ndk4impl15ScopedAResourceIP7AParcelXadL_Z14AParcel_deleteEELS3_0EEE",
   "self_type" : "_ZTIPKN3ndk4impl15ScopedAResourceIP7AParcelXadL_Z14AParcel_deleteEELS3_0EEE",
   "size" : 4,
   "source_file" : "frameworks/native/libs/binder/ndk/include_cpp/android/binder_auto_utils.h"
  },
  {
   "alignment" : 4,
   "linker_set_key" : "_ZTIPKN3ndk4impl15ScopedAResourceIP7AStatusXadL_Z14AStatus_deleteEELS3_0EEE",
   "name" : "const ndk::impl::ScopedAResource<AStatus *, &AStatus_delete, nullptr> *",
   "referenced_type" : "_ZTIKN3ndk4impl15ScopedAResourceIP7AStatusXadL_Z14AStatus_deleteEELS3_0EEE",
   "self_type" : "_ZTIPKN3ndk4impl15ScopedAResourceIP7AStatusXadL_Z14AStatus_deleteEELS3_0EEE",
   "size" : 4,
   "source_file" : "frameworks/native/libs/binder/ndk/include_cpp/android/binder_auto_utils.h"
  },
  {
   "alignment" : 4,
   "linker_set_key" : "_ZTIPKN4aidl7android8hardware3drm10HdcpLevelsE",
   "name" : "const aidl::android::hardware::drm::HdcpLevels *",
   "referenced_type" : "_ZTIKN4aidl7android8hardware3drm10HdcpLevelsE",
   "self_type" : "_ZTIPKN4aidl7android8hardware3drm10HdcpLevelsE",
   "size" : 4,
   "source_file" : "out/soong/.intermediates/hardware/interfaces/drm/aidl/android.hardware.drm-V1-ndk-source/gen/include/aidl/android/hardware/drm/HdcpLevels.h"
  },
  {
   "alignment" : 4,
   "linker_set_key" : "_ZTIPKN4aidl7android8hardware3drm10KeyRequestE",
   "name" : "const aidl::android::hardware::drm::KeyRequest *",
   "referenced_type" : "_ZTIKN4aidl7android8hardware3drm10KeyRequestE",
   "self_type" : "_ZTIPKN4aidl7android8hardware3drm10KeyRequestE",
   "size" : 4,
   "source_file" : "out/soong/.intermediates/hardware/interfaces/drm/aidl/android.hardware.drm-V1-ndk-source/gen/include/aidl/android/hardware/drm/KeyRequest.h"
  },
  {
   "alignment" : 4,
   "linker_set_key" : "_ZTIPKN4aidl7android8hardware3drm10LogMessageE",
   "name" : "const aidl::android::hardware::drm::LogMessage *",
   "referenced_type" : "_ZTIKN4aidl7android8hardware3drm10LogMessageE",
   "self_type" : "_ZTIPKN4aidl7android8hardware3drm10LogMessageE",
   "size" : 4,
   "source_file" : "out/soong/.intermediates/hardware/interfaces/drm/aidl/android.hardware.drm-V1-ndk-source/gen/include/aidl/android/hardware/drm/LogMessage.h"
  },
  {
   "alignment" : 4,
   "linker_set_key" : "_ZTIPKN4aidl7android8hardware3drm10OpaqueDataE",
   "name" : "const aidl::android::hardware::drm::OpaqueData *",
   "referenced_type" : "_ZTIKN4aidl7android8hardware3drm10OpaqueDataE",
   "self_type" : "_ZTIPKN4aidl7android8hardware3drm10OpaqueDataE",
   "size" : 4,
   "source_file" : "out/soong/.intermediates/hardware/interfaces/drm/aidl/android.hardware.drm-V1-ndk-source/gen/include/aidl/android/hardware/drm/OpaqueData.h"
  },
  {
   "alignment" : 4,
   "linker_set_key" : "_ZTIPKN4aidl7android8hardware3drm10SecureStopE",
   "name" : "const aidl::android::hardware::drm::SecureStop *",
   "referenced_type" : "_ZTIKN4aidl7android8hardware3drm10SecureStopE",
   "self_type" : "_ZTIPKN4aidl7android8hardware3drm10SecureStopE",
   "size" : 4,
   "source_file" : "out/soong/.intermediates/hardware/interfaces/drm/aidl/android.hardware.drm-V1-ndk-source/gen/include/aidl/android/hardware/drm/SecureStop.h"
  },
  {
   "alignment" : 4,
   "linker_set_key" : "_ZTIPKN4aidl7android8hardware3drm11DecryptArgsE",
   "name" : "const aidl::android::hardware::drm::DecryptArgs *",
   "referenced_type" : "_ZTIKN4aidl7android8hardware3drm11DecryptArgsE",
   "self_type" : "_ZTIPKN4aidl7android8hardware3drm11DecryptArgsE",
   "size" : 4,
   "source_file" : "out/soong/.intermediates/hardware/interfaces/drm/aidl/android.hardware.drm-V1-ndk-source/gen/include/aidl/android/hardware/drm/DecryptArgs.h"
  },
  {
   "alignment" : 4,
   "linker_set_key" : "_ZTIPKN4aidl7android8hardware3drm12SecureStopIdE",
   "name" : "const aidl::android::hardware::drm::SecureStopId *",
   "referenced_type" : "_ZTIKN4aidl7android8hardware3drm12SecureStopIdE",
   "self_type" : "_ZTIPKN4aidl7android8hardware3drm12SecureStopIdE",
   "size" : 4,
   "source_file" : "out/soong/.intermediates/hardware/interfaces/drm/aidl/android.hardware.drm-V1-ndk-source/gen/include/aidl/android/hardware/drm/SecureStopId.h"
  },
  {
   "alignment" : 4,
   "linker_set_key" : "_ZTIPKN4aidl7android8hardware3drm12SharedBufferE",
   "name" : "const aidl::android::hardware::drm::SharedBuffer *",
   "referenced_type" : "_ZTIKN4aidl7android8hardware3drm12SharedBufferE",
   "self_type" : "_ZTIPKN4aidl7android8hardware3drm12SharedBufferE",
   "size" : 4,
   "source_file" : "out/soong/.intermediates/hardware/interfaces/drm/aidl/android.hardware.drm-V1-ndk-source/gen/include/aidl/android/hardware/drm/SharedBuffer.h"
  },
  {
   "alignment" : 4,
   "linker_set_key" : "_ZTIPKN4aidl7android8hardware3drm13CryptoSchemesE",
   "name" : "const aidl::android::hardware::drm::CryptoSchemes *",
   "referenced_type" : "_ZTIKN4aidl7android8hardware3drm13CryptoSchemesE",
   "self_type" : "_ZTIPKN4aidl7android8hardware3drm13CryptoSchemesE",
   "size" : 4,
   "source_file" : "out/soong/.intermediates/hardware/interfaces/drm/aidl/android.hardware.drm-V1-ndk-source/gen/include/aidl/android/hardware/drm/CryptoSchemes.h"
  },
  {
   "alignment" : 4,
   "linker_set_key" : "_ZTIPKN4aidl7android8hardware3drm14DrmMetricGroupE",
   "name" : "const aidl::android::hardware::drm::DrmMetricGroup *",
   "referenced_type" : "_ZTIKN4aidl7android8hardware3drm14DrmMetricGroupE",
   "self_type" : "_ZTIPKN4aidl7android8hardware3drm14DrmMetricGroupE",
   "size" : 4,
   "source_file" : "out/soong/.intermediates/hardware/interfaces/drm/aidl/android.hardware.drm-V1-ndk-source/gen/include/aidl/android/hardware/drm/DrmMetricGroup.h"
  },
  {
   "alignment" : 4,
   "linker_set_key" : "_ZTIPKN4aidl7android8hardware3drm14DrmMetricValueE",
   "name" : "const aidl::android::hardware::drm::DrmMetricValue *",
   "referenced_type" : "_ZTIKN4aidl7android8hardware3drm14DrmMetricValueE",
   "self_type" : "_ZTIPKN4aidl7android8hardware3drm14DrmMetricValueE",
   "size" : 4,
   "source_file" : "out/soong/.intermediates/hardware/interfaces/drm/aidl/android.hardware.drm-V1-ndk-source/gen/include/aidl/android/hardware/drm/DrmMetricValue.h"
  },
  {
   "alignment" : 4,
   "linker_set_key" : "_ZTIPKN4aidl7android8hardware3drm16NumberOfSessionsE",
   "name" : "const aidl::android::hardware::drm::NumberOfSessions *",
   "referenced_type" : "_ZTIKN4aidl7android8hardware3drm16NumberOfSessionsE",
   "self_type" : "_ZTIPKN4aidl7android8hardware3drm16NumberOfSessionsE",
   "size" : 4,
   "source_file" : "out/soong/.intermediates/hardware/interfaces/drm/aidl/android.hardware.drm-V1-ndk-source/gen/include/aidl/android/hardware/drm/NumberOfSessions.h"
  },
  {
   "alignment" : 4,
   "linker_set_key" : "_ZTIPKN4aidl7android8hardware3drm16ProvisionRequestE",
   "name" : "const aidl::android::hardware::drm::ProvisionRequest *",
   "referenced_type" : "_ZTIKN4aidl7android8hardware3drm16ProvisionRequestE",
   "self_type" : "_ZTIPKN4aidl7android8hardware3drm16ProvisionRequestE",
   "size" : 4,
   "source_file" : "out/soong/.intermediates/hardware/interfaces/drm/aidl/android.hardware.drm-V1-ndk-source/gen/include/aidl/android/hardware/drm/ProvisionRequest.h"
  },
  {
   "alignment" : 4,
   "linker_set_key" : "_ZTIPKN4aidl7android8hardware3drm17DestinationBufferE",
   "name" : "const aidl::android::hardware::drm::DestinationBuffer *",
   "referenced_type" : "_ZTIKN4aidl7android8hardware3drm17DestinationBufferE",
   "self_type" : "_ZTIPKN4aidl7android8hardware3drm17DestinationBufferE",
   "size" : 4,
   "source_file" : "out/soong/.intermediates/hardware/interfaces/drm/aidl/android.hardware.drm-V1-ndk-source/gen/include/aidl/android/hardware/drm/DestinationBuffer.h"
  },
  {
   "alignment" : 4,
   "linker_set_key" : "_ZTIPKN4aidl7android8hardware3drm19DrmMetricNamedValueE",
   "name" : "const aidl::android::hardware::drm::DrmMetricNamedValue *",
   "referenced_type" : "_ZTIKN4aidl7android8hardware3drm19DrmMetricNamedValueE",
   "self_type" : "_ZTIPKN4aidl7android8hardware3drm19DrmMetricNamedValueE",
   "size" : 4,
   "source_file" : "out/soong/.intermediates/hardware/interfaces/drm/aidl/android.hardware.drm-V1-ndk-source/gen/include/aidl/android/hardware/drm/DrmMetricNamedValue.h"
  },
  {
   "alignment" : 4,
   "linker_set_key" : "_ZTIPKN4aidl7android8hardware3drm20SupportedContentTypeE",
   "name" : "const aidl::android::hardware::drm::SupportedContentType *",
   "referenced_type" : "_ZTIKN4aidl7android8hardware3drm20SupportedContentTypeE",
   "self_type" : "_ZTIPKN4aidl7android8hardware3drm20SupportedContentTypeE",
   "size" : 4,
   "source_file" : "out/soong/.intermediates/hardware/interfaces/drm/aidl/android.hardware.drm-V1-ndk-source/gen/include/aidl/android/hardware/drm/SupportedContentType.h"
  },
  {
   "alignment" : 4,
   "linker_set_key" : "_ZTIPKN4aidl7android8hardware3drm30ProvideProvisionResponseResultE",
   "name" : "const aidl::android::hardware::drm::ProvideProvisionResponseResult *",
   "referenced_type" : "_ZTIKN4aidl7android8hardware3drm30ProvideProvisionResponseResultE",
   "self_type" : "_ZTIPKN4aidl7android8hardware3drm30ProvideProvisionResponseResultE",
   "size" : 4,
   "source_file" : "out/soong/.intermediates/hardware/interfaces/drm/aidl/android.hardware.drm-V1-ndk-source/gen/include/aidl/android/hardware/drm/ProvideProvisionResponseResult.h"
  },
  {
   "alignment" : 4,
   "linker_set_key" : "_ZTIPKN4aidl7android8hardware3drm4UuidE",
   "name" : "const aidl::android::hardware::drm::Uuid *",
   "referenced_type" : "_ZTIKN4aidl7android8hardware3drm4UuidE",
   "self_type" : "_ZTIPKN4aidl7android8hardware3drm4UuidE",
   "size" : 4,
   "source_file" : "out/soong/.intermediates/hardware/interfaces/drm/aidl/android.hardware.drm-V1-ndk-source/gen/include/aidl/android/hardware/drm/Uuid.h"
  },
  {
   "alignment" : 4,
   "linker_set_key" : "_ZTIPKN4aidl7android8hardware3drm7PatternE",
   "name" : "const aidl::android::hardware::drm::Pattern *",
   "referenced_type" : "_ZTIKN4aidl7android8hardware3drm7PatternE",
   "self_type" : "_ZTIPKN4aidl7android8hardware3drm7PatternE",
   "size" : 4,
   "source_file" : "out/soong/.intermediates/hardware/interfaces/drm/aidl/android.hardware.drm-V1-ndk-source/gen/include/aidl/android/hardware/drm/Pattern.h"
  },
  {
   "alignment" : 4,
   "linker_set_key" : "_ZTIPKN4aidl7android8hardware3drm8KeySetIdE",
   "name" : "const aidl::android::hardware::drm::KeySetId *",
   "referenced_type" : "_ZTIKN4aidl7android8hardware3drm8KeySetIdE",
   "self_type" : "_ZTIPKN4aidl7android8hardware3drm8KeySetIdE",
   "size" : 4,
   "source_file" : "out/soong/.intermediates/hardware/interfaces/drm/aidl/android.hardware.drm-V1-ndk-source/gen/include/aidl/android/hardware/drm/KeySetId.h"
  },
  {
   "alignment" : 4,
   "linker_set_key" : "_ZTIPKN4aidl7android8hardware3drm8KeyValueE",
   "name" : "const aidl::android::hardware::drm::KeyValue *",
   "referenced_type" : "_ZTIKN4aidl7android8hardware3drm8KeyValueE",
   "self_type" : "_ZTIPKN4aidl7android8hardware3drm8KeyValueE",
   "size" : 4,
   "source_file" : "out/soong/.intermediates/hardware/interfaces/drm/aidl/android.hardware.drm-V1-ndk-source/gen/include/aidl/android/hardware/drm/KeyValue.h"
  },
  {
   "alignment" : 4,
   "linker_set_key" : "_ZTIPKN4aidl7android8hardware3drm9DrmMetricE",
   "name" : "const aidl::android::hardware::drm::DrmMetric *",
   "referenced_type" : "_ZTIKN4aidl7android8hardware3drm9DrmMetricE",
   "self_type" : "_ZTIPKN4aidl7android8hardware3drm9DrmMetricE",
   "size" : 4,
   "source_file" : "out/soong/.intermediates/hardware/interfaces/drm/aidl/android.hardware.drm-V1-ndk-source/gen/include/aidl/android/hardware/drm/DrmMetric.h"
  },
  {
   "alignment" : 4,
   "linker_set_key" : "_ZTIPKN4aidl7android8hardware3drm9KeyStatusE",
   "name" : "const aidl::android::hardware::drm::KeyStatus *",
   "referenced_type" : "_ZTIKN4aidl7android8hardware3drm9KeyStatusE",
   "self_type" : "_ZTIPKN4aidl7android8hardware3drm9KeyStatusE",
   "size" : 4,
   "source_file" : "out/soong/.intermediates/hardware/interfaces/drm/aidl/android.hardware.drm-V1-ndk-source/gen/include/aidl/android/hardware/drm/KeyStatus.h"
  },
  {
   "alignment" : 4,
   "linker_set_key" : "_ZTIPKN4aidl7android8hardware3drm9SubSampleE",
   "name" : "const aidl::android::hardware::drm::SubSample *",
   "referenced_type" : "_ZTIKN4aidl7android8hardware3drm9SubSampleE",
   "self_type" : "_ZTIPKN4aidl7android8hardware3drm9SubSampleE",
   "size" : 4,
   "source_file" : "out/soong/.intermediates/hardware/interfaces/drm/aidl/android.hardware.drm-V1-ndk-source/gen/include/aidl/android/hardware/drm/SubSample.h"
  },
  {
   "alignment" : 4,
   "linker_set_key" : "_ZTIPKN4aidl7android8hardware6common12NativeHandleE",
   "name" : "const aidl::android::hardware::common::NativeHandle *",
   "referenced_type" : "_ZTIKN4aidl7android8hardware6common12NativeHandleE",
   "self_type" : "_ZTIPKN4aidl7android8hardware6common12NativeHandleE",
   "size" : 4,
   "source_file" : "out/soong/.intermediates/hardware/interfaces/common/aidl/android.hardware.common-V2-ndk-source/gen/include/aidl/android/hardware/common/NativeHandle.h"
  },
  {
   "alignment" : 4,
   "linker_set_key" : "_ZTIPKc",
   "name" : "const char *",
   "referenced_type" : "_ZTIKc",
   "self_type" : "_ZTIPKc",
   "size" : 4,
   "source_file" : "frameworks/native/libs/binder/ndk/include_cpp/android/binder_auto_utils.h"
  },
  {
   "alignment" : 4,
   "linker_set_key" : "_ZTIPKv",
   "name" : "const void *",
   "referenced_type" : "_ZTIKv",
   "self_type" : "_ZTIPKv",
   "size" : 4,
   "source_file" : "frameworks/native/libs/binder/ndk/include_cpp/android/binder_parcel_utils.h"
  },
  {
   "alignment" : 4,
   "linker_set_key" : "_ZTIPN3ndk10SpAIBinderE",
   "name" : "ndk::SpAIBinder *",
   "referenced_type" : "_ZTIN3ndk10SpAIBinderE",
   "self_type" : "_ZTIPN3ndk10SpAIBinderE",
   "size" : 4,
   "source_file" : "frameworks/native/libs/binder/ndk/include_cpp/android/binder_auto_utils.h"
  },
  {
   "alignment" : 4,
   "linker_set_key" : "_ZTIPN3ndk11ICInterfaceE",
   "name" : "ndk::ICInterface *",
   "referenced_type" : "_ZTIN3ndk11ICInterfaceE",
   "self_type" : "_ZTIPN3ndk11ICInterfaceE",
   "size" : 4,
   "source_file" : "frameworks/native/libs/binder/ndk/include_cpp/android/binder_interface_utils.h"
  },
  {
   "alignment" : 4,
   "linker_set_key" : "_ZTIPN3ndk12BnCInterfaceIN4aidl7android8hardware3drm10IDrmPluginEEE",
   "name" : "ndk::BnCInterface<aidl::android::hardware::drm::IDrmPlugin> *",
   "referenced_type" : "_ZTIN3ndk12BnCInterfaceIN4aidl7android8hardware3drm10IDrmPluginEEE",
   "self_type" : "_ZTIPN3ndk12BnCInterfaceIN4aidl7android8hardware3drm10IDrmPluginEEE",
   "size" : 4,
   "source_file" : "frameworks/native/libs/binder/ndk/include_cpp/android/binder_interface_utils.h"
  },
  {
   "alignment" : 4,
   "linker_set_key" : "_ZTIPN3ndk12BnCInterfaceIN4aidl7android8hardware3drm11IDrmFactoryEEE",
   "name" : "ndk::BnCInterface<aidl::android::hardware::drm::IDrmFactory> *",
   "referenced_type" : "_ZTIN3ndk12BnCInterfaceIN4aidl7android8hardware3drm11IDrmFactoryEEE",
   "self_type" : "_ZTIPN3ndk12BnCInterfaceIN4aidl7android8hardware3drm11IDrmFactoryEEE",
   "size" : 4,
   "source_file" : "frameworks/native/libs/binder/ndk/include_cpp/android/binder_interface_utils.h"
  },
  {
   "alignment" : 4,
   "linker_set_key" : "_ZTIPN3ndk12BnCInterfaceIN4aidl7android8hardware3drm13ICryptoPluginEEE",
   "name" : "ndk::BnCInterface<aidl::android::hardware::drm::ICryptoPlugin> *",
   "referenced_type" : "_ZTIN3ndk12BnCInterfaceIN4aidl7android8hardware3drm13ICryptoPluginEEE",
   "self_type" : "_ZTIPN3ndk12BnCInterfaceIN4aidl7android8hardware3drm13ICryptoPluginEEE",
   "size" : 4,
   "source_file" : "frameworks/native/libs/binder/ndk/include_cpp/android/binder_interface_utils.h"
  },
  {
   "alignment" : 4,
   "linker_set_key" : "_ZTIPN3ndk12BnCInterfaceIN4aidl7android8hardware3drm18IDrmPluginListenerEEE",
   "name" : "ndk::BnCInterface<aidl::android::hardware::drm::IDrmPluginListener> *",
   "referenced_type" : "_ZTIN3ndk12BnCInterfaceIN4aidl7android8hardware3drm18IDrmPluginListenerEEE",
   "self_type" : "_ZTIPN3ndk12BnCInterfaceIN4aidl7android8hardware3drm18IDrmPluginListenerEEE",
   "size" : 4,
   "source_file" : "frameworks/native/libs/binder/ndk/include_cpp/android/binder_interface_utils.h"
  },
  {
   "alignment" : 4,
   "linker_set_key" : "_ZTIPN3ndk12BpCInterfaceIN4aidl7android8hardware3drm10IDrmPluginEEE",
   "name" : "ndk::BpCInterface<aidl::android::hardware::drm::IDrmPlugin> *",
   "referenced_type" : "_ZTIN3ndk12BpCInterfaceIN4aidl7android8hardware3drm10IDrmPluginEEE",
   "self_type" : "_ZTIPN3ndk12BpCInterfaceIN4aidl7android8hardware3drm10IDrmPluginEEE",
   "size" : 4,
   "source_file" : "frameworks/native/libs/binder/ndk/include_cpp/android/binder_interface_utils.h"
  },
  {
   "alignment" : 4,
   "linker_set_key" : "_ZTIPN3ndk12BpCInterfaceIN4aidl7android8hardware3drm11IDrmFactoryEEE",
   "name" : "ndk::BpCInterface<aidl::android::hardware::drm::IDrmFactory> *",
   "referenced_type" : "_ZTIN3ndk12BpCInterfaceIN4aidl7android8hardware3drm11IDrmFactoryEEE",
   "self_type" : "_ZTIPN3ndk12BpCInterfaceIN4aidl7android8hardware3drm11IDrmFactoryEEE",
   "size" : 4,
   "source_file" : "frameworks/native/libs/binder/ndk/include_cpp/android/binder_interface_utils.h"
  },
  {
   "alignment" : 4,
   "linker_set_key" : "_ZTIPN3ndk12BpCInterfaceIN4aidl7android8hardware3drm13ICryptoPluginEEE",
   "name" : "ndk::BpCInterface<aidl::android::hardware::drm::ICryptoPlugin> *",
   "referenced_type" : "_ZTIN3ndk12BpCInterfaceIN4aidl7android8hardware3drm13ICryptoPluginEEE",
   "self_type" : "_ZTIPN3ndk12BpCInterfaceIN4aidl7android8hardware3drm13ICryptoPluginEEE",
   "size" : 4,
   "source_file" : "frameworks/native/libs/binder/ndk/include_cpp/android/binder_interface_utils.h"
  },
  {
   "alignment" : 4,
   "linker_set_key" : "_ZTIPN3ndk12BpCInterfaceIN4aidl7android8hardware3drm18IDrmPluginListenerEEE",
   "name" : "ndk::BpCInterface<aidl::android::hardware::drm::IDrmPluginListener> *",
   "referenced_type" : "_ZTIN3ndk12BpCInterfaceIN4aidl7android8hardware3drm18IDrmPluginListenerEEE",
   "self_type" : "_ZTIPN3ndk12BpCInterfaceIN4aidl7android8hardware3drm18IDrmPluginListenerEEE",
   "size" : 4,
   "source_file" : "frameworks/native/libs/binder/ndk/include_cpp/android/binder_interface_utils.h"
  },
  {
   "alignment" : 4,
   "linker_set_key" : "_ZTIPN3ndk13ScopedAParcelE",
   "name" : "ndk::ScopedAParcel *",
   "referenced_type" : "_ZTIN3ndk13ScopedAParcelE",
   "self_type" : "_ZTIPN3ndk13ScopedAParcelE",
   "size" : 4,
   "source_file" : "frameworks/native/libs/binder/ndk/include_cpp/android/binder_auto_utils.h"
  },
  {
   "alignment" : 4,
   "linker_set_key" : "_ZTIPN3ndk13ScopedAStatusE",
   "name" : "ndk::ScopedAStatus *",
   "referenced_type" : "_ZTIN3ndk13ScopedAStatusE",
   "self_type" : "_ZTIPN3ndk13ScopedAStatusE",
   "size" : 4,
   "source_file" : "frameworks/native/libs/binder/ndk/include_cpp/android/binder_auto_utils.h"
  },
  {
   "alignment" : 4,
   "linker_set_key" : "_ZTIPN3ndk13SharedRefBaseE",
   "name" : "ndk::SharedRefBase *",
   "referenced_type" : "_ZTIN3ndk13SharedRefBaseE",
   "self_type" : "_ZTIPN3ndk13SharedRefBaseE",
   "size" : 4,
   "source_file" : "frameworks/native/libs/binder/ndk/include_cpp/android/binder_interface_utils.h"
  },
  {
   "alignment" : 4,
   "linker_set_key" : "_ZTIPN3ndk17AParcelableHolderE",
   "name" : "ndk::AParcelableHolder *",
   "referenced_type" : "_ZTIN3ndk17AParcelableHolderE",
   "self_type" : "_ZTIPN3ndk17AParcelableHolderE",
   "size" : 4,
   "source_file" : "frameworks/native/libs/binder/ndk/include_cpp/android/binder_parcelable_utils.h"
  },
  {
   "alignment" : 4,
   "linker_set_key" : "_ZTIPN3ndk19ScopedAIBinder_WeakE",
   "name" : "ndk::ScopedAIBinder_Weak *",
   "referenced_type" : "_ZTIN3ndk19ScopedAIBinder_WeakE",
   "self_type" : "_ZTIPN3ndk19ScopedAIBinder_WeakE",
   "size" : 4,
   "source_file" : "frameworks/native/libs/binder/ndk/include_cpp/android/binder_auto_utils.h"
  },
  {
   "alignment" : 4,
   "linker_set_key" : "_ZTIPN3ndk20ScopedFileDescriptorE",
   "name" : "ndk::ScopedFileDescriptor *",
   "referenced_type" : "_ZTIN3ndk20ScopedFileDescriptorE",
   "self_type" : "_ZTIPN3ndk20ScopedFileDescriptorE",
   "size" : 4,
   "source_file" : "frameworks/native/libs/binder/ndk/include_cpp/android/binder_auto_utils.h"
  },
  {
   "alignment" : 4,
   "linker_set_key" : "_ZTIPN3ndk29ScopedAIBinder_DeathRecipientE",
   "name" : "ndk::ScopedAIBinder_DeathRecipient *",
   "referenced_type" : "_ZTIN3ndk29ScopedAIBinder_DeathRecipientE",
   "self_type" : "_ZTIPN3ndk29ScopedAIBinder_DeathRecipientE",
   "size" : 4,
   "source_file" : "frameworks/native/libs/binder/ndk/include_cpp/android/binder_auto_utils.h"
  },
  {
   "alignment" : 4,
   "linker_set_key" : "_ZTIPN3ndk4impl15ScopedAResourceIP13AIBinder_WeakXadL_Z20AIBinder_Weak_deleteEELS3_0EEE",
   "name" : "ndk::impl::ScopedAResource<AIBinder_Weak *, &AIBinder_Weak_delete, nullptr> *",
   "referenced_type" : "_ZTIN3ndk4impl15ScopedAResourceIP13AIBinder_WeakXadL_Z20AIBinder_Weak_deleteEELS3_0EEE",
   "self_type" : "_ZTIPN3ndk4impl15ScopedAResourceIP13AIBinder_WeakXadL_Z20AIBinder_Weak_deleteEELS3_0EEE",
   "size" : 4,
   "source_file" : "frameworks/native/libs/binder/ndk/include_cpp/android/binder_auto_utils.h"
  },
  {
   "alignment" : 4,
   "linker_set_key" : "_ZTIPN3ndk4impl15ScopedAResourceIP23AIBinder_DeathRecipientXadL_Z30AIBinder_DeathRecipient_deleteEELS3_0EEE",
   "name" : "ndk::impl::ScopedAResource<AIBinder_DeathRecipient *, &AIBinder_DeathRecipient_delete, nullptr> *",
   "referenced_type" : "_ZTIN3ndk4impl15ScopedAResourceIP23AIBinder_DeathRecipientXadL_Z30AIBinder_DeathRecipient_deleteEELS3_0EEE",
   "self_type" : "_ZTIPN3ndk4impl15ScopedAResourceIP23AIBinder_DeathRecipientXadL_Z30AIBinder_DeathRecipient_deleteEELS3_0EEE",
   "size" : 4,
   "source_file" : "frameworks/native/libs/binder/ndk/include_cpp/android/binder_auto_utils.h"
  },
  {
   "alignment" : 4,
   "linker_set_key" : "_ZTIPN3ndk4impl15ScopedAResourceIP7AParcelXadL_Z14AParcel_deleteEELS3_0EEE",
   "name" : "ndk::impl::ScopedAResource<AParcel *, &AParcel_delete, nullptr> *",
   "referenced_type" : "_ZTIN3ndk4impl15ScopedAResourceIP7AParcelXadL_Z14AParcel_deleteEELS3_0EEE",
   "self_type" : "_ZTIPN3ndk4impl15ScopedAResourceIP7AParcelXadL_Z14AParcel_deleteEELS3_0EEE",
   "size" : 4,
   "source_file" : "frameworks/native/libs/binder/ndk/include_cpp/android/binder_auto_utils.h"
  },
  {
   "alignment" : 4,
   "linker_set_key" : "_ZTIPN3ndk4impl15ScopedAResourceIP7AStatusXadL_Z14AStatus_deleteEELS3_0EEE",
   "name" : "ndk::impl::ScopedAResource<AStatus *, &AStatus_delete, nullptr> *",
   "referenced_type" : "_ZTIN3ndk4impl15ScopedAResourceIP7AStatusXadL_Z14AStatus_deleteEELS3_0EEE",
   "self_type" : "_ZTIPN3ndk4impl15ScopedAResourceIP7AStatusXadL_Z14AStatus_deleteEELS3_0EEE",
   "size" : 4,
   "source_file" : "frameworks/native/libs/binder/ndk/include_cpp/android/binder_auto_utils.h"
  },
  {
   "alignment" : 4,
   "linker_set_key" : "_ZTIPN4aidl7android8hardware3drm10HdcpLevelsE",
   "name" : "aidl::android::hardware::drm::HdcpLevels *",
   "referenced_type" : "_ZTIN4aidl7android8hardware3drm10HdcpLevelsE",
   "self_type" : "_ZTIPN4aidl7android8hardware3drm10HdcpLevelsE",
   "size" : 4,
   "source_file" : "out/soong/.intermediates/hardware/interfaces/drm/aidl/android.hardware.drm-V1-ndk-source/gen/include/aidl/android/hardware/drm/HdcpLevels.h"
  },
  {
   "alignment" : 4,
   "linker_set_key" : "_ZTIPN4aidl7android8hardware3drm10IDrmPluginE",
   "name" : "aidl::android::hardware::drm::IDrmPlugin *",
   "referenced_type" : "_ZTIN4aidl7android8hardware3drm10IDrmPluginE",
   "self_type" : "_ZTIPN4aidl7android8hardware3drm10IDrmPluginE",
   "size" : 4,
   "source_file" : "out/soong/.intermediates/hardware/interfaces/drm/aidl/android.hardware.drm-V1-ndk-source/gen/include/aidl/android/hardware/drm/IDrmPlugin.h"
  },
  {
   "alignment" : 4,
   "linker_set_key" : "_ZTIPN4aidl7android8hardware3drm10KeyRequestE",
   "name" : "aidl::android::hardware::drm::KeyRequest *",
   "referenced_type" : "_ZTIN4aidl7android8hardware3drm10KeyRequestE",
   "self_type" : "_ZTIPN4aidl7android8hardware3drm10KeyRequestE",
   "size" : 4,
   "source_file" : "out/soong/.intermediates/hardware/interfaces/drm/aidl/android.hardware.drm-V1-ndk-source/gen/include/aidl/android/hardware/drm/BnDrmPlugin.h"
  },
  {
   "alignment" : 4,
   "linker_set_key" : "_ZTIPN4aidl7android8hardware3drm10LogMessageE",
   "name" : "aidl::android::hardware::drm::LogMessage *",
   "referenced_type" : "_ZTIN4aidl7android8hardware3drm10LogMessageE",
   "self_type" : "_ZTIPN4aidl7android8hardware3drm10LogMessageE",
   "size" : 4,
   "source_file" : "out/soong/.intermediates/hardware/interfaces/drm/aidl/android.hardware.drm-V1-ndk-source/gen/include/aidl/android/hardware/drm/LogMessage.h"
  },
  {
   "alignment" : 4,
   "linker_set_key" : "_ZTIPN4aidl7android8hardware3drm10OpaqueDataE",
   "name" : "aidl::android::hardware::drm::OpaqueData *",
   "referenced_type" : "_ZTIN4aidl7android8hardware3drm10OpaqueDataE",
   "self_type" : "_ZTIPN4aidl7android8hardware3drm10OpaqueDataE",
   "size" : 4,
   "source_file" : "out/soong/.intermediates/hardware/interfaces/drm/aidl/android.hardware.drm-V1-ndk-source/gen/include/aidl/android/hardware/drm/OpaqueData.h"
  },
  {
   "alignment" : 4,
   "linker_set_key" : "_ZTIPN4aidl7android8hardware3drm10SecureStopE",
   "name" : "aidl::android::hardware::drm::SecureStop *",
   "referenced_type" : "_ZTIN4aidl7android8hardware3drm10SecureStopE",
   "self_type" : "_ZTIPN4aidl7android8hardware3drm10SecureStopE",
   "size" : 4,
   "source_file" : "out/soong/.intermediates/hardware/interfaces/drm/aidl/android.hardware.drm-V1-ndk-source/gen/include/aidl/android/hardware/drm/BnDrmPlugin.h"
  },
  {
   "alignment" : 4,
   "linker_set_key" : "_ZTIPN4aidl7android8hardware3drm11BnDrmPluginE",
   "name" : "aidl::android::hardware::drm::BnDrmPlugin *",
   "referenced_type" : "_ZTIN4aidl7android8hardware3drm11BnDrmPluginE",
   "self_type" : "_ZTIPN4aidl7android8hardware3drm11BnDrmPluginE",
   "size" : 4,
   "source_file" : "out/soong/.intermediates/hardware/interfaces/drm/aidl/android.hardware.drm-V1-ndk-source/gen/include/aidl/android/hardware/drm/BnDrmPlugin.h"
  },
  {
   "alignment" : 4,
   "linker_set_key" : "_ZTIPN4aidl7android8hardware3drm11BpDrmPluginE",
   "name" : "aidl::android::hardware::drm::BpDrmPlugin *",
   "referenced_type" : "_ZTIN4aidl7android8hardware3drm11BpDrmPluginE",
   "self_type" : "_ZTIPN4aidl7android8hardware3drm11BpDrmPluginE",
   "size" : 4,
   "source_file" : "out/soong/.intermediates/hardware/interfaces/drm/aidl/android.hardware.drm-V1-ndk-source/gen/include/aidl/android/hardware/drm/BpDrmPlugin.h"
  },
  {
   "alignment" : 4,
   "linker_set_key" : "_ZTIPN4aidl7android8hardware3drm11DecryptArgsE",
   "name" : "aidl::android::hardware::drm::DecryptArgs *",
   "referenced_type" : "_ZTIN4aidl7android8hardware3drm11DecryptArgsE",
   "self_type" : "_ZTIPN4aidl7android8hardware3drm11DecryptArgsE",
   "size" : 4,
   "source_file" : "out/soong/.intermediates/hardware/interfaces/drm/aidl/android.hardware.drm-V1-ndk-source/gen/include/aidl/android/hardware/drm/DecryptArgs.h"
  },
  {
   "alignment" : 4,
   "linker_set_key" : "_ZTIPN4aidl7android8hardware3drm11IDrmFactoryE",
   "name" : "aidl::android::hardware::drm::IDrmFactory *",
   "referenced_type" : "_ZTIN4aidl7android8hardware3drm11IDrmFactoryE",
   "self_type" : "_ZTIPN4aidl7android8hardware3drm11IDrmFactoryE",
   "size" : 4,
   "source_file" : "out/soong/.intermediates/hardware/interfaces/drm/aidl/android.hardware.drm-V1-ndk-source/gen/include/aidl/android/hardware/drm/IDrmFactory.h"
  },
  {
   "alignment" : 4,
   "linker_set_key" : "_ZTIPN4aidl7android8hardware3drm12BnDrmFactoryE",
   "name" : "aidl::android::hardware::drm::BnDrmFactory *",
   "referenced_type" : "_ZTIN4aidl7android8hardware3drm12BnDrmFactoryE",
   "self_type" : "_ZTIPN4aidl7android8hardware3drm12BnDrmFactoryE",
   "size" : 4,
   "source_file" : "out/soong/.intermediates/hardware/interfaces/drm/aidl/android.hardware.drm-V1-ndk-source/gen/include/aidl/android/hardware/drm/BnDrmFactory.h"
  },
  {
   "alignment" : 4,
   "linker_set_key" : "_ZTIPN4aidl7android8hardware3drm12BpDrmFactoryE",
   "name" : "aidl::android::hardware::drm::BpDrmFactory *",
   "referenced_type" : "_ZTIN4aidl7android8hardware3drm12BpDrmFactoryE",
   "self_type" : "_ZTIPN4aidl7android8hardware3drm12BpDrmFactoryE",
   "size" : 4,
   "source_file" : "out/soong/.intermediates/hardware/interfaces/drm/aidl/android.hardware.drm-V1-ndk-source/gen/include/aidl/android/hardware/drm/BpDrmFactory.h"
  },
  {
   "alignment" : 4,
   "linker_set_key" : "_ZTIPN4aidl7android8hardware3drm12SecureStopIdE",
   "name" : "aidl::android::hardware::drm::SecureStopId *",
   "referenced_type" : "_ZTIN4aidl7android8hardware3drm12SecureStopIdE",
   "self_type" : "_ZTIPN4aidl7android8hardware3drm12SecureStopIdE",
   "size" : 4,
   "source_file" : "out/soong/.intermediates/hardware/interfaces/drm/aidl/android.hardware.drm-V1-ndk-source/gen/include/aidl/android/hardware/drm/SecureStopId.h"
  },
  {
   "alignment" : 4,
   "linker_set_key" : "_ZTIPN4aidl7android8hardware3drm12SharedBufferE",
   "name" : "aidl::android::hardware::drm::SharedBuffer *",
   "referenced_type" : "_ZTIN4aidl7android8hardware3drm12SharedBufferE",
   "self_type" : "_ZTIPN4aidl7android8hardware3drm12SharedBufferE",
   "size" : 4,
   "source_file" : "out/soong/.intermediates/hardware/interfaces/drm/aidl/android.hardware.drm-V1-ndk-source/gen/include/aidl/android/hardware/drm/SharedBuffer.h"
  },
  {
   "alignment" : 4,
   "linker_set_key" : "_ZTIPN4aidl7android8hardware3drm13CryptoSchemesE",
   "name" : "aidl::android::hardware::drm::CryptoSchemes *",
   "referenced_type" : "_ZTIN4aidl7android8hardware3drm13CryptoSchemesE",
   "self_type" : "_ZTIPN4aidl7android8hardware3drm13CryptoSchemesE",
   "size" : 4,
   "source_file" : "out/soong/.intermediates/hardware/interfaces/drm/aidl/android.hardware.drm-V1-ndk-source/gen/include/aidl/android/hardware/drm/CryptoSchemes.h"
  },
  {
   "alignment" : 4,
   "linker_set_key" : "_ZTIPN4aidl7android8hardware3drm13ICryptoPluginE",
   "name" : "aidl::android::hardware::drm::ICryptoPlugin *",
   "referenced_type" : "_ZTIN4aidl7android8hardware3drm13ICryptoPluginE",
   "self_type" : "_ZTIPN4aidl7android8hardware3drm13ICryptoPluginE",
   "size" : 4,
   "source_file" : "out/soong/.intermediates/hardware/interfaces/drm/aidl/android.hardware.drm-V1-ndk-source/gen/include/aidl/android/hardware/drm/ICryptoPlugin.h"
  },
  {
   "alignment" : 4,
   "linker_set_key" : "_ZTIPN4aidl7android8hardware3drm13SecurityLevelE",
   "name" : "aidl::android::hardware::drm::SecurityLevel *",
   "referenced_type" : "_ZTIN4aidl7android8hardware3drm13SecurityLevelE",
   "self_type" : "_ZTIPN4aidl7android8hardware3drm13SecurityLevelE",
   "size" : 4,
   "source_file" : "out/soong/.intermediates/hardware/interfaces/drm/aidl/android.hardware.drm-V1-ndk-source/gen/include/aidl/android/hardware/drm/BnDrmPlugin.h"
  },
  {
   "alignment" : 4,
   "linker_set_key" : "_ZTIPN4aidl7android8hardware3drm14BnCryptoPluginE",
   "name" : "aidl::android::hardware::drm::BnCryptoPlugin *",
   "referenced_type" : "_ZTIN4aidl7android8hardware3drm14BnCryptoPluginE",
   "self_type" : "_ZTIPN4aidl7android8hardware3drm14BnCryptoPluginE",
   "size" : 4,
   "source_file" : "out/soong/.intermediates/hardware/interfaces/drm/aidl/android.hardware.drm-V1-ndk-source/gen/include/aidl/android/hardware/drm/BnCryptoPlugin.h"
  },
  {
   "alignment" : 4,
   "linker_set_key" : "_ZTIPN4aidl7android8hardware3drm14BpCryptoPluginE",
   "name" : "aidl::android::hardware::drm::BpCryptoPlugin *",
   "referenced_type" : "_ZTIN4aidl7android8hardware3drm14BpCryptoPluginE",
   "self_type" : "_ZTIPN4aidl7android8hardware3drm14BpCryptoPluginE",
   "size" : 4,
   "source_file" : "out/soong/.intermediates/hardware/interfaces/drm/aidl/android.hardware.drm-V1-ndk-source/gen/include/aidl/android/hardware/drm/BpCryptoPlugin.h"
  },
  {
   "alignment" : 4,
   "linker_set_key" : "_ZTIPN4aidl7android8hardware3drm14DrmMetricGroupE",
   "name" : "aidl::android::hardware::drm::DrmMetricGroup *",
   "referenced_type" : "_ZTIN4aidl7android8hardware3drm14DrmMetricGroupE",
   "self_type" : "_ZTIPN4aidl7android8hardware3drm14DrmMetricGroupE",
   "size" : 4,
   "source_file" : "out/soong/.intermediates/hardware/interfaces/drm/aidl/android.hardware.drm-V1-ndk-source/gen/include/aidl/android/hardware/drm/DrmMetricGroup.h"
  },
  {
   "alignment" : 4,
   "linker_set_key" : "_ZTIPN4aidl7android8hardware3drm14DrmMetricValueE",
   "name" : "aidl::android::hardware::drm::DrmMetricValue *",
   "referenced_type" : "_ZTIN4aidl7android8hardware3drm14DrmMetricValueE",
   "self_type" : "_ZTIPN4aidl7android8hardware3drm14DrmMetricValueE",
   "size" : 4,
   "source_file" : "out/soong/.intermediates/hardware/interfaces/drm/aidl/android.hardware.drm-V1-ndk-source/gen/include/aidl/android/hardware/drm/DrmMetricValue.h"
  },
  {
   "alignment" : 4,
   "linker_set_key" : "_ZTIPN4aidl7android8hardware3drm16NumberOfSessionsE",
   "name" : "aidl::android::hardware::drm::NumberOfSessions *",
   "referenced_type" : "_ZTIN4aidl7android8hardware3drm16NumberOfSessionsE",
   "self_type" : "_ZTIPN4aidl7android8hardware3drm16NumberOfSessionsE",
   "size" : 4,
   "source_file" : "out/soong/.intermediates/hardware/interfaces/drm/aidl/android.hardware.drm-V1-ndk-source/gen/include/aidl/android/hardware/drm/BnDrmPlugin.h"
  },
  {
   "alignment" : 4,
   "linker_set_key" : "_ZTIPN4aidl7android8hardware3drm16ProvisionRequestE",
   "name" : "aidl::android::hardware::drm::ProvisionRequest *",
   "referenced_type" : "_ZTIN4aidl7android8hardware3drm16ProvisionRequestE",
   "self_type" : "_ZTIPN4aidl7android8hardware3drm16ProvisionRequestE",
   "size" : 4,
   "source_file" : "out/soong/.intermediates/hardware/interfaces/drm/aidl/android.hardware.drm-V1-ndk-source/gen/include/aidl/android/hardware/drm/BnDrmPlugin.h"
  },
  {
   "alignment" : 4,
   "linker_set_key" : "_ZTIPN4aidl7android8hardware3drm17DestinationBufferE",
   "name" : "aidl::android::hardware::drm::DestinationBuffer *",
   "referenced_type" : "_ZTIN4aidl7android8hardware3drm17DestinationBufferE",
   "self_type" : "_ZTIPN4aidl7android8hardware3drm17DestinationBufferE",
   "size" : 4,
   "source_file" : "out/soong/.intermediates/hardware/interfaces/drm/aidl/android.hardware.drm-V1-ndk-source/gen/include/aidl/android/hardware/drm/DestinationBuffer.h"
  },
  {
   "alignment" : 4,
   "linker_set_key" : "_ZTIPN4aidl7android8hardware3drm17IDrmPluginDefaultE",
   "name" : "aidl::android::hardware::drm::IDrmPluginDefault *",
   "referenced_type" : "_ZTIN4aidl7android8hardware3drm17IDrmPluginDefaultE",
   "self_type" : "_ZTIPN4aidl7android8hardware3drm17IDrmPluginDefaultE",
   "size" : 4,
   "source_file" : "out/soong/.intermediates/hardware/interfaces/drm/aidl/android.hardware.drm-V1-ndk-source/gen/include/aidl/android/hardware/drm/IDrmPlugin.h"
  },
  {
   "alignment" : 4,
   "linker_set_key" : "_ZTIPN4aidl7android8hardware3drm18IDrmFactoryDefaultE",
   "name" : "aidl::android::hardware::drm::IDrmFactoryDefault *",
   "referenced_type" : "_ZTIN4aidl7android8hardware3drm18IDrmFactoryDefaultE",
   "self_type" : "_ZTIPN4aidl7android8hardware3drm18IDrmFactoryDefaultE",
   "size" : 4,
   "source_file" : "out/soong/.intermediates/hardware/interfaces/drm/aidl/android.hardware.drm-V1-ndk-source/gen/include/aidl/android/hardware/drm/IDrmFactory.h"
  },
  {
   "alignment" : 4,
   "linker_set_key" : "_ZTIPN4aidl7android8hardware3drm18IDrmPluginListenerE",
   "name" : "aidl::android::hardware::drm::IDrmPluginListener *",
   "referenced_type" : "_ZTIN4aidl7android8hardware3drm18IDrmPluginListenerE",
   "self_type" : "_ZTIPN4aidl7android8hardware3drm18IDrmPluginListenerE",
   "size" : 4,
   "source_file" : "out/soong/.intermediates/hardware/interfaces/drm/aidl/android.hardware.drm-V1-ndk-source/gen/include/aidl/android/hardware/drm/IDrmPluginListener.h"
  },
  {
   "alignment" : 4,
   "linker_set_key" : "_ZTIPN4aidl7android8hardware3drm19BnDrmPluginListenerE",
   "name" : "aidl::android::hardware::drm::BnDrmPluginListener *",
   "referenced_type" : "_ZTIN4aidl7android8hardware3drm19BnDrmPluginListenerE",
   "self_type" : "_ZTIPN4aidl7android8hardware3drm19BnDrmPluginListenerE",
   "size" : 4,
   "source_file" : "out/soong/.intermediates/hardware/interfaces/drm/aidl/android.hardware.drm-V1-ndk-source/gen/include/aidl/android/hardware/drm/BnDrmPluginListener.h"
  },
  {
   "alignment" : 4,
   "linker_set_key" : "_ZTIPN4aidl7android8hardware3drm19BpDrmPluginListenerE",
   "name" : "aidl::android::hardware::drm::BpDrmPluginListener *",
   "referenced_type" : "_ZTIN4aidl7android8hardware3drm19BpDrmPluginListenerE",
   "self_type" : "_ZTIPN4aidl7android8hardware3drm19BpDrmPluginListenerE",
   "size" : 4,
   "source_file" : "out/soong/.intermediates/hardware/interfaces/drm/aidl/android.hardware.drm-V1-ndk-source/gen/include/aidl/android/hardware/drm/BpDrmPluginListener.h"
  },
  {
   "alignment" : 4,
   "linker_set_key" : "_ZTIPN4aidl7android8hardware3drm19DrmMetricNamedValueE",
   "name" : "aidl::android::hardware::drm::DrmMetricNamedValue *",
   "referenced_type" : "_ZTIN4aidl7android8hardware3drm19DrmMetricNamedValueE",
   "self_type" : "_ZTIPN4aidl7android8hardware3drm19DrmMetricNamedValueE",
   "size" : 4,
   "source_file" : "out/soong/.intermediates/hardware/interfaces/drm/aidl/android.hardware.drm-V1-ndk-source/gen/include/aidl/android/hardware/drm/DrmMetricNamedValue.h"
  },
  {
   "alignment" : 4,
   "linker_set_key" : "_ZTIPN4aidl7android8hardware3drm19IDrmPluginDelegatorE",
   "name" : "aidl::android::hardware::drm::IDrmPluginDelegator *",
   "referenced_type" : "_ZTIN4aidl7android8hardware3drm19IDrmPluginDelegatorE",
   "self_type" : "_ZTIPN4aidl7android8hardware3drm19IDrmPluginDelegatorE",
   "size" : 4,
   "source_file" : "out/soong/.intermediates/hardware/interfaces/drm/aidl/android.hardware.drm-V1-ndk-source/gen/include/aidl/android/hardware/drm/BnDrmPlugin.h"
  },
  {
   "alignment" : 4,
   "linker_set_key" : "_ZTIPN4aidl7android8hardware3drm19OfflineLicenseStateE",
   "name" : "aidl::android::hardware::drm::OfflineLicenseState *",
   "referenced_type" : "_ZTIN4aidl7android8hardware3drm19OfflineLicenseStateE",
   "self_type" : "_ZTIPN4aidl7android8hardware3drm19OfflineLicenseStateE",
   "size" : 4,
   "source_file" : "out/soong/.intermediates/hardware/interfaces/drm/aidl/android.hardware.drm-V1-ndk-source/gen/include/aidl/android/hardware/drm/BnDrmPlugin.h"
  },
  {
   "alignment" : 4,
   "linker_set_key" : "_ZTIPN4aidl7android8hardware3drm20ICryptoPluginDefaultE",
   "name" : "aidl::android::hardware::drm::ICryptoPluginDefault *",
   "referenced_type" : "_ZTIN4aidl7android8hardware3drm20ICryptoPluginDefaultE",
   "self_type" : "_ZTIPN4aidl7android8hardware3drm20ICryptoPluginDefaultE",
   "size" : 4,
   "source_file" : "out/soong/.intermediates/hardware/interfaces/drm/aidl/android.hardware.drm-V1-ndk-source/gen/include/aidl/android/hardware/drm/ICryptoPlugin.h"
  },
  {
   "alignment" : 4,
   "linker_set_key" : "_ZTIPN4aidl7android8hardware3drm20IDrmFactoryDelegatorE",
   "name" : "aidl::android::hardware::drm::IDrmFactoryDelegator *",
   "referenced_type" : "_ZTIN4aidl7android8hardware3drm20IDrmFactoryDelegatorE",
   "self_type" : "_ZTIPN4aidl7android8hardware3drm20IDrmFactoryDelegatorE",
   "size" : 4,
   "source_file" : "out/soong/.intermediates/hardware/interfaces/drm/aidl/android.hardware.drm-V1-ndk-source/gen/include/aidl/android/hardware/drm/BnDrmFactory.h"
  },
  {
   "alignment" : 4,
   "linker_set_key" : "_ZTIPN4aidl7android8hardware3drm20SupportedContentTypeE",
   "name" : "aidl::android::hardware::drm::SupportedContentType *",
   "referenced_type" : "_ZTIN4aidl7android8hardware3drm20SupportedContentTypeE",
   "self_type" : "_ZTIPN4aidl7android8hardware3drm20SupportedContentTypeE",
   "size" : 4,
   "source_file" : "out/soong/.intermediates/hardware/interfaces/drm/aidl/android.hardware.drm-V1-ndk-source/gen/include/aidl/android/hardware/drm/SupportedContentType.h"
  },
  {
   "alignment" : 4,
   "linker_set_key" : "_ZTIPN4aidl7android8hardware3drm22ICryptoPluginDelegatorE",
   "name" : "aidl::android::hardware::drm::ICryptoPluginDelegator *",
   "referenced_type" : "_ZTIN4aidl7android8hardware3drm22ICryptoPluginDelegatorE",
   "self_type" : "_ZTIPN4aidl7android8hardware3drm22ICryptoPluginDelegatorE",
   "size" : 4,
   "source_file" : "out/soong/.intermediates/hardware/interfaces/drm/aidl/android.hardware.drm-V1-ndk-source/gen/include/aidl/android/hardware/drm/BnCryptoPlugin.h"
  },
  {
   "alignment" : 4,
   "linker_set_key" : "_ZTIPN4aidl7android8hardware3drm25IDrmPluginListenerDefaultE",
   "name" : "aidl::android::hardware::drm::IDrmPluginListenerDefault *",
   "referenced_type" : "_ZTIN4aidl7android8hardware3drm25IDrmPluginListenerDefaultE",
   "self_type" : "_ZTIPN4aidl7android8hardware3drm25IDrmPluginListenerDefaultE",
   "size" : 4,
   "source_file" : "out/soong/.intermediates/hardware/interfaces/drm/aidl/android.hardware.drm-V1-ndk-source/gen/include/aidl/android/hardware/drm/IDrmPluginListener.h"
  },
  {
   "alignment" : 4,
   "linker_set_key" : "_ZTIPN4aidl7android8hardware3drm27IDrmPluginListenerDelegatorE",
   "name" : "aidl::android::hardware::drm::IDrmPluginListenerDelegator *",
   "referenced_type" : "_ZTIN4aidl7android8hardware3drm27IDrmPluginListenerDelegatorE",
   "self_type" : "_ZTIPN4aidl7android8hardware3drm27IDrmPluginListenerDelegatorE",
   "size" : 4,
   "source_file" : "out/soong/.intermediates/hardware/interfaces/drm/aidl/android.hardware.drm-V1-ndk-source/gen/include/aidl/android/hardware/drm/BnDrmPluginListener.h"
  },
  {
   "alignment" : 4,
   "linker_set_key" : "_ZTIPN4aidl7android8hardware3drm30ProvideProvisionResponseResultE",
   "name" : "aidl::android::hardware::drm::ProvideProvisionResponseResult *",
   "referenced_type" : "_ZTIN4aidl7android8hardware3drm30ProvideProvisionResponseResultE",
   "self_type" : "_ZTIPN4aidl7android8hardware3drm30ProvideProvisionResponseResultE",
   "size" : 4,
   "source_file" : "out/soong/.intermediates/hardware/interfaces/drm/aidl/android.hardware.drm-V1-ndk-source/gen/include/aidl/android/hardware/drm/BnDrmPlugin.h"
  },
  {
   "alignment" : 4,
   "linker_set_key" : "_ZTIPN4aidl7android8hardware3drm4UuidE",
   "name" : "aidl::android::hardware::drm::Uuid *",
   "referenced_type" : "_ZTIN4aidl7android8hardware3drm4UuidE",
   "self_type" : "_ZTIPN4aidl7android8hardware3drm4UuidE",
   "size" : 4,
   "source_file" : "out/soong/.intermediates/hardware/interfaces/drm/aidl/android.hardware.drm-V1-ndk-source/gen/include/aidl/android/hardware/drm/Uuid.h"
  },
  {
   "alignment" : 4,
   "linker_set_key" : "_ZTIPN4aidl7android8hardware3drm7PatternE",
   "name" : "aidl::android::hardware::drm::Pattern *",
   "referenced_type" : "_ZTIN4aidl7android8hardware3drm7PatternE",
   "self_type" : "_ZTIPN4aidl7android8hardware3drm7PatternE",
   "size" : 4,
   "source_file" : "out/soong/.intermediates/hardware/interfaces/drm/aidl/android.hardware.drm-V1-ndk-source/gen/include/aidl/android/hardware/drm/Pattern.h"
  },
  {
   "alignment" : 4,
   "linker_set_key" : "_ZTIPN4aidl7android8hardware3drm8KeySetIdE",
   "name" : "aidl::android::hardware::drm::KeySetId *",
   "referenced_type" : "_ZTIN4aidl7android8hardware3drm8KeySetIdE",
   "self_type" : "_ZTIPN4aidl7android8hardware3drm8KeySetIdE",
   "size" : 4,
   "source_file" : "out/soong/.intermediates/hardware/interfaces/drm/aidl/android.hardware.drm-V1-ndk-source/gen/include/aidl/android/hardware/drm/BnDrmPlugin.h"
  },
  {
   "alignment" : 4,
   "linker_set_key" : "_ZTIPN4aidl7android8hardware3drm8KeyValueE",
   "name" : "aidl::android::hardware::drm::KeyValue *",
   "referenced_type" : "_ZTIN4aidl7android8hardware3drm8KeyValueE",
   "self_type" : "_ZTIPN4aidl7android8hardware3drm8KeyValueE",
   "size" : 4,
   "source_file" : "out/soong/.intermediates/hardware/interfaces/drm/aidl/android.hardware.drm-V1-ndk-source/gen/include/aidl/android/hardware/drm/KeyValue.h"
  },
  {
   "alignment" : 4,
   "linker_set_key" : "_ZTIPN4aidl7android8hardware3drm9DrmMetricE",
   "name" : "aidl::android::hardware::drm::DrmMetric *",
   "referenced_type" : "_ZTIN4aidl7android8hardware3drm9DrmMetricE",
   "self_type" : "_ZTIPN4aidl7android8hardware3drm9DrmMetricE",
   "size" : 4,
   "source_file" : "out/soong/.intermediates/hardware/interfaces/drm/aidl/android.hardware.drm-V1-ndk-source/gen/include/aidl/android/hardware/drm/DrmMetric.h"
  },
  {
   "alignment" : 4,
   "linker_set_key" : "_ZTIPN4aidl7android8hardware3drm9KeyStatusE",
   "name" : "aidl::android::hardware::drm::KeyStatus *",
   "referenced_type" : "_ZTIN4aidl7android8hardware3drm9KeyStatusE",
   "self_type" : "_ZTIPN4aidl7android8hardware3drm9KeyStatusE",
   "size" : 4,
   "source_file" : "out/soong/.intermediates/hardware/interfaces/drm/aidl/android.hardware.drm-V1-ndk-source/gen/include/aidl/android/hardware/drm/KeyStatus.h"
  },
  {
   "alignment" : 4,
   "linker_set_key" : "_ZTIPN4aidl7android8hardware3drm9SubSampleE",
   "name" : "aidl::android::hardware::drm::SubSample *",
   "referenced_type" : "_ZTIN4aidl7android8hardware3drm9SubSampleE",
   "self_type" : "_ZTIPN4aidl7android8hardware3drm9SubSampleE",
   "size" : 4,
   "source_file" : "out/soong/.intermediates/hardware/interfaces/drm/aidl/android.hardware.drm-V1-ndk-source/gen/include/aidl/android/hardware/drm/SubSample.h"
  },
  {
   "alignment" : 4,
   "linker_set_key" : "_ZTIPNSt3__110shared_ptrIN4aidl7android8hardware3drm10IDrmPluginEEE",
   "name" : "std::shared_ptr<aidl::android::hardware::drm::IDrmPlugin> *",
   "referenced_type" : "_ZTINSt3__110shared_ptrIN4aidl7android8hardware3drm10IDrmPluginEEE",
   "self_type" : "_ZTIPNSt3__110shared_ptrIN4aidl7android8hardware3drm10IDrmPluginEEE",
   "size" : 4,
   "source_file" : "out/soong/.intermediates/hardware/interfaces/drm/aidl/android.hardware.drm-V1-ndk-source/gen/include/aidl/android/hardware/drm/IDrmFactory.h"
  },
  {
   "alignment" : 4,
   "linker_set_key" : "_ZTIPNSt3__110shared_ptrIN4aidl7android8hardware3drm11IDrmFactoryEEE",
   "name" : "std::shared_ptr<aidl::android::hardware::drm::IDrmFactory> *",
   "referenced_type" : "_ZTINSt3__110shared_ptrIN4aidl7android8hardware3drm11IDrmFactoryEEE",
   "self_type" : "_ZTIPNSt3__110shared_ptrIN4aidl7android8hardware3drm11IDrmFactoryEEE",
   "size" : 4,
   "source_file" : "out/soong/.intermediates/hardware/interfaces/drm/aidl/android.hardware.drm-V1-ndk-source/gen/include/aidl/android/hardware/drm/IDrmFactory.h"
  },
  {
   "alignment" : 4,
   "linker_set_key" : "_ZTIPNSt3__110shared_ptrIN4aidl7android8hardware3drm13ICryptoPluginEEE",
   "name" : "std::shared_ptr<aidl::android::hardware::drm::ICryptoPlugin> *",
   "referenced_type" : "_ZTINSt3__110shared_ptrIN4aidl7android8hardware3drm13ICryptoPluginEEE",
   "self_type" : "_ZTIPNSt3__110shared_ptrIN4aidl7android8hardware3drm13ICryptoPluginEEE",
   "size" : 4,
   "source_file" : "out/soong/.intermediates/hardware/interfaces/drm/aidl/android.hardware.drm-V1-ndk-source/gen/include/aidl/android/hardware/drm/ICryptoPlugin.h"
  },
  {
   "alignment" : 4,
   "linker_set_key" : "_ZTIPNSt3__110shared_ptrIN4aidl7android8hardware3drm18IDrmPluginListenerEEE",
   "name" : "std::shared_ptr<aidl::android::hardware::drm::IDrmPluginListener> *",
   "referenced_type" : "_ZTINSt3__110shared_ptrIN4aidl7android8hardware3drm18IDrmPluginListenerEEE",
   "self_type" : "_ZTIPNSt3__110shared_ptrIN4aidl7android8hardware3drm18IDrmPluginListenerEEE",
   "size" : 4,
   "source_file" : "out/soong/.intermediates/hardware/interfaces/drm/aidl/android.hardware.drm-V1-ndk-source/gen/include/aidl/android/hardware/drm/IDrmPluginListener.h"
  },
  {
   "alignment" : 4,
   "linker_set_key" : "_ZTIPNSt3__112basic_stringIcNS_11char_traitsIcEENS_9allocatorIcEEEE",
   "name" : "std::basic_string<char, std::char_traits<char>, std::allocator<char>> *",
   "referenced_type" : "_ZTINSt3__112basic_stringIcNS_11char_traitsIcEENS_9allocatorIcEEEE",
   "self_type" : "_ZTIPNSt3__112basic_stringIcNS_11char_traitsIcEENS_9allocatorIcEEEE",
   "size" : 4,
   "source_file" : "out/soong/.intermediates/hardware/interfaces/drm/aidl/android.hardware.drm-V1-ndk-source/gen/include/aidl/android/hardware/drm/ICryptoPlugin.h"
  },
  {
   "alignment" : 4,
   "linker_set_key" : "_ZTIPNSt3__16vectorIDsNS_9allocatorIDsEEEE",
   "name" : "std::vector<char16_t, std::allocator<char16_t>> *",
   "referenced_type" : "_ZTINSt3__16vectorIDsNS_9allocatorIDsEEEE",
   "self_type" : "_ZTIPNSt3__16vectorIDsNS_9allocatorIDsEEEE",
   "size" : 4,
   "source_file" : "frameworks/native/libs/binder/ndk/include_cpp/android/binder_parcel_utils.h"
  },
  {
   "alignment" : 4,
   "linker_set_key" : "_ZTIPNSt3__16vectorIN4aidl7android8hardware3drm10LogMessageENS_9allocatorIS5_EEEE",
   "name" : "std::vector<aidl::android::hardware::drm::LogMessage, std::allocator<aidl::android::hardware::drm::LogMessage>> *",
   "referenced_type" : "_ZTINSt3__16vectorIN4aidl7android8hardware3drm10LogMessageENS_9allocatorIS5_EEEE",
   "self_type" : "_ZTIPNSt3__16vectorIN4aidl7android8hardware3drm10LogMessageENS_9allocatorIS5_EEEE",
   "size" : 4,
   "source_file" : "out/soong/.intermediates/hardware/interfaces/drm/aidl/android.hardware.drm-V1-ndk-source/gen/include/aidl/android/hardware/drm/ICryptoPlugin.h"
  },
  {
   "alignment" : 4,
   "linker_set_key" : "_ZTIPNSt3__16vectorIN4aidl7android8hardware3drm10SecureStopENS_9allocatorIS5_EEEE",
   "name" : "std::vector<aidl::android::hardware::drm::SecureStop, std::allocator<aidl::android::hardware::drm::SecureStop>> *",
   "referenced_type" : "_ZTINSt3__16vectorIN4aidl7android8hardware3drm10SecureStopENS_9allocatorIS5_EEEE",
   "self_type" : "_ZTIPNSt3__16vectorIN4aidl7android8hardware3drm10SecureStopENS_9allocatorIS5_EEEE",
   "size" : 4,
   "source_file" : "out/soong/.intermediates/hardware/interfaces/drm/aidl/android.hardware.drm-V1-ndk-source/gen/include/aidl/android/hardware/drm/BnDrmPlugin.h"
  },
  {
   "alignment" : 4,
   "linker_set_key" : "_ZTIPNSt3__16vectorIN4aidl7android8hardware3drm12SecureStopIdENS_9allocatorIS5_EEEE",
   "name" : "std::vector<aidl::android::hardware::drm::SecureStopId, std::allocator<aidl::android::hardware::drm::SecureStopId>> *",
   "referenced_type" : "_ZTINSt3__16vectorIN4aidl7android8hardware3drm12SecureStopIdENS_9allocatorIS5_EEEE",
   "self_type" : "_ZTIPNSt3__16vectorIN4aidl7android8hardware3drm12SecureStopIdENS_9allocatorIS5_EEEE",
   "size" : 4,
   "source_file" : "out/soong/.intermediates/hardware/interfaces/drm/aidl/android.hardware.drm-V1-ndk-source/gen/include/aidl/android/hardware/drm/BnDrmPlugin.h"
  },
  {
   "alignment" : 4,
   "linker_set_key" : "_ZTIPNSt3__16vectorIN4aidl7android8hardware3drm14DrmMetricGroupENS_9allocatorIS5_EEEE",
   "name" : "std::vector<aidl::android::hardware::drm::DrmMetricGroup, std::allocator<aidl::android::hardware::drm::DrmMetricGroup>> *",
   "referenced_type" : "_ZTINSt3__16vectorIN4aidl7android8hardware3drm14DrmMetricGroupENS_9allocatorIS5_EEEE",
   "self_type" : "_ZTIPNSt3__16vectorIN4aidl7android8hardware3drm14DrmMetricGroupENS_9allocatorIS5_EEEE",
   "size" : 4,
   "source_file" : "out/soong/.intermediates/hardware/interfaces/drm/aidl/android.hardware.drm-V1-ndk-source/gen/include/aidl/android/hardware/drm/BnDrmPlugin.h"
  },
  {
   "alignment" : 4,
   "linker_set_key" : "_ZTIPNSt3__16vectorIN4aidl7android8hardware3drm8KeySetIdENS_9allocatorIS5_EEEE",
   "name" : "std::vector<aidl::android::hardware::drm::KeySetId, std::allocator<aidl::android::hardware::drm::KeySetId>> *",
   "referenced_type" : "_ZTINSt3__16vectorIN4aidl7android8hardware3drm8KeySetIdENS_9allocatorIS5_EEEE",
   "self_type" : "_ZTIPNSt3__16vectorIN4aidl7android8hardware3drm8KeySetIdENS_9allocatorIS5_EEEE",
   "size" : 4,
   "source_file" : "out/soong/.intermediates/hardware/interfaces/drm/aidl/android.hardware.drm-V1-ndk-source/gen/include/aidl/android/hardware/drm/BnDrmPlugin.h"
  },
  {
   "alignment" : 4,
   "linker_set_key" : "_ZTIPNSt3__16vectorIN4aidl7android8hardware3drm8KeyValueENS_9allocatorIS5_EEEE",
   "name" : "std::vector<aidl::android::hardware::drm::KeyValue, std::allocator<aidl::android::hardware::drm::KeyValue>> *",
   "referenced_type" : "_ZTINSt3__16vectorIN4aidl7android8hardware3drm8KeyValueENS_9allocatorIS5_EEEE",
   "self_type" : "_ZTIPNSt3__16vectorIN4aidl7android8hardware3drm8KeyValueENS_9allocatorIS5_EEEE",
   "size" : 4,
   "source_file" : "out/soong/.intermediates/hardware/interfaces/drm/aidl/android.hardware.drm-V1-ndk-source/gen/include/aidl/android/hardware/drm/BnDrmPlugin.h"
  },
  {
   "alignment" : 4,
   "linker_set_key" : "_ZTIPNSt3__16vectorIbNS_9allocatorIbEEEE",
   "name" : "std::vector<bool, std::allocator<bool>> *",
   "referenced_type" : "_ZTINSt3__16vectorIbNS_9allocatorIbEEEE",
   "self_type" : "_ZTIPNSt3__16vectorIbNS_9allocatorIbEEEE",
   "size" : 4,
   "source_file" : "frameworks/native/libs/binder/ndk/include_cpp/android/binder_parcel_utils.h"
  },
  {
   "alignment" : 4,
   "linker_set_key" : "_ZTIPNSt3__16vectorIdNS_9allocatorIdEEEE",
   "name" : "std::vector<double, std::allocator<double>> *",
   "referenced_type" : "_ZTINSt3__16vectorIdNS_9allocatorIdEEEE",
   "self_type" : "_ZTIPNSt3__16vectorIdNS_9allocatorIdEEEE",
   "size" : 4,
   "source_file" : "frameworks/native/libs/binder/ndk/include_cpp/android/binder_parcel_utils.h"
  },
  {
   "alignment" : 4,
   "linker_set_key" : "_ZTIPNSt3__16vectorIfNS_9allocatorIfEEEE",
   "name" : "std::vector<float, std::allocator<float>> *",
   "referenced_type" : "_ZTINSt3__16vectorIfNS_9allocatorIfEEEE",
   "self_type" : "_ZTIPNSt3__16vectorIfNS_9allocatorIfEEEE",
   "size" : 4,
   "source_file" : "frameworks/native/libs/binder/ndk/include_cpp/android/binder_parcel_utils.h"
  },
  {
   "alignment" : 4,
   "linker_set_key" : "_ZTIPNSt3__16vectorIhNS_9allocatorIhEEEE",
   "name" : "std::vector<unsigned char, std::allocator<unsigned char>> *",
   "referenced_type" : "_ZTINSt3__16vectorIhNS_9allocatorIhEEEE",
   "self_type" : "_ZTIPNSt3__16vectorIhNS_9allocatorIhEEEE",
   "size" : 4,
   "source_file" : "frameworks/native/libs/binder/ndk/include_cpp/android/binder_parcel_utils.h"
  },
  {
   "alignment" : 4,
   "linker_set_key" : "_ZTIPNSt3__16vectorIiNS_9allocatorIiEEEE",
   "name" : "std::vector<int, std::allocator<int>> *",
   "referenced_type" : "_ZTINSt3__16vectorIiNS_9allocatorIiEEEE",
   "self_type" : "_ZTIPNSt3__16vectorIiNS_9allocatorIiEEEE",
   "size" : 4,
   "source_file" : "frameworks/native/libs/binder/ndk/include_cpp/android/binder_parcel_utils.h"
  },
  {
   "alignment" : 4,
   "linker_set_key" : "_ZTIPNSt3__16vectorIjNS_9allocatorIjEEEE",
   "name" : "std::vector<unsigned int, std::allocator<unsigned int>> *",
   "referenced_type" : "_ZTINSt3__16vectorIjNS_9allocatorIjEEEE",
   "self_type" : "_ZTIPNSt3__16vectorIjNS_9allocatorIjEEEE",
   "size" : 4,
   "source_file" : "frameworks/native/libs/binder/ndk/include_cpp/android/binder_parcel_utils.h"
  },
  {
   "alignment" : 4,
   "linker_set_key" : "_ZTIPNSt3__16vectorIxNS_9allocatorIxEEEE",
   "name" : "std::vector<long long, std::allocator<long long>> *",
   "referenced_type" : "_ZTINSt3__16vectorIxNS_9allocatorIxEEEE",
   "self_type" : "_ZTIPNSt3__16vectorIxNS_9allocatorIxEEEE",
   "size" : 4,
   "source_file" : "frameworks/native/libs/binder/ndk/include_cpp/android/binder_parcel_utils.h"
  },
  {
   "alignment" : 4,
   "linker_set_key" : "_ZTIPNSt3__16vectorIyNS_9allocatorIyEEEE",
   "name" : "std::vector<unsigned long long, std::allocator<unsigned long long>> *",
   "referenced_type" : "_ZTINSt3__16vectorIyNS_9allocatorIyEEEE",
   "self_type" : "_ZTIPNSt3__16vectorIyNS_9allocatorIyEEEE",
   "size" : 4,
   "source_file" : "frameworks/native/libs/binder/ndk/include_cpp/android/binder_parcel_utils.h"
  },
  {
   "alignment" : 4,
   "linker_set_key" : "_ZTIPNSt3__18optionalINS_6vectorIDsNS_9allocatorIDsEEEEEE",
   "name" : "std::optional<std::vector<char16_t, std::allocator<char16_t>>> *",
   "referenced_type" : "_ZTINSt3__18optionalINS_6vectorIDsNS_9allocatorIDsEEEEEE",
   "self_type" : "_ZTIPNSt3__18optionalINS_6vectorIDsNS_9allocatorIDsEEEEEE",
   "size" : 4,
   "source_file" : "frameworks/native/libs/binder/ndk/include_cpp/android/binder_parcel_utils.h"
  },
  {
   "alignment" : 4,
   "linker_set_key" : "_ZTIPNSt3__18optionalINS_6vectorIbNS_9allocatorIbEEEEEE",
   "name" : "std::optional<std::vector<bool, std::allocator<bool>>> *",
   "referenced_type" : "_ZTINSt3__18optionalINS_6vectorIbNS_9allocatorIbEEEEEE",
   "self_type" : "_ZTIPNSt3__18optionalINS_6vectorIbNS_9allocatorIbEEEEEE",
   "size" : 4,
   "source_file" : "frameworks/native/libs/binder/ndk/include_cpp/android/binder_parcel_utils.h"
  },
  {
   "alignment" : 4,
   "linker_set_key" : "_ZTIPNSt3__18optionalINS_6vectorIdNS_9allocatorIdEEEEEE",
   "name" : "std::optional<std::vector<double, std::allocator<double>>> *",
   "referenced_type" : "_ZTINSt3__18optionalINS_6vectorIdNS_9allocatorIdEEEEEE",
   "self_type" : "_ZTIPNSt3__18optionalINS_6vectorIdNS_9allocatorIdEEEEEE",
   "size" : 4,
   "source_file" : "frameworks/native/libs/binder/ndk/include_cpp/android/binder_parcel_utils.h"
  },
  {
   "alignment" : 4,
   "linker_set_key" : "_ZTIPNSt3__18optionalINS_6vectorIfNS_9allocatorIfEEEEEE",
   "name" : "std::optional<std::vector<float, std::allocator<float>>> *",
   "referenced_type" : "_ZTINSt3__18optionalINS_6vectorIfNS_9allocatorIfEEEEEE",
   "self_type" : "_ZTIPNSt3__18optionalINS_6vectorIfNS_9allocatorIfEEEEEE",
   "size" : 4,
   "source_file" : "frameworks/native/libs/binder/ndk/include_cpp/android/binder_parcel_utils.h"
  },
  {
   "alignment" : 4,
   "linker_set_key" : "_ZTIPNSt3__18optionalINS_6vectorIhNS_9allocatorIhEEEEEE",
   "name" : "std::optional<std::vector<unsigned char, std::allocator<unsigned char>>> *",
   "referenced_type" : "_ZTINSt3__18optionalINS_6vectorIhNS_9allocatorIhEEEEEE",
   "self_type" : "_ZTIPNSt3__18optionalINS_6vectorIhNS_9allocatorIhEEEEEE",
   "size" : 4,
   "source_file" : "frameworks/native/libs/binder/ndk/include_cpp/android/binder_parcel_utils.h"
  },
  {
   "alignment" : 4,
   "linker_set_key" : "_ZTIPNSt3__18optionalINS_6vectorIiNS_9allocatorIiEEEEEE",
   "name" : "std::optional<std::vector<int, std::allocator<int>>> *",
   "referenced_type" : "_ZTINSt3__18optionalINS_6vectorIiNS_9allocatorIiEEEEEE",
   "self_type" : "_ZTIPNSt3__18optionalINS_6vectorIiNS_9allocatorIiEEEEEE",
   "size" : 4,
   "source_file" : "frameworks/native/libs/binder/ndk/include_cpp/android/binder_parcel_utils.h"
  },
  {
   "alignment" : 4,
   "linker_set_key" : "_ZTIPNSt3__18optionalINS_6vectorIjNS_9allocatorIjEEEEEE",
   "name" : "std::optional<std::vector<unsigned int, std::allocator<unsigned int>>> *",
   "referenced_type" : "_ZTINSt3__18optionalINS_6vectorIjNS_9allocatorIjEEEEEE",
   "self_type" : "_ZTIPNSt3__18optionalINS_6vectorIjNS_9allocatorIjEEEEEE",
   "size" : 4,
   "source_file" : "frameworks/native/libs/binder/ndk/include_cpp/android/binder_parcel_utils.h"
  },
  {
   "alignment" : 4,
   "linker_set_key" : "_ZTIPNSt3__18optionalINS_6vectorIxNS_9allocatorIxEEEEEE",
   "name" : "std::optional<std::vector<long long, std::allocator<long long>>> *",
   "referenced_type" : "_ZTINSt3__18optionalINS_6vectorIxNS_9allocatorIxEEEEEE",
   "self_type" : "_ZTIPNSt3__18optionalINS_6vectorIxNS_9allocatorIxEEEEEE",
   "size" : 4,
   "source_file" : "frameworks/native/libs/binder/ndk/include_cpp/android/binder_parcel_utils.h"
  },
  {
   "alignment" : 4,
   "linker_set_key" : "_ZTIPNSt3__18optionalINS_6vectorIyNS_9allocatorIyEEEEEE",
   "name" : "std::optional<std::vector<unsigned long long, std::allocator<unsigned long long>>> *",
   "referenced_type" : "_ZTINSt3__18optionalINS_6vectorIyNS_9allocatorIyEEEEEE",
   "self_type" : "_ZTIPNSt3__18optionalINS_6vectorIyNS_9allocatorIyEEEEEE",
   "size" : 4,
   "source_file" : "frameworks/native/libs/binder/ndk/include_cpp/android/binder_parcel_utils.h"
  },
  {
   "alignment" : 4,
   "linker_set_key" : "_ZTIPP7AParcel",
   "name" : "AParcel **",
   "referenced_type" : "_ZTIP7AParcel",
   "self_type" : "_ZTIPP7AParcel",
   "size" : 4,
   "source_file" : "frameworks/native/libs/binder/ndk/include_cpp/android/binder_auto_utils.h"
  },
  {
   "alignment" : 4,
   "linker_set_key" : "_ZTIPP7AStatus",
   "name" : "AStatus **",
   "referenced_type" : "_ZTIP7AStatus",
   "self_type" : "_ZTIPP7AStatus",
   "size" : 4,
   "source_file" : "frameworks/native/libs/binder/ndk/include_cpp/android/binder_auto_utils.h"
  },
  {
   "alignment" : 4,
   "linker_set_key" : "_ZTIPP8AIBinder",
   "name" : "AIBinder **",
   "referenced_type" : "_ZTIP8AIBinder",
   "self_type" : "_ZTIPP8AIBinder",
   "size" : 4,
   "source_file" : "frameworks/native/libs/binder/ndk/include_cpp/android/binder_auto_utils.h"
  },
  {
   "alignment" : 4,
   "linker_set_key" : "_ZTIPPKc",
   "name" : "const char **",
   "referenced_type" : "_ZTIPKc",
   "self_type" : "_ZTIPPKc",
   "size" : 4,
   "source_file" : "frameworks/native/libs/binder/ndk/include_cpp/android/binder_interface_utils.h"
  },
  {
   "alignment" : 4,
   "linker_set_key" : "_ZTIPb",
   "name" : "bool *",
   "referenced_type" : "_ZTIb",
   "self_type" : "_ZTIPb",
   "size" : 4,
   "source_file" : "out/soong/.intermediates/hardware/interfaces/drm/aidl/android.hardware.drm-V1-ndk-source/gen/include/aidl/android/hardware/drm/ICryptoPlugin.h"
  },
  {
   "alignment" : 4,
   "linker_set_key" : "_ZTIPi",
   "name" : "int *",
   "referenced_type" : "_ZTIi",
   "self_type" : "_ZTIPi",
   "size" : 4,
   "source_file" : "out/soong/.intermediates/hardware/interfaces/drm/aidl/android.hardware.drm-V1-ndk-source/gen/include/aidl/android/hardware/drm/ICryptoPlugin.h"
  },
  {
   "alignment" : 4,
   "linker_set_key" : "_ZTIPv",
   "name" : "void *",
   "referenced_type" : "_ZTIv",
   "self_type" : "_ZTIPv",
   "size" : 4,
   "source_file" : "frameworks/native/libs/binder/ndk/include_cpp/android/binder_interface_utils.h"
  }
 ],
 "qualified_types" :
 [
  {
   "is_const" : true,
   "linker_set_key" : "_ZTIK7AParcel",
   "name" : "const AParcel",
   "referenced_type" : "_ZTI7AParcel",
   "self_type" : "_ZTIK7AParcel",
   "source_file" : "frameworks/native/libs/binder/ndk/include_cpp/android/binder_interface_utils.h"
  },
  {
   "alignment" : 4,
   "is_const" : true,
   "linker_set_key" : "_ZTIKN3ndk10SpAIBinderE",
   "name" : "const ndk::SpAIBinder",
   "referenced_type" : "_ZTIN3ndk10SpAIBinderE",
   "self_type" : "_ZTIKN3ndk10SpAIBinderE",
   "size" : 4,
   "source_file" : "frameworks/native/libs/binder/ndk/include_cpp/android/binder_auto_utils.h"
  },
  {
   "alignment" : 4,
   "is_const" : true,
   "linker_set_key" : "_ZTIKN3ndk13ScopedAParcelE",
   "name" : "const ndk::ScopedAParcel",
   "referenced_type" : "_ZTIN3ndk13ScopedAParcelE",
   "self_type" : "_ZTIKN3ndk13ScopedAParcelE",
   "size" : 4,
   "source_file" : "frameworks/native/libs/binder/ndk/include_cpp/android/binder_auto_utils.h"
  },
  {
   "alignment" : 4,
   "is_const" : true,
   "linker_set_key" : "_ZTIKN3ndk13ScopedAStatusE",
   "name" : "const ndk::ScopedAStatus",
   "referenced_type" : "_ZTIN3ndk13ScopedAStatusE",
   "self_type" : "_ZTIKN3ndk13ScopedAStatusE",
   "size" : 4,
   "source_file" : "frameworks/native/libs/binder/ndk/include_cpp/android/binder_auto_utils.h"
  },
  {
   "alignment" : 4,
   "is_const" : true,
   "linker_set_key" : "_ZTIKN3ndk17AParcelableHolderE",
   "name" : "const ndk::AParcelableHolder",
   "referenced_type" : "_ZTIN3ndk17AParcelableHolderE",
   "self_type" : "_ZTIKN3ndk17AParcelableHolderE",
   "size" : 12,
   "source_file" : "frameworks/native/libs/binder/ndk/include_cpp/android/binder_parcelable_utils.h"
  },
  {
   "alignment" : 4,
   "is_const" : true,
   "linker_set_key" : "_ZTIKN3ndk20ScopedFileDescriptorE",
   "name" : "const ndk::ScopedFileDescriptor",
   "referenced_type" : "_ZTIN3ndk20ScopedFileDescriptorE",
   "self_type" : "_ZTIKN3ndk20ScopedFileDescriptorE",
   "size" : 4,
   "source_file" : "frameworks/native/libs/binder/ndk/include_cpp/android/binder_auto_utils.h"
  },
  {
   "alignment" : 4,
   "is_const" : true,
   "linker_set_key" : "_ZTIKN3ndk4impl15ScopedAResourceIP7AParcelXadL_Z14AParcel_deleteEELS3_0EEE",
   "name" : "const ndk::impl::ScopedAResource<AParcel *, &AParcel_delete, nullptr>",
   "referenced_type" : "_ZTIN3ndk4impl15ScopedAResourceIP7AParcelXadL_Z14AParcel_deleteEELS3_0EEE",
   "self_type" : "_ZTIKN3ndk4impl15ScopedAResourceIP7AParcelXadL_Z14AParcel_deleteEELS3_0EEE",
   "size" : 4,
   "source_file" : "frameworks/native/libs/binder/ndk/include_cpp/android/binder_auto_utils.h"
  },
  {
   "alignment" : 4,
   "is_const" : true,
   "linker_set_key" : "_ZTIKN3ndk4impl15ScopedAResourceIP7AStatusXadL_Z14AStatus_deleteEELS3_0EEE",
   "name" : "const ndk::impl::ScopedAResource<AStatus *, &AStatus_delete, nullptr>",
   "referenced_type" : "_ZTIN3ndk4impl15ScopedAResourceIP7AStatusXadL_Z14AStatus_deleteEELS3_0EEE",
   "self_type" : "_ZTIKN3ndk4impl15ScopedAResourceIP7AStatusXadL_Z14AStatus_deleteEELS3_0EEE",
   "size" : 4,
   "source_file" : "frameworks/native/libs/binder/ndk/include_cpp/android/binder_auto_utils.h"
  },
  {
   "alignment" : 4,
   "is_const" : true,
   "linker_set_key" : "_ZTIKN4aidl7android8hardware3drm10HdcpLevelsE",
   "name" : "const aidl::android::hardware::drm::HdcpLevels",
   "referenced_type" : "_ZTIN4aidl7android8hardware3drm10HdcpLevelsE",
   "self_type" : "_ZTIKN4aidl7android8hardware3drm10HdcpLevelsE",
   "size" : 8,
   "source_file" : "out/soong/.intermediates/hardware/interfaces/drm/aidl/android.hardware.drm-V1-ndk-source/gen/include/aidl/android/hardware/drm/HdcpLevels.h"
  },
  {
   "alignment" : 4,
   "is_const" : true,
   "linker_set_key" : "_ZTIKN4aidl7android8hardware3drm10KeyRequestE",
   "name" : "const aidl::android::hardware::drm::KeyRequest",
   "referenced_type" : "_ZTIN4aidl7android8hardware3drm10KeyRequestE",
   "self_type" : "_ZTIKN4aidl7android8hardware3drm10KeyRequestE",
   "size" : 28,
   "source_file" : "out/soong/.intermediates/hardware/interfaces/drm/aidl/android.hardware.drm-V1-ndk-source/gen/include/aidl/android/hardware/drm/KeyRequest.h"
  },
  {
   "alignment" : 4,
   "is_const" : true,
   "linker_set_key" : "_ZTIKN4aidl7android8hardware3drm10LogMessageE",
   "name" : "const aidl::android::hardware::drm::LogMessage",
   "referenced_type" : "_ZTIN4aidl7android8hardware3drm10LogMessageE",
   "self_type" : "_ZTIKN4aidl7android8hardware3drm10LogMessageE",
   "size" : 24,
   "source_file" : "out/soong/.intermediates/hardware/interfaces/drm/aidl/android.hardware.drm-V1-ndk-source/gen/include/aidl/android/hardware/drm/LogMessage.h"
  },
  {
   "alignment" : 4,
   "is_const" : true,
   "linker_set_key" : "_ZTIKN4aidl7android8hardware3drm10OpaqueDataE",
   "name" : "const aidl::android::hardware::drm::OpaqueData",
   "referenced_type" : "_ZTIN4aidl7android8hardware3drm10OpaqueDataE",
   "self_type" : "_ZTIKN4aidl7android8hardware3drm10OpaqueDataE",
   "size" : 12,
   "source_file" : "out/soong/.intermediates/hardware/interfaces/drm/aidl/android.hardware.drm-V1-ndk-source/gen/include/aidl/android/hardware/drm/OpaqueData.h"
  },
  {
   "alignment" : 4,
   "is_const" : true,
   "linker_set_key" : "_ZTIKN4aidl7android8hardware3drm10SecureStopE",
   "name" : "const aidl::android::hardware::drm::SecureStop",
   "referenced_type" : "_ZTIN4aidl7android8hardware3drm10SecureStopE",
   "self_type" : "_ZTIKN4aidl7android8hardware3drm10SecureStopE",
   "size" : 12,
   "source_file" : "out/soong/.intermediates/hardware/interfaces/drm/aidl/android.hardware.drm-V1-ndk-source/gen/include/aidl/android/hardware/drm/SecureStop.h"
  },
  {
   "alignment" : 4,
   "is_const" : true,
   "linker_set_key" : "_ZTIKN4aidl7android8hardware3drm11DecryptArgsE",
   "name" : "const aidl::android::hardware::drm::DecryptArgs",
   "referenced_type" : "_ZTIN4aidl7android8hardware3drm11DecryptArgsE",
   "self_type" : "_ZTIKN4aidl7android8hardware3drm11DecryptArgsE",
   "size" : 152,
   "source_file" : "out/soong/.intermediates/hardware/interfaces/drm/aidl/android.hardware.drm-V1-ndk-source/gen/include/aidl/android/hardware/drm/DecryptArgs.h"
  },
  {
   "alignment" : 4,
   "is_const" : true,
   "linker_set_key" : "_ZTIKN4aidl7android8hardware3drm11LogPriorityE",
   "name" : "const aidl::android::hardware::drm::LogPriority",
   "referenced_type" : "_ZTIN4aidl7android8hardware3drm11LogPriorityE",
   "self_type" : "_ZTIKN4aidl7android8hardware3drm11LogPriorityE",
   "size" : 4,
   "source_file" : "frameworks/native/libs/binder/ndk/include_cpp/android/binder_to_string.h"
  },
  {
   "alignment" : 4,
   "is_const" : true,
   "linker_set_key" : "_ZTIKN4aidl7android8hardware3drm12SecureStopIdE",
   "name" : "const aidl::android::hardware::drm::SecureStopId",
   "referenced_type" : "_ZTIN4aidl7android8hardware3drm12SecureStopIdE",
   "self_type" : "_ZTIKN4aidl7android8hardware3drm12SecureStopIdE",
   "size" : 12,
   "source_file" : "out/soong/.intermediates/hardware/interfaces/drm/aidl/android.hardware.drm-V1-ndk-source/gen/include/aidl/android/hardware/drm/SecureStopId.h"
  },
  {
   "alignment" : 4,
   "is_const" : true,
   "linker_set_key" : "_ZTIKN4aidl7android8hardware3drm12SharedBufferE",
   "name" : "const aidl::android::hardware::drm::SharedBuffer",
   "referenced_type" : "_ZTIN4aidl7android8hardware3drm12SharedBufferE",
   "self_type" : "_ZTIKN4aidl7android8hardware3drm12SharedBufferE",
   "size" : 44,
   "source_file" : "frameworks/native/libs/binder/ndk/include_cpp/android/binder_to_string.h"
  },
  {
   "alignment" : 4,
   "is_const" : true,
   "linker_set_key" : "_ZTIKN4aidl7android8hardware3drm13CryptoSchemesE",
   "name" : "const aidl::android::hardware::drm::CryptoSchemes",
   "referenced_type" : "_ZTIN4aidl7android8hardware3drm13CryptoSchemesE",
   "self_type" : "_ZTIKN4aidl7android8hardware3drm13CryptoSchemesE",
   "size" : 24,
   "source_file" : "out/soong/.intermediates/hardware/interfaces/drm/aidl/android.hardware.drm-V1-ndk-source/gen/include/aidl/android/hardware/drm/CryptoSchemes.h"
  },
  {
   "alignment" : 4,
   "is_const" : true,
   "linker_set_key" : "_ZTIKN4aidl7android8hardware3drm13KeyStatusTypeE",
   "name" : "const aidl::android::hardware::drm::KeyStatusType",
   "referenced_type" : "_ZTIN4aidl7android8hardware3drm13KeyStatusTypeE",
   "self_type" : "_ZTIKN4aidl7android8hardware3drm13KeyStatusTypeE",
   "size" : 4,
   "source_file" : "frameworks/native/libs/binder/ndk/include_cpp/android/binder_to_string.h"
  },
  {
   "alignment" : 4,
   "is_const" : true,
   "linker_set_key" : "_ZTIKN4aidl7android8hardware3drm13SecurityLevelE",
   "name" : "const aidl::android::hardware::drm::SecurityLevel",
   "referenced_type" : "_ZTIN4aidl7android8hardware3drm13SecurityLevelE",
   "self_type" : "_ZTIKN4aidl7android8hardware3drm13SecurityLevelE",
   "size" : 4,
   "source_file" : "frameworks/native/libs/binder/ndk/include_cpp/android/binder_to_string.h"
  },
  {
   "alignment" : 4,
   "is_const" : true,
   "linker_set_key" : "_ZTIKN4aidl7android8hardware3drm14DrmMetricGroupE",
   "name" : "const aidl::android::hardware::drm::DrmMetricGroup",
   "referenced_type" : "_ZTIN4aidl7android8hardware3drm14DrmMetricGroupE",
   "self_type" : "_ZTIKN4aidl7android8hardware3drm14DrmMetricGroupE",
   "size" : 12,
   "source_file" : "out/soong/.intermediates/hardware/interfaces/drm/aidl/android.hardware.drm-V1-ndk-source/gen/include/aidl/android/hardware/drm/DrmMetricGroup.h"
  },
  {
   "alignment" : 4,
   "is_const" : true,
   "linker_set_key" : "_ZTIKN4aidl7android8hardware3drm14DrmMetricValue3TagE",
   "name" : "const aidl::android::hardware::drm::DrmMetricValue::Tag",
   "referenced_type" : "_ZTIN4aidl7android8hardware3drm14DrmMetricValue3TagE",
   "self_type" : "_ZTIKN4aidl7android8hardware3drm14DrmMetricValue3TagE",
   "size" : 4,
   "source_file" : "out/soong/.intermediates/hardware/interfaces/drm/aidl/android.hardware.drm-V1-ndk-source/gen/include/aidl/android/hardware/drm/DrmMetricValue.h"
  },
  {
   "alignment" : 4,
   "is_const" : true,
   "linker_set_key" : "_ZTIKN4aidl7android8hardware3drm14DrmMetricValueE",
   "name" : "const aidl::android::hardware::drm::DrmMetricValue",
   "referenced_type" : "_ZTIN4aidl7android8hardware3drm14DrmMetricValueE",
   "self_type" : "_ZTIKN4aidl7android8hardware3drm14DrmMetricValueE",
   "size" : 16,
   "source_file" : "frameworks/native/libs/binder/ndk/include_cpp/android/binder_to_string.h"
  },
  {
   "alignment" : 4,
   "is_const" : true,
   "linker_set_key" : "_ZTIKN4aidl7android8hardware3drm14KeyRequestTypeE",
   "name" : "const aidl::android::hardware::drm::KeyRequestType",
   "referenced_type" : "_ZTIN4aidl7android8hardware3drm14KeyRequestTypeE",
   "self_type" : "_ZTIKN4aidl7android8hardware3drm14KeyRequestTypeE",
   "size" : 4,
   "source_file" : "frameworks/native/libs/binder/ndk/include_cpp/android/binder_to_string.h"
  },
  {
   "alignment" : 4,
   "is_const" : true,
   "linker_set_key" : "_ZTIKN4aidl7android8hardware3drm16NumberOfSessionsE",
   "name" : "const aidl::android::hardware::drm::NumberOfSessions",
   "referenced_type" : "_ZTIN4aidl7android8hardware3drm16NumberOfSessionsE",
   "self_type" : "_ZTIKN4aidl7android8hardware3drm16NumberOfSessionsE",
   "size" : 8,
   "source_file" : "out/soong/.intermediates/hardware/interfaces/drm/aidl/android.hardware.drm-V1-ndk-source/gen/include/aidl/android/hardware/drm/NumberOfSessions.h"
  },
  {
   "alignment" : 4,
   "is_const" : true,
   "linker_set_key" : "_ZTIKN4aidl7android8hardware3drm16ProvisionRequestE",
   "name" : "const aidl::android::hardware::drm::ProvisionRequest",
   "referenced_type" : "_ZTIN4aidl7android8hardware3drm16ProvisionRequestE",
   "self_type" : "_ZTIKN4aidl7android8hardware3drm16ProvisionRequestE",
   "size" : 24,
   "source_file" : "out/soong/.intermediates/hardware/interfaces/drm/aidl/android.hardware.drm-V1-ndk-source/gen/include/aidl/android/hardware/drm/ProvisionRequest.h"
  },
  {
   "alignment" : 4,
   "is_const" : true,
   "linker_set_key" : "_ZTIKN4aidl7android8hardware3drm17DestinationBuffer3TagE",
   "name" : "const aidl::android::hardware::drm::DestinationBuffer::Tag",
   "referenced_type" : "_ZTIN4aidl7android8hardware3drm17DestinationBuffer3TagE",
   "self_type" : "_ZTIKN4aidl7android8hardware3drm17DestinationBuffer3TagE",
   "size" : 4,
   "source_file" : "out/soong/.intermediates/hardware/interfaces/drm/aidl/android.hardware.drm-V1-ndk-source/gen/include/aidl/android/hardware/drm/DestinationBuffer.h"
  },
  {
   "alignment" : 4,
   "is_const" : true,
   "linker_set_key" : "_ZTIKN4aidl7android8hardware3drm17DestinationBufferE",
   "name" : "const aidl::android::hardware::drm::DestinationBuffer",
   "referenced_type" : "_ZTIN4aidl7android8hardware3drm17DestinationBufferE",
   "self_type" : "_ZTIKN4aidl7android8hardware3drm17DestinationBufferE",
   "size" : 48,
   "source_file" : "frameworks/native/libs/binder/ndk/include_cpp/android/binder_to_string.h"
  },
  {
   "alignment" : 4,
   "is_const" : true,
   "linker_set_key" : "_ZTIKN4aidl7android8hardware3drm19DrmMetricNamedValueE",
   "name" : "const aidl::android::hardware::drm::DrmMetricNamedValue",
   "referenced_type" : "_ZTIN4aidl7android8hardware3drm19DrmMetricNamedValueE",
   "self_type" : "_ZTIKN4aidl7android8hardware3drm19DrmMetricNamedValueE",
   "size" : 28,
   "source_file" : "frameworks/native/libs/binder/ndk/include_cpp/android/binder_to_string.h"
  },
  {
   "alignment" : 4,
   "is_const" : true,
   "linker_set_key" : "_ZTIKN4aidl7android8hardware3drm20SupportedContentTypeE",
   "name" : "const aidl::android::hardware::drm::SupportedContentType",
   "referenced_type" : "_ZTIN4aidl7android8hardware3drm20SupportedContentTypeE",
   "self_type" : "_ZTIKN4aidl7android8hardware3drm20SupportedContentTypeE",
   "size" : 20,
   "source_file" : "frameworks/native/libs/binder/ndk/include_cpp/android/binder_to_string.h"
  },
  {
   "alignment" : 4,
   "is_const" : true,
   "linker_set_key" : "_ZTIKN4aidl7android8hardware3drm30ProvideProvisionResponseResultE",
   "name" : "const aidl::android::hardware::drm::ProvideProvisionResponseResult",
   "referenced_type" : "_ZTIN4aidl7android8hardware3drm30ProvideProvisionResponseResultE",
   "self_type" : "_ZTIKN4aidl7android8hardware3drm30ProvideProvisionResponseResultE",
   "size" : 24,
   "source_file" : "out/soong/.intermediates/hardware/interfaces/drm/aidl/android.hardware.drm-V1-ndk-source/gen/include/aidl/android/hardware/drm/ProvideProvisionResponseResult.h"
  },
  {
   "alignment" : 4,
   "is_const" : true,
   "linker_set_key" : "_ZTIKN4aidl7android8hardware3drm4ModeE",
   "name" : "const aidl::android::hardware::drm::Mode",
   "referenced_type" : "_ZTIN4aidl7android8hardware3drm4ModeE",
   "self_type" : "_ZTIKN4aidl7android8hardware3drm4ModeE",
   "size" : 4,
   "source_file" : "frameworks/native/libs/binder/ndk/include_cpp/android/binder_to_string.h"
  },
  {
   "alignment" : 1,
   "is_const" : true,
   "linker_set_key" : "_ZTIKN4aidl7android8hardware3drm4UuidE",
   "name" : "const aidl::android::hardware::drm::Uuid",
   "referenced_type" : "_ZTIN4aidl7android8hardware3drm4UuidE",
   "self_type" : "_ZTIKN4aidl7android8hardware3drm4UuidE",
   "size" : 16,
   "source_file" : "frameworks/native/libs/binder/ndk/include_cpp/android/binder_to_string.h"
  },
  {
   "alignment" : 4,
   "is_const" : true,
   "linker_set_key" : "_ZTIKN4aidl7android8hardware3drm7PatternE",
   "name" : "const aidl::android::hardware::drm::Pattern",
   "referenced_type" : "_ZTIN4aidl7android8hardware3drm7PatternE",
   "self_type" : "_ZTIKN4aidl7android8hardware3drm7PatternE",
   "size" : 8,
   "source_file" : "frameworks/native/libs/binder/ndk/include_cpp/android/binder_to_string.h"
  },
  {
   "alignment" : 4,
   "is_const" : true,
   "linker_set_key" : "_ZTIKN4aidl7android8hardware3drm8KeySetIdE",
   "name" : "const aidl::android::hardware::drm::KeySetId",
   "referenced_type" : "_ZTIN4aidl7android8hardware3drm8KeySetIdE",
   "self_type" : "_ZTIKN4aidl7android8hardware3drm8KeySetIdE",
   "size" : 12,
   "source_file" : "out/soong/.intermediates/hardware/interfaces/drm/aidl/android.hardware.drm-V1-ndk-source/gen/include/aidl/android/hardware/drm/KeySetId.h"
  },
  {
   "alignment" : 4,
   "is_const" : true,
   "linker_set_key" : "_ZTIKN4aidl7android8hardware3drm8KeyValueE",
   "name" : "const aidl::android::hardware::drm::KeyValue",
   "referenced_type" : "_ZTIN4aidl7android8hardware3drm8KeyValueE",
   "self_type" : "_ZTIKN4aidl7android8hardware3drm8KeyValueE",
   "size" : 24,
   "source_file" : "out/soong/.intermediates/hardware/interfaces/drm/aidl/android.hardware.drm-V1-ndk-source/gen/include/aidl/android/hardware/drm/KeyValue.h"
  },
  {
   "alignment" : 4,
   "is_const" : true,
   "linker_set_key" : "_ZTIKN4aidl7android8hardware3drm9DrmMetricE",
   "name" : "const aidl::android::hardware::drm::DrmMetric",
   "referenced_type" : "_ZTIN4aidl7android8hardware3drm9DrmMetricE",
   "self_type" : "_ZTIKN4aidl7android8hardware3drm9DrmMetricE",
   "size" : 36,
   "source_file" : "out/soong/.intermediates/hardware/interfaces/drm/aidl/android.hardware.drm-V1-ndk-source/gen/include/aidl/android/hardware/drm/DrmMetric.h"
  },
  {
   "alignment" : 4,
   "is_const" : true,
   "linker_set_key" : "_ZTIKN4aidl7android8hardware3drm9HdcpLevelE",
   "name" : "const aidl::android::hardware::drm::HdcpLevel",
   "referenced_type" : "_ZTIN4aidl7android8hardware3drm9HdcpLevelE",
   "self_type" : "_ZTIKN4aidl7android8hardware3drm9HdcpLevelE",
   "size" : 4,
   "source_file" : "frameworks/native/libs/binder/ndk/include_cpp/android/binder_to_string.h"
  },
  {
   "alignment" : 4,
   "is_const" : true,
   "linker_set_key" : "_ZTIKN4aidl7android8hardware3drm9KeyStatusE",
   "name" : "const aidl::android::hardware::drm::KeyStatus",
   "referenced_type" : "_ZTIN4aidl7android8hardware3drm9KeyStatusE",
   "self_type" : "_ZTIKN4aidl7android8hardware3drm9KeyStatusE",
   "size" : 16,
   "source_file" : "out/soong/.intermediates/hardware/interfaces/drm/aidl/android.hardware.drm-V1-ndk-source/gen/include/aidl/android/hardware/drm/KeyStatus.h"
  },
  {
   "alignment" : 4,
   "is_const" : true,
   "linker_set_key" : "_ZTIKN4aidl7android8hardware3drm9SubSampleE",
   "name" : "const aidl::android::hardware::drm::SubSample",
   "referenced_type" : "_ZTIN4aidl7android8hardware3drm9SubSampleE",
   "self_type" : "_ZTIKN4aidl7android8hardware3drm9SubSampleE",
   "size" : 8,
   "source_file" : "frameworks/native/libs/binder/ndk/include_cpp/android/binder_to_string.h"
  },
  {
   "alignment" : 4,
   "is_const" : true,
   "linker_set_key" : "_ZTIKN4aidl7android8hardware6common12NativeHandleE",
   "name" : "const aidl::android::hardware::common::NativeHandle",
   "referenced_type" : "_ZTIN4aidl7android8hardware6common12NativeHandleE",
   "self_type" : "_ZTIKN4aidl7android8hardware6common12NativeHandleE",
   "size" : 24,
   "source_file" : "frameworks/native/libs/binder/ndk/include_cpp/android/binder_to_string.h"
  },
  {
   "alignment" : 4,
   "is_const" : true,
   "linker_set_key" : "_ZTIKNSt3__110shared_ptrIN4aidl7android8hardware3drm10IDrmPluginEEE",
   "name" : "const std::shared_ptr<aidl::android::hardware::drm::IDrmPlugin>",
   "referenced_type" : "_ZTINSt3__110shared_ptrIN4aidl7android8hardware3drm10IDrmPluginEEE",
   "self_type" : "_ZTIKNSt3__110shared_ptrIN4aidl7android8hardware3drm10IDrmPluginEEE",
   "size" : 8,
   "source_file" : "out/soong/.intermediates/hardware/interfaces/drm/aidl/android.hardware.drm-V1-ndk-source/gen/include/aidl/android/hardware/drm/BnDrmPlugin.h"
  },
  {
   "alignment" : 4,
   "is_const" : true,
   "linker_set_key" : "_ZTIKNSt3__110shared_ptrIN4aidl7android8hardware3drm11IDrmFactoryEEE",
   "name" : "const std::shared_ptr<aidl::android::hardware::drm::IDrmFactory>",
   "referenced_type" : "_ZTINSt3__110shared_ptrIN4aidl7android8hardware3drm11IDrmFactoryEEE",
   "self_type" : "_ZTIKNSt3__110shared_ptrIN4aidl7android8hardware3drm11IDrmFactoryEEE",
   "size" : 8,
   "source_file" : "out/soong/.intermediates/hardware/interfaces/drm/aidl/android.hardware.drm-V1-ndk-source/gen/include/aidl/android/hardware/drm/IDrmFactory.h"
  },
  {
   "alignment" : 4,
   "is_const" : true,
   "linker_set_key" : "_ZTIKNSt3__110shared_ptrIN4aidl7android8hardware3drm13ICryptoPluginEEE",
   "name" : "const std::shared_ptr<aidl::android::hardware::drm::ICryptoPlugin>",
   "referenced_type" : "_ZTINSt3__110shared_ptrIN4aidl7android8hardware3drm13ICryptoPluginEEE",
   "self_type" : "_ZTIKNSt3__110shared_ptrIN4aidl7android8hardware3drm13ICryptoPluginEEE",
   "size" : 8,
   "source_file" : "out/soong/.intermediates/hardware/interfaces/drm/aidl/android.hardware.drm-V1-ndk-source/gen/include/aidl/android/hardware/drm/ICryptoPlugin.h"
  },
  {
   "alignment" : 4,
   "is_const" : true,
   "linker_set_key" : "_ZTIKNSt3__110shared_ptrIN4aidl7android8hardware3drm18IDrmPluginListenerEEE",
   "name" : "const std::shared_ptr<aidl::android::hardware::drm::IDrmPluginListener>",
   "referenced_type" : "_ZTINSt3__110shared_ptrIN4aidl7android8hardware3drm18IDrmPluginListenerEEE",
   "self_type" : "_ZTIKNSt3__110shared_ptrIN4aidl7android8hardware3drm18IDrmPluginListenerEEE",
   "size" : 8,
   "source_file" : "out/soong/.intermediates/hardware/interfaces/drm/aidl/android.hardware.drm-V1-ndk-source/gen/include/aidl/android/hardware/drm/BnDrmPlugin.h"
  },
  {
   "alignment" : 4,
   "is_const" : true,
   "linker_set_key" : "_ZTIKNSt3__112basic_stringIcNS_11char_traitsIcEENS_9allocatorIcEEEE",
   "name" : "const std::basic_string<char, std::char_traits<char>, std::allocator<char>>",
   "referenced_type" : "_ZTINSt3__112basic_stringIcNS_11char_traitsIcEENS_9allocatorIcEEEE",
   "self_type" : "_ZTIKNSt3__112basic_stringIcNS_11char_traitsIcEENS_9allocatorIcEEEE",
   "size" : 12,
   "source_file" : "frameworks/native/libs/binder/ndk/include_cpp/android/binder_to_string.h"
  },
  {
   "alignment" : 4,
   "is_const" : true,
   "linker_set_key" : "_ZTIKNSt3__15arrayIN4aidl7android8hardware3drm11LogPriorityELj8EEE",
   "name" : "const std::array<aidl::android::hardware::drm::LogPriority, 8U>",
   "referenced_type" : "_ZTINSt3__15arrayIN4aidl7android8hardware3drm11LogPriorityELj8EEE",
   "self_type" : "_ZTIKNSt3__15arrayIN4aidl7android8hardware3drm11LogPriorityELj8EEE",
   "size" : 32,
   "source_file" : "out/soong/.intermediates/hardware/interfaces/drm/aidl/android.hardware.drm-V1-ndk-source/gen/include/aidl/android/hardware/drm/LogPriority.h"
  },
  {
   "alignment" : 4,
   "is_const" : true,
   "linker_set_key" : "_ZTIKNSt3__15arrayIN4aidl7android8hardware3drm13KeyStatusTypeELj6EEE",
   "name" : "const std::array<aidl::android::hardware::drm::KeyStatusType, 6U>",
   "referenced_type" : "_ZTINSt3__15arrayIN4aidl7android8hardware3drm13KeyStatusTypeELj6EEE",
   "self_type" : "_ZTIKNSt3__15arrayIN4aidl7android8hardware3drm13KeyStatusTypeELj6EEE",
   "size" : 24,
   "source_file" : "out/soong/.intermediates/hardware/interfaces/drm/aidl/android.hardware.drm-V1-ndk-source/gen/include/aidl/android/hardware/drm/KeyStatusType.h"
  },
  {
   "alignment" : 4,
   "is_const" : true,
   "linker_set_key" : "_ZTIKNSt3__15arrayIN4aidl7android8hardware3drm13SecurityLevelELj7EEE",
   "name" : "const std::array<aidl::android::hardware::drm::SecurityLevel, 7U>",
   "referenced_type" : "_ZTINSt3__15arrayIN4aidl7android8hardware3drm13SecurityLevelELj7EEE",
   "self_type" : "_ZTIKNSt3__15arrayIN4aidl7android8hardware3drm13SecurityLevelELj7EEE",
   "size" : 28,
   "source_file" : "out/soong/.intermediates/hardware/interfaces/drm/aidl/android.hardware.drm-V1-ndk-source/gen/include/aidl/android/hardware/drm/SecurityLevel.h"
  },
  {
   "alignment" : 4,
   "is_const" : true,
   "linker_set_key" : "_ZTIKNSt3__15arrayIN4aidl7android8hardware3drm14DrmMetricValue3TagELj3EEE",
   "name" : "const std::array<aidl::android::hardware::drm::DrmMetricValue::Tag, 3U>",
   "referenced_type" : "_ZTINSt3__15arrayIN4aidl7android8hardware3drm14DrmMetricValue3TagELj3EEE",
   "self_type" : "_ZTIKNSt3__15arrayIN4aidl7android8hardware3drm14DrmMetricValue3TagELj3EEE",
   "size" : 12,
   "source_file" : "out/soong/.intermediates/hardware/interfaces/drm/aidl/android.hardware.drm-V1-ndk-source/gen/include/aidl/android/hardware/drm/DrmMetricValue.h"
  },
  {
   "alignment" : 4,
   "is_const" : true,
   "linker_set_key" : "_ZTIKNSt3__15arrayIN4aidl7android8hardware3drm14KeyRequestTypeELj6EEE",
   "name" : "const std::array<aidl::android::hardware::drm::KeyRequestType, 6U>",
   "referenced_type" : "_ZTINSt3__15arrayIN4aidl7android8hardware3drm14KeyRequestTypeELj6EEE",
   "self_type" : "_ZTIKNSt3__15arrayIN4aidl7android8hardware3drm14KeyRequestTypeELj6EEE",
   "size" : 24,
   "source_file" : "out/soong/.intermediates/hardware/interfaces/drm/aidl/android.hardware.drm-V1-ndk-source/gen/include/aidl/android/hardware/drm/KeyRequestType.h"
  },
  {
   "alignment" : 4,
   "is_const" : true,
   "linker_set_key" : "_ZTIKNSt3__15arrayIN4aidl7android8hardware3drm17DestinationBuffer3TagELj2EEE",
   "name" : "const std::array<aidl::android::hardware::drm::DestinationBuffer::Tag, 2U>",
   "referenced_type" : "_ZTINSt3__15arrayIN4aidl7android8hardware3drm17DestinationBuffer3TagELj2EEE",
   "self_type" : "_ZTIKNSt3__15arrayIN4aidl7android8hardware3drm17DestinationBuffer3TagELj2EEE",
   "size" : 8,
   "source_file" : "out/soong/.intermediates/hardware/interfaces/drm/aidl/android.hardware.drm-V1-ndk-source/gen/include/aidl/android/hardware/drm/DestinationBuffer.h"
  },
  {
   "alignment" : 4,
   "is_const" : true,
   "linker_set_key" : "_ZTIKNSt3__15arrayIN4aidl7android8hardware3drm19OfflineLicenseStateELj3EEE",
   "name" : "const std::array<aidl::android::hardware::drm::OfflineLicenseState, 3U>",
   "referenced_type" : "_ZTINSt3__15arrayIN4aidl7android8hardware3drm19OfflineLicenseStateELj3EEE",
   "self_type" : "_ZTIKNSt3__15arrayIN4aidl7android8hardware3drm19OfflineLicenseStateELj3EEE",
   "size" : 12,
   "source_file" : "out/soong/.intermediates/hardware/interfaces/drm/aidl/android.hardware.drm-V1-ndk-source/gen/include/aidl/android/hardware/drm/OfflineLicenseState.h"
  },
  {
   "alignment" : 4,
   "is_const" : true,
   "linker_set_key" : "_ZTIKNSt3__15arrayIN4aidl7android8hardware3drm4ModeELj4EEE",
   "name" : "const std::array<aidl::android::hardware::drm::Mode, 4U>",
   "referenced_type" : "_ZTINSt3__15arrayIN4aidl7android8hardware3drm4ModeELj4EEE",
   "self_type" : "_ZTIKNSt3__15arrayIN4aidl7android8hardware3drm4ModeELj4EEE",
   "size" : 16,
   "source_file" : "out/soong/.intermediates/hardware/interfaces/drm/aidl/android.hardware.drm-V1-ndk-source/gen/include/aidl/android/hardware/drm/Mode.h"
  },
  {
   "alignment" : 4,
   "is_const" : true,
   "linker_set_key" : "_ZTIKNSt3__15arrayIN4aidl7android8hardware3drm7KeyTypeELj3EEE",
   "name" : "const std::array<aidl::android::hardware::drm::KeyType, 3U>",
   "referenced_type" : "_ZTINSt3__15arrayIN4aidl7android8hardware3drm7KeyTypeELj3EEE",
   "self_type" : "_ZTIKNSt3__15arrayIN4aidl7android8hardware3drm7KeyTypeELj3EEE",
   "size" : 12,
   "source_file" : "out/soong/.intermediates/hardware/interfaces/drm/aidl/android.hardware.drm-V1-ndk-source/gen/include/aidl/android/hardware/drm/KeyType.h"
  },
  {
   "alignment" : 4,
   "is_const" : true,
   "linker_set_key" : "_ZTIKNSt3__15arrayIN4aidl7android8hardware3drm9EventTypeELj5EEE",
   "name" : "const std::array<aidl::android::hardware::drm::EventType, 5U>",
   "referenced_type" : "_ZTINSt3__15arrayIN4aidl7android8hardware3drm9EventTypeELj5EEE",
   "self_type" : "_ZTIKNSt3__15arrayIN4aidl7android8hardware3drm9EventTypeELj5EEE",
   "size" : 20,
   "source_file" : "out/soong/.intermediates/hardware/interfaces/drm/aidl/android.hardware.drm-V1-ndk-source/gen/include/aidl/android/hardware/drm/EventType.h"
  },
  {
   "alignment" : 4,
   "is_const" : true,
   "linker_set_key" : "_ZTIKNSt3__15arrayIN4aidl7android8hardware3drm9HdcpLevelELj8EEE",
   "name" : "const std::array<aidl::android::hardware::drm::HdcpLevel, 8U>",
   "referenced_type" : "_ZTINSt3__15arrayIN4aidl7android8hardware3drm9HdcpLevelELj8EEE",
   "self_type" : "_ZTIKNSt3__15arrayIN4aidl7android8hardware3drm9HdcpLevelELj8EEE",
   "size" : 32,
   "source_file" : "out/soong/.intermediates/hardware/interfaces/drm/aidl/android.hardware.drm-V1-ndk-source/gen/include/aidl/android/hardware/drm/HdcpLevel.h"
  },
  {
   "alignment" : 1,
   "is_const" : true,
   "linker_set_key" : "_ZTIKNSt3__15arrayIhLj16EEE",
   "name" : "const std::array<unsigned char, 16>",
   "referenced_type" : "_ZTINSt3__15arrayIhLj16EEE",
   "self_type" : "_ZTIKNSt3__15arrayIhLj16EEE",
   "size" : 16,
   "source_file" : "frameworks/native/libs/binder/ndk/include_cpp/android/binder_to_string.h"
  },
  {
   "alignment" : 4,
   "is_const" : true,
   "linker_set_key" : "_ZTIKNSt3__16vectorIDsNS_9allocatorIDsEEEE",
   "name" : "const std::vector<char16_t, std::allocator<char16_t>>",
   "referenced_type" : "_ZTINSt3__16vectorIDsNS_9allocatorIDsEEEE",
   "self_type" : "_ZTIKNSt3__16vectorIDsNS_9allocatorIDsEEEE",
   "size" : 12,
   "source_file" : "frameworks/native/libs/binder/ndk/include_cpp/android/binder_parcel_utils.h"
  },
  {
   "alignment" : 4,
   "is_const" : true,
   "linker_set_key" : "_ZTIKNSt3__16vectorIN3ndk20ScopedFileDescriptorENS_9allocatorIS2_EEEE",
   "name" : "const std::vector<ndk::ScopedFileDescriptor, std::allocator<ndk::ScopedFileDescriptor>>",
   "referenced_type" : "_ZTINSt3__16vectorIN3ndk20ScopedFileDescriptorENS_9allocatorIS2_EEEE",
   "self_type" : "_ZTIKNSt3__16vectorIN3ndk20ScopedFileDescriptorENS_9allocatorIS2_EEEE",
   "size" : 12,
   "source_file" : "frameworks/native/libs/binder/ndk/include_cpp/android/binder_to_string.h"
  },
  {
   "alignment" : 4,
   "is_const" : true,
   "linker_set_key" : "_ZTIKNSt3__16vectorIN4aidl7android8hardware3drm19DrmMetricNamedValueENS_9allocatorIS5_EEEE",
   "name" : "const std::vector<aidl::android::hardware::drm::DrmMetricNamedValue, std::allocator<aidl::android::hardware::drm::DrmMetricNamedValue>>",
   "referenced_type" : "_ZTINSt3__16vectorIN4aidl7android8hardware3drm19DrmMetricNamedValueENS_9allocatorIS5_EEEE",
   "self_type" : "_ZTIKNSt3__16vectorIN4aidl7android8hardware3drm19DrmMetricNamedValueENS_9allocatorIS5_EEEE",
   "size" : 12,
   "source_file" : "frameworks/native/libs/binder/ndk/include_cpp/android/binder_to_string.h"
  },
  {
   "alignment" : 4,
   "is_const" : true,
   "linker_set_key" : "_ZTIKNSt3__16vectorIN4aidl7android8hardware3drm20SupportedContentTypeENS_9allocatorIS5_EEEE",
   "name" : "const std::vector<aidl::android::hardware::drm::SupportedContentType, std::allocator<aidl::android::hardware::drm::SupportedContentType>>",
   "referenced_type" : "_ZTINSt3__16vectorIN4aidl7android8hardware3drm20SupportedContentTypeENS_9allocatorIS5_EEEE",
   "self_type" : "_ZTIKNSt3__16vectorIN4aidl7android8hardware3drm20SupportedContentTypeENS_9allocatorIS5_EEEE",
   "size" : 12,
   "source_file" : "frameworks/native/libs/binder/ndk/include_cpp/android/binder_to_string.h"
  },
  {
   "alignment" : 4,
   "is_const" : true,
   "linker_set_key" : "_ZTIKNSt3__16vectorIN4aidl7android8hardware3drm4UuidENS_9allocatorIS5_EEEE",
   "name" : "const std::vector<aidl::android::hardware::drm::Uuid, std::allocator<aidl::android::hardware::drm::Uuid>>",
   "referenced_type" : "_ZTINSt3__16vectorIN4aidl7android8hardware3drm4UuidENS_9allocatorIS5_EEEE",
   "self_type" : "_ZTIKNSt3__16vectorIN4aidl7android8hardware3drm4UuidENS_9allocatorIS5_EEEE",
   "size" : 12,
   "source_file" : "frameworks/native/libs/binder/ndk/include_cpp/android/binder_to_string.h"
  },
  {
   "is_const" : true,
   "linker_set_key" : "_ZTIKNSt3__16vectorIN4aidl7android8hardware3drm8KeyValueENS_9allocatorIS5_EEEE",
   "name" : "const std::vector<aidl::android::hardware::drm::KeyValue, std::allocator<aidl::android::hardware::drm::KeyValue>>",
   "referenced_type" : "_ZTINSt3__16vectorIN4aidl7android8hardware3drm8KeyValueENS_9allocatorIS5_EEEE",
   "self_type" : "_ZTIKNSt3__16vectorIN4aidl7android8hardware3drm8KeyValueENS_9allocatorIS5_EEEE",
