{
 "array_types" : [],
 "builtin_types" :
 [
  {
   "alignment" : 4,
   "linker_set_key" : "_ZTIDn",
   "name" : "std::nullptr_t",
   "referenced_type" : "_ZTIDn",
   "self_type" : "_ZTIDn",
   "size" : 4
  },
  {
   "alignment" : 1,
   "is_integral" : true,
   "linker_set_key" : "_ZTIa",
   "name" : "signed char",
   "referenced_type" : "_ZTIa",
   "self_type" : "_ZTIa",
   "size" : 1
  },
  {
   "alignment" : 1,
   "is_integral" : true,
   "is_unsigned" : true,
   "linker_set_key" : "_ZTIb",
   "name" : "bool",
   "referenced_type" : "_ZTIb",
   "self_type" : "_ZTIb",
   "size" : 1
  },
  {
   "alignment" : 1,
   "is_integral" : true,
   "linker_set_key" : "_ZTIc",
   "name" : "char",
   "referenced_type" : "_ZTIc",
   "self_type" : "_ZTIc",
   "size" : 1
  },
  {
   "alignment" : 1,
   "is_integral" : true,
   "is_unsigned" : true,
   "linker_set_key" : "_ZTIh",
   "name" : "unsigned char",
   "referenced_type" : "_ZTIh",
   "self_type" : "_ZTIh",
   "size" : 1
  },
  {
   "alignment" : 4,
   "is_integral" : true,
   "linker_set_key" : "_ZTIi",
   "name" : "int",
   "referenced_type" : "_ZTIi",
   "self_type" : "_ZTIi",
   "size" : 4
  },
  {
   "alignment" : 4,
   "is_integral" : true,
   "is_unsigned" : true,
   "linker_set_key" : "_ZTIj",
   "name" : "unsigned int",
   "referenced_type" : "_ZTIj",
   "self_type" : "_ZTIj",
   "size" : 4
  },
  {
   "linker_set_key" : "_ZTIv",
   "name" : "void",
   "referenced_type" : "_ZTIv",
   "self_type" : "_ZTIv"
  },
  {
   "alignment" : 4,
   "is_integral" : true,
   "linker_set_key" : "_ZTIx",
   "name" : "long long",
   "referenced_type" : "_ZTIx",
   "self_type" : "_ZTIx",
   "size" : 8
  }
 ],
 "elf_functions" :
 [
  {
   "binding" : "weak",
   "name" : "_ZN3ndk12BnCInterfaceIN4aidl7android8hardware6camera6device13ICameraDeviceEE8asBinderEv"
  },
  {
   "binding" : "weak",
   "name" : "_ZN3ndk12BnCInterfaceIN4aidl7android8hardware6camera6device20ICameraDeviceSessionEE8asBinderEv"
  },
  {
   "binding" : "weak",
   "name" : "_ZN3ndk12BnCInterfaceIN4aidl7android8hardware6camera6device21ICameraDeviceCallbackEE8asBinderEv"
  },
  {
   "binding" : "weak",
   "name" : "_ZN3ndk12BnCInterfaceIN4aidl7android8hardware6camera6device21ICameraOfflineSessionEE8asBinderEv"
  },
  {
   "binding" : "weak",
   "name" : "_ZN3ndk12BnCInterfaceIN4aidl7android8hardware6camera6device23ICameraInjectionSessionEE8asBinderEv"
  },
  {
   "binding" : "weak",
   "name" : "_ZN3ndk12BpCInterfaceIN4aidl7android8hardware6camera6device13ICameraDeviceEE8asBinderEv"
  },
  {
   "binding" : "weak",
   "name" : "_ZN3ndk12BpCInterfaceIN4aidl7android8hardware6camera6device20ICameraDeviceSessionEE8asBinderEv"
  },
  {
   "binding" : "weak",
   "name" : "_ZN3ndk12BpCInterfaceIN4aidl7android8hardware6camera6device21ICameraDeviceCallbackEE8asBinderEv"
  },
  {
   "binding" : "weak",
   "name" : "_ZN3ndk12BpCInterfaceIN4aidl7android8hardware6camera6device21ICameraOfflineSessionEE8asBinderEv"
  },
  {
   "binding" : "weak",
   "name" : "_ZN3ndk12BpCInterfaceIN4aidl7android8hardware6camera6device23ICameraInjectionSessionEE8asBinderEv"
  },
  {
   "binding" : "weak",
   "name" : "_ZN3ndk38AParcel_readStdVectorParcelableElementIN4aidl7android8hardware6camera6device11BufferCacheEEEiPK7AParcelPvj"
  },
  {
   "binding" : "weak",
   "name" : "_ZN3ndk38AParcel_readStdVectorParcelableElementIN4aidl7android8hardware6camera6device12StreamBufferEEEiPK7AParcelPvj"
  },
  {
   "binding" : "weak",
   "name" : "_ZN3ndk38AParcel_readStdVectorParcelableElementIN4aidl7android8hardware6camera6device13BufferRequestEEEiPK7AParcelPvj"
  },
  {
   "binding" : "weak",
   "name" : "_ZN3ndk38AParcel_readStdVectorParcelableElementIN4aidl7android8hardware6camera6device13CaptureResultEEEiPK7AParcelPvj"
  },
  {
   "binding" : "weak",
   "name" : "_ZN3ndk38AParcel_readStdVectorParcelableElementIN4aidl7android8hardware6camera6device13OfflineStreamEEEiPK7AParcelPvj"
  },
  {
   "binding" : "weak",
   "name" : "_ZN3ndk38AParcel_readStdVectorParcelableElementIN4aidl7android8hardware6camera6device14CaptureRequestEEEiPK7AParcelPvj"
  },
  {
   "binding" : "weak",
   "name" : "_ZN3ndk38AParcel_readStdVectorParcelableElementIN4aidl7android8hardware6camera6device14OfflineRequestEEEiPK7AParcelPvj"
  },
  {
   "binding" : "weak",
   "name" : "_ZN3ndk38AParcel_readStdVectorParcelableElementIN4aidl7android8hardware6camera6device15StreamBufferRetEEEiPK7AParcelPvj"
  },
  {
   "binding" : "weak",
   "name" : "_ZN3ndk38AParcel_readStdVectorParcelableElementIN4aidl7android8hardware6camera6device21PhysicalCameraSettingEEEiPK7AParcelPvj"
  },
  {
   "binding" : "weak",
   "name" : "_ZN3ndk38AParcel_readStdVectorParcelableElementIN4aidl7android8hardware6camera6device22PhysicalCameraMetadataEEEiPK7AParcelPvj"
  },
  {
   "binding" : "weak",
   "name" : "_ZN3ndk38AParcel_readStdVectorParcelableElementIN4aidl7android8hardware6camera6device6StreamEEEiPK7AParcelPvj"
  },
  {
   "binding" : "weak",
   "name" : "_ZN3ndk38AParcel_readStdVectorParcelableElementIN4aidl7android8hardware6camera6device9HalStreamEEEiPK7AParcelPvj"
  },
  {
   "binding" : "weak",
   "name" : "_ZN3ndk38AParcel_readStdVectorParcelableElementIN4aidl7android8hardware6camera6device9NotifyMsgEEEiPK7AParcelPvj"
  },
  {
   "binding" : "weak",
   "name" : "_ZN3ndk38AParcel_readStdVectorParcelableElementIN4aidl7android8hardware6common3fmq17GrantorDescriptorEEEiPK7AParcelPvj"
  },
  {
   "binding" : "weak",
   "name" : "_ZN3ndk39AParcel_writeStdVectorParcelableElementIN4aidl7android8hardware6camera6device11BufferCacheEEEiP7AParcelPKvj"
  },
  {
   "binding" : "weak",
   "name" : "_ZN3ndk39AParcel_writeStdVectorParcelableElementIN4aidl7android8hardware6camera6device12StreamBufferEEEiP7AParcelPKvj"
  },
  {
   "binding" : "weak",
   "name" : "_ZN3ndk39AParcel_writeStdVectorParcelableElementIN4aidl7android8hardware6camera6device13BufferRequestEEEiP7AParcelPKvj"
  },
  {
   "binding" : "weak",
   "name" : "_ZN3ndk39AParcel_writeStdVectorParcelableElementIN4aidl7android8hardware6camera6device13CaptureResultEEEiP7AParcelPKvj"
  },
  {
   "binding" : "weak",
   "name" : "_ZN3ndk39AParcel_writeStdVectorParcelableElementIN4aidl7android8hardware6camera6device13OfflineStreamEEEiP7AParcelPKvj"
  },
  {
   "binding" : "weak",
   "name" : "_ZN3ndk39AParcel_writeStdVectorParcelableElementIN4aidl7android8hardware6camera6device14CaptureRequestEEEiP7AParcelPKvj"
  },
  {
   "binding" : "weak",
   "name" : "_ZN3ndk39AParcel_writeStdVectorParcelableElementIN4aidl7android8hardware6camera6device14OfflineRequestEEEiP7AParcelPKvj"
  },
  {
   "binding" : "weak",
   "name" : "_ZN3ndk39AParcel_writeStdVectorParcelableElementIN4aidl7android8hardware6camera6device15StreamBufferRetEEEiP7AParcelPKvj"
  },
  {
   "binding" : "weak",
   "name" : "_ZN3ndk39AParcel_writeStdVectorParcelableElementIN4aidl7android8hardware6camera6device21PhysicalCameraSettingEEEiP7AParcelPKvj"
  },
  {
   "binding" : "weak",
   "name" : "_ZN3ndk39AParcel_writeStdVectorParcelableElementIN4aidl7android8hardware6camera6device22PhysicalCameraMetadataEEEiP7AParcelPKvj"
  },
  {
   "binding" : "weak",
   "name" : "_ZN3ndk39AParcel_writeStdVectorParcelableElementIN4aidl7android8hardware6camera6device6StreamEEEiP7AParcelPKvj"
  },
  {
   "binding" : "weak",
   "name" : "_ZN3ndk39AParcel_writeStdVectorParcelableElementIN4aidl7android8hardware6camera6device9HalStreamEEEiP7AParcelPKvj"
  },
  {
   "binding" : "weak",
   "name" : "_ZN3ndk39AParcel_writeStdVectorParcelableElementIN4aidl7android8hardware6camera6device9NotifyMsgEEEiP7AParcelPKvj"
  },
  {
   "binding" : "weak",
   "name" : "_ZN3ndk39AParcel_writeStdVectorParcelableElementIN4aidl7android8hardware6common3fmq17GrantorDescriptorEEEiP7AParcelPKvj"
  },
  {
   "name" : "_ZN4aidl7android8hardware6camera6device10CameraBlob14readFromParcelEPK7AParcel"
  },
  {
   "name" : "_ZN4aidl7android8hardware6camera6device10ShutterMsg14readFromParcelEPK7AParcel"
  },
  {
   "name" : "_ZN4aidl7android8hardware6camera6device11BufferCache14readFromParcelEPK7AParcel"
  },
  {
   "name" : "_ZN4aidl7android8hardware6camera6device12StreamBuffer14readFromParcelEPK7AParcel"
  },
  {
   "name" : "_ZN4aidl7android8hardware6camera6device13BufferRequest14readFromParcelEPK7AParcel"
  },
  {
   "name" : "_ZN4aidl7android8hardware6camera6device13CaptureResult14readFromParcelEPK7AParcel"
  },
  {
   "name" : "_ZN4aidl7android8hardware6camera6device13ICameraDevice10fromBinderERKN3ndk10SpAIBinderE"
  },
  {
   "name" : "_ZN4aidl7android8hardware6camera6device13ICameraDevice13writeToParcelEP7AParcelRKNSt3__110shared_ptrIS4_EE"
  },
  {
   "name" : "_ZN4aidl7android8hardware6camera6device13ICameraDevice14getDefaultImplEv"
  },
  {
   "name" : "_ZN4aidl7android8hardware6camera6device13ICameraDevice14readFromParcelEPK7AParcelPNSt3__110shared_ptrIS4_EE"
  },
  {
   "name" : "_ZN4aidl7android8hardware6camera6device13ICameraDevice14setDefaultImplERKNSt3__110shared_ptrIS4_EE"
  },
  {
   "name" : "_ZN4aidl7android8hardware6camera6device13ICameraDeviceC2Ev"
  },
  {
   "name" : "_ZN4aidl7android8hardware6camera6device13ICameraDeviceD0Ev"
  },
  {
   "name" : "_ZN4aidl7android8hardware6camera6device13ICameraDeviceD1Ev"
  },
  {
   "name" : "_ZN4aidl7android8hardware6camera6device13ICameraDeviceD2Ev"
  },
  {
   "name" : "_ZN4aidl7android8hardware6camera6device13OfflineStream14readFromParcelEPK7AParcel"
  },
  {
   "name" : "_ZN4aidl7android8hardware6camera6device14BnCameraDevice12createBinderEv"
  },
  {
   "name" : "_ZN4aidl7android8hardware6camera6device14BnCameraDevice16getInterfaceHashEPNSt3__112basic_stringIcNS5_11char_traitsIcEENS5_9allocatorIcEEEE"
  },
  {
   "name" : "_ZN4aidl7android8hardware6camera6device14BnCameraDevice19getInterfaceVersionEPi"
  },
  {
   "name" : "_ZN4aidl7android8hardware6camera6device14BnCameraDeviceC2Ev"
  },
  {
   "name" : "_ZN4aidl7android8hardware6camera6device14BnCameraDeviceD0Ev"
  },
  {
   "name" : "_ZN4aidl7android8hardware6camera6device14BnCameraDeviceD1Ev"
  },
  {
   "name" : "_ZN4aidl7android8hardware6camera6device14BnCameraDeviceD2Ev"
  },
  {
   "name" : "_ZN4aidl7android8hardware6camera6device14BpCameraDevice12setTorchModeEb"
  },
  {
   "name" : "_ZN4aidl7android8hardware6camera6device14BpCameraDevice15getResourceCostEPNS2_6common18CameraResourceCostE"
  },
  {
   "name" : "_ZN4aidl7android8hardware6camera6device14BpCameraDevice16getInterfaceHashEPNSt3__112basic_stringIcNS5_11char_traitsIcEENS5_9allocatorIcEEEE"
  },
  {
   "name" : "_ZN4aidl7android8hardware6camera6device14BpCameraDevice19getInterfaceVersionEPi"
  },
  {
   "name" : "_ZN4aidl7android8hardware6camera6device14BpCameraDevice20openInjectionSessionERKNSt3__110shared_ptrINS3_21ICameraDeviceCallbackEEEPNS6_INS3_23ICameraInjectionSessionEEE"
  },
  {
   "name" : "_ZN4aidl7android8hardware6camera6device14BpCameraDevice21getTorchStrengthLevelEPi"
  },
  {
   "name" : "_ZN4aidl7android8hardware6camera6device14BpCameraDevice24getCameraCharacteristicsEPNS3_14CameraMetadataE"
  },
  {
   "name" : "_ZN4aidl7android8hardware6camera6device14BpCameraDevice28isStreamCombinationSupportedERKNS3_19StreamConfigurationEPb"
  },
  {
   "name" : "_ZN4aidl7android8hardware6camera6device14BpCameraDevice28turnOnTorchWithStrengthLevelEi"
  },
  {
   "name" : "_ZN4aidl7android8hardware6camera6device14BpCameraDevice32getPhysicalCameraCharacteristicsERKNSt3__112basic_stringIcNS5_11char_traitsIcEENS5_9allocatorIcEEEEPNS3_14CameraMetadataE"
  },
  {
   "name" : "_ZN4aidl7android8hardware6camera6device14BpCameraDevice4openERKNSt3__110shared_ptrINS3_21ICameraDeviceCallbackEEEPNS6_INS3_20ICameraDeviceSessionEEE"
  },
  {
   "name" : "_ZN4aidl7android8hardware6camera6device14BpCameraDeviceC1ERKN3ndk10SpAIBinderE"
  },
  {
   "name" : "_ZN4aidl7android8hardware6camera6device14BpCameraDeviceC2ERKN3ndk10SpAIBinderE"
  },
  {
   "name" : "_ZN4aidl7android8hardware6camera6device14BpCameraDeviceD0Ev"
  },
  {
   "name" : "_ZN4aidl7android8hardware6camera6device14BpCameraDeviceD1Ev"
  },
  {
   "name" : "_ZN4aidl7android8hardware6camera6device14BpCameraDeviceD2Ev"
  },
  {
   "name" : "_ZN4aidl7android8hardware6camera6device14CameraMetadata14readFromParcelEPK7AParcel"
  },
  {
   "name" : "_ZN4aidl7android8hardware6camera6device14CaptureRequest14readFromParcelEPK7AParcel"
  },
  {
   "name" : "_ZN4aidl7android8hardware6camera6device14OfflineRequest14readFromParcelEPK7AParcel"
  },
  {
   "name" : "_ZN4aidl7android8hardware6camera6device15StreamBufferRet14readFromParcelEPK7AParcel"
  },
  {
   "name" : "_ZN4aidl7android8hardware6camera6device16StreamBuffersVal14readFromParcelEPK7AParcel"
  },
  {
   "name" : "_ZN4aidl7android8hardware6camera6device19StreamConfiguration14readFromParcelEPK7AParcel"
  },
  {
   "name" : "_ZN4aidl7android8hardware6camera6device20ICameraDeviceDefault12setTorchModeEb"
  },
  {
   "name" : "_ZN4aidl7android8hardware6camera6device20ICameraDeviceDefault15getResourceCostEPNS2_6common18CameraResourceCostE"
  },
  {
   "name" : "_ZN4aidl7android8hardware6camera6device20ICameraDeviceDefault16getInterfaceHashEPNSt3__112basic_stringIcNS5_11char_traitsIcEENS5_9allocatorIcEEEE"
  },
  {
   "name" : "_ZN4aidl7android8hardware6camera6device20ICameraDeviceDefault19getInterfaceVersionEPi"
  },
  {
   "name" : "_ZN4aidl7android8hardware6camera6device20ICameraDeviceDefault20openInjectionSessionERKNSt3__110shared_ptrINS3_21ICameraDeviceCallbackEEEPNS6_INS3_23ICameraInjectionSessionEEE"
  },
  {
   "name" : "_ZN4aidl7android8hardware6camera6device20ICameraDeviceDefault21getTorchStrengthLevelEPi"
  },
  {
   "name" : "_ZN4aidl7android8hardware6camera6device20ICameraDeviceDefault24getCameraCharacteristicsEPNS3_14CameraMetadataE"
  },
  {
   "name" : "_ZN4aidl7android8hardware6camera6device20ICameraDeviceDefault28isStreamCombinationSupportedERKNS3_19StreamConfigurationEPb"
  },
  {
   "name" : "_ZN4aidl7android8hardware6camera6device20ICameraDeviceDefault28turnOnTorchWithStrengthLevelEi"
  },
  {
   "name" : "_ZN4aidl7android8hardware6camera6device20ICameraDeviceDefault32getPhysicalCameraCharacteristicsERKNSt3__112basic_stringIcNS5_11char_traitsIcEENS5_9allocatorIcEEEEPNS3_14CameraMetadataE"
  },
  {
   "name" : "_ZN4aidl7android8hardware6camera6device20ICameraDeviceDefault4openERKNSt3__110shared_ptrINS3_21ICameraDeviceCallbackEEEPNS6_INS3_20ICameraDeviceSessionEEE"
  },
  {
   "name" : "_ZN4aidl7android8hardware6camera6device20ICameraDeviceDefault8asBinderEv"
  },
  {
   "name" : "_ZN4aidl7android8hardware6camera6device20ICameraDeviceDefault8isRemoteEv"
  },
  {
   "name" : "_ZN4aidl7android8hardware6camera6device20ICameraDeviceSession10fromBinderERKN3ndk10SpAIBinderE"
  },
  {
   "name" : "_ZN4aidl7android8hardware6camera6device20ICameraDeviceSession13writeToParcelEP7AParcelRKNSt3__110shared_ptrIS4_EE"
  },
  {
   "name" : "_ZN4aidl7android8hardware6camera6device20ICameraDeviceSession14getDefaultImplEv"
  },
  {
   "name" : "_ZN4aidl7android8hardware6camera6device20ICameraDeviceSession14readFromParcelEPK7AParcelPNSt3__110shared_ptrIS4_EE"
  },
  {
   "name" : "_ZN4aidl7android8hardware6camera6device20ICameraDeviceSession14setDefaultImplERKNSt3__110shared_ptrIS4_EE"
  },
  {
   "name" : "_ZN4aidl7android8hardware6camera6device20ICameraDeviceSessionC2Ev"
  },
  {
   "name" : "_ZN4aidl7android8hardware6camera6device20ICameraDeviceSessionD0Ev"
  },
  {
   "name" : "_ZN4aidl7android8hardware6camera6device20ICameraDeviceSessionD1Ev"
  },
  {
   "name" : "_ZN4aidl7android8hardware6camera6device20ICameraDeviceSessionD2Ev"
  },
  {
   "name" : "_ZN4aidl7android8hardware6camera6device21BnCameraDeviceSession12createBinderEv"
  },
  {
   "name" : "_ZN4aidl7android8hardware6camera6device21BnCameraDeviceSession16getInterfaceHashEPNSt3__112basic_stringIcNS5_11char_traitsIcEENS5_9allocatorIcEEEE"
  },
  {
   "name" : "_ZN4aidl7android8hardware6camera6device21BnCameraDeviceSession19getInterfaceVersionEPi"
  },
  {
   "name" : "_ZN4aidl7android8hardware6camera6device21BnCameraDeviceSessionC2Ev"
  },
  {
   "name" : "_ZN4aidl7android8hardware6camera6device21BnCameraDeviceSessionD0Ev"
  },
  {
   "name" : "_ZN4aidl7android8hardware6camera6device21BnCameraDeviceSessionD1Ev"
  },
  {
   "name" : "_ZN4aidl7android8hardware6camera6device21BnCameraDeviceSessionD2Ev"
  },
  {
   "name" : "_ZN4aidl7android8hardware6camera6device21BpCameraDeviceSession15switchToOfflineERKNSt3__16vectorIiNS5_9allocatorIiEEEEPNS3_24CameraOfflineSessionInfoEPNS5_10shared_ptrINS3_21ICameraOfflineSessionEEE"
  },
  {
   "name" : "_ZN4aidl7android8hardware6camera6device21BpCameraDeviceSession16configureStreamsERKNS3_19StreamConfigurationEPNSt3__16vectorINS3_9HalStreamENS8_9allocatorISA_EEEE"
  },
  {
   "name" : "_ZN4aidl7android8hardware6camera6device21BpCameraDeviceSession16getInterfaceHashEPNSt3__112basic_stringIcNS5_11char_traitsIcEENS5_9allocatorIcEEEE"
  },
  {
   "name" : "_ZN4aidl7android8hardware6camera6device21BpCameraDeviceSession17signalStreamFlushERKNSt3__16vectorIiNS5_9allocatorIiEEEEi"
  },
  {
   "name" : "_ZN4aidl7android8hardware6camera6device21BpCameraDeviceSession19getInterfaceVersionEPi"
  },
  {
   "name" : "_ZN4aidl7android8hardware6camera6device21BpCameraDeviceSession19repeatingRequestEndEiRKNSt3__16vectorIiNS5_9allocatorIiEEEE"
  },
  {
   "name" : "_ZN4aidl7android8hardware6camera6device21BpCameraDeviceSession21processCaptureRequestERKNSt3__16vectorINS3_14CaptureRequestENS5_9allocatorIS7_EEEERKNS6_INS3_11BufferCacheENS8_ISD_EEEEPi"
  },
  {
   "name" : "_ZN4aidl7android8hardware6camera6device21BpCameraDeviceSession25isReconfigurationRequiredERKNS3_14CameraMetadataES7_Pb"
  },
  {
   "name" : "_ZN4aidl7android8hardware6camera6device21BpCameraDeviceSession29getCaptureResultMetadataQueueEPNS1_6common3fmq12MQDescriptorIaNS6_21SynchronizedReadWriteEEE"
  },
  {
   "name" : "_ZN4aidl7android8hardware6camera6device21BpCameraDeviceSession30getCaptureRequestMetadataQueueEPNS1_6common3fmq12MQDescriptorIaNS6_21SynchronizedReadWriteEEE"
  },
  {
   "name" : "_ZN4aidl7android8hardware6camera6device21BpCameraDeviceSession31constructDefaultRequestSettingsENS3_15RequestTemplateEPNS3_14CameraMetadataE"
  },
  {
   "name" : "_ZN4aidl7android8hardware6camera6device21BpCameraDeviceSession5closeEv"
  },
  {
   "name" : "_ZN4aidl7android8hardware6camera6device21BpCameraDeviceSession5flushEv"
  },
  {
   "name" : "_ZN4aidl7android8hardware6camera6device21BpCameraDeviceSessionC1ERKN3ndk10SpAIBinderE"
  },
  {
   "name" : "_ZN4aidl7android8hardware6camera6device21BpCameraDeviceSessionC2ERKN3ndk10SpAIBinderE"
  },
  {
   "name" : "_ZN4aidl7android8hardware6camera6device21BpCameraDeviceSessionD0Ev"
  },
  {
   "name" : "_ZN4aidl7android8hardware6camera6device21BpCameraDeviceSessionD1Ev"
  },
  {
   "name" : "_ZN4aidl7android8hardware6camera6device21BpCameraDeviceSessionD2Ev"
  },
  {
   "name" : "_ZN4aidl7android8hardware6camera6device21ICameraDeviceCallback10fromBinderERKN3ndk10SpAIBinderE"
  },
  {
   "name" : "_ZN4aidl7android8hardware6camera6device21ICameraDeviceCallback13writeToParcelEP7AParcelRKNSt3__110shared_ptrIS4_EE"
  },
  {
   "name" : "_ZN4aidl7android8hardware6camera6device21ICameraDeviceCallback14getDefaultImplEv"
  },
  {
   "name" : "_ZN4aidl7android8hardware6camera6device21ICameraDeviceCallback14readFromParcelEPK7AParcelPNSt3__110shared_ptrIS4_EE"
  },
  {
   "name" : "_ZN4aidl7android8hardware6camera6device21ICameraDeviceCallback14setDefaultImplERKNSt3__110shared_ptrIS4_EE"
  },
  {
   "name" : "_ZN4aidl7android8hardware6camera6device21ICameraDeviceCallbackC2Ev"
  },
  {
   "name" : "_ZN4aidl7android8hardware6camera6device21ICameraDeviceCallbackD0Ev"
  },
  {
   "name" : "_ZN4aidl7android8hardware6camera6device21ICameraDeviceCallbackD1Ev"
  },
  {
   "name" : "_ZN4aidl7android8hardware6camera6device21ICameraDeviceCallbackD2Ev"
  },
  {
   "name" : "_ZN4aidl7android8hardware6camera6device21ICameraOfflineSession10fromBinderERKN3ndk10SpAIBinderE"
  },
  {
   "name" : "_ZN4aidl7android8hardware6camera6device21ICameraOfflineSession13writeToParcelEP7AParcelRKNSt3__110shared_ptrIS4_EE"
  },
  {
   "name" : "_ZN4aidl7android8hardware6camera6device21ICameraOfflineSession14getDefaultImplEv"
  },
  {
   "name" : "_ZN4aidl7android8hardware6camera6device21ICameraOfflineSession14readFromParcelEPK7AParcelPNSt3__110shared_ptrIS4_EE"
  },
  {
   "name" : "_ZN4aidl7android8hardware6camera6device21ICameraOfflineSession14setDefaultImplERKNSt3__110shared_ptrIS4_EE"
  },
  {
   "name" : "_ZN4aidl7android8hardware6camera6device21ICameraOfflineSessionC2Ev"
  },
  {
   "name" : "_ZN4aidl7android8hardware6camera6device21ICameraOfflineSessionD0Ev"
  },
  {
   "name" : "_ZN4aidl7android8hardware6camera6device21ICameraOfflineSessionD1Ev"
  },
  {
   "name" : "_ZN4aidl7android8hardware6camera6device21ICameraOfflineSessionD2Ev"
  },
  {
   "name" : "_ZN4aidl7android8hardware6camera6device21PhysicalCameraSetting14readFromParcelEPK7AParcel"
  },
  {
   "name" : "_ZN4aidl7android8hardware6camera6device22BnCameraDeviceCallback12createBinderEv"
  },
  {
   "name" : "_ZN4aidl7android8hardware6camera6device22BnCameraDeviceCallback16getInterfaceHashEPNSt3__112basic_stringIcNS5_11char_traitsIcEENS5_9allocatorIcEEEE"
  },
  {
   "name" : "_ZN4aidl7android8hardware6camera6device22BnCameraDeviceCallback19getInterfaceVersionEPi"
  },
  {
   "name" : "_ZN4aidl7android8hardware6camera6device22BnCameraDeviceCallbackC2Ev"
  },
  {
   "name" : "_ZN4aidl7android8hardware6camera6device22BnCameraDeviceCallbackD0Ev"
  },
  {
   "name" : "_ZN4aidl7android8hardware6camera6device22BnCameraDeviceCallbackD1Ev"
  },
  {
   "name" : "_ZN4aidl7android8hardware6camera6device22BnCameraDeviceCallbackD2Ev"
  },
  {
   "name" : "_ZN4aidl7android8hardware6camera6device22BnCameraOfflineSession12createBinderEv"
  },
  {
   "name" : "_ZN4aidl7android8hardware6camera6device22BnCameraOfflineSession16getInterfaceHashEPNSt3__112basic_stringIcNS5_11char_traitsIcEENS5_9allocatorIcEEEE"
  },
  {
   "name" : "_ZN4aidl7android8hardware6camera6device22BnCameraOfflineSession19getInterfaceVersionEPi"
  },
  {
   "name" : "_ZN4aidl7android8hardware6camera6device22BnCameraOfflineSessionC2Ev"
  },
  {
   "name" : "_ZN4aidl7android8hardware6camera6device22BnCameraOfflineSessionD0Ev"
  },
  {
   "name" : "_ZN4aidl7android8hardware6camera6device22BnCameraOfflineSessionD1Ev"
  },
  {
   "name" : "_ZN4aidl7android8hardware6camera6device22BnCameraOfflineSessionD2Ev"
  },
  {
   "name" : "_ZN4aidl7android8hardware6camera6device22BpCameraDeviceCallback16getInterfaceHashEPNSt3__112basic_stringIcNS5_11char_traitsIcEENS5_9allocatorIcEEEE"
  },
  {
   "name" : "_ZN4aidl7android8hardware6camera6device22BpCameraDeviceCallback19getInterfaceVersionEPi"
  },
  {
   "name" : "_ZN4aidl7android8hardware6camera6device22BpCameraDeviceCallback19returnStreamBuffersERKNSt3__16vectorINS3_12StreamBufferENS5_9allocatorIS7_EEEE"
  },
  {
   "name" : "_ZN4aidl7android8hardware6camera6device22BpCameraDeviceCallback20processCaptureResultERKNSt3__16vectorINS3_13CaptureResultENS5_9allocatorIS7_EEEE"
  },
  {
   "name" : "_ZN4aidl7android8hardware6camera6device22BpCameraDeviceCallback20requestStreamBuffersERKNSt3__16vectorINS3_13BufferRequestENS5_9allocatorIS7_EEEEPNS6_INS3_15StreamBufferRetENS8_ISD_EEEEPNS3_19BufferRequestStatusE"
  },
  {
   "name" : "_ZN4aidl7android8hardware6camera6device22BpCameraDeviceCallback6notifyERKNSt3__16vectorINS3_9NotifyMsgENS5_9allocatorIS7_EEEE"
  },
  {
   "name" : "_ZN4aidl7android8hardware6camera6device22BpCameraDeviceCallbackC1ERKN3ndk10SpAIBinderE"
  },
  {
   "name" : "_ZN4aidl7android8hardware6camera6device22BpCameraDeviceCallbackC2ERKN3ndk10SpAIBinderE"
  },
  {
   "name" : "_ZN4aidl7android8hardware6camera6device22BpCameraDeviceCallbackD0Ev"
  },
  {
   "name" : "_ZN4aidl7android8hardware6camera6device22BpCameraDeviceCallbackD1Ev"
  },
  {
   "name" : "_ZN4aidl7android8hardware6camera6device22BpCameraDeviceCallbackD2Ev"
  },
  {
   "name" : "_ZN4aidl7android8hardware6camera6device22BpCameraOfflineSession11setCallbackERKNSt3__110shared_ptrINS3_21ICameraDeviceCallbackEEE"
  },
  {
   "name" : "_ZN4aidl7android8hardware6camera6device22BpCameraOfflineSession16getInterfaceHashEPNSt3__112basic_stringIcNS5_11char_traitsIcEENS5_9allocatorIcEEEE"
  },
  {
   "name" : "_ZN4aidl7android8hardware6camera6device22BpCameraOfflineSession19getInterfaceVersionEPi"
  },
  {
   "name" : "_ZN4aidl7android8hardware6camera6device22BpCameraOfflineSession29getCaptureResultMetadataQueueEPNS1_6common3fmq12MQDescriptorIaNS6_21SynchronizedReadWriteEEE"
  },
  {
   "name" : "_ZN4aidl7android8hardware6camera6device22BpCameraOfflineSession5closeEv"
  },
  {
   "name" : "_ZN4aidl7android8hardware6camera6device22BpCameraOfflineSessionC1ERKN3ndk10SpAIBinderE"
  },
  {
   "name" : "_ZN4aidl7android8hardware6camera6device22BpCameraOfflineSessionC2ERKN3ndk10SpAIBinderE"
  },
  {
   "name" : "_ZN4aidl7android8hardware6camera6device22BpCameraOfflineSessionD0Ev"
  },
  {
   "name" : "_ZN4aidl7android8hardware6camera6device22BpCameraOfflineSessionD1Ev"
  },
  {
   "name" : "_ZN4aidl7android8hardware6camera6device22BpCameraOfflineSessionD2Ev"
  },
  {
   "name" : "_ZN4aidl7android8hardware6camera6device22PhysicalCameraMetadata14readFromParcelEPK7AParcel"
  },
  {
   "name" : "_ZN4aidl7android8hardware6camera6device23ICameraInjectionSession10fromBinderERKN3ndk10SpAIBinderE"
  },
  {
   "name" : "_ZN4aidl7android8hardware6camera6device23ICameraInjectionSession13writeToParcelEP7AParcelRKNSt3__110shared_ptrIS4_EE"
  },
  {
   "name" : "_ZN4aidl7android8hardware6camera6device23ICameraInjectionSession14getDefaultImplEv"
  },
  {
   "name" : "_ZN4aidl7android8hardware6camera6device23ICameraInjectionSession14readFromParcelEPK7AParcelPNSt3__110shared_ptrIS4_EE"
  },
  {
   "name" : "_ZN4aidl7android8hardware6camera6device23ICameraInjectionSession14setDefaultImplERKNSt3__110shared_ptrIS4_EE"
  },
  {
   "name" : "_ZN4aidl7android8hardware6camera6device23ICameraInjectionSessionC2Ev"
  },
  {
   "name" : "_ZN4aidl7android8hardware6camera6device23ICameraInjectionSessionD0Ev"
  },
  {
   "name" : "_ZN4aidl7android8hardware6camera6device23ICameraInjectionSessionD1Ev"
  },
  {
   "name" : "_ZN4aidl7android8hardware6camera6device23ICameraInjectionSessionD2Ev"
  },
  {
   "name" : "_ZN4aidl7android8hardware6camera6device24BnCameraInjectionSession12createBinderEv"
  },
  {
   "name" : "_ZN4aidl7android8hardware6camera6device24BnCameraInjectionSession16getInterfaceHashEPNSt3__112basic_stringIcNS5_11char_traitsIcEENS5_9allocatorIcEEEE"
  },
  {
   "name" : "_ZN4aidl7android8hardware6camera6device24BnCameraInjectionSession19getInterfaceVersionEPi"
  },
  {
   "name" : "_ZN4aidl7android8hardware6camera6device24BnCameraInjectionSessionC2Ev"
  },
  {
   "name" : "_ZN4aidl7android8hardware6camera6device24BnCameraInjectionSessionD0Ev"
  },
  {
   "name" : "_ZN4aidl7android8hardware6camera6device24BnCameraInjectionSessionD1Ev"
  },
  {
   "name" : "_ZN4aidl7android8hardware6camera6device24BnCameraInjectionSessionD2Ev"
  },
  {
   "name" : "_ZN4aidl7android8hardware6camera6device24BpCameraInjectionSession16getInterfaceHashEPNSt3__112basic_stringIcNS5_11char_traitsIcEENS5_9allocatorIcEEEE"
  },
  {
   "name" : "_ZN4aidl7android8hardware6camera6device24BpCameraInjectionSession19getInterfaceVersionEPi"
  },
  {
   "name" : "_ZN4aidl7android8hardware6camera6device24BpCameraInjectionSession22getCameraDeviceSessionEPNSt3__110shared_ptrINS3_20ICameraDeviceSessionEEE"
  },
  {
   "name" : "_ZN4aidl7android8hardware6camera6device24BpCameraInjectionSession25configureInjectionStreamsERKNS3_19StreamConfigurationERKNS3_14CameraMetadataE"
  },
  {
   "name" : "_ZN4aidl7android8hardware6camera6device24BpCameraInjectionSessionC1ERKN3ndk10SpAIBinderE"
  },
  {
   "name" : "_ZN4aidl7android8hardware6camera6device24BpCameraInjectionSessionC2ERKN3ndk10SpAIBinderE"
  },
  {
   "name" : "_ZN4aidl7android8hardware6camera6device24BpCameraInjectionSessionD0Ev"
  },
  {
   "name" : "_ZN4aidl7android8hardware6camera6device24BpCameraInjectionSessionD1Ev"
  },
  {
   "name" : "_ZN4aidl7android8hardware6camera6device24BpCameraInjectionSessionD2Ev"
  },
  {
   "name" : "_ZN4aidl7android8hardware6camera6device24CameraOfflineSessionInfo14readFromParcelEPK7AParcel"
  },
  {
   "name" : "_ZN4aidl7android8hardware6camera6device27ICameraDeviceSessionDefault15switchToOfflineERKNSt3__16vectorIiNS5_9allocatorIiEEEEPNS3_24CameraOfflineSessionInfoEPNS5_10shared_ptrINS3_21ICameraOfflineSessionEEE"
  },
  {
   "name" : "_ZN4aidl7android8hardware6camera6device27ICameraDeviceSessionDefault16configureStreamsERKNS3_19StreamConfigurationEPNSt3__16vectorINS3_9HalStreamENS8_9allocatorISA_EEEE"
  },
  {
   "name" : "_ZN4aidl7android8hardware6camera6device27ICameraDeviceSessionDefault16getInterfaceHashEPNSt3__112basic_stringIcNS5_11char_traitsIcEENS5_9allocatorIcEEEE"
  },
  {
   "name" : "_ZN4aidl7android8hardware6camera6device27ICameraDeviceSessionDefault17signalStreamFlushERKNSt3__16vectorIiNS5_9allocatorIiEEEEi"
  },
  {
   "name" : "_ZN4aidl7android8hardware6camera6device27ICameraDeviceSessionDefault19getInterfaceVersionEPi"
  },
  {
   "name" : "_ZN4aidl7android8hardware6camera6device27ICameraDeviceSessionDefault19repeatingRequestEndEiRKNSt3__16vectorIiNS5_9allocatorIiEEEE"
  },
  {
   "name" : "_ZN4aidl7android8hardware6camera6device27ICameraDeviceSessionDefault21processCaptureRequestERKNSt3__16vectorINS3_14CaptureRequestENS5_9allocatorIS7_EEEERKNS6_INS3_11BufferCacheENS8_ISD_EEEEPi"
  },
  {
   "name" : "_ZN4aidl7android8hardware6camera6device27ICameraDeviceSessionDefault25isReconfigurationRequiredERKNS3_14CameraMetadataES7_Pb"
  },
  {
   "name" : "_ZN4aidl7android8hardware6camera6device27ICameraDeviceSessionDefault29getCaptureResultMetadataQueueEPNS1_6common3fmq12MQDescriptorIaNS6_21SynchronizedReadWriteEEE"
  },
  {
   "name" : "_ZN4aidl7android8hardware6camera6device27ICameraDeviceSessionDefault30getCaptureRequestMetadataQueueEPNS1_6common3fmq12MQDescriptorIaNS6_21SynchronizedReadWriteEEE"
  },
  {
   "name" : "_ZN4aidl7android8hardware6camera6device27ICameraDeviceSessionDefault31constructDefaultRequestSettingsENS3_15RequestTemplateEPNS3_14CameraMetadataE"
  },
  {
   "name" : "_ZN4aidl7android8hardware6camera6device27ICameraDeviceSessionDefault5closeEv"
  },
  {
   "name" : "_ZN4aidl7android8hardware6camera6device27ICameraDeviceSessionDefault5flushEv"
  },
  {
   "name" : "_ZN4aidl7android8hardware6camera6device27ICameraDeviceSessionDefault8asBinderEv"
  },
  {
   "name" : "_ZN4aidl7android8hardware6camera6device27ICameraDeviceSessionDefault8isRemoteEv"
  },
  {
   "name" : "_ZN4aidl7android8hardware6camera6device28ICameraDeviceCallbackDefault16getInterfaceHashEPNSt3__112basic_stringIcNS5_11char_traitsIcEENS5_9allocatorIcEEEE"
  },
  {
   "name" : "_ZN4aidl7android8hardware6camera6device28ICameraDeviceCallbackDefault19getInterfaceVersionEPi"
  },
  {
   "name" : "_ZN4aidl7android8hardware6camera6device28ICameraDeviceCallbackDefault19returnStreamBuffersERKNSt3__16vectorINS3_12StreamBufferENS5_9allocatorIS7_EEEE"
  },
  {
   "name" : "_ZN4aidl7android8hardware6camera6device28ICameraDeviceCallbackDefault20processCaptureResultERKNSt3__16vectorINS3_13CaptureResultENS5_9allocatorIS7_EEEE"
  },
  {
   "name" : "_ZN4aidl7android8hardware6camera6device28ICameraDeviceCallbackDefault20requestStreamBuffersERKNSt3__16vectorINS3_13BufferRequestENS5_9allocatorIS7_EEEEPNS6_INS3_15StreamBufferRetENS8_ISD_EEEEPNS3_19BufferRequestStatusE"
  },
  {
   "name" : "_ZN4aidl7android8hardware6camera6device28ICameraDeviceCallbackDefault6notifyERKNSt3__16vectorINS3_9NotifyMsgENS5_9allocatorIS7_EEEE"
  },
  {
   "name" : "_ZN4aidl7android8hardware6camera6device28ICameraDeviceCallbackDefault8asBinderEv"
  },
  {
   "name" : "_ZN4aidl7android8hardware6camera6device28ICameraDeviceCallbackDefault8isRemoteEv"
  },
  {
   "name" : "_ZN4aidl7android8hardware6camera6device28ICameraOfflineSessionDefault11setCallbackERKNSt3__110shared_ptrINS3_21ICameraDeviceCallbackEEE"
  },
  {
   "name" : "_ZN4aidl7android8hardware6camera6device28ICameraOfflineSessionDefault16getInterfaceHashEPNSt3__112basic_stringIcNS5_11char_traitsIcEENS5_9allocatorIcEEEE"
  },
  {
   "name" : "_ZN4aidl7android8hardware6camera6device28ICameraOfflineSessionDefault19getInterfaceVersionEPi"
  },
  {
   "name" : "_ZN4aidl7android8hardware6camera6device28ICameraOfflineSessionDefault29getCaptureResultMetadataQueueEPNS1_6common3fmq12MQDescriptorIaNS6_21SynchronizedReadWriteEEE"
  },
  {
   "name" : "_ZN4aidl7android8hardware6camera6device28ICameraOfflineSessionDefault5closeEv"
  },
  {
   "name" : "_ZN4aidl7android8hardware6camera6device28ICameraOfflineSessionDefault8asBinderEv"
  },
  {
   "name" : "_ZN4aidl7android8hardware6camera6device28ICameraOfflineSessionDefault8isRemoteEv"
  },
  {
   "name" : "_ZN4aidl7android8hardware6camera6device30ICameraInjectionSessionDefault16getInterfaceHashEPNSt3__112basic_stringIcNS5_11char_traitsIcEENS5_9allocatorIcEEEE"
  },
  {
   "name" : "_ZN4aidl7android8hardware6camera6device30ICameraInjectionSessionDefault19getInterfaceVersionEPi"
  },
  {
   "name" : "_ZN4aidl7android8hardware6camera6device30ICameraInjectionSessionDefault22getCameraDeviceSessionEPNSt3__110shared_ptrINS3_20ICameraDeviceSessionEEE"
  },
  {
   "name" : "_ZN4aidl7android8hardware6camera6device30ICameraInjectionSessionDefault25configureInjectionStreamsERKNS3_19StreamConfigurationERKNS3_14CameraMetadataE"
  },
  {
   "name" : "_ZN4aidl7android8hardware6camera6device30ICameraInjectionSessionDefault8asBinderEv"
  },
  {
   "name" : "_ZN4aidl7android8hardware6camera6device30ICameraInjectionSessionDefault8isRemoteEv"
  },
  {
   "name" : "_ZN4aidl7android8hardware6camera6device6Stream14readFromParcelEPK7AParcel"
  },
  {
   "name" : "_ZN4aidl7android8hardware6camera6device8ErrorMsg14readFromParcelEPK7AParcel"
  },
  {
   "name" : "_ZN4aidl7android8hardware6camera6device9HalStream14readFromParcelEPK7AParcel"
  },
  {
   "name" : "_ZN4aidl7android8hardware6camera6device9NotifyMsg14readFromParcelEPK7AParcel"
  },
  {
   "binding" : "weak",
   "name" : "_ZN4aidl7android8hardware6common3fmq12MQDescriptorIaNS3_21SynchronizedReadWriteEE14readFromParcelEPK7AParcel"
  },
  {
   "name" : "_ZNK4aidl7android8hardware6camera6device10CameraBlob13writeToParcelEP7AParcel"
  },
  {
   "name" : "_ZNK4aidl7android8hardware6camera6device10ShutterMsg13writeToParcelEP7AParcel"
  },
  {
   "name" : "_ZNK4aidl7android8hardware6camera6device11BufferCache13writeToParcelEP7AParcel"
  },
  {
   "name" : "_ZNK4aidl7android8hardware6camera6device12StreamBuffer13writeToParcelEP7AParcel"
  },
  {
   "name" : "_ZNK4aidl7android8hardware6camera6device13BufferRequest13writeToParcelEP7AParcel"
  },
  {
   "name" : "_ZNK4aidl7android8hardware6camera6device13CaptureResult13writeToParcelEP7AParcel"
  },
  {
   "name" : "_ZNK4aidl7android8hardware6camera6device13OfflineStream13writeToParcelEP7AParcel"
  },
  {
   "name" : "_ZNK4aidl7android8hardware6camera6device14CameraMetadata13writeToParcelEP7AParcel"
  },
  {
   "name" : "_ZNK4aidl7android8hardware6camera6device14CaptureRequest13writeToParcelEP7AParcel"
  },
  {
   "name" : "_ZNK4aidl7android8hardware6camera6device14OfflineRequest13writeToParcelEP7AParcel"
  },
  {
   "name" : "_ZNK4aidl7android8hardware6camera6device15StreamBufferRet13writeToParcelEP7AParcel"
  },
  {
   "name" : "_ZNK4aidl7android8hardware6camera6device16StreamBuffersVal13writeToParcelEP7AParcel"
  },
  {
   "name" : "_ZNK4aidl7android8hardware6camera6device19StreamConfiguration13writeToParcelEP7AParcel"
  },
  {
   "name" : "_ZNK4aidl7android8hardware6camera6device21PhysicalCameraSetting13writeToParcelEP7AParcel"
  },
  {
   "name" : "_ZNK4aidl7android8hardware6camera6device22PhysicalCameraMetadata13writeToParcelEP7AParcel"
  },
  {
   "name" : "_ZNK4aidl7android8hardware6camera6device24CameraOfflineSessionInfo13writeToParcelEP7AParcel"
  },
  {
   "name" : "_ZNK4aidl7android8hardware6camera6device6Stream13writeToParcelEP7AParcel"
  },
  {
   "name" : "_ZNK4aidl7android8hardware6camera6device8ErrorMsg13writeToParcelEP7AParcel"
  },
  {
   "name" : "_ZNK4aidl7android8hardware6camera6device9HalStream13writeToParcelEP7AParcel"
  },
  {
   "name" : "_ZNK4aidl7android8hardware6camera6device9NotifyMsg13writeToParcelEP7AParcel"
  },
  {
   "binding" : "weak",
   "name" : "_ZNK4aidl7android8hardware6common3fmq12MQDescriptorIaNS3_21SynchronizedReadWriteEE13writeToParcelEP7AParcel"
  },
  {
   "binding" : "weak",
   "name" : "_ZNSt3__110shared_ptrIN4aidl7android8hardware6camera6device13ICameraDeviceEED2Ev"
  },
  {
   "binding" : "weak",
   "name" : "_ZNSt3__110shared_ptrIN4aidl7android8hardware6camera6device20ICameraDeviceSessionEED2Ev"
  },
  {
   "binding" : "weak",
   "name" : "_ZNSt3__110shared_ptrIN4aidl7android8hardware6camera6device21ICameraDeviceCallbackEED2Ev"
  },
  {
   "binding" : "weak",
   "name" : "_ZNSt3__110shared_ptrIN4aidl7android8hardware6camera6device21ICameraOfflineSessionEED2Ev"
  },
  {
   "binding" : "weak",
   "name" : "_ZNSt3__110shared_ptrIN4aidl7android8hardware6camera6device23ICameraInjectionSessionEED2Ev"
  },
  {
   "binding" : "weak",
   "name" : "_ZNSt3__120__shared_ptr_pointerIPN3ndk13SharedRefBaseENS_14default_deleteIS2_EENS_9allocatorIS2_EEE16__on_zero_sharedEv"
  },
  {
   "binding" : "weak",
   "name" : "_ZNSt3__120__shared_ptr_pointerIPN3ndk13SharedRefBaseENS_14default_deleteIS2_EENS_9allocatorIS2_EEE21__on_zero_shared_weakEv"
  },
  {
   "binding" : "weak",
   "name" : "_ZNSt3__16vectorIN4aidl7android8hardware6camera6device11BufferCacheENS_9allocatorIS6_EEE8__appendEj"
  },
  {
   "binding" : "weak",
   "name" : "_ZNSt3__16vectorIN4aidl7android8hardware6camera6device12StreamBufferENS_9allocatorIS6_EEE8__appendEj"
  },
  {
   "binding" : "weak",
   "name" : "_ZNSt3__16vectorIN4aidl7android8hardware6camera6device13BufferRequestENS_9allocatorIS6_EEE8__appendEj"
  },
  {
   "binding" : "weak",
   "name" : "_ZNSt3__16vectorIN4aidl7android8hardware6camera6device13CaptureResultENS_9allocatorIS6_EEE26__swap_out_circular_bufferERNS_14__split_bufferIS6_RS8_EE"
  },
  {
   "binding" : "weak",
   "name" : "_ZNSt3__16vectorIN4aidl7android8hardware6camera6device13CaptureResultENS_9allocatorIS6_EEE8__appendEj"
  },
  {
   "binding" : "weak",
   "name" : "_ZNSt3__16vectorIN4aidl7android8hardware6camera6device13OfflineStreamENS_9allocatorIS6_EEE8__appendEj"
  },
  {
   "binding" : "weak",
   "name" : "_ZNSt3__16vectorIN4aidl7android8hardware6camera6device14CaptureRequestENS_9allocatorIS6_EEE26__swap_out_circular_bufferERNS_14__split_bufferIS6_RS8_EE"
  },
  {
   "binding" : "weak",
   "name" : "_ZNSt3__16vectorIN4aidl7android8hardware6camera6device14CaptureRequestENS_9allocatorIS6_EEE8__appendEj"
  },
  {
   "binding" : "weak",
   "name" : "_ZNSt3__16vectorIN4aidl7android8hardware6camera6device14OfflineRequestENS_9allocatorIS6_EEE8__appendEj"
  },
  {
   "binding" : "weak",
   "name" : "_ZNSt3__16vectorIN4aidl7android8hardware6camera6device15StreamBufferRetENS_9allocatorIS6_EEE8__appendEj"
  },
  {
   "binding" : "weak",
   "name" : "_ZNSt3__16vectorIN4aidl7android8hardware6camera6device21PhysicalCameraSettingENS_9allocatorIS6_EEE8__appendEj"
  },
  {
   "binding" : "weak",
   "name" : "_ZNSt3__16vectorIN4aidl7android8hardware6camera6device22PhysicalCameraMetadataENS_9allocatorIS6_EEE8__appendEj"
  },
  {
   "binding" : "weak",
   "name" : "_ZNSt3__16vectorIN4aidl7android8hardware6camera6device6StreamENS_9allocatorIS6_EEE8__appendEj"
  },
  {
   "binding" : "weak",
   "name" : "_ZNSt3__16vectorIN4aidl7android8hardware6camera6device9HalStreamENS_9allocatorIS6_EEE8__appendEj"
  },
  {
   "binding" : "weak",
   "name" : "_ZNSt3__16vectorIN4aidl7android8hardware6camera6device9NotifyMsgENS_9allocatorIS6_EEE8__appendEj"
  },
  {
   "binding" : "weak",
   "name" : "_ZNSt3__16vectorIN4aidl7android8hardware6common3fmq17GrantorDescriptorENS_9allocatorIS6_EEE8__appendEj"
  },
  {
   "binding" : "weak",
   "name" : "_ZNSt3__16vectorIaNS_9allocatorIaEEE8__appendEj"
  },
  {
   "binding" : "weak",
   "name" : "_ZNSt3__16vectorIiNS_9allocatorIiEEE8__appendEj"
  },
  {
   "binding" : "weak",
   "name" : "_ZNSt3__16vectorIxNS_9allocatorIxEEE8__appendEj"
  }
 ],
 "elf_objects" :
 [
  {
   "binding" : "weak",
   "name" : "_ZGVN4aidl7android8hardware6camera6device13ICameraDevice4hashE"
  },
  {
   "binding" : "weak",
   "name" : "_ZGVN4aidl7android8hardware6camera6device20ICameraDeviceSession4hashE"
  },
  {
   "binding" : "weak",
   "name" : "_ZGVN4aidl7android8hardware6camera6device21ICameraDeviceCallback4hashE"
  },
  {
   "binding" : "weak",
   "name" : "_ZGVN4aidl7android8hardware6camera6device21ICameraOfflineSession4hashE"
  },
  {
   "binding" : "weak",
   "name" : "_ZGVN4aidl7android8hardware6camera6device23ICameraInjectionSession4hashE"
  },
  {
   "name" : "_ZN4aidl7android8hardware6camera6device10CameraBlob10descriptorE"
  },
  {
   "name" : "_ZN4aidl7android8hardware6camera6device10ShutterMsg10descriptorE"
  },
  {
   "name" : "_ZN4aidl7android8hardware6camera6device11BufferCache10descriptorE"
  },
  {
   "name" : "_ZN4aidl7android8hardware6camera6device12StreamBuffer10descriptorE"
  },
  {
   "name" : "_ZN4aidl7android8hardware6camera6device13BufferRequest10descriptorE"
  },
  {
   "name" : "_ZN4aidl7android8hardware6camera6device13CaptureResult10descriptorE"
  },
  {
   "name" : "_ZN4aidl7android8hardware6camera6device13ICameraDevice10descriptorE"
  },
  {
   "name" : "_ZN4aidl7android8hardware6camera6device13ICameraDevice12default_implE"
  },
  {
   "binding" : "weak",
   "name" : "_ZN4aidl7android8hardware6camera6device13ICameraDevice4hashE"
  },
  {
   "name" : "_ZN4aidl7android8hardware6camera6device13OfflineStream10descriptorE"
  },
  {
   "name" : "_ZN4aidl7android8hardware6camera6device14CameraMetadata10descriptorE"
  },
  {
   "name" : "_ZN4aidl7android8hardware6camera6device14CaptureRequest10descriptorE"
  },
  {
   "name" : "_ZN4aidl7android8hardware6camera6device14OfflineRequest10descriptorE"
  },
  {
   "name" : "_ZN4aidl7android8hardware6camera6device15StreamBufferRet10descriptorE"
  },
  {
   "name" : "_ZN4aidl7android8hardware6camera6device16StreamBuffersVal10descriptorE"
  },
  {
   "name" : "_ZN4aidl7android8hardware6camera6device19StreamConfiguration10descriptorE"
  },
  {
   "name" : "_ZN4aidl7android8hardware6camera6device20ICameraDeviceSession10descriptorE"
  },
  {
   "name" : "_ZN4aidl7android8hardware6camera6device20ICameraDeviceSession12default_implE"
  },
  {
   "binding" : "weak",
   "name" : "_ZN4aidl7android8hardware6camera6device20ICameraDeviceSession4hashE"
  },
  {
   "name" : "_ZN4aidl7android8hardware6camera6device21ICameraDeviceCallback10descriptorE"
  },
  {
   "name" : "_ZN4aidl7android8hardware6camera6device21ICameraDeviceCallback12default_implE"
  },
  {
   "binding" : "weak",
   "name" : "_ZN4aidl7android8hardware6camera6device21ICameraDeviceCallback4hashE"
  },
  {
   "name" : "_ZN4aidl7android8hardware6camera6device21ICameraOfflineSession10descriptorE"
  },
  {
   "name" : "_ZN4aidl7android8hardware6camera6device21ICameraOfflineSession12default_implE"
  },
  {
   "binding" : "weak",
   "name" : "_ZN4aidl7android8hardware6camera6device21ICameraOfflineSession4hashE"
  },
  {
   "name" : "_ZN4aidl7android8hardware6camera6device21PhysicalCameraSetting10descriptorE"
  },
  {
   "name" : "_ZN4aidl7android8hardware6camera6device22PhysicalCameraMetadata10descriptorE"
  },
  {
   "name" : "_ZN4aidl7android8hardware6camera6device23ICameraInjectionSession10descriptorE"
  },
  {
   "name" : "_ZN4aidl7android8hardware6camera6device23ICameraInjectionSession12default_implE"
  },
  {
   "binding" : "weak",
   "name" : "_ZN4aidl7android8hardware6camera6device23ICameraInjectionSession4hashE"
  },
  {
   "name" : "_ZN4aidl7android8hardware6camera6device24CameraOfflineSessionInfo10descriptorE"
  },
  {
   "name" : "_ZN4aidl7android8hardware6camera6device6Stream10descriptorE"
  },
  {
   "name" : "_ZN4aidl7android8hardware6camera6device8ErrorMsg10descriptorE"
  },
  {
   "name" : "_ZN4aidl7android8hardware6camera6device9HalStream10descriptorE"
  },
  {
   "name" : "_ZN4aidl7android8hardware6camera6device9NotifyMsg10descriptorE"
  },
  {
   "binding" : "weak",
   "name" : "_ZTVN3ndk12BnCInterfaceIN4aidl7android8hardware6camera6device13ICameraDeviceEEE"
  },
  {
   "binding" : "weak",
   "name" : "_ZTVN3ndk12BnCInterfaceIN4aidl7android8hardware6camera6device20ICameraDeviceSessionEEE"
  },
  {
   "binding" : "weak",
   "name" : "_ZTVN3ndk12BnCInterfaceIN4aidl7android8hardware6camera6device21ICameraDeviceCallbackEEE"
  },
  {
   "binding" : "weak",
   "name" : "_ZTVN3ndk12BnCInterfaceIN4aidl7android8hardware6camera6device21ICameraOfflineSessionEEE"
  },
  {
   "binding" : "weak",
   "name" : "_ZTVN3ndk12BnCInterfaceIN4aidl7android8hardware6camera6device23ICameraInjectionSessionEEE"
  },
  {
   "binding" : "weak",
   "name" : "_ZTVN3ndk12BpCInterfaceIN4aidl7android8hardware6camera6device13ICameraDeviceEEE"
  },
  {
   "binding" : "weak",
   "name" : "_ZTVN3ndk12BpCInterfaceIN4aidl7android8hardware6camera6device20ICameraDeviceSessionEEE"
  },
  {
   "binding" : "weak",
   "name" : "_ZTVN3ndk12BpCInterfaceIN4aidl7android8hardware6camera6device21ICameraDeviceCallbackEEE"
  },
  {
   "binding" : "weak",
   "name" : "_ZTVN3ndk12BpCInterfaceIN4aidl7android8hardware6camera6device21ICameraOfflineSessionEEE"
  },
  {
   "binding" : "weak",
   "name" : "_ZTVN3ndk12BpCInterfaceIN4aidl7android8hardware6camera6device23ICameraInjectionSessionEEE"
  },
  {
   "binding" : "weak",
   "name" : "_ZTVN3ndk13SharedRefBaseE"
  },
  {
   "name" : "_ZTVN4aidl7android8hardware6camera6device13ICameraDeviceE"
  },
  {
   "name" : "_ZTVN4aidl7android8hardware6camera6device14BnCameraDeviceE"
  },
  {
   "name" : "_ZTVN4aidl7android8hardware6camera6device14BpCameraDeviceE"
  },
  {
   "name" : "_ZTVN4aidl7android8hardware6camera6device20ICameraDeviceDefaultE"
  },
  {
   "name" : "_ZTVN4aidl7android8hardware6camera6device20ICameraDeviceSessionE"
  },
  {
   "name" : "_ZTVN4aidl7android8hardware6camera6device21BnCameraDeviceSessionE"
  },
  {
   "name" : "_ZTVN4aidl7android8hardware6camera6device21BpCameraDeviceSessionE"
  },
  {
   "name" : "_ZTVN4aidl7android8hardware6camera6device21ICameraDeviceCallbackE"
  },
  {
   "name" : "_ZTVN4aidl7android8hardware6camera6device21ICameraOfflineSessionE"
  },
  {
   "name" : "_ZTVN4aidl7android8hardware6camera6device22BnCameraDeviceCallbackE"
  },
  {
   "name" : "_ZTVN4aidl7android8hardware6camera6device22BnCameraOfflineSessionE"
  },
  {
   "name" : "_ZTVN4aidl7android8hardware6camera6device22BpCameraDeviceCallbackE"
  },
  {
   "name" : "_ZTVN4aidl7android8hardware6camera6device22BpCameraOfflineSessionE"
  },
  {
   "name" : "_ZTVN4aidl7android8hardware6camera6device23ICameraInjectionSessionE"
  },
  {
   "name" : "_ZTVN4aidl7android8hardware6camera6device24BnCameraInjectionSessionE"
  },
  {
   "name" : "_ZTVN4aidl7android8hardware6camera6device24BpCameraInjectionSessionE"
  },
  {
   "name" : "_ZTVN4aidl7android8hardware6camera6device27ICameraDeviceSessionDefaultE"
  },
  {
   "name" : "_ZTVN4aidl7android8hardware6camera6device28ICameraDeviceCallbackDefaultE"
  },
  {
   "name" : "_ZTVN4aidl7android8hardware6camera6device28ICameraOfflineSessionDefaultE"
  },
  {
   "name" : "_ZTVN4aidl7android8hardware6camera6device30ICameraInjectionSessionDefaultE"
  },
  {
   "binding" : "weak",
   "name" : "_ZTVNSt3__120__shared_ptr_pointerIPN3ndk13SharedRefBaseENS_14default_deleteIS2_EENS_9allocatorIS2_EEEE"
  }
 ],
 "enum_types" :
 [
  {
   "alignment" : 4,
   "enum_fields" :
   [
    {
     "enum_field_value" : 1,
     "name" : "FLAG_ONEWAY"
    }
   ],
   "linker_set_key" : "_ZTI12$FLAG_ONEWAY",
   "name" : "(unnamed enum at frameworks/native/libs/binder/ndk/include_ndk/android/binder_ibinder.h:43:1)",
   "referenced_type" : "_ZTI12$FLAG_ONEWAY",
   "self_type" : "_ZTI12$FLAG_ONEWAY",
   "size" : 4,
   "source_file" : "frameworks/native/libs/binder/ndk/include_ndk/android/binder_ibinder.h",
   "underlying_type" : "_ZTIj"
  },
  {
   "alignment" : 4,
   "enum_fields" :
   [
    {
     "enum_field_value" : 0,
     "name" : "EX_NONE"
    },
    {
     "enum_field_value" : -1,
     "name" : "EX_SECURITY"
    },
    {
     "enum_field_value" : -2,
     "name" : "EX_BAD_PARCELABLE"
    },
    {
     "enum_field_value" : -3,
     "name" : "EX_ILLEGAL_ARGUMENT"
    },
    {
     "enum_field_value" : -4,
     "name" : "EX_NULL_POINTER"
    },
    {
     "enum_field_value" : -5,
     "name" : "EX_ILLEGAL_STATE"
    },
    {
     "enum_field_value" : -6,
     "name" : "EX_NETWORK_MAIN_THREAD"
    },
    {
     "enum_field_value" : -7,
     "name" : "EX_UNSUPPORTED_OPERATION"
    },
    {
     "enum_field_value" : -8,
     "name" : "EX_SERVICE_SPECIFIC"
    },
    {
     "enum_field_value" : -9,
     "name" : "EX_PARCELABLE"
    },
    {
     "enum_field_value" : -129,
     "name" : "EX_TRANSACTION_FAILED"
    }
   ],
   "linker_set_key" : "_ZTI18$EX_BAD_PARCELABLE",
   "name" : "(unnamed enum at frameworks/native/libs/binder/ndk/include_ndk/android/binder_status.h:94:1)",
   "referenced_type" : "_ZTI18$EX_BAD_PARCELABLE",
   "self_type" : "_ZTI18$EX_BAD_PARCELABLE",
   "size" : 4,
   "source_file" : "frameworks/native/libs/binder/ndk/include_ndk/android/binder_status.h",
   "underlying_type" : "_ZTIi"
  },
  {
   "alignment" : 4,
   "enum_fields" :
   [
    {
     "enum_field_value" : 268435456,
     "name" : "FLAG_PRIVATE_LOCAL"
    }
   ],
   "linker_set_key" : "_ZTI19$FLAG_PRIVATE_LOCAL",
   "name" : "(unnamed enum at frameworks/native/libs/binder/ndk/include_platform/android/binder_stability.h:35:1)",
   "referenced_type" : "_ZTI19$FLAG_PRIVATE_LOCAL",
   "self_type" : "_ZTI19$FLAG_PRIVATE_LOCAL",
   "size" : 4,
   "source_file" : "frameworks/native/libs/binder/ndk/include_platform/android/binder_stability.h",
   "underlying_type" : "_ZTIj"
  },
  {
   "alignment" : 4,
   "enum_fields" :
   [
    {
     "enum_field_value" : 268435456,
     "name" : "FLAG_PRIVATE_VENDOR"
    }
   ],
   "linker_set_key" : "_ZTI20$FLAG_PRIVATE_VENDOR",
   "name" : "(unnamed enum at frameworks/native/libs/binder/ndk/include_platform/android/binder_stability.h:26:1)",
   "referenced_type" : "_ZTI20$FLAG_PRIVATE_VENDOR",
   "self_type" : "_ZTI20$FLAG_PRIVATE_VENDOR",
   "size" : 4,
   "source_file" : "frameworks/native/libs/binder/ndk/include_platform/android/binder_stability.h",
   "underlying_type" : "_ZTIj"
  },
  {
   "alignment" : 4,
   "enum_fields" :
   [
    {
     "enum_field_value" : 0,
     "name" : "STATUS_OK"
    },
    {
     "enum_field_value" : -2147483648,
     "name" : "STATUS_UNKNOWN_ERROR"
    },
    {
     "enum_field_value" : -12,
     "name" : "STATUS_NO_MEMORY"
    },
    {
     "enum_field_value" : -38,
     "name" : "STATUS_INVALID_OPERATION"
    },
    {
     "enum_field_value" : -22,
     "name" : "STATUS_BAD_VALUE"
    },
    {
     "enum_field_value" : -2147483647,
     "name" : "STATUS_BAD_TYPE"
    },
    {
     "enum_field_value" : -2,
     "name" : "STATUS_NAME_NOT_FOUND"
    },
    {
     "enum_field_value" : -1,
     "name" : "STATUS_PERMISSION_DENIED"
    },
    {
     "enum_field_value" : -19,
     "name" : "STATUS_NO_INIT"
    },
    {
     "enum_field_value" : -17,
     "name" : "STATUS_ALREADY_EXISTS"
    },
    {
     "enum_field_value" : -32,
     "name" : "STATUS_DEAD_OBJECT"
    },
    {
     "enum_field_value" : -2147483646,
     "name" : "STATUS_FAILED_TRANSACTION"
    },
    {
     "enum_field_value" : -75,
     "name" : "STATUS_BAD_INDEX"
    },
    {
     "enum_field_value" : -61,
     "name" : "STATUS_NOT_ENOUGH_DATA"
    },
    {
     "enum_field_value" : -11,
     "name" : "STATUS_WOULD_BLOCK"
    },
    {
     "enum_field_value" : -110,
     "name" : "STATUS_TIMED_OUT"
    },
    {
     "enum_field_value" : -74,
     "name" : "STATUS_UNKNOWN_TRANSACTION"
    },
    {
     "enum_field_value" : -2147483641,
     "name" : "STATUS_FDS_NOT_ALLOWED"
    },
    {
     "enum_field_value" : -2147483640,
     "name" : "STATUS_UNEXPECTED_NULL"
    }
   ],
   "linker_set_key" : "_ZTI22$STATUS_ALREADY_EXISTS",
   "name" : "(unnamed enum at frameworks/native/libs/binder/ndk/include_ndk/android/binder_status.h:60:1)",
   "referenced_type" : "_ZTI22$STATUS_ALREADY_EXISTS",
   "self_type" : "_ZTI22$STATUS_ALREADY_EXISTS",
   "size" : 4,
   "source_file" : "frameworks/native/libs/binder/ndk/include_ndk/android/binder_status.h",
   "underlying_type" : "_ZTIi"
  },
  {
   "alignment" : 4,
   "enum_fields" :
   [
    {
     "enum_field_value" : 1,
     "name" : "FIRST_CALL_TRANSACTION"
    },
    {
     "enum_field_value" : 16777215,
     "name" : "LAST_CALL_TRANSACTION"
    }
   ],
   "linker_set_key" : "_ZTI23$FIRST_CALL_TRANSACTION",
   "name" : "(unnamed enum at frameworks/native/libs/binder/ndk/include_ndk/android/binder_ibinder.h:58:1)",
   "referenced_type" : "_ZTI23$FIRST_CALL_TRANSACTION",
   "self_type" : "_ZTI23$FIRST_CALL_TRANSACTION",
   "size" : 4,
   "source_file" : "frameworks/native/libs/binder/ndk/include_ndk/android/binder_ibinder.h",
   "underlying_type" : "_ZTIj"
  },
  {
   "alignment" : 4,
   "enum_fields" :
   [
    {
     "enum_field_value" : 0,
     "name" : "ndk::STABILITY_LOCAL"
    },
    {
     "enum_field_value" : 1,
     "name" : "ndk::STABILITY_VINTF"
    }
   ],
   "linker_set_key" : "_ZTIN3ndk16$STABILITY_LOCALE",
   "name" : "ndk::(unnamed enum at frameworks/native/libs/binder/ndk/include_cpp/android/binder_parcelable_utils.h:34:1)",
   "referenced_type" : "_ZTIN3ndk16$STABILITY_LOCALE",
   "self_type" : "_ZTIN3ndk16$STABILITY_LOCALE",
   "size" : 4,
   "source_file" : "frameworks/native/libs/binder/ndk/include_cpp/android/binder_parcelable_utils.h",
   "underlying_type" : "_ZTIj"
  },
  {
   "alignment" : 4,
   "enum_fields" :
   [
    {
     "enum_field_value" : 0,
     "name" : "aidl::android::hardware::camera::device::StreamType::OUTPUT"
    },
    {
     "enum_field_value" : 1,
     "name" : "aidl::android::hardware::camera::device::StreamType::INPUT"
    }
   ],
   "linker_set_key" : "_ZTIN4aidl7android8hardware6camera6device10StreamTypeE",
   "name" : "aidl::android::hardware::camera::device::StreamType",
   "referenced_type" : "_ZTIN4aidl7android8hardware6camera6device10StreamTypeE",
   "self_type" : "_ZTIN4aidl7android8hardware6camera6device10StreamTypeE",
   "size" : 4,
   "source_file" : "out/soong/.intermediates/hardware/interfaces/camera/device/aidl/android.hardware.camera.device-V1-ndk-source/gen/include/aidl/android/hardware/camera/device/StreamType.h",
   "underlying_type" : "_ZTIi"
  },
  {
   "alignment" : 4,
   "enum_fields" :
   [
    {
     "enum_field_value" : 0,
     "name" : "aidl::android::hardware::camera::device::BufferStatus::OK"
    },
    {
     "enum_field_value" : 1,
     "name" : "aidl::android::hardware::camera::device::BufferStatus::ERROR"
    }
   ],
   "linker_set_key" : "_ZTIN4aidl7android8hardware6camera6device12BufferStatusE",
   "name" : "aidl::android::hardware::camera::device::BufferStatus",
   "referenced_type" : "_ZTIN4aidl7android8hardware6camera6device12BufferStatusE",
   "self_type" : "_ZTIN4aidl7android8hardware6camera6device12BufferStatusE",
   "size" : 4,
   "source_file" : "out/soong/.intermediates/hardware/interfaces/camera/device/aidl/android.hardware.camera.device-V1-ndk-source/gen/include/aidl/android/hardware/camera/device/BufferStatus.h",
   "underlying_type" : "_ZTIi"
  },
  {
   "alignment" : 4,
   "enum_fields" :
   [
    {
     "enum_field_value" : 255,
     "name" : "aidl::android::hardware::camera::device::CameraBlobId::JPEG"
    },
    {
     "enum_field_value" : 256,
     "name" : "aidl::android::hardware::camera::device::CameraBlobId::JPEG_APP_SEGMENTS"
    }
   ],
   "linker_set_key" : "_ZTIN4aidl7android8hardware6camera6device12CameraBlobIdE",
   "name" : "aidl::android::hardware::camera::device::CameraBlobId",
   "referenced_type" : "_ZTIN4aidl7android8hardware6camera6device12CameraBlobIdE",
   "self_type" : "_ZTIN4aidl7android8hardware6camera6device12CameraBlobIdE",
   "size" : 4,
   "source_file" : "out/soong/.intermediates/hardware/interfaces/camera/device/aidl/android.hardware.camera.device-V1-ndk-source/gen/include/aidl/android/hardware/camera/device/CameraBlobId.h",
   "underlying_type" : "_ZTIi"
  },
  {
   "alignment" : 4,
   "enum_fields" :
   [
    {
     "enum_field_value" : 0,
     "name" : "aidl::android::hardware::camera::device::StreamRotation::ROTATION_0"
    },
    {
     "enum_field_value" : 1,
     "name" : "aidl::android::hardware::camera::device::StreamRotation::ROTATION_90"
    },
    {
     "enum_field_value" : 2,
     "name" : "aidl::android::hardware::camera::device::StreamRotation::ROTATION_180"
    },
    {
     "enum_field_value" : 3,
     "name" : "aidl::android::hardware::camera::device::StreamRotation::ROTATION_270"
    }
   ],
   "linker_set_key" : "_ZTIN4aidl7android8hardware6camera6device14StreamRotationE",
   "name" : "aidl::android::hardware::camera::device::StreamRotation",
   "referenced_type" : "_ZTIN4aidl7android8hardware6camera6device14StreamRotationE",
   "self_type" : "_ZTIN4aidl7android8hardware6camera6device14StreamRotationE",
   "size" : 4,
   "source_file" : "out/soong/.intermediates/hardware/interfaces/camera/device/aidl/android.hardware.camera.device-V1-ndk-source/gen/include/aidl/android/hardware/camera/device/StreamRotation.h",
   "underlying_type" : "_ZTIi"
  },
  {
   "alignment" : 4,
   "enum_fields" :
   [
    {
     "enum_field_value" : 1,
     "name" : "aidl::android::hardware::camera::device::RequestTemplate::PREVIEW"
    },
    {
     "enum_field_value" : 2,
     "name" : "aidl::android::hardware::camera::device::RequestTemplate::STILL_CAPTURE"
    },
    {
     "enum_field_value" : 3,
     "name" : "aidl::android::hardware::camera::device::RequestTemplate::VIDEO_RECORD"
    },
    {
     "enum_field_value" : 4,
     "name" : "aidl::android::hardware::camera::device::RequestTemplate::VIDEO_SNAPSHOT"
    },
    {
     "enum_field_value" : 5,
     "name" : "aidl::android::hardware::camera::device::RequestTemplate::ZERO_SHUTTER_LAG"
    },
    {
     "enum_field_value" : 6,
     "name" : "aidl::android::hardware::camera::device::RequestTemplate::MANUAL"
    },
    {
     "enum_field_value" : 1073741824,
     "name" : "aidl::android::hardware::camera::device::RequestTemplate::VENDOR_TEMPLATE_START"
    }
   ],
   "linker_set_key" : "_ZTIN4aidl7android8hardware6camera6device15RequestTemplateE",
   "name" : "aidl::android::hardware::camera::device::RequestTemplate",
   "referenced_type" : "_ZTIN4aidl7android8hardware6camera6device15RequestTemplateE",
   "self_type" : "_ZTIN4aidl7android8hardware6camera6device15RequestTemplateE",
   "size" : 4,
   "source_file" : "out/soong/.intermediates/hardware/interfaces/camera/device/aidl/android.hardware.camera.device-V1-ndk-source/gen/include/aidl/android/hardware/camera/device/RequestTemplate.h",
   "underlying_type" : "_ZTIi"
  },
  {
   "alignment" : 4,
   "enum_fields" :
   [
    {
     "enum_field_value" : 0,
     "name" : "aidl::android::hardware::camera::device::StreamBuffersVal::Tag::error"
    },
    {
     "enum_field_value" : 1,
     "name" : "aidl::android::hardware::camera::device::StreamBuffersVal::Tag::buffers"
    }
   ],
   "linker_set_key" : "_ZTIN4aidl7android8hardware6camera6device16StreamBuffersVal3TagE",
   "name" : "aidl::android::hardware::camera::device::StreamBuffersVal::Tag",
   "referenced_type" : "_ZTIN4aidl7android8hardware6camera6device16StreamBuffersVal3TagE",
   "self_type" : "_ZTIN4aidl7android8hardware6camera6device16StreamBuffersVal3TagE",
   "size" : 4,
   "source_file" : "out/soong/.intermediates/hardware/interfaces/camera/device/aidl/android.hardware.camera.device-V1-ndk-source/gen/include/aidl/android/hardware/camera/device/StreamBuffersVal.h",
   "underlying_type" : "_ZTIi"
  },
  {
   "alignment" : 4,
   "enum_fields" :
   [
    {
     "enum_field_value" : 0,
     "name" : "aidl::android::hardware::camera::device::BufferRequestStatus::OK"
    },
    {
     "enum_field_value" : 1,
     "name" : "aidl::android::hardware::camera::device::BufferRequestStatus::FAILED_PARTIAL"
    },
    {
     "enum_field_value" : 2,
     "name" : "aidl::android::hardware::camera::device::BufferRequestStatus::FAILED_CONFIGURING"
    },
    {
     "enum_field_value" : 3,
     "name" : "aidl::android::hardware::camera::device::BufferRequestStatus::FAILED_ILLEGAL_ARGUMENTS"
    },
    {
     "enum_field_value" : 4,
     "name" : "aidl::android::hardware::camera::device::BufferRequestStatus::FAILED_UNKNOWN"
    }
   ],
   "linker_set_key" : "_ZTIN4aidl7android8hardware6camera6device19BufferRequestStatusE",
   "name" : "aidl::android::hardware::camera::device::BufferRequestStatus",
   "referenced_type" : "_ZTIN4aidl7android8hardware6camera6device19BufferRequestStatusE",
   "self_type" : "_ZTIN4aidl7android8hardware6camera6device19BufferRequestStatusE",
   "size" : 4,
   "source_file" : "out/soong/.intermediates/hardware/interfaces/camera/device/aidl/android.hardware.camera.device-V1-ndk-source/gen/include/aidl/android/hardware/camera/device/BufferRequestStatus.h",
   "underlying_type" : "_ZTIi"
  },
  {
   "alignment" : 4,
   "enum_fields" :
   [
    {
     "enum_field_value" : 0,
     "name" : "aidl::android::hardware::camera::device::StreamConfigurationMode::NORMAL_MODE"
    },
    {
     "enum_field_value" : 1,
     "name" : "aidl::android::hardware::camera::device::StreamConfigurationMode::CONSTRAINED_HIGH_SPEED_MODE"
    },
    {
     "enum_field_value" : 32768,
     "name" : "aidl::android::hardware::camera::device::StreamConfigurationMode::VENDOR_MODE_0"
    },
    {
     "enum_field_value" : 32769,
     "name" : "aidl::android::hardware::camera::device::StreamConfigurationMode::VENDOR_MODE_1"
    },
    {
     "enum_field_value" : 32770,
     "name" : "aidl::android::hardware::camera::device::StreamConfigurationMode::VENDOR_MODE_2"
    },
    {
     "enum_field_value" : 32771,
     "name" : "aidl::android::hardware::camera::device::StreamConfigurationMode::VENDOR_MODE_3"
    },
    {
     "enum_field_value" : 32772,
     "name" : "aidl::android::hardware::camera::device::StreamConfigurationMode::VENDOR_MODE_4"
    },
    {
     "enum_field_value" : 32773,
     "name" : "aidl::android::hardware::camera::device::StreamConfigurationMode::VENDOR_MODE_5"
    },
    {
     "enum_field_value" : 32774,
     "name" : "aidl::android::hardware::camera::device::StreamConfigurationMode::VENDOR_MODE_6"
    },
    {
     "enum_field_value" : 32775,
     "name" : "aidl::android::hardware::camera::device::StreamConfigurationMode::VENDOR_MODE_7"
    }
   ],
   "linker_set_key" : "_ZTIN4aidl7android8hardware6camera6device23StreamConfigurationModeE",
   "name" : "aidl::android::hardware::camera::device::StreamConfigurationMode",
   "referenced_type" : "_ZTIN4aidl7android8hardware6camera6device23StreamConfigurationModeE",
   "self_type" : "_ZTIN4aidl7android8hardware6camera6device23StreamConfigurationModeE",
   "size" : 4,
   "source_file" : "out/soong/.intermediates/hardware/interfaces/camera/device/aidl/android.hardware.camera.device-V1-ndk-source/gen/include/aidl/android/hardware/camera/device/StreamConfigurationMode.h",
   "underlying_type" : "_ZTIi"
  },
  {
   "alignment" : 4,
   "enum_fields" :
   [
    {
     "enum_field_value" : 1,
     "name" : "aidl::android::hardware::camera::device::StreamBufferRequestError::NO_BUFFER_AVAILABLE"
    },
    {
     "enum_field_value" : 2,
     "name" : "aidl::android::hardware::camera::device::StreamBufferRequestError::MAX_BUFFER_EXCEEDED"
    },
    {
     "enum_field_value" : 3,
     "name" : "aidl::android::hardware::camera::device::StreamBufferRequestError::STREAM_DISCONNECTED"
    },
    {
     "enum_field_value" : 4,
     "name" : "aidl::android::hardware::camera::device::StreamBufferRequestError::UNKNOWN_ERROR"
    }
   ],
   "linker_set_key" : "_ZTIN4aidl7android8hardware6camera6device24StreamBufferRequestErrorE",
   "name" : "aidl::android::hardware::camera::device::StreamBufferRequestError",
   "referenced_type" : "_ZTIN4aidl7android8hardware6camera6device24StreamBufferRequestErrorE",
   "self_type" : "_ZTIN4aidl7android8hardware6camera6device24StreamBufferRequestErrorE",
   "size" : 4,
   "source_file" : "out/soong/.intermediates/hardware/interfaces/camera/device/aidl/android.hardware.camera.device-V1-ndk-source/gen/include/aidl/android/hardware/camera/device/StreamBufferRequestError.h",
   "underlying_type" : "_ZTIi"
  },
  {
   "alignment" : 4,
   "enum_fields" :
   [
    {
     "enum_field_value" : 1,
     "name" : "aidl::android::hardware::camera::device::ErrorCode::ERROR_DEVICE"
    },
    {
     "enum_field_value" : 2,
     "name" : "aidl::android::hardware::camera::device::ErrorCode::ERROR_REQUEST"
    },
    {
     "enum_field_value" : 3,
     "name" : "aidl::android::hardware::camera::device::ErrorCode::ERROR_RESULT"
    },
    {
     "enum_field_value" : 4,
     "name" : "aidl::android::hardware::camera::device::ErrorCode::ERROR_BUFFER"
    }
   ],
   "linker_set_key" : "_ZTIN4aidl7android8hardware6camera6device9ErrorCodeE",
   "name" : "aidl::android::hardware::camera::device::ErrorCode",
   "referenced_type" : "_ZTIN4aidl7android8hardware6camera6device9ErrorCodeE",
   "self_type" : "_ZTIN4aidl7android8hardware6camera6device9ErrorCodeE",
   "size" : 4,
   "source_file" : "out/soong/.intermediates/hardware/interfaces/camera/device/aidl/android.hardware.camera.device-V1-ndk-source/gen/include/aidl/android/hardware/camera/device/ErrorCode.h",
   "underlying_type" : "_ZTIi"
  },
  {
   "alignment" : 4,
   "enum_fields" :
   [
    {
     "enum_field_value" : 0,
     "name" : "aidl::android::hardware::camera::device::NotifyMsg::Tag::error"
    },
    {
     "enum_field_value" : 1,
     "name" : "aidl::android::hardware::camera::device::NotifyMsg::Tag::shutter"
    }
   ],
   "linker_set_key" : "_ZTIN4aidl7android8hardware6camera6device9NotifyMsg3TagE",
   "name" : "aidl::android::hardware::camera::device::NotifyMsg::Tag",
   "referenced_type" : "_ZTIN4aidl7android8hardware6camera6device9NotifyMsg3TagE",
   "self_type" : "_ZTIN4aidl7android8hardware6camera6device9NotifyMsg3TagE",
   "size" : 4,
   "source_file" : "out/soong/.intermediates/hardware/interfaces/camera/device/aidl/android.hardware.camera.device-V1-ndk-source/gen/include/aidl/android/hardware/camera/device/NotifyMsg.h",
   "underlying_type" : "_ZTIi"
  },
  {
   "alignment" : 4,
   "enum_fields" :
   [
    {
     "enum_field_value" : 0,
     "name" : "aidl::android::hardware::camera::metadata::SensorPixelMode::ANDROID_SENSOR_PIXEL_MODE_DEFAULT"
    },
    {
     "enum_field_value" : 1,
     "name" : "aidl::android::hardware::camera::metadata::SensorPixelMode::ANDROID_SENSOR_PIXEL_MODE_MAXIMUM_RESOLUTION"
    }
   ],
   "linker_set_key" : "_ZTIN4aidl7android8hardware6camera8metadata15SensorPixelModeE",
   "name" : "aidl::android::hardware::camera::metadata::SensorPixelMode",
   "referenced_type" : "_ZTIN4aidl7android8hardware6camera8metadata15SensorPixelModeE",
   "self_type" : "_ZTIN4aidl7android8hardware6camera8metadata15SensorPixelModeE",
   "size" : 4,
   "source_file" : "out/soong/.intermediates/hardware/interfaces/camera/metadata/aidl/android.hardware.camera.metadata-V1-ndk-source/gen/include/aidl/android/hardware/camera/metadata/SensorPixelMode.h",
   "underlying_type" : "_ZTIi"
  },
  {
   "alignment" : 4,
   "enum_fields" :
   [
    {
     "enum_field_value" : 0,
     "name" : "aidl::android::hardware::camera::metadata::ScalerAvailableStreamUseCases::ANDROID_SCALER_AVAILABLE_STREAM_USE_CASES_DEFAULT"
    },
    {
     "enum_field_value" : 1,
     "name" : "aidl::android::hardware::camera::metadata::ScalerAvailableStreamUseCases::ANDROID_SCALER_AVAILABLE_STREAM_USE_CASES_PREVIEW"
    },
    {
     "enum_field_value" : 2,
     "name" : "aidl::android::hardware::camera::metadata::ScalerAvailableStreamUseCases::ANDROID_SCALER_AVAILABLE_STREAM_USE_CASES_STILL_CAPTURE"
    },
    {
     "enum_field_value" : 3,
     "name" : "aidl::android::hardware::camera::metadata::ScalerAvailableStreamUseCases::ANDROID_SCALER_AVAILABLE_STREAM_USE_CASES_VIDEO_RECORD"
    },
    {
     "enum_field_value" : 4,
     "name" : "aidl::android::hardware::camera::metadata::ScalerAvailableStreamUseCases::ANDROID_SCALER_AVAILABLE_STREAM_USE_CASES_PREVIEW_VIDEO_STILL"
    },
    {
     "enum_field_value" : 5,
     "name" : "aidl::android::hardware::camera::metadata::ScalerAvailableStreamUseCases::ANDROID_SCALER_AVAILABLE_STREAM_USE_CASES_VIDEO_CALL"
    },
    {
     "enum_field_value" : 65536,
     "name" : "aidl::android::hardware::camera::metadata::ScalerAvailableStreamUseCases::ANDROID_SCALER_AVAILABLE_STREAM_USE_CASES_VENDOR_START"
    }
   ],
   "linker_set_key" : "_ZTIN4aidl7android8hardware6camera8metadata29ScalerAvailableStreamUseCasesE",
   "name" : "aidl::android::hardware::camera::metadata::ScalerAvailableStreamUseCases",
   "referenced_type" : "_ZTIN4aidl7android8hardware6camera8metadata29ScalerAvailableStreamUseCasesE",
   "self_type" : "_ZTIN4aidl7android8hardware6camera8metadata29ScalerAvailableStreamUseCasesE",
   "size" : 8,
   "source_file" : "out/soong/.intermediates/hardware/interfaces/camera/metadata/aidl/android.hardware.camera.metadata-V1-ndk-source/gen/include/aidl/android/hardware/camera/metadata/ScalerAvailableStreamUseCases.h",
   "underlying_type" : "_ZTIx"
  },
  {
   "alignment" : 4,
   "enum_fields" :
   [
    {
     "enum_field_value" : 1,
     "name" : "aidl::android::hardware::camera::metadata::RequestAvailableDynamicRangeProfilesMap::ANDROID_REQUEST_AVAILABLE_DYNAMIC_RANGE_PROFILES_MAP_STANDARD"
    },
    {
     "enum_field_value" : 2,
     "name" : "aidl::android::hardware::camera::metadata::RequestAvailableDynamicRangeProfilesMap::ANDROID_REQUEST_AVAILABLE_DYNAMIC_RANGE_PROFILES_MAP_HLG10"
    },
    {
     "enum_field_value" : 4,
     "name" : "aidl::android::hardware::camera::metadata::RequestAvailableDynamicRangeProfilesMap::ANDROID_REQUEST_AVAILABLE_DYNAMIC_RANGE_PROFILES_MAP_HDR10"
    },
    {
     "enum_field_value" : 8,
     "name" : "aidl::android::hardware::camera::metadata::RequestAvailableDynamicRangeProfilesMap::ANDROID_REQUEST_AVAILABLE_DYNAMIC_RANGE_PROFILES_MAP_HDR10_PLUS"
    },
    {
     "enum_field_value" : 16,
     "name" : "aidl::android::hardware::camera::metadata::RequestAvailableDynamicRangeProfilesMap::ANDROID_REQUEST_AVAILABLE_DYNAMIC_RANGE_PROFILES_MAP_DOLBY_VISION_10B_HDR_REF"
    },
    {
     "enum_field_value" : 32,
     "name" : "aidl::android::hardware::camera::metadata::RequestAvailableDynamicRangeProfilesMap::ANDROID_REQUEST_AVAILABLE_DYNAMIC_RANGE_PROFILES_MAP_DOLBY_VISION_10B_HDR_REF_PO"
    },
    {
     "enum_field_value" : 64,
     "name" : "aidl::android::hardware::camera::metadata::RequestAvailableDynamicRangeProfilesMap::ANDROID_REQUEST_AVAILABLE_DYNAMIC_RANGE_PROFILES_MAP_DOLBY_VISION_10B_HDR_OEM"
    },
    {
     "enum_field_value" : 128,
     "name" : "aidl::android::hardware::camera::metadata::RequestAvailableDynamicRangeProfilesMap::ANDROID_REQUEST_AVAILABLE_DYNAMIC_RANGE_PROFILES_MAP_DOLBY_VISION_10B_HDR_OEM_PO"
    },
    {
     "enum_field_value" : 256,
     "name" : "aidl::android::hardware::camera::metadata::RequestAvailableDynamicRangeProfilesMap::ANDROID_REQUEST_AVAILABLE_DYNAMIC_RANGE_PROFILES_MAP_DOLBY_VISION_8B_HDR_REF"
    },
    {
     "enum_field_value" : 512,
     "name" : "aidl::android::hardware::camera::metadata::RequestAvailableDynamicRangeProfilesMap::ANDROID_REQUEST_AVAILABLE_DYNAMIC_RANGE_PROFILES_MAP_DOLBY_VISION_8B_HDR_REF_PO"
    },
    {
     "enum_field_value" : 1024,
     "name" : "aidl::android::hardware::camera::metadata::RequestAvailableDynamicRangeProfilesMap::ANDROID_REQUEST_AVAILABLE_DYNAMIC_RANGE_PROFILES_MAP_DOLBY_VISION_8B_HDR_OEM"
    },
    {
     "enum_field_value" : 2048,
     "name" : "aidl::android::hardware::camera::metadata::RequestAvailableDynamicRangeProfilesMap::ANDROID_REQUEST_AVAILABLE_DYNAMIC_RANGE_PROFILES_MAP_DOLBY_VISION_8B_HDR_OEM_PO"
    },
    {
     "enum_field_value" : 4096,
     "name" : "aidl::android::hardware::camera::metadata::RequestAvailableDynamicRangeProfilesMap::ANDROID_REQUEST_AVAILABLE_DYNAMIC_RANGE_PROFILES_MAP_MAX"
    }
   ],
   "linker_set_key" : "_ZTIN4aidl7android8hardware6camera8metadata39RequestAvailableDynamicRangeProfilesMapE",
   "name" : "aidl::android::hardware::camera::metadata::RequestAvailableDynamicRangeProfilesMap",
   "referenced_type" : "_ZTIN4aidl7android8hardware6camera8metadata39RequestAvailableDynamicRangeProfilesMapE",
   "self_type" : "_ZTIN4aidl7android8hardware6camera8metadata39RequestAvailableDynamicRangeProfilesMapE",
   "size" : 8,
   "source_file" : "out/soong/.intermediates/hardware/interfaces/camera/metadata/aidl/android.hardware.camera.metadata-V1-ndk-source/gen/include/aidl/android/hardware/camera/metadata/RequestAvailableDynamicRangeProfilesMap.h",
   "underlying_type" : "_ZTIx"
  },
  {
   "alignment" : 1,
   "enum_fields" :
   [
    {
     "enum_field_value" : 0,
     "name" : "aidl::android::hardware::common::fmq::SynchronizedReadWrite::EMPTY"
    }
   ],
   "linker_set_key" : "_ZTIN4aidl7android8hardware6common3fmq21SynchronizedReadWriteE",
   "name" : "aidl::android::hardware::common::fmq::SynchronizedReadWrite",
   "referenced_type" : "_ZTIN4aidl7android8hardware6common3fmq21SynchronizedReadWriteE",
   "self_type" : "_ZTIN4aidl7android8hardware6common3fmq21SynchronizedReadWriteE",
   "size" : 1,
   "source_file" : "out/soong/.intermediates/hardware/interfaces/common/fmq/aidl/android.hardware.common.fmq-V1-ndk-source/gen/include/aidl/android/hardware/common/fmq/SynchronizedReadWrite.h",
   "underlying_type" : "_ZTIa"
  },
  {
   "alignment" : 4,
   "enum_fields" :
   [
    {
     "enum_field_value" : 15,
     "name" : "aidl::android::hardware::graphics::common::BufferUsage::CPU_READ_MASK"
    },
    {
     "enum_field_value" : 0,
     "name" : "aidl::android::hardware::graphics::common::BufferUsage::CPU_READ_NEVER"
    },
    {
     "enum_field_value" : 2,
     "name" : "aidl::android::hardware::graphics::common::BufferUsage::CPU_READ_RARELY"
    },
    {
     "enum_field_value" : 3,
     "name" : "aidl::android::hardware::graphics::common::BufferUsage::CPU_READ_OFTEN"
    },
    {
     "enum_field_value" : 240,
     "name" : "aidl::android::hardware::graphics::common::BufferUsage::CPU_WRITE_MASK"
    },
    {
     "enum_field_value" : 0,
     "name" : "aidl::android::hardware::graphics::common::BufferUsage::CPU_WRITE_NEVER"
    },
    {
     "enum_field_value" : 32,
     "name" : "aidl::android::hardware::graphics::common::BufferUsage::CPU_WRITE_RARELY"
    },
    {
     "enum_field_value" : 48,
     "name" : "aidl::android::hardware::graphics::common::BufferUsage::CPU_WRITE_OFTEN"
    },
    {
     "enum_field_value" : 256,
     "name" : "aidl::android::hardware::graphics::common::BufferUsage::GPU_TEXTURE"
    },
    {
     "enum_field_value" : 512,
     "name" : "aidl::android::hardware::graphics::common::BufferUsage::GPU_RENDER_TARGET"
    },
    {
     "enum_field_value" : 2048,
     "name" : "aidl::android::hardware::graphics::common::BufferUsage::COMPOSER_OVERLAY"
    },
    {
     "enum_field_value" : 4096,
     "name" : "aidl::android::hardware::graphics::common::BufferUsage::COMPOSER_CLIENT_TARGET"
    },
    {
     "enum_field_value" : 16384,
     "name" : "aidl::android::hardware::graphics::common::BufferUsage::PROTECTED"
    },
    {
     "enum_field_value" : 32768,
     "name" : "aidl::android::hardware::graphics::common::BufferUsage::COMPOSER_CURSOR"
    },
    {
     "enum_field_value" : 65536,
     "name" : "aidl::android::hardware::graphics::common::BufferUsage::VIDEO_ENCODER"
    },
    {
     "enum_field_value" : 131072,
     "name" : "aidl::android::hardware::graphics::common::BufferUsage::CAMERA_OUTPUT"
    },
    {
     "enum_field_value" : 262144,
     "name" : "aidl::android::hardware::graphics::common::BufferUsage::CAMERA_INPUT"
    },
    {
     "enum_field_value" : 1048576,
     "name" : "aidl::android::hardware::graphics::common::BufferUsage::RENDERSCRIPT"
    },
    {
     "enum_field_value" : 4194304,
     "name" : "aidl::android::hardware::graphics::common::BufferUsage::VIDEO_DECODER"
    },
    {
     "enum_field_value" : 8388608,
     "name" : "aidl::android::hardware::graphics::common::BufferUsage::SENSOR_DIRECT_DATA"
    },
    {
     "enum_field_value" : 16777216,
     "name" : "aidl::android::hardware::graphics::common::BufferUsage::GPU_DATA_BUFFER"
    },
    {
     "enum_field_value" : 33554432,
     "name" : "aidl::android::hardware::graphics::common::BufferUsage::GPU_CUBE_MAP"
    },
    {
     "enum_field_value" : 67108864,
     "name" : "aidl::android::hardware::graphics::common::BufferUsage::GPU_MIPMAP_COMPLETE"
    },
    {
     "enum_field_value" : 134217728,
     "name" : "aidl::android::hardware::graphics::common::BufferUsage::HW_IMAGE_ENCODER"
    },
    {
     "enum_field_value" : 0,
     "name" : "aidl::android::hardware::graphics::common::BufferUsage::FRONT_BUFFER"
    },
    {
     "enum_field_value" : -268435456,
     "name" : "aidl::android::hardware::graphics::common::BufferUsage::VENDOR_MASK"
    },
    {
     "enum_field_value" : 0,
     "name" : "aidl::android::hardware::graphics::common::BufferUsage::VENDOR_MASK_HI"
    }
   ],
   "linker_set_key" : "_ZTIN4aidl7android8hardware8graphics6common11BufferUsageE",
   "name" : "aidl::android::hardware::graphics::common::BufferUsage",
   "referenced_type" : "_ZTIN4aidl7android8hardware8graphics6common11BufferUsageE",
   "self_type" : "_ZTIN4aidl7android8hardware8graphics6common11BufferUsageE",
   "size" : 8,
   "source_file" : "out/soong/.intermediates/hardware/interfaces/graphics/common/aidl/android.hardware.graphics.common-V3-ndk-source/gen/include/aidl/android/hardware/graphics/common/BufferUsage.h",
   "underlying_type" : "_ZTIx"
  },
  {
   "alignment" : 4,
   "enum_fields" :
   [
    {
     "enum_field_value" : 0,
     "name" : "aidl::android::hardware::graphics::common::PixelFormat::UNSPECIFIED"
    },
    {
     "enum_field_value" : 1,
     "name" : "aidl::android::hardware::graphics::common::PixelFormat::RGBA_8888"
    },
    {
     "enum_field_value" : 2,
     "name" : "aidl::android::hardware::graphics::common::PixelFormat::RGBX_8888"
    },
    {
     "enum_field_value" : 3,
     "name" : "aidl::android::hardware::graphics::common::PixelFormat::RGB_888"
    },
    {
     "enum_field_value" : 4,
     "name" : "aidl::android::hardware::graphics::common::PixelFormat::RGB_565"
    },
    {
     "enum_field_value" : 5,
     "name" : "aidl::android::hardware::graphics::common::PixelFormat::BGRA_8888"
    },
    {
     "enum_field_value" : 16,
     "name" : "aidl::android::hardware::graphics::common::PixelFormat::YCBCR_422_SP"
    },
    {
     "enum_field_value" : 17,
     "name" : "aidl::android::hardware::graphics::common::PixelFormat::YCRCB_420_SP"
    },
    {
     "enum_field_value" : 20,
     "name" : "aidl::android::hardware::graphics::common::PixelFormat::YCBCR_422_I"
    },
    {
     "enum_field_value" : 22,
     "name" : "aidl::android::hardware::graphics::common::PixelFormat::RGBA_FP16"
    },
    {
     "enum_field_value" : 32,
     "name" : "aidl::android::hardware::graphics::common::PixelFormat::RAW16"
    },
    {
     "enum_field_value" : 33,
     "name" : "aidl::android::hardware::graphics::common::PixelFormat::BLOB"
    },
    {
     "enum_field_value" : 34,
     "name" : "aidl::android::hardware::graphics::common::PixelFormat::IMPLEMENTATION_DEFINED"
    },
    {
     "enum_field_value" : 35,
     "name" : "aidl::android::hardware::graphics::common::PixelFormat::YCBCR_420_888"
    },
    {
     "enum_field_value" : 36,
     "name" : "aidl::android::hardware::graphics::common::PixelFormat::RAW_OPAQUE"
    },
    {
     "enum_field_value" : 37,
     "name" : "aidl::android::hardware::graphics::common::PixelFormat::RAW10"
    },
    {
     "enum_field_value" : 38,
     "name" : "aidl::android::hardware::graphics::common::PixelFormat::RAW12"
    },
    {
     "enum_field_value" : 43,
     "name" : "aidl::android::hardware::graphics::common::PixelFormat::RGBA_1010102"
    },
    {
     "enum_field_value" : 538982489,
     "name" : "aidl::android::hardware::graphics::common::PixelFormat::Y8"
    },
    {
     "enum_field_value" : 540422489,
     "name" : "aidl::android::hardware::graphics::common::PixelFormat::Y16"
    },
    {
     "enum_field_value" : 842094169,
     "name" : "aidl::android::hardware::graphics::common::PixelFormat::YV12"
    },
    {
     "enum_field_value" : 48,
     "name" : "aidl::android::hardware::graphics::common::PixelFormat::DEPTH_16"
    },
    {
     "enum_field_value" : 49,
     "name" : "aidl::android::hardware::graphics::common::PixelFormat::DEPTH_24"
    },
    {
     "enum_field_value" : 50,
     "name" : "aidl::android::hardware::graphics::common::PixelFormat::DEPTH_24_STENCIL_8"
    },
    {
     "enum_field_value" : 51,
     "name" : "aidl::android::hardware::graphics::common::PixelFormat::DEPTH_32F"
    },
    {
     "enum_field_value" : 52,
     "name" : "aidl::android::hardware::graphics::common::PixelFormat::DEPTH_32F_STENCIL_8"
    },
    {
     "enum_field_value" : 53,
     "name" : "aidl::android::hardware::graphics::common::PixelFormat::STENCIL_8"
    },
    {
     "enum_field_value" : 54,
     "name" : "aidl::android::hardware::graphics::common::PixelFormat::YCBCR_P010"
    },
    {
     "enum_field_value" : 55,
     "name" : "aidl::android::hardware::graphics::common::PixelFormat::HSV_888"
    },
    {
     "enum_field_value" : 56,
     "name" : "aidl::android::hardware::graphics::common::PixelFormat::R_8"
    }
   ],
   "linker_set_key" : "_ZTIN4aidl7android8hardware8graphics6common11PixelFormatE",
   "name" : "aidl::android::hardware::graphics::common::PixelFormat",
   "referenced_type" : "_ZTIN4aidl7android8hardware8graphics6common11PixelFormatE",
   "self_type" : "_ZTIN4aidl7android8hardware8graphics6common11PixelFormatE",
   "size" : 4,
   "source_file" : "out/soong/.intermediates/hardware/interfaces/graphics/common/aidl/android.hardware.graphics.common-V3-ndk-source/gen/include/aidl/android/hardware/graphics/common/PixelFormat.h",
   "underlying_type" : "_ZTIi"
  },
  {
   "alignment" : 4,
   "enum_fields" :
   [
    {
     "enum_field_value" : 0,
     "name" : "aidl::android::hardware::graphics::common::Dataspace::UNKNOWN"
    },
    {
     "enum_field_value" : 1,
     "name" : "aidl::android::hardware::graphics::common::Dataspace::ARBITRARY"
    },
    {
     "enum_field_value" : 16,
     "name" : "aidl::android::hardware::graphics::common::Dataspace::STANDARD_SHIFT"
    },
    {
     "enum_field_value" : 4128768,
     "name" : "aidl::android::hardware::graphics::common::Dataspace::STANDARD_MASK"
    },
    {
     "enum_field_value" : 0,
     "name" : "aidl::android::hardware::graphics::common::Dataspace::STANDARD_UNSPECIFIED"
    },
    {
     "enum_field_value" : 65536,
     "name" : "aidl::android::hardware::graphics::common::Dataspace::STANDARD_BT709"
    },
    {
     "enum_field_value" : 131072,
     "name" : "aidl::android::hardware::graphics::common::Dataspace::STANDARD_BT601_625"
    },
    {
     "enum_field_value" : 196608,
     "name" : "aidl::android::hardware::graphics::common::Dataspace::STANDARD_BT601_625_UNADJUSTED"
    },
    {
     "enum_field_value" : 262144,
     "name" : "aidl::android::hardware::graphics::common::Dataspace::STANDARD_BT601_525"
    },
    {
     "enum_field_value" : 327680,
     "name" : "aidl::android::hardware::graphics::common::Dataspace::STANDARD_BT601_525_UNADJUSTED"
    },
    {
     "enum_field_value" : 393216,
     "name" : "aidl::android::hardware::graphics::common::Dataspace::STANDARD_BT2020"
    },
    {
     "enum_field_value" : 458752,
     "name" : "aidl::android::hardware::graphics::common::Dataspace::STANDARD_BT2020_CONSTANT_LUMINANCE"
    },
    {
     "enum_field_value" : 524288,
     "name" : "aidl::android::hardware::graphics::common::Dataspace::STANDARD_BT470M"
    },
    {
     "enum_field_value" : 589824,
     "name" : "aidl::android::hardware::graphics::common::Dataspace::STANDARD_FILM"
    },
    {
     "enum_field_value" : 655360,
     "name" : "aidl::android::hardware::graphics::common::Dataspace::STANDARD_DCI_P3"
    },
    {
     "enum_field_value" : 720896,
     "name" : "aidl::android::hardware::graphics::common::Dataspace::STANDARD_ADOBE_RGB"
    },
    {
     "enum_field_value" : 22,
     "name" : "aidl::android::hardware::graphics::common::Dataspace::TRANSFER_SHIFT"
    },
    {
     "enum_field_value" : 130023424,
     "name" : "aidl::android::hardware::graphics::common::Dataspace::TRANSFER_MASK"
    },
    {
     "enum_field_value" : 0,
     "name" : "aidl::android::hardware::graphics::common::Dataspace::TRANSFER_UNSPECIFIED"
    },
    {
     "enum_field_value" : 4194304,
     "name" : "aidl::android::hardware::graphics::common::Dataspace::TRANSFER_LINEAR"
    },
    {
     "enum_field_value" : 8388608,
     "name" : "aidl::android::hardware::graphics::common::Dataspace::TRANSFER_SRGB"
    },
    {
     "enum_field_value" : 12582912,
     "name" : "aidl::android::hardware::graphics::common::Dataspace::TRANSFER_SMPTE_170M"
    },
    {
     "enum_field_value" : 16777216,
     "name" : "aidl::android::hardware::graphics::common::Dataspace::TRANSFER_GAMMA2_2"
    },
    {
     "enum_field_value" : 20971520,
     "name" : "aidl::android::hardware::graphics::common::Dataspace::TRANSFER_GAMMA2_6"
    },
    {
     "enum_field_value" : 25165824,
     "name" : "aidl::android::hardware::graphics::common::Dataspace::TRANSFER_GAMMA2_8"
    },
    {
     "enum_field_value" : 29360128,
     "name" : "aidl::android::hardware::graphics::common::Dataspace::TRANSFER_ST2084"
    },
    {
     "enum_field_value" : 33554432,
     "name" : "aidl::android::hardware::graphics::common::Dataspace::TRANSFER_HLG"
    },
    {
     "enum_field_value" : 27,
     "name" : "aidl::android::hardware::graphics::common::Dataspace::RANGE_SHIFT"
    },
    {
     "enum_field_value" : 939524096,
     "name" : "aidl::android::hardware::graphics::common::Dataspace::RANGE_MASK"
    },
    {
     "enum_field_value" : 0,
     "name" : "aidl::android::hardware::graphics::common::Dataspace::RANGE_UNSPECIFIED"
    },
    {
     "enum_field_value" : 134217728,
     "name" : "aidl::android::hardware::graphics::common::Dataspace::RANGE_FULL"
    },
    {
     "enum_field_value" : 268435456,
     "name" : "aidl::android::hardware::graphics::common::Dataspace::RANGE_LIMITED"
    },
    {
     "enum_field_value" : 402653184,
     "name" : "aidl::android::hardware::graphics::common::Dataspace::RANGE_EXTENDED"
    },
    {
     "enum_field_value" : 138477568,
     "name" : "aidl::android::hardware::graphics::common::Dataspace::SRGB_LINEAR"
    },
    {
     "enum_field_value" : 406913024,
     "name" : "aidl::android::hardware::graphics::common::Dataspace::SCRGB_LINEAR"
    },
    {
     "enum_field_value" : 142671872,
     "name" : "aidl::android::hardware::graphics::common::Dataspace::SRGB"
    },
    {
     "enum_field_value" : 411107328,
     "name" : "aidl::android::hardware::graphics::common::Dataspace::SCRGB"
    },
    {
     "enum_field_value" : 146931712,
     "name" : "aidl::android::hardware::graphics::common::Dataspace::JFIF"
    },
    {
     "enum_field_value" : 281149440,
     "name" : "aidl::android::hardware::graphics::common::Dataspace::BT601_625"
    },
    {
     "enum_field_value" : 281280512,
     "name" : "aidl::android::hardware::graphics::common::Dataspace::BT601_525"
    },
    {
     "enum_field_value" : 281083904,
     "name" : "aidl::android::hardware::graphics::common::Dataspace::BT709"
    },
    {
     "enum_field_value" : 139067392,
     "name" : "aidl::android::hardware::graphics::common::Dataspace::DCI_P3_LINEAR"
    },
    {
     "enum_field_value" : 155844608,
     "name" : "aidl::android::hardware::graphics::common::Dataspace::DCI_P3"
    },
    {
     "enum_field_value" : 139067392,
     "name" : "aidl::android::hardware::graphics::common::Dataspace::DISPLAY_P3_LINEAR"
    },
    {
     "enum_field_value" : 143261696,
     "name" : "aidl::android::hardware::graphics::common::Dataspace::DISPLAY_P3"
    },
    {
     "enum_field_value" : 151715840,
     "name" : "aidl::android::hardware::graphics::common::Dataspace::ADOBE_RGB"
    },
    {
     "enum_field_value" : 138805248,
     "name" : "aidl::android::hardware::graphics::common::Dataspace::BT2020_LINEAR"
    },
    {
     "enum_field_value" : 147193856,
     "name" : "aidl::android::hardware::graphics::common::Dataspace::BT2020"
    },
    {
     "enum_field_value" : 163971072,
     "name" : "aidl::android::hardware::graphics::common::Dataspace::BT2020_PQ"
    },
    {
     "enum_field_value" : 4096,
     "name" : "aidl::android::hardware::graphics::common::Dataspace::DEPTH"
    },
    {
     "enum_field_value" : 4097,
     "name" : "aidl::android::hardware::graphics::common::Dataspace::SENSOR"
    },
    {
     "enum_field_value" : 281411584,
     "name" : "aidl::android::hardware::graphics::common::Dataspace::BT2020_ITU"
    },
    {
     "enum_field_value" : 298188800,
     "name" : "aidl::android::hardware::graphics::common::Dataspace::BT2020_ITU_PQ"
    },
    {
     "enum_field_value" : 302383104,
     "name" : "aidl::android::hardware::graphics::common::Dataspace::BT2020_ITU_HLG"
    },
    {
     "enum_field_value" : 168165376,
     "name" : "aidl::android::hardware::graphics::common::Dataspace::BT2020_HLG"
    },
    {
     "enum_field_value" : 142999552,
     "name" : "aidl::android::hardware::graphics::common::Dataspace::DISPLAY_BT2020"
    },
    {
     "enum_field_value" : 4098,
     "name" : "aidl::android::hardware::graphics::common::Dataspace::DYNAMIC_DEPTH"
    },
    {
     "enum_field_value" : 4099,
     "name" : "aidl::android::hardware::graphics::common::Dataspace::JPEG_APP_SEGMENTS"
    },
    {
     "enum_field_value" : 4100,
     "name" : "aidl::android::hardware::graphics::common::Dataspace::HEIF"
    },
    {
     "enum_field_value" : 146866176,
     "name" : "aidl::android::hardware::graphics::common::Dataspace::BT709_FULL_RANGE"
    }
   ],
   "linker_set_key" : "_ZTIN4aidl7android8hardware8graphics6common9DataspaceE",
   "name" : "aidl::android::hardware::graphics::common::Dataspace",
   "referenced_type" : "_ZTIN4aidl7android8hardware8graphics6common9DataspaceE",
   "self_type" : "_ZTIN4aidl7android8hardware8graphics6common9DataspaceE",
   "size" : 4,
   "source_file" : "out/soong/.intermediates/hardware/interfaces/graphics/common/aidl/android.hardware.graphics.common-V3-ndk-source/gen/include/aidl/android/hardware/graphics/common/Dataspace.h",
   "underlying_type" : "_ZTIi"
  },
  {
   "alignment" : 4,
   "enum_fields" :
   [
    {
     "enum_field_value" : 1,
     "name" : "android::internal::details::IsIterable<std::vector<ndk::ScopedFileDescriptor>>::value"
    }
   ],
   "linker_set_key" : "_ZTIN7android8internal7details10IsIterableINSt3__16vectorIN3ndk20ScopedFileDescriptorENS3_9allocatorIS6_EEEEE6$valueE",
   "name" : "android::internal::details::IsIterable<std::vector<ndk::ScopedFileDescriptor, std::allocator<ndk::ScopedFileDescriptor>>>::(unnamed enum at frameworks/native/libs/binder/ndk/include_cpp/android/binder_to_string.h:131:5)",
   "referenced_type" : "_ZTIN7android8internal7details10IsIterableINSt3__16vectorIN3ndk20ScopedFileDescriptorENS3_9allocatorIS6_EEEEE6$valueE",
   "self_type" : "_ZTIN7android8internal7details10IsIterableINSt3__16vectorIN3ndk20ScopedFileDescriptorENS3_9allocatorIS6_EEEEE6$valueE",
   "size" : 4,
   "source_file" : "frameworks/native/libs/binder/ndk/include_cpp/android/binder_to_string.h",
   "underlying_type" : "_ZTIj"
  },
  {
   "alignment" : 4,
   "enum_fields" :
   [
    {
     "enum_field_value" : 1,
     "name" : "android::internal::details::IsIterable<std::vector<aidl::android::hardware::camera::device::StreamBuffer>>::value"
    }
   ],
   "linker_set_key" : "_ZTIN7android8internal7details10IsIterableINSt3__16vectorIN4aidl7android8hardware6camera6device12StreamBufferENS3_9allocatorISA_EEEEE6$valueE",
   "name" : "android::internal::details::IsIterable<std::vector<aidl::android::hardware::camera::device::StreamBuffer, std::allocator<aidl::android::hardware::camera::device::StreamBuffer>>>::(unnamed enum at frameworks/native/libs/binder/ndk/include_cpp/android/binder_to_string.h:131:5)",
   "referenced_type" : "_ZTIN7android8internal7details10IsIterableINSt3__16vectorIN4aidl7android8hardware6camera6device12StreamBufferENS3_9allocatorISA_EEEEE6$valueE",
   "self_type" : "_ZTIN7android8internal7details10IsIterableINSt3__16vectorIN4aidl7android8hardware6camera6device12StreamBufferENS3_9allocatorISA_EEEEE6$valueE",
   "size" : 4,
   "source_file" : "frameworks/native/libs/binder/ndk/include_cpp/android/binder_to_string.h",
   "underlying_type" : "_ZTIj"
  },
  {
   "alignment" : 4,
   "enum_fields" :
   [
    {
     "enum_field_value" : 1,
     "name" : "android::internal::details::IsIterable<std::vector<aidl::android::hardware::camera::device::OfflineStream>>::value"
    }
   ],
   "linker_set_key" : "_ZTIN7android8internal7details10IsIterableINSt3__16vectorIN4aidl7android8hardware6camera6device13OfflineStreamENS3_9allocatorISA_EEEEE6$valueE",
   "name" : "android::internal::details::IsIterable<std::vector<aidl::android::hardware::camera::device::OfflineStream, std::allocator<aidl::android::hardware::camera::device::OfflineStream>>>::(unnamed enum at frameworks/native/libs/binder/ndk/include_cpp/android/binder_to_string.h:131:5)",
   "referenced_type" : "_ZTIN7android8internal7details10IsIterableINSt3__16vectorIN4aidl7android8hardware6camera6device13OfflineStreamENS3_9allocatorISA_EEEEE6$valueE",
   "self_type" : "_ZTIN7android8internal7details10IsIterableINSt3__16vectorIN4aidl7android8hardware6camera6device13OfflineStreamENS3_9allocatorISA_EEEEE6$valueE",
   "size" : 4,
   "source_file" : "frameworks/native/libs/binder/ndk/include_cpp/android/binder_to_string.h",
   "underlying_type" : "_ZTIj"
  },
  {
   "alignment" : 4,
   "enum_fields" :
   [
    {
     "enum_field_value" : 1,
     "name" : "android::internal::details::IsIterable<std::vector<aidl::android::hardware::camera::device::OfflineRequest>>::value"
    }
   ],
   "linker_set_key" : "_ZTIN7android8internal7details10IsIterableINSt3__16vectorIN4aidl7android8hardware6camera6device14OfflineRequestENS3_9allocatorISA_EEEEE6$valueE",
   "name" : "android::internal::details::IsIterable<std::vector<aidl::android::hardware::camera::device::OfflineRequest, std::allocator<aidl::android::hardware::camera::device::OfflineRequest>>>::(unnamed enum at frameworks/native/libs/binder/ndk/include_cpp/android/binder_to_string.h:131:5)",
   "referenced_type" : "_ZTIN7android8internal7details10IsIterableINSt3__16vectorIN4aidl7android8hardware6camera6device14OfflineRequestENS3_9allocatorISA_EEEEE6$valueE",
   "self_type" : "_ZTIN7android8internal7details10IsIterableINSt3__16vectorIN4aidl7android8hardware6camera6device14OfflineRequestENS3_9allocatorISA_EEEEE6$valueE",
   "size" : 4,
   "source_file" : "frameworks/native/libs/binder/ndk/include_cpp/android/binder_to_string.h",
   "underlying_type" : "_ZTIj"
  },
  {
   "alignment" : 4,
   "enum_fields" :
   [
    {
     "enum_field_value" : 1,
     "name" : "android::internal::details::IsIterable<std::vector<aidl::android::hardware::camera::device::PhysicalCameraSetting>>::value"
    }
   ],
   "linker_set_key" : "_ZTIN7android8internal7details10IsIterableINSt3__16vectorIN4aidl7android8hardware6camera6device21PhysicalCameraSettingENS3_9allocatorISA_EEEEE6$valueE",
   "name" : "android::internal::details::IsIterable<std::vector<aidl::android::hardware::camera::device::PhysicalCameraSetting, std::allocator<aidl::android::hardware::camera::device::PhysicalCameraSetting>>>::(unnamed enum at frameworks/native/libs/binder/ndk/include_cpp/android/binder_to_string.h:131:5)",
   "referenced_type" : "_ZTIN7android8internal7details10IsIterableINSt3__16vectorIN4aidl7android8hardware6camera6device21PhysicalCameraSettingENS3_9allocatorISA_EEEEE6$valueE",
   "self_type" : "_ZTIN7android8internal7details10IsIterableINSt3__16vectorIN4aidl7android8hardware6camera6device21PhysicalCameraSettingENS3_9allocatorISA_EEEEE6$valueE",
   "size" : 4,
   "source_file" : "frameworks/native/libs/binder/ndk/include_cpp/android/binder_to_string.h",
   "underlying_type" : "_ZTIj"
  },
  {
   "alignment" : 4,
   "enum_fields" :
   [
    {
     "enum_field_value" : 1,
     "name" : "android::internal::details::IsIterable<std::vector<aidl::android::hardware::camera::device::PhysicalCameraMetadata>>::value"
    }
   ],
   "linker_set_key" : "_ZTIN7android8internal7details10IsIterableINSt3__16vectorIN4aidl7android8hardware6camera6device22PhysicalCameraMetadataENS3_9allocatorISA_EEEEE6$valueE",
   "name" : "android::internal::details::IsIterable<std::vector<aidl::android::hardware::camera::device::PhysicalCameraMetadata, std::allocator<aidl::android::hardware::camera::device::PhysicalCameraMetadata>>>::(unnamed enum at frameworks/native/libs/binder/ndk/include_cpp/android/binder_to_string.h:131:5)",
   "referenced_type" : "_ZTIN7android8internal7details10IsIterableINSt3__16vectorIN4aidl7android8hardware6camera6device22PhysicalCameraMetadataENS3_9allocatorISA_EEEEE6$valueE",
   "self_type" : "_ZTIN7android8internal7details10IsIterableINSt3__16vectorIN4aidl7android8hardware6camera6device22PhysicalCameraMetadataENS3_9allocatorISA_EEEEE6$valueE",
   "size" : 4,
   "source_file" : "frameworks/native/libs/binder/ndk/include_cpp/android/binder_to_string.h",
   "underlying_type" : "_ZTIj"
  },
  {
   "alignment" : 4,
   "enum_fields" :
   [
    {
     "enum_field_value" : 1,
     "name" : "android::internal::details::IsIterable<std::vector<aidl::android::hardware::camera::device::Stream>>::value"
    }
   ],
   "linker_set_key" : "_ZTIN7android8internal7details10IsIterableINSt3__16vectorIN4aidl7android8hardware6camera6device6StreamENS3_9allocatorISA_EEEEE6$valueE",
   "name" : "android::internal::details::IsIterable<std::vector<aidl::android::hardware::camera::device::Stream, std::allocator<aidl::android::hardware::camera::device::Stream>>>::(unnamed enum at frameworks/native/libs/binder/ndk/include_cpp/android/binder_to_string.h:131:5)",
   "referenced_type" : "_ZTIN7android8internal7details10IsIterableINSt3__16vectorIN4aidl7android8hardware6camera6device6StreamENS3_9allocatorISA_EEEEE6$valueE",
   "self_type" : "_ZTIN7android8internal7details10IsIterableINSt3__16vectorIN4aidl7android8hardware6camera6device6StreamENS3_9allocatorISA_EEEEE6$valueE",
   "size" : 4,
   "source_file" : "frameworks/native/libs/binder/ndk/include_cpp/android/binder_to_string.h",
   "underlying_type" : "_ZTIj"
  },
  {
   "alignment" : 4,
   "enum_fields" :
   [
    {
     "enum_field_value" : 1,
     "name" : "android::internal::details::IsIterable<std::vector<aidl::android::hardware::camera::metadata::SensorPixelMode>>::value"
    }
   ],
   "linker_set_key" : "_ZTIN7android8internal7details10IsIterableINSt3__16vectorIN4aidl7android8hardware6camera8metadata15SensorPixelModeENS3_9allocatorISA_EEEEE6$valueE",
   "name" : "android::internal::details::IsIterable<std::vector<aidl::android::hardware::camera::metadata::SensorPixelMode, std::allocator<aidl::android::hardware::camera::metadata::SensorPixelMode>>>::(unnamed enum at frameworks/native/libs/binder/ndk/include_cpp/android/binder_to_string.h:131:5)",
   "referenced_type" : "_ZTIN7android8internal7details10IsIterableINSt3__16vectorIN4aidl7android8hardware6camera8metadata15SensorPixelModeENS3_9allocatorISA_EEEEE6$valueE",
   "self_type" : "_ZTIN7android8internal7details10IsIterableINSt3__16vectorIN4aidl7android8hardware6camera8metadata15SensorPixelModeENS3_9allocatorISA_EEEEE6$valueE",
   "size" : 4,
   "source_file" : "frameworks/native/libs/binder/ndk/include_cpp/android/binder_to_string.h",
   "underlying_type" : "_ZTIj"
  },
  {
   "alignment" : 4,
   "enum_fields" :
   [
    {
     "enum_field_value" : 1,
     "name" : "android::internal::details::IsIterable<std::vector<std::basic_string<char>>>::value"
    }
   ],
   "linker_set_key" : "_ZTIN7android8internal7details10IsIterableINSt3__16vectorINS3_12basic_stringIcNS3_11char_traitsIcEENS3_9allocatorIcEEEENS8_ISA_EEEEE6$valueE",
   "name" : "android::internal::details::IsIterable<std::vector<std::basic_string<char, std::char_traits<char>, std::allocator<char>>, std::allocator<std::basic_string<char, std::char_traits<char>, std::allocator<char>>>>>::(unnamed enum at frameworks/native/libs/binder/ndk/include_cpp/android/binder_to_string.h:131:5)",
   "referenced_type" : "_ZTIN7android8internal7details10IsIterableINSt3__16vectorINS3_12basic_stringIcNS3_11char_traitsIcEENS3_9allocatorIcEEEENS8_ISA_EEEEE6$valueE",
   "self_type" : "_ZTIN7android8internal7details10IsIterableINSt3__16vectorINS3_12basic_stringIcNS3_11char_traitsIcEENS3_9allocatorIcEEEENS8_ISA_EEEEE6$valueE",
   "size" : 4,
   "source_file" : "frameworks/native/libs/binder/ndk/include_cpp/android/binder_to_string.h",
   "underlying_type" : "_ZTIj"
  },
  {
   "alignment" : 4,
   "enum_fields" :
   [
    {
     "enum_field_value" : 1,
     "name" : "android::internal::details::IsIterable<std::vector<unsigned char>>::value"
    }
   ],
   "linker_set_key" : "_ZTIN7android8internal7details10IsIterableINSt3__16vectorIhNS3_9allocatorIhEEEEE6$valueE",
   "name" : "android::internal::details::IsIterable<std::vector<unsigned char, std::allocator<unsigned char>>>::(unnamed enum at frameworks/native/libs/binder/ndk/include_cpp/android/binder_to_string.h:131:5)",
   "referenced_type" : "_ZTIN7android8internal7details10IsIterableINSt3__16vectorIhNS3_9allocatorIhEEEEE6$valueE",
   "self_type" : "_ZTIN7android8internal7details10IsIterableINSt3__16vectorIhNS3_9allocatorIhEEEEE6$valueE",
   "size" : 4,
   "source_file" : "frameworks/native/libs/binder/ndk/include_cpp/android/binder_to_string.h",
   "underlying_type" : "_ZTIj"
  },
  {
   "alignment" : 4,
   "enum_fields" :
   [
    {
     "enum_field_value" : 1,
     "name" : "android::internal::details::IsIterable<std::vector<int>>::value"
    }
   ],
   "linker_set_key" : "_ZTIN7android8internal7details10IsIterableINSt3__16vectorIiNS3_9allocatorIiEEEEE6$valueE",
   "name" : "android::internal::details::IsIterable<std::vector<int, std::allocator<int>>>::(unnamed enum at frameworks/native/libs/binder/ndk/include_cpp/android/binder_to_string.h:131:5)",
   "referenced_type" : "_ZTIN7android8internal7details10IsIterableINSt3__16vectorIiNS3_9allocatorIiEEEEE6$valueE",
   "self_type" : "_ZTIN7android8internal7details10IsIterableINSt3__16vectorIiNS3_9allocatorIiEEEEE6$valueE",
   "size" : 4,
   "source_file" : "frameworks/native/libs/binder/ndk/include_cpp/android/binder_to_string.h",
   "underlying_type" : "_ZTIj"
  },
  {
   "alignment" : 4,
   "enum_fields" :
   [
    {
     "enum_field_value" : 1,
     "name" : "android::internal::details::IsIterable<std::vector<long long>>::value"
    }
   ],
   "linker_set_key" : "_ZTIN7android8internal7details10IsIterableINSt3__16vectorIxNS3_9allocatorIxEEEEE6$valueE",
   "name" : "android::internal::details::IsIterable<std::vector<long long, std::allocator<long long>>>::(unnamed enum at frameworks/native/libs/binder/ndk/include_cpp/android/binder_to_string.h:131:5)",
   "referenced_type" : "_ZTIN7android8internal7details10IsIterableINSt3__16vectorIxNS3_9allocatorIxEEEEE6$valueE",
   "self_type" : "_ZTIN7android8internal7details10IsIterableINSt3__16vectorIxNS3_9allocatorIxEEEEE6$valueE",
   "size" : 4,
   "source_file" : "frameworks/native/libs/binder/ndk/include_cpp/android/binder_to_string.h",
   "underlying_type" : "_ZTIj"
  },
  {
   "alignment" : 4,
   "enum_fields" :
   [
    {
     "enum_field_value" : 0,
     "name" : "android::internal::details::IsPointerLike<aidl::android::hardware::camera::device::ShutterMsg>::value"
    }
   ],
   "linker_set_key" : "_ZTIN7android8internal7details13IsPointerLikeIN4aidl7android8hardware6camera6device10ShutterMsgEE6$valueE",
   "name" : "android::internal::details::IsPointerLike<aidl::android::hardware::camera::device::ShutterMsg>::(unnamed enum at frameworks/native/libs/binder/ndk/include_cpp/android/binder_to_string.h:118:5)",
   "referenced_type" : "_ZTIN7android8internal7details13IsPointerLikeIN4aidl7android8hardware6camera6device10ShutterMsgEE6$valueE",
   "self_type" : "_ZTIN7android8internal7details13IsPointerLikeIN4aidl7android8hardware6camera6device10ShutterMsgEE6$valueE",
   "size" : 4,
   "source_file" : "frameworks/native/libs/binder/ndk/include_cpp/android/binder_to_string.h",
   "underlying_type" : "_ZTIj"
  },
  {
   "alignment" : 4,
   "enum_fields" :
   [
    {
     "enum_field_value" : 0,
     "name" : "android::internal::details::IsPointerLike<aidl::android::hardware::camera::device::StreamType>::value"
    }
   ],
   "linker_set_key" : "_ZTIN7android8internal7details13IsPointerLikeIN4aidl7android8hardware6camera6device10StreamTypeEE6$valueE",
   "name" : "android::internal::details::IsPointerLike<aidl::android::hardware::camera::device::StreamType>::(unnamed enum at frameworks/native/libs/binder/ndk/include_cpp/android/binder_to_string.h:118:5)",
   "referenced_type" : "_ZTIN7android8internal7details13IsPointerLikeIN4aidl7android8hardware6camera6device10StreamTypeEE6$valueE",
   "self_type" : "_ZTIN7android8internal7details13IsPointerLikeIN4aidl7android8hardware6camera6device10StreamTypeEE6$valueE",
   "size" : 4,
   "source_file" : "frameworks/native/libs/binder/ndk/include_cpp/android/binder_to_string.h",
   "underlying_type" : "_ZTIj"
  },
  {
   "alignment" : 4,
   "enum_fields" :
   [
    {
     "enum_field_value" : 0,
     "name" : "android::internal::details::IsPointerLike<aidl::android::hardware::camera::device::BufferStatus>::value"
    }
   ],
   "linker_set_key" : "_ZTIN7android8internal7details13IsPointerLikeIN4aidl7android8hardware6camera6device12BufferStatusEE6$valueE",
   "name" : "android::internal::details::IsPointerLike<aidl::android::hardware::camera::device::BufferStatus>::(unnamed enum at frameworks/native/libs/binder/ndk/include_cpp/android/binder_to_string.h:118:5)",
   "referenced_type" : "_ZTIN7android8internal7details13IsPointerLikeIN4aidl7android8hardware6camera6device12BufferStatusEE6$valueE",
   "self_type" : "_ZTIN7android8internal7details13IsPointerLikeIN4aidl7android8hardware6camera6device12BufferStatusEE6$valueE",
   "size" : 4,
   "source_file" : "frameworks/native/libs/binder/ndk/include_cpp/android/binder_to_string.h",
   "underlying_type" : "_ZTIj"
  },
  {
   "alignment" : 4,
   "enum_fields" :
   [
    {
     "enum_field_value" : 0,
     "name" : "android::internal::details::IsPointerLike<aidl::android::hardware::camera::device::CameraBlobId>::value"
    }
   ],
   "linker_set_key" : "_ZTIN7android8internal7details13IsPointerLikeIN4aidl7android8hardware6camera6device12CameraBlobIdEE6$valueE",
   "name" : "android::internal::details::IsPointerLike<aidl::android::hardware::camera::device::CameraBlobId>::(unnamed enum at frameworks/native/libs/binder/ndk/include_cpp/android/binder_to_string.h:118:5)",
   "referenced_type" : "_ZTIN7android8internal7details13IsPointerLikeIN4aidl7android8hardware6camera6device12CameraBlobIdEE6$valueE",
   "self_type" : "_ZTIN7android8internal7details13IsPointerLikeIN4aidl7android8hardware6camera6device12CameraBlobIdEE6$valueE",
   "size" : 4,
   "source_file" : "frameworks/native/libs/binder/ndk/include_cpp/android/binder_to_string.h",
   "underlying_type" : "_ZTIj"
  },
  {
   "alignment" : 4,
   "enum_fields" :
   [
    {
     "enum_field_value" : 0,
     "name" : "android::internal::details::IsPointerLike<aidl::android::hardware::camera::device::StreamBuffer>::value"
    }
   ],
   "linker_set_key" : "_ZTIN7android8internal7details13IsPointerLikeIN4aidl7android8hardware6camera6device12StreamBufferEE6$valueE",
   "name" : "android::internal::details::IsPointerLike<aidl::android::hardware::camera::device::StreamBuffer>::(unnamed enum at frameworks/native/libs/binder/ndk/include_cpp/android/binder_to_string.h:118:5)",
   "referenced_type" : "_ZTIN7android8internal7details13IsPointerLikeIN4aidl7android8hardware6camera6device12StreamBufferEE6$valueE",
   "self_type" : "_ZTIN7android8internal7details13IsPointerLikeIN4aidl7android8hardware6camera6device12StreamBufferEE6$valueE",
   "size" : 4,
   "source_file" : "frameworks/native/libs/binder/ndk/include_cpp/android/binder_to_string.h",
   "underlying_type" : "_ZTIj"
  },
  {
   "alignment" : 4,
   "enum_fields" :
   [
    {
     "enum_field_value" : 0,
     "name" : "android::internal::details::IsPointerLike<aidl::android::hardware::camera::device::OfflineStream>::value"
    }
   ],
   "linker_set_key" : "_ZTIN7android8internal7details13IsPointerLikeIN4aidl7android8hardware6camera6device13OfflineStreamEE6$valueE",
   "name" : "android::internal::details::IsPointerLike<aidl::android::hardware::camera::device::OfflineStream>::(unnamed enum at frameworks/native/libs/binder/ndk/include_cpp/android/binder_to_string.h:118:5)",
   "referenced_type" : "_ZTIN7android8internal7details13IsPointerLikeIN4aidl7android8hardware6camera6device13OfflineStreamEE6$valueE",
   "self_type" : "_ZTIN7android8internal7details13IsPointerLikeIN4aidl7android8hardware6camera6device13OfflineStreamEE6$valueE",
   "size" : 4,
   "source_file" : "frameworks/native/libs/binder/ndk/include_cpp/android/binder_to_string.h",
   "underlying_type" : "_ZTIj"
  },
  {
   "alignment" : 4,
   "enum_fields" :
   [
    {
     "enum_field_value" : 0,
     "name" : "android::internal::details::IsPointerLike<aidl::android::hardware::camera::device::CameraMetadata>::value"
    }
   ],
   "linker_set_key" : "_ZTIN7android8internal7details13IsPointerLikeIN4aidl7android8hardware6camera6device14CameraMetadataEE6$valueE",
   "name" : "android::internal::details::IsPointerLike<aidl::android::hardware::camera::device::CameraMetadata>::(unnamed enum at frameworks/native/libs/binder/ndk/include_cpp/android/binder_to_string.h:118:5)",
   "referenced_type" : "_ZTIN7android8internal7details13IsPointerLikeIN4aidl7android8hardware6camera6device14CameraMetadataEE6$valueE",
   "self_type" : "_ZTIN7android8internal7details13IsPointerLikeIN4aidl7android8hardware6camera6device14CameraMetadataEE6$valueE",
   "size" : 4,
   "source_file" : "frameworks/native/libs/binder/ndk/include_cpp/android/binder_to_string.h",
   "underlying_type" : "_ZTIj"
  },
  {
   "alignment" : 4,
   "enum_fields" :
   [
    {
     "enum_field_value" : 0,
     "name" : "android::internal::details::IsPointerLike<aidl::android::hardware::camera::device::OfflineRequest>::value"
    }
   ],
   "linker_set_key" : "_ZTIN7android8internal7details13IsPointerLikeIN4aidl7android8hardware6camera6device14OfflineRequestEE6$valueE",
   "name" : "android::internal::details::IsPointerLike<aidl::android::hardware::camera::device::OfflineRequest>::(unnamed enum at frameworks/native/libs/binder/ndk/include_cpp/android/binder_to_string.h:118:5)",
   "referenced_type" : "_ZTIN7android8internal7details13IsPointerLikeIN4aidl7android8hardware6camera6device14OfflineRequestEE6$valueE",
   "self_type" : "_ZTIN7android8internal7details13IsPointerLikeIN4aidl7android8hardware6camera6device14OfflineRequestEE6$valueE",
   "size" : 4,
   "source_file" : "frameworks/native/libs/binder/ndk/include_cpp/android/binder_to_string.h",
   "underlying_type" : "_ZTIj"
  },
  {
   "alignment" : 4,
   "enum_fields" :
   [
    {
     "enum_field_value" : 0,
     "name" : "android::internal::details::IsPointerLike<aidl::android::hardware::camera::device::StreamRotation>::value"
    }
   ],
   "linker_set_key" : "_ZTIN7android8internal7details13IsPointerLikeIN4aidl7android8hardware6camera6device14StreamRotationEE6$valueE",
   "name" : "android::internal::details::IsPointerLike<aidl::android::hardware::camera::device::StreamRotation>::(unnamed enum at frameworks/native/libs/binder/ndk/include_cpp/android/binder_to_string.h:118:5)",
   "referenced_type" : "_ZTIN7android8internal7details13IsPointerLikeIN4aidl7android8hardware6camera6device14StreamRotationEE6$valueE",
   "self_type" : "_ZTIN7android8internal7details13IsPointerLikeIN4aidl7android8hardware6camera6device14StreamRotationEE6$valueE",
   "size" : 4,
   "source_file" : "frameworks/native/libs/binder/ndk/include_cpp/android/binder_to_string.h",
   "underlying_type" : "_ZTIj"
  },
  {
   "alignment" : 4,
   "enum_fields" :
   [
    {
     "enum_field_value" : 0,
     "name" : "android::internal::details::IsPointerLike<aidl::android::hardware::camera::device::StreamBuffersVal>::value"
    }
   ],
   "linker_set_key" : "_ZTIN7android8internal7details13IsPointerLikeIN4aidl7android8hardware6camera6device16StreamBuffersValEE6$valueE",
   "name" : "android::internal::details::IsPointerLike<aidl::android::hardware::camera::device::StreamBuffersVal>::(unnamed enum at frameworks/native/libs/binder/ndk/include_cpp/android/binder_to_string.h:118:5)",
   "referenced_type" : "_ZTIN7android8internal7details13IsPointerLikeIN4aidl7android8hardware6camera6device16StreamBuffersValEE6$valueE",
   "self_type" : "_ZTIN7android8internal7details13IsPointerLikeIN4aidl7android8hardware6camera6device16StreamBuffersValEE6$valueE",
   "size" : 4,
   "source_file" : "frameworks/native/libs/binder/ndk/include_cpp/android/binder_to_string.h",
   "underlying_type" : "_ZTIj"
  },
  {
   "alignment" : 4,
   "enum_fields" :
   [
    {
     "enum_field_value" : 0,
     "name" : "android::internal::details::IsPointerLike<aidl::android::hardware::camera::device::PhysicalCameraSetting>::value"
    }
   ],
   "linker_set_key" : "_ZTIN7android8internal7details13IsPointerLikeIN4aidl7android8hardware6camera6device21PhysicalCameraSettingEE6$valueE",
   "name" : "android::internal::details::IsPointerLike<aidl::android::hardware::camera::device::PhysicalCameraSetting>::(unnamed enum at frameworks/native/libs/binder/ndk/include_cpp/android/binder_to_string.h:118:5)",
   "referenced_type" : "_ZTIN7android8internal7details13IsPointerLikeIN4aidl7android8hardware6camera6device21PhysicalCameraSettingEE6$valueE",
   "self_type" : "_ZTIN7android8internal7details13IsPointerLikeIN4aidl7android8hardware6camera6device21PhysicalCameraSettingEE6$valueE",
   "size" : 4,
   "source_file" : "frameworks/native/libs/binder/ndk/include_cpp/android/binder_to_string.h",
   "underlying_type" : "_ZTIj"
  },
  {
   "alignment" : 4,
   "enum_fields" :
   [
    {
     "enum_field_value" : 0,
     "name" : "android::internal::details::IsPointerLike<aidl::android::hardware::camera::device::PhysicalCameraMetadata>::value"
    }
   ],
   "linker_set_key" : "_ZTIN7android8internal7details13IsPointerLikeIN4aidl7android8hardware6camera6device22PhysicalCameraMetadataEE6$valueE",
   "name" : "android::internal::details::IsPointerLike<aidl::android::hardware::camera::device::PhysicalCameraMetadata>::(unnamed enum at frameworks/native/libs/binder/ndk/include_cpp/android/binder_to_string.h:118:5)",
   "referenced_type" : "_ZTIN7android8internal7details13IsPointerLikeIN4aidl7android8hardware6camera6device22PhysicalCameraMetadataEE6$valueE",
   "self_type" : "_ZTIN7android8internal7details13IsPointerLikeIN4aidl7android8hardware6camera6device22PhysicalCameraMetadataEE6$valueE",
   "size" : 4,
   "source_file" : "frameworks/native/libs/binder/ndk/include_cpp/android/binder_to_string.h",
   "underlying_type" : "_ZTIj"
  },
  {
   "alignment" : 4,
   "enum_fields" :
   [
    {
     "enum_field_value" : 0,
     "name" : "android::internal::details::IsPointerLike<aidl::android::hardware::camera::device::StreamConfigurationMode>::value"
    }
   ],
   "linker_set_key" : "_ZTIN7android8internal7details13IsPointerLikeIN4aidl7android8hardware6camera6device23StreamConfigurationModeEE6$valueE",
   "name" : "android::internal::details::IsPointerLike<aidl::android::hardware::camera::device::StreamConfigurationMode>::(unnamed enum at frameworks/native/libs/binder/ndk/include_cpp/android/binder_to_string.h:118:5)",
   "referenced_type" : "_ZTIN7android8internal7details13IsPointerLikeIN4aidl7android8hardware6camera6device23StreamConfigurationModeEE6$valueE",
   "self_type" : "_ZTIN7android8internal7details13IsPointerLikeIN4aidl7android8hardware6camera6device23StreamConfigurationModeEE6$valueE",
   "size" : 4,
   "source_file" : "frameworks/native/libs/binder/ndk/include_cpp/android/binder_to_string.h",
   "underlying_type" : "_ZTIj"
  },
  {
   "alignment" : 4,
   "enum_fields" :
   [
    {
     "enum_field_value" : 0,
     "name" : "android::internal::details::IsPointerLike<aidl::android::hardware::camera::device::StreamBufferRequestError>::value"
    }
   ],
   "linker_set_key" : "_ZTIN7android8internal7details13IsPointerLikeIN4aidl7android8hardware6camera6device24StreamBufferRequestErrorEE6$valueE",
   "name" : "android::internal::details::IsPointerLike<aidl::android::hardware::camera::device::StreamBufferRequestError>::(unnamed enum at frameworks/native/libs/binder/ndk/include_cpp/android/binder_to_string.h:118:5)",
   "referenced_type" : "_ZTIN7android8internal7details13IsPointerLikeIN4aidl7android8hardware6camera6device24StreamBufferRequestErrorEE6$valueE",
   "self_type" : "_ZTIN7android8internal7details13IsPointerLikeIN4aidl7android8hardware6camera6device24StreamBufferRequestErrorEE6$valueE",
   "size" : 4,
   "source_file" : "frameworks/native/libs/binder/ndk/include_cpp/android/binder_to_string.h",
   "underlying_type" : "_ZTIj"
  },
  {
   "alignment" : 4,
   "enum_fields" :
   [
    {
     "enum_field_value" : 0,
     "name" : "android::internal::details::IsPointerLike<aidl::android::hardware::camera::device::Stream>::value"
    }
   ],
   "linker_set_key" : "_ZTIN7android8internal7details13IsPointerLikeIN4aidl7android8hardware6camera6device6StreamEE6$valueE",
   "name" : "android::internal::details::IsPointerLike<aidl::android::hardware::camera::device::Stream>::(unnamed enum at frameworks/native/libs/binder/ndk/include_cpp/android/binder_to_string.h:118:5)",
   "referenced_type" : "_ZTIN7android8internal7details13IsPointerLikeIN4aidl7android8hardware6camera6device6StreamEE6$valueE",
   "self_type" : "_ZTIN7android8internal7details13IsPointerLikeIN4aidl7android8hardware6camera6device6StreamEE6$valueE",
   "size" : 4,
   "source_file" : "frameworks/native/libs/binder/ndk/include_cpp/android/binder_to_string.h",
   "underlying_type" : "_ZTIj"
  },
  {
   "alignment" : 4,
   "enum_fields" :
   [
    {
     "enum_field_value" : 0,
     "name" : "android::internal::details::IsPointerLike<aidl::android::hardware::camera::device::ErrorMsg>::value"
    }
   ],
   "linker_set_key" : "_ZTIN7android8internal7details13IsPointerLikeIN4aidl7android8hardware6camera6device8ErrorMsgEE6$valueE",
   "name" : "android::internal::details::IsPointerLike<aidl::android::hardware::camera::device::ErrorMsg>::(unnamed enum at frameworks/native/libs/binder/ndk/include_cpp/android/binder_to_string.h:118:5)",
   "referenced_type" : "_ZTIN7android8internal7details13IsPointerLikeIN4aidl7android8hardware6camera6device8ErrorMsgEE6$valueE",
   "self_type" : "_ZTIN7android8internal7details13IsPointerLikeIN4aidl7android8hardware6camera6device8ErrorMsgEE6$valueE",
   "size" : 4,
   "source_file" : "frameworks/native/libs/binder/ndk/include_cpp/android/binder_to_string.h",
   "underlying_type" : "_ZTIj"
  },
  {
   "alignment" : 4,
   "enum_fields" :
   [
    {
     "enum_field_value" : 0,
     "name" : "android::internal::details::IsPointerLike<aidl::android::hardware::camera::device::ErrorCode>::value"
    }
   ],
   "linker_set_key" : "_ZTIN7android8internal7details13IsPointerLikeIN4aidl7android8hardware6camera6device9ErrorCodeEE6$valueE",
   "name" : "android::internal::details::IsPointerLike<aidl::android::hardware::camera::device::ErrorCode>::(unnamed enum at frameworks/native/libs/binder/ndk/include_cpp/android/binder_to_string.h:118:5)",
   "referenced_type" : "_ZTIN7android8internal7details13IsPointerLikeIN4aidl7android8hardware6camera6device9ErrorCodeEE6$valueE",
   "self_type" : "_ZTIN7android8internal7details13IsPointerLikeIN4aidl7android8hardware6camera6device9ErrorCodeEE6$valueE",
   "size" : 4,
   "source_file" : "frameworks/native/libs/binder/ndk/include_cpp/android/binder_to_string.h",
   "underlying_type" : "_ZTIj"
  },
  {
   "alignment" : 4,
   "enum_fields" :
   [
    {
     "enum_field_value" : 0,
     "name" : "android::internal::details::IsPointerLike<aidl::android::hardware::camera::metadata::SensorPixelMode>::value"
    }
   ],
   "linker_set_key" : "_ZTIN7android8internal7details13IsPointerLikeIN4aidl7android8hardware6camera8metadata15SensorPixelModeEE6$valueE",
   "name" : "android::internal::details::IsPointerLike<aidl::android::hardware::camera::metadata::SensorPixelMode>::(unnamed enum at frameworks/native/libs/binder/ndk/include_cpp/android/binder_to_string.h:118:5)",
   "referenced_type" : "_ZTIN7android8internal7details13IsPointerLikeIN4aidl7android8hardware6camera8metadata15SensorPixelModeEE6$valueE",
   "self_type" : "_ZTIN7android8internal7details13IsPointerLikeIN4aidl7android8hardware6camera8metadata15SensorPixelModeEE6$valueE",
   "size" : 4,
   "source_file" : "frameworks/native/libs/binder/ndk/include_cpp/android/binder_to_string.h",
   "underlying_type" : "_ZTIj"
  },
  {
   "alignment" : 4,
   "enum_fields" :
   [
    {
     "enum_field_value" : 0,
     "name" : "android::internal::details::IsPointerLike<aidl::android::hardware::camera::metadata::ScalerAvailableStreamUseCases>::value"
    }
   ],
   "linker_set_key" : "_ZTIN7android8internal7details13IsPointerLikeIN4aidl7android8hardware6camera8metadata29ScalerAvailableStreamUseCasesEE6$valueE",
   "name" : "android::internal::details::IsPointerLike<aidl::android::hardware::camera::metadata::ScalerAvailableStreamUseCases>::(unnamed enum at frameworks/native/libs/binder/ndk/include_cpp/android/binder_to_string.h:118:5)",
   "referenced_type" : "_ZTIN7android8internal7details13IsPointerLikeIN4aidl7android8hardware6camera8metadata29ScalerAvailableStreamUseCasesEE6$valueE",
   "self_type" : "_ZTIN7android8internal7details13IsPointerLikeIN4aidl7android8hardware6camera8metadata29ScalerAvailableStreamUseCasesEE6$valueE",
   "size" : 4,
   "source_file" : "frameworks/native/libs/binder/ndk/include_cpp/android/binder_to_string.h",
   "underlying_type" : "_ZTIj"
  },
  {
   "alignment" : 4,
   "enum_fields" :
   [
    {
     "enum_field_value" : 0,
     "name" : "android::internal::details::IsPointerLike<aidl::android::hardware::camera::metadata::RequestAvailableDynamicRangeProfilesMap>::value"
    }
   ],
   "linker_set_key" : "_ZTIN7android8internal7details13IsPointerLikeIN4aidl7android8hardware6camera8metadata39RequestAvailableDynamicRangeProfilesMapEE6$valueE",
   "name" : "android::internal::details::IsPointerLike<aidl::android::hardware::camera::metadata::RequestAvailableDynamicRangeProfilesMap>::(unnamed enum at frameworks/native/libs/binder/ndk/include_cpp/android/binder_to_string.h:118:5)",
   "referenced_type" : "_ZTIN7android8internal7details13IsPointerLikeIN4aidl7android8hardware6camera8metadata39RequestAvailableDynamicRangeProfilesMapEE6$valueE",
   "self_type" : "_ZTIN7android8internal7details13IsPointerLikeIN4aidl7android8hardware6camera8metadata39RequestAvailableDynamicRangeProfilesMapEE6$valueE",
   "size" : 4,
   "source_file" : "frameworks/native/libs/binder/ndk/include_cpp/android/binder_to_string.h",
   "underlying_type" : "_ZTIj"
  },
  {
   "alignment" : 4,
   "enum_fields" :
   [
    {
     "enum_field_value" : 0,
     "name" : "android::internal::details::IsPointerLike<aidl::android::hardware::common::NativeHandle>::value"
    }
   ],
   "linker_set_key" : "_ZTIN7android8internal7details13IsPointerLikeIN4aidl7android8hardware6common12NativeHandleEE6$valueE",
   "name" : "android::internal::details::IsPointerLike<aidl::android::hardware::common::NativeHandle>::(unnamed enum at frameworks/native/libs/binder/ndk/include_cpp/android/binder_to_string.h:118:5)",
   "referenced_type" : "_ZTIN7android8internal7details13IsPointerLikeIN4aidl7android8hardware6common12NativeHandleEE6$valueE",
   "self_type" : "_ZTIN7android8internal7details13IsPointerLikeIN4aidl7android8hardware6common12NativeHandleEE6$valueE",
   "size" : 4,
   "source_file" : "frameworks/native/libs/binder/ndk/include_cpp/android/binder_to_string.h",
   "underlying_type" : "_ZTIj"
  },
  {
   "alignment" : 4,
   "enum_fields" :
   [
    {
     "enum_field_value" : 0,
     "name" : "android::internal::details::IsPointerLike<aidl::android::hardware::graphics::common::BufferUsage>::value"
    }
   ],
   "linker_set_key" : "_ZTIN7android8internal7details13IsPointerLikeIN4aidl7android8hardware8graphics6common11BufferUsageEE6$valueE",
   "name" : "android::internal::details::IsPointerLike<aidl::android::hardware::graphics::common::BufferUsage>::(unnamed enum at frameworks/native/libs/binder/ndk/include_cpp/android/binder_to_string.h:118:5)",
   "referenced_type" : "_ZTIN7android8internal7details13IsPointerLikeIN4aidl7android8hardware8graphics6common11BufferUsageEE6$valueE",
   "self_type" : "_ZTIN7android8internal7details13IsPointerLikeIN4aidl7android8hardware8graphics6common11BufferUsageEE6$valueE",
   "size" : 4,
   "source_file" : "frameworks/native/libs/binder/ndk/include_cpp/android/binder_to_string.h",
   "underlying_type" : "_ZTIj"
  },
  {
   "alignment" : 4,
   "enum_fields" :
   [
    {
     "enum_field_value" : 0,
     "name" : "android::internal::details::IsPointerLike<aidl::android::hardware::graphics::common::PixelFormat>::value"
    }
   ],
   "linker_set_key" : "_ZTIN7android8internal7details13IsPointerLikeIN4aidl7android8hardware8graphics6common11PixelFormatEE6$valueE",
   "name" : "android::internal::details::IsPointerLike<aidl::android::hardware::graphics::common::PixelFormat>::(unnamed enum at frameworks/native/libs/binder/ndk/include_cpp/android/binder_to_string.h:118:5)",
   "referenced_type" : "_ZTIN7android8internal7details13IsPointerLikeIN4aidl7android8hardware8graphics6common11PixelFormatEE6$valueE",
   "self_type" : "_ZTIN7android8internal7details13IsPointerLikeIN4aidl7android8hardware8graphics6common11PixelFormatEE6$valueE",
   "size" : 4,
   "source_file" : "frameworks/native/libs/binder/ndk/include_cpp/android/binder_to_string.h",
   "underlying_type" : "_ZTIj"
  },
  {
   "alignment" : 4,
   "enum_fields" :
   [
    {
     "enum_field_value" : 0,
     "name" : "android::internal::details::IsPointerLike<aidl::android::hardware::graphics::common::Dataspace>::value"
    }
   ],
   "linker_set_key" : "_ZTIN7android8internal7details13IsPointerLikeIN4aidl7android8hardware8graphics6common9DataspaceEE6$valueE",
   "name" : "android::internal::details::IsPointerLike<aidl::android::hardware::graphics::common::Dataspace>::(unnamed enum at frameworks/native/libs/binder/ndk/include_cpp/android/binder_to_string.h:118:5)",
   "referenced_type" : "_ZTIN7android8internal7details13IsPointerLikeIN4aidl7android8hardware8graphics6common9DataspaceEE6$valueE",
   "self_type" : "_ZTIN7android8internal7details13IsPointerLikeIN4aidl7android8hardware8graphics6common9DataspaceEE6$valueE",
   "size" : 4,
   "source_file" : "frameworks/native/libs/binder/ndk/include_cpp/android/binder_to_string.h",
   "underlying_type" : "_ZTIj"
  },
  {
   "alignment" : 4,
   "enum_fields" :
   [
    {
     "enum_field_value" : 0,
     "name" : "android::internal::details::IsPointerLike<std::vector<ndk::ScopedFileDescriptor>>::value"
    }
   ],
   "linker_set_key" : "_ZTIN7android8internal7details13IsPointerLikeINSt3__16vectorIN3ndk20ScopedFileDescriptorENS3_9allocatorIS6_EEEEE6$valueE",
   "name" : "android::internal::details::IsPointerLike<std::vector<ndk::ScopedFileDescriptor, std::allocator<ndk::ScopedFileDescriptor>>>::(unnamed enum at frameworks/native/libs/binder/ndk/include_cpp/android/binder_to_string.h:118:5)",
   "referenced_type" : "_ZTIN7android8internal7details13IsPointerLikeINSt3__16vectorIN3ndk20ScopedFileDescriptorENS3_9allocatorIS6_EEEEE6$valueE",
   "self_type" : "_ZTIN7android8internal7details13IsPointerLikeINSt3__16vectorIN3ndk20ScopedFileDescriptorENS3_9allocatorIS6_EEEEE6$valueE",
   "size" : 4,
   "source_file" : "frameworks/native/libs/binder/ndk/include_cpp/android/binder_to_string.h",
   "underlying_type" : "_ZTIj"
  },
  {
   "alignment" : 4,
   "enum_fields" :
   [
    {
     "enum_field_value" : 0,
     "name" : "android::internal::details::IsPointerLike<std::vector<aidl::android::hardware::camera::device::StreamBuffer>>::value"
    }
   ],
   "linker_set_key" : "_ZTIN7android8internal7details13IsPointerLikeINSt3__16vectorIN4aidl7android8hardware6camera6device12StreamBufferENS3_9allocatorISA_EEEEE6$valueE",
   "name" : "android::internal::details::IsPointerLike<std::vector<aidl::android::hardware::camera::device::StreamBuffer, std::allocator<aidl::android::hardware::camera::device::StreamBuffer>>>::(unnamed enum at frameworks/native/libs/binder/ndk/include_cpp/android/binder_to_string.h:118:5)",
   "referenced_type" : "_ZTIN7android8internal7details13IsPointerLikeINSt3__16vectorIN4aidl7android8hardware6camera6device12StreamBufferENS3_9allocatorISA_EEEEE6$valueE",
   "self_type" : "_ZTIN7android8internal7details13IsPointerLikeINSt3__16vectorIN4aidl7android8hardware6camera6device12StreamBufferENS3_9allocatorISA_EEEEE6$valueE",
   "size" : 4,
   "source_file" : "frameworks/native/libs/binder/ndk/include_cpp/android/binder_to_string.h",
   "underlying_type" : "_ZTIj"
  },
  {
   "alignment" : 4,
   "enum_fields" :
   [
    {
     "enum_field_value" : 0,
     "name" : "android::internal::details::IsPointerLike<std::vector<aidl::android::hardware::camera::device::OfflineStream>>::value"
    }
   ],
   "linker_set_key" : "_ZTIN7android8internal7details13IsPointerLikeINSt3__16vectorIN4aidl7android8hardware6camera6device13OfflineStreamENS3_9allocatorISA_EEEEE6$valueE",
   "name" : "android::internal::details::IsPointerLike<std::vector<aidl::android::hardware::camera::device::OfflineStream, std::allocator<aidl::android::hardware::camera::device::OfflineStream>>>::(unnamed enum at frameworks/native/libs/binder/ndk/include_cpp/android/binder_to_string.h:118:5)",
   "referenced_type" : "_ZTIN7android8internal7details13IsPointerLikeINSt3__16vectorIN4aidl7android8hardware6camera6device13OfflineStreamENS3_9allocatorISA_EEEEE6$valueE",
   "self_type" : "_ZTIN7android8internal7details13IsPointerLikeINSt3__16vectorIN4aidl7android8hardware6camera6device13OfflineStreamENS3_9allocatorISA_EEEEE6$valueE",
   "size" : 4,
   "source_file" : "frameworks/native/libs/binder/ndk/include_cpp/android/binder_to_string.h",
   "underlying_type" : "_ZTIj"
  },
  {
   "alignment" : 4,
   "enum_fields" :
   [
    {
     "enum_field_value" : 0,
     "name" : "android::internal::details::IsPointerLike<std::vector<aidl::android::hardware::camera::device::OfflineRequest>>::value"
    }
   ],
   "linker_set_key" : "_ZTIN7android8internal7details13IsPointerLikeINSt3__16vectorIN4aidl7android8hardware6camera6device14OfflineRequestENS3_9allocatorISA_EEEEE6$valueE",
   "name" : "android::internal::details::IsPointerLike<std::vector<aidl::android::hardware::camera::device::OfflineRequest, std::allocator<aidl::android::hardware::camera::device::OfflineRequest>>>::(unnamed enum at frameworks/native/libs/binder/ndk/include_cpp/android/binder_to_string.h:118:5)",
   "referenced_type" : "_ZTIN7android8internal7details13IsPointerLikeINSt3__16vectorIN4aidl7android8hardware6camera6device14OfflineRequestENS3_9allocatorISA_EEEEE6$valueE",
   "self_type" : "_ZTIN7android8internal7details13IsPointerLikeINSt3__16vectorIN4aidl7android8hardware6camera6device14OfflineRequestENS3_9allocatorISA_EEEEE6$valueE",
   "size" : 4,
   "source_file" : "frameworks/native/libs/binder/ndk/include_cpp/android/binder_to_string.h",
   "underlying_type" : "_ZTIj"
  },
  {
   "alignment" : 4,
   "enum_fields" :
   [
    {
     "enum_field_value" : 0,
     "name" : "android::internal::details::IsPointerLike<std::vector<aidl::android::hardware::camera::device::PhysicalCameraSetting>>::value"
    }
   ],
   "linker_set_key" : "_ZTIN7android8internal7details13IsPointerLikeINSt3__16vectorIN4aidl7android8hardware6camera6device21PhysicalCameraSettingENS3_9allocatorISA_EEEEE6$valueE",
   "name" : "android::internal::details::IsPointerLike<std::vector<aidl::android::hardware::camera::device::PhysicalCameraSetting, std::allocator<aidl::android::hardware::camera::device::PhysicalCameraSetting>>>::(unnamed enum at frameworks/native/libs/binder/ndk/include_cpp/android/binder_to_string.h:118:5)",
   "referenced_type" : "_ZTIN7android8internal7details13IsPointerLikeINSt3__16vectorIN4aidl7android8hardware6camera6device21PhysicalCameraSettingENS3_9allocatorISA_EEEEE6$valueE",
   "self_type" : "_ZTIN7android8internal7details13IsPointerLikeINSt3__16vectorIN4aidl7android8hardware6camera6device21PhysicalCameraSettingENS3_9allocatorISA_EEEEE6$valueE",
   "size" : 4,
   "source_file" : "frameworks/native/libs/binder/ndk/include_cpp/android/binder_to_string.h",
   "underlying_type" : "_ZTIj"
  },
  {
   "alignment" : 4,
   "enum_fields" :
   [
    {
     "enum_field_value" : 0,
     "name" : "android::internal::details::IsPointerLike<std::vector<aidl::android::hardware::camera::device::PhysicalCameraMetadata>>::value"
    }
   ],
   "linker_set_key" : "_ZTIN7android8internal7details13IsPointerLikeINSt3__16vectorIN4aidl7android8hardware6camera6device22PhysicalCameraMetadataENS3_9allocatorISA_EEEEE6$valueE",
   "name" : "android::internal::details::IsPointerLike<std::vector<aidl::android::hardware::camera::device::PhysicalCameraMetadata, std::allocator<aidl::android::hardware::camera::device::PhysicalCameraMetadata>>>::(unnamed enum at frameworks/native/libs/binder/ndk/include_cpp/android/binder_to_string.h:118:5)",
   "referenced_type" : "_ZTIN7android8internal7details13IsPointerLikeINSt3__16vectorIN4aidl7android8hardware6camera6device22PhysicalCameraMetadataENS3_9allocatorISA_EEEEE6$valueE",
   "self_type" : "_ZTIN7android8internal7details13IsPointerLikeINSt3__16vectorIN4aidl7android8hardware6camera6device22PhysicalCameraMetadataENS3_9allocatorISA_EEEEE6$valueE",
   "size" : 4,
   "source_file" : "frameworks/native/libs/binder/ndk/include_cpp/android/binder_to_string.h",
   "underlying_type" : "_ZTIj"
  },
  {
   "alignment" : 4,
   "enum_fields" :
   [
    {
     "enum_field_value" : 0,
     "name" : "android::internal::details::IsPointerLike<std::vector<aidl::android::hardware::camera::device::Stream>>::value"
    }
   ],
   "linker_set_key" : "_ZTIN7android8internal7details13IsPointerLikeINSt3__16vectorIN4aidl7android8hardware6camera6device6StreamENS3_9allocatorISA_EEEEE6$valueE",
   "name" : "android::internal::details::IsPointerLike<std::vector<aidl::android::hardware::camera::device::Stream, std::allocator<aidl::android::hardware::camera::device::Stream>>>::(unnamed enum at frameworks/native/libs/binder/ndk/include_cpp/android/binder_to_string.h:118:5)",
   "referenced_type" : "_ZTIN7android8internal7details13IsPointerLikeINSt3__16vectorIN4aidl7android8hardware6camera6device6StreamENS3_9allocatorISA_EEEEE6$valueE",
   "self_type" : "_ZTIN7android8internal7details13IsPointerLikeINSt3__16vectorIN4aidl7android8hardware6camera6device6StreamENS3_9allocatorISA_EEEEE6$valueE",
   "size" : 4,
   "source_file" : "frameworks/native/libs/binder/ndk/include_cpp/android/binder_to_string.h",
   "underlying_type" : "_ZTIj"
  },
  {
   "alignment" : 4,
   "enum_fields" :
   [
    {
     "enum_field_value" : 0,
     "name" : "android::internal::details::IsPointerLike<std::vector<aidl::android::hardware::camera::metadata::SensorPixelMode>>::value"
    }
   ],
   "linker_set_key" : "_ZTIN7android8internal7details13IsPointerLikeINSt3__16vectorIN4aidl7android8hardware6camera8metadata15SensorPixelModeENS3_9allocatorISA_EEEEE6$valueE",
   "name" : "android::internal::details::IsPointerLike<std::vector<aidl::android::hardware::camera::metadata::SensorPixelMode, std::allocator<aidl::android::hardware::camera::metadata::SensorPixelMode>>>::(unnamed enum at frameworks/native/libs/binder/ndk/include_cpp/android/binder_to_string.h:118:5)",
   "referenced_type" : "_ZTIN7android8internal7details13IsPointerLikeINSt3__16vectorIN4aidl7android8hardware6camera8metadata15SensorPixelModeENS3_9allocatorISA_EEEEE6$valueE",
   "self_type" : "_ZTIN7android8internal7details13IsPointerLikeINSt3__16vectorIN4aidl7android8hardware6camera8metadata15SensorPixelModeENS3_9allocatorISA_EEEEE6$valueE",
   "size" : 4,
   "source_file" : "frameworks/native/libs/binder/ndk/include_cpp/android/binder_to_string.h",
   "underlying_type" : "_ZTIj"
  },
  {
   "alignment" : 4,
   "enum_fields" :
   [
    {
     "enum_field_value" : 0,
     "name" : "android::internal::details::IsPointerLike<std::vector<std::basic_string<char>>>::value"
    }
   ],
   "linker_set_key" : "_ZTIN7android8internal7details13IsPointerLikeINSt3__16vectorINS3_12basic_stringIcNS3_11char_traitsIcEENS3_9allocatorIcEEEENS8_ISA_EEEEE6$valueE",
   "name" : "android::internal::details::IsPointerLike<std::vector<std::basic_string<char, std::char_traits<char>, std::allocator<char>>, std::allocator<std::basic_string<char, std::char_traits<char>, std::allocator<char>>>>>::(unnamed enum at frameworks/native/libs/binder/ndk/include_cpp/android/binder_to_string.h:118:5)",
   "referenced_type" : "_ZTIN7android8internal7details13IsPointerLikeINSt3__16vectorINS3_12basic_stringIcNS3_11char_traitsIcEENS3_9allocatorIcEEEENS8_ISA_EEEEE6$valueE",
   "self_type" : "_ZTIN7android8internal7details13IsPointerLikeINSt3__16vectorINS3_12basic_stringIcNS3_11char_traitsIcEENS3_9allocatorIcEEEENS8_ISA_EEEEE6$valueE",
   "size" : 4,
   "source_file" : "frameworks/native/libs/binder/ndk/include_cpp/android/binder_to_string.h",
   "underlying_type" : "_ZTIj"
  },
  {
   "alignment" : 4,
   "enum_fields" :
   [
    {
     "enum_field_value" : 0,
     "name" : "android::internal::details::IsPointerLike<std::vector<unsigned char>>::value"
    }
   ],
   "linker_set_key" : "_ZTIN7android8internal7details13IsPointerLikeINSt3__16vectorIhNS3_9allocatorIhEEEEE6$valueE",
   "name" : "android::internal::details::IsPointerLike<std::vector<unsigned char, std::allocator<unsigned char>>>::(unnamed enum at frameworks/native/libs/binder/ndk/include_cpp/android/binder_to_string.h:118:5)",
   "referenced_type" : "_ZTIN7android8internal7details13IsPointerLikeINSt3__16vectorIhNS3_9allocatorIhEEEEE6$valueE",
   "self_type" : "_ZTIN7android8internal7details13IsPointerLikeINSt3__16vectorIhNS3_9allocatorIhEEEEE6$valueE",
   "size" : 4,
   "source_file" : "frameworks/native/libs/binder/ndk/include_cpp/android/binder_to_string.h",
   "underlying_type" : "_ZTIj"
  },
  {
   "alignment" : 4,
   "enum_fields" :
   [
    {
     "enum_field_value" : 0,
     "name" : "android::internal::details::IsPointerLike<std::vector<int>>::value"
    }
   ],
   "linker_set_key" : "_ZTIN7android8internal7details13IsPointerLikeINSt3__16vectorIiNS3_9allocatorIiEEEEE6$valueE",
   "name" : "android::internal::details::IsPointerLike<std::vector<int, std::allocator<int>>>::(unnamed enum at frameworks/native/libs/binder/ndk/include_cpp/android/binder_to_string.h:118:5)",
   "referenced_type" : "_ZTIN7android8internal7details13IsPointerLikeINSt3__16vectorIiNS3_9allocatorIiEEEEE6$valueE",
   "self_type" : "_ZTIN7android8internal7details13IsPointerLikeINSt3__16vectorIiNS3_9allocatorIiEEEEE6$valueE",
   "size" : 4,
   "source_file" : "frameworks/native/libs/binder/ndk/include_cpp/android/binder_to_string.h",
   "underlying_type" : "_ZTIj"
  },
  {
   "alignment" : 4,
   "enum_fields" :
   [
    {
     "enum_field_value" : 0,
     "name" : "android::internal::details::IsPointerLike<std::vector<long long>>::value"
    }
   ],
   "linker_set_key" : "_ZTIN7android8internal7details13IsPointerLikeINSt3__16vectorIxNS3_9allocatorIxEEEEE6$valueE",
   "name" : "android::internal::details::IsPointerLike<std::vector<long long, std::allocator<long long>>>::(unnamed enum at frameworks/native/libs/binder/ndk/include_cpp/android/binder_to_string.h:118:5)",
   "referenced_type" : "_ZTIN7android8internal7details13IsPointerLikeINSt3__16vectorIxNS3_9allocatorIxEEEEE6$valueE",
   "self_type" : "_ZTIN7android8internal7details13IsPointerLikeINSt3__16vectorIxNS3_9allocatorIxEEEEE6$valueE",
   "size" : 4,
   "source_file" : "frameworks/native/libs/binder/ndk/include_cpp/android/binder_to_string.h",
   "underlying_type" : "_ZTIj"
  },
  {
   "alignment" : 4,
   "enum_fields" :
   [
    {
     "enum_field_value" : 0,
     "name" : "android::internal::details::ToEmptyString<ndk::ScopedFileDescriptor>::value"
    }
   ],
   "linker_set_key" : "_ZTIN7android8internal7details13ToEmptyStringIN3ndk20ScopedFileDescriptorEE6$valueE",
   "name" : "android::internal::details::ToEmptyString<ndk::ScopedFileDescriptor>::(unnamed enum at frameworks/native/libs/binder/ndk/include_cpp/android/binder_to_string.h:153:5)",
   "referenced_type" : "_ZTIN7android8internal7details13ToEmptyStringIN3ndk20ScopedFileDescriptorEE6$valueE",
   "self_type" : "_ZTIN7android8internal7details13ToEmptyStringIN3ndk20ScopedFileDescriptorEE6$valueE",
   "size" : 4,
   "source_file" : "frameworks/native/libs/binder/ndk/include_cpp/android/binder_to_string.h",
   "underlying_type" : "_ZTIj"
  },
  {
   "alignment" : 4,
   "enum_fields" :
   [
    {
     "enum_field_value" : 0,
     "name" : "android::internal::details::ToEmptyString<aidl::android::hardware::camera::device::ShutterMsg>::value"
    }
   ],
   "linker_set_key" : "_ZTIN7android8internal7details13ToEmptyStringIN4aidl7android8hardware6camera6device10ShutterMsgEE6$valueE",
   "name" : "android::internal::details::ToEmptyString<aidl::android::hardware::camera::device::ShutterMsg>::(unnamed enum at frameworks/native/libs/binder/ndk/include_cpp/android/binder_to_string.h:153:5)",
   "referenced_type" : "_ZTIN7android8internal7details13ToEmptyStringIN4aidl7android8hardware6camera6device10ShutterMsgEE6$valueE",
   "self_type" : "_ZTIN7android8internal7details13ToEmptyStringIN4aidl7android8hardware6camera6device10ShutterMsgEE6$valueE",
   "size" : 4,
   "source_file" : "frameworks/native/libs/binder/ndk/include_cpp/android/binder_to_string.h",
   "underlying_type" : "_ZTIj"
  },
  {
   "alignment" : 4,
   "enum_fields" :
   [
    {
     "enum_field_value" : 0,
     "name" : "android::internal::details::ToEmptyString<aidl::android::hardware::camera::device::StreamType>::value"
    }
   ],
   "linker_set_key" : "_ZTIN7android8internal7details13ToEmptyStringIN4aidl7android8hardware6camera6device10StreamTypeEE6$valueE",
   "name" : "android::internal::details::ToEmptyString<aidl::android::hardware::camera::device::StreamType>::(unnamed enum at frameworks/native/libs/binder/ndk/include_cpp/android/binder_to_string.h:153:5)",
   "referenced_type" : "_ZTIN7android8internal7details13ToEmptyStringIN4aidl7android8hardware6camera6device10StreamTypeEE6$valueE",
   "self_type" : "_ZTIN7android8internal7details13ToEmptyStringIN4aidl7android8hardware6camera6device10StreamTypeEE6$valueE",
   "size" : 4,
   "source_file" : "frameworks/native/libs/binder/ndk/include_cpp/android/binder_to_string.h",
   "underlying_type" : "_ZTIj"
  },
  {
   "alignment" : 4,
   "enum_fields" :
   [
    {
     "enum_field_value" : 0,
     "name" : "android::internal::details::ToEmptyString<aidl::android::hardware::camera::device::BufferStatus>::value"
    }
   ],
   "linker_set_key" : "_ZTIN7android8internal7details13ToEmptyStringIN4aidl7android8hardware6camera6device12BufferStatusEE6$valueE",
   "name" : "android::internal::details::ToEmptyString<aidl::android::hardware::camera::device::BufferStatus>::(unnamed enum at frameworks/native/libs/binder/ndk/include_cpp/android/binder_to_string.h:153:5)",
   "referenced_type" : "_ZTIN7android8internal7details13ToEmptyStringIN4aidl7android8hardware6camera6device12BufferStatusEE6$valueE",
   "self_type" : "_ZTIN7android8internal7details13ToEmptyStringIN4aidl7android8hardware6camera6device12BufferStatusEE6$valueE",
   "size" : 4,
   "source_file" : "frameworks/native/libs/binder/ndk/include_cpp/android/binder_to_string.h",
   "underlying_type" : "_ZTIj"
  },
  {
   "alignment" : 4,
   "enum_fields" :
   [
    {
     "enum_field_value" : 0,
     "name" : "android::internal::details::ToEmptyString<aidl::android::hardware::camera::device::CameraBlobId>::value"
    }
   ],
   "linker_set_key" : "_ZTIN7android8internal7details13ToEmptyStringIN4aidl7android8hardware6camera6device12CameraBlobIdEE6$valueE",
   "name" : "android::internal::details::ToEmptyString<aidl::android::hardware::camera::device::CameraBlobId>::(unnamed enum at frameworks/native/libs/binder/ndk/include_cpp/android/binder_to_string.h:153:5)",
   "referenced_type" : "_ZTIN7android8internal7details13ToEmptyStringIN4aidl7android8hardware6camera6device12CameraBlobIdEE6$valueE",
   "self_type" : "_ZTIN7android8internal7details13ToEmptyStringIN4aidl7android8hardware6camera6device12CameraBlobIdEE6$valueE",
   "size" : 4,
   "source_file" : "frameworks/native/libs/binder/ndk/include_cpp/android/binder_to_string.h",
   "underlying_type" : "_ZTIj"
  },
  {
   "alignment" : 4,
   "enum_fields" :
   [
    {
     "enum_field_value" : 0,
     "name" : "android::internal::details::ToEmptyString<aidl::android::hardware::camera::device::StreamBuffer>::value"
    }
   ],
   "linker_set_key" : "_ZTIN7android8internal7details13ToEmptyStringIN4aidl7android8hardware6camera6device12StreamBufferEE6$valueE",
   "name" : "android::internal::details::ToEmptyString<aidl::android::hardware::camera::device::StreamBuffer>::(unnamed enum at frameworks/native/libs/binder/ndk/include_cpp/android/binder_to_string.h:153:5)",
   "referenced_type" : "_ZTIN7android8internal7details13ToEmptyStringIN4aidl7android8hardware6camera6device12StreamBufferEE6$valueE",
   "self_type" : "_ZTIN7android8internal7details13ToEmptyStringIN4aidl7android8hardware6camera6device12StreamBufferEE6$valueE",
   "size" : 4,
   "source_file" : "frameworks/native/libs/binder/ndk/include_cpp/android/binder_to_string.h",
   "underlying_type" : "_ZTIj"
  },
  {
   "alignment" : 4,
   "enum_fields" :
   [
    {
     "enum_field_value" : 0,
     "name" : "android::internal::details::ToEmptyString<aidl::android::hardware::camera::device::OfflineStream>::value"
    }
   ],
   "linker_set_key" : "_ZTIN7android8internal7details13ToEmptyStringIN4aidl7android8hardware6camera6device13OfflineStreamEE6$valueE",
   "name" : "android::internal::details::ToEmptyString<aidl::android::hardware::camera::device::OfflineStream>::(unnamed enum at frameworks/native/libs/binder/ndk/include_cpp/android/binder_to_string.h:153:5)",
   "referenced_type" : "_ZTIN7android8internal7details13ToEmptyStringIN4aidl7android8hardware6camera6device13OfflineStreamEE6$valueE",
   "self_type" : "_ZTIN7android8internal7details13ToEmptyStringIN4aidl7android8hardware6camera6device13OfflineStreamEE6$valueE",
   "size" : 4,
   "source_file" : "frameworks/native/libs/binder/ndk/include_cpp/android/binder_to_string.h",
   "underlying_type" : "_ZTIj"
  },
  {
   "alignment" : 4,
   "enum_fields" :
   [
    {
     "enum_field_value" : 0,
     "name" : "android::internal::details::ToEmptyString<aidl::android::hardware::camera::device::CameraMetadata>::value"
    }
   ],
   "linker_set_key" : "_ZTIN7android8internal7details13ToEmptyStringIN4aidl7android8hardware6camera6device14CameraMetadataEE6$valueE",
   "name" : "android::internal::details::ToEmptyString<aidl::android::hardware::camera::device::CameraMetadata>::(unnamed enum at frameworks/native/libs/binder/ndk/include_cpp/android/binder_to_string.h:153:5)",
   "referenced_type" : "_ZTIN7android8internal7details13ToEmptyStringIN4aidl7android8hardware6camera6device14CameraMetadataEE6$valueE",
   "self_type" : "_ZTIN7android8internal7details13ToEmptyStringIN4aidl7android8hardware6camera6device14CameraMetadataEE6$valueE",
   "size" : 4,
   "source_file" : "frameworks/native/libs/binder/ndk/include_cpp/android/binder_to_string.h",
   "underlying_type" : "_ZTIj"
  },
  {
   "alignment" : 4,
   "enum_fields" :
   [
    {
     "enum_field_value" : 0,
     "name" : "android::internal::details::ToEmptyString<aidl::android::hardware::camera::device::OfflineRequest>::value"
    }
   ],
   "linker_set_key" : "_ZTIN7android8internal7details13ToEmptyStringIN4aidl7android8hardware6camera6device14OfflineRequestEE6$valueE",
   "name" : "android::internal::details::ToEmptyString<aidl::android::hardware::camera::device::OfflineRequest>::(unnamed enum at frameworks/native/libs/binder/ndk/include_cpp/android/binder_to_string.h:153:5)",
   "referenced_type" : "_ZTIN7android8internal7details13ToEmptyStringIN4aidl7android8hardware6camera6device14OfflineRequestEE6$valueE",
   "self_type" : "_ZTIN7android8internal7details13ToEmptyStringIN4aidl7android8hardware6camera6device14OfflineRequestEE6$valueE",
   "size" : 4,
   "source_file" : "frameworks/native/libs/binder/ndk/include_cpp/android/binder_to_string.h",
   "underlying_type" : "_ZTIj"
  },
  {
   "alignment" : 4,
   "enum_fields" :
   [
    {
     "enum_field_value" : 0,
     "name" : "android::internal::details::ToEmptyString<aidl::android::hardware::camera::device::StreamRotation>::value"
    }
   ],
   "linker_set_key" : "_ZTIN7android8internal7details13ToEmptyStringIN4aidl7android8hardware6camera6device14StreamRotationEE6$valueE",
   "name" : "android::internal::details::ToEmptyString<aidl::android::hardware::camera::device::StreamRotation>::(unnamed enum at frameworks/native/libs/binder/ndk/include_cpp/android/binder_to_string.h:153:5)",
   "referenced_type" : "_ZTIN7android8internal7details13ToEmptyStringIN4aidl7android8hardware6camera6device14StreamRotationEE6$valueE",
   "self_type" : "_ZTIN7android8internal7details13ToEmptyStringIN4aidl7android8hardware6camera6device14StreamRotationEE6$valueE",
   "size" : 4,
   "source_file" : "frameworks/native/libs/binder/ndk/include_cpp/android/binder_to_string.h",
   "underlying_type" : "_ZTIj"
  },
  {
   "alignment" : 4,
   "enum_fields" :
   [
    {
     "enum_field_value" : 0,
     "name" : "android::internal::details::ToEmptyString<aidl::android::hardware::camera::device::StreamBuffersVal>::value"
    }
   ],
   "linker_set_key" : "_ZTIN7android8internal7details13ToEmptyStringIN4aidl7android8hardware6camera6device16StreamBuffersValEE6$valueE",
   "name" : "android::internal::details::ToEmptyString<aidl::android::hardware::camera::device::StreamBuffersVal>::(unnamed enum at frameworks/native/libs/binder/ndk/include_cpp/android/binder_to_string.h:153:5)",
   "referenced_type" : "_ZTIN7android8internal7details13ToEmptyStringIN4aidl7android8hardware6camera6device16StreamBuffersValEE6$valueE",
   "self_type" : "_ZTIN7android8internal7details13ToEmptyStringIN4aidl7android8hardware6camera6device16StreamBuffersValEE6$valueE",
   "size" : 4,
   "source_file" : "frameworks/native/libs/binder/ndk/include_cpp/android/binder_to_string.h",
   "underlying_type" : "_ZTIj"
  },
  {
   "alignment" : 4,
   "enum_fields" :
   [
    {
     "enum_field_value" : 0,
     "name" : "android::internal::details::ToEmptyString<aidl::android::hardware::camera::device::PhysicalCameraSetting>::value"
    }
   ],
   "linker_set_key" : "_ZTIN7android8internal7details13ToEmptyStringIN4aidl7android8hardware6camera6device21PhysicalCameraSettingEE6$valueE",
   "name" : "android::internal::details::ToEmptyString<aidl::android::hardware::camera::device::PhysicalCameraSetting>::(unnamed enum at frameworks/native/libs/binder/ndk/include_cpp/android/binder_to_string.h:153:5)",
   "referenced_type" : "_ZTIN7android8internal7details13ToEmptyStringIN4aidl7android8hardware6camera6device21PhysicalCameraSettingEE6$valueE",
   "self_type" : "_ZTIN7android8internal7details13ToEmptyStringIN4aidl7android8hardware6camera6device21PhysicalCameraSettingEE6$valueE",
   "size" : 4,
   "source_file" : "frameworks/native/libs/binder/ndk/include_cpp/android/binder_to_string.h",
   "underlying_type" : "_ZTIj"
  },
  {
   "alignment" : 4,
   "enum_fields" :
   [
    {
     "enum_field_value" : 0,
     "name" : "android::internal::details::ToEmptyString<aidl::android::hardware::camera::device::PhysicalCameraMetadata>::value"
    }
   ],
   "linker_set_key" : "_ZTIN7android8internal7details13ToEmptyStringIN4aidl7android8hardware6camera6device22PhysicalCameraMetadataEE6$valueE",
   "name" : "android::internal::details::ToEmptyString<aidl::android::hardware::camera::device::PhysicalCameraMetadata>::(unnamed enum at frameworks/native/libs/binder/ndk/include_cpp/android/binder_to_string.h:153:5)",
   "referenced_type" : "_ZTIN7android8internal7details13ToEmptyStringIN4aidl7android8hardware6camera6device22PhysicalCameraMetadataEE6$valueE",
   "self_type" : "_ZTIN7android8internal7details13ToEmptyStringIN4aidl7android8hardware6camera6device22PhysicalCameraMetadataEE6$valueE",
   "size" : 4,
   "source_file" : "frameworks/native/libs/binder/ndk/include_cpp/android/binder_to_string.h",
   "underlying_type" : "_ZTIj"
  },
  {
   "alignment" : 4,
   "enum_fields" :
   [
    {
     "enum_field_value" : 0,
     "name" : "android::internal::details::ToEmptyString<aidl::android::hardware::camera::device::StreamConfigurationMode>::value"
    }
   ],
   "linker_set_key" : "_ZTIN7android8internal7details13ToEmptyStringIN4aidl7android8hardware6camera6device23StreamConfigurationModeEE6$valueE",
   "name" : "android::internal::details::ToEmptyString<aidl::android::hardware::camera::device::StreamConfigurationMode>::(unnamed enum at frameworks/native/libs/binder/ndk/include_cpp/android/binder_to_string.h:153:5)",
   "referenced_type" : "_ZTIN7android8internal7details13ToEmptyStringIN4aidl7android8hardware6camera6device23StreamConfigurationModeEE6$valueE",
   "self_type" : "_ZTIN7android8internal7details13ToEmptyStringIN4aidl7android8hardware6camera6device23StreamConfigurationModeEE6$valueE",
   "size" : 4,
   "source_file" : "frameworks/native/libs/binder/ndk/include_cpp/android/binder_to_string.h",
   "underlying_type" : "_ZTIj"
  },
  {
   "alignment" : 4,
   "enum_fields" :
   [
    {
     "enum_field_value" : 0,
     "name" : "android::internal::details::ToEmptyString<aidl::android::hardware::camera::device::StreamBufferRequestError>::value"
    }
   ],
   "linker_set_key" : "_ZTIN7android8internal7details13ToEmptyStringIN4aidl7android8hardware6camera6device24StreamBufferRequestErrorEE6$valueE",
   "name" : "android::internal::details::ToEmptyString<aidl::android::hardware::camera::device::StreamBufferRequestError>::(unnamed enum at frameworks/native/libs/binder/ndk/include_cpp/android/binder_to_string.h:153:5)",
   "referenced_type" : "_ZTIN7android8internal7details13ToEmptyStringIN4aidl7android8hardware6camera6device24StreamBufferRequestErrorEE6$valueE",
   "self_type" : "_ZTIN7android8internal7details13ToEmptyStringIN4aidl7android8hardware6camera6device24StreamBufferRequestErrorEE6$valueE",
   "size" : 4,
   "source_file" : "frameworks/native/libs/binder/ndk/include_cpp/android/binder_to_string.h",
   "underlying_type" : "_ZTIj"
  },
  {
   "alignment" : 4,
   "enum_fields" :
   [
    {
     "enum_field_value" : 0,
     "name" : "android::internal::details::ToEmptyString<aidl::android::hardware::camera::device::Stream>::value"
    }
   ],
   "linker_set_key" : "_ZTIN7android8internal7details13ToEmptyStringIN4aidl7android8hardware6camera6device6StreamEE6$valueE",
   "name" : "android::internal::details::ToEmptyString<aidl::android::hardware::camera::device::Stream>::(unnamed enum at frameworks/native/libs/binder/ndk/include_cpp/android/binder_to_string.h:153:5)",
   "referenced_type" : "_ZTIN7android8internal7details13ToEmptyStringIN4aidl7android8hardware6camera6device6StreamEE6$valueE",
   "self_type" : "_ZTIN7android8internal7details13ToEmptyStringIN4aidl7android8hardware6camera6device6StreamEE6$valueE",
   "size" : 4,
   "source_file" : "frameworks/native/libs/binder/ndk/include_cpp/android/binder_to_string.h",
   "underlying_type" : "_ZTIj"
  },
  {
   "alignment" : 4,
   "enum_fields" :
   [
    {
     "enum_field_value" : 0,
     "name" : "android::internal::details::ToEmptyString<aidl::android::hardware::camera::device::ErrorMsg>::value"
    }
   ],
   "linker_set_key" : "_ZTIN7android8internal7details13ToEmptyStringIN4aidl7android8hardware6camera6device8ErrorMsgEE6$valueE",
   "name" : "android::internal::details::ToEmptyString<aidl::android::hardware::camera::device::ErrorMsg>::(unnamed enum at frameworks/native/libs/binder/ndk/include_cpp/android/binder_to_string.h:153:5)",
   "referenced_type" : "_ZTIN7android8internal7details13ToEmptyStringIN4aidl7android8hardware6camera6device8ErrorMsgEE6$valueE",
   "self_type" : "_ZTIN7android8internal7details13ToEmptyStringIN4aidl7android8hardware6camera6device8ErrorMsgEE6$valueE",
   "size" : 4,
   "source_file" : "frameworks/native/libs/binder/ndk/include_cpp/android/binder_to_string.h",
   "underlying_type" : "_ZTIj"
  },
  {
   "alignment" : 4,
   "enum_fields" :
   [
    {
     "enum_field_value" : 0,
     "name" : "android::internal::details::ToEmptyString<aidl::android::hardware::camera::device::ErrorCode>::value"
    }
   ],
   "linker_set_key" : "_ZTIN7android8internal7details13ToEmptyStringIN4aidl7android8hardware6camera6device9ErrorCodeEE6$valueE",
   "name" : "android::internal::details::ToEmptyString<aidl::android::hardware::camera::device::ErrorCode>::(unnamed enum at frameworks/native/libs/binder/ndk/include_cpp/android/binder_to_string.h:153:5)",
   "referenced_type" : "_ZTIN7android8internal7details13ToEmptyStringIN4aidl7android8hardware6camera6device9ErrorCodeEE6$valueE",
   "self_type" : "_ZTIN7android8internal7details13ToEmptyStringIN4aidl7android8hardware6camera6device9ErrorCodeEE6$valueE",
   "size" : 4,
   "source_file" : "frameworks/native/libs/binder/ndk/include_cpp/android/binder_to_string.h",
   "underlying_type" : "_ZTIj"
  },
  {
   "alignment" : 4,
   "enum_fields" :
   [
    {
     "enum_field_value" : 0,
     "name" : "android::internal::details::ToEmptyString<aidl::android::hardware::camera::metadata::SensorPixelMode>::value"
    }
   ],
   "linker_set_key" : "_ZTIN7android8internal7details13ToEmptyStringIN4aidl7android8hardware6camera8metadata15SensorPixelModeEE6$valueE",
   "name" : "android::internal::details::ToEmptyString<aidl::android::hardware::camera::metadata::SensorPixelMode>::(unnamed enum at frameworks/native/libs/binder/ndk/include_cpp/android/binder_to_string.h:153:5)",
   "referenced_type" : "_ZTIN7android8internal7details13ToEmptyStringIN4aidl7android8hardware6camera8metadata15SensorPixelModeEE6$valueE",
   "self_type" : "_ZTIN7android8internal7details13ToEmptyStringIN4aidl7android8hardware6camera8metadata15SensorPixelModeEE6$valueE",
   "size" : 4,
   "source_file" : "frameworks/native/libs/binder/ndk/include_cpp/android/binder_to_string.h",
   "underlying_type" : "_ZTIj"
  },
  {
   "alignment" : 4,
   "enum_fields" :
   [
    {
     "enum_field_value" : 0,
     "name" : "android::internal::details::ToEmptyString<aidl::android::hardware::camera::metadata::ScalerAvailableStreamUseCases>::value"
    }
   ],
   "linker_set_key" : "_ZTIN7android8internal7details13ToEmptyStringIN4aidl7android8hardware6camera8metadata29ScalerAvailableStreamUseCasesEE6$valueE",
   "name" : "android::internal::details::ToEmptyString<aidl::android::hardware::camera::metadata::ScalerAvailableStreamUseCases>::(unnamed enum at frameworks/native/libs/binder/ndk/include_cpp/android/binder_to_string.h:153:5)",
   "referenced_type" : "_ZTIN7android8internal7details13ToEmptyStringIN4aidl7android8hardware6camera8metadata29ScalerAvailableStreamUseCasesEE6$valueE",
   "self_type" : "_ZTIN7android8internal7details13ToEmptyStringIN4aidl7android8hardware6camera8metadata29ScalerAvailableStreamUseCasesEE6$valueE",
   "size" : 4,
   "source_file" : "frameworks/native/libs/binder/ndk/include_cpp/android/binder_to_string.h",
   "underlying_type" : "_ZTIj"
  },
  {
   "alignment" : 4,
   "enum_fields" :
   [
    {
     "enum_field_value" : 0,
     "name" : "android::internal::details::ToEmptyString<aidl::android::hardware::camera::metadata::RequestAvailableDynamicRangeProfilesMap>::value"
    }
   ],
   "linker_set_key" : "_ZTIN7android8internal7details13ToEmptyStringIN4aidl7android8hardware6camera8metadata39RequestAvailableDynamicRangeProfilesMapEE6$valueE",
   "name" : "android::internal::details::ToEmptyString<aidl::android::hardware::camera::metadata::RequestAvailableDynamicRangeProfilesMap>::(unnamed enum at frameworks/native/libs/binder/ndk/include_cpp/android/binder_to_string.h:153:5)",
   "referenced_type" : "_ZTIN7android8internal7details13ToEmptyStringIN4aidl7android8hardware6camera8metadata39RequestAvailableDynamicRangeProfilesMapEE6$valueE",
   "self_type" : "_ZTIN7android8internal7details13ToEmptyStringIN4aidl7android8hardware6camera8metadata39RequestAvailableDynamicRangeProfilesMapEE6$valueE",
   "size" : 4,
   "source_file" : "frameworks/native/libs/binder/ndk/include_cpp/android/binder_to_string.h",
   "underlying_type" : "_ZTIj"
  },
  {
   "alignment" : 4,
   "enum_fields" :
   [
    {
     "enum_field_value" : 0,
     "name" : "android::internal::details::ToEmptyString<aidl::android::hardware::common::NativeHandle>::value"
    }
   ],
   "linker_set_key" : "_ZTIN7android8internal7details13ToEmptyStringIN4aidl7android8hardware6common12NativeHandleEE6$valueE",
   "name" : "android::internal::details::ToEmptyString<aidl::android::hardware::common::NativeHandle>::(unnamed enum at frameworks/native/libs/binder/ndk/include_cpp/android/binder_to_string.h:153:5)",
   "referenced_type" : "_ZTIN7android8internal7details13ToEmptyStringIN4aidl7android8hardware6common12NativeHandleEE6$valueE",
   "self_type" : "_ZTIN7android8internal7details13ToEmptyStringIN4aidl7android8hardware6common12NativeHandleEE6$valueE",
   "size" : 4,
   "source_file" : "frameworks/native/libs/binder/ndk/include_cpp/android/binder_to_string.h",
   "underlying_type" : "_ZTIj"
  },
  {
   "alignment" : 4,
   "enum_fields" :
   [
    {
     "enum_field_value" : 0,
     "name" : "android::internal::details::ToEmptyString<aidl::android::hardware::graphics::common::BufferUsage>::value"
    }
   ],
   "linker_set_key" : "_ZTIN7android8internal7details13ToEmptyStringIN4aidl7android8hardware8graphics6common11BufferUsageEE6$valueE",
   "name" : "android::internal::details::ToEmptyString<aidl::android::hardware::graphics::common::BufferUsage>::(unnamed enum at frameworks/native/libs/binder/ndk/include_cpp/android/binder_to_string.h:153:5)",
   "referenced_type" : "_ZTIN7android8internal7details13ToEmptyStringIN4aidl7android8hardware8graphics6common11BufferUsageEE6$valueE",
   "self_type" : "_ZTIN7android8internal7details13ToEmptyStringIN4aidl7android8hardware8graphics6common11BufferUsageEE6$valueE",
   "size" : 4,
   "source_file" : "frameworks/native/libs/binder/ndk/include_cpp/android/binder_to_string.h",
   "underlying_type" : "_ZTIj"
  },
  {
   "alignment" : 4,
   "enum_fields" :
   [
    {
     "enum_field_value" : 0,
     "name" : "android::internal::details::ToEmptyString<aidl::android::hardware::graphics::common::PixelFormat>::value"
    }
   ],
   "linker_set_key" : "_ZTIN7android8internal7details13ToEmptyStringIN4aidl7android8hardware8graphics6common11PixelFormatEE6$valueE",
   "name" : "android::internal::details::ToEmptyString<aidl::android::hardware::graphics::common::PixelFormat>::(unnamed enum at frameworks/native/libs/binder/ndk/include_cpp/android/binder_to_string.h:153:5)",
   "referenced_type" : "_ZTIN7android8internal7details13ToEmptyStringIN4aidl7android8hardware8graphics6common11PixelFormatEE6$valueE",
   "self_type" : "_ZTIN7android8internal7details13ToEmptyStringIN4aidl7android8hardware8graphics6common11PixelFormatEE6$valueE",
   "size" : 4,
   "source_file" : "frameworks/native/libs/binder/ndk/include_cpp/android/binder_to_string.h",
   "underlying_type" : "_ZTIj"
  },
  {
   "alignment" : 4,
   "enum_fields" :
   [
    {
     "enum_field_value" : 0,
     "name" : "android::internal::details::ToEmptyString<aidl::android::hardware::graphics::common::Dataspace>::value"
    }
   ],
   "linker_set_key" : "_ZTIN7android8internal7details13ToEmptyStringIN4aidl7android8hardware8graphics6common9DataspaceEE6$valueE",
   "name" : "android::internal::details::ToEmptyString<aidl::android::hardware::graphics::common::Dataspace>::(unnamed enum at frameworks/native/libs/binder/ndk/include_cpp/android/binder_to_string.h:153:5)",
   "referenced_type" : "_ZTIN7android8internal7details13ToEmptyStringIN4aidl7android8hardware8graphics6common9DataspaceEE6$valueE",
   "self_type" : "_ZTIN7android8internal7details13ToEmptyStringIN4aidl7android8hardware8graphics6common9DataspaceEE6$valueE",
   "size" : 4,
   "source_file" : "frameworks/native/libs/binder/ndk/include_cpp/android/binder_to_string.h",
   "underlying_type" : "_ZTIj"
  },
  {
   "alignment" : 4,
   "enum_fields" :
   [
    {
     "enum_field_value" : 0,
     "name" : "android::internal::details::ToEmptyString<std::basic_string<char>>::value"
    }
   ],
   "linker_set_key" : "_ZTIN7android8internal7details13ToEmptyStringINSt3__112basic_stringIcNS3_11char_traitsIcEENS3_9allocatorIcEEEEE6$valueE",
   "name" : "android::internal::details::ToEmptyString<std::basic_string<char, std::char_traits<char>, std::allocator<char>>>::(unnamed enum at frameworks/native/libs/binder/ndk/include_cpp/android/binder_to_string.h:153:5)",
   "referenced_type" : "_ZTIN7android8internal7details13ToEmptyStringINSt3__112basic_stringIcNS3_11char_traitsIcEENS3_9allocatorIcEEEEE6$valueE",
   "self_type" : "_ZTIN7android8internal7details13ToEmptyStringINSt3__112basic_stringIcNS3_11char_traitsIcEENS3_9allocatorIcEEEEE6$valueE",
   "size" : 4,
   "source_file" : "frameworks/native/libs/binder/ndk/include_cpp/android/binder_to_string.h",
   "underlying_type" : "_ZTIj"
  },
  {
   "alignment" : 4,
   "enum_fields" :
   [
    {
     "enum_field_value" : 0,
     "name" : "android::internal::details::ToEmptyString<std::vector<ndk::ScopedFileDescriptor>>::value"
    }
   ],
   "linker_set_key" : "_ZTIN7android8internal7details13ToEmptyStringINSt3__16vectorIN3ndk20ScopedFileDescriptorENS3_9allocatorIS6_EEEEE6$valueE",
   "name" : "android::internal::details::ToEmptyString<std::vector<ndk::ScopedFileDescriptor, std::allocator<ndk::ScopedFileDescriptor>>>::(unnamed enum at frameworks/native/libs/binder/ndk/include_cpp/android/binder_to_string.h:153:5)",
   "referenced_type" : "_ZTIN7android8internal7details13ToEmptyStringINSt3__16vectorIN3ndk20ScopedFileDescriptorENS3_9allocatorIS6_EEEEE6$valueE",
   "self_type" : "_ZTIN7android8internal7details13ToEmptyStringINSt3__16vectorIN3ndk20ScopedFileDescriptorENS3_9allocatorIS6_EEEEE6$valueE",
   "size" : 4,
   "source_file" : "frameworks/native/libs/binder/ndk/include_cpp/android/binder_to_string.h",
   "underlying_type" : "_ZTIj"
  },
  {
   "alignment" : 4,
   "enum_fields" :
   [
    {
     "enum_field_value" : 0,
     "name" : "android::internal::details::ToEmptyString<std::vector<aidl::android::hardware::camera::device::StreamBuffer>>::value"
    }
   ],
   "linker_set_key" : "_ZTIN7android8internal7details13ToEmptyStringINSt3__16vectorIN4aidl7android8hardware6camera6device12StreamBufferENS3_9allocatorISA_EEEEE6$valueE",
   "name" : "android::internal::details::ToEmptyString<std::vector<aidl::android::hardware::camera::device::StreamBuffer, std::allocator<aidl::android::hardware::camera::device::StreamBuffer>>>::(unnamed enum at frameworks/native/libs/binder/ndk/include_cpp/android/binder_to_string.h:153:5)",
   "referenced_type" : "_ZTIN7android8internal7details13ToEmptyStringINSt3__16vectorIN4aidl7android8hardware6camera6device12StreamBufferENS3_9allocatorISA_EEEEE6$valueE",
   "self_type" : "_ZTIN7android8internal7details13ToEmptyStringINSt3__16vectorIN4aidl7android8hardware6camera6device12StreamBufferENS3_9allocatorISA_EEEEE6$valueE",
   "size" : 4,
   "source_file" : "frameworks/native/libs/binder/ndk/include_cpp/android/binder_to_string.h",
   "underlying_type" : "_ZTIj"
  },
  {
   "alignment" : 4,
   "enum_fields" :
   [
    {
     "enum_field_value" : 0,
     "name" : "android::internal::details::ToEmptyString<std::vector<aidl::android::hardware::camera::device::OfflineStream>>::value"
    }
   ],
   "linker_set_key" : "_ZTIN7android8internal7details13ToEmptyStringINSt3__16vectorIN4aidl7android8hardware6camera6device13OfflineStreamENS3_9allocatorISA_EEEEE6$valueE",
   "name" : "android::internal::details::ToEmptyString<std::vector<aidl::android::hardware::camera::device::OfflineStream, std::allocator<aidl::android::hardware::camera::device::OfflineStream>>>::(unnamed enum at frameworks/native/libs/binder/ndk/include_cpp/android/binder_to_string.h:153:5)",
   "referenced_type" : "_ZTIN7android8internal7details13ToEmptyStringINSt3__16vectorIN4aidl7android8hardware6camera6device13OfflineStreamENS3_9allocatorISA_EEEEE6$valueE",
   "self_type" : "_ZTIN7android8internal7details13ToEmptyStringINSt3__16vectorIN4aidl7android8hardware6camera6device13OfflineStreamENS3_9allocatorISA_EEEEE6$valueE",
   "size" : 4,
   "source_file" : "frameworks/native/libs/binder/ndk/include_cpp/android/binder_to_string.h",
   "underlying_type" : "_ZTIj"
  },
  {
   "alignment" : 4,
   "enum_fields" :
   [
    {
     "enum_field_value" : 0,
     "name" : "android::internal::details::ToEmptyString<std::vector<aidl::android::hardware::camera::device::OfflineRequest>>::value"
    }
   ],
   "linker_set_key" : "_ZTIN7android8internal7details13ToEmptyStringINSt3__16vectorIN4aidl7android8hardware6camera6device14OfflineRequestENS3_9allocatorISA_EEEEE6$valueE",
   "name" : "android::internal::details::ToEmptyString<std::vector<aidl::android::hardware::camera::device::OfflineRequest, std::allocator<aidl::android::hardware::camera::device::OfflineRequest>>>::(unnamed enum at frameworks/native/libs/binder/ndk/include_cpp/android/binder_to_string.h:153:5)",
   "referenced_type" : "_ZTIN7android8internal7details13ToEmptyStringINSt3__16vectorIN4aidl7android8hardware6camera6device14OfflineRequestENS3_9allocatorISA_EEEEE6$valueE",
   "self_type" : "_ZTIN7android8internal7details13ToEmptyStringINSt3__16vectorIN4aidl7android8hardware6camera6device14OfflineRequestENS3_9allocatorISA_EEEEE6$valueE",
   "size" : 4,
   "source_file" : "frameworks/native/libs/binder/ndk/include_cpp/android/binder_to_string.h",
   "underlying_type" : "_ZTIj"
  },
  {
   "alignment" : 4,
   "enum_fields" :
   [
    {
     "enum_field_value" : 0,
     "name" : "android::internal::details::ToEmptyString<std::vector<aidl::android::hardware::camera::device::PhysicalCameraSetting>>::value"
    }
   ],
   "linker_set_key" : "_ZTIN7android8internal7details13ToEmptyStringINSt3__16vectorIN4aidl7android8hardware6camera6device21PhysicalCameraSettingENS3_9allocatorISA_EEEEE6$valueE",
   "name" : "android::internal::details::ToEmptyString<std::vector<aidl::android::hardware::camera::device::PhysicalCameraSetting, std::allocator<aidl::android::hardware::camera::device::PhysicalCameraSetting>>>::(unnamed enum at frameworks/native/libs/binder/ndk/include_cpp/android/binder_to_string.h:153:5)",
   "referenced_type" : "_ZTIN7android8internal7details13ToEmptyStringINSt3__16vectorIN4aidl7android8hardware6camera6device21PhysicalCameraSettingENS3_9allocatorISA_EEEEE6$valueE",
   "self_type" : "_ZTIN7android8internal7details13ToEmptyStringINSt3__16vectorIN4aidl7android8hardware6camera6device21PhysicalCameraSettingENS3_9allocatorISA_EEEEE6$valueE",
   "size" : 4,
   "source_file" : "frameworks/native/libs/binder/ndk/include_cpp/android/binder_to_string.h",
   "underlying_type" : "_ZTIj"
  },
  {
   "alignment" : 4,
   "enum_fields" :
   [
    {
     "enum_field_value" : 0,
     "name" : "android::internal::details::ToEmptyString<std::vector<aidl::android::hardware::camera::device::PhysicalCameraMetadata>>::value"
    }
   ],
   "linker_set_key" : "_ZTIN7android8internal7details13ToEmptyStringINSt3__16vectorIN4aidl7android8hardware6camera6device22PhysicalCameraMetadataENS3_9allocatorISA_EEEEE6$valueE",
   "name" : "android::internal::details::ToEmptyString<std::vector<aidl::android::hardware::camera::device::PhysicalCameraMetadata, std::allocator<aidl::android::hardware::camera::device::PhysicalCameraMetadata>>>::(unnamed enum at frameworks/native/libs/binder/ndk/include_cpp/android/binder_to_string.h:153:5)",
   "referenced_type" : "_ZTIN7android8internal7details13ToEmptyStringINSt3__16vectorIN4aidl7android8hardware6camera6device22PhysicalCameraMetadataENS3_9allocatorISA_EEEEE6$valueE",
   "self_type" : "_ZTIN7android8internal7details13ToEmptyStringINSt3__16vectorIN4aidl7android8hardware6camera6device22PhysicalCameraMetadataENS3_9allocatorISA_EEEEE6$valueE",
   "size" : 4,
   "source_file" : "frameworks/native/libs/binder/ndk/include_cpp/android/binder_to_string.h",
   "underlying_type" : "_ZTIj"
  },
  {
   "alignment" : 4,
   "enum_fields" :
   [
    {
     "enum_field_value" : 0,
     "name" : "android::internal::details::ToEmptyString<std::vector<aidl::android::hardware::camera::device::Stream>>::value"
    }
   ],
   "linker_set_key" : "_ZTIN7android8internal7details13ToEmptyStringINSt3__16vectorIN4aidl7android8hardware6camera6device6StreamENS3_9allocatorISA_EEEEE6$valueE",
   "name" : "android::internal::details::ToEmptyString<std::vector<aidl::android::hardware::camera::device::Stream, std::allocator<aidl::android::hardware::camera::device::Stream>>>::(unnamed enum at frameworks/native/libs/binder/ndk/include_cpp/android/binder_to_string.h:153:5)",
   "referenced_type" : "_ZTIN7android8internal7details13ToEmptyStringINSt3__16vectorIN4aidl7android8hardware6camera6device6StreamENS3_9allocatorISA_EEEEE6$valueE",
   "self_type" : "_ZTIN7android8internal7details13ToEmptyStringINSt3__16vectorIN4aidl7android8hardware6camera6device6StreamENS3_9allocatorISA_EEEEE6$valueE",
   "size" : 4,
   "source_file" : "frameworks/native/libs/binder/ndk/include_cpp/android/binder_to_string.h",
   "underlying_type" : "_ZTIj"
  },
  {
   "alignment" : 4,
   "enum_fields" :
   [
    {
     "enum_field_value" : 0,
     "name" : "android::internal::details::ToEmptyString<std::vector<aidl::android::hardware::camera::metadata::SensorPixelMode>>::value"
    }
   ],
   "linker_set_key" : "_ZTIN7android8internal7details13ToEmptyStringINSt3__16vectorIN4aidl7android8hardware6camera8metadata15SensorPixelModeENS3_9allocatorISA_EEEEE6$valueE",
   "name" : "android::internal::details::ToEmptyString<std::vector<aidl::android::hardware::camera::metadata::SensorPixelMode, std::allocator<aidl::android::hardware::camera::metadata::SensorPixelMode>>>::(unnamed enum at frameworks/native/libs/binder/ndk/include_cpp/android/binder_to_string.h:153:5)",
   "referenced_type" : "_ZTIN7android8internal7details13ToEmptyStringINSt3__16vectorIN4aidl7android8hardware6camera8metadata15SensorPixelModeENS3_9allocatorISA_EEEEE6$valueE",
   "self_type" : "_ZTIN7android8internal7details13ToEmptyStringINSt3__16vectorIN4aidl7android8hardware6camera8metadata15SensorPixelModeENS3_9allocatorISA_EEEEE6$valueE",
   "size" : 4,
   "source_file" : "frameworks/native/libs/binder/ndk/include_cpp/android/binder_to_string.h",
   "underlying_type" : "_ZTIj"
  },
  {
   "alignment" : 4,
   "enum_fields" :
   [
    {
     "enum_field_value" : 0,
     "name" : "android::internal::details::ToEmptyString<std::vector<std::basic_string<char>>>::value"
    }
   ],
   "linker_set_key" : "_ZTIN7android8internal7details13ToEmptyStringINSt3__16vectorINS3_12basic_stringIcNS3_11char_traitsIcEENS3_9allocatorIcEEEENS8_ISA_EEEEE6$valueE",
   "name" : "android::internal::details::ToEmptyString<std::vector<std::basic_string<char, std::char_traits<char>, std::allocator<char>>, std::allocator<std::basic_string<char, std::char_traits<char>, std::allocator<char>>>>>::(unnamed enum at frameworks/native/libs/binder/ndk/include_cpp/android/binder_to_string.h:153:5)",
   "referenced_type" : "_ZTIN7android8internal7details13ToEmptyStringINSt3__16vectorINS3_12basic_stringIcNS3_11char_traitsIcEENS3_9allocatorIcEEEENS8_ISA_EEEEE6$valueE",
   "self_type" : "_ZTIN7android8internal7details13ToEmptyStringINSt3__16vectorINS3_12basic_stringIcNS3_11char_traitsIcEENS3_9allocatorIcEEEENS8_ISA_EEEEE6$valueE",
   "size" : 4,
   "source_file" : "frameworks/native/libs/binder/ndk/include_cpp/android/binder_to_string.h",
   "underlying_type" : "_ZTIj"
  },
  {
   "alignment" : 4,
   "enum_fields" :
   [
    {
     "enum_field_value" : 0,
     "name" : "android::internal::details::ToEmptyString<std::vector<unsigned char>>::value"
    }
   ],
   "linker_set_key" : "_ZTIN7android8internal7details13ToEmptyStringINSt3__16vectorIhNS3_9allocatorIhEEEEE6$valueE",
   "name" : "android::internal::details::ToEmptyString<std::vector<unsigned char, std::allocator<unsigned char>>>::(unnamed enum at frameworks/native/libs/binder/ndk/include_cpp/android/binder_to_string.h:153:5)",
   "referenced_type" : "_ZTIN7android8internal7details13ToEmptyStringINSt3__16vectorIhNS3_9allocatorIhEEEEE6$valueE",
   "self_type" : "_ZTIN7android8internal7details13ToEmptyStringINSt3__16vectorIhNS3_9allocatorIhEEEEE6$valueE",
   "size" : 4,
   "source_file" : "frameworks/native/libs/binder/ndk/include_cpp/android/binder_to_string.h",
   "underlying_type" : "_ZTIj"
  },
  {
   "alignment" : 4,
   "enum_fields" :
   [
    {
     "enum_field_value" : 0,
     "name" : "android::internal::details::ToEmptyString<std::vector<int>>::value"
    }
   ],
   "linker_set_key" : "_ZTIN7android8internal7details13ToEmptyStringINSt3__16vectorIiNS3_9allocatorIiEEEEE6$valueE",
   "name" : "android::internal::details::ToEmptyString<std::vector<int, std::allocator<int>>>::(unnamed enum at frameworks/native/libs/binder/ndk/include_cpp/android/binder_to_string.h:153:5)",
   "referenced_type" : "_ZTIN7android8internal7details13ToEmptyStringINSt3__16vectorIiNS3_9allocatorIiEEEEE6$valueE",
   "self_type" : "_ZTIN7android8internal7details13ToEmptyStringINSt3__16vectorIiNS3_9allocatorIiEEEEE6$valueE",
   "size" : 4,
   "source_file" : "frameworks/native/libs/binder/ndk/include_cpp/android/binder_to_string.h",
   "underlying_type" : "_ZTIj"
  },
  {
   "alignment" : 4,
   "enum_fields" :
   [
    {
     "enum_field_value" : 0,
     "name" : "android::internal::details::ToEmptyString<std::vector<long long>>::value"
    }
   ],
   "linker_set_key" : "_ZTIN7android8internal7details13ToEmptyStringINSt3__16vectorIxNS3_9allocatorIxEEEEE6$valueE",
   "name" : "android::internal::details::ToEmptyString<std::vector<long long, std::allocator<long long>>>::(unnamed enum at frameworks/native/libs/binder/ndk/include_cpp/android/binder_to_string.h:153:5)",
   "referenced_type" : "_ZTIN7android8internal7details13ToEmptyStringINSt3__16vectorIxNS3_9allocatorIxEEEEE6$valueE",
   "self_type" : "_ZTIN7android8internal7details13ToEmptyStringINSt3__16vectorIxNS3_9allocatorIxEEEEE6$valueE",
   "size" : 4,
   "source_file" : "frameworks/native/libs/binder/ndk/include_cpp/android/binder_to_string.h",
   "underlying_type" : "_ZTIj"
  },
  {
   "alignment" : 4,
   "enum_fields" :
   [
    {
     "enum_field_value" : 0,
     "name" : "android::internal::details::ToEmptyString<bool>::value"
    }
   ],
   "linker_set_key" : "_ZTIN7android8internal7details13ToEmptyStringIbE6$valueE",
   "name" : "android::internal::details::ToEmptyString<bool>::(unnamed enum at frameworks/native/libs/binder/ndk/include_cpp/android/binder_to_string.h:153:5)",
   "referenced_type" : "_ZTIN7android8internal7details13ToEmptyStringIbE6$valueE",
   "self_type" : "_ZTIN7android8internal7details13ToEmptyStringIbE6$valueE",
   "size" : 4,
   "source_file" : "frameworks/native/libs/binder/ndk/include_cpp/android/binder_to_string.h",
   "underlying_type" : "_ZTIj"
  },
  {
   "alignment" : 4,
   "enum_fields" :
   [
    {
     "enum_field_value" : 0,
     "name" : "android::internal::details::ToEmptyString<unsigned char>::value"
    }
   ],
   "linker_set_key" : "_ZTIN7android8internal7details13ToEmptyStringIhE6$valueE",
   "name" : "android::internal::details::ToEmptyString<unsigned char>::(unnamed enum at frameworks/native/libs/binder/ndk/include_cpp/android/binder_to_string.h:153:5)",
   "referenced_type" : "_ZTIN7android8internal7details13ToEmptyStringIhE6$valueE",
   "self_type" : "_ZTIN7android8internal7details13ToEmptyStringIhE6$valueE",
   "size" : 4,
   "source_file" : "frameworks/native/libs/binder/ndk/include_cpp/android/binder_to_string.h",
   "underlying_type" : "_ZTIj"
  },
  {
   "alignment" : 4,
   "enum_fields" :
   [
    {
     "enum_field_value" : 0,
     "name" : "android::internal::details::ToEmptyString<int>::value"
    }
   ],
   "linker_set_key" : "_ZTIN7android8internal7details13ToEmptyStringIiE6$valueE",
   "name" : "android::internal::details::ToEmptyString<int>::(unnamed enum at frameworks/native/libs/binder/ndk/include_cpp/android/binder_to_string.h:153:5)",
   "referenced_type" : "_ZTIN7android8internal7details13ToEmptyStringIiE6$valueE",
   "self_type" : "_ZTIN7android8internal7details13ToEmptyStringIiE6$valueE",
   "size" : 4,
   "source_file" : "frameworks/native/libs/binder/ndk/include_cpp/android/binder_to_string.h",
   "underlying_type" : "_ZTIj"
  },
  {
   "alignment" : 4,
   "enum_fields" :
   [
    {
     "enum_field_value" : 0,
     "name" : "android::internal::details::ToEmptyString<long long>::value"
    }
   ],
   "linker_set_key" : "_ZTIN7android8internal7details13ToEmptyStringIxE6$valueE",
   "name" : "android::internal::details::ToEmptyString<long long>::(unnamed enum at frameworks/native/libs/binder/ndk/include_cpp/android/binder_to_string.h:153:5)",
   "referenced_type" : "_ZTIN7android8internal7details13ToEmptyStringIxE6$valueE",
   "self_type" : "_ZTIN7android8internal7details13ToEmptyStringIxE6$valueE",
   "size" : 4,
   "source_file" : "frameworks/native/libs/binder/ndk/include_cpp/android/binder_to_string.h",
   "underlying_type" : "_ZTIj"
  },
  {
   "alignment" : 4,
   "enum_fields" :
   [
    {
     "enum_field_value" : 1,
     "name" : "android::internal::details::HasToStringMethod<aidl::android::hardware::camera::device::ShutterMsg>::value"
    }
   ],
   "linker_set_key" : "_ZTIN7android8internal7details17HasToStringMethodIN4aidl7android8hardware6camera6device10ShutterMsgEE6$valueE",
   "name" : "android::internal::details::HasToStringMethod<aidl::android::hardware::camera::device::ShutterMsg>::(unnamed enum at frameworks/native/libs/binder/ndk/include_cpp/android/binder_to_string.h:77:5)",
   "referenced_type" : "_ZTIN7android8internal7details17HasToStringMethodIN4aidl7android8hardware6camera6device10ShutterMsgEE6$valueE",
   "self_type" : "_ZTIN7android8internal7details17HasToStringMethodIN4aidl7android8hardware6camera6device10ShutterMsgEE6$valueE",
   "size" : 4,
   "source_file" : "frameworks/native/libs/binder/ndk/include_cpp/android/binder_to_string.h",
   "underlying_type" : "_ZTIj"
  },
  {
   "alignment" : 4,
   "enum_fields" :
   [
    {
     "enum_field_value" : 0,
     "name" : "android::internal::details::HasToStringMethod<aidl::android::hardware::camera::device::StreamType>::value"
    }
   ],
   "linker_set_key" : "_ZTIN7android8internal7details17HasToStringMethodIN4aidl7android8hardware6camera6device10StreamTypeEE6$valueE",
   "name" : "android::internal::details::HasToStringMethod<aidl::android::hardware::camera::device::StreamType>::(unnamed enum at frameworks/native/libs/binder/ndk/include_cpp/android/binder_to_string.h:77:5)",
   "referenced_type" : "_ZTIN7android8internal7details17HasToStringMethodIN4aidl7android8hardware6camera6device10StreamTypeEE6$valueE",
   "self_type" : "_ZTIN7android8internal7details17HasToStringMethodIN4aidl7android8hardware6camera6device10StreamTypeEE6$valueE",
   "size" : 4,
   "source_file" : "frameworks/native/libs/binder/ndk/include_cpp/android/binder_to_string.h",
   "underlying_type" : "_ZTIj"
  },
  {
   "alignment" : 4,
   "enum_fields" :
   [
    {
     "enum_field_value" : 0,
     "name" : "android::internal::details::HasToStringMethod<aidl::android::hardware::camera::device::BufferStatus>::value"
    }
   ],
   "linker_set_key" : "_ZTIN7android8internal7details17HasToStringMethodIN4aidl7android8hardware6camera6device12BufferStatusEE6$valueE",
   "name" : "android::internal::details::HasToStringMethod<aidl::android::hardware::camera::device::BufferStatus>::(unnamed enum at frameworks/native/libs/binder/ndk/include_cpp/android/binder_to_string.h:77:5)",
   "referenced_type" : "_ZTIN7android8internal7details17HasToStringMethodIN4aidl7android8hardware6camera6device12BufferStatusEE6$valueE",
   "self_type" : "_ZTIN7android8internal7details17HasToStringMethodIN4aidl7android8hardware6camera6device12BufferStatusEE6$valueE",
   "size" : 4,
   "source_file" : "frameworks/native/libs/binder/ndk/include_cpp/android/binder_to_string.h",
   "underlying_type" : "_ZTIj"
  },
  {
   "alignment" : 4,
   "enum_fields" :
   [
    {
     "enum_field_value" : 0,
     "name" : "android::internal::details::HasToStringMethod<aidl::android::hardware::camera::device::CameraBlobId>::value"
    }
   ],
   "linker_set_key" : "_ZTIN7android8internal7details17HasToStringMethodIN4aidl7android8hardware6camera6device12CameraBlobIdEE6$valueE",
   "name" : "android::internal::details::HasToStringMethod<aidl::android::hardware::camera::device::CameraBlobId>::(unnamed enum at frameworks/native/libs/binder/ndk/include_cpp/android/binder_to_string.h:77:5)",
   "referenced_type" : "_ZTIN7android8internal7details17HasToStringMethodIN4aidl7android8hardware6camera6device12CameraBlobIdEE6$valueE",
   "self_type" : "_ZTIN7android8internal7details17HasToStringMethodIN4aidl7android8hardware6camera6device12CameraBlobIdEE6$valueE",
   "size" : 4,
   "source_file" : "frameworks/native/libs/binder/ndk/include_cpp/android/binder_to_string.h",
   "underlying_type" : "_ZTIj"
  },
  {
   "alignment" : 4,
   "enum_fields" :
   [
    {
     "enum_field_value" : 1,
     "name" : "android::internal::details::HasToStringMethod<aidl::android::hardware::camera::device::StreamBuffer>::value"
    }
   ],
   "linker_set_key" : "_ZTIN7android8internal7details17HasToStringMethodIN4aidl7android8hardware6camera6device12StreamBufferEE6$valueE",
   "name" : "android::internal::details::HasToStringMethod<aidl::android::hardware::camera::device::StreamBuffer>::(unnamed enum at frameworks/native/libs/binder/ndk/include_cpp/android/binder_to_string.h:77:5)",
   "referenced_type" : "_ZTIN7android8internal7details17HasToStringMethodIN4aidl7android8hardware6camera6device12StreamBufferEE6$valueE",
   "self_type" : "_ZTIN7android8internal7details17HasToStringMethodIN4aidl7android8hardware6camera6device12StreamBufferEE6$valueE",
   "size" : 4,
   "source_file" : "frameworks/native/libs/binder/ndk/include_cpp/android/binder_to_string.h",
   "underlying_type" : "_ZTIj"
  },
  {
   "alignment" : 4,
   "enum_fields" :
   [
    {
     "enum_field_value" : 1,
     "name" : "android::internal::details::HasToStringMethod<aidl::android::hardware::camera::device::OfflineStream>::value"
    }
   ],
   "linker_set_key" : "_ZTIN7android8internal7details17HasToStringMethodIN4aidl7android8hardware6camera6device13OfflineStreamEE6$valueE",
   "name" : "android::internal::details::HasToStringMethod<aidl::android::hardware::camera::device::OfflineStream>::(unnamed enum at frameworks/native/libs/binder/ndk/include_cpp/android/binder_to_string.h:77:5)",
   "referenced_type" : "_ZTIN7android8internal7details17HasToStringMethodIN4aidl7android8hardware6camera6device13OfflineStreamEE6$valueE",
   "self_type" : "_ZTIN7android8internal7details17HasToStringMethodIN4aidl7android8hardware6camera6device13OfflineStreamEE6$valueE",
   "size" : 4,
   "source_file" : "frameworks/native/libs/binder/ndk/include_cpp/android/binder_to_string.h",
   "underlying_type" : "_ZTIj"
  },
  {
   "alignment" : 4,
   "enum_fields" :
   [
    {
     "enum_field_value" : 1,
     "name" : "android::internal::details::HasToStringMethod<aidl::android::hardware::camera::device::CameraMetadata>::value"
    }
   ],
   "linker_set_key" : "_ZTIN7android8internal7details17HasToStringMethodIN4aidl7android8hardware6camera6device14CameraMetadataEE6$valueE",
   "name" : "android::internal::details::HasToStringMethod<aidl::android::hardware::camera::device::CameraMetadata>::(unnamed enum at frameworks/native/libs/binder/ndk/include_cpp/android/binder_to_string.h:77:5)",
   "referenced_type" : "_ZTIN7android8internal7details17HasToStringMethodIN4aidl7android8hardware6camera6device14CameraMetadataEE6$valueE",
   "self_type" : "_ZTIN7android8internal7details17HasToStringMethodIN4aidl7android8hardware6camera6device14CameraMetadataEE6$valueE",
   "size" : 4,
   "source_file" : "frameworks/native/libs/binder/ndk/include_cpp/android/binder_to_string.h",
   "underlying_type" : "_ZTIj"
  },
  {
   "alignment" : 4,
   "enum_fields" :
   [
    {
     "enum_field_value" : 1,
     "name" : "android::internal::details::HasToStringMethod<aidl::android::hardware::camera::device::OfflineRequest>::value"
    }
   ],
   "linker_set_key" : "_ZTIN7android8internal7details17HasToStringMethodIN4aidl7android8hardware6camera6device14OfflineRequestEE6$valueE",
   "name" : "android::internal::details::HasToStringMethod<aidl::android::hardware::camera::device::OfflineRequest>::(unnamed enum at frameworks/native/libs/binder/ndk/include_cpp/android/binder_to_string.h:77:5)",
   "referenced_type" : "_ZTIN7android8internal7details17HasToStringMethodIN4aidl7android8hardware6camera6device14OfflineRequestEE6$valueE",
   "self_type" : "_ZTIN7android8internal7details17HasToStringMethodIN4aidl7android8hardware6camera6device14OfflineRequestEE6$valueE",
   "size" : 4,
   "source_file" : "frameworks/native/libs/binder/ndk/include_cpp/android/binder_to_string.h",
   "underlying_type" : "_ZTIj"
  },
  {
   "alignment" : 4,
   "enum_fields" :
   [
    {
     "enum_field_value" : 0,
     "name" : "android::internal::details::HasToStringMethod<aidl::android::hardware::camera::device::StreamRotation>::value"
    }
   ],
   "linker_set_key" : "_ZTIN7android8internal7details17HasToStringMethodIN4aidl7android8hardware6camera6device14StreamRotationEE6$valueE",
   "name" : "android::internal::details::HasToStringMethod<aidl::android::hardware::camera::device::StreamRotation>::(unnamed enum at frameworks/native/libs/binder/ndk/include_cpp/android/binder_to_string.h:77:5)",
   "referenced_type" : "_ZTIN7android8internal7details17HasToStringMethodIN4aidl7android8hardware6camera6device14StreamRotationEE6$valueE",
   "self_type" : "_ZTIN7android8internal7details17HasToStringMethodIN4aidl7android8hardware6camera6device14StreamRotationEE6$valueE",
   "size" : 4,
   "source_file" : "frameworks/native/libs/binder/ndk/include_cpp/android/binder_to_string.h",
   "underlying_type" : "_ZTIj"
  },
  {
   "alignment" : 4,
   "enum_fields" :
   [
    {
     "enum_field_value" : 1,
     "name" : "android::internal::details::HasToStringMethod<aidl::android::hardware::camera::device::StreamBuffersVal>::value"
    }
   ],
   "linker_set_key" : "_ZTIN7android8internal7details17HasToStringMethodIN4aidl7android8hardware6camera6device16StreamBuffersValEE6$valueE",
   "name" : "android::internal::details::HasToStringMethod<aidl::android::hardware::camera::device::StreamBuffersVal>::(unnamed enum at frameworks/native/libs/binder/ndk/include_cpp/android/binder_to_string.h:77:5)",
   "referenced_type" : "_ZTIN7android8internal7details17HasToStringMethodIN4aidl7android8hardware6camera6device16StreamBuffersValEE6$valueE",
   "self_type" : "_ZTIN7android8internal7details17HasToStringMethodIN4aidl7android8hardware6camera6device16StreamBuffersValEE6$valueE",
   "size" : 4,
   "source_file" : "frameworks/native/libs/binder/ndk/include_cpp/android/binder_to_string.h",
   "underlying_type" : "_ZTIj"
  },
  {
   "alignment" : 4,
   "enum_fields" :
   [
    {
     "enum_field_value" : 1,
     "name" : "android::internal::details::HasToStringMethod<aidl::android::hardware::camera::device::PhysicalCameraSetting>::value"
    }
   ],
   "linker_set_key" : "_ZTIN7android8internal7details17HasToStringMethodIN4aidl7android8hardware6camera6device21PhysicalCameraSettingEE6$valueE",
   "name" : "android::internal::details::HasToStringMethod<aidl::android::hardware::camera::device::PhysicalCameraSetting>::(unnamed enum at frameworks/native/libs/binder/ndk/include_cpp/android/binder_to_string.h:77:5)",
   "referenced_type" : "_ZTIN7android8internal7details17HasToStringMethodIN4aidl7android8hardware6camera6device21PhysicalCameraSettingEE6$valueE",
   "self_type" : "_ZTIN7android8internal7details17HasToStringMethodIN4aidl7android8hardware6camera6device21PhysicalCameraSettingEE6$valueE",
   "size" : 4,
   "source_file" : "frameworks/native/libs/binder/ndk/include_cpp/android/binder_to_string.h",
   "underlying_type" : "_ZTIj"
  },
  {
   "alignment" : 4,
   "enum_fields" :
   [
    {
     "enum_field_value" : 1,
     "name" : "android::internal::details::HasToStringMethod<aidl::android::hardware::camera::device::PhysicalCameraMetadata>::value"
    }
   ],
   "linker_set_key" : "_ZTIN7android8internal7details17HasToStringMethodIN4aidl7android8hardware6camera6device22PhysicalCameraMetadataEE6$valueE",
   "name" : "android::internal::details::HasToStringMethod<aidl::android::hardware::camera::device::PhysicalCameraMetadata>::(unnamed enum at frameworks/native/libs/binder/ndk/include_cpp/android/binder_to_string.h:77:5)",
   "referenced_type" : "_ZTIN7android8internal7details17HasToStringMethodIN4aidl7android8hardware6camera6device22PhysicalCameraMetadataEE6$valueE",
   "self_type" : "_ZTIN7android8internal7details17HasToStringMethodIN4aidl7android8hardware6camera6device22PhysicalCameraMetadataEE6$valueE",
   "size" : 4,
   "source_file" : "frameworks/native/libs/binder/ndk/include_cpp/android/binder_to_string.h",
   "underlying_type" : "_ZTIj"
  },
  {
   "alignment" : 4,
   "enum_fields" :
   [
    {
     "enum_field_value" : 0,
     "name" : "android::internal::details::HasToStringMethod<aidl::android::hardware::camera::device::StreamConfigurationMode>::value"
    }
   ],
   "linker_set_key" : "_ZTIN7android8internal7details17HasToStringMethodIN4aidl7android8hardware6camera6device23StreamConfigurationModeEE6$valueE",
   "name" : "android::internal::details::HasToStringMethod<aidl::android::hardware::camera::device::StreamConfigurationMode>::(unnamed enum at frameworks/native/libs/binder/ndk/include_cpp/android/binder_to_string.h:77:5)",
   "referenced_type" : "_ZTIN7android8internal7details17HasToStringMethodIN4aidl7android8hardware6camera6device23StreamConfigurationModeEE6$valueE",
   "self_type" : "_ZTIN7android8internal7details17HasToStringMethodIN4aidl7android8hardware6camera6device23StreamConfigurationModeEE6$valueE",
   "size" : 4,
   "source_file" : "frameworks/native/libs/binder/ndk/include_cpp/android/binder_to_string.h",
   "underlying_type" : "_ZTIj"
  },
  {
   "alignment" : 4,
   "enum_fields" :
   [
    {
     "enum_field_value" : 0,
     "name" : "android::internal::details::HasToStringMethod<aidl::android::hardware::camera::device::StreamBufferRequestError>::value"
    }
   ],
   "linker_set_key" : "_ZTIN7android8internal7details17HasToStringMethodIN4aidl7android8hardware6camera6device24StreamBufferRequestErrorEE6$valueE",
   "name" : "android::internal::details::HasToStringMethod<aidl::android::hardware::camera::device::StreamBufferRequestError>::(unnamed enum at frameworks/native/libs/binder/ndk/include_cpp/android/binder_to_string.h:77:5)",
   "referenced_type" : "_ZTIN7android8internal7details17HasToStringMethodIN4aidl7android8hardware6camera6device24StreamBufferRequestErrorEE6$valueE",
   "self_type" : "_ZTIN7android8internal7details17HasToStringMethodIN4aidl7android8hardware6camera6device24StreamBufferRequestErrorEE6$valueE",
   "size" : 4,
   "source_file" : "frameworks/native/libs/binder/ndk/include_cpp/android/binder_to_string.h",
   "underlying_type" : "_ZTIj"
  },
  {
   "alignment" : 4,
   "enum_fields" :
   [
    {
     "enum_field_value" : 1,
     "name" : "android::internal::details::HasToStringMethod<aidl::android::hardware::camera::device::Stream>::value"
    }
   ],
   "linker_set_key" : "_ZTIN7android8internal7details17HasToStringMethodIN4aidl7android8hardware6camera6device6StreamEE6$valueE",
   "name" : "android::internal::details::HasToStringMethod<aidl::android::hardware::camera::device::Stream>::(unnamed enum at frameworks/native/libs/binder/ndk/include_cpp/android/binder_to_string.h:77:5)",
   "referenced_type" : "_ZTIN7android8internal7details17HasToStringMethodIN4aidl7android8hardware6camera6device6StreamEE6$valueE",
   "self_type" : "_ZTIN7android8internal7details17HasToStringMethodIN4aidl7android8hardware6camera6device6StreamEE6$valueE",
   "size" : 4,
   "source_file" : "frameworks/native/libs/binder/ndk/include_cpp/android/binder_to_string.h",
   "underlying_type" : "_ZTIj"
  },
  {
   "alignment" : 4,
   "enum_fields" :
   [
    {
     "enum_field_value" : 1,
     "name" : "android::internal::details::HasToStringMethod<aidl::android::hardware::camera::device::ErrorMsg>::value"
    }
   ],
   "linker_set_key" : "_ZTIN7android8internal7details17HasToStringMethodIN4aidl7android8hardware6camera6device8ErrorMsgEE6$valueE",
   "name" : "android::internal::details::HasToStringMethod<aidl::android::hardware::camera::device::ErrorMsg>::(unnamed enum at frameworks/native/libs/binder/ndk/include_cpp/android/binder_to_string.h:77:5)",
   "referenced_type" : "_ZTIN7android8internal7details17HasToStringMethodIN4aidl7android8hardware6camera6device8ErrorMsgEE6$valueE",
   "self_type" : "_ZTIN7android8internal7details17HasToStringMethodIN4aidl7android8hardware6camera6device8ErrorMsgEE6$valueE",
   "size" : 4,
   "source_file" : "frameworks/native/libs/binder/ndk/include_cpp/android/binder_to_string.h",
   "underlying_type" : "_ZTIj"
  },
  {
   "alignment" : 4,
   "enum_fields" :
   [
    {
     "enum_field_value" : 0,
     "name" : "android::internal::details::HasToStringMethod<aidl::android::hardware::camera::device::ErrorCode>::value"
    }
   ],
   "linker_set_key" : "_ZTIN7android8internal7details17HasToStringMethodIN4aidl7android8hardware6camera6device9ErrorCodeEE6$valueE",
   "name" : "android::internal::details::HasToStringMethod<aidl::android::hardware::camera::device::ErrorCode>::(unnamed enum at frameworks/native/libs/binder/ndk/include_cpp/android/binder_to_string.h:77:5)",
   "referenced_type" : "_ZTIN7android8internal7details17HasToStringMethodIN4aidl7android8hardware6camera6device9ErrorCodeEE6$valueE",
   "self_type" : "_ZTIN7android8internal7details17HasToStringMethodIN4aidl7android8hardware6camera6device9ErrorCodeEE6$valueE",
   "size" : 4,
   "source_file" : "frameworks/native/libs/binder/ndk/include_cpp/android/binder_to_string.h",
   "underlying_type" : "_ZTIj"
  },
  {
   "alignment" : 4,
   "enum_fields" :
   [
    {
     "enum_field_value" : 0,
     "name" : "android::internal::details::HasToStringMethod<aidl::android::hardware::camera::metadata::SensorPixelMode>::value"
    }
   ],
   "linker_set_key" : "_ZTIN7android8internal7details17HasToStringMethodIN4aidl7android8hardware6camera8metadata15SensorPixelModeEE6$valueE",
   "name" : "android::internal::details::HasToStringMethod<aidl::android::hardware::camera::metadata::SensorPixelMode>::(unnamed enum at frameworks/native/libs/binder/ndk/include_cpp/android/binder_to_string.h:77:5)",
   "referenced_type" : "_ZTIN7android8internal7details17HasToStringMethodIN4aidl7android8hardware6camera8metadata15SensorPixelModeEE6$valueE",
   "self_type" : "_ZTIN7android8internal7details17HasToStringMethodIN4aidl7android8hardware6camera8metadata15SensorPixelModeEE6$valueE",
   "size" : 4,
   "source_file" : "frameworks/native/libs/binder/ndk/include_cpp/android/binder_to_string.h",
   "underlying_type" : "_ZTIj"
  },
  {
   "alignment" : 4,
   "enum_fields" :
   [
    {
     "enum_field_value" : 0,
     "name" : "android::internal::details::HasToStringMethod<aidl::android::hardware::camera::metadata::ScalerAvailableStreamUseCases>::value"
    }
   ],
   "linker_set_key" : "_ZTIN7android8internal7details17HasToStringMethodIN4aidl7android8hardware6camera8metadata29ScalerAvailableStreamUseCasesEE6$valueE",
   "name" : "android::internal::details::HasToStringMethod<aidl::android::hardware::camera::metadata::ScalerAvailableStreamUseCases>::(unnamed enum at frameworks/native/libs/binder/ndk/include_cpp/android/binder_to_string.h:77:5)",
   "referenced_type" : "_ZTIN7android8internal7details17HasToStringMethodIN4aidl7android8hardware6camera8metadata29ScalerAvailableStreamUseCasesEE6$valueE",
   "self_type" : "_ZTIN7android8internal7details17HasToStringMethodIN4aidl7android8hardware6camera8metadata29ScalerAvailableStreamUseCasesEE6$valueE",
   "size" : 4,
   "source_file" : "frameworks/native/libs/binder/ndk/include_cpp/android/binder_to_string.h",
   "underlying_type" : "_ZTIj"
  },
  {
   "alignment" : 4,
   "enum_fields" :
   [
    {
     "enum_field_value" : 0,
     "name" : "android::internal::details::HasToStringMethod<aidl::android::hardware::camera::metadata::RequestAvailableDynamicRangeProfilesMap>::value"
    }
   ],
   "linker_set_key" : "_ZTIN7android8internal7details17HasToStringMethodIN4aidl7android8hardware6camera8metadata39RequestAvailableDynamicRangeProfilesMapEE6$valueE",
   "name" : "android::internal::details::HasToStringMethod<aidl::android::hardware::camera::metadata::RequestAvailableDynamicRangeProfilesMap>::(unnamed enum at frameworks/native/libs/binder/ndk/include_cpp/android/binder_to_string.h:77:5)",
   "referenced_type" : "_ZTIN7android8internal7details17HasToStringMethodIN4aidl7android8hardware6camera8metadata39RequestAvailableDynamicRangeProfilesMapEE6$valueE",
   "self_type" : "_ZTIN7android8internal7details17HasToStringMethodIN4aidl7android8hardware6camera8metadata39RequestAvailableDynamicRangeProfilesMapEE6$valueE",
   "size" : 4,
   "source_file" : "frameworks/native/libs/binder/ndk/include_cpp/android/binder_to_string.h",
   "underlying_type" : "_ZTIj"
  },
  {
   "alignment" : 4,
   "enum_fields" :
   [
    {
     "enum_field_value" : 1,
     "name" : "android::internal::details::HasToStringMethod<aidl::android::hardware::common::NativeHandle>::value"
    }
   ],
   "linker_set_key" : "_ZTIN7android8internal7details17HasToStringMethodIN4aidl7android8hardware6common12NativeHandleEE6$valueE",
   "name" : "android::internal::details::HasToStringMethod<aidl::android::hardware::common::NativeHandle>::(unnamed enum at frameworks/native/libs/binder/ndk/include_cpp/android/binder_to_string.h:77:5)",
   "referenced_type" : "_ZTIN7android8internal7details17HasToStringMethodIN4aidl7android8hardware6common12NativeHandleEE6$valueE",
   "self_type" : "_ZTIN7android8internal7details17HasToStringMethodIN4aidl7android8hardware6common12NativeHandleEE6$valueE",
   "size" : 4,
   "source_file" : "frameworks/native/libs/binder/ndk/include_cpp/android/binder_to_string.h",
   "underlying_type" : "_ZTIj"
  },
  {
   "alignment" : 4,
   "enum_fields" :
   [
    {
     "enum_field_value" : 0,
     "name" : "android::internal::details::HasToStringMethod<aidl::android::hardware::graphics::common::BufferUsage>::value"
    }
   ],
   "linker_set_key" : "_ZTIN7android8internal7details17HasToStringMethodIN4aidl7android8hardware8graphics6common11BufferUsageEE6$valueE",
   "name" : "android::internal::details::HasToStringMethod<aidl::android::hardware::graphics::common::BufferUsage>::(unnamed enum at frameworks/native/libs/binder/ndk/include_cpp/android/binder_to_string.h:77:5)",
   "referenced_type" : "_ZTIN7android8internal7details17HasToStringMethodIN4aidl7android8hardware8graphics6common11BufferUsageEE6$valueE",
   "self_type" : "_ZTIN7android8internal7details17HasToStringMethodIN4aidl7android8hardware8graphics6common11BufferUsageEE6$valueE",
   "size" : 4,
   "source_file" : "frameworks/native/libs/binder/ndk/include_cpp/android/binder_to_string.h",
   "underlying_type" : "_ZTIj"
  },
  {
   "alignment" : 4,
   "enum_fields" :
   [
    {
     "enum_field_value" : 0,
     "name" : "android::internal::details::HasToStringMethod<aidl::android::hardware::graphics::common::PixelFormat>::value"
    }
   ],
   "linker_set_key" : "_ZTIN7android8internal7details17HasToStringMethodIN4aidl7android8hardware8graphics6common11PixelFormatEE6$valueE",
   "name" : "android::internal::details::HasToStringMethod<aidl::android::hardware::graphics::common::PixelFormat>::(unnamed enum at frameworks/native/libs/binder/ndk/include_cpp/android/binder_to_string.h:77:5)",
   "referenced_type" : "_ZTIN7android8internal7details17HasToStringMethodIN4aidl7android8hardware8graphics6common11PixelFormatEE6$valueE",
   "self_type" : "_ZTIN7android8internal7details17HasToStringMethodIN4aidl7android8hardware8graphics6common11PixelFormatEE6$valueE",
   "size" : 4,
   "source_file" : "frameworks/native/libs/binder/ndk/include_cpp/android/binder_to_string.h",
   "underlying_type" : "_ZTIj"
  },
  {
   "alignment" : 4,
   "enum_fields" :
   [
    {
     "enum_field_value" : 0,
     "name" : "android::internal::details::HasToStringMethod<aidl::android::hardware::graphics::common::Dataspace>::value"
    }
   ],
   "linker_set_key" : "_ZTIN7android8internal7details17HasToStringMethodIN4aidl7android8hardware8graphics6common9DataspaceEE6$valueE",
   "name" : "android::internal::details::HasToStringMethod<aidl::android::hardware::graphics::common::Dataspace>::(unnamed enum at frameworks/native/libs/binder/ndk/include_cpp/android/binder_to_string.h:77:5)",
   "referenced_type" : "_ZTIN7android8internal7details17HasToStringMethodIN4aidl7android8hardware8graphics6common9DataspaceEE6$valueE",
   "self_type" : "_ZTIN7android8internal7details17HasToStringMethodIN4aidl7android8hardware8graphics6common9DataspaceEE6$valueE",
   "size" : 4,
   "source_file" : "frameworks/native/libs/binder/ndk/include_cpp/android/binder_to_string.h",
   "underlying_type" : "_ZTIj"
  },
  {
   "alignment" : 4,
   "enum_fields" :
   [
    {
     "enum_field_value" : 0,
     "name" : "android::internal::details::HasToStringMethod<std::vector<ndk::ScopedFileDescriptor>>::value"
    }
   ],
   "linker_set_key" : "_ZTIN7android8internal7details17HasToStringMethodINSt3__16vectorIN3ndk20ScopedFileDescriptorENS3_9allocatorIS6_EEEEE6$valueE",
   "name" : "android::internal::details::HasToStringMethod<std::vector<ndk::ScopedFileDescriptor, std::allocator<ndk::ScopedFileDescriptor>>>::(unnamed enum at frameworks/native/libs/binder/ndk/include_cpp/android/binder_to_string.h:77:5)",
   "referenced_type" : "_ZTIN7android8internal7details17HasToStringMethodINSt3__16vectorIN3ndk20ScopedFileDescriptorENS3_9allocatorIS6_EEEEE6$valueE",
   "self_type" : "_ZTIN7android8internal7details17HasToStringMethodINSt3__16vectorIN3ndk20ScopedFileDescriptorENS3_9allocatorIS6_EEEEE6$valueE",
   "size" : 4,
   "source_file" : "frameworks/native/libs/binder/ndk/include_cpp/android/binder_to_string.h",
   "underlying_type" : "_ZTIj"
  },
  {
   "alignment" : 4,
   "enum_fields" :
   [
    {
     "enum_field_value" : 0,
     "name" : "android::internal::details::HasToStringMethod<std::vector<aidl::android::hardware::camera::device::StreamBuffer>>::value"
    }
   ],
   "linker_set_key" : "_ZTIN7android8internal7details17HasToStringMethodINSt3__16vectorIN4aidl7android8hardware6camera6device12StreamBufferENS3_9allocatorISA_EEEEE6$valueE",
   "name" : "android::internal::details::HasToStringMethod<std::vector<aidl::android::hardware::camera::device::StreamBuffer, std::allocator<aidl::android::hardware::camera::device::StreamBuffer>>>::(unnamed enum at frameworks/native/libs/binder/ndk/include_cpp/android/binder_to_string.h:77:5)",
   "referenced_type" : "_ZTIN7android8internal7details17HasToStringMethodINSt3__16vectorIN4aidl7android8hardware6camera6device12StreamBufferENS3_9allocatorISA_EEEEE6$valueE",
   "self_type" : "_ZTIN7android8internal7details17HasToStringMethodINSt3__16vectorIN4aidl7android8hardware6camera6device12StreamBufferENS3_9allocatorISA_EEEEE6$valueE",
   "size" : 4,
   "source_file" : "frameworks/native/libs/binder/ndk/include_cpp/android/binder_to_string.h",
   "underlying_type" : "_ZTIj"
  },
  {
   "alignment" : 4,
   "enum_fields" :
   [
    {
     "enum_field_value" : 0,
     "name" : "android::internal::details::HasToStringMethod<std::vector<aidl::android::hardware::camera::device::OfflineStream>>::value"
    }
   ],
   "linker_set_key" : "_ZTIN7android8internal7details17HasToStringMethodINSt3__16vectorIN4aidl7android8hardware6camera6device13OfflineStreamENS3_9allocatorISA_EEEEE6$valueE",
   "name" : "android::internal::details::HasToStringMethod<std::vector<aidl::android::hardware::camera::device::OfflineStream, std::allocator<aidl::android::hardware::camera::device::OfflineStream>>>::(unnamed enum at frameworks/native/libs/binder/ndk/include_cpp/android/binder_to_string.h:77:5)",
   "referenced_type" : "_ZTIN7android8internal7details17HasToStringMethodINSt3__16vectorIN4aidl7android8hardware6camera6device13OfflineStreamENS3_9allocatorISA_EEEEE6$valueE",
   "self_type" : "_ZTIN7android8internal7details17HasToStringMethodINSt3__16vectorIN4aidl7android8hardware6camera6device13OfflineStreamENS3_9allocatorISA_EEEEE6$valueE",
   "size" : 4,
   "source_file" : "frameworks/native/libs/binder/ndk/include_cpp/android/binder_to_string.h",
   "underlying_type" : "_ZTIj"
  },
  {
   "alignment" : 4,
   "enum_fields" :
   [
    {
     "enum_field_value" : 0,
     "name" : "android::internal::details::HasToStringMethod<std::vector<aidl::android::hardware::camera::device::OfflineRequest>>::value"
    }
   ],
   "linker_set_key" : "_ZTIN7android8internal7details17HasToStringMethodINSt3__16vectorIN4aidl7android8hardware6camera6device14OfflineRequestENS3_9allocatorISA_EEEEE6$valueE",
   "name" : "android::internal::details::HasToStringMethod<std::vector<aidl::android::hardware::camera::device::OfflineRequest, std::allocator<aidl::android::hardware::camera::device::OfflineRequest>>>::(unnamed enum at frameworks/native/libs/binder/ndk/include_cpp/android/binder_to_string.h:77:5)",
   "referenced_type" : "_ZTIN7android8internal7details17HasToStringMethodINSt3__16vectorIN4aidl7android8hardware6camera6device14OfflineRequestENS3_9allocatorISA_EEEEE6$valueE",
   "self_type" : "_ZTIN7android8internal7details17HasToStringMethodINSt3__16vectorIN4aidl7android8hardware6camera6device14OfflineRequestENS3_9allocatorISA_EEEEE6$valueE",
   "size" : 4,
   "source_file" : "frameworks/native/libs/binder/ndk/include_cpp/android/binder_to_string.h",
   "underlying_type" : "_ZTIj"
  },
  {
   "alignment" : 4,
   "enum_fields" :
   [
    {
     "enum_field_value" : 0,
     "name" : "android::internal::details::HasToStringMethod<std::vector<aidl::android::hardware::camera::device::PhysicalCameraSetting>>::value"
    }
   ],
   "linker_set_key" : "_ZTIN7android8internal7details17HasToStringMethodINSt3__16vectorIN4aidl7android8hardware6camera6device21PhysicalCameraSettingENS3_9allocatorISA_EEEEE6$valueE",
   "name" : "android::internal::details::HasToStringMethod<std::vector<aidl::android::hardware::camera::device::PhysicalCameraSetting, std::allocator<aidl::android::hardware::camera::device::PhysicalCameraSetting>>>::(unnamed enum at frameworks/native/libs/binder/ndk/include_cpp/android/binder_to_string.h:77:5)",
   "referenced_type" : "_ZTIN7android8internal7details17HasToStringMethodINSt3__16vectorIN4aidl7android8hardware6camera6device21PhysicalCameraSettingENS3_9allocatorISA_EEEEE6$valueE",
   "self_type" : "_ZTIN7android8internal7details17HasToStringMethodINSt3__16vectorIN4aidl7android8hardware6camera6device21PhysicalCameraSettingENS3_9allocatorISA_EEEEE6$valueE",
   "size" : 4,
   "source_file" : "frameworks/native/libs/binder/ndk/include_cpp/android/binder_to_string.h",
   "underlying_type" : "_ZTIj"
  },
  {
   "alignment" : 4,
   "enum_fields" :
   [
    {
     "enum_field_value" : 0,
     "name" : "android::internal::details::HasToStringMethod<std::vector<aidl::android::hardware::camera::device::PhysicalCameraMetadata>>::value"
    }
   ],
   "linker_set_key" : "_ZTIN7android8internal7details17HasToStringMethodINSt3__16vectorIN4aidl7android8hardware6camera6device22PhysicalCameraMetadataENS3_9allocatorISA_EEEEE6$valueE",
   "name" : "android::internal::details::HasToStringMethod<std::vector<aidl::android::hardware::camera::device::PhysicalCameraMetadata, std::allocator<aidl::android::hardware::camera::device::PhysicalCameraMetadata>>>::(unnamed enum at frameworks/native/libs/binder/ndk/include_cpp/android/binder_to_string.h:77:5)",
   "referenced_type" : "_ZTIN7android8internal7details17HasToStringMethodINSt3__16vectorIN4aidl7android8hardware6camera6device22PhysicalCameraMetadataENS3_9allocatorISA_EEEEE6$valueE",
   "self_type" : "_ZTIN7android8internal7details17HasToStringMethodINSt3__16vectorIN4aidl7android8hardware6camera6device22PhysicalCameraMetadataENS3_9allocatorISA_EEEEE6$valueE",
   "size" : 4,
   "source_file" : "frameworks/native/libs/binder/ndk/include_cpp/android/binder_to_string.h",
   "underlying_type" : "_ZTIj"
  },
  {
   "alignment" : 4,
   "enum_fields" :
   [
    {
     "enum_field_value" : 0,
     "name" : "android::internal::details::HasToStringMethod<std::vector<aidl::android::hardware::camera::device::Stream>>::value"
    }
   ],
   "linker_set_key" : "_ZTIN7android8internal7details17HasToStringMethodINSt3__16vectorIN4aidl7android8hardware6camera6device6StreamENS3_9allocatorISA_EEEEE6$valueE",
   "name" : "android::internal::details::HasToStringMethod<std::vector<aidl::android::hardware::camera::device::Stream, std::allocator<aidl::android::hardware::camera::device::Stream>>>::(unnamed enum at frameworks/native/libs/binder/ndk/include_cpp/android/binder_to_string.h:77:5)",
   "referenced_type" : "_ZTIN7android8internal7details17HasToStringMethodINSt3__16vectorIN4aidl7android8hardware6camera6device6StreamENS3_9allocatorISA_EEEEE6$valueE",
   "self_type" : "_ZTIN7android8internal7details17HasToStringMethodINSt3__16vectorIN4aidl7android8hardware6camera6device6StreamENS3_9allocatorISA_EEEEE6$valueE",
   "size" : 4,
   "source_file" : "frameworks/native/libs/binder/ndk/include_cpp/android/binder_to_string.h",
   "underlying_type" : "_ZTIj"
  },
  {
   "alignment" : 4,
   "enum_fields" :
   [
    {
     "enum_field_value" : 0,
     "name" : "android::internal::details::HasToStringMethod<std::vector<aidl::android::hardware::camera::metadata::SensorPixelMode>>::value"
    }
   ],
   "linker_set_key" : "_ZTIN7android8internal7details17HasToStringMethodINSt3__16vectorIN4aidl7android8hardware6camera8metadata15SensorPixelModeENS3_9allocatorISA_EEEEE6$valueE",
   "name" : "android::internal::details::HasToStringMethod<std::vector<aidl::android::hardware::camera::metadata::SensorPixelMode, std::allocator<aidl::android::hardware::camera::metadata::SensorPixelMode>>>::(unnamed enum at frameworks/native/libs/binder/ndk/include_cpp/android/binder_to_string.h:77:5)",
   "referenced_type" : "_ZTIN7android8internal7details17HasToStringMethodINSt3__16vectorIN4aidl7android8hardware6camera8metadata15SensorPixelModeENS3_9allocatorISA_EEEEE6$valueE",
   "self_type" : "_ZTIN7android8internal7details17HasToStringMethodINSt3__16vectorIN4aidl7android8hardware6camera8metadata15SensorPixelModeENS3_9allocatorISA_EEEEE6$valueE",
   "size" : 4,
   "source_file" : "frameworks/native/libs/binder/ndk/include_cpp/android/binder_to_string.h",
   "underlying_type" : "_ZTIj"
  },
  {
   "alignment" : 4,
   "enum_fields" :
   [
    {
     "enum_field_value" : 0,
     "name" : "android::internal::details::HasToStringMethod<std::vector<std::basic_string<char>>>::value"
    }
   ],
   "linker_set_key" : "_ZTIN7android8internal7details17HasToStringMethodINSt3__16vectorINS3_12basic_stringIcNS3_11char_traitsIcEENS3_9allocatorIcEEEENS8_ISA_EEEEE6$valueE",
   "name" : "android::internal::details::HasToStringMethod<std::vector<std::basic_string<char, std::char_traits<char>, std::allocator<char>>, std::allocator<std::basic_string<char, std::char_traits<char>, std::allocator<char>>>>>::(unnamed enum at frameworks/native/libs/binder/ndk/include_cpp/android/binder_to_string.h:77:5)",
   "referenced_type" : "_ZTIN7android8internal7details17HasToStringMethodINSt3__16vectorINS3_12basic_stringIcNS3_11char_traitsIcEENS3_9allocatorIcEEEENS8_ISA_EEEEE6$valueE",
   "self_type" : "_ZTIN7android8internal7details17HasToStringMethodINSt3__16vectorINS3_12basic_stringIcNS3_11char_traitsIcEENS3_9allocatorIcEEEENS8_ISA_EEEEE6$valueE",
   "size" : 4,
   "source_file" : "frameworks/native/libs/binder/ndk/include_cpp/android/binder_to_string.h",
   "underlying_type" : "_ZTIj"
  },
  {
   "alignment" : 4,
   "enum_fields" :
   [
    {
     "enum_field_value" : 0,
     "name" : "android::internal::details::HasToStringMethod<std::vector<unsigned char>>::value"
    }
   ],
   "linker_set_key" : "_ZTIN7android8internal7details17HasToStringMethodINSt3__16vectorIhNS3_9allocatorIhEEEEE6$valueE",
   "name" : "android::internal::details::HasToStringMethod<std::vector<unsigned char, std::allocator<unsigned char>>>::(unnamed enum at frameworks/native/libs/binder/ndk/include_cpp/android/binder_to_string.h:77:5)",
   "referenced_type" : "_ZTIN7android8internal7details17HasToStringMethodINSt3__16vectorIhNS3_9allocatorIhEEEEE6$valueE",
   "self_type" : "_ZTIN7android8internal7details17HasToStringMethodINSt3__16vectorIhNS3_9allocatorIhEEEEE6$valueE",
   "size" : 4,
   "source_file" : "frameworks/native/libs/binder/ndk/include_cpp/android/binder_to_string.h",
   "underlying_type" : "_ZTIj"
  },
  {
   "alignment" : 4,
   "enum_fields" :
   [
    {
     "enum_field_value" : 0,
     "name" : "android::internal::details::HasToStringMethod<std::vector<int>>::value"
    }
   ],
   "linker_set_key" : "_ZTIN7android8internal7details17HasToStringMethodINSt3__16vectorIiNS3_9allocatorIiEEEEE6$valueE",
   "name" : "android::internal::details::HasToStringMethod<std::vector<int, std::allocator<int>>>::(unnamed enum at frameworks/native/libs/binder/ndk/include_cpp/android/binder_to_string.h:77:5)",
   "referenced_type" : "_ZTIN7android8internal7details17HasToStringMethodINSt3__16vectorIiNS3_9allocatorIiEEEEE6$valueE",
   "self_type" : "_ZTIN7android8internal7details17HasToStringMethodINSt3__16vectorIiNS3_9allocatorIiEEEEE6$valueE",
   "size" : 4,
   "source_file" : "frameworks/native/libs/binder/ndk/include_cpp/android/binder_to_string.h",
   "underlying_type" : "_ZTIj"
  },
  {
   "alignment" : 4,
   "enum_fields" :
   [
    {
     "enum_field_value" : 0,
     "name" : "android::internal::details::HasToStringMethod<std::vector<long long>>::value"
    }
   ],
   "linker_set_key" : "_ZTIN7android8internal7details17HasToStringMethodINSt3__16vectorIxNS3_9allocatorIxEEEEE6$valueE",
   "name" : "android::internal::details::HasToStringMethod<std::vector<long long, std::allocator<long long>>>::(unnamed enum at frameworks/native/libs/binder/ndk/include_cpp/android/binder_to_string.h:77:5)",
   "referenced_type" : "_ZTIN7android8internal7details17HasToStringMethodINSt3__16vectorIxNS3_9allocatorIxEEEEE6$valueE",
   "self_type" : "_ZTIN7android8internal7details17HasToStringMethodINSt3__16vectorIxNS3_9allocatorIxEEEEE6$valueE",
   "size" : 4,
   "source_file" : "frameworks/native/libs/binder/ndk/include_cpp/android/binder_to_string.h",
   "underlying_type" : "_ZTIj"
  },
  {
   "alignment" : 4,
   "enum_fields" :
   [
    {
     "enum_field_value" : 1,
     "name" : "android::internal::details::HasToStringFunction<aidl::android::hardware::camera::device::StreamType>::value"
    }
   ],
   "linker_set_key" : "_ZTIN7android8internal7details19HasToStringFunctionIN4aidl7android8hardware6camera6device10StreamTypeEE6$valueE",
   "name" : "android::internal::details::HasToStringFunction<aidl::android::hardware::camera::device::StreamType>::(unnamed enum at frameworks/native/libs/binder/ndk/include_cpp/android/binder_to_string.h:89:5)",
   "referenced_type" : "_ZTIN7android8internal7details19HasToStringFunctionIN4aidl7android8hardware6camera6device10StreamTypeEE6$valueE",
   "self_type" : "_ZTIN7android8internal7details19HasToStringFunctionIN4aidl7android8hardware6camera6device10StreamTypeEE6$valueE",
   "size" : 4,
   "source_file" : "frameworks/native/libs/binder/ndk/include_cpp/android/binder_to_string.h",
   "underlying_type" : "_ZTIj"
  },
  {
   "alignment" : 4,
   "enum_fields" :
   [
    {
     "enum_field_value" : 1,
     "name" : "android::internal::details::HasToStringFunction<aidl::android::hardware::camera::device::BufferStatus>::value"
    }
   ],
   "linker_set_key" : "_ZTIN7android8internal7details19HasToStringFunctionIN4aidl7android8hardware6camera6device12BufferStatusEE6$valueE",
   "name" : "android::internal::details::HasToStringFunction<aidl::android::hardware::camera::device::BufferStatus>::(unnamed enum at frameworks/native/libs/binder/ndk/include_cpp/android/binder_to_string.h:89:5)",
   "referenced_type" : "_ZTIN7android8internal7details19HasToStringFunctionIN4aidl7android8hardware6camera6device12BufferStatusEE6$valueE",
   "self_type" : "_ZTIN7android8internal7details19HasToStringFunctionIN4aidl7android8hardware6camera6device12BufferStatusEE6$valueE",
   "size" : 4,
   "source_file" : "frameworks/native/libs/binder/ndk/include_cpp/android/binder_to_string.h",
   "underlying_type" : "_ZTIj"
  },
  {
   "alignment" : 4,
   "enum_fields" :
   [
    {
     "enum_field_value" : 1,
     "name" : "android::internal::details::HasToStringFunction<aidl::android::hardware::camera::device::CameraBlobId>::value"
    }
   ],
   "linker_set_key" : "_ZTIN7android8internal7details19HasToStringFunctionIN4aidl7android8hardware6camera6device12CameraBlobIdEE6$valueE",
   "name" : "android::internal::details::HasToStringFunction<aidl::android::hardware::camera::device::CameraBlobId>::(unnamed enum at frameworks/native/libs/binder/ndk/include_cpp/android/binder_to_string.h:89:5)",
   "referenced_type" : "_ZTIN7android8internal7details19HasToStringFunctionIN4aidl7android8hardware6camera6device12CameraBlobIdEE6$valueE",
   "self_type" : "_ZTIN7android8internal7details19HasToStringFunctionIN4aidl7android8hardware6camera6device12CameraBlobIdEE6$valueE",
   "size" : 4,
   "source_file" : "frameworks/native/libs/binder/ndk/include_cpp/android/binder_to_string.h",
   "underlying_type" : "_ZTIj"
  },
  {
   "alignment" : 4,
   "enum_fields" :
   [
    {
     "enum_field_value" : 1,
     "name" : "android::internal::details::HasToStringFunction<aidl::android::hardware::camera::device::StreamRotation>::value"
    }
   ],
   "linker_set_key" : "_ZTIN7android8internal7details19HasToStringFunctionIN4aidl7android8hardware6camera6device14StreamRotationEE6$valueE",
   "name" : "android::internal::details::HasToStringFunction<aidl::android::hardware::camera::device::StreamRotation>::(unnamed enum at frameworks/native/libs/binder/ndk/include_cpp/android/binder_to_string.h:89:5)",
   "referenced_type" : "_ZTIN7android8internal7details19HasToStringFunctionIN4aidl7android8hardware6camera6device14StreamRotationEE6$valueE",
   "self_type" : "_ZTIN7android8internal7details19HasToStringFunctionIN4aidl7android8hardware6camera6device14StreamRotationEE6$valueE",
   "size" : 4,
   "source_file" : "frameworks/native/libs/binder/ndk/include_cpp/android/binder_to_string.h",
   "underlying_type" : "_ZTIj"
  },
  {
   "alignment" : 4,
   "enum_fields" :
   [
    {
     "enum_field_value" : 1,
     "name" : "android::internal::details::HasToStringFunction<aidl::android::hardware::camera::device::StreamConfigurationMode>::value"
    }
   ],
   "linker_set_key" : "_ZTIN7android8internal7details19HasToStringFunctionIN4aidl7android8hardware6camera6device23StreamConfigurationModeEE6$valueE",
   "name" : "android::internal::details::HasToStringFunction<aidl::android::hardware::camera::device::StreamConfigurationMode>::(unnamed enum at frameworks/native/libs/binder/ndk/include_cpp/android/binder_to_string.h:89:5)",
   "referenced_type" : "_ZTIN7android8internal7details19HasToStringFunctionIN4aidl7android8hardware6camera6device23StreamConfigurationModeEE6$valueE",
   "self_type" : "_ZTIN7android8internal7details19HasToStringFunctionIN4aidl7android8hardware6camera6device23StreamConfigurationModeEE6$valueE",
   "size" : 4,
   "source_file" : "frameworks/native/libs/binder/ndk/include_cpp/android/binder_to_string.h",
   "underlying_type" : "_ZTIj"
  },
  {
   "alignment" : 4,
   "enum_fields" :
   [
    {
     "enum_field_value" : 1,
     "name" : "android::internal::details::HasToStringFunction<aidl::android::hardware::camera::device::StreamBufferRequestError>::value"
    }
   ],
   "linker_set_key" : "_ZTIN7android8internal7details19HasToStringFunctionIN4aidl7android8hardware6camera6device24StreamBufferRequestErrorEE6$valueE",
   "name" : "android::internal::details::HasToStringFunction<aidl::android::hardware::camera::device::StreamBufferRequestError>::(unnamed enum at frameworks/native/libs/binder/ndk/include_cpp/android/binder_to_string.h:89:5)",
   "referenced_type" : "_ZTIN7android8internal7details19HasToStringFunctionIN4aidl7android8hardware6camera6device24StreamBufferRequestErrorEE6$valueE",
   "self_type" : "_ZTIN7android8internal7details19HasToStringFunctionIN4aidl7android8hardware6camera6device24StreamBufferRequestErrorEE6$valueE",
   "size" : 4,
   "source_file" : "frameworks/native/libs/binder/ndk/include_cpp/android/binder_to_string.h",
   "underlying_type" : "_ZTIj"
  },
  {
   "alignment" : 4,
   "enum_fields" :
   [
    {
     "enum_field_value" : 1,
     "name" : "android::internal::details::HasToStringFunction<aidl::android::hardware::camera::device::ErrorCode>::value"
    }
   ],
   "linker_set_key" : "_ZTIN7android8internal7details19HasToStringFunctionIN4aidl7android8hardware6camera6device9ErrorCodeEE6$valueE",
   "name" : "android::internal::details::HasToStringFunction<aidl::android::hardware::camera::device::ErrorCode>::(unnamed enum at frameworks/native/libs/binder/ndk/include_cpp/android/binder_to_string.h:89:5)",
   "referenced_type" : "_ZTIN7android8internal7details19HasToStringFunctionIN4aidl7android8hardware6camera6device9ErrorCodeEE6$valueE",
   "self_type" : "_ZTIN7android8internal7details19HasToStringFunctionIN4aidl7android8hardware6camera6device9ErrorCodeEE6$valueE",
   "size" : 4,
   "source_file" : "frameworks/native/libs/binder/ndk/include_cpp/android/binder_to_string.h",
   "underlying_type" : "_ZTIj"
  },
  {
   "alignment" : 4,
   "enum_fields" :
   [
    {
     "enum_field_value" : 1,
     "name" : "android::internal::details::HasToStringFunction<aidl::android::hardware::camera::metadata::SensorPixelMode>::value"
    }
   ],
   "linker_set_key" : "_ZTIN7android8internal7details19HasToStringFunctionIN4aidl7android8hardware6camera8metadata15SensorPixelModeEE6$valueE",
   "name" : "android::internal::details::HasToStringFunction<aidl::android::hardware::camera::metadata::SensorPixelMode>::(unnamed enum at frameworks/native/libs/binder/ndk/include_cpp/android/binder_to_string.h:89:5)",
   "referenced_type" : "_ZTIN7android8internal7details19HasToStringFunctionIN4aidl7android8hardware6camera8metadata15SensorPixelModeEE6$valueE",
   "self_type" : "_ZTIN7android8internal7details19HasToStringFunctionIN4aidl7android8hardware6camera8metadata15SensorPixelModeEE6$valueE",
   "size" : 4,
   "source_file" : "frameworks/native/libs/binder/ndk/include_cpp/android/binder_to_string.h",
   "underlying_type" : "_ZTIj"
  },
  {
   "alignment" : 4,
   "enum_fields" :
   [
    {
     "enum_field_value" : 1,
     "name" : "android::internal::details::HasToStringFunction<aidl::android::hardware::camera::metadata::ScalerAvailableStreamUseCases>::value"
    }
   ],
   "linker_set_key" : "_ZTIN7android8internal7details19HasToStringFunctionIN4aidl7android8hardware6camera8metadata29ScalerAvailableStreamUseCasesEE6$valueE",
   "name" : "android::internal::details::HasToStringFunction<aidl::android::hardware::camera::metadata::ScalerAvailableStreamUseCases>::(unnamed enum at frameworks/native/libs/binder/ndk/include_cpp/android/binder_to_string.h:89:5)",
   "referenced_type" : "_ZTIN7android8internal7details19HasToStringFunctionIN4aidl7android8hardware6camera8metadata29ScalerAvailableStreamUseCasesEE6$valueE",
   "self_type" : "_ZTIN7android8internal7details19HasToStringFunctionIN4aidl7android8hardware6camera8metadata29ScalerAvailableStreamUseCasesEE6$valueE",
   "size" : 4,
   "source_file" : "frameworks/native/libs/binder/ndk/include_cpp/android/binder_to_string.h",
   "underlying_type" : "_ZTIj"
  },
  {
   "alignment" : 4,
   "enum_fields" :
   [
    {
     "enum_field_value" : 1,
     "name" : "android::internal::details::HasToStringFunction<aidl::android::hardware::camera::metadata::RequestAvailableDynamicRangeProfilesMap>::value"
    }
   ],
   "linker_set_key" : "_ZTIN7android8internal7details19HasToStringFunctionIN4aidl7android8hardware6camera8metadata39RequestAvailableDynamicRangeProfilesMapEE6$valueE",
   "name" : "android::internal::details::HasToStringFunction<aidl::android::hardware::camera::metadata::RequestAvailableDynamicRangeProfilesMap>::(unnamed enum at frameworks/native/libs/binder/ndk/include_cpp/android/binder_to_string.h:89:5)",
   "referenced_type" : "_ZTIN7android8internal7details19HasToStringFunctionIN4aidl7android8hardware6camera8metadata39RequestAvailableDynamicRangeProfilesMapEE6$valueE",
   "self_type" : "_ZTIN7android8internal7details19HasToStringFunctionIN4aidl7android8hardware6camera8metadata39RequestAvailableDynamicRangeProfilesMapEE6$valueE",
   "size" : 4,
   "source_file" : "frameworks/native/libs/binder/ndk/include_cpp/android/binder_to_string.h",
   "underlying_type" : "_ZTIj"
  },
  {
   "alignment" : 4,
   "enum_fields" :
   [
    {
     "enum_field_value" : 1,
     "name" : "android::internal::details::HasToStringFunction<aidl::android::hardware::graphics::common::BufferUsage>::value"
    }
   ],
   "linker_set_key" : "_ZTIN7android8internal7details19HasToStringFunctionIN4aidl7android8hardware8graphics6common11BufferUsageEE6$valueE",
   "name" : "android::internal::details::HasToStringFunction<aidl::android::hardware::graphics::common::BufferUsage>::(unnamed enum at frameworks/native/libs/binder/ndk/include_cpp/android/binder_to_string.h:89:5)",
   "referenced_type" : "_ZTIN7android8internal7details19HasToStringFunctionIN4aidl7android8hardware8graphics6common11BufferUsageEE6$valueE",
   "self_type" : "_ZTIN7android8internal7details19HasToStringFunctionIN4aidl7android8hardware8graphics6common11BufferUsageEE6$valueE",
   "size" : 4,
   "source_file" : "frameworks/native/libs/binder/ndk/include_cpp/android/binder_to_string.h",
   "underlying_type" : "_ZTIj"
  },
  {
   "alignment" : 4,
   "enum_fields" :
   [
    {
     "enum_field_value" : 1,
     "name" : "android::internal::details::HasToStringFunction<aidl::android::hardware::graphics::common::PixelFormat>::value"
    }
   ],
   "linker_set_key" : "_ZTIN7android8internal7details19HasToStringFunctionIN4aidl7android8hardware8graphics6common11PixelFormatEE6$valueE",
   "name" : "android::internal::details::HasToStringFunction<aidl::android::hardware::graphics::common::PixelFormat>::(unnamed enum at frameworks/native/libs/binder/ndk/include_cpp/android/binder_to_string.h:89:5)",
   "referenced_type" : "_ZTIN7android8internal7details19HasToStringFunctionIN4aidl7android8hardware8graphics6common11PixelFormatEE6$valueE",
   "self_type" : "_ZTIN7android8internal7details19HasToStringFunctionIN4aidl7android8hardware8graphics6common11PixelFormatEE6$valueE",
   "size" : 4,
   "source_file" : "frameworks/native/libs/binder/ndk/include_cpp/android/binder_to_string.h",
   "underlying_type" : "_ZTIj"
  },
  {
   "alignment" : 4,
   "enum_fields" :
   [
    {
     "enum_field_value" : 1,
     "name" : "android::internal::details::HasToStringFunction<aidl::android::hardware::graphics::common::Dataspace>::value"
    }
   ],
   "linker_set_key" : "_ZTIN7android8internal7details19HasToStringFunctionIN4aidl7android8hardware8graphics6common9DataspaceEE6$valueE",
   "name" : "android::internal::details::HasToStringFunction<aidl::android::hardware::graphics::common::Dataspace>::(unnamed enum at frameworks/native/libs/binder/ndk/include_cpp/android/binder_to_string.h:89:5)",
   "referenced_type" : "_ZTIN7android8internal7details19HasToStringFunctionIN4aidl7android8hardware8graphics6common9DataspaceEE6$valueE",
   "self_type" : "_ZTIN7android8internal7details19HasToStringFunctionIN4aidl7android8hardware8graphics6common9DataspaceEE6$valueE",
   "size" : 4,
   "source_file" : "frameworks/native/libs/binder/ndk/include_cpp/android/binder_to_string.h",
   "underlying_type" : "_ZTIj"
  },
  {
   "alignment" : 4,
   "enum_fields" :
   [
    {
     "enum_field_value" : 0,
     "name" : "android::internal::details::HasToStringFunction<std::vector<ndk::ScopedFileDescriptor>>::value"
    }
   ],
   "linker_set_key" : "_ZTIN7android8internal7details19HasToStringFunctionINSt3__16vectorIN3ndk20ScopedFileDescriptorENS3_9allocatorIS6_EEEEE6$valueE",
   "name" : "android::internal::details::HasToStringFunction<std::vector<ndk::ScopedFileDescriptor, std::allocator<ndk::ScopedFileDescriptor>>>::(unnamed enum at frameworks/native/libs/binder/ndk/include_cpp/android/binder_to_string.h:89:5)",
   "referenced_type" : "_ZTIN7android8internal7details19HasToStringFunctionINSt3__16vectorIN3ndk20ScopedFileDescriptorENS3_9allocatorIS6_EEEEE6$valueE",
   "self_type" : "_ZTIN7android8internal7details19HasToStringFunctionINSt3__16vectorIN3ndk20ScopedFileDescriptorENS3_9allocatorIS6_EEEEE6$valueE",
   "size" : 4,
   "source_file" : "frameworks/native/libs/binder/ndk/include_cpp/android/binder_to_string.h",
   "underlying_type" : "_ZTIj"
  },
  {
   "alignment" : 4,
   "enum_fields" :
   [
    {
     "enum_field_value" : 0,
     "name" : "android::internal::details::HasToStringFunction<std::vector<aidl::android::hardware::camera::device::StreamBuffer>>::value"
    }
   ],
   "linker_set_key" : "_ZTIN7android8internal7details19HasToStringFunctionINSt3__16vectorIN4aidl7android8hardware6camera6device12StreamBufferENS3_9allocatorISA_EEEEE6$valueE",
   "name" : "android::internal::details::HasToStringFunction<std::vector<aidl::android::hardware::camera::device::StreamBuffer, std::allocator<aidl::android::hardware::camera::device::StreamBuffer>>>::(unnamed enum at frameworks/native/libs/binder/ndk/include_cpp/android/binder_to_string.h:89:5)",
   "referenced_type" : "_ZTIN7android8internal7details19HasToStringFunctionINSt3__16vectorIN4aidl7android8hardware6camera6device12StreamBufferENS3_9allocatorISA_EEEEE6$valueE",
   "self_type" : "_ZTIN7android8internal7details19HasToStringFunctionINSt3__16vectorIN4aidl7android8hardware6camera6device12StreamBufferENS3_9allocatorISA_EEEEE6$valueE",
   "size" : 4,
   "source_file" : "frameworks/native/libs/binder/ndk/include_cpp/android/binder_to_string.h",
   "underlying_type" : "_ZTIj"
  },
  {
   "alignment" : 4,
   "enum_fields" :
   [
    {
     "enum_field_value" : 0,
     "name" : "android::internal::details::HasToStringFunction<std::vector<aidl::android::hardware::camera::device::OfflineStream>>::value"
    }
   ],
   "linker_set_key" : "_ZTIN7android8internal7details19HasToStringFunctionINSt3__16vectorIN4aidl7android8hardware6camera6device13OfflineStreamENS3_9allocatorISA_EEEEE6$valueE",
   "name" : "android::internal::details::HasToStringFunction<std::vector<aidl::android::hardware::camera::device::OfflineStream, std::allocator<aidl::android::hardware::camera::device::OfflineStream>>>::(unnamed enum at frameworks/native/libs/binder/ndk/include_cpp/android/binder_to_string.h:89:5)",
   "referenced_type" : "_ZTIN7android8internal7details19HasToStringFunctionINSt3__16vectorIN4aidl7android8hardware6camera6device13OfflineStreamENS3_9allocatorISA_EEEEE6$valueE",
   "self_type" : "_ZTIN7android8internal7details19HasToStringFunctionINSt3__16vectorIN4aidl7android8hardware6camera6device13OfflineStreamENS3_9allocatorISA_EEEEE6$valueE",
   "size" : 4,
   "source_file" : "frameworks/native/libs/binder/ndk/include_cpp/android/binder_to_string.h",
   "underlying_type" : "_ZTIj"
  },
  {
   "alignment" : 4,
   "enum_fields" :
   [
    {
     "enum_field_value" : 0,
     "name" : "android::internal::details::HasToStringFunction<std::vector<aidl::android::hardware::camera::device::OfflineRequest>>::value"
    }
   ],
   "linker_set_key" : "_ZTIN7android8internal7details19HasToStringFunctionINSt3__16vectorIN4aidl7android8hardware6camera6device14OfflineRequestENS3_9allocatorISA_EEEEE6$valueE",
   "name" : "android::internal::details::HasToStringFunction<std::vector<aidl::android::hardware::camera::device::OfflineRequest, std::allocator<aidl::android::hardware::camera::device::OfflineRequest>>>::(unnamed enum at frameworks/native/libs/binder/ndk/include_cpp/android/binder_to_string.h:89:5)",
   "referenced_type" : "_ZTIN7android8internal7details19HasToStringFunctionINSt3__16vectorIN4aidl7android8hardware6camera6device14OfflineRequestENS3_9allocatorISA_EEEEE6$valueE",
   "self_type" : "_ZTIN7android8internal7details19HasToStringFunctionINSt3__16vectorIN4aidl7android8hardware6camera6device14OfflineRequestENS3_9allocatorISA_EEEEE6$valueE",
   "size" : 4,
   "source_file" : "frameworks/native/libs/binder/ndk/include_cpp/android/binder_to_string.h",
   "underlying_type" : "_ZTIj"
  },
  {
   "alignment" : 4,
   "enum_fields" :
   [
    {
     "enum_field_value" : 0,
     "name" : "android::internal::details::HasToStringFunction<std::vector<aidl::android::hardware::camera::device::PhysicalCameraSetting>>::value"
    }
   ],
   "linker_set_key" : "_ZTIN7android8internal7details19HasToStringFunctionINSt3__16vectorIN4aidl7android8hardware6camera6device21PhysicalCameraSettingENS3_9allocatorISA_EEEEE6$valueE",
   "name" : "android::internal::details::HasToStringFunction<std::vector<aidl::android::hardware::camera::device::PhysicalCameraSetting, std::allocator<aidl::android::hardware::camera::device::PhysicalCameraSetting>>>::(unnamed enum at frameworks/native/libs/binder/ndk/include_cpp/android/binder_to_string.h:89:5)",
   "referenced_type" : "_ZTIN7android8internal7details19HasToStringFunctionINSt3__16vectorIN4aidl7android8hardware6camera6device21PhysicalCameraSettingENS3_9allocatorISA_EEEEE6$valueE",
   "self_type" : "_ZTIN7android8internal7details19HasToStringFunctionINSt3__16vectorIN4aidl7android8hardware6camera6device21PhysicalCameraSettingENS3_9allocatorISA_EEEEE6$valueE",
   "size" : 4,
   "source_file" : "frameworks/native/libs/binder/ndk/include_cpp/android/binder_to_string.h",
   "underlying_type" : "_ZTIj"
  },
  {
   "alignment" : 4,
   "enum_fields" :
   [
    {
     "enum_field_value" : 0,
     "name" : "android::internal::details::HasToStringFunction<std::vector<aidl::android::hardware::camera::device::PhysicalCameraMetadata>>::value"
    }
   ],
   "linker_set_key" : "_ZTIN7android8internal7details19HasToStringFunctionINSt3__16vectorIN4aidl7android8hardware6camera6device22PhysicalCameraMetadataENS3_9allocatorISA_EEEEE6$valueE",
   "name" : "android::internal::details::HasToStringFunction<std::vector<aidl::android::hardware::camera::device::PhysicalCameraMetadata, std::allocator<aidl::android::hardware::camera::device::PhysicalCameraMetadata>>>::(unnamed enum at frameworks/native/libs/binder/ndk/include_cpp/android/binder_to_string.h:89:5)",
   "referenced_type" : "_ZTIN7android8internal7details19HasToStringFunctionINSt3__16vectorIN4aidl7android8hardware6camera6device22PhysicalCameraMetadataENS3_9allocatorISA_EEEEE6$valueE",
   "self_type" : "_ZTIN7android8internal7details19HasToStringFunctionINSt3__16vectorIN4aidl7android8hardware6camera6device22PhysicalCameraMetadataENS3_9allocatorISA_EEEEE6$valueE",
   "size" : 4,
   "source_file" : "frameworks/native/libs/binder/ndk/include_cpp/android/binder_to_string.h",
   "underlying_type" : "_ZTIj"
  },
  {
   "alignment" : 4,
   "enum_fields" :
   [
    {
     "enum_field_value" : 0,
     "name" : "android::internal::details::HasToStringFunction<std::vector<aidl::android::hardware::camera::device::Stream>>::value"
    }
   ],
   "linker_set_key" : "_ZTIN7android8internal7details19HasToStringFunctionINSt3__16vectorIN4aidl7android8hardware6camera6device6StreamENS3_9allocatorISA_EEEEE6$valueE",
   "name" : "android::internal::details::HasToStringFunction<std::vector<aidl::android::hardware::camera::device::Stream, std::allocator<aidl::android::hardware::camera::device::Stream>>>::(unnamed enum at frameworks/native/libs/binder/ndk/include_cpp/android/binder_to_string.h:89:5)",
   "referenced_type" : "_ZTIN7android8internal7details19HasToStringFunctionINSt3__16vectorIN4aidl7android8hardware6camera6device6StreamENS3_9allocatorISA_EEEEE6$valueE",
   "self_type" : "_ZTIN7android8internal7details19HasToStringFunctionINSt3__16vectorIN4aidl7android8hardware6camera6device6StreamENS3_9allocatorISA_EEEEE6$valueE",
   "size" : 4,
   "source_file" : "frameworks/native/libs/binder/ndk/include_cpp/android/binder_to_string.h",
   "underlying_type" : "_ZTIj"
  },
  {
   "alignment" : 4,
   "enum_fields" :
   [
    {
     "enum_field_value" : 0,
     "name" : "android::internal::details::HasToStringFunction<std::vector<aidl::android::hardware::camera::metadata::SensorPixelMode>>::value"
    }
   ],
   "linker_set_key" : "_ZTIN7android8internal7details19HasToStringFunctionINSt3__16vectorIN4aidl7android8hardware6camera8metadata15SensorPixelModeENS3_9allocatorISA_EEEEE6$valueE",
   "name" : "android::internal::details::HasToStringFunction<std::vector<aidl::android::hardware::camera::metadata::SensorPixelMode, std::allocator<aidl::android::hardware::camera::metadata::SensorPixelMode>>>::(unnamed enum at frameworks/native/libs/binder/ndk/include_cpp/android/binder_to_string.h:89:5)",
   "referenced_type" : "_ZTIN7android8internal7details19HasToStringFunctionINSt3__16vectorIN4aidl7android8hardware6camera8metadata15SensorPixelModeENS3_9allocatorISA_EEEEE6$valueE",
   "self_type" : "_ZTIN7android8internal7details19HasToStringFunctionINSt3__16vectorIN4aidl7android8hardware6camera8metadata15SensorPixelModeENS3_9allocatorISA_EEEEE6$valueE",
   "size" : 4,
   "source_file" : "frameworks/native/libs/binder/ndk/include_cpp/android/binder_to_string.h",
   "underlying_type" : "_ZTIj"
  },
  {
   "alignment" : 4,
   "enum_fields" :
   [
    {
     "enum_field_value" : 0,
     "name" : "android::internal::details::HasToStringFunction<std::vector<std::basic_string<char>>>::value"
    }
   ],
   "linker_set_key" : "_ZTIN7android8internal7details19HasToStringFunctionINSt3__16vectorINS3_12basic_stringIcNS3_11char_traitsIcEENS3_9allocatorIcEEEENS8_ISA_EEEEE6$valueE",
   "name" : "android::internal::details::HasToStringFunction<std::vector<std::basic_string<char, std::char_traits<char>, std::allocator<char>>, std::allocator<std::basic_string<char, std::char_traits<char>, std::allocator<char>>>>>::(unnamed enum at frameworks/native/libs/binder/ndk/include_cpp/android/binder_to_string.h:89:5)",
   "referenced_type" : "_ZTIN7android8internal7details19HasToStringFunctionINSt3__16vectorINS3_12basic_stringIcNS3_11char_traitsIcEENS3_9allocatorIcEEEENS8_ISA_EEEEE6$valueE",
   "self_type" : "_ZTIN7android8internal7details19HasToStringFunctionINSt3__16vectorINS3_12basic_stringIcNS3_11char_traitsIcEENS3_9allocatorIcEEEENS8_ISA_EEEEE6$valueE",
   "size" : 4,
   "source_file" : "frameworks/native/libs/binder/ndk/include_cpp/android/binder_to_string.h",
   "underlying_type" : "_ZTIj"
  },
  {
   "alignment" : 4,
   "enum_fields" :
   [
    {
     "enum_field_value" : 0,
     "name" : "android::internal::details::HasToStringFunction<std::vector<unsigned char>>::value"
    }
   ],
   "linker_set_key" : "_ZTIN7android8internal7details19HasToStringFunctionINSt3__16vectorIhNS3_9allocatorIhEEEEE6$valueE",
   "name" : "android::internal::details::HasToStringFunction<std::vector<unsigned char, std::allocator<unsigned char>>>::(unnamed enum at frameworks/native/libs/binder/ndk/include_cpp/android/binder_to_string.h:89:5)",
   "referenced_type" : "_ZTIN7android8internal7details19HasToStringFunctionINSt3__16vectorIhNS3_9allocatorIhEEEEE6$valueE",
   "self_type" : "_ZTIN7android8internal7details19HasToStringFunctionINSt3__16vectorIhNS3_9allocatorIhEEEEE6$valueE",
   "size" : 4,
   "source_file" : "frameworks/native/libs/binder/ndk/include_cpp/android/binder_to_string.h",
   "underlying_type" : "_ZTIj"
  },
  {
   "alignment" : 4,
   "enum_fields" :
   [
    {
     "enum_field_value" : 0,
     "name" : "android::internal::details::HasToStringFunction<std::vector<int>>::value"
    }
   ],
   "linker_set_key" : "_ZTIN7android8internal7details19HasToStringFunctionINSt3__16vectorIiNS3_9allocatorIiEEEEE6$valueE",
   "name" : "android::internal::details::HasToStringFunction<std::vector<int, std::allocator<int>>>::(unnamed enum at frameworks/native/libs/binder/ndk/include_cpp/android/binder_to_string.h:89:5)",
   "referenced_type" : "_ZTIN7android8internal7details19HasToStringFunctionINSt3__16vectorIiNS3_9allocatorIiEEEEE6$valueE",
   "self_type" : "_ZTIN7android8internal7details19HasToStringFunctionINSt3__16vectorIiNS3_9allocatorIiEEEEE6$valueE",
   "size" : 4,
   "source_file" : "frameworks/native/libs/binder/ndk/include_cpp/android/binder_to_string.h",
   "underlying_type" : "_ZTIj"
  },
  {
   "alignment" : 4,
   "enum_fields" :
   [
    {
     "enum_field_value" : 0,
     "name" : "android::internal::details::HasToStringFunction<std::vector<long long>>::value"
    }
   ],
   "linker_set_key" : "_ZTIN7android8internal7details19HasToStringFunctionINSt3__16vectorIxNS3_9allocatorIxEEEEE6$valueE",
   "name" : "android::internal::details::HasToStringFunction<std::vector<long long, std::allocator<long long>>>::(unnamed enum at frameworks/native/libs/binder/ndk/include_cpp/android/binder_to_string.h:89:5)",
   "referenced_type" : "_ZTIN7android8internal7details19HasToStringFunctionINSt3__16vectorIxNS3_9allocatorIxEEEEE6$valueE",
   "self_type" : "_ZTIN7android8internal7details19HasToStringFunctionINSt3__16vectorIxNS3_9allocatorIxEEEEE6$valueE",
   "size" : 4,
   "source_file" : "frameworks/native/libs/binder/ndk/include_cpp/android/binder_to_string.h",
   "underlying_type" : "_ZTIj"
  }
 ],
 "function_types" :
 [
  {
   "alignment" : 4,
   "linker_set_key" : "_ZTIFiP8AIBinderjPK7AParcelPS1_E",
   "name" : "int (AIBinder *, unsigned int, const AParcel *, AParcel *)",
   "parameters" :
   [
    {
     "referenced_type" : "_ZTIP8AIBinder"
    },
    {
     "referenced_type" : "_ZTIj"
    },
    {
     "referenced_type" : "_ZTIPK7AParcel"
    },
    {
     "referenced_type" : "_ZTIP7AParcel"
    }
   ],
   "referenced_type" : "_ZTIFiP8AIBinderjPK7AParcelPS1_E",
   "return_type" : "_ZTIi",
   "self_type" : "_ZTIFiP8AIBinderjPK7AParcelPS1_E",
   "source_file" : "frameworks/native/libs/binder/ndk/include_cpp/android/binder_interface_utils.h"
  }
 ],
 "functions" :
 [
  {
   "function_name" : "ndk::BnCInterface<aidl::android::hardware::camera::device::ICameraDevice>::asBinder",
   "linker_set_key" : "_ZN3ndk12BnCInterfaceIN4aidl7android8hardware6camera6device13ICameraDeviceEE8asBinderEv",
   "parameters" :
   [
    {
     "is_this_ptr" : true,
     "referenced_type" : "_ZTIPN3ndk12BnCInterfaceIN4aidl7android8hardware6camera6device13ICameraDeviceEEE"
    }
   ],
   "return_type" : "_ZTIN3ndk10SpAIBinderE",
   "source_file" : "frameworks/native/libs/binder/ndk/include_cpp/android/binder_interface_utils.h"
  },
  {
   "function_name" : "ndk::BnCInterface<aidl::android::hardware::camera::device::ICameraDeviceSession>::asBinder",
   "linker_set_key" : "_ZN3ndk12BnCInterfaceIN4aidl7android8hardware6camera6device20ICameraDeviceSessionEE8asBinderEv",
   "parameters" :
   [
    {
     "is_this_ptr" : true,
     "referenced_type" : "_ZTIPN3ndk12BnCInterfaceIN4aidl7android8hardware6camera6device20ICameraDeviceSessionEEE"
    }
   ],
   "return_type" : "_ZTIN3ndk10SpAIBinderE",
   "source_file" : "frameworks/native/libs/binder/ndk/include_cpp/android/binder_interface_utils.h"
  },
  {
   "function_name" : "ndk::BnCInterface<aidl::android::hardware::camera::device::ICameraDeviceCallback>::asBinder",
   "linker_set_key" : "_ZN3ndk12BnCInterfaceIN4aidl7android8hardware6camera6device21ICameraDeviceCallbackEE8asBinderEv",
   "parameters" :
   [
    {
     "is_this_ptr" : true,
     "referenced_type" : "_ZTIPN3ndk12BnCInterfaceIN4aidl7android8hardware6camera6device21ICameraDeviceCallbackEEE"
    }
   ],
   "return_type" : "_ZTIN3ndk10SpAIBinderE",
   "source_file" : "frameworks/native/libs/binder/ndk/include_cpp/android/binder_interface_utils.h"
  },
  {
   "function_name" : "ndk::BnCInterface<aidl::android::hardware::camera::device::ICameraOfflineSession>::asBinder",
   "linker_set_key" : "_ZN3ndk12BnCInterfaceIN4aidl7android8hardware6camera6device21ICameraOfflineSessionEE8asBinderEv",
   "parameters" :
   [
    {
     "is_this_ptr" : true,
     "referenced_type" : "_ZTIPN3ndk12BnCInterfaceIN4aidl7android8hardware6camera6device21ICameraOfflineSessionEEE"
    }
   ],
   "return_type" : "_ZTIN3ndk10SpAIBinderE",
   "source_file" : "frameworks/native/libs/binder/ndk/include_cpp/android/binder_interface_utils.h"
  },
  {
   "function_name" : "ndk::BnCInterface<aidl::android::hardware::camera::device::ICameraInjectionSession>::asBinder",
   "linker_set_key" : "_ZN3ndk12BnCInterfaceIN4aidl7android8hardware6camera6device23ICameraInjectionSessionEE8asBinderEv",
   "parameters" :
   [
    {
     "is_this_ptr" : true,
     "referenced_type" : "_ZTIPN3ndk12BnCInterfaceIN4aidl7android8hardware6camera6device23ICameraInjectionSessionEEE"
    }
   ],
   "return_type" : "_ZTIN3ndk10SpAIBinderE",
   "source_file" : "frameworks/native/libs/binder/ndk/include_cpp/android/binder_interface_utils.h"
  },
  {
   "function_name" : "ndk::BpCInterface<aidl::android::hardware::camera::device::ICameraDevice>::asBinder",
   "linker_set_key" : "_ZN3ndk12BpCInterfaceIN4aidl7android8hardware6camera6device13ICameraDeviceEE8asBinderEv",
   "parameters" :
   [
    {
     "is_this_ptr" : true,
     "referenced_type" : "_ZTIPN3ndk12BpCInterfaceIN4aidl7android8hardware6camera6device13ICameraDeviceEEE"
    }
   ],
   "return_type" : "_ZTIN3ndk10SpAIBinderE",
   "source_file" : "frameworks/native/libs/binder/ndk/include_cpp/android/binder_interface_utils.h"
  },
  {
   "function_name" : "ndk::BpCInterface<aidl::android::hardware::camera::device::ICameraDeviceSession>::asBinder",
   "linker_set_key" : "_ZN3ndk12BpCInterfaceIN4aidl7android8hardware6camera6device20ICameraDeviceSessionEE8asBinderEv",
   "parameters" :
   [
    {
     "is_this_ptr" : true,
     "referenced_type" : "_ZTIPN3ndk12BpCInterfaceIN4aidl7android8hardware6camera6device20ICameraDeviceSessionEEE"
    }
   ],
   "return_type" : "_ZTIN3ndk10SpAIBinderE",
   "source_file" : "frameworks/native/libs/binder/ndk/include_cpp/android/binder_interface_utils.h"
  },
  {
   "function_name" : "ndk::BpCInterface<aidl::android::hardware::camera::device::ICameraDeviceCallback>::asBinder",
   "linker_set_key" : "_ZN3ndk12BpCInterfaceIN4aidl7android8hardware6camera6device21ICameraDeviceCallbackEE8asBinderEv",
   "parameters" :
   [
    {
     "is_this_ptr" : true,
     "referenced_type" : "_ZTIPN3ndk12BpCInterfaceIN4aidl7android8hardware6camera6device21ICameraDeviceCallbackEEE"
    }
   ],
   "return_type" : "_ZTIN3ndk10SpAIBinderE",
   "source_file" : "frameworks/native/libs/binder/ndk/include_cpp/android/binder_interface_utils.h"
  },
  {
   "function_name" : "ndk::BpCInterface<aidl::android::hardware::camera::device::ICameraOfflineSession>::asBinder",
   "linker_set_key" : "_ZN3ndk12BpCInterfaceIN4aidl7android8hardware6camera6device21ICameraOfflineSessionEE8asBinderEv",
   "parameters" :
   [
    {
     "is_this_ptr" : true,
     "referenced_type" : "_ZTIPN3ndk12BpCInterfaceIN4aidl7android8hardware6camera6device21ICameraOfflineSessionEEE"
    }
   ],
   "return_type" : "_ZTIN3ndk10SpAIBinderE",
   "source_file" : "frameworks/native/libs/binder/ndk/include_cpp/android/binder_interface_utils.h"
  },
  {
   "function_name" : "ndk::BpCInterface<aidl::android::hardware::camera::device::ICameraInjectionSession>::asBinder",
   "linker_set_key" : "_ZN3ndk12BpCInterfaceIN4aidl7android8hardware6camera6device23ICameraInjectionSessionEE8asBinderEv",
   "parameters" :
   [
    {
     "is_this_ptr" : true,
     "referenced_type" : "_ZTIPN3ndk12BpCInterfaceIN4aidl7android8hardware6camera6device23ICameraInjectionSessionEEE"
    }
   ],
   "return_type" : "_ZTIN3ndk10SpAIBinderE",
   "source_file" : "frameworks/native/libs/binder/ndk/include_cpp/android/binder_interface_utils.h"
  },
  {
   "function_name" : "ndk::AParcel_readStdVectorParcelableElement",
   "linker_set_key" : "_ZN3ndk38AParcel_readStdVectorParcelableElementIN4aidl7android8hardware6camera6device11BufferCacheEEEiPK7AParcelPvj",
   "parameters" :
   [
    {
     "referenced_type" : "_ZTIPK7AParcel"
    },
    {
     "referenced_type" : "_ZTIPv"
    },
    {
     "referenced_type" : "_ZTIj"
    }
   ],
   "return_type" : "_ZTIi",
   "source_file" : "frameworks/native/libs/binder/ndk/include_cpp/android/binder_parcel_utils.h",
   "template_args" :
   [
    "_ZTIN4aidl7android8hardware6camera6device11BufferCacheE"
   ]
  },
  {
   "function_name" : "ndk::AParcel_readStdVectorParcelableElement",
   "linker_set_key" : "_ZN3ndk38AParcel_readStdVectorParcelableElementIN4aidl7android8hardware6camera6device12StreamBufferEEEiPK7AParcelPvj",
   "parameters" :
   [
    {
     "referenced_type" : "_ZTIPK7AParcel"
    },
    {
     "referenced_type" : "_ZTIPv"
    },
    {
     "referenced_type" : "_ZTIj"
    }
   ],
   "return_type" : "_ZTIi",
   "source_file" : "frameworks/native/libs/binder/ndk/include_cpp/android/binder_parcel_utils.h",
   "template_args" :
   [
    "_ZTIN4aidl7android8hardware6camera6device12StreamBufferE"
   ]
  },
  {
   "function_name" : "ndk::AParcel_readStdVectorParcelableElement",
   "linker_set_key" : "_ZN3ndk38AParcel_readStdVectorParcelableElementIN4aidl7android8hardware6camera6device13BufferRequestEEEiPK7AParcelPvj",
   "parameters" :
   [
    {
     "referenced_type" : "_ZTIPK7AParcel"
    },
    {
     "referenced_type" : "_ZTIPv"
    },
    {
     "referenced_type" : "_ZTIj"
    }
   ],
   "return_type" : "_ZTIi",
   "source_file" : "frameworks/native/libs/binder/ndk/include_cpp/android/binder_parcel_utils.h",
   "template_args" :
   [
    "_ZTIN4aidl7android8hardware6camera6device13BufferRequestE"
   ]
  },
  {
   "function_name" : "ndk::AParcel_readStdVectorParcelableElement",
   "linker_set_key" : "_ZN3ndk38AParcel_readStdVectorParcelableElementIN4aidl7android8hardware6camera6device13CaptureResultEEEiPK7AParcelPvj",
   "parameters" :
   [
    {
     "referenced_type" : "_ZTIPK7AParcel"
    },
    {
     "referenced_type" : "_ZTIPv"
    },
    {
     "referenced_type" : "_ZTIj"
    }
   ],
   "return_type" : "_ZTIi",
   "source_file" : "frameworks/native/libs/binder/ndk/include_cpp/android/binder_parcel_utils.h",
   "template_args" :
   [
    "_ZTIN4aidl7android8hardware6camera6device13CaptureResultE"
   ]
  },
  {
   "function_name" : "ndk::AParcel_readStdVectorParcelableElement",
   "linker_set_key" : "_ZN3ndk38AParcel_readStdVectorParcelableElementIN4aidl7android8hardware6camera6device13OfflineStreamEEEiPK7AParcelPvj",
   "parameters" :
   [
    {
     "referenced_type" : "_ZTIPK7AParcel"
    },
    {
     "referenced_type" : "_ZTIPv"
    },
    {
     "referenced_type" : "_ZTIj"
    }
   ],
   "return_type" : "_ZTIi",
   "source_file" : "frameworks/native/libs/binder/ndk/include_cpp/android/binder_parcel_utils.h",
   "template_args" :
   [
    "_ZTIN4aidl7android8hardware6camera6device13OfflineStreamE"
   ]
  },
  {
   "function_name" : "ndk::AParcel_readStdVectorParcelableElement",
   "linker_set_key" : "_ZN3ndk38AParcel_readStdVectorParcelableElementIN4aidl7android8hardware6camera6device14CaptureRequestEEEiPK7AParcelPvj",
   "parameters" :
   [
    {
     "referenced_type" : "_ZTIPK7AParcel"
    },
    {
     "referenced_type" : "_ZTIPv"
    },
    {
     "referenced_type" : "_ZTIj"
    }
   ],
   "return_type" : "_ZTIi",
   "source_file" : "frameworks/native/libs/binder/ndk/include_cpp/android/binder_parcel_utils.h",
   "template_args" :
   [
    "_ZTIN4aidl7android8hardware6camera6device14CaptureRequestE"
   ]
  },
  {
   "function_name" : "ndk::AParcel_readStdVectorParcelableElement",
   "linker_set_key" : "_ZN3ndk38AParcel_readStdVectorParcelableElementIN4aidl7android8hardware6camera6device14OfflineRequestEEEiPK7AParcelPvj",
   "parameters" :
   [
    {
     "referenced_type" : "_ZTIPK7AParcel"
    },
    {
     "referenced_type" : "_ZTIPv"
    },
    {
     "referenced_type" : "_ZTIj"
    }
   ],
   "return_type" : "_ZTIi",
   "source_file" : "frameworks/native/libs/binder/ndk/include_cpp/android/binder_parcel_utils.h",
   "template_args" :
   [
    "_ZTIN4aidl7android8hardware6camera6device14OfflineRequestE"
   ]
  },
  {
   "function_name" : "ndk::AParcel_readStdVectorParcelableElement",
   "linker_set_key" : "_ZN3ndk38AParcel_readStdVectorParcelableElementIN4aidl7android8hardware6camera6device15StreamBufferRetEEEiPK7AParcelPvj",
   "parameters" :
   [
    {
     "referenced_type" : "_ZTIPK7AParcel"
    },
    {
     "referenced_type" : "_ZTIPv"
    },
    {
     "referenced_type" : "_ZTIj"
    }
   ],
   "return_type" : "_ZTIi",
   "source_file" : "frameworks/native/libs/binder/ndk/include_cpp/android/binder_parcel_utils.h",
   "template_args" :
   [
    "_ZTIN4aidl7android8hardware6camera6device15StreamBufferRetE"
   ]
  },
  {
   "function_name" : "ndk::AParcel_readStdVectorParcelableElement",
   "linker_set_key" : "_ZN3ndk38AParcel_readStdVectorParcelableElementIN4aidl7android8hardware6camera6device21PhysicalCameraSettingEEEiPK7AParcelPvj",
   "parameters" :
   [
    {
     "referenced_type" : "_ZTIPK7AParcel"
    },
    {
     "referenced_type" : "_ZTIPv"
    },
    {
     "referenced_type" : "_ZTIj"
    }
   ],
   "return_type" : "_ZTIi",
   "source_file" : "frameworks/native/libs/binder/ndk/include_cpp/android/binder_parcel_utils.h",
   "template_args" :
   [
    "_ZTIN4aidl7android8hardware6camera6device21PhysicalCameraSettingE"
   ]
  },
  {
   "function_name" : "ndk::AParcel_readStdVectorParcelableElement",
   "linker_set_key" : "_ZN3ndk38AParcel_readStdVectorParcelableElementIN4aidl7android8hardware6camera6device22PhysicalCameraMetadataEEEiPK7AParcelPvj",
   "parameters" :
   [
    {
     "referenced_type" : "_ZTIPK7AParcel"
    },
    {
     "referenced_type" : "_ZTIPv"
    },
    {
     "referenced_type" : "_ZTIj"
    }
   ],
   "return_type" : "_ZTIi",
   "source_file" : "frameworks/native/libs/binder/ndk/include_cpp/android/binder_parcel_utils.h",
   "template_args" :
   [
    "_ZTIN4aidl7android8hardware6camera6device22PhysicalCameraMetadataE"
   ]
  },
  {
   "function_name" : "ndk::AParcel_readStdVectorParcelableElement",
   "linker_set_key" : "_ZN3ndk38AParcel_readStdVectorParcelableElementIN4aidl7android8hardware6camera6device6StreamEEEiPK7AParcelPvj",
   "parameters" :
   [
    {
     "referenced_type" : "_ZTIPK7AParcel"
    },
    {
     "referenced_type" : "_ZTIPv"
    },
    {
     "referenced_type" : "_ZTIj"
    }
   ],
   "return_type" : "_ZTIi",
   "source_file" : "frameworks/native/libs/binder/ndk/include_cpp/android/binder_parcel_utils.h",
   "template_args" :
   [
    "_ZTIN4aidl7android8hardware6camera6device6StreamE"
   ]
  },
  {
   "function_name" : "ndk::AParcel_readStdVectorParcelableElement",
   "linker_set_key" : "_ZN3ndk38AParcel_readStdVectorParcelableElementIN4aidl7android8hardware6camera6device9HalStreamEEEiPK7AParcelPvj",
   "parameters" :
   [
    {
     "referenced_type" : "_ZTIPK7AParcel"
    },
    {
     "referenced_type" : "_ZTIPv"
    },
    {
     "referenced_type" : "_ZTIj"
    }
   ],
   "return_type" : "_ZTIi",
   "source_file" : "frameworks/native/libs/binder/ndk/include_cpp/android/binder_parcel_utils.h",
   "template_args" :
   [
    "_ZTIN4aidl7android8hardware6camera6device9HalStreamE"
   ]
  },
  {
   "function_name" : "ndk::AParcel_readStdVectorParcelableElement",
   "linker_set_key" : "_ZN3ndk38AParcel_readStdVectorParcelableElementIN4aidl7android8hardware6camera6device9NotifyMsgEEEiPK7AParcelPvj",
   "parameters" :
   [
    {
     "referenced_type" : "_ZTIPK7AParcel"
    },
    {
     "referenced_type" : "_ZTIPv"
    },
    {
     "referenced_type" : "_ZTIj"
    }
   ],
   "return_type" : "_ZTIi",
   "source_file" : "frameworks/native/libs/binder/ndk/include_cpp/android/binder_parcel_utils.h",
   "template_args" :
   [
    "_ZTIN4aidl7android8hardware6camera6device9NotifyMsgE"
   ]
  },
  {
   "function_name" : "ndk::AParcel_readStdVectorParcelableElement",
   "linker_set_key" : "_ZN3ndk38AParcel_readStdVectorParcelableElementIN4aidl7android8hardware6common3fmq17GrantorDescriptorEEEiPK7AParcelPvj",
   "parameters" :
   [
    {
     "referenced_type" : "_ZTIPK7AParcel"
    },
    {
     "referenced_type" : "_ZTIPv"
    },
    {
     "referenced_type" : "_ZTIj"
    }
   ],
   "return_type" : "_ZTIi",
   "source_file" : "frameworks/native/libs/binder/ndk/include_cpp/android/binder_parcel_utils.h",
   "template_args" :
   [
    "_ZTIN4aidl7android8hardware6common3fmq17GrantorDescriptorE"
   ]
  },
  {
   "function_name" : "ndk::AParcel_writeStdVectorParcelableElement",
   "linker_set_key" : "_ZN3ndk39AParcel_writeStdVectorParcelableElementIN4aidl7android8hardware6camera6device11BufferCacheEEEiP7AParcelPKvj",
   "parameters" :
   [
    {
     "referenced_type" : "_ZTIP7AParcel"
    },
    {
     "referenced_type" : "_ZTIPKv"
    },
    {
     "referenced_type" : "_ZTIj"
    }
   ],
   "return_type" : "_ZTIi",
   "source_file" : "frameworks/native/libs/binder/ndk/include_cpp/android/binder_parcel_utils.h",
   "template_args" :
   [
    "_ZTIN4aidl7android8hardware6camera6device11BufferCacheE"
   ]
  },
  {
   "function_name" : "ndk::AParcel_writeStdVectorParcelableElement",
   "linker_set_key" : "_ZN3ndk39AParcel_writeStdVectorParcelableElementIN4aidl7android8hardware6camera6device12StreamBufferEEEiP7AParcelPKvj",
   "parameters" :
   [
    {
     "referenced_type" : "_ZTIP7AParcel"
    },
    {
     "referenced_type" : "_ZTIPKv"
    },
    {
     "referenced_type" : "_ZTIj"
    }
   ],
   "return_type" : "_ZTIi",
   "source_file" : "frameworks/native/libs/binder/ndk/include_cpp/android/binder_parcel_utils.h",
   "template_args" :
   [
    "_ZTIN4aidl7android8hardware6camera6device12StreamBufferE"
   ]
  },
  {
   "function_name" : "ndk::AParcel_writeStdVectorParcelableElement",
   "linker_set_key" : "_ZN3ndk39AParcel_writeStdVectorParcelableElementIN4aidl7android8hardware6camera6device13BufferRequestEEEiP7AParcelPKvj",
   "parameters" :
   [
    {
     "referenced_type" : "_ZTIP7AParcel"
    },
    {
     "referenced_type" : "_ZTIPKv"
    },
    {
     "referenced_type" : "_ZTIj"
    }
   ],
   "return_type" : "_ZTIi",
   "source_file" : "frameworks/native/libs/binder/ndk/include_cpp/android/binder_parcel_utils.h",
   "template_args" :
   [
    "_ZTIN4aidl7android8hardware6camera6device13BufferRequestE"
   ]
  },
  {
   "function_name" : "ndk::AParcel_writeStdVectorParcelableElement",
   "linker_set_key" : "_ZN3ndk39AParcel_writeStdVectorParcelableElementIN4aidl7android8hardware6camera6device13CaptureResultEEEiP7AParcelPKvj",
   "parameters" :
   [
    {
     "referenced_type" : "_ZTIP7AParcel"
    },
    {
     "referenced_type" : "_ZTIPKv"
    },
    {
     "referenced_type" : "_ZTIj"
    }
   ],
   "return_type" : "_ZTIi",
   "source_file" : "frameworks/native/libs/binder/ndk/include_cpp/android/binder_parcel_utils.h",
   "template_args" :
   [
    "_ZTIN4aidl7android8hardware6camera6device13CaptureResultE"
   ]
  },
  {
   "function_name" : "ndk::AParcel_writeStdVectorParcelableElement",
   "linker_set_key" : "_ZN3ndk39AParcel_writeStdVectorParcelableElementIN4aidl7android8hardware6camera6device13OfflineStreamEEEiP7AParcelPKvj",
   "parameters" :
   [
    {
     "referenced_type" : "_ZTIP7AParcel"
    },
    {
     "referenced_type" : "_ZTIPKv"
    },
    {
     "referenced_type" : "_ZTIj"
    }
   ],
   "return_type" : "_ZTIi",
   "source_file" : "frameworks/native/libs/binder/ndk/include_cpp/android/binder_parcel_utils.h",
   "template_args" :
   [
    "_ZTIN4aidl7android8hardware6camera6device13OfflineStreamE"
   ]
  },
  {
   "function_name" : "ndk::AParcel_writeStdVectorParcelableElement",
   "linker_set_key" : "_ZN3ndk39AParcel_writeStdVectorParcelableElementIN4aidl7android8hardware6camera6device14CaptureRequestEEEiP7AParcelPKvj",
   "parameters" :
   [
    {
     "referenced_type" : "_ZTIP7AParcel"
    },
    {
     "referenced_type" : "_ZTIPKv"
    },
    {
     "referenced_type" : "_ZTIj"
    }
   ],
   "return_type" : "_ZTIi",
   "source_file" : "frameworks/native/libs/binder/ndk/include_cpp/android/binder_parcel_utils.h",
   "template_args" :
   [
    "_ZTIN4aidl7android8hardware6camera6device14CaptureRequestE"
   ]
  },
  {
   "function_name" : "ndk::AParcel_writeStdVectorParcelableElement",
   "linker_set_key" : "_ZN3ndk39AParcel_writeStdVectorParcelableElementIN4aidl7android8hardware6camera6device14OfflineRequestEEEiP7AParcelPKvj",
   "parameters" :
   [
    {
     "referenced_type" : "_ZTIP7AParcel"
    },
    {
     "referenced_type" : "_ZTIPKv"
    },
    {
     "referenced_type" : "_ZTIj"
    }
   ],
   "return_type" : "_ZTIi",
   "source_file" : "frameworks/native/libs/binder/ndk/include_cpp/android/binder_parcel_utils.h",
   "template_args" :
   [
    "_ZTIN4aidl7android8hardware6camera6device14OfflineRequestE"
   ]
  },
  {
   "function_name" : "ndk::AParcel_writeStdVectorParcelableElement",
   "linker_set_key" : "_ZN3ndk39AParcel_writeStdVectorParcelableElementIN4aidl7android8hardware6camera6device15StreamBufferRetEEEiP7AParcelPKvj",
   "parameters" :
   [
    {
     "referenced_type" : "_ZTIP7AParcel"
    },
    {
     "referenced_type" : "_ZTIPKv"
    },
    {
     "referenced_type" : "_ZTIj"
    }
   ],
   "return_type" : "_ZTIi",
   "source_file" : "frameworks/native/libs/binder/ndk/include_cpp/android/binder_parcel_utils.h",
   "template_args" :
   [
    "_ZTIN4aidl7android8hardware6camera6device15StreamBufferRetE"
   ]
  },
  {
   "function_name" : "ndk::AParcel_writeStdVectorParcelableElement",
   "linker_set_key" : "_ZN3ndk39AParcel_writeStdVectorParcelableElementIN4aidl7android8hardware6camera6device21PhysicalCameraSettingEEEiP7AParcelPKvj",
   "parameters" :
   [
    {
     "referenced_type" : "_ZTIP7AParcel"
    },
    {
     "referenced_type" : "_ZTIPKv"
    },
    {
     "referenced_type" : "_ZTIj"
    }
   ],
   "return_type" : "_ZTIi",
   "source_file" : "frameworks/native/libs/binder/ndk/include_cpp/android/binder_parcel_utils.h",
   "template_args" :
   [
    "_ZTIN4aidl7android8hardware6camera6device21PhysicalCameraSettingE"
   ]
  },
  {
   "function_name" : "ndk::AParcel_writeStdVectorParcelableElement",
   "linker_set_key" : "_ZN3ndk39AParcel_writeStdVectorParcelableElementIN4aidl7android8hardware6camera6device22PhysicalCameraMetadataEEEiP7AParcelPKvj",
   "parameters" :
   [
    {
     "referenced_type" : "_ZTIP7AParcel"
    },
    {
     "referenced_type" : "_ZTIPKv"
    },
    {
     "referenced_type" : "_ZTIj"
    }
   ],
   "return_type" : "_ZTIi",
   "source_file" : "frameworks/native/libs/binder/ndk/include_cpp/android/binder_parcel_utils.h",
   "template_args" :
   [
    "_ZTIN4aidl7android8hardware6camera6device22PhysicalCameraMetadataE"
   ]
  },
  {
   "function_name" : "ndk::AParcel_writeStdVectorParcelableElement",
   "linker_set_key" : "_ZN3ndk39AParcel_writeStdVectorParcelableElementIN4aidl7android8hardware6camera6device6StreamEEEiP7AParcelPKvj",
   "parameters" :
   [
    {
     "referenced_type" : "_ZTIP7AParcel"
    },
    {
     "referenced_type" : "_ZTIPKv"
    },
    {
     "referenced_type" : "_ZTIj"
    }
   ],
   "return_type" : "_ZTIi",
   "source_file" : "frameworks/native/libs/binder/ndk/include_cpp/android/binder_parcel_utils.h",
   "template_args" :
   [
    "_ZTIN4aidl7android8hardware6camera6device6StreamE"
   ]
  },
  {
   "function_name" : "ndk::AParcel_writeStdVectorParcelableElement",
   "linker_set_key" : "_ZN3ndk39AParcel_writeStdVectorParcelableElementIN4aidl7android8hardware6camera6device9HalStreamEEEiP7AParcelPKvj",
   "parameters" :
   [
    {
     "referenced_type" : "_ZTIP7AParcel"
    },
    {
     "referenced_type" : "_ZTIPKv"
    },
    {
     "referenced_type" : "_ZTIj"
    }
   ],
   "return_type" : "_ZTIi",
   "source_file" : "frameworks/native/libs/binder/ndk/include_cpp/android/binder_parcel_utils.h",
   "template_args" :
   [
    "_ZTIN4aidl7android8hardware6camera6device9HalStreamE"
   ]
  },
  {
   "function_name" : "ndk::AParcel_writeStdVectorParcelableElement",
   "linker_set_key" : "_ZN3ndk39AParcel_writeStdVectorParcelableElementIN4aidl7android8hardware6camera6device9NotifyMsgEEEiP7AParcelPKvj",
   "parameters" :
   [
    {
     "referenced_type" : "_ZTIP7AParcel"
    },
    {
     "referenced_type" : "_ZTIPKv"
    },
    {
     "referenced_type" : "_ZTIj"
    }
   ],
   "return_type" : "_ZTIi",
   "source_file" : "frameworks/native/libs/binder/ndk/include_cpp/android/binder_parcel_utils.h",
   "template_args" :
   [
    "_ZTIN4aidl7android8hardware6camera6device9NotifyMsgE"
   ]
  },
  {
   "function_name" : "ndk::AParcel_writeStdVectorParcelableElement",
   "linker_set_key" : "_ZN3ndk39AParcel_writeStdVectorParcelableElementIN4aidl7android8hardware6common3fmq17GrantorDescriptorEEEiP7AParcelPKvj",
   "parameters" :
   [
    {
     "referenced_type" : "_ZTIP7AParcel"
    },
    {
     "referenced_type" : "_ZTIPKv"
    },
    {
     "referenced_type" : "_ZTIj"
    }
   ],
   "return_type" : "_ZTIi",
   "source_file" : "frameworks/native/libs/binder/ndk/include_cpp/android/binder_parcel_utils.h",
   "template_args" :
   [
    "_ZTIN4aidl7android8hardware6common3fmq17GrantorDescriptorE"
   ]
  },
  {
   "function_name" : "aidl::android::hardware::camera::device::CameraBlob::readFromParcel",
   "linker_set_key" : "_ZN4aidl7android8hardware6camera6device10CameraBlob14readFromParcelEPK7AParcel",
   "parameters" :
   [
    {
     "is_this_ptr" : true,
     "referenced_type" : "_ZTIPN4aidl7android8hardware6camera6device10CameraBlobE"
    },
    {
     "referenced_type" : "_ZTIPK7AParcel"
    }
   ],
   "return_type" : "_ZTIi",
   "source_file" : "out/soong/.intermediates/hardware/interfaces/camera/device/aidl/android.hardware.camera.device-V1-ndk-source/gen/include/aidl/android/hardware/camera/device/CameraBlob.h"
  },
  {
   "function_name" : "aidl::android::hardware::camera::device::ShutterMsg::readFromParcel",
   "linker_set_key" : "_ZN4aidl7android8hardware6camera6device10ShutterMsg14readFromParcelEPK7AParcel",
   "parameters" :
   [
    {
     "is_this_ptr" : true,
     "referenced_type" : "_ZTIPN4aidl7android8hardware6camera6device10ShutterMsgE"
    },
    {
     "referenced_type" : "_ZTIPK7AParcel"
    }
   ],
   "return_type" : "_ZTIi",
   "source_file" : "out/soong/.intermediates/hardware/interfaces/camera/device/aidl/android.hardware.camera.device-V1-ndk-source/gen/include/aidl/android/hardware/camera/device/ShutterMsg.h"
  },
  {
   "function_name" : "aidl::android::hardware::camera::device::BufferCache::readFromParcel",
   "linker_set_key" : "_ZN4aidl7android8hardware6camera6device11BufferCache14readFromParcelEPK7AParcel",
   "parameters" :
   [
    {
     "is_this_ptr" : true,
     "referenced_type" : "_ZTIPN4aidl7android8hardware6camera6device11BufferCacheE"
    },
    {
     "referenced_type" : "_ZTIPK7AParcel"
    }
   ],
   "return_type" : "_ZTIi",
   "source_file" : "out/soong/.intermediates/hardware/interfaces/camera/device/aidl/android.hardware.camera.device-V1-ndk-source/gen/include/aidl/android/hardware/camera/device/BufferCache.h"
  },
  {
   "function_name" : "aidl::android::hardware::camera::device::StreamBuffer::readFromParcel",
   "linker_set_key" : "_ZN4aidl7android8hardware6camera6device12StreamBuffer14readFromParcelEPK7AParcel",
   "parameters" :
   [
    {
     "is_this_ptr" : true,
     "referenced_type" : "_ZTIPN4aidl7android8hardware6camera6device12StreamBufferE"
    },
    {
     "referenced_type" : "_ZTIPK7AParcel"
    }
   ],
   "return_type" : "_ZTIi",
   "source_file" : "out/soong/.intermediates/hardware/interfaces/camera/device/aidl/android.hardware.camera.device-V1-ndk-source/gen/include/aidl/android/hardware/camera/device/StreamBuffer.h"
  },
  {
   "function_name" : "aidl::android::hardware::camera::device::BufferRequest::readFromParcel",
   "linker_set_key" : "_ZN4aidl7android8hardware6camera6device13BufferRequest14readFromParcelEPK7AParcel",
   "parameters" :
   [
    {
     "is_this_ptr" : true,
     "referenced_type" : "_ZTIPN4aidl7android8hardware6camera6device13BufferRequestE"
    },
    {
     "referenced_type" : "_ZTIPK7AParcel"
    }
   ],
   "return_type" : "_ZTIi",
   "source_file" : "out/soong/.intermediates/hardware/interfaces/camera/device/aidl/android.hardware.camera.device-V1-ndk-source/gen/include/aidl/android/hardware/camera/device/BufferRequest.h"
  },
  {
   "function_name" : "aidl::android::hardware::camera::device::CaptureResult::readFromParcel",
   "linker_set_key" : "_ZN4aidl7android8hardware6camera6device13CaptureResult14readFromParcelEPK7AParcel",
   "parameters" :
   [
    {
     "is_this_ptr" : true,
     "referenced_type" : "_ZTIPN4aidl7android8hardware6camera6device13CaptureResultE"
    },
    {
     "referenced_type" : "_ZTIPK7AParcel"
    }
   ],
   "return_type" : "_ZTIi",
   "source_file" : "out/soong/.intermediates/hardware/interfaces/camera/device/aidl/android.hardware.camera.device-V1-ndk-source/gen/include/aidl/android/hardware/camera/device/CaptureResult.h"
  },
  {
   "function_name" : "aidl::android::hardware::camera::device::ICameraDevice::fromBinder",
   "linker_set_key" : "_ZN4aidl7android8hardware6camera6device13ICameraDevice10fromBinderERKN3ndk10SpAIBinderE",
   "parameters" :
   [
    {
     "referenced_type" : "_ZTIRKN3ndk10SpAIBinderE"
    }
   ],
   "return_type" : "_ZTINSt3__110shared_ptrIN4aidl7android8hardware6camera6device13ICameraDeviceEEE",
   "source_file" : "out/soong/.intermediates/hardware/interfaces/camera/device/aidl/android.hardware.camera.device-V1-ndk-source/gen/include/aidl/android/hardware/camera/device/ICameraDevice.h"
  },
  {
   "function_name" : "aidl::android::hardware::camera::device::ICameraDevice::writeToParcel",
   "linker_set_key" : "_ZN4aidl7android8hardware6camera6device13ICameraDevice13writeToParcelEP7AParcelRKNSt3__110shared_ptrIS4_EE",
   "parameters" :
   [
    {
     "referenced_type" : "_ZTIP7AParcel"
    },
    {
     "referenced_type" : "_ZTIRKNSt3__110shared_ptrIN4aidl7android8hardware6camera6device13ICameraDeviceEEE"
    }
   ],
   "return_type" : "_ZTIi",
   "source_file" : "out/soong/.intermediates/hardware/interfaces/camera/device/aidl/android.hardware.camera.device-V1-ndk-source/gen/include/aidl/android/hardware/camera/device/ICameraDevice.h"
  },
  {
   "function_name" : "aidl::android::hardware::camera::device::ICameraDevice::getDefaultImpl",
   "linker_set_key" : "_ZN4aidl7android8hardware6camera6device13ICameraDevice14getDefaultImplEv",
   "return_type" : "_ZTIRKNSt3__110shared_ptrIN4aidl7android8hardware6camera6device13ICameraDeviceEEE",
   "source_file" : "out/soong/.intermediates/hardware/interfaces/camera/device/aidl/android.hardware.camera.device-V1-ndk-source/gen/include/aidl/android/hardware/camera/device/ICameraDevice.h"
  },
  {
   "function_name" : "aidl::android::hardware::camera::device::ICameraDevice::readFromParcel",
   "linker_set_key" : "_ZN4aidl7android8hardware6camera6device13ICameraDevice14readFromParcelEPK7AParcelPNSt3__110shared_ptrIS4_EE",
   "parameters" :
   [
    {
     "referenced_type" : "_ZTIPK7AParcel"
    },
    {
     "referenced_type" : "_ZTIPNSt3__110shared_ptrIN4aidl7android8hardware6camera6device13ICameraDeviceEEE"
    }
   ],
   "return_type" : "_ZTIi",
   "source_file" : "out/soong/.intermediates/hardware/interfaces/camera/device/aidl/android.hardware.camera.device-V1-ndk-source/gen/include/aidl/android/hardware/camera/device/ICameraDevice.h"
  },
  {
   "function_name" : "aidl::android::hardware::camera::device::ICameraDevice::setDefaultImpl",
   "linker_set_key" : "_ZN4aidl7android8hardware6camera6device13ICameraDevice14setDefaultImplERKNSt3__110shared_ptrIS4_EE",
   "parameters" :
   [
    {
     "referenced_type" : "_ZTIRKNSt3__110shared_ptrIN4aidl7android8hardware6camera6device13ICameraDeviceEEE"
    }
   ],
   "return_type" : "_ZTIb",
   "source_file" : "out/soong/.intermediates/hardware/interfaces/camera/device/aidl/android.hardware.camera.device-V1-ndk-source/gen/include/aidl/android/hardware/camera/device/ICameraDevice.h"
  },
  {
   "function_name" : "aidl::android::hardware::camera::device::ICameraDevice::ICameraDevice",
   "linker_set_key" : "_ZN4aidl7android8hardware6camera6device13ICameraDeviceC2Ev",
   "parameters" :
   [
    {
     "is_this_ptr" : true,
     "referenced_type" : "_ZTIPN4aidl7android8hardware6camera6device13ICameraDeviceE"
    }
   ],
   "return_type" : "_ZTIv",
   "source_file" : "out/soong/.intermediates/hardware/interfaces/camera/device/aidl/android.hardware.camera.device-V1-ndk-source/gen/include/aidl/android/hardware/camera/device/ICameraDevice.h"
  },
  {
   "function_name" : "aidl::android::hardware::camera::device::ICameraDevice::~ICameraDevice",
   "linker_set_key" : "_ZN4aidl7android8hardware6camera6device13ICameraDeviceD0Ev",
   "parameters" :
   [
    {
     "is_this_ptr" : true,
     "referenced_type" : "_ZTIPN4aidl7android8hardware6camera6device13ICameraDeviceE"
    }
   ],
   "return_type" : "_ZTIv",
   "source_file" : "out/soong/.intermediates/hardware/interfaces/camera/device/aidl/android.hardware.camera.device-V1-ndk-source/gen/include/aidl/android/hardware/camera/device/ICameraDevice.h"
  },
  {
   "function_name" : "aidl::android::hardware::camera::device::ICameraDevice::~ICameraDevice",
   "linker_set_key" : "_ZN4aidl7android8hardware6camera6device13ICameraDeviceD1Ev",
   "parameters" :
   [
    {
     "is_this_ptr" : true,
     "referenced_type" : "_ZTIPN4aidl7android8hardware6camera6device13ICameraDeviceE"
    }
   ],
   "return_type" : "_ZTIv",
   "source_file" : "out/soong/.intermediates/hardware/interfaces/camera/device/aidl/android.hardware.camera.device-V1-ndk-source/gen/include/aidl/android/hardware/camera/device/ICameraDevice.h"
  },
  {
   "function_name" : "aidl::android::hardware::camera::device::ICameraDevice::~ICameraDevice",
   "linker_set_key" : "_ZN4aidl7android8hardware6camera6device13ICameraDeviceD2Ev",
   "parameters" :
   [
    {
     "is_this_ptr" : true,
     "referenced_type" : "_ZTIPN4aidl7android8hardware6camera6device13ICameraDeviceE"
    }
   ],
   "return_type" : "_ZTIv",
   "source_file" : "out/soong/.intermediates/hardware/interfaces/camera/device/aidl/android.hardware.camera.device-V1-ndk-source/gen/include/aidl/android/hardware/camera/device/ICameraDevice.h"
  },
  {
   "function_name" : "aidl::android::hardware::camera::device::OfflineStream::readFromParcel",
   "linker_set_key" : "_ZN4aidl7android8hardware6camera6device13OfflineStream14readFromParcelEPK7AParcel",
   "parameters" :
   [
    {
     "is_this_ptr" : true,
     "referenced_type" : "_ZTIPN4aidl7android8hardware6camera6device13OfflineStreamE"
    },
    {
     "referenced_type" : "_ZTIPK7AParcel"
    }
   ],
   "return_type" : "_ZTIi",
   "source_file" : "out/soong/.intermediates/hardware/interfaces/camera/device/aidl/android.hardware.camera.device-V1-ndk-source/gen/include/aidl/android/hardware/camera/device/OfflineStream.h"
  },
  {
   "access" : "protected",
   "function_name" : "aidl::android::hardware::camera::device::BnCameraDevice::createBinder",
   "linker_set_key" : "_ZN4aidl7android8hardware6camera6device14BnCameraDevice12createBinderEv",
   "parameters" :
   [
    {
     "is_this_ptr" : true,
     "referenced_type" : "_ZTIPN4aidl7android8hardware6camera6device14BnCameraDeviceE"
    }
   ],
   "return_type" : "_ZTIN3ndk10SpAIBinderE",
   "source_file" : "out/soong/.intermediates/hardware/interfaces/camera/device/aidl/android.hardware.camera.device-V1-ndk-source/gen/include/aidl/android/hardware/camera/device/BnCameraDevice.h"
  },
  {
   "function_name" : "aidl::android::hardware::camera::device::BnCameraDevice::getInterfaceHash",
   "linker_set_key" : "_ZN4aidl7android8hardware6camera6device14BnCameraDevice16getInterfaceHashEPNSt3__112basic_stringIcNS5_11char_traitsIcEENS5_9allocatorIcEEEE",
   "parameters" :
   [
    {
     "is_this_ptr" : true,
     "referenced_type" : "_ZTIPN4aidl7android8hardware6camera6device14BnCameraDeviceE"
    },
    {
     "referenced_type" : "_ZTIPNSt3__112basic_stringIcNS_11char_traitsIcEENS_9allocatorIcEEEE"
    }
   ],
   "return_type" : "_ZTIN3ndk13ScopedAStatusE",
   "source_file" : "out/soong/.intermediates/hardware/interfaces/camera/device/aidl/android.hardware.camera.device-V1-ndk-source/gen/include/aidl/android/hardware/camera/device/BnCameraDevice.h"
  },
  {
   "function_name" : "aidl::android::hardware::camera::device::BnCameraDevice::getInterfaceVersion",
   "linker_set_key" : "_ZN4aidl7android8hardware6camera6device14BnCameraDevice19getInterfaceVersionEPi",
   "parameters" :
   [
    {
     "is_this_ptr" : true,
     "referenced_type" : "_ZTIPN4aidl7android8hardware6camera6device14BnCameraDeviceE"
    },
    {
     "referenced_type" : "_ZTIPi"
    }
   ],
   "return_type" : "_ZTIN3ndk13ScopedAStatusE",
   "source_file" : "out/soong/.intermediates/hardware/interfaces/camera/device/aidl/android.hardware.camera.device-V1-ndk-source/gen/include/aidl/android/hardware/camera/device/BnCameraDevice.h"
  },
  {
   "function_name" : "aidl::android::hardware::camera::device::BnCameraDevice::BnCameraDevice",
   "linker_set_key" : "_ZN4aidl7android8hardware6camera6device14BnCameraDeviceC2Ev",
   "parameters" :
   [
    {
     "is_this_ptr" : true,
     "referenced_type" : "_ZTIPN4aidl7android8hardware6camera6device14BnCameraDeviceE"
    }
   ],
   "return_type" : "_ZTIv",
   "source_file" : "out/soong/.intermediates/hardware/interfaces/camera/device/aidl/android.hardware.camera.device-V1-ndk-source/gen/include/aidl/android/hardware/camera/device/BnCameraDevice.h"
  },
  {
   "function_name" : "aidl::android::hardware::camera::device::BnCameraDevice::~BnCameraDevice",
   "linker_set_key" : "_ZN4aidl7android8hardware6camera6device14BnCameraDeviceD0Ev",
   "parameters" :
   [
    {
     "is_this_ptr" : true,
     "referenced_type" : "_ZTIPN4aidl7android8hardware6camera6device14BnCameraDeviceE"
    }
   ],
   "return_type" : "_ZTIv",
   "source_file" : "out/soong/.intermediates/hardware/interfaces/camera/device/aidl/android.hardware.camera.device-V1-ndk-source/gen/include/aidl/android/hardware/camera/device/BnCameraDevice.h"
  },
  {
   "function_name" : "aidl::android::hardware::camera::device::BnCameraDevice::~BnCameraDevice",
   "linker_set_key" : "_ZN4aidl7android8hardware6camera6device14BnCameraDeviceD1Ev",
   "parameters" :
   [
    {
     "is_this_ptr" : true,
     "referenced_type" : "_ZTIPN4aidl7android8hardware6camera6device14BnCameraDeviceE"
    }
   ],
   "return_type" : "_ZTIv",
   "source_file" : "out/soong/.intermediates/hardware/interfaces/camera/device/aidl/android.hardware.camera.device-V1-ndk-source/gen/include/aidl/android/hardware/camera/device/BnCameraDevice.h"
  },
  {
   "function_name" : "aidl::android::hardware::camera::device::BnCameraDevice::~BnCameraDevice",
   "linker_set_key" : "_ZN4aidl7android8hardware6camera6device14BnCameraDeviceD2Ev",
   "parameters" :
   [
    {
     "is_this_ptr" : true,
     "referenced_type" : "_ZTIPN4aidl7android8hardware6camera6device14BnCameraDeviceE"
    }
   ],
   "return_type" : "_ZTIv",
   "source_file" : "out/soong/.intermediates/hardware/interfaces/camera/device/aidl/android.hardware.camera.device-V1-ndk-source/gen/include/aidl/android/hardware/camera/device/BnCameraDevice.h"
  },
  {
   "function_name" : "aidl::android::hardware::camera::device::BpCameraDevice::setTorchMode",
   "linker_set_key" : "_ZN4aidl7android8hardware6camera6device14BpCameraDevice12setTorchModeEb",
   "parameters" :
   [
    {
     "is_this_ptr" : true,
     "referenced_type" : "_ZTIPN4aidl7android8hardware6camera6device14BpCameraDeviceE"
    },
    {
     "referenced_type" : "_ZTIb"
    }
   ],
   "return_type" : "_ZTIN3ndk13ScopedAStatusE",
   "source_file" : "out/soong/.intermediates/hardware/interfaces/camera/device/aidl/android.hardware.camera.device-V1-ndk-source/gen/include/aidl/android/hardware/camera/device/BpCameraDevice.h"
  },
  {
   "function_name" : "aidl::android::hardware::camera::device::BpCameraDevice::getResourceCost",
   "linker_set_key" : "_ZN4aidl7android8hardware6camera6device14BpCameraDevice15getResourceCostEPNS2_6common18CameraResourceCostE",
   "parameters" :
   [
    {
     "is_this_ptr" : true,
     "referenced_type" : "_ZTIPN4aidl7android8hardware6camera6device14BpCameraDeviceE"
    },
    {
     "referenced_type" : "_ZTIPN4aidl7android8hardware6camera6common18CameraResourceCostE"
    }
   ],
   "return_type" : "_ZTIN3ndk13ScopedAStatusE",
   "source_file" : "out/soong/.intermediates/hardware/interfaces/camera/device/aidl/android.hardware.camera.device-V1-ndk-source/gen/include/aidl/android/hardware/camera/device/BpCameraDevice.h"
  },
  {
   "function_name" : "aidl::android::hardware::camera::device::BpCameraDevice::getInterfaceHash",
   "linker_set_key" : "_ZN4aidl7android8hardware6camera6device14BpCameraDevice16getInterfaceHashEPNSt3__112basic_stringIcNS5_11char_traitsIcEENS5_9allocatorIcEEEE",
   "parameters" :
   [
    {
     "is_this_ptr" : true,
     "referenced_type" : "_ZTIPN4aidl7android8hardware6camera6device14BpCameraDeviceE"
    },
    {
     "referenced_type" : "_ZTIPNSt3__112basic_stringIcNS_11char_traitsIcEENS_9allocatorIcEEEE"
    }
   ],
   "return_type" : "_ZTIN3ndk13ScopedAStatusE",
   "source_file" : "out/soong/.intermediates/hardware/interfaces/camera/device/aidl/android.hardware.camera.device-V1-ndk-source/gen/include/aidl/android/hardware/camera/device/BpCameraDevice.h"
  },
  {
   "function_name" : "aidl::android::hardware::camera::device::BpCameraDevice::getInterfaceVersion",
   "linker_set_key" : "_ZN4aidl7android8hardware6camera6device14BpCameraDevice19getInterfaceVersionEPi",
   "parameters" :
   [
    {
     "is_this_ptr" : true,
     "referenced_type" : "_ZTIPN4aidl7android8hardware6camera6device14BpCameraDeviceE"
    },
    {
     "referenced_type" : "_ZTIPi"
    }
   ],
   "return_type" : "_ZTIN3ndk13ScopedAStatusE",
   "source_file" : "out/soong/.intermediates/hardware/interfaces/camera/device/aidl/android.hardware.camera.device-V1-ndk-source/gen/include/aidl/android/hardware/camera/device/BpCameraDevice.h"
  },
  {
   "function_name" : "aidl::android::hardware::camera::device::BpCameraDevice::openInjectionSession",
   "linker_set_key" : "_ZN4aidl7android8hardware6camera6device14BpCameraDevice20openInjectionSessionERKNSt3__110shared_ptrINS3_21ICameraDeviceCallbackEEEPNS6_INS3_23ICameraInjectionSessionEEE",
   "parameters" :
   [
    {
     "is_this_ptr" : true,
     "referenced_type" : "_ZTIPN4aidl7android8hardware6camera6device14BpCameraDeviceE"
    },
    {
     "referenced_type" : "_ZTIRKNSt3__110shared_ptrIN4aidl7android8hardware6camera6device21ICameraDeviceCallbackEEE"
    },
    {
     "referenced_type" : "_ZTIPNSt3__110shared_ptrIN4aidl7android8hardware6camera6device23ICameraInjectionSessionEEE"
    }
   ],
   "return_type" : "_ZTIN3ndk13ScopedAStatusE",
   "source_file" : "out/soong/.intermediates/hardware/interfaces/camera/device/aidl/android.hardware.camera.device-V1-ndk-source/gen/include/aidl/android/hardware/camera/device/BpCameraDevice.h"
  },
  {
   "function_name" : "aidl::android::hardware::camera::device::BpCameraDevice::getTorchStrengthLevel",
   "linker_set_key" : "_ZN4aidl7android8hardware6camera6device14BpCameraDevice21getTorchStrengthLevelEPi",
   "parameters" :
   [
    {
     "is_this_ptr" : true,
     "referenced_type" : "_ZTIPN4aidl7android8hardware6camera6device14BpCameraDeviceE"
    },
    {
     "referenced_type" : "_ZTIPi"
    }
   ],
   "return_type" : "_ZTIN3ndk13ScopedAStatusE",
   "source_file" : "out/soong/.intermediates/hardware/interfaces/camera/device/aidl/android.hardware.camera.device-V1-ndk-source/gen/include/aidl/android/hardware/camera/device/BpCameraDevice.h"
  },
  {
   "function_name" : "aidl::android::hardware::camera::device::BpCameraDevice::getCameraCharacteristics",
   "linker_set_key" : "_ZN4aidl7android8hardware6camera6device14BpCameraDevice24getCameraCharacteristicsEPNS3_14CameraMetadataE",
   "parameters" :
   [
    {
     "is_this_ptr" : true,
     "referenced_type" : "_ZTIPN4aidl7android8hardware6camera6device14BpCameraDeviceE"
    },
    {
     "referenced_type" : "_ZTIPN4aidl7android8hardware6camera6device14CameraMetadataE"
    }
   ],
   "return_type" : "_ZTIN3ndk13ScopedAStatusE",
   "source_file" : "out/soong/.intermediates/hardware/interfaces/camera/device/aidl/android.hardware.camera.device-V1-ndk-source/gen/include/aidl/android/hardware/camera/device/BpCameraDevice.h"
  },
  {
   "function_name" : "aidl::android::hardware::camera::device::BpCameraDevice::isStreamCombinationSupported",
   "linker_set_key" : "_ZN4aidl7android8hardware6camera6device14BpCameraDevice28isStreamCombinationSupportedERKNS3_19StreamConfigurationEPb",
   "parameters" :
   [
    {
     "is_this_ptr" : true,
     "referenced_type" : "_ZTIPN4aidl7android8hardware6camera6device14BpCameraDeviceE"
    },
    {
     "referenced_type" : "_ZTIRKN4aidl7android8hardware6camera6device19StreamConfigurationE"
    },
    {
     "referenced_type" : "_ZTIPb"
    }
   ],
   "return_type" : "_ZTIN3ndk13ScopedAStatusE",
   "source_file" : "out/soong/.intermediates/hardware/interfaces/camera/device/aidl/android.hardware.camera.device-V1-ndk-source/gen/include/aidl/android/hardware/camera/device/BpCameraDevice.h"
  },
  {
   "function_name" : "aidl::android::hardware::camera::device::BpCameraDevice::turnOnTorchWithStrengthLevel",
   "linker_set_key" : "_ZN4aidl7android8hardware6camera6device14BpCameraDevice28turnOnTorchWithStrengthLevelEi",
   "parameters" :
   [
    {
     "is_this_ptr" : true,
     "referenced_type" : "_ZTIPN4aidl7android8hardware6camera6device14BpCameraDeviceE"
    },
    {
     "referenced_type" : "_ZTIi"
    }
   ],
   "return_type" : "_ZTIN3ndk13ScopedAStatusE",
   "source_file" : "out/soong/.intermediates/hardware/interfaces/camera/device/aidl/android.hardware.camera.device-V1-ndk-source/gen/include/aidl/android/hardware/camera/device/BpCameraDevice.h"
  },
  {
   "function_name" : "aidl::android::hardware::camera::device::BpCameraDevice::getPhysicalCameraCharacteristics",
   "linker_set_key" : "_ZN4aidl7android8hardware6camera6device14BpCameraDevice32getPhysicalCameraCharacteristicsERKNSt3__112basic_stringIcNS5_11char_traitsIcEENS5_9allocatorIcEEEEPNS3_14CameraMetadataE",
   "parameters" :
   [
    {
     "is_this_ptr" : true,
     "referenced_type" : "_ZTIPN4aidl7android8hardware6camera6device14BpCameraDeviceE"
    },
    {
     "referenced_type" : "_ZTIRKNSt3__112basic_stringIcNS_11char_traitsIcEENS_9allocatorIcEEEE"
    },
    {
     "referenced_type" : "_ZTIPN4aidl7android8hardware6camera6device14CameraMetadataE"
    }
   ],
   "return_type" : "_ZTIN3ndk13ScopedAStatusE",
   "source_file" : "out/soong/.intermediates/hardware/interfaces/camera/device/aidl/android.hardware.camera.device-V1-ndk-source/gen/include/aidl/android/hardware/camera/device/BpCameraDevice.h"
  },
  {
   "function_name" : "aidl::android::hardware::camera::device::BpCameraDevice::open",
   "linker_set_key" : "_ZN4aidl7android8hardware6camera6device14BpCameraDevice4openERKNSt3__110shared_ptrINS3_21ICameraDeviceCallbackEEEPNS6_INS3_20ICameraDeviceSessionEEE",
   "parameters" :
   [
    {
     "is_this_ptr" : true,
     "referenced_type" : "_ZTIPN4aidl7android8hardware6camera6device14BpCameraDeviceE"
    },
    {
     "referenced_type" : "_ZTIRKNSt3__110shared_ptrIN4aidl7android8hardware6camera6device21ICameraDeviceCallbackEEE"
    },
    {
     "referenced_type" : "_ZTIPNSt3__110shared_ptrIN4aidl7android8hardware6camera6device20ICameraDeviceSessionEEE"
    }
   ],
   "return_type" : "_ZTIN3ndk13ScopedAStatusE",
   "source_file" : "out/soong/.intermediates/hardware/interfaces/camera/device/aidl/android.hardware.camera.device-V1-ndk-source/gen/include/aidl/android/hardware/camera/device/BpCameraDevice.h"
  },
  {
   "function_name" : "aidl::android::hardware::camera::device::BpCameraDevice::BpCameraDevice",
   "linker_set_key" : "_ZN4aidl7android8hardware6camera6device14BpCameraDeviceC1ERKN3ndk10SpAIBinderE",
   "parameters" :
   [
    {
     "is_this_ptr" : true,
     "referenced_type" : "_ZTIPN4aidl7android8hardware6camera6device14BpCameraDeviceE"
    },
    {
     "referenced_type" : "_ZTIRKN3ndk10SpAIBinderE"
    }
   ],
   "return_type" : "_ZTIv",
   "source_file" : "out/soong/.intermediates/hardware/interfaces/camera/device/aidl/android.hardware.camera.device-V1-ndk-source/gen/include/aidl/android/hardware/camera/device/BpCameraDevice.h"
  },
  {
   "function_name" : "aidl::android::hardware::camera::device::BpCameraDevice::BpCameraDevice",
   "linker_set_key" : "_ZN4aidl7android8hardware6camera6device14BpCameraDeviceC2ERKN3ndk10SpAIBinderE",
   "parameters" :
   [
    {
     "is_this_ptr" : true,
     "referenced_type" : "_ZTIPN4aidl7android8hardware6camera6device14BpCameraDeviceE"
    },
    {
     "referenced_type" : "_ZTIRKN3ndk10SpAIBinderE"
    }
   ],
   "return_type" : "_ZTIv",
   "source_file" : "out/soong/.intermediates/hardware/interfaces/camera/device/aidl/android.hardware.camera.device-V1-ndk-source/gen/include/aidl/android/hardware/camera/device/BpCameraDevice.h"
  },
  {
   "function_name" : "aidl::android::hardware::camera::device::BpCameraDevice::~BpCameraDevice",
   "linker_set_key" : "_ZN4aidl7android8hardware6camera6device14BpCameraDeviceD0Ev",
   "parameters" :
   [
    {
     "is_this_ptr" : true,
     "referenced_type" : "_ZTIPN4aidl7android8hardware6camera6device14BpCameraDeviceE"
    }
   ],
   "return_type" : "_ZTIv",
   "source_file" : "out/soong/.intermediates/hardware/interfaces/camera/device/aidl/android.hardware.camera.device-V1-ndk-source/gen/include/aidl/android/hardware/camera/device/BpCameraDevice.h"
  },
  {
   "function_name" : "aidl::android::hardware::camera::device::BpCameraDevice::~BpCameraDevice",
   "linker_set_key" : "_ZN4aidl7android8hardware6camera6device14BpCameraDeviceD1Ev",
   "parameters" :
   [
    {
     "is_this_ptr" : true,
     "referenced_type" : "_ZTIPN4aidl7android8hardware6camera6device14BpCameraDeviceE"
    }
   ],
   "return_type" : "_ZTIv",
   "source_file" : "out/soong/.intermediates/hardware/interfaces/camera/device/aidl/android.hardware.camera.device-V1-ndk-source/gen/include/aidl/android/hardware/camera/device/BpCameraDevice.h"
  },
  {
   "function_name" : "aidl::android::hardware::camera::device::BpCameraDevice::~BpCameraDevice",
   "linker_set_key" : "_ZN4aidl7android8hardware6camera6device14BpCameraDeviceD2Ev",
   "parameters" :
   [
    {
     "is_this_ptr" : true,
     "referenced_type" : "_ZTIPN4aidl7android8hardware6camera6device14BpCameraDeviceE"
    }
   ],
   "return_type" : "_ZTIv",
   "source_file" : "out/soong/.intermediates/hardware/interfaces/camera/device/aidl/android.hardware.camera.device-V1-ndk-source/gen/include/aidl/android/hardware/camera/device/BpCameraDevice.h"
  },
  {
   "function_name" : "aidl::android::hardware::camera::device::CameraMetadata::readFromParcel",
   "linker_set_key" : "_ZN4aidl7android8hardware6camera6device14CameraMetadata14readFromParcelEPK7AParcel",
   "parameters" :
   [
    {
     "is_this_ptr" : true,
     "referenced_type" : "_ZTIPN4aidl7android8hardware6camera6device14CameraMetadataE"
    },
    {
     "referenced_type" : "_ZTIPK7AParcel"
    }
   ],
   "return_type" : "_ZTIi",
   "source_file" : "out/soong/.intermediates/hardware/interfaces/camera/device/aidl/android.hardware.camera.device-V1-ndk-source/gen/include/aidl/android/hardware/camera/device/CameraMetadata.h"
  },
  {
   "function_name" : "aidl::android::hardware::camera::device::CaptureRequest::readFromParcel",
   "linker_set_key" : "_ZN4aidl7android8hardware6camera6device14CaptureRequest14readFromParcelEPK7AParcel",
   "parameters" :
   [
    {
     "is_this_ptr" : true,
     "referenced_type" : "_ZTIPN4aidl7android8hardware6camera6device14CaptureRequestE"
    },
    {
     "referenced_type" : "_ZTIPK7AParcel"
    }
   ],
   "return_type" : "_ZTIi",
   "source_file" : "out/soong/.intermediates/hardware/interfaces/camera/device/aidl/android.hardware.camera.device-V1-ndk-source/gen/include/aidl/android/hardware/camera/device/CaptureRequest.h"
  },
  {
   "function_name" : "aidl::android::hardware::camera::device::OfflineRequest::readFromParcel",
   "linker_set_key" : "_ZN4aidl7android8hardware6camera6device14OfflineRequest14readFromParcelEPK7AParcel",
   "parameters" :
   [
    {
     "is_this_ptr" : true,
     "referenced_type" : "_ZTIPN4aidl7android8hardware6camera6device14OfflineRequestE"
    },
    {
     "referenced_type" : "_ZTIPK7AParcel"
    }
   ],
   "return_type" : "_ZTIi",
   "source_file" : "out/soong/.intermediates/hardware/interfaces/camera/device/aidl/android.hardware.camera.device-V1-ndk-source/gen/include/aidl/android/hardware/camera/device/OfflineRequest.h"
  },
  {
   "function_name" : "aidl::android::hardware::camera::device::StreamBufferRet::readFromParcel",
   "linker_set_key" : "_ZN4aidl7android8hardware6camera6device15StreamBufferRet14readFromParcelEPK7AParcel",
   "parameters" :
   [
    {
     "is_this_ptr" : true,
     "referenced_type" : "_ZTIPN4aidl7android8hardware6camera6device15StreamBufferRetE"
    },
    {
     "referenced_type" : "_ZTIPK7AParcel"
    }
   ],
   "return_type" : "_ZTIi",
   "source_file" : "out/soong/.intermediates/hardware/interfaces/camera/device/aidl/android.hardware.camera.device-V1-ndk-source/gen/include/aidl/android/hardware/camera/device/StreamBufferRet.h"
  },
  {
   "function_name" : "aidl::android::hardware::camera::device::StreamBuffersVal::readFromParcel",
   "linker_set_key" : "_ZN4aidl7android8hardware6camera6device16StreamBuffersVal14readFromParcelEPK7AParcel",
   "parameters" :
   [
    {
     "is_this_ptr" : true,
     "referenced_type" : "_ZTIPN4aidl7android8hardware6camera6device16StreamBuffersValE"
    },
    {
     "referenced_type" : "_ZTIPK7AParcel"
    }
   ],
   "return_type" : "_ZTIi",
   "source_file" : "out/soong/.intermediates/hardware/interfaces/camera/device/aidl/android.hardware.camera.device-V1-ndk-source/gen/include/aidl/android/hardware/camera/device/StreamBuffersVal.h"
  },
  {
   "function_name" : "aidl::android::hardware::camera::device::StreamConfiguration::readFromParcel",
   "linker_set_key" : "_ZN4aidl7android8hardware6camera6device19StreamConfiguration14readFromParcelEPK7AParcel",
   "parameters" :
   [
    {
     "is_this_ptr" : true,
     "referenced_type" : "_ZTIPN4aidl7android8hardware6camera6device19StreamConfigurationE"
    },
    {
     "referenced_type" : "_ZTIPK7AParcel"
    }
   ],
   "return_type" : "_ZTIi",
   "source_file" : "out/soong/.intermediates/hardware/interfaces/camera/device/aidl/android.hardware.camera.device-V1-ndk-source/gen/include/aidl/android/hardware/camera/device/StreamConfiguration.h"
  },
  {
   "function_name" : "aidl::android::hardware::camera::device::ICameraDeviceDefault::setTorchMode",
   "linker_set_key" : "_ZN4aidl7android8hardware6camera6device20ICameraDeviceDefault12setTorchModeEb",
   "parameters" :
   [
    {
     "is_this_ptr" : true,
     "referenced_type" : "_ZTIPN4aidl7android8hardware6camera6device20ICameraDeviceDefaultE"
    },
    {
     "referenced_type" : "_ZTIb"
    }
   ],
   "return_type" : "_ZTIN3ndk13ScopedAStatusE",
   "source_file" : "out/soong/.intermediates/hardware/interfaces/camera/device/aidl/android.hardware.camera.device-V1-ndk-source/gen/include/aidl/android/hardware/camera/device/ICameraDevice.h"
  },
  {
   "function_name" : "aidl::android::hardware::camera::device::ICameraDeviceDefault::getResourceCost",
   "linker_set_key" : "_ZN4aidl7android8hardware6camera6device20ICameraDeviceDefault15getResourceCostEPNS2_6common18CameraResourceCostE",
   "parameters" :
   [
    {
     "is_this_ptr" : true,
     "referenced_type" : "_ZTIPN4aidl7android8hardware6camera6device20ICameraDeviceDefaultE"
    },
    {
     "referenced_type" : "_ZTIPN4aidl7android8hardware6camera6common18CameraResourceCostE"
    }
   ],
   "return_type" : "_ZTIN3ndk13ScopedAStatusE",
   "source_file" : "out/soong/.intermediates/hardware/interfaces/camera/device/aidl/android.hardware.camera.device-V1-ndk-source/gen/include/aidl/android/hardware/camera/device/ICameraDevice.h"
  },
  {
   "function_name" : "aidl::android::hardware::camera::device::ICameraDeviceDefault::getInterfaceHash",
   "linker_set_key" : "_ZN4aidl7android8hardware6camera6device20ICameraDeviceDefault16getInterfaceHashEPNSt3__112basic_stringIcNS5_11char_traitsIcEENS5_9allocatorIcEEEE",
   "parameters" :
   [
    {
     "is_this_ptr" : true,
     "referenced_type" : "_ZTIPN4aidl7android8hardware6camera6device20ICameraDeviceDefaultE"
    },
    {
     "referenced_type" : "_ZTIPNSt3__112basic_stringIcNS_11char_traitsIcEENS_9allocatorIcEEEE"
    }
   ],
   "return_type" : "_ZTIN3ndk13ScopedAStatusE",
   "source_file" : "out/soong/.intermediates/hardware/interfaces/camera/device/aidl/android.hardware.camera.device-V1-ndk-source/gen/include/aidl/android/hardware/camera/device/ICameraDevice.h"
  },
  {
   "function_name" : "aidl::android::hardware::camera::device::ICameraDeviceDefault::getInterfaceVersion",
   "linker_set_key" : "_ZN4aidl7android8hardware6camera6device20ICameraDeviceDefault19getInterfaceVersionEPi",
   "parameters" :
   [
    {
     "is_this_ptr" : true,
     "referenced_type" : "_ZTIPN4aidl7android8hardware6camera6device20ICameraDeviceDefaultE"
    },
    {
     "referenced_type" : "_ZTIPi"
    }
   ],
   "return_type" : "_ZTIN3ndk13ScopedAStatusE",
   "source_file" : "out/soong/.intermediates/hardware/interfaces/camera/device/aidl/android.hardware.camera.device-V1-ndk-source/gen/include/aidl/android/hardware/camera/device/ICameraDevice.h"
  },
  {
   "function_name" : "aidl::android::hardware::camera::device::ICameraDeviceDefault::openInjectionSession",
   "linker_set_key" : "_ZN4aidl7android8hardware6camera6device20ICameraDeviceDefault20openInjectionSessionERKNSt3__110shared_ptrINS3_21ICameraDeviceCallbackEEEPNS6_INS3_23ICameraInjectionSessionEEE",
   "parameters" :
   [
    {
     "is_this_ptr" : true,
     "referenced_type" : "_ZTIPN4aidl7android8hardware6camera6device20ICameraDeviceDefaultE"
    },
    {
     "referenced_type" : "_ZTIRKNSt3__110shared_ptrIN4aidl7android8hardware6camera6device21ICameraDeviceCallbackEEE"
    },
    {
     "referenced_type" : "_ZTIPNSt3__110shared_ptrIN4aidl7android8hardware6camera6device23ICameraInjectionSessionEEE"
    }
   ],
   "return_type" : "_ZTIN3ndk13ScopedAStatusE",
   "source_file" : "out/soong/.intermediates/hardware/interfaces/camera/device/aidl/android.hardware.camera.device-V1-ndk-source/gen/include/aidl/android/hardware/camera/device/ICameraDevice.h"
  },
  {
   "function_name" : "aidl::android::hardware::camera::device::ICameraDeviceDefault::getTorchStrengthLevel",
   "linker_set_key" : "_ZN4aidl7android8hardware6camera6device20ICameraDeviceDefault21getTorchStrengthLevelEPi",
   "parameters" :
   [
    {
     "is_this_ptr" : true,
     "referenced_type" : "_ZTIPN4aidl7android8hardware6camera6device20ICameraDeviceDefaultE"
    },
    {
     "referenced_type" : "_ZTIPi"
    }
   ],
   "return_type" : "_ZTIN3ndk13ScopedAStatusE",
   "source_file" : "out/soong/.intermediates/hardware/interfaces/camera/device/aidl/android.hardware.camera.device-V1-ndk-source/gen/include/aidl/android/hardware/camera/device/ICameraDevice.h"
  },
  {
   "function_name" : "aidl::android::hardware::camera::device::ICameraDeviceDefault::getCameraCharacteristics",
   "linker_set_key" : "_ZN4aidl7android8hardware6camera6device20ICameraDeviceDefault24getCameraCharacteristicsEPNS3_14CameraMetadataE",
   "parameters" :
   [
    {
     "is_this_ptr" : true,
     "referenced_type" : "_ZTIPN4aidl7android8hardware6camera6device20ICameraDeviceDefaultE"
    },
    {
     "referenced_type" : "_ZTIPN4aidl7android8hardware6camera6device14CameraMetadataE"
    }
   ],
   "return_type" : "_ZTIN3ndk13ScopedAStatusE",
   "source_file" : "out/soong/.intermediates/hardware/interfaces/camera/device/aidl/android.hardware.camera.device-V1-ndk-source/gen/include/aidl/android/hardware/camera/device/ICameraDevice.h"
  },
  {
   "function_name" : "aidl::android::hardware::camera::device::ICameraDeviceDefault::isStreamCombinationSupported",
   "linker_set_key" : "_ZN4aidl7android8hardware6camera6device20ICameraDeviceDefault28isStreamCombinationSupportedERKNS3_19StreamConfigurationEPb",
   "parameters" :
   [
    {
     "is_this_ptr" : true,
     "referenced_type" : "_ZTIPN4aidl7android8hardware6camera6device20ICameraDeviceDefaultE"
    },
    {
     "referenced_type" : "_ZTIRKN4aidl7android8hardware6camera6device19StreamConfigurationE"
    },
    {
     "referenced_type" : "_ZTIPb"
    }
   ],
   "return_type" : "_ZTIN3ndk13ScopedAStatusE",
   "source_file" : "out/soong/.intermediates/hardware/interfaces/camera/device/aidl/android.hardware.camera.device-V1-ndk-source/gen/include/aidl/android/hardware/camera/device/ICameraDevice.h"
  },
  {
   "function_name" : "aidl::android::hardware::camera::device::ICameraDeviceDefault::turnOnTorchWithStrengthLevel",
   "linker_set_key" : "_ZN4aidl7android8hardware6camera6device20ICameraDeviceDefault28turnOnTorchWithStrengthLevelEi",
   "parameters" :
   [
    {
     "is_this_ptr" : true,
     "referenced_type" : "_ZTIPN4aidl7android8hardware6camera6device20ICameraDeviceDefaultE"
    },
    {
     "referenced_type" : "_ZTIi"
    }
   ],
   "return_type" : "_ZTIN3ndk13ScopedAStatusE",
   "source_file" : "out/soong/.intermediates/hardware/interfaces/camera/device/aidl/android.hardware.camera.device-V1-ndk-source/gen/include/aidl/android/hardware/camera/device/ICameraDevice.h"
  },
  {
   "function_name" : "aidl::android::hardware::camera::device::ICameraDeviceDefault::getPhysicalCameraCharacteristics",
   "linker_set_key" : "_ZN4aidl7android8hardware6camera6device20ICameraDeviceDefault32getPhysicalCameraCharacteristicsERKNSt3__112basic_stringIcNS5_11char_traitsIcEENS5_9allocatorIcEEEEPNS3_14CameraMetadataE",
   "parameters" :
   [
    {
     "is_this_ptr" : true,
     "referenced_type" : "_ZTIPN4aidl7android8hardware6camera6device20ICameraDeviceDefaultE"
    },
    {
     "referenced_type" : "_ZTIRKNSt3__112basic_stringIcNS_11char_traitsIcEENS_9allocatorIcEEEE"
    },
    {
     "referenced_type" : "_ZTIPN4aidl7android8hardware6camera6device14CameraMetadataE"
    }
   ],
   "return_type" : "_ZTIN3ndk13ScopedAStatusE",
   "source_file" : "out/soong/.intermediates/hardware/interfaces/camera/device/aidl/android.hardware.camera.device-V1-ndk-source/gen/include/aidl/android/hardware/camera/device/ICameraDevice.h"
  },
  {
   "function_name" : "aidl::android::hardware::camera::device::ICameraDeviceDefault::open",
   "linker_set_key" : "_ZN4aidl7android8hardware6camera6device20ICameraDeviceDefault4openERKNSt3__110shared_ptrINS3_21ICameraDeviceCallbackEEEPNS6_INS3_20ICameraDeviceSessionEEE",
   "parameters" :
   [
    {
     "is_this_ptr" : true,
     "referenced_type" : "_ZTIPN4aidl7android8hardware6camera6device20ICameraDeviceDefaultE"
    },
    {
     "referenced_type" : "_ZTIRKNSt3__110shared_ptrIN4aidl7android8hardware6camera6device21ICameraDeviceCallbackEEE"
    },
    {
     "referenced_type" : "_ZTIPNSt3__110shared_ptrIN4aidl7android8hardware6camera6device20ICameraDeviceSessionEEE"
    }
   ],
   "return_type" : "_ZTIN3ndk13ScopedAStatusE",
   "source_file" : "out/soong/.intermediates/hardware/interfaces/camera/device/aidl/android.hardware.camera.device-V1-ndk-source/gen/include/aidl/android/hardware/camera/device/ICameraDevice.h"
  },
  {
   "function_name" : "aidl::android::hardware::camera::device::ICameraDeviceDefault::asBinder",
   "linker_set_key" : "_ZN4aidl7android8hardware6camera6device20ICameraDeviceDefault8asBinderEv",
   "parameters" :
   [
    {
     "is_this_ptr" : true,
     "referenced_type" : "_ZTIPN4aidl7android8hardware6camera6device20ICameraDeviceDefaultE"
    }
   ],
   "return_type" : "_ZTIN3ndk10SpAIBinderE",
   "source_file" : "out/soong/.intermediates/hardware/interfaces/camera/device/aidl/android.hardware.camera.device-V1-ndk-source/gen/include/aidl/android/hardware/camera/device/ICameraDevice.h"
  },
  {
   "function_name" : "aidl::android::hardware::camera::device::ICameraDeviceDefault::isRemote",
   "linker_set_key" : "_ZN4aidl7android8hardware6camera6device20ICameraDeviceDefault8isRemoteEv",
   "parameters" :
   [
    {
     "is_this_ptr" : true,
     "referenced_type" : "_ZTIPN4aidl7android8hardware6camera6device20ICameraDeviceDefaultE"
    }
   ],
   "return_type" : "_ZTIb",
   "source_file" : "out/soong/.intermediates/hardware/interfaces/camera/device/aidl/android.hardware.camera.device-V1-ndk-source/gen/include/aidl/android/hardware/camera/device/ICameraDevice.h"
  },
  {
   "function_name" : "aidl::android::hardware::camera::device::ICameraDeviceSession::fromBinder",
   "linker_set_key" : "_ZN4aidl7android8hardware6camera6device20ICameraDeviceSession10fromBinderERKN3ndk10SpAIBinderE",
   "parameters" :
   [
    {
     "referenced_type" : "_ZTIRKN3ndk10SpAIBinderE"
    }
   ],
   "return_type" : "_ZTINSt3__110shared_ptrIN4aidl7android8hardware6camera6device20ICameraDeviceSessionEEE",
   "source_file" : "out/soong/.intermediates/hardware/interfaces/camera/device/aidl/android.hardware.camera.device-V1-ndk-source/gen/include/aidl/android/hardware/camera/device/ICameraDeviceSession.h"
  },
  {
   "function_name" : "aidl::android::hardware::camera::device::ICameraDeviceSession::writeToParcel",
   "linker_set_key" : "_ZN4aidl7android8hardware6camera6device20ICameraDeviceSession13writeToParcelEP7AParcelRKNSt3__110shared_ptrIS4_EE",
   "parameters" :
   [
    {
     "referenced_type" : "_ZTIP7AParcel"
    },
    {
     "referenced_type" : "_ZTIRKNSt3__110shared_ptrIN4aidl7android8hardware6camera6device20ICameraDeviceSessionEEE"
    }
   ],
   "return_type" : "_ZTIi",
   "source_file" : "out/soong/.intermediates/hardware/interfaces/camera/device/aidl/android.hardware.camera.device-V1-ndk-source/gen/include/aidl/android/hardware/camera/device/ICameraDeviceSession.h"
  },
  {
   "function_name" : "aidl::android::hardware::camera::device::ICameraDeviceSession::getDefaultImpl",
   "linker_set_key" : "_ZN4aidl7android8hardware6camera6device20ICameraDeviceSession14getDefaultImplEv",
   "return_type" : "_ZTIRKNSt3__110shared_ptrIN4aidl7android8hardware6camera6device20ICameraDeviceSessionEEE",
   "source_file" : "out/soong/.intermediates/hardware/interfaces/camera/device/aidl/android.hardware.camera.device-V1-ndk-source/gen/include/aidl/android/hardware/camera/device/ICameraDeviceSession.h"
  },
  {
   "function_name" : "aidl::android::hardware::camera::device::ICameraDeviceSession::readFromParcel",
   "linker_set_key" : "_ZN4aidl7android8hardware6camera6device20ICameraDeviceSession14readFromParcelEPK7AParcelPNSt3__110shared_ptrIS4_EE",
   "parameters" :
   [
    {
     "referenced_type" : "_ZTIPK7AParcel"
    },
    {
     "referenced_type" : "_ZTIPNSt3__110shared_ptrIN4aidl7android8hardware6camera6device20ICameraDeviceSessionEEE"
    }
   ],
   "return_type" : "_ZTIi",
   "source_file" : "out/soong/.intermediates/hardware/interfaces/camera/device/aidl/android.hardware.camera.device-V1-ndk-source/gen/include/aidl/android/hardware/camera/device/ICameraDeviceSession.h"
  },
  {
   "function_name" : "aidl::android::hardware::camera::device::ICameraDeviceSession::setDefaultImpl",
   "linker_set_key" : "_ZN4aidl7android8hardware6camera6device20ICameraDeviceSession14setDefaultImplERKNSt3__110shared_ptrIS4_EE",
   "parameters" :
   [
    {
     "referenced_type" : "_ZTIRKNSt3__110shared_ptrIN4aidl7android8hardware6camera6device20ICameraDeviceSessionEEE"
    }
   ],
   "return_type" : "_ZTIb",
   "source_file" : "out/soong/.intermediates/hardware/interfaces/camera/device/aidl/android.hardware.camera.device-V1-ndk-source/gen/include/aidl/android/hardware/camera/device/ICameraDeviceSession.h"
  },
  {
   "function_name" : "aidl::android::hardware::camera::device::ICameraDeviceSession::ICameraDeviceSession",
   "linker_set_key" : "_ZN4aidl7android8hardware6camera6device20ICameraDeviceSessionC2Ev",
   "parameters" :
   [
    {
     "is_this_ptr" : true,
     "referenced_type" : "_ZTIPN4aidl7android8hardware6camera6device20ICameraDeviceSessionE"
    }
   ],
   "return_type" : "_ZTIv",
   "source_file" : "out/soong/.intermediates/hardware/interfaces/camera/device/aidl/android.hardware.camera.device-V1-ndk-source/gen/include/aidl/android/hardware/camera/device/ICameraDeviceSession.h"
  },
  {
   "function_name" : "aidl::android::hardware::camera::device::ICameraDeviceSession::~ICameraDeviceSession",
   "linker_set_key" : "_ZN4aidl7android8hardware6camera6device20ICameraDeviceSessionD0Ev",
   "parameters" :
   [
    {
     "is_this_ptr" : true,
     "referenced_type" : "_ZTIPN4aidl7android8hardware6camera6device20ICameraDeviceSessionE"
    }
   ],
   "return_type" : "_ZTIv",
   "source_file" : "out/soong/.intermediates/hardware/interfaces/camera/device/aidl/android.hardware.camera.device-V1-ndk-source/gen/include/aidl/android/hardware/camera/device/ICameraDeviceSession.h"
  },
  {
   "function_name" : "aidl::android::hardware::camera::device::ICameraDeviceSession::~ICameraDeviceSession",
   "linker_set_key" : "_ZN4aidl7android8hardware6camera6device20ICameraDeviceSessionD1Ev",
   "parameters" :
   [
    {
     "is_this_ptr" : true,
     "referenced_type" : "_ZTIPN4aidl7android8hardware6camera6device20ICameraDeviceSessionE"
    }
   ],
   "return_type" : "_ZTIv",
   "source_file" : "out/soong/.intermediates/hardware/interfaces/camera/device/aidl/android.hardware.camera.device-V1-ndk-source/gen/include/aidl/android/hardware/camera/device/ICameraDeviceSession.h"
  },
  {
   "function_name" : "aidl::android::hardware::camera::device::ICameraDeviceSession::~ICameraDeviceSession",
   "linker_set_key" : "_ZN4aidl7android8hardware6camera6device20ICameraDeviceSessionD2Ev",
   "parameters" :
   [
    {
     "is_this_ptr" : true,
     "referenced_type" : "_ZTIPN4aidl7android8hardware6camera6device20ICameraDeviceSessionE"
    }
   ],
   "return_type" : "_ZTIv",
   "source_file" : "out/soong/.intermediates/hardware/interfaces/camera/device/aidl/android.hardware.camera.device-V1-ndk-source/gen/include/aidl/android/hardware/camera/device/ICameraDeviceSession.h"
  },
  {
   "access" : "protected",
   "function_name" : "aidl::android::hardware::camera::device::BnCameraDeviceSession::createBinder",
   "linker_set_key" : "_ZN4aidl7android8hardware6camera6device21BnCameraDeviceSession12createBinderEv",
   "parameters" :
   [
    {
     "is_this_ptr" : true,
     "referenced_type" : "_ZTIPN4aidl7android8hardware6camera6device21BnCameraDeviceSessionE"
    }
   ],
   "return_type" : "_ZTIN3ndk10SpAIBinderE",
   "source_file" : "out/soong/.intermediates/hardware/interfaces/camera/device/aidl/android.hardware.camera.device-V1-ndk-source/gen/include/aidl/android/hardware/camera/device/BnCameraDeviceSession.h"
  },
  {
   "function_name" : "aidl::android::hardware::camera::device::BnCameraDeviceSession::getInterfaceHash",
   "linker_set_key" : "_ZN4aidl7android8hardware6camera6device21BnCameraDeviceSession16getInterfaceHashEPNSt3__112basic_stringIcNS5_11char_traitsIcEENS5_9allocatorIcEEEE",
   "parameters" :
   [
    {
     "is_this_ptr" : true,
     "referenced_type" : "_ZTIPN4aidl7android8hardware6camera6device21BnCameraDeviceSessionE"
    },
    {
     "referenced_type" : "_ZTIPNSt3__112basic_stringIcNS_11char_traitsIcEENS_9allocatorIcEEEE"
    }
   ],
   "return_type" : "_ZTIN3ndk13ScopedAStatusE",
   "source_file" : "out/soong/.intermediates/hardware/interfaces/camera/device/aidl/android.hardware.camera.device-V1-ndk-source/gen/include/aidl/android/hardware/camera/device/BnCameraDeviceSession.h"
  },
  {
   "function_name" : "aidl::android::hardware::camera::device::BnCameraDeviceSession::getInterfaceVersion",
   "linker_set_key" : "_ZN4aidl7android8hardware6camera6device21BnCameraDeviceSession19getInterfaceVersionEPi",
   "parameters" :
   [
    {
     "is_this_ptr" : true,
     "referenced_type" : "_ZTIPN4aidl7android8hardware6camera6device21BnCameraDeviceSessionE"
    },
    {
     "referenced_type" : "_ZTIPi"
    }
   ],
   "return_type" : "_ZTIN3ndk13ScopedAStatusE",
   "source_file" : "out/soong/.intermediates/hardware/interfaces/camera/device/aidl/android.hardware.camera.device-V1-ndk-source/gen/include/aidl/android/hardware/camera/device/BnCameraDeviceSession.h"
  },
  {
   "function_name" : "aidl::android::hardware::camera::device::BnCameraDeviceSession::BnCameraDeviceSession",
   "linker_set_key" : "_ZN4aidl7android8hardware6camera6device21BnCameraDeviceSessionC2Ev",
   "parameters" :
   [
    {
     "is_this_ptr" : true,
     "referenced_type" : "_ZTIPN4aidl7android8hardware6camera6device21BnCameraDeviceSessionE"
    }
   ],
   "return_type" : "_ZTIv",
   "source_file" : "out/soong/.intermediates/hardware/interfaces/camera/device/aidl/android.hardware.camera.device-V1-ndk-source/gen/include/aidl/android/hardware/camera/device/BnCameraDeviceSession.h"
  },
  {
   "function_name" : "aidl::android::hardware::camera::device::BnCameraDeviceSession::~BnCameraDeviceSession",
   "linker_set_key" : "_ZN4aidl7android8hardware6camera6device21BnCameraDeviceSessionD0Ev",
   "parameters" :
   [
    {
     "is_this_ptr" : true,
     "referenced_type" : "_ZTIPN4aidl7android8hardware6camera6device21BnCameraDeviceSessionE"
    }
   ],
   "return_type" : "_ZTIv",
   "source_file" : "out/soong/.intermediates/hardware/interfaces/camera/device/aidl/android.hardware.camera.device-V1-ndk-source/gen/include/aidl/android/hardware/camera/device/BnCameraDeviceSession.h"
  },
  {
   "function_name" : "aidl::android::hardware::camera::device::BnCameraDeviceSession::~BnCameraDeviceSession",
   "linker_set_key" : "_ZN4aidl7android8hardware6camera6device21BnCameraDeviceSessionD1Ev",
   "parameters" :
   [
    {
     "is_this_ptr" : true,
     "referenced_type" : "_ZTIPN4aidl7android8hardware6camera6device21BnCameraDeviceSessionE"
    }
   ],
   "return_type" : "_ZTIv",
   "source_file" : "out/soong/.intermediates/hardware/interfaces/camera/device/aidl/android.hardware.camera.device-V1-ndk-source/gen/include/aidl/android/hardware/camera/device/BnCameraDeviceSession.h"
  },
  {
   "function_name" : "aidl::android::hardware::camera::device::BnCameraDeviceSession::~BnCameraDeviceSession",
   "linker_set_key" : "_ZN4aidl7android8hardware6camera6device21BnCameraDeviceSessionD2Ev",
   "parameters" :
   [
    {
     "is_this_ptr" : true,
     "referenced_type" : "_ZTIPN4aidl7android8hardware6camera6device21BnCameraDeviceSessionE"
    }
   ],
   "return_type" : "_ZTIv",
   "source_file" : "out/soong/.intermediates/hardware/interfaces/camera/device/aidl/android.hardware.camera.device-V1-ndk-source/gen/include/aidl/android/hardware/camera/device/BnCameraDeviceSession.h"
  },
  {
   "function_name" : "aidl::android::hardware::camera::device::BpCameraDeviceSession::switchToOffline",
   "linker_set_key" : "_ZN4aidl7android8hardware6camera6device21BpCameraDeviceSession15switchToOfflineERKNSt3__16vectorIiNS5_9allocatorIiEEEEPNS3_24CameraOfflineSessionInfoEPNS5_10shared_ptrINS3_21ICameraOfflineSessionEEE",
   "parameters" :
   [
    {
     "is_this_ptr" : true,
     "referenced_type" : "_ZTIPN4aidl7android8hardware6camera6device21BpCameraDeviceSessionE"
    },
    {
     "referenced_type" : "_ZTIRKNSt3__16vectorIiNS_9allocatorIiEEEE"
    },
    {
     "referenced_type" : "_ZTIPN4aidl7android8hardware6camera6device24CameraOfflineSessionInfoE"
    },
    {
     "referenced_type" : "_ZTIPNSt3__110shared_ptrIN4aidl7android8hardware6camera6device21ICameraOfflineSessionEEE"
    }
   ],
   "return_type" : "_ZTIN3ndk13ScopedAStatusE",
   "source_file" : "out/soong/.intermediates/hardware/interfaces/camera/device/aidl/android.hardware.camera.device-V1-ndk-source/gen/include/aidl/android/hardware/camera/device/BpCameraDeviceSession.h"
  },
  {
   "function_name" : "aidl::android::hardware::camera::device::BpCameraDeviceSession::configureStreams",
   "linker_set_key" : "_ZN4aidl7android8hardware6camera6device21BpCameraDeviceSession16configureStreamsERKNS3_19StreamConfigurationEPNSt3__16vectorINS3_9HalStreamENS8_9allocatorISA_EEEE",
   "parameters" :
   [
    {
     "is_this_ptr" : true,
     "referenced_type" : "_ZTIPN4aidl7android8hardware6camera6device21BpCameraDeviceSessionE"
    },
    {
     "referenced_type" : "_ZTIRKN4aidl7android8hardware6camera6device19StreamConfigurationE"
    },
    {
     "referenced_type" : "_ZTIPNSt3__16vectorIN4aidl7android8hardware6camera6device9HalStreamENS_9allocatorIS6_EEEE"
    }
   ],
   "return_type" : "_ZTIN3ndk13ScopedAStatusE",
   "source_file" : "out/soong/.intermediates/hardware/interfaces/camera/device/aidl/android.hardware.camera.device-V1-ndk-source/gen/include/aidl/android/hardware/camera/device/BpCameraDeviceSession.h"
  },
  {
   "function_name" : "aidl::android::hardware::camera::device::BpCameraDeviceSession::getInterfaceHash",
   "linker_set_key" : "_ZN4aidl7android8hardware6camera6device21BpCameraDeviceSession16getInterfaceHashEPNSt3__112basic_stringIcNS5_11char_traitsIcEENS5_9allocatorIcEEEE",
   "parameters" :
   [
    {
     "is_this_ptr" : true,
     "referenced_type" : "_ZTIPN4aidl7android8hardware6camera6device21BpCameraDeviceSessionE"
    },
    {
     "referenced_type" : "_ZTIPNSt3__112basic_stringIcNS_11char_traitsIcEENS_9allocatorIcEEEE"
    }
   ],
   "return_type" : "_ZTIN3ndk13ScopedAStatusE",
   "source_file" : "out/soong/.intermediates/hardware/interfaces/camera/device/aidl/android.hardware.camera.device-V1-ndk-source/gen/include/aidl/android/hardware/camera/device/BpCameraDeviceSession.h"
  },
  {
   "function_name" : "aidl::android::hardware::camera::device::BpCameraDeviceSession::signalStreamFlush",
   "linker_set_key" : "_ZN4aidl7android8hardware6camera6device21BpCameraDeviceSession17signalStreamFlushERKNSt3__16vectorIiNS5_9allocatorIiEEEEi",
   "parameters" :
   [
    {
     "is_this_ptr" : true,
     "referenced_type" : "_ZTIPN4aidl7android8hardware6camera6device21BpCameraDeviceSessionE"
    },
    {
     "referenced_type" : "_ZTIRKNSt3__16vectorIiNS_9allocatorIiEEEE"
    },
    {
     "referenced_type" : "_ZTIi"
    }
   ],
   "return_type" : "_ZTIN3ndk13ScopedAStatusE",
   "source_file" : "out/soong/.intermediates/hardware/interfaces/camera/device/aidl/android.hardware.camera.device-V1-ndk-source/gen/include/aidl/android/hardware/camera/device/BpCameraDeviceSession.h"
  },
  {
   "function_name" : "aidl::android::hardware::camera::device::BpCameraDeviceSession::getInterfaceVersion",
   "linker_set_key" : "_ZN4aidl7android8hardware6camera6device21BpCameraDeviceSession19getInterfaceVersionEPi",
   "parameters" :
   [
    {
     "is_this_ptr" : true,
     "referenced_type" : "_ZTIPN4aidl7android8hardware6camera6device21BpCameraDeviceSessionE"
    },
    {
     "referenced_type" : "_ZTIPi"
    }
   ],
   "return_type" : "_ZTIN3ndk13ScopedAStatusE",
   "source_file" : "out/soong/.intermediates/hardware/interfaces/camera/device/aidl/android.hardware.camera.device-V1-ndk-source/gen/include/aidl/android/hardware/camera/device/BpCameraDeviceSession.h"
  },
  {
   "function_name" : "aidl::android::hardware::camera::device::BpCameraDeviceSession::repeatingRequestEnd",
   "linker_set_key" : "_ZN4aidl7android8hardware6camera6device21BpCameraDeviceSession19repeatingRequestEndEiRKNSt3__16vectorIiNS5_9allocatorIiEEEE",
   "parameters" :
   [
    {
     "is_this_ptr" : true,
     "referenced_type" : "_ZTIPN4aidl7android8hardware6camera6device21BpCameraDeviceSessionE"
    },
    {
     "referenced_type" : "_ZTIi"
    },
    {
     "referenced_type" : "_ZTIRKNSt3__16vectorIiNS_9allocatorIiEEEE"
    }
   ],
   "return_type" : "_ZTIN3ndk13ScopedAStatusE",
   "source_file" : "out/soong/.intermediates/hardware/interfaces/camera/device/aidl/android.hardware.camera.device-V1-ndk-source/gen/include/aidl/android/hardware/camera/device/BpCameraDeviceSession.h"
  },
  {
   "function_name" : "aidl::android::hardware::camera::device::BpCameraDeviceSession::processCaptureRequest",
   "linker_set_key" : "_ZN4aidl7android8hardware6camera6device21BpCameraDeviceSession21processCaptureRequestERKNSt3__16vectorINS3_14CaptureRequestENS5_9allocatorIS7_EEEERKNS6_INS3_11BufferCacheENS8_ISD_EEEEPi",
   "parameters" :
   [
    {
     "is_this_ptr" : true,
     "referenced_type" : "_ZTIPN4aidl7android8hardware6camera6device21BpCameraDeviceSessionE"
    },
    {
     "referenced_type" : "_ZTIRKNSt3__16vectorIN4aidl7android8hardware6camera6device14CaptureRequestENS_9allocatorIS6_EEEE"
    },
    {
     "referenced_type" : "_ZTIRKNSt3__16vectorIN4aidl7android8hardware6camera6device11BufferCacheENS_9allocatorIS6_EEEE"
    },
    {
     "referenced_type" : "_ZTIPi"
    }
   ],
   "return_type" : "_ZTIN3ndk13ScopedAStatusE",
   "source_file" : "out/soong/.intermediates/hardware/interfaces/camera/device/aidl/android.hardware.camera.device-V1-ndk-source/gen/include/aidl/android/hardware/camera/device/BpCameraDeviceSession.h"
  },
  {
   "function_name" : "aidl::android::hardware::camera::device::BpCameraDeviceSession::isReconfigurationRequired",
   "linker_set_key" : "_ZN4aidl7android8hardware6camera6device21BpCameraDeviceSession25isReconfigurationRequiredERKNS3_14CameraMetadataES7_Pb",
   "parameters" :
   [
    {
     "is_this_ptr" : true,
     "referenced_type" : "_ZTIPN4aidl7android8hardware6camera6device21BpCameraDeviceSessionE"
    },
    {
     "referenced_type" : "_ZTIRKN4aidl7android8hardware6camera6device14CameraMetadataE"
    },
    {
     "referenced_type" : "_ZTIRKN4aidl7android8hardware6camera6device14CameraMetadataE"
    },
    {
     "referenced_type" : "_ZTIPb"
    }
   ],
   "return_type" : "_ZTIN3ndk13ScopedAStatusE",
   "source_file" : "out/soong/.intermediates/hardware/interfaces/camera/device/aidl/android.hardware.camera.device-V1-ndk-source/gen/include/aidl/android/hardware/camera/device/BpCameraDeviceSession.h"
  },
  {
   "function_name" : "aidl::android::hardware::camera::device::BpCameraDeviceSession::getCaptureResultMetadataQueue",
   "linker_set_key" : "_ZN4aidl7android8hardware6camera6device21BpCameraDeviceSession29getCaptureResultMetadataQueueEPNS1_6common3fmq12MQDescriptorIaNS6_21SynchronizedReadWriteEEE",
   "parameters" :
   [
    {
     "is_this_ptr" : true,
     "referenced_type" : "_ZTIPN4aidl7android8hardware6camera6device21BpCameraDeviceSessionE"
    },
    {
     "referenced_type" : "_ZTIPN4aidl7android8hardware6common3fmq12MQDescriptorIaNS3_21SynchronizedReadWriteEEE#ODR:out/soong/.intermediates/hardware/interfaces/camera/device/aidl/android.hardware.camera.device-V1-ndk/android_vendor.33_x86_x86_64_static/obj/.intermediates/hardware/interfaces/camera/device/aidl/android.hardware.camera.device-V1-ndk-source/gen/android/hardware/camera/device/ICameraDeviceSession.sdump"
    }
   ],
   "return_type" : "_ZTIN3ndk13ScopedAStatusE",
   "source_file" : "out/soong/.intermediates/hardware/interfaces/camera/device/aidl/android.hardware.camera.device-V1-ndk-source/gen/include/aidl/android/hardware/camera/device/BpCameraDeviceSession.h"
  },
  {
   "function_name" : "aidl::android::hardware::camera::device::BpCameraDeviceSession::getCaptureRequestMetadataQueue",
   "linker_set_key" : "_ZN4aidl7android8hardware6camera6device21BpCameraDeviceSession30getCaptureRequestMetadataQueueEPNS1_6common3fmq12MQDescriptorIaNS6_21SynchronizedReadWriteEEE",
   "parameters" :
   [
    {
     "is_this_ptr" : true,
     "referenced_type" : "_ZTIPN4aidl7android8hardware6camera6device21BpCameraDeviceSessionE"
    },
    {
     "referenced_type" : "_ZTIPN4aidl7android8hardware6common3fmq12MQDescriptorIaNS3_21SynchronizedReadWriteEEE#ODR:out/soong/.intermediates/hardware/interfaces/camera/device/aidl/android.hardware.camera.device-V1-ndk/android_vendor.33_x86_x86_64_static/obj/.intermediates/hardware/interfaces/camera/device/aidl/android.hardware.camera.device-V1-ndk-source/gen/android/hardware/camera/device/ICameraDeviceSession.sdump"
    }
   ],
   "return_type" : "_ZTIN3ndk13ScopedAStatusE",
   "source_file" : "out/soong/.intermediates/hardware/interfaces/camera/device/aidl/android.hardware.camera.device-V1-ndk-source/gen/include/aidl/android/hardware/camera/device/BpCameraDeviceSession.h"
  },
  {
   "function_name" : "aidl::android::hardware::camera::device::BpCameraDeviceSession::constructDefaultRequestSettings",
   "linker_set_key" : "_ZN4aidl7android8hardware6camera6device21BpCameraDeviceSession31constructDefaultRequestSettingsENS3_15RequestTemplateEPNS3_14CameraMetadataE",
   "parameters" :
   [
    {
     "is_this_ptr" : true,
     "referenced_type" : "_ZTIPN4aidl7android8hardware6camera6device21BpCameraDeviceSessionE"
    },
    {
     "referenced_type" : "_ZTIN4aidl7android8hardware6camera6device15RequestTemplateE"
    },
    {
     "referenced_type" : "_ZTIPN4aidl7android8hardware6camera6device14CameraMetadataE"
    }
   ],
   "return_type" : "_ZTIN3ndk13ScopedAStatusE",
   "source_file" : "out/soong/.intermediates/hardware/interfaces/camera/device/aidl/android.hardware.camera.device-V1-ndk-source/gen/include/aidl/android/hardware/camera/device/BpCameraDeviceSession.h"
  },
  {
   "function_name" : "aidl::android::hardware::camera::device::BpCameraDeviceSession::close",
   "linker_set_key" : "_ZN4aidl7android8hardware6camera6device21BpCameraDeviceSession5closeEv",
   "parameters" :
   [
    {
     "is_this_ptr" : true,
     "referenced_type" : "_ZTIPN4aidl7android8hardware6camera6device21BpCameraDeviceSessionE"
    }
   ],
   "return_type" : "_ZTIN3ndk13ScopedAStatusE",
   "source_file" : "out/soong/.intermediates/hardware/interfaces/camera/device/aidl/android.hardware.camera.device-V1-ndk-source/gen/include/aidl/android/hardware/camera/device/BpCameraDeviceSession.h"
  },
  {
   "function_name" : "aidl::android::hardware::camera::device::BpCameraDeviceSession::flush",
   "linker_set_key" : "_ZN4aidl7android8hardware6camera6device21BpCameraDeviceSession5flushEv",
   "parameters" :
   [
    {
     "is_this_ptr" : true,
     "referenced_type" : "_ZTIPN4aidl7android8hardware6camera6device21BpCameraDeviceSessionE"
    }
   ],
   "return_type" : "_ZTIN3ndk13ScopedAStatusE",
   "source_file" : "out/soong/.intermediates/hardware/interfaces/camera/device/aidl/android.hardware.camera.device-V1-ndk-source/gen/include/aidl/android/hardware/camera/device/BpCameraDeviceSession.h"
  },
  {
   "function_name" : "aidl::android::hardware::camera::device::BpCameraDeviceSession::BpCameraDeviceSession",
   "linker_set_key" : "_ZN4aidl7android8hardware6camera6device21BpCameraDeviceSessionC1ERKN3ndk10SpAIBinderE",
   "parameters" :
   [
    {
     "is_this_ptr" : true,
     "referenced_type" : "_ZTIPN4aidl7android8hardware6camera6device21BpCameraDeviceSessionE"
    },
    {
     "referenced_type" : "_ZTIRKN3ndk10SpAIBinderE"
    }
   ],
   "return_type" : "_ZTIv",
   "source_file" : "out/soong/.intermediates/hardware/interfaces/camera/device/aidl/android.hardware.camera.device-V1-ndk-source/gen/include/aidl/android/hardware/camera/device/BpCameraDeviceSession.h"
  },
  {
   "function_name" : "aidl::android::hardware::camera::device::BpCameraDeviceSession::BpCameraDeviceSession",
   "linker_set_key" : "_ZN4aidl7android8hardware6camera6device21BpCameraDeviceSessionC2ERKN3ndk10SpAIBinderE",
   "parameters" :
   [
    {
     "is_this_ptr" : true,
     "referenced_type" : "_ZTIPN4aidl7android8hardware6camera6device21BpCameraDeviceSessionE"
    },
    {
     "referenced_type" : "_ZTIRKN3ndk10SpAIBinderE"
    }
   ],
   "return_type" : "_ZTIv",
   "source_file" : "out/soong/.intermediates/hardware/interfaces/camera/device/aidl/android.hardware.camera.device-V1-ndk-source/gen/include/aidl/android/hardware/camera/device/BpCameraDeviceSession.h"
  },
  {
   "function_name" : "aidl::android::hardware::camera::device::BpCameraDeviceSession::~BpCameraDeviceSession",
   "linker_set_key" : "_ZN4aidl7android8hardware6camera6device21BpCameraDeviceSessionD0Ev",
   "parameters" :
   [
    {
     "is_this_ptr" : true,
     "referenced_type" : "_ZTIPN4aidl7android8hardware6camera6device21BpCameraDeviceSessionE"
    }
   ],
   "return_type" : "_ZTIv",
   "source_file" : "out/soong/.intermediates/hardware/interfaces/camera/device/aidl/android.hardware.camera.device-V1-ndk-source/gen/include/aidl/android/hardware/camera/device/BpCameraDeviceSession.h"
  },
  {
   "function_name" : "aidl::android::hardware::camera::device::BpCameraDeviceSession::~BpCameraDeviceSession",
   "linker_set_key" : "_ZN4aidl7android8hardware6camera6device21BpCameraDeviceSessionD1Ev",
   "parameters" :
   [
    {
     "is_this_ptr" : true,
     "referenced_type" : "_ZTIPN4aidl7android8hardware6camera6device21BpCameraDeviceSessionE"
    }
   ],
   "return_type" : "_ZTIv",
   "source_file" : "out/soong/.intermediates/hardware/interfaces/camera/device/aidl/android.hardware.camera.device-V1-ndk-source/gen/include/aidl/android/hardware/camera/device/BpCameraDeviceSession.h"
  },
  {
   "function_name" : "aidl::android::hardware::camera::device::BpCameraDeviceSession::~BpCameraDeviceSession",
   "linker_set_key" : "_ZN4aidl7android8hardware6camera6device21BpCameraDeviceSessionD2Ev",
   "parameters" :
   [
    {
     "is_this_ptr" : true,
     "referenced_type" : "_ZTIPN4aidl7android8hardware6camera6device21BpCameraDeviceSessionE"
    }
   ],
   "return_type" : "_ZTIv",
   "source_file" : "out/soong/.intermediates/hardware/interfaces/camera/device/aidl/android.hardware.camera.device-V1-ndk-source/gen/include/aidl/android/hardware/camera/device/BpCameraDeviceSession.h"
  },
  {
   "function_name" : "aidl::android::hardware::camera::device::ICameraDeviceCallback::fromBinder",
   "linker_set_key" : "_ZN4aidl7android8hardware6camera6device21ICameraDeviceCallback10fromBinderERKN3ndk10SpAIBinderE",
   "parameters" :
   [
    {
     "referenced_type" : "_ZTIRKN3ndk10SpAIBinderE"
    }
   ],
   "return_type" : "_ZTINSt3__110shared_ptrIN4aidl7android8hardware6camera6device21ICameraDeviceCallbackEEE",
   "source_file" : "out/soong/.intermediates/hardware/interfaces/camera/device/aidl/android.hardware.camera.device-V1-ndk-source/gen/include/aidl/android/hardware/camera/device/ICameraDeviceCallback.h"
  },
  {
   "function_name" : "aidl::android::hardware::camera::device::ICameraDeviceCallback::writeToParcel",
   "linker_set_key" : "_ZN4aidl7android8hardware6camera6device21ICameraDeviceCallback13writeToParcelEP7AParcelRKNSt3__110shared_ptrIS4_EE",
   "parameters" :
   [
    {
     "referenced_type" : "_ZTIP7AParcel"
    },
    {
     "referenced_type" : "_ZTIRKNSt3__110shared_ptrIN4aidl7android8hardware6camera6device21ICameraDeviceCallbackEEE"
    }
   ],
   "return_type" : "_ZTIi",
   "source_file" : "out/soong/.intermediates/hardware/interfaces/camera/device/aidl/android.hardware.camera.device-V1-ndk-source/gen/include/aidl/android/hardware/camera/device/ICameraDeviceCallback.h"
  },
  {
   "function_name" : "aidl::android::hardware::camera::device::ICameraDeviceCallback::getDefaultImpl",
   "linker_set_key" : "_ZN4aidl7android8hardware6camera6device21ICameraDeviceCallback14getDefaultImplEv",
   "return_type" : "_ZTIRKNSt3__110shared_ptrIN4aidl7android8hardware6camera6device21ICameraDeviceCallbackEEE",
   "source_file" : "out/soong/.intermediates/hardware/interfaces/camera/device/aidl/android.hardware.camera.device-V1-ndk-source/gen/include/aidl/android/hardware/camera/device/ICameraDeviceCallback.h"
  },
  {
   "function_name" : "aidl::android::hardware::camera::device::ICameraDeviceCallback::readFromParcel",
   "linker_set_key" : "_ZN4aidl7android8hardware6camera6device21ICameraDeviceCallback14readFromParcelEPK7AParcelPNSt3__110shared_ptrIS4_EE",
   "parameters" :
   [
    {
     "referenced_type" : "_ZTIPK7AParcel"
    },
    {
     "referenced_type" : "_ZTIPNSt3__110shared_ptrIN4aidl7android8hardware6camera6device21ICameraDeviceCallbackEEE"
    }
   ],
   "return_type" : "_ZTIi",
   "source_file" : "out/soong/.intermediates/hardware/interfaces/camera/device/aidl/android.hardware.camera.device-V1-ndk-source/gen/include/aidl/android/hardware/camera/device/ICameraDeviceCallback.h"
  },
  {
   "function_name" : "aidl::android::hardware::camera::device::ICameraDeviceCallback::setDefaultImpl",
   "linker_set_key" : "_ZN4aidl7android8hardware6camera6device21ICameraDeviceCallback14setDefaultImplERKNSt3__110shared_ptrIS4_EE",
   "parameters" :
   [
    {
     "referenced_type" : "_ZTIRKNSt3__110shared_ptrIN4aidl7android8hardware6camera6device21ICameraDeviceCallbackEEE"
    }
   ],
   "return_type" : "_ZTIb",
   "source_file" : "out/soong/.intermediates/hardware/interfaces/camera/device/aidl/android.hardware.camera.device-V1-ndk-source/gen/include/aidl/android/hardware/camera/device/ICameraDeviceCallback.h"
  },
  {
   "function_name" : "aidl::android::hardware::camera::device::ICameraDeviceCallback::ICameraDeviceCallback",
   "linker_set_key" : "_ZN4aidl7android8hardware6camera6device21ICameraDeviceCallbackC2Ev",
   "parameters" :
   [
    {
     "is_this_ptr" : true,
     "referenced_type" : "_ZTIPN4aidl7android8hardware6camera6device21ICameraDeviceCallbackE"
    }
   ],
   "return_type" : "_ZTIv",
   "source_file" : "out/soong/.intermediates/hardware/interfaces/camera/device/aidl/android.hardware.camera.device-V1-ndk-source/gen/include/aidl/android/hardware/camera/device/ICameraDeviceCallback.h"
  },
  {
   "function_name" : "aidl::android::hardware::camera::device::ICameraDeviceCallback::~ICameraDeviceCallback",
   "linker_set_key" : "_ZN4aidl7android8hardware6camera6device21ICameraDeviceCallbackD0Ev",
   "parameters" :
   [
    {
     "is_this_ptr" : true,
     "referenced_type" : "_ZTIPN4aidl7android8hardware6camera6device21ICameraDeviceCallbackE"
    }
   ],
   "return_type" : "_ZTIv",
   "source_file" : "out/soong/.intermediates/hardware/interfaces/camera/device/aidl/android.hardware.camera.device-V1-ndk-source/gen/include/aidl/android/hardware/camera/device/ICameraDeviceCallback.h"
  },
  {
   "function_name" : "aidl::android::hardware::camera::device::ICameraDeviceCallback::~ICameraDeviceCallback",
   "linker_set_key" : "_ZN4aidl7android8hardware6camera6device21ICameraDeviceCallbackD1Ev",
   "parameters" :
   [
    {
     "is_this_ptr" : true,
     "referenced_type" : "_ZTIPN4aidl7android8hardware6camera6device21ICameraDeviceCallbackE"
    }
   ],
   "return_type" : "_ZTIv",
   "source_file" : "out/soong/.intermediates/hardware/interfaces/camera/device/aidl/android.hardware.camera.device-V1-ndk-source/gen/include/aidl/android/hardware/camera/device/ICameraDeviceCallback.h"
  },
  {
   "function_name" : "aidl::android::hardware::camera::device::ICameraDeviceCallback::~ICameraDeviceCallback",
   "linker_set_key" : "_ZN4aidl7android8hardware6camera6device21ICameraDeviceCallbackD2Ev",
   "parameters" :
   [
    {
     "is_this_ptr" : true,
     "referenced_type" : "_ZTIPN4aidl7android8hardware6camera6device21ICameraDeviceCallbackE"
    }
   ],
   "return_type" : "_ZTIv",
   "source_file" : "out/soong/.intermediates/hardware/interfaces/camera/device/aidl/android.hardware.camera.device-V1-ndk-source/gen/include/aidl/android/hardware/camera/device/ICameraDeviceCallback.h"
  },
  {
   "function_name" : "aidl::android::hardware::camera::device::ICameraOfflineSession::fromBinder",
   "linker_set_key" : "_ZN4aidl7android8hardware6camera6device21ICameraOfflineSession10fromBinderERKN3ndk10SpAIBinderE",
   "parameters" :
   [
    {
     "referenced_type" : "_ZTIRKN3ndk10SpAIBinderE"
    }
   ],
   "return_type" : "_ZTINSt3__110shared_ptrIN4aidl7android8hardware6camera6device21ICameraOfflineSessionEEE",
   "source_file" : "out/soong/.intermediates/hardware/interfaces/camera/device/aidl/android.hardware.camera.device-V1-ndk-source/gen/include/aidl/android/hardware/camera/device/ICameraOfflineSession.h"
  },
  {
   "function_name" : "aidl::android::hardware::camera::device::ICameraOfflineSession::writeToParcel",
   "linker_set_key" : "_ZN4aidl7android8hardware6camera6device21ICameraOfflineSession13writeToParcelEP7AParcelRKNSt3__110shared_ptrIS4_EE",
   "parameters" :
   [
    {
     "referenced_type" : "_ZTIP7AParcel"
    },
    {
     "referenced_type" : "_ZTIRKNSt3__110shared_ptrIN4aidl7android8hardware6camera6device21ICameraOfflineSessionEEE"
    }
   ],
   "return_type" : "_ZTIi",
   "source_file" : "out/soong/.intermediates/hardware/interfaces/camera/device/aidl/android.hardware.camera.device-V1-ndk-source/gen/include/aidl/android/hardware/camera/device/ICameraOfflineSession.h"
  },
  {
   "function_name" : "aidl::android::hardware::camera::device::ICameraOfflineSession::getDefaultImpl",
   "linker_set_key" : "_ZN4aidl7android8hardware6camera6device21ICameraOfflineSession14getDefaultImplEv",
   "return_type" : "_ZTIRKNSt3__110shared_ptrIN4aidl7android8hardware6camera6device21ICameraOfflineSessionEEE",
   "source_file" : "out/soong/.intermediates/hardware/interfaces/camera/device/aidl/android.hardware.camera.device-V1-ndk-source/gen/include/aidl/android/hardware/camera/device/ICameraOfflineSession.h"
  },
  {
   "function_name" : "aidl::android::hardware::camera::device::ICameraOfflineSession::readFromParcel",
   "linker_set_key" : "_ZN4aidl7android8hardware6camera6device21ICameraOfflineSession14readFromParcelEPK7AParcelPNSt3__110shared_ptrIS4_EE",
   "parameters" :
   [
    {
     "referenced_type" : "_ZTIPK7AParcel"
    },
    {
     "referenced_type" : "_ZTIPNSt3__110shared_ptrIN4aidl7android8hardware6camera6device21ICameraOfflineSessionEEE"
    }
   ],
   "return_type" : "_ZTIi",
   "source_file" : "out/soong/.intermediates/hardware/interfaces/camera/device/aidl/android.hardware.camera.device-V1-ndk-source/gen/include/aidl/android/hardware/camera/device/ICameraOfflineSession.h"
  },
  {
   "function_name" : "aidl::android::hardware::camera::device::ICameraOfflineSession::setDefaultImpl",
   "linker_set_key" : "_ZN4aidl7android8hardware6camera6device21ICameraOfflineSession14setDefaultImplERKNSt3__110shared_ptrIS4_EE",
   "parameters" :
   [
    {
     "referenced_type" : "_ZTIRKNSt3__110shared_ptrIN4aidl7android8hardware6camera6device21ICameraOfflineSessionEEE"
    }
   ],
   "return_type" : "_ZTIb",
   "source_file" : "out/soong/.intermediates/hardware/interfaces/camera/device/aidl/android.hardware.camera.device-V1-ndk-source/gen/include/aidl/android/hardware/camera/device/ICameraOfflineSession.h"
  },
  {
   "function_name" : "aidl::android::hardware::camera::device::ICameraOfflineSession::ICameraOfflineSession",
   "linker_set_key" : "_ZN4aidl7android8hardware6camera6device21ICameraOfflineSessionC2Ev",
   "parameters" :
   [
    {
     "is_this_ptr" : true,
     "referenced_type" : "_ZTIPN4aidl7android8hardware6camera6device21ICameraOfflineSessionE"
    }
   ],
   "return_type" : "_ZTIv",
   "source_file" : "out/soong/.intermediates/hardware/interfaces/camera/device/aidl/android.hardware.camera.device-V1-ndk-source/gen/include/aidl/android/hardware/camera/device/ICameraOfflineSession.h"
  },
  {
   "function_name" : "aidl::android::hardware::camera::device::ICameraOfflineSession::~ICameraOfflineSession",
   "linker_set_key" : "_ZN4aidl7android8hardware6camera6device21ICameraOfflineSessionD0Ev",
   "parameters" :
   [
    {
     "is_this_ptr" : true,
     "referenced_type" : "_ZTIPN4aidl7android8hardware6camera6device21ICameraOfflineSessionE"
    }
   ],
   "return_type" : "_ZTIv",
   "source_file" : "out/soong/.intermediates/hardware/interfaces/camera/device/aidl/android.hardware.camera.device-V1-ndk-source/gen/include/aidl/android/hardware/camera/device/ICameraOfflineSession.h"
  },
  {
   "function_name" : "aidl::android::hardware::camera::device::ICameraOfflineSession::~ICameraOfflineSession",
   "linker_set_key" : "_ZN4aidl7android8hardware6camera6device21ICameraOfflineSessionD1Ev",
   "parameters" :
   [
    {
     "is_this_ptr" : true,
     "referenced_type" : "_ZTIPN4aidl7android8hardware6camera6device21ICameraOfflineSessionE"
    }
   ],
   "return_type" : "_ZTIv",
   "source_file" : "out/soong/.intermediates/hardware/interfaces/camera/device/aidl/android.hardware.camera.device-V1-ndk-source/gen/include/aidl/android/hardware/camera/device/ICameraOfflineSession.h"
  },
  {
   "function_name" : "aidl::android::hardware::camera::device::ICameraOfflineSession::~ICameraOfflineSession",
   "linker_set_key" : "_ZN4aidl7android8hardware6camera6device21ICameraOfflineSessionD2Ev",
   "parameters" :
   [
    {
     "is_this_ptr" : true,
     "referenced_type" : "_ZTIPN4aidl7android8hardware6camera6device21ICameraOfflineSessionE"
    }
   ],
   "return_type" : "_ZTIv",
   "source_file" : "out/soong/.intermediates/hardware/interfaces/camera/device/aidl/android.hardware.camera.device-V1-ndk-source/gen/include/aidl/android/hardware/camera/device/ICameraOfflineSession.h"
  },
  {
   "function_name" : "aidl::android::hardware::camera::device::PhysicalCameraSetting::readFromParcel",
   "linker_set_key" : "_ZN4aidl7android8hardware6camera6device21PhysicalCameraSetting14readFromParcelEPK7AParcel",
   "parameters" :
   [
    {
     "is_this_ptr" : true,
     "referenced_type" : "_ZTIPN4aidl7android8hardware6camera6device21PhysicalCameraSettingE"
    },
    {
     "referenced_type" : "_ZTIPK7AParcel"
    }
   ],
   "return_type" : "_ZTIi",
   "source_file" : "out/soong/.intermediates/hardware/interfaces/camera/device/aidl/android.hardware.camera.device-V1-ndk-source/gen/include/aidl/android/hardware/camera/device/PhysicalCameraSetting.h"
  },
  {
   "access" : "protected",
   "function_name" : "aidl::android::hardware::camera::device::BnCameraDeviceCallback::createBinder",
   "linker_set_key" : "_ZN4aidl7android8hardware6camera6device22BnCameraDeviceCallback12createBinderEv",
   "parameters" :
   [
    {
     "is_this_ptr" : true,
     "referenced_type" : "_ZTIPN4aidl7android8hardware6camera6device22BnCameraDeviceCallbackE"
    }
   ],
   "return_type" : "_ZTIN3ndk10SpAIBinderE",
   "source_file" : "out/soong/.intermediates/hardware/interfaces/camera/device/aidl/android.hardware.camera.device-V1-ndk-source/gen/include/aidl/android/hardware/camera/device/BnCameraDeviceCallback.h"
  },
  {
   "function_name" : "aidl::android::hardware::camera::device::BnCameraDeviceCallback::getInterfaceHash",
   "linker_set_key" : "_ZN4aidl7android8hardware6camera6device22BnCameraDeviceCallback16getInterfaceHashEPNSt3__112basic_stringIcNS5_11char_traitsIcEENS5_9allocatorIcEEEE",
   "parameters" :
   [
    {
     "is_this_ptr" : true,
     "referenced_type" : "_ZTIPN4aidl7android8hardware6camera6device22BnCameraDeviceCallbackE"
    },
    {
     "referenced_type" : "_ZTIPNSt3__112basic_stringIcNS_11char_traitsIcEENS_9allocatorIcEEEE"
    }
   ],
   "return_type" : "_ZTIN3ndk13ScopedAStatusE",
   "source_file" : "out/soong/.intermediates/hardware/interfaces/camera/device/aidl/android.hardware.camera.device-V1-ndk-source/gen/include/aidl/android/hardware/camera/device/BnCameraDeviceCallback.h"
  },
  {
   "function_name" : "aidl::android::hardware::camera::device::BnCameraDeviceCallback::getInterfaceVersion",
   "linker_set_key" : "_ZN4aidl7android8hardware6camera6device22BnCameraDeviceCallback19getInterfaceVersionEPi",
   "parameters" :
   [
    {
     "is_this_ptr" : true,
     "referenced_type" : "_ZTIPN4aidl7android8hardware6camera6device22BnCameraDeviceCallbackE"
    },
    {
     "referenced_type" : "_ZTIPi"
    }
   ],
   "return_type" : "_ZTIN3ndk13ScopedAStatusE",
   "source_file" : "out/soong/.intermediates/hardware/interfaces/camera/device/aidl/android.hardware.camera.device-V1-ndk-source/gen/include/aidl/android/hardware/camera/device/BnCameraDeviceCallback.h"
  },
  {
   "function_name" : "aidl::android::hardware::camera::device::BnCameraDeviceCallback::BnCameraDeviceCallback",
   "linker_set_key" : "_ZN4aidl7android8hardware6camera6device22BnCameraDeviceCallbackC2Ev",
   "parameters" :
   [
    {
     "is_this_ptr" : true,
     "referenced_type" : "_ZTIPN4aidl7android8hardware6camera6device22BnCameraDeviceCallbackE"
    }
   ],
   "return_type" : "_ZTIv",
   "source_file" : "out/soong/.intermediates/hardware/interfaces/camera/device/aidl/android.hardware.camera.device-V1-ndk-source/gen/include/aidl/android/hardware/camera/device/BnCameraDeviceCallback.h"
  },
  {
   "function_name" : "aidl::android::hardware::camera::device::BnCameraDeviceCallback::~BnCameraDeviceCallback",
   "linker_set_key" : "_ZN4aidl7android8hardware6camera6device22BnCameraDeviceCallbackD0Ev",
   "parameters" :
   [
    {
     "is_this_ptr" : true,
     "referenced_type" : "_ZTIPN4aidl7android8hardware6camera6device22BnCameraDeviceCallbackE"
    }
   ],
   "return_type" : "_ZTIv",
   "source_file" : "out/soong/.intermediates/hardware/interfaces/camera/device/aidl/android.hardware.camera.device-V1-ndk-source/gen/include/aidl/android/hardware/camera/device/BnCameraDeviceCallback.h"
  },
  {
   "function_name" : "aidl::android::hardware::camera::device::BnCameraDeviceCallback::~BnCameraDeviceCallback",
   "linker_set_key" : "_ZN4aidl7android8hardware6camera6device22BnCameraDeviceCallbackD1Ev",
   "parameters" :
   [
    {
     "is_this_ptr" : true,
     "referenced_type" : "_ZTIPN4aidl7android8hardware6camera6device22BnCameraDeviceCallbackE"
    }
   ],
   "return_type" : "_ZTIv",
   "source_file" : "out/soong/.intermediates/hardware/interfaces/camera/device/aidl/android.hardware.camera.device-V1-ndk-source/gen/include/aidl/android/hardware/camera/device/BnCameraDeviceCallback.h"
  },
  {
   "function_name" : "aidl::android::hardware::camera::device::BnCameraDeviceCallback::~BnCameraDeviceCallback",
   "linker_set_key" : "_ZN4aidl7android8hardware6camera6device22BnCameraDeviceCallbackD2Ev",
   "parameters" :
   [
    {
     "is_this_ptr" : true,
     "referenced_type" : "_ZTIPN4aidl7android8hardware6camera6device22BnCameraDeviceCallbackE"
    }
   ],
   "return_type" : "_ZTIv",
   "source_file" : "out/soong/.intermediates/hardware/interfaces/camera/device/aidl/android.hardware.camera.device-V1-ndk-source/gen/include/aidl/android/hardware/camera/device/BnCameraDeviceCallback.h"
  },
  {
   "access" : "protected",
   "function_name" : "aidl::android::hardware::camera::device::BnCameraOfflineSession::createBinder",
   "linker_set_key" : "_ZN4aidl7android8hardware6camera6device22BnCameraOfflineSession12createBinderEv",
   "parameters" :
   [
    {
     "is_this_ptr" : true,
     "referenced_type" : "_ZTIPN4aidl7android8hardware6camera6device22BnCameraOfflineSessionE"
    }
   ],
   "return_type" : "_ZTIN3ndk10SpAIBinderE",
   "source_file" : "out/soong/.intermediates/hardware/interfaces/camera/device/aidl/android.hardware.camera.device-V1-ndk-source/gen/include/aidl/android/hardware/camera/device/BnCameraOfflineSession.h"
  },
  {
   "function_name" : "aidl::android::hardware::camera::device::BnCameraOfflineSession::getInterfaceHash",
   "linker_set_key" : "_ZN4aidl7android8hardware6camera6device22BnCameraOfflineSession16getInterfaceHashEPNSt3__112basic_stringIcNS5_11char_traitsIcEENS5_9allocatorIcEEEE",
   "parameters" :
   [
    {
     "is_this_ptr" : true,
     "referenced_type" : "_ZTIPN4aidl7android8hardware6camera6device22BnCameraOfflineSessionE"
    },
    {
     "referenced_type" : "_ZTIPNSt3__112basic_stringIcNS_11char_traitsIcEENS_9allocatorIcEEEE"
    }
   ],
   "return_type" : "_ZTIN3ndk13ScopedAStatusE",
   "source_file" : "out/soong/.intermediates/hardware/interfaces/camera/device/aidl/android.hardware.camera.device-V1-ndk-source/gen/include/aidl/android/hardware/camera/device/BnCameraOfflineSession.h"
  },
  {
   "function_name" : "aidl::android::hardware::camera::device::BnCameraOfflineSession::getInterfaceVersion",
   "linker_set_key" : "_ZN4aidl7android8hardware6camera6device22BnCameraOfflineSession19getInterfaceVersionEPi",
   "parameters" :
   [
    {
     "is_this_ptr" : true,
     "referenced_type" : "_ZTIPN4aidl7android8hardware6camera6device22BnCameraOfflineSessionE"
    },
    {
     "referenced_type" : "_ZTIPi"
    }
   ],
   "return_type" : "_ZTIN3ndk13ScopedAStatusE",
   "source_file" : "out/soong/.intermediates/hardware/interfaces/camera/device/aidl/android.hardware.camera.device-V1-ndk-source/gen/include/aidl/android/hardware/camera/device/BnCameraOfflineSession.h"
  },
  {
   "function_name" : "aidl::android::hardware::camera::device::BnCameraOfflineSession::BnCameraOfflineSession",
   "linker_set_key" : "_ZN4aidl7android8hardware6camera6device22BnCameraOfflineSessionC2Ev",
   "parameters" :
   [
    {
     "is_this_ptr" : true,
     "referenced_type" : "_ZTIPN4aidl7android8hardware6camera6device22BnCameraOfflineSessionE"
    }
   ],
   "return_type" : "_ZTIv",
   "source_file" : "out/soong/.intermediates/hardware/interfaces/camera/device/aidl/android.hardware.camera.device-V1-ndk-source/gen/include/aidl/android/hardware/camera/device/BnCameraOfflineSession.h"
  },
  {
   "function_name" : "aidl::android::hardware::camera::device::BnCameraOfflineSession::~BnCameraOfflineSession",
   "linker_set_key" : "_ZN4aidl7android8hardware6camera6device22BnCameraOfflineSessionD0Ev",
   "parameters" :
   [
    {
     "is_this_ptr" : true,
     "referenced_type" : "_ZTIPN4aidl7android8hardware6camera6device22BnCameraOfflineSessionE"
    }
   ],
   "return_type" : "_ZTIv",
   "source_file" : "out/soong/.intermediates/hardware/interfaces/camera/device/aidl/android.hardware.camera.device-V1-ndk-source/gen/include/aidl/android/hardware/camera/device/BnCameraOfflineSession.h"
  },
  {
   "function_name" : "aidl::android::hardware::camera::device::BnCameraOfflineSession::~BnCameraOfflineSession",
   "linker_set_key" : "_ZN4aidl7android8hardware6camera6device22BnCameraOfflineSessionD1Ev",
   "parameters" :
   [
    {
     "is_this_ptr" : true,
     "referenced_type" : "_ZTIPN4aidl7android8hardware6camera6device22BnCameraOfflineSessionE"
    }
   ],
   "return_type" : "_ZTIv",
   "source_file" : "out/soong/.intermediates/hardware/interfaces/camera/device/aidl/android.hardware.camera.device-V1-ndk-source/gen/include/aidl/android/hardware/camera/device/BnCameraOfflineSession.h"
  },
  {
   "function_name" : "aidl::android::hardware::camera::device::BnCameraOfflineSession::~BnCameraOfflineSession",
   "linker_set_key" : "_ZN4aidl7android8hardware6camera6device22BnCameraOfflineSessionD2Ev",
   "parameters" :
   [
    {
     "is_this_ptr" : true,
     "referenced_type" : "_ZTIPN4aidl7android8hardware6camera6device22BnCameraOfflineSessionE"
    }
   ],
   "return_type" : "_ZTIv",
   "source_file" : "out/soong/.intermediates/hardware/interfaces/camera/device/aidl/android.hardware.camera.device-V1-ndk-source/gen/include/aidl/android/hardware/camera/device/BnCameraOfflineSession.h"
  },
  {
   "function_name" : "aidl::android::hardware::camera::device::BpCameraDeviceCallback::getInterfaceHash",
   "linker_set_key" : "_ZN4aidl7android8hardware6camera6device22BpCameraDeviceCallback16getInterfaceHashEPNSt3__112basic_stringIcNS5_11char_traitsIcEENS5_9allocatorIcEEEE",
   "parameters" :
   [
    {
     "is_this_ptr" : true,
     "referenced_type" : "_ZTIPN4aidl7android8hardware6camera6device22BpCameraDeviceCallbackE"
    },
    {
     "referenced_type" : "_ZTIPNSt3__112basic_stringIcNS_11char_traitsIcEENS_9allocatorIcEEEE"
    }
   ],
   "return_type" : "_ZTIN3ndk13ScopedAStatusE",
   "source_file" : "out/soong/.intermediates/hardware/interfaces/camera/device/aidl/android.hardware.camera.device-V1-ndk-source/gen/include/aidl/android/hardware/camera/device/BpCameraDeviceCallback.h"
  },
  {
   "function_name" : "aidl::android::hardware::camera::device::BpCameraDeviceCallback::getInterfaceVersion",
   "linker_set_key" : "_ZN4aidl7android8hardware6camera6device22BpCameraDeviceCallback19getInterfaceVersionEPi",
   "parameters" :
   [
    {
     "is_this_ptr" : true,
     "referenced_type" : "_ZTIPN4aidl7android8hardware6camera6device22BpCameraDeviceCallbackE"
    },
    {
     "referenced_type" : "_ZTIPi"
    }
   ],
   "return_type" : "_ZTIN3ndk13ScopedAStatusE",
   "source_file" : "out/soong/.intermediates/hardware/interfaces/camera/device/aidl/android.hardware.camera.device-V1-ndk-source/gen/include/aidl/android/hardware/camera/device/BpCameraDeviceCallback.h"
  },
  {
   "function_name" : "aidl::android::hardware::camera::device::BpCameraDeviceCallback::returnStreamBuffers",
   "linker_set_key" : "_ZN4aidl7android8hardware6camera6device22BpCameraDeviceCallback19returnStreamBuffersERKNSt3__16vectorINS3_12StreamBufferENS5_9allocatorIS7_EEEE",
   "parameters" :
   [
    {
     "is_this_ptr" : true,
     "referenced_type" : "_ZTIPN4aidl7android8hardware6camera6device22BpCameraDeviceCallbackE"
    },
    {
     "referenced_type" : "_ZTIRKNSt3__16vectorIN4aidl7android8hardware6camera6device12StreamBufferENS_9allocatorIS6_EEEE"
    }
   ],
   "return_type" : "_ZTIN3ndk13ScopedAStatusE",
   "source_file" : "out/soong/.intermediates/hardware/interfaces/camera/device/aidl/android.hardware.camera.device-V1-ndk-source/gen/include/aidl/android/hardware/camera/device/BpCameraDeviceCallback.h"
  },
  {
   "function_name" : "aidl::android::hardware::camera::device::BpCameraDeviceCallback::processCaptureResult",
   "linker_set_key" : "_ZN4aidl7android8hardware6camera6device22BpCameraDeviceCallback20processCaptureResultERKNSt3__16vectorINS3_13CaptureResultENS5_9allocatorIS7_EEEE",
   "parameters" :
   [
    {
     "is_this_ptr" : true,
     "referenced_type" : "_ZTIPN4aidl7android8hardware6camera6device22BpCameraDeviceCallbackE"
    },
    {
     "referenced_type" : "_ZTIRKNSt3__16vectorIN4aidl7android8hardware6camera6device13CaptureResultENS_9allocatorIS6_EEEE"
    }
   ],
   "return_type" : "_ZTIN3ndk13ScopedAStatusE",
   "source_file" : "out/soong/.intermediates/hardware/interfaces/camera/device/aidl/android.hardware.camera.device-V1-ndk-source/gen/include/aidl/android/hardware/camera/device/BpCameraDeviceCallback.h"
  },
  {
   "function_name" : "aidl::android::hardware::camera::device::BpCameraDeviceCallback::requestStreamBuffers",
   "linker_set_key" : "_ZN4aidl7android8hardware6camera6device22BpCameraDeviceCallback20requestStreamBuffersERKNSt3__16vectorINS3_13BufferRequestENS5_9allocatorIS7_EEEEPNS6_INS3_15StreamBufferRetENS8_ISD_EEEEPNS3_19BufferRequestStatusE",
   "parameters" :
   [
    {
     "is_this_ptr" : true,
     "referenced_type" : "_ZTIPN4aidl7android8hardware6camera6device22BpCameraDeviceCallbackE"
    },
    {
     "referenced_type" : "_ZTIRKNSt3__16vectorIN4aidl7android8hardware6camera6device13BufferRequestENS_9allocatorIS6_EEEE"
    },
    {
     "referenced_type" : "_ZTIPNSt3__16vectorIN4aidl7android8hardware6camera6device15StreamBufferRetENS_9allocatorIS6_EEEE"
    },
    {
     "referenced_type" : "_ZTIPN4aidl7android8hardware6camera6device19BufferRequestStatusE"
    }
   ],
   "return_type" : "_ZTIN3ndk13ScopedAStatusE",
   "source_file" : "out/soong/.intermediates/hardware/interfaces/camera/device/aidl/android.hardware.camera.device-V1-ndk-source/gen/include/aidl/android/hardware/camera/device/BpCameraDeviceCallback.h"
  },
  {
   "function_name" : "aidl::android::hardware::camera::device::BpCameraDeviceCallback::notify",
   "linker_set_key" : "_ZN4aidl7android8hardware6camera6device22BpCameraDeviceCallback6notifyERKNSt3__16vectorINS3_9NotifyMsgENS5_9allocatorIS7_EEEE",
   "parameters" :
   [
    {
     "is_this_ptr" : true,
     "referenced_type" : "_ZTIPN4aidl7android8hardware6camera6device22BpCameraDeviceCallbackE"
    },
    {
     "referenced_type" : "_ZTIRKNSt3__16vectorIN4aidl7android8hardware6camera6device9NotifyMsgENS_9allocatorIS6_EEEE"
    }
   ],
   "return_type" : "_ZTIN3ndk13ScopedAStatusE",
   "source_file" : "out/soong/.intermediates/hardware/interfaces/camera/device/aidl/android.hardware.camera.device-V1-ndk-source/gen/include/aidl/android/hardware/camera/device/BpCameraDeviceCallback.h"
  },
  {
   "function_name" : "aidl::android::hardware::camera::device::BpCameraDeviceCallback::BpCameraDeviceCallback",
   "linker_set_key" : "_ZN4aidl7android8hardware6camera6device22BpCameraDeviceCallbackC1ERKN3ndk10SpAIBinderE",
   "parameters" :
   [
    {
     "is_this_ptr" : true,
     "referenced_type" : "_ZTIPN4aidl7android8hardware6camera6device22BpCameraDeviceCallbackE"
    },
    {
     "referenced_type" : "_ZTIRKN3ndk10SpAIBinderE"
    }
   ],
   "return_type" : "_ZTIv",
   "source_file" : "out/soong/.intermediates/hardware/interfaces/camera/device/aidl/android.hardware.camera.device-V1-ndk-source/gen/include/aidl/android/hardware/camera/device/BpCameraDeviceCallback.h"
  },
  {
   "function_name" : "aidl::android::hardware::camera::device::BpCameraDeviceCallback::BpCameraDeviceCallback",
   "linker_set_key" : "_ZN4aidl7android8hardware6camera6device22BpCameraDeviceCallbackC2ERKN3ndk10SpAIBinderE",
   "parameters" :
   [
    {
     "is_this_ptr" : true,
     "referenced_type" : "_ZTIPN4aidl7android8hardware6camera6device22BpCameraDeviceCallbackE"
    },
    {
     "referenced_type" : "_ZTIRKN3ndk10SpAIBinderE"
    }
   ],
   "return_type" : "_ZTIv",
   "source_file" : "out/soong/.intermediates/hardware/interfaces/camera/device/aidl/android.hardware.camera.device-V1-ndk-source/gen/include/aidl/android/hardware/camera/device/BpCameraDeviceCallback.h"
  },
  {
   "function_name" : "aidl::android::hardware::camera::device::BpCameraDeviceCallback::~BpCameraDeviceCallback",
   "linker_set_key" : "_ZN4aidl7android8hardware6camera6device22BpCameraDeviceCallbackD0Ev",
   "parameters" :
   [
    {
     "is_this_ptr" : true,
     "referenced_type" : "_ZTIPN4aidl7android8hardware6camera6device22BpCameraDeviceCallbackE"
    }
   ],
   "return_type" : "_ZTIv",
   "source_file" : "out/soong/.intermediates/hardware/interfaces/camera/device/aidl/android.hardware.camera.device-V1-ndk-source/gen/include/aidl/android/hardware/camera/device/BpCameraDeviceCallback.h"
  },
  {
   "function_name" : "aidl::android::hardware::camera::device::BpCameraDeviceCallback::~BpCameraDeviceCallback",
   "linker_set_key" : "_ZN4aidl7android8hardware6camera6device22BpCameraDeviceCallbackD1Ev",
   "parameters" :
   [
    {
     "is_this_ptr" : true,
     "referenced_type" : "_ZTIPN4aidl7android8hardware6camera6device22BpCameraDeviceCallbackE"
    }
   ],
   "return_type" : "_ZTIv",
   "source_file" : "out/soong/.intermediates/hardware/interfaces/camera/device/aidl/android.hardware.camera.device-V1-ndk-source/gen/include/aidl/android/hardware/camera/device/BpCameraDeviceCallback.h"
  },
  {
   "function_name" : "aidl::android::hardware::camera::device::BpCameraDeviceCallback::~BpCameraDeviceCallback",
   "linker_set_key" : "_ZN4aidl7android8hardware6camera6device22BpCameraDeviceCallbackD2Ev",
   "parameters" :
   [
    {
     "is_this_ptr" : true,
     "referenced_type" : "_ZTIPN4aidl7android8hardware6camera6device22BpCameraDeviceCallbackE"
    }
   ],
   "return_type" : "_ZTIv",
   "source_file" : "out/soong/.intermediates/hardware/interfaces/camera/device/aidl/android.hardware.camera.device-V1-ndk-source/gen/include/aidl/android/hardware/camera/device/BpCameraDeviceCallback.h"
  },
  {
   "function_name" : "aidl::android::hardware::camera::device::BpCameraOfflineSession::setCallback",
   "linker_set_key" : "_ZN4aidl7android8hardware6camera6device22BpCameraOfflineSession11setCallbackERKNSt3__110shared_ptrINS3_21ICameraDeviceCallbackEEE",
   "parameters" :
   [
    {
     "is_this_ptr" : true,
     "referenced_type" : "_ZTIPN4aidl7android8hardware6camera6device22BpCameraOfflineSessionE"
    },
    {
     "referenced_type" : "_ZTIRKNSt3__110shared_ptrIN4aidl7android8hardware6camera6device21ICameraDeviceCallbackEEE"
    }
   ],
   "return_type" : "_ZTIN3ndk13ScopedAStatusE",
   "source_file" : "out/soong/.intermediates/hardware/interfaces/camera/device/aidl/android.hardware.camera.device-V1-ndk-source/gen/include/aidl/android/hardware/camera/device/BpCameraOfflineSession.h"
  },
  {
   "function_name" : "aidl::android::hardware::camera::device::BpCameraOfflineSession::getInterfaceHash",
   "linker_set_key" : "_ZN4aidl7android8hardware6camera6device22BpCameraOfflineSession16getInterfaceHashEPNSt3__112basic_stringIcNS5_11char_traitsIcEENS5_9allocatorIcEEEE",
   "parameters" :
   [
    {
     "is_this_ptr" : true,
     "referenced_type" : "_ZTIPN4aidl7android8hardware6camera6device22BpCameraOfflineSessionE"
    },
    {
     "referenced_type" : "_ZTIPNSt3__112basic_stringIcNS_11char_traitsIcEENS_9allocatorIcEEEE"
    }
   ],
   "return_type" : "_ZTIN3ndk13ScopedAStatusE",
   "source_file" : "out/soong/.intermediates/hardware/interfaces/camera/device/aidl/android.hardware.camera.device-V1-ndk-source/gen/include/aidl/android/hardware/camera/device/BpCameraOfflineSession.h"
  },
  {
   "function_name" : "aidl::android::hardware::camera::device::BpCameraOfflineSession::getInterfaceVersion",
   "linker_set_key" : "_ZN4aidl7android8hardware6camera6device22BpCameraOfflineSession19getInterfaceVersionEPi",
   "parameters" :
   [
    {
     "is_this_ptr" : true,
     "referenced_type" : "_ZTIPN4aidl7android8hardware6camera6device22BpCameraOfflineSessionE"
    },
    {
     "referenced_type" : "_ZTIPi"
    }
   ],
   "return_type" : "_ZTIN3ndk13ScopedAStatusE",
   "source_file" : "out/soong/.intermediates/hardware/interfaces/camera/device/aidl/android.hardware.camera.device-V1-ndk-source/gen/include/aidl/android/hardware/camera/device/BpCameraOfflineSession.h"
  },
  {
   "function_name" : "aidl::android::hardware::camera::device::BpCameraOfflineSession::getCaptureResultMetadataQueue",
   "linker_set_key" : "_ZN4aidl7android8hardware6camera6device22BpCameraOfflineSession29getCaptureResultMetadataQueueEPNS1_6common3fmq12MQDescriptorIaNS6_21SynchronizedReadWriteEEE",
   "parameters" :
   [
    {
     "is_this_ptr" : true,
     "referenced_type" : "_ZTIPN4aidl7android8hardware6camera6device22BpCameraOfflineSessionE"
    },
    {
     "referenced_type" : "_ZTIPN4aidl7android8hardware6common3fmq12MQDescriptorIaNS3_21SynchronizedReadWriteEEE#ODR:out/soong/.intermediates/hardware/interfaces/camera/device/aidl/android.hardware.camera.device-V1-ndk/android_vendor.33_x86_x86_64_static/obj/.intermediates/hardware/interfaces/camera/device/aidl/android.hardware.camera.device-V1-ndk-source/gen/android/hardware/camera/device/ICameraDeviceSession.sdump"
    }
   ],
   "return_type" : "_ZTIN3ndk13ScopedAStatusE",
   "source_file" : "out/soong/.intermediates/hardware/interfaces/camera/device/aidl/android.hardware.camera.device-V1-ndk-source/gen/include/aidl/android/hardware/camera/device/BpCameraOfflineSession.h"
  },
  {
   "function_name" : "aidl::android::hardware::camera::device::BpCameraOfflineSession::close",
   "linker_set_key" : "_ZN4aidl7android8hardware6camera6device22BpCameraOfflineSession5closeEv",
   "parameters" :
   [
    {
     "is_this_ptr" : true,
     "referenced_type" : "_ZTIPN4aidl7android8hardware6camera6device22BpCameraOfflineSessionE"
    }
   ],
   "return_type" : "_ZTIN3ndk13ScopedAStatusE",
   "source_file" : "out/soong/.intermediates/hardware/interfaces/camera/device/aidl/android.hardware.camera.device-V1-ndk-source/gen/include/aidl/android/hardware/camera/device/BpCameraOfflineSession.h"
  },
  {
   "function_name" : "aidl::android::hardware::camera::device::BpCameraOfflineSession::BpCameraOfflineSession",
   "linker_set_key" : "_ZN4aidl7android8hardware6camera6device22BpCameraOfflineSessionC1ERKN3ndk10SpAIBinderE",
   "parameters" :
   [
    {
     "is_this_ptr" : true,
     "referenced_type" : "_ZTIPN4aidl7android8hardware6camera6device22BpCameraOfflineSessionE"
    },
    {
     "referenced_type" : "_ZTIRKN3ndk10SpAIBinderE"
    }
   ],
   "return_type" : "_ZTIv",
   "source_file" : "out/soong/.intermediates/hardware/interfaces/camera/device/aidl/android.hardware.camera.device-V1-ndk-source/gen/include/aidl/android/hardware/camera/device/BpCameraOfflineSession.h"
  },
  {
   "function_name" : "aidl::android::hardware::camera::device::BpCameraOfflineSession::BpCameraOfflineSession",
   "linker_set_key" : "_ZN4aidl7android8hardware6camera6device22BpCameraOfflineSessionC2ERKN3ndk10SpAIBinderE",
   "parameters" :
   [
    {
     "is_this_ptr" : true,
     "referenced_type" : "_ZTIPN4aidl7android8hardware6camera6device22BpCameraOfflineSessionE"
    },
    {
     "referenced_type" : "_ZTIRKN3ndk10SpAIBinderE"
    }
   ],
   "return_type" : "_ZTIv",
   "source_file" : "out/soong/.intermediates/hardware/interfaces/camera/device/aidl/android.hardware.camera.device-V1-ndk-source/gen/include/aidl/android/hardware/camera/device/BpCameraOfflineSession.h"
  },
  {
   "function_name" : "aidl::android::hardware::camera::device::BpCameraOfflineSession::~BpCameraOfflineSession",
   "linker_set_key" : "_ZN4aidl7android8hardware6camera6device22BpCameraOfflineSessionD0Ev",
   "parameters" :
   [
    {
     "is_this_ptr" : true,
     "referenced_type" : "_ZTIPN4aidl7android8hardware6camera6device22BpCameraOfflineSessionE"
    }
   ],
   "return_type" : "_ZTIv",
   "source_file" : "out/soong/.intermediates/hardware/interfaces/camera/device/aidl/android.hardware.camera.device-V1-ndk-source/gen/include/aidl/android/hardware/camera/device/BpCameraOfflineSession.h"
  },
  {
   "function_name" : "aidl::android::hardware::camera::device::BpCameraOfflineSession::~BpCameraOfflineSession",
   "linker_set_key" : "_ZN4aidl7android8hardware6camera6device22BpCameraOfflineSessionD1Ev",
   "parameters" :
   [
    {
     "is_this_ptr" : true,
     "referenced_type" : "_ZTIPN4aidl7android8hardware6camera6device22BpCameraOfflineSessionE"
    }
   ],
   "return_type" : "_ZTIv",
   "source_file" : "out/soong/.intermediates/hardware/interfaces/camera/device/aidl/android.hardware.camera.device-V1-ndk-source/gen/include/aidl/android/hardware/camera/device/BpCameraOfflineSession.h"
  },
  {
   "function_name" : "aidl::android::hardware::camera::device::BpCameraOfflineSession::~BpCameraOfflineSession",
   "linker_set_key" : "_ZN4aidl7android8hardware6camera6device22BpCameraOfflineSessionD2Ev",
   "parameters" :
   [
    {
     "is_this_ptr" : true,
     "referenced_type" : "_ZTIPN4aidl7android8hardware6camera6device22BpCameraOfflineSessionE"
    }
   ],
   "return_type" : "_ZTIv",
   "source_file" : "out/soong/.intermediates/hardware/interfaces/camera/device/aidl/android.hardware.camera.device-V1-ndk-source/gen/include/aidl/android/hardware/camera/device/BpCameraOfflineSession.h"
  },
  {
   "function_name" : "aidl::android::hardware::camera::device::PhysicalCameraMetadata::readFromParcel",
   "linker_set_key" : "_ZN4aidl7android8hardware6camera6device22PhysicalCameraMetadata14readFromParcelEPK7AParcel",
   "parameters" :
   [
    {
     "is_this_ptr" : true,
     "referenced_type" : "_ZTIPN4aidl7android8hardware6camera6device22PhysicalCameraMetadataE"
    },
    {
     "referenced_type" : "_ZTIPK7AParcel"
    }
   ],
   "return_type" : "_ZTIi",
   "source_file" : "out/soong/.intermediates/hardware/interfaces/camera/device/aidl/android.hardware.camera.device-V1-ndk-source/gen/include/aidl/android/hardware/camera/device/PhysicalCameraMetadata.h"
  },
  {
   "function_name" : "aidl::android::hardware::camera::device::ICameraInjectionSession::fromBinder",
   "linker_set_key" : "_ZN4aidl7android8hardware6camera6device23ICameraInjectionSession10fromBinderERKN3ndk10SpAIBinderE",
   "parameters" :
   [
    {
     "referenced_type" : "_ZTIRKN3ndk10SpAIBinderE"
    }
   ],
   "return_type" : "_ZTINSt3__110shared_ptrIN4aidl7android8hardware6camera6device23ICameraInjectionSessionEEE",
   "source_file" : "out/soong/.intermediates/hardware/interfaces/camera/device/aidl/android.hardware.camera.device-V1-ndk-source/gen/include/aidl/android/hardware/camera/device/ICameraInjectionSession.h"
  },
  {
   "function_name" : "aidl::android::hardware::camera::device::ICameraInjectionSession::writeToParcel",
   "linker_set_key" : "_ZN4aidl7android8hardware6camera6device23ICameraInjectionSession13writeToParcelEP7AParcelRKNSt3__110shared_ptrIS4_EE",
   "parameters" :
   [
    {
     "referenced_type" : "_ZTIP7AParcel"
    },
    {
     "referenced_type" : "_ZTIRKNSt3__110shared_ptrIN4aidl7android8hardware6camera6device23ICameraInjectionSessionEEE"
    }
   ],
   "return_type" : "_ZTIi",
   "source_file" : "out/soong/.intermediates/hardware/interfaces/camera/device/aidl/android.hardware.camera.device-V1-ndk-source/gen/include/aidl/android/hardware/camera/device/ICameraInjectionSession.h"
  },
  {
   "function_name" : "aidl::android::hardware::camera::device::ICameraInjectionSession::getDefaultImpl",
   "linker_set_key" : "_ZN4aidl7android8hardware6camera6device23ICameraInjectionSession14getDefaultImplEv",
   "return_type" : "_ZTIRKNSt3__110shared_ptrIN4aidl7android8hardware6camera6device23ICameraInjectionSessionEEE",
   "source_file" : "out/soong/.intermediates/hardware/interfaces/camera/device/aidl/android.hardware.camera.device-V1-ndk-source/gen/include/aidl/android/hardware/camera/device/ICameraInjectionSession.h"
  },
  {
   "function_name" : "aidl::android::hardware::camera::device::ICameraInjectionSession::readFromParcel",
   "linker_set_key" : "_ZN4aidl7android8hardware6camera6device23ICameraInjectionSession14readFromParcelEPK7AParcelPNSt3__110shared_ptrIS4_EE",
   "parameters" :
   [
    {
     "referenced_type" : "_ZTIPK7AParcel"
    },
    {
     "referenced_type" : "_ZTIPNSt3__110shared_ptrIN4aidl7android8hardware6camera6device23ICameraInjectionSessionEEE"
    }
   ],
   "return_type" : "_ZTIi",
   "source_file" : "out/soong/.intermediates/hardware/interfaces/camera/device/aidl/android.hardware.camera.device-V1-ndk-source/gen/include/aidl/android/hardware/camera/device/ICameraInjectionSession.h"
  },
  {
   "function_name" : "aidl::android::hardware::camera::device::ICameraInjectionSession::setDefaultImpl",
   "linker_set_key" : "_ZN4aidl7android8hardware6camera6device23ICameraInjectionSession14setDefaultImplERKNSt3__110shared_ptrIS4_EE",
   "parameters" :
   [
    {
     "referenced_type" : "_ZTIRKNSt3__110shared_ptrIN4aidl7android8hardware6camera6device23ICameraInjectionSessionEEE"
    }
   ],
   "return_type" : "_ZTIb",
   "source_file" : "out/soong/.intermediates/hardware/interfaces/camera/device/aidl/android.hardware.camera.device-V1-ndk-source/gen/include/aidl/android/hardware/camera/device/ICameraInjectionSession.h"
  },
  {
   "function_name" : "aidl::android::hardware::camera::device::ICameraInjectionSession::ICameraInjectionSession",
   "linker_set_key" : "_ZN4aidl7android8hardware6camera6device23ICameraInjectionSessionC2Ev",
   "parameters" :
   [
    {
     "is_this_ptr" : true,
     "referenced_type" : "_ZTIPN4aidl7android8hardware6camera6device23ICameraInjectionSessionE"
    }
   ],
   "return_type" : "_ZTIv",
   "source_file" : "out/soong/.intermediates/hardware/interfaces/camera/device/aidl/android.hardware.camera.device-V1-ndk-source/gen/include/aidl/android/hardware/camera/device/ICameraInjectionSession.h"
  },
  {
   "function_name" : "aidl::android::hardware::camera::device::ICameraInjectionSession::~ICameraInjectionSession",
   "linker_set_key" : "_ZN4aidl7android8hardware6camera6device23ICameraInjectionSessionD0Ev",
   "parameters" :
   [
    {
     "is_this_ptr" : true,
     "referenced_type" : "_ZTIPN4aidl7android8hardware6camera6device23ICameraInjectionSessionE"
    }
   ],
   "return_type" : "_ZTIv",
   "source_file" : "out/soong/.intermediates/hardware/interfaces/camera/device/aidl/android.hardware.camera.device-V1-ndk-source/gen/include/aidl/android/hardware/camera/device/ICameraInjectionSession.h"
  },
  {
   "function_name" : "aidl::android::hardware::camera::device::ICameraInjectionSession::~ICameraInjectionSession",
   "linker_set_key" : "_ZN4aidl7android8hardware6camera6device23ICameraInjectionSessionD1Ev",
   "parameters" :
   [
    {
     "is_this_ptr" : true,
     "referenced_type" : "_ZTIPN4aidl7android8hardware6camera6device23ICameraInjectionSessionE"
    }
   ],
   "return_type" : "_ZTIv",
   "source_file" : "out/soong/.intermediates/hardware/interfaces/camera/device/aidl/android.hardware.camera.device-V1-ndk-source/gen/include/aidl/android/hardware/camera/device/ICameraInjectionSession.h"
  },
  {
   "function_name" : "aidl::android::hardware::camera::device::ICameraInjectionSession::~ICameraInjectionSession",
   "linker_set_key" : "_ZN4aidl7android8hardware6camera6device23ICameraInjectionSessionD2Ev",
   "parameters" :
   [
    {
     "is_this_ptr" : true,
     "referenced_type" : "_ZTIPN4aidl7android8hardware6camera6device23ICameraInjectionSessionE"
    }
   ],
   "return_type" : "_ZTIv",
   "source_file" : "out/soong/.intermediates/hardware/interfaces/camera/device/aidl/android.hardware.camera.device-V1-ndk-source/gen/include/aidl/android/hardware/camera/device/ICameraInjectionSession.h"
  },
  {
   "access" : "protected",
   "function_name" : "aidl::android::hardware::camera::device::BnCameraInjectionSession::createBinder",
   "linker_set_key" : "_ZN4aidl7android8hardware6camera6device24BnCameraInjectionSession12createBinderEv",
   "parameters" :
   [
    {
     "is_this_ptr" : true,
     "referenced_type" : "_ZTIPN4aidl7android8hardware6camera6device24BnCameraInjectionSessionE"
    }
   ],
   "return_type" : "_ZTIN3ndk10SpAIBinderE",
   "source_file" : "out/soong/.intermediates/hardware/interfaces/camera/device/aidl/android.hardware.camera.device-V1-ndk-source/gen/include/aidl/android/hardware/camera/device/BnCameraInjectionSession.h"
  },
  {
   "function_name" : "aidl::android::hardware::camera::device::BnCameraInjectionSession::getInterfaceHash",
   "linker_set_key" : "_ZN4aidl7android8hardware6camera6device24BnCameraInjectionSession16getInterfaceHashEPNSt3__112basic_stringIcNS5_11char_traitsIcEENS5_9allocatorIcEEEE",
   "parameters" :
   [
    {
     "is_this_ptr" : true,
     "referenced_type" : "_ZTIPN4aidl7android8hardware6camera6device24BnCameraInjectionSessionE"
    },
    {
     "referenced_type" : "_ZTIPNSt3__112basic_stringIcNS_11char_traitsIcEENS_9allocatorIcEEEE"
    }
   ],
   "return_type" : "_ZTIN3ndk13ScopedAStatusE",
   "source_file" : "out/soong/.intermediates/hardware/interfaces/camera/device/aidl/android.hardware.camera.device-V1-ndk-source/gen/include/aidl/android/hardware/camera/device/BnCameraInjectionSession.h"
  },
  {
   "function_name" : "aidl::android::hardware::camera::device::BnCameraInjectionSession::getInterfaceVersion",
   "linker_set_key" : "_ZN4aidl7android8hardware6camera6device24BnCameraInjectionSession19getInterfaceVersionEPi",
   "parameters" :
   [
    {
     "is_this_ptr" : true,
     "referenced_type" : "_ZTIPN4aidl7android8hardware6camera6device24BnCameraInjectionSessionE"
    },
    {
     "referenced_type" : "_ZTIPi"
    }
   ],
   "return_type" : "_ZTIN3ndk13ScopedAStatusE",
   "source_file" : "out/soong/.intermediates/hardware/interfaces/camera/device/aidl/android.hardware.camera.device-V1-ndk-source/gen/include/aidl/android/hardware/camera/device/BnCameraInjectionSession.h"
  },
  {
   "function_name" : "aidl::android::hardware::camera::device::BnCameraInjectionSession::BnCameraInjectionSession",
   "linker_set_key" : "_ZN4aidl7android8hardware6camera6device24BnCameraInjectionSessionC2Ev",
   "parameters" :
   [
    {
     "is_this_ptr" : true,
     "referenced_type" : "_ZTIPN4aidl7android8hardware6camera6device24BnCameraInjectionSessionE"
    }
   ],
   "return_type" : "_ZTIv",
   "source_file" : "out/soong/.intermediates/hardware/interfaces/camera/device/aidl/android.hardware.camera.device-V1-ndk-source/gen/include/aidl/android/hardware/camera/device/BnCameraInjectionSession.h"
  },
  {
   "function_name" : "aidl::android::hardware::camera::device::BnCameraInjectionSession::~BnCameraInjectionSession",
   "linker_set_key" : "_ZN4aidl7android8hardware6camera6device24BnCameraInjectionSessionD0Ev",
   "parameters" :
   [
    {
     "is_this_ptr" : true,
     "referenced_type" : "_ZTIPN4aidl7android8hardware6camera6device24BnCameraInjectionSessionE"
    }
   ],
   "return_type" : "_ZTIv",
   "source_file" : "out/soong/.intermediates/hardware/interfaces/camera/device/aidl/android.hardware.camera.device-V1-ndk-source/gen/include/aidl/android/hardware/camera/device/BnCameraInjectionSession.h"
  },
  {
   "function_name" : "aidl::android::hardware::camera::device::BnCameraInjectionSession::~BnCameraInjectionSession",
   "linker_set_key" : "_ZN4aidl7android8hardware6camera6device24BnCameraInjectionSessionD1Ev",
   "parameters" :
   [
    {
     "is_this_ptr" : true,
     "referenced_type" : "_ZTIPN4aidl7android8hardware6camera6device24BnCameraInjectionSessionE"
    }
   ],
   "return_type" : "_ZTIv",
   "source_file" : "out/soong/.intermediates/hardware/interfaces/camera/device/aidl/android.hardware.camera.device-V1-ndk-source/gen/include/aidl/android/hardware/camera/device/BnCameraInjectionSession.h"
  },
  {
   "function_name" : "aidl::android::hardware::camera::device::BnCameraInjectionSession::~BnCameraInjectionSession",
   "linker_set_key" : "_ZN4aidl7android8hardware6camera6device24BnCameraInjectionSessionD2Ev",
   "parameters" :
   [
    {
     "is_this_ptr" : true,
     "referenced_type" : "_ZTIPN4aidl7android8hardware6camera6device24BnCameraInjectionSessionE"
    }
   ],
   "return_type" : "_ZTIv",
   "source_file" : "out/soong/.intermediates/hardware/interfaces/camera/device/aidl/android.hardware.camera.device-V1-ndk-source/gen/include/aidl/android/hardware/camera/device/BnCameraInjectionSession.h"
  },
  {
   "function_name" : "aidl::android::hardware::camera::device::BpCameraInjectionSession::getInterfaceHash",
   "linker_set_key" : "_ZN4aidl7android8hardware6camera6device24BpCameraInjectionSession16getInterfaceHashEPNSt3__112basic_stringIcNS5_11char_traitsIcEENS5_9allocatorIcEEEE",
   "parameters" :
   [
    {
     "is_this_ptr" : true,
     "referenced_type" : "_ZTIPN4aidl7android8hardware6camera6device24BpCameraInjectionSessionE"
    },
    {
     "referenced_type" : "_ZTIPNSt3__112basic_stringIcNS_11char_traitsIcEENS_9allocatorIcEEEE"
    }
   ],
   "return_type" : "_ZTIN3ndk13ScopedAStatusE",
   "source_file" : "out/soong/.intermediates/hardware/interfaces/camera/device/aidl/android.hardware.camera.device-V1-ndk-source/gen/include/aidl/android/hardware/camera/device/BpCameraInjectionSession.h"
  },
  {
   "function_name" : "aidl::android::hardware::camera::device::BpCameraInjectionSession::getInterfaceVersion",
   "linker_set_key" : "_ZN4aidl7android8hardware6camera6device24BpCameraInjectionSession19getInterfaceVersionEPi",
   "parameters" :
   [
    {
     "is_this_ptr" : true,
     "referenced_type" : "_ZTIPN4aidl7android8hardware6camera6device24BpCameraInjectionSessionE"
    },
    {
     "referenced_type" : "_ZTIPi"
    }
   ],
   "return_type" : "_ZTIN3ndk13ScopedAStatusE",
   "source_file" : "out/soong/.intermediates/hardware/interfaces/camera/device/aidl/android.hardware.camera.device-V1-ndk-source/gen/include/aidl/android/hardware/camera/device/BpCameraInjectionSession.h"
  },
  {
   "function_name" : "aidl::android::hardware::camera::device::BpCameraInjectionSession::getCameraDeviceSession",
   "linker_set_key" : "_ZN4aidl7android8hardware6camera6device24BpCameraInjectionSession22getCameraDeviceSessionEPNSt3__110shared_ptrINS3_20ICameraDeviceSessionEEE",
   "parameters" :
   [
    {
     "is_this_ptr" : true,
     "referenced_type" : "_ZTIPN4aidl7android8hardware6camera6device24BpCameraInjectionSessionE"
    },
    {
     "referenced_type" : "_ZTIPNSt3__110shared_ptrIN4aidl7android8hardware6camera6device20ICameraDeviceSessionEEE"
    }
   ],
   "return_type" : "_ZTIN3ndk13ScopedAStatusE",
   "source_file" : "out/soong/.intermediates/hardware/interfaces/camera/device/aidl/android.hardware.camera.device-V1-ndk-source/gen/include/aidl/android/hardware/camera/device/BpCameraInjectionSession.h"
  },
  {
   "function_name" : "aidl::android::hardware::camera::device::BpCameraInjectionSession::configureInjectionStreams",
   "linker_set_key" : "_ZN4aidl7android8hardware6camera6device24BpCameraInjectionSession25configureInjectionStreamsERKNS3_19StreamConfigurationERKNS3_14CameraMetadataE",
   "parameters" :
   [
    {
     "is_this_ptr" : true,
     "referenced_type" : "_ZTIPN4aidl7android8hardware6camera6device24BpCameraInjectionSessionE"
    },
    {
     "referenced_type" : "_ZTIRKN4aidl7android8hardware6camera6device19StreamConfigurationE"
    },
    {
     "referenced_type" : "_ZTIRKN4aidl7android8hardware6camera6device14CameraMetadataE"
    }
   ],
   "return_type" : "_ZTIN3ndk13ScopedAStatusE",
   "source_file" : "out/soong/.intermediates/hardware/interfaces/camera/device/aidl/android.hardware.camera.device-V1-ndk-source/gen/include/aidl/android/hardware/camera/device/BpCameraInjectionSession.h"
  },
  {
   "function_name" : "aidl::android::hardware::camera::device::BpCameraInjectionSession::BpCameraInjectionSession",
   "linker_set_key" : "_ZN4aidl7android8hardware6camera6device24BpCameraInjectionSessionC1ERKN3ndk10SpAIBinderE",
   "parameters" :
   [
    {
     "is_this_ptr" : true,
     "referenced_type" : "_ZTIPN4aidl7android8hardware6camera6device24BpCameraInjectionSessionE"
    },
    {
     "referenced_type" : "_ZTIRKN3ndk10SpAIBinderE"
    }
   ],
   "return_type" : "_ZTIv",
   "source_file" : "out/soong/.intermediates/hardware/interfaces/camera/device/aidl/android.hardware.camera.device-V1-ndk-source/gen/include/aidl/android/hardware/camera/device/BpCameraInjectionSession.h"
  },
  {
   "function_name" : "aidl::android::hardware::camera::device::BpCameraInjectionSession::BpCameraInjectionSession",
   "linker_set_key" : "_ZN4aidl7android8hardware6camera6device24BpCameraInjectionSessionC2ERKN3ndk10SpAIBinderE",
   "parameters" :
   [
    {
     "is_this_ptr" : true,
     "referenced_type" : "_ZTIPN4aidl7android8hardware6camera6device24BpCameraInjectionSessionE"
    },
    {
     "referenced_type" : "_ZTIRKN3ndk10SpAIBinderE"
    }
   ],
   "return_type" : "_ZTIv",
   "source_file" : "out/soong/.intermediates/hardware/interfaces/camera/device/aidl/android.hardware.camera.device-V1-ndk-source/gen/include/aidl/android/hardware/camera/device/BpCameraInjectionSession.h"
  },
  {
   "function_name" : "aidl::android::hardware::camera::device::BpCameraInjectionSession::~BpCameraInjectionSession",
   "linker_set_key" : "_ZN4aidl7android8hardware6camera6device24BpCameraInjectionSessionD0Ev",
   "parameters" :
   [
    {
     "is_this_ptr" : true,
     "referenced_type" : "_ZTIPN4aidl7android8hardware6camera6device24BpCameraInjectionSessionE"
    }
   ],
   "return_type" : "_ZTIv",
   "source_file" : "out/soong/.intermediates/hardware/interfaces/camera/device/aidl/android.hardware.camera.device-V1-ndk-source/gen/include/aidl/android/hardware/camera/device/BpCameraInjectionSession.h"
  },
  {
   "function_name" : "aidl::android::hardware::camera::device::BpCameraInjectionSession::~BpCameraInjectionSession",
   "linker_set_key" : "_ZN4aidl7android8hardware6camera6device24BpCameraInjectionSessionD1Ev",
   "parameters" :
   [
    {
     "is_this_ptr" : true,
     "referenced_type" : "_ZTIPN4aidl7android8hardware6camera6device24BpCameraInjectionSessionE"
    }
   ],
   "return_type" : "_ZTIv",
   "source_file" : "out/soong/.intermediates/hardware/interfaces/camera/device/aidl/android.hardware.camera.device-V1-ndk-source/gen/include/aidl/android/hardware/camera/device/BpCameraInjectionSession.h"
  },
  {
   "function_name" : "aidl::android::hardware::camera::device::BpCameraInjectionSession::~BpCameraInjectionSession",
   "linker_set_key" : "_ZN4aidl7android8hardware6camera6device24BpCameraInjectionSessionD2Ev",
   "parameters" :
   [
    {
     "is_this_ptr" : true,
     "referenced_type" : "_ZTIPN4aidl7android8hardware6camera6device24BpCameraInjectionSessionE"
    }
   ],
   "return_type" : "_ZTIv",
   "source_file" : "out/soong/.intermediates/hardware/interfaces/camera/device/aidl/android.hardware.camera.device-V1-ndk-source/gen/include/aidl/android/hardware/camera/device/BpCameraInjectionSession.h"
  },
  {
   "function_name" : "aidl::android::hardware::camera::device::CameraOfflineSessionInfo::readFromParcel",
   "linker_set_key" : "_ZN4aidl7android8hardware6camera6device24CameraOfflineSessionInfo14readFromParcelEPK7AParcel",
   "parameters" :
   [
    {
     "is_this_ptr" : true,
     "referenced_type" : "_ZTIPN4aidl7android8hardware6camera6device24CameraOfflineSessionInfoE"
    },
    {
     "referenced_type" : "_ZTIPK7AParcel"
    }
   ],
   "return_type" : "_ZTIi",
   "source_file" : "out/soong/.intermediates/hardware/interfaces/camera/device/aidl/android.hardware.camera.device-V1-ndk-source/gen/include/aidl/android/hardware/camera/device/CameraOfflineSessionInfo.h"
  },
  {
   "function_name" : "aidl::android::hardware::camera::device::ICameraDeviceSessionDefault::switchToOffline",
   "linker_set_key" : "_ZN4aidl7android8hardware6camera6device27ICameraDeviceSessionDefault15switchToOfflineERKNSt3__16vectorIiNS5_9allocatorIiEEEEPNS3_24CameraOfflineSessionInfoEPNS5_10shared_ptrINS3_21ICameraOfflineSessionEEE",
   "parameters" :
   [
    {
     "is_this_ptr" : true,
     "referenced_type" : "_ZTIPN4aidl7android8hardware6camera6device27ICameraDeviceSessionDefaultE"
    },
    {
     "referenced_type" : "_ZTIRKNSt3__16vectorIiNS_9allocatorIiEEEE"
    },
    {
     "referenced_type" : "_ZTIPN4aidl7android8hardware6camera6device24CameraOfflineSessionInfoE"
    },
    {
     "referenced_type" : "_ZTIPNSt3__110shared_ptrIN4aidl7android8hardware6camera6device21ICameraOfflineSessionEEE"
    }
   ],
   "return_type" : "_ZTIN3ndk13ScopedAStatusE",
   "source_file" : "out/soong/.intermediates/hardware/interfaces/camera/device/aidl/android.hardware.camera.device-V1-ndk-source/gen/include/aidl/android/hardware/camera/device/ICameraDeviceSession.h"
  },
  {
   "function_name" : "aidl::android::hardware::camera::device::ICameraDeviceSessionDefault::configureStreams",
   "linker_set_key" : "_ZN4aidl7android8hardware6camera6device27ICameraDeviceSessionDefault16configureStreamsERKNS3_19StreamConfigurationEPNSt3__16vectorINS3_9HalStreamENS8_9allocatorISA_EEEE",
   "parameters" :
   [
    {
     "is_this_ptr" : true,
     "referenced_type" : "_ZTIPN4aidl7android8hardware6camera6device27ICameraDeviceSessionDefaultE"
    },
    {
     "referenced_type" : "_ZTIRKN4aidl7android8hardware6camera6device19StreamConfigurationE"
    },
    {
     "referenced_type" : "_ZTIPNSt3__16vectorIN4aidl7android8hardware6camera6device9HalStreamENS_9allocatorIS6_EEEE"
    }
   ],
   "return_type" : "_ZTIN3ndk13ScopedAStatusE",
   "source_file" : "out/soong/.intermediates/hardware/interfaces/camera/device/aidl/android.hardware.camera.device-V1-ndk-source/gen/include/aidl/android/hardware/camera/device/ICameraDeviceSession.h"
  },
  {
   "function_name" : "aidl::android::hardware::camera::device::ICameraDeviceSessionDefault::getInterfaceHash",
   "linker_set_key" : "_ZN4aidl7android8hardware6camera6device27ICameraDeviceSessionDefault16getInterfaceHashEPNSt3__112basic_stringIcNS5_11char_traitsIcEENS5_9allocatorIcEEEE",
   "parameters" :
   [
    {
     "is_this_ptr" : true,
     "referenced_type" : "_ZTIPN4aidl7android8hardware6camera6device27ICameraDeviceSessionDefaultE"
    },
    {
     "referenced_type" : "_ZTIPNSt3__112basic_stringIcNS_11char_traitsIcEENS_9allocatorIcEEEE"
    }
   ],
   "return_type" : "_ZTIN3ndk13ScopedAStatusE",
   "source_file" : "out/soong/.intermediates/hardware/interfaces/camera/device/aidl/android.hardware.camera.device-V1-ndk-source/gen/include/aidl/android/hardware/camera/device/ICameraDeviceSession.h"
  },
  {
   "function_name" : "aidl::android::hardware::camera::device::ICameraDeviceSessionDefault::signalStreamFlush",
   "linker_set_key" : "_ZN4aidl7android8hardware6camera6device27ICameraDeviceSessionDefault17signalStreamFlushERKNSt3__16vectorIiNS5_9allocatorIiEEEEi",
   "parameters" :
   [
    {
     "is_this_ptr" : true,
     "referenced_type" : "_ZTIPN4aidl7android8hardware6camera6device27ICameraDeviceSessionDefaultE"
    },
    {
     "referenced_type" : "_ZTIRKNSt3__16vectorIiNS_9allocatorIiEEEE"
    },
    {
     "referenced_type" : "_ZTIi"
    }
   ],
   "return_type" : "_ZTIN3ndk13ScopedAStatusE",
   "source_file" : "out/soong/.intermediates/hardware/interfaces/camera/device/aidl/android.hardware.camera.device-V1-ndk-source/gen/include/aidl/android/hardware/camera/device/ICameraDeviceSession.h"
  },
  {
   "function_name" : "aidl::android::hardware::camera::device::ICameraDeviceSessionDefault::getInterfaceVersion",
   "linker_set_key" : "_ZN4aidl7android8hardware6camera6device27ICameraDeviceSessionDefault19getInterfaceVersionEPi",
   "parameters" :
   [
    {
     "is_this_ptr" : true,
     "referenced_type" : "_ZTIPN4aidl7android8hardware6camera6device27ICameraDeviceSessionDefaultE"
    },
    {
     "referenced_type" : "_ZTIPi"
    }
   ],
   "return_type" : "_ZTIN3ndk13ScopedAStatusE",
   "source_file" : "out/soong/.intermediates/hardware/interfaces/camera/device/aidl/android.hardware.camera.device-V1-ndk-source/gen/include/aidl/android/hardware/camera/device/ICameraDeviceSession.h"
  },
  {
   "function_name" : "aidl::android::hardware::camera::device::ICameraDeviceSessionDefault::repeatingRequestEnd",
   "linker_set_key" : "_ZN4aidl7android8hardware6camera6device27ICameraDeviceSessionDefault19repeatingRequestEndEiRKNSt3__16vectorIiNS5_9allocatorIiEEEE",
   "parameters" :
   [
    {
     "is_this_ptr" : true,
     "referenced_type" : "_ZTIPN4aidl7android8hardware6camera6device27ICameraDeviceSessionDefaultE"
    },
    {
     "referenced_type" : "_ZTIi"
    },
    {
     "referenced_type" : "_ZTIRKNSt3__16vectorIiNS_9allocatorIiEEEE"
    }
   ],
   "return_type" : "_ZTIN3ndk13ScopedAStatusE",
   "source_file" : "out/soong/.intermediates/hardware/interfaces/camera/device/aidl/android.hardware.camera.device-V1-ndk-source/gen/include/aidl/android/hardware/camera/device/ICameraDeviceSession.h"
  },
  {
   "function_name" : "aidl::android::hardware::camera::device::ICameraDeviceSessionDefault::processCaptureRequest",
   "linker_set_key" : "_ZN4aidl7android8hardware6camera6device27ICameraDeviceSessionDefault21processCaptureRequestERKNSt3__16vectorINS3_14CaptureRequestENS5_9allocatorIS7_EEEERKNS6_INS3_11BufferCacheENS8_ISD_EEEEPi",
   "parameters" :
   [
    {
     "is_this_ptr" : true,
     "referenced_type" : "_ZTIPN4aidl7android8hardware6camera6device27ICameraDeviceSessionDefaultE"
    },
    {
     "referenced_type" : "_ZTIRKNSt3__16vectorIN4aidl7android8hardware6camera6device14CaptureRequestENS_9allocatorIS6_EEEE"
    },
    {
     "referenced_type" : "_ZTIRKNSt3__16vectorIN4aidl7android8hardware6camera6device11BufferCacheENS_9allocatorIS6_EEEE"
    },
    {
     "referenced_type" : "_ZTIPi"
    }
   ],
   "return_type" : "_ZTIN3ndk13ScopedAStatusE",
   "source_file" : "out/soong/.intermediates/hardware/interfaces/camera/device/aidl/android.hardware.camera.device-V1-ndk-source/gen/include/aidl/android/hardware/camera/device/ICameraDeviceSession.h"
  },
  {
   "function_name" : "aidl::android::hardware::camera::device::ICameraDeviceSessionDefault::isReconfigurationRequired",
   "linker_set_key" : "_ZN4aidl7android8hardware6camera6device27ICameraDeviceSessionDefault25isReconfigurationRequiredERKNS3_14CameraMetadataES7_Pb",
   "parameters" :
   [
    {
     "is_this_ptr" : true,
     "referenced_type" : "_ZTIPN4aidl7android8hardware6camera6device27ICameraDeviceSessionDefaultE"
    },
    {
     "referenced_type" : "_ZTIRKN4aidl7android8hardware6camera6device14CameraMetadataE"
    },
    {
     "referenced_type" : "_ZTIRKN4aidl7android8hardware6camera6device14CameraMetadataE"
    },
    {
     "referenced_type" : "_ZTIPb"
    }
   ],
   "return_type" : "_ZTIN3ndk13ScopedAStatusE",
   "source_file" : "out/soong/.intermediates/hardware/interfaces/camera/device/aidl/android.hardware.camera.device-V1-ndk-source/gen/include/aidl/android/hardware/camera/device/ICameraDeviceSession.h"
  },
  {
   "function_name" : "aidl::android::hardware::camera::device::ICameraDeviceSessionDefault::getCaptureResultMetadataQueue",
   "linker_set_key" : "_ZN4aidl7android8hardware6camera6device27ICameraDeviceSessionDefault29getCaptureResultMetadataQueueEPNS1_6common3fmq12MQDescriptorIaNS6_21SynchronizedReadWriteEEE",
   "parameters" :
   [
    {
     "is_this_ptr" : true,
     "referenced_type" : "_ZTIPN4aidl7android8hardware6camera6device27ICameraDeviceSessionDefaultE"
    },
    {
     "referenced_type" : "_ZTIPN4aidl7android8hardware6common3fmq12MQDescriptorIaNS3_21SynchronizedReadWriteEEE#ODR:out/soong/.intermediates/hardware/interfaces/camera/device/aidl/android.hardware.camera.device-V1-ndk/android_vendor.33_x86_x86_64_static/obj/.intermediates/hardware/interfaces/camera/device/aidl/android.hardware.camera.device-V1-ndk-source/gen/android/hardware/camera/device/ICameraDeviceSession.sdump"
    }
   ],
   "return_type" : "_ZTIN3ndk13ScopedAStatusE",
   "source_file" : "out/soong/.intermediates/hardware/interfaces/camera/device/aidl/android.hardware.camera.device-V1-ndk-source/gen/include/aidl/android/hardware/camera/device/ICameraDeviceSession.h"
  },
  {
   "function_name" : "aidl::android::hardware::camera::device::ICameraDeviceSessionDefault::getCaptureRequestMetadataQueue",
   "linker_set_key" : "_ZN4aidl7android8hardware6camera6device27ICameraDeviceSessionDefault30getCaptureRequestMetadataQueueEPNS1_6common3fmq12MQDescriptorIaNS6_21SynchronizedReadWriteEEE",
   "parameters" :
   [
    {
     "is_this_ptr" : true,
     "referenced_type" : "_ZTIPN4aidl7android8hardware6camera6device27ICameraDeviceSessionDefaultE"
    },
    {
     "referenced_type" : "_ZTIPN4aidl7android8hardware6common3fmq12MQDescriptorIaNS3_21SynchronizedReadWriteEEE#ODR:out/soong/.intermediates/hardware/interfaces/camera/device/aidl/android.hardware.camera.device-V1-ndk/android_vendor.33_x86_x86_64_static/obj/.intermediates/hardware/interfaces/camera/device/aidl/android.hardware.camera.device-V1-ndk-source/gen/android/hardware/camera/device/ICameraDeviceSession.sdump"
    }
   ],
   "return_type" : "_ZTIN3ndk13ScopedAStatusE",
   "source_file" : "out/soong/.intermediates/hardware/interfaces/camera/device/aidl/android.hardware.camera.device-V1-ndk-source/gen/include/aidl/android/hardware/camera/device/ICameraDeviceSession.h"
  },
  {
   "function_name" : "aidl::android::hardware::camera::device::ICameraDeviceSessionDefault::constructDefaultRequestSettings",
   "linker_set_key" : "_ZN4aidl7android8hardware6camera6device27ICameraDeviceSessionDefault31constructDefaultRequestSettingsENS3_15RequestTemplateEPNS3_14CameraMetadataE",
   "parameters" :
   [
    {
     "is_this_ptr" : true,
     "referenced_type" : "_ZTIPN4aidl7android8hardware6camera6device27ICameraDeviceSessionDefaultE"
    },
    {
     "referenced_type" : "_ZTIN4aidl7android8hardware6camera6device15RequestTemplateE"
    },
    {
     "referenced_type" : "_ZTIPN4aidl7android8hardware6camera6device14CameraMetadataE"
    }
   ],
   "return_type" : "_ZTIN3ndk13ScopedAStatusE",
   "source_file" : "out/soong/.intermediates/hardware/interfaces/camera/device/aidl/android.hardware.camera.device-V1-ndk-source/gen/include/aidl/android/hardware/camera/device/ICameraDeviceSession.h"
  },
  {
   "function_name" : "aidl::android::hardware::camera::device::ICameraDeviceSessionDefault::close",
   "linker_set_key" : "_ZN4aidl7android8hardware6camera6device27ICameraDeviceSessionDefault5closeEv",
   "parameters" :
   [
    {
     "is_this_ptr" : true,
     "referenced_type" : "_ZTIPN4aidl7android8hardware6camera6device27ICameraDeviceSessionDefaultE"
    }
   ],
   "return_type" : "_ZTIN3ndk13ScopedAStatusE",
   "source_file" : "out/soong/.intermediates/hardware/interfaces/camera/device/aidl/android.hardware.camera.device-V1-ndk-source/gen/include/aidl/android/hardware/camera/device/ICameraDeviceSession.h"
  },
  {
   "function_name" : "aidl::android::hardware::camera::device::ICameraDeviceSessionDefault::flush",
   "linker_set_key" : "_ZN4aidl7android8hardware6camera6device27ICameraDeviceSessionDefault5flushEv",
   "parameters" :
   [
    {
     "is_this_ptr" : true,
     "referenced_type" : "_ZTIPN4aidl7android8hardware6camera6device27ICameraDeviceSessionDefaultE"
    }
   ],
   "return_type" : "_ZTIN3ndk13ScopedAStatusE",
   "source_file" : "out/soong/.intermediates/hardware/interfaces/camera/device/aidl/android.hardware.camera.device-V1-ndk-source/gen/include/aidl/android/hardware/camera/device/ICameraDeviceSession.h"
  },
  {
   "function_name" : "aidl::android::hardware::camera::device::ICameraDeviceSessionDefault::asBinder",
   "linker_set_key" : "_ZN4aidl7android8hardware6camera6device27ICameraDeviceSessionDefault8asBinderEv",
   "parameters" :
   [
    {
     "is_this_ptr" : true,
     "referenced_type" : "_ZTIPN4aidl7android8hardware6camera6device27ICameraDeviceSessionDefaultE"
    }
   ],
   "return_type" : "_ZTIN3ndk10SpAIBinderE",
   "source_file" : "out/soong/.intermediates/hardware/interfaces/camera/device/aidl/android.hardware.camera.device-V1-ndk-source/gen/include/aidl/android/hardware/camera/device/ICameraDeviceSession.h"
  },
  {
   "function_name" : "aidl::android::hardware::camera::device::ICameraDeviceSessionDefault::isRemote",
   "linker_set_key" : "_ZN4aidl7android8hardware6camera6device27ICameraDeviceSessionDefault8isRemoteEv",
   "parameters" :
   [
    {
     "is_this_ptr" : true,
     "referenced_type" : "_ZTIPN4aidl7android8hardware6camera6device27ICameraDeviceSessionDefaultE"
    }
   ],
   "return_type" : "_ZTIb",
   "source_file" : "out/soong/.intermediates/hardware/interfaces/camera/device/aidl/android.hardware.camera.device-V1-ndk-source/gen/include/aidl/android/hardware/camera/device/ICameraDeviceSession.h"
  },
  {
   "function_name" : "aidl::android::hardware::camera::device::ICameraDeviceCallbackDefault::getInterfaceHash",
   "linker_set_key" : "_ZN4aidl7android8hardware6camera6device28ICameraDeviceCallbackDefault16getInterfaceHashEPNSt3__112basic_stringIcNS5_11char_traitsIcEENS5_9allocatorIcEEEE",
   "parameters" :
   [
    {
     "is_this_ptr" : true,
     "referenced_type" : "_ZTIPN4aidl7android8hardware6camera6device28ICameraDeviceCallbackDefaultE"
    },
    {
     "referenced_type" : "_ZTIPNSt3__112basic_stringIcNS_11char_traitsIcEENS_9allocatorIcEEEE"
    }
   ],
   "return_type" : "_ZTIN3ndk13ScopedAStatusE",
   "source_file" : "out/soong/.intermediates/hardware/interfaces/camera/device/aidl/android.hardware.camera.device-V1-ndk-source/gen/include/aidl/android/hardware/camera/device/ICameraDeviceCallback.h"
  },
  {
   "function_name" : "aidl::android::hardware::camera::device::ICameraDeviceCallbackDefault::getInterfaceVersion",
   "linker_set_key" : "_ZN4aidl7android8hardware6camera6device28ICameraDeviceCallbackDefault19getInterfaceVersionEPi",
   "parameters" :
   [
    {
     "is_this_ptr" : true,
     "referenced_type" : "_ZTIPN4aidl7android8hardware6camera6device28ICameraDeviceCallbackDefaultE"
    },
    {
     "referenced_type" : "_ZTIPi"
    }
   ],
   "return_type" : "_ZTIN3ndk13ScopedAStatusE",
   "source_file" : "out/soong/.intermediates/hardware/interfaces/camera/device/aidl/android.hardware.camera.device-V1-ndk-source/gen/include/aidl/android/hardware/camera/device/ICameraDeviceCallback.h"
  },
  {
   "function_name" : "aidl::android::hardware::camera::device::ICameraDeviceCallbackDefault::returnStreamBuffers",
   "linker_set_key" : "_ZN4aidl7android8hardware6camera6device28ICameraDeviceCallbackDefault19returnStreamBuffersERKNSt3__16vectorINS3_12StreamBufferENS5_9allocatorIS7_EEEE",
   "parameters" :
   [
    {
     "is_this_ptr" : true,
     "referenced_type" : "_ZTIPN4aidl7android8hardware6camera6device28ICameraDeviceCallbackDefaultE"
    },
    {
     "referenced_type" : "_ZTIRKNSt3__16vectorIN4aidl7android8hardware6camera6device12StreamBufferENS_9allocatorIS6_EEEE"
    }
   ],
   "return_type" : "_ZTIN3ndk13ScopedAStatusE",
   "source_file" : "out/soong/.intermediates/hardware/interfaces/camera/device/aidl/android.hardware.camera.device-V1-ndk-source/gen/include/aidl/android/hardware/camera/device/ICameraDeviceCallback.h"
  },
  {
   "function_name" : "aidl::android::hardware::camera::device::ICameraDeviceCallbackDefault::processCaptureResult",
   "linker_set_key" : "_ZN4aidl7android8hardware6camera6device28ICameraDeviceCallbackDefault20processCaptureResultERKNSt3__16vectorINS3_13CaptureResultENS5_9allocatorIS7_EEEE",
   "parameters" :
   [
    {
     "is_this_ptr" : true,
     "referenced_type" : "_ZTIPN4aidl7android8hardware6camera6device28ICameraDeviceCallbackDefaultE"
    },
    {
     "referenced_type" : "_ZTIRKNSt3__16vectorIN4aidl7android8hardware6camera6device13CaptureResultENS_9allocatorIS6_EEEE"
    }
   ],
   "return_type" : "_ZTIN3ndk13ScopedAStatusE",
   "source_file" : "out/soong/.intermediates/hardware/interfaces/camera/device/aidl/android.hardware.camera.device-V1-ndk-source/gen/include/aidl/android/hardware/camera/device/ICameraDeviceCallback.h"
  },
  {
   "function_name" : "aidl::android::hardware::camera::device::ICameraDeviceCallbackDefault::requestStreamBuffers",
   "linker_set_key" : "_ZN4aidl7android8hardware6camera6device28ICameraDeviceCallbackDefault20requestStreamBuffersERKNSt3__16vectorINS3_13BufferRequestENS5_9allocatorIS7_EEEEPNS6_INS3_15StreamBufferRetENS8_ISD_EEEEPNS3_19BufferRequestStatusE",
   "parameters" :
   [
    {
     "is_this_ptr" : true,
     "referenced_type" : "_ZTIPN4aidl7android8hardware6camera6device28ICameraDeviceCallbackDefaultE"
    },
    {
     "referenced_type" : "_ZTIRKNSt3__16vectorIN4aidl7android8hardware6camera6device13BufferRequestENS_9allocatorIS6_EEEE"
    },
    {
     "referenced_type" : "_ZTIPNSt3__16vectorIN4aidl7android8hardware6camera6device15StreamBufferRetENS_9allocatorIS6_EEEE"
    },
    {
     "referenced_type" : "_ZTIPN4aidl7android8hardware6camera6device19BufferRequestStatusE"
    }
   ],
   "return_type" : "_ZTIN3ndk13ScopedAStatusE",
   "source_file" : "out/soong/.intermediates/hardware/interfaces/camera/device/aidl/android.hardware.camera.device-V1-ndk-source/gen/include/aidl/android/hardware/camera/device/ICameraDeviceCallback.h"
  },
  {
   "function_name" : "aidl::android::hardware::camera::device::ICameraDeviceCallbackDefault::notify",
   "linker_set_key" : "_ZN4aidl7android8hardware6camera6device28ICameraDeviceCallbackDefault6notifyERKNSt3__16vectorINS3_9NotifyMsgENS5_9allocatorIS7_EEEE",
   "parameters" :
   [
    {
     "is_this_ptr" : true,
     "referenced_type" : "_ZTIPN4aidl7android8hardware6camera6device28ICameraDeviceCallbackDefaultE"
    },
    {
     "referenced_type" : "_ZTIRKNSt3__16vectorIN4aidl7android8hardware6camera6device9NotifyMsgENS_9allocatorIS6_EEEE"
    }
   ],
   "return_type" : "_ZTIN3ndk13ScopedAStatusE",
   "source_file" : "out/soong/.intermediates/hardware/interfaces/camera/device/aidl/android.hardware.camera.device-V1-ndk-source/gen/include/aidl/android/hardware/camera/device/ICameraDeviceCallback.h"
  },
  {
   "function_name" : "aidl::android::hardware::camera::device::ICameraDeviceCallbackDefault::asBinder",
   "linker_set_key" : "_ZN4aidl7android8hardware6camera6device28ICameraDeviceCallbackDefault8asBinderEv",
   "parameters" :
   [
    {
     "is_this_ptr" : true,
     "referenced_type" : "_ZTIPN4aidl7android8hardware6camera6device28ICameraDeviceCallbackDefaultE"
    }
   ],
   "return_type" : "_ZTIN3ndk10SpAIBinderE",
   "source_file" : "out/soong/.intermediates/hardware/interfaces/camera/device/aidl/android.hardware.camera.device-V1-ndk-source/gen/include/aidl/android/hardware/camera/device/ICameraDeviceCallback.h"
  },
  {
   "function_name" : "aidl::android::hardware::camera::device::ICameraDeviceCallbackDefault::isRemote",
   "linker_set_key" : "_ZN4aidl7android8hardware6camera6device28ICameraDeviceCallbackDefault8isRemoteEv",
   "parameters" :
   [
    {
     "is_this_ptr" : true,
     "referenced_type" : "_ZTIPN4aidl7android8hardware6camera6device28ICameraDeviceCallbackDefaultE"
    }
   ],
   "return_type" : "_ZTIb",
   "source_file" : "out/soong/.intermediates/hardware/interfaces/camera/device/aidl/android.hardware.camera.device-V1-ndk-source/gen/include/aidl/android/hardware/camera/device/ICameraDeviceCallback.h"
  },
  {
   "function_name" : "aidl::android::hardware::camera::device::ICameraOfflineSessionDefault::setCallback",
   "linker_set_key" : "_ZN4aidl7android8hardware6camera6device28ICameraOfflineSessionDefault11setCallbackERKNSt3__110shared_ptrINS3_21ICameraDeviceCallbackEEE",
   "parameters" :
   [
    {
     "is_this_ptr" : true,
     "referenced_type" : "_ZTIPN4aidl7android8hardware6camera6device28ICameraOfflineSessionDefaultE"
    },
    {
     "referenced_type" : "_ZTIRKNSt3__110shared_ptrIN4aidl7android8hardware6camera6device21ICameraDeviceCallbackEEE"
    }
   ],
   "return_type" : "_ZTIN3ndk13ScopedAStatusE",
   "source_file" : "out/soong/.intermediates/hardware/interfaces/camera/device/aidl/android.hardware.camera.device-V1-ndk-source/gen/include/aidl/android/hardware/camera/device/ICameraOfflineSession.h"
  },
  {
   "function_name" : "aidl::android::hardware::camera::device::ICameraOfflineSessionDefault::getInterfaceHash",
   "linker_set_key" : "_ZN4aidl7android8hardware6camera6device28ICameraOfflineSessionDefault16getInterfaceHashEPNSt3__112basic_stringIcNS5_11char_traitsIcEENS5_9allocatorIcEEEE",
   "parameters" :
   [
    {
     "is_this_ptr" : true,
     "referenced_type" : "_ZTIPN4aidl7android8hardware6camera6device28ICameraOfflineSessionDefaultE"
    },
    {
     "referenced_type" : "_ZTIPNSt3__112basic_stringIcNS_11char_traitsIcEENS_9allocatorIcEEEE"
    }
   ],
   "return_type" : "_ZTIN3ndk13ScopedAStatusE",
   "source_file" : "out/soong/.intermediates/hardware/interfaces/camera/device/aidl/android.hardware.camera.device-V1-ndk-source/gen/include/aidl/android/hardware/camera/device/ICameraOfflineSession.h"
  },
  {
   "function_name" : "aidl::android::hardware::camera::device::ICameraOfflineSessionDefault::getInterfaceVersion",
   "linker_set_key" : "_ZN4aidl7android8hardware6camera6device28ICameraOfflineSessionDefault19getInterfaceVersionEPi",
   "parameters" :
   [
    {
     "is_this_ptr" : true,
     "referenced_type" : "_ZTIPN4aidl7android8hardware6camera6device28ICameraOfflineSessionDefaultE"
    },
    {
     "referenced_type" : "_ZTIPi"
    }
   ],
   "return_type" : "_ZTIN3ndk13ScopedAStatusE",
   "source_file" : "out/soong/.intermediates/hardware/interfaces/camera/device/aidl/android.hardware.camera.device-V1-ndk-source/gen/include/aidl/android/hardware/camera/device/ICameraOfflineSession.h"
  },
  {
   "function_name" : "aidl::android::hardware::camera::device::ICameraOfflineSessionDefault::getCaptureResultMetadataQueue",
   "linker_set_key" : "_ZN4aidl7android8hardware6camera6device28ICameraOfflineSessionDefault29getCaptureResultMetadataQueueEPNS1_6common3fmq12MQDescriptorIaNS6_21SynchronizedReadWriteEEE",
   "parameters" :
   [
    {
     "is_this_ptr" : true,
     "referenced_type" : "_ZTIPN4aidl7android8hardware6camera6device28ICameraOfflineSessionDefaultE"
    },
    {
     "referenced_type" : "_ZTIPN4aidl7android8hardware6common3fmq12MQDescriptorIaNS3_21SynchronizedReadWriteEEE#ODR:out/soong/.intermediates/hardware/interfaces/camera/device/aidl/android.hardware.camera.device-V1-ndk/android_vendor.33_x86_x86_64_static/obj/.intermediates/hardware/interfaces/camera/device/aidl/android.hardware.camera.device-V1-ndk-source/gen/android/hardware/camera/device/ICameraDeviceSession.sdump"
    }
   ],
   "return_type" : "_ZTIN3ndk13ScopedAStatusE",
   "source_file" : "out/soong/.intermediates/hardware/interfaces/camera/device/aidl/android.hardware.camera.device-V1-ndk-source/gen/include/aidl/android/hardware/camera/device/ICameraOfflineSession.h"
  },
  {
   "function_name" : "aidl::android::hardware::camera::device::ICameraOfflineSessionDefault::close",
   "linker_set_key" : "_ZN4aidl7android8hardware6camera6device28ICameraOfflineSessionDefault5closeEv",
   "parameters" :
   [
    {
     "is_this_ptr" : true,
     "referenced_type" : "_ZTIPN4aidl7android8hardware6camera6device28ICameraOfflineSessionDefaultE"
    }
   ],
   "return_type" : "_ZTIN3ndk13ScopedAStatusE",
   "source_file" : "out/soong/.intermediates/hardware/interfaces/camera/device/aidl/android.hardware.camera.device-V1-ndk-source/gen/include/aidl/android/hardware/camera/device/ICameraOfflineSession.h"
  },
  {
   "function_name" : "aidl::android::hardware::camera::device::ICameraOfflineSessionDefault::asBinder",
   "linker_set_key" : "_ZN4aidl7android8hardware6camera6device28ICameraOfflineSessionDefault8asBinderEv",
   "parameters" :
   [
    {
     "is_this_ptr" : true,
     "referenced_type" : "_ZTIPN4aidl7android8hardware6camera6device28ICameraOfflineSessionDefaultE"
    }
   ],
   "return_type" : "_ZTIN3ndk10SpAIBinderE",
   "source_file" : "out/soong/.intermediates/hardware/interfaces/camera/device/aidl/android.hardware.camera.device-V1-ndk-source/gen/include/aidl/android/hardware/camera/device/ICameraOfflineSession.h"
  },
  {
   "function_name" : "aidl::android::hardware::camera::device::ICameraOfflineSessionDefault::isRemote",
   "linker_set_key" : "_ZN4aidl7android8hardware6camera6device28ICameraOfflineSessionDefault8isRemoteEv",
   "parameters" :
   [
    {
     "is_this_ptr" : true,
     "referenced_type" : "_ZTIPN4aidl7android8hardware6camera6device28ICameraOfflineSessionDefaultE"
    }
   ],
   "return_type" : "_ZTIb",
   "source_file" : "out/soong/.intermediates/hardware/interfaces/camera/device/aidl/android.hardware.camera.device-V1-ndk-source/gen/include/aidl/android/hardware/camera/device/ICameraOfflineSession.h"
  },
  {
   "function_name" : "aidl::android::hardware::camera::device::ICameraInjectionSessionDefault::getInterfaceHash",
   "linker_set_key" : "_ZN4aidl7android8hardware6camera6device30ICameraInjectionSessionDefault16getInterfaceHashEPNSt3__112basic_stringIcNS5_11char_traitsIcEENS5_9allocatorIcEEEE",
   "parameters" :
   [
    {
     "is_this_ptr" : true,
     "referenced_type" : "_ZTIPN4aidl7android8hardware6camera6device30ICameraInjectionSessionDefaultE"
    },
    {
     "referenced_type" : "_ZTIPNSt3__112basic_stringIcNS_11char_traitsIcEENS_9allocatorIcEEEE"
    }
   ],
   "return_type" : "_ZTIN3ndk13ScopedAStatusE",
   "source_file" : "out/soong/.intermediates/hardware/interfaces/camera/device/aidl/android.hardware.camera.device-V1-ndk-source/gen/include/aidl/android/hardware/camera/device/ICameraInjectionSession.h"
  },
  {
   "function_name" : "aidl::android::hardware::camera::device::ICameraInjectionSessionDefault::getInterfaceVersion",
   "linker_set_key" : "_ZN4aidl7android8hardware6camera6device30ICameraInjectionSessionDefault19getInterfaceVersionEPi",
   "parameters" :
   [
    {
     "is_this_ptr" : true,
     "referenced_type" : "_ZTIPN4aidl7android8hardware6camera6device30ICameraInjectionSessionDefaultE"
    },
    {
     "referenced_type" : "_ZTIPi"
    }
   ],
   "return_type" : "_ZTIN3ndk13ScopedAStatusE",
   "source_file" : "out/soong/.intermediates/hardware/interfaces/camera/device/aidl/android.hardware.camera.device-V1-ndk-source/gen/include/aidl/android/hardware/camera/device/ICameraInjectionSession.h"
  },
  {
   "function_name" : "aidl::android::hardware::camera::device::ICameraInjectionSessionDefault::getCameraDeviceSession",
   "linker_set_key" : "_ZN4aidl7android8hardware6camera6device30ICameraInjectionSessionDefault22getCameraDeviceSessionEPNSt3__110shared_ptrINS3_20ICameraDeviceSessionEEE",
   "parameters" :
   [
    {
     "is_this_ptr" : true,
     "referenced_type" : "_ZTIPN4aidl7android8hardware6camera6device30ICameraInjectionSessionDefaultE"
    },
    {
     "referenced_type" : "_ZTIPNSt3__110shared_ptrIN4aidl7android8hardware6camera6device20ICameraDeviceSessionEEE"
    }
   ],
   "return_type" : "_ZTIN3ndk13ScopedAStatusE",
   "source_file" : "out/soong/.intermediates/hardware/interfaces/camera/device/aidl/android.hardware.camera.device-V1-ndk-source/gen/include/aidl/android/hardware/camera/device/ICameraInjectionSession.h"
  },
  {
   "function_name" : "aidl::android::hardware::camera::device::ICameraInjectionSessionDefault::configureInjectionStreams",
   "linker_set_key" : "_ZN4aidl7android8hardware6camera6device30ICameraInjectionSessionDefault25configureInjectionStreamsERKNS3_19StreamConfigurationERKNS3_14CameraMetadataE",
   "parameters" :
   [
    {
     "is_this_ptr" : true,
     "referenced_type" : "_ZTIPN4aidl7android8hardware6camera6device30ICameraInjectionSessionDefaultE"
    },
    {
     "referenced_type" : "_ZTIRKN4aidl7android8hardware6camera6device19StreamConfigurationE"
    },
    {
     "referenced_type" : "_ZTIRKN4aidl7android8hardware6camera6device14CameraMetadataE"
    }
   ],
   "return_type" : "_ZTIN3ndk13ScopedAStatusE",
   "source_file" : "out/soong/.intermediates/hardware/interfaces/camera/device/aidl/android.hardware.camera.device-V1-ndk-source/gen/include/aidl/android/hardware/camera/device/ICameraInjectionSession.h"
  },
  {
   "function_name" : "aidl::android::hardware::camera::device::ICameraInjectionSessionDefault::asBinder",
   "linker_set_key" : "_ZN4aidl7android8hardware6camera6device30ICameraInjectionSessionDefault8asBinderEv",
   "parameters" :
   [
    {
     "is_this_ptr" : true,
     "referenced_type" : "_ZTIPN4aidl7android8hardware6camera6device30ICameraInjectionSessionDefaultE"
    }
   ],
   "return_type" : "_ZTIN3ndk10SpAIBinderE",
   "source_file" : "out/soong/.intermediates/hardware/interfaces/camera/device/aidl/android.hardware.camera.device-V1-ndk-source/gen/include/aidl/android/hardware/camera/device/ICameraInjectionSession.h"
  },
  {
   "function_name" : "aidl::android::hardware::camera::device::ICameraInjectionSessionDefault::isRemote",
   "linker_set_key" : "_ZN4aidl7android8hardware6camera6device30ICameraInjectionSessionDefault8isRemoteEv",
   "parameters" :
   [
    {
     "is_this_ptr" : true,
     "referenced_type" : "_ZTIPN4aidl7android8hardware6camera6device30ICameraInjectionSessionDefaultE"
    }
   ],
   "return_type" : "_ZTIb",
   "source_file" : "out/soong/.intermediates/hardware/interfaces/camera/device/aidl/android.hardware.camera.device-V1-ndk-source/gen/include/aidl/android/hardware/camera/device/ICameraInjectionSession.h"
  },
  {
   "function_name" : "aidl::android::hardware::camera::device::Stream::readFromParcel",
   "linker_set_key" : "_ZN4aidl7android8hardware6camera6device6Stream14readFromParcelEPK7AParcel",
   "parameters" :
   [
    {
     "is_this_ptr" : true,
     "referenced_type" : "_ZTIPN4aidl7android8hardware6camera6device6StreamE"
    },
    {
     "referenced_type" : "_ZTIPK7AParcel"
    }
   ],
   "return_type" : "_ZTIi",
   "source_file" : "out/soong/.intermediates/hardware/interfaces/camera/device/aidl/android.hardware.camera.device-V1-ndk-source/gen/include/aidl/android/hardware/camera/device/Stream.h"
  },
  {
   "function_name" : "aidl::android::hardware::camera::device::ErrorMsg::readFromParcel",
   "linker_set_key" : "_ZN4aidl7android8hardware6camera6device8ErrorMsg14readFromParcelEPK7AParcel",
   "parameters" :
   [
    {
     "is_this_ptr" : true,
     "referenced_type" : "_ZTIPN4aidl7android8hardware6camera6device8ErrorMsgE"
    },
    {
     "referenced_type" : "_ZTIPK7AParcel"
    }
   ],
   "return_type" : "_ZTIi",
   "source_file" : "out/soong/.intermediates/hardware/interfaces/camera/device/aidl/android.hardware.camera.device-V1-ndk-source/gen/include/aidl/android/hardware/camera/device/ErrorMsg.h"
  },
  {
   "function_name" : "aidl::android::hardware::camera::device::HalStream::readFromParcel",
   "linker_set_key" : "_ZN4aidl7android8hardware6camera6device9HalStream14readFromParcelEPK7AParcel",
   "parameters" :
   [
    {
     "is_this_ptr" : true,
     "referenced_type" : "_ZTIPN4aidl7android8hardware6camera6device9HalStreamE"
    },
    {
     "referenced_type" : "_ZTIPK7AParcel"
    }
   ],
   "return_type" : "_ZTIi",
   "source_file" : "out/soong/.intermediates/hardware/interfaces/camera/device/aidl/android.hardware.camera.device-V1-ndk-source/gen/include/aidl/android/hardware/camera/device/HalStream.h"
  },
  {
   "function_name" : "aidl::android::hardware::camera::device::NotifyMsg::readFromParcel",
   "linker_set_key" : "_ZN4aidl7android8hardware6camera6device9NotifyMsg14readFromParcelEPK7AParcel",
   "parameters" :
   [
    {
     "is_this_ptr" : true,
     "referenced_type" : "_ZTIPN4aidl7android8hardware6camera6device9NotifyMsgE"
    },
    {
     "referenced_type" : "_ZTIPK7AParcel"
    }
   ],
   "return_type" : "_ZTIi",
   "source_file" : "out/soong/.intermediates/hardware/interfaces/camera/device/aidl/android.hardware.camera.device-V1-ndk-source/gen/include/aidl/android/hardware/camera/device/NotifyMsg.h"
  },
  {
   "function_name" : "aidl::android::hardware::common::fmq::MQDescriptor<signed char, aidl::android::hardware::common::fmq::SynchronizedReadWrite>::readFromParcel",
   "linker_set_key" : "_ZN4aidl7android8hardware6common3fmq12MQDescriptorIaNS3_21SynchronizedReadWriteEE14readFromParcelEPK7AParcel",
   "parameters" :
   [
    {
     "is_this_ptr" : true,
     "referenced_type" : "_ZTIPN4aidl7android8hardware6common3fmq12MQDescriptorIaNS3_21SynchronizedReadWriteEEE#ODR:out/soong/.intermediates/hardware/interfaces/camera/device/aidl/android.hardware.camera.device-V1-ndk/android_vendor.33_x86_x86_64_static/obj/.intermediates/hardware/interfaces/camera/device/aidl/android.hardware.camera.device-V1-ndk-source/gen/android/hardware/camera/device/ICameraDeviceSession.sdump"
    },
    {
     "referenced_type" : "_ZTIPK7AParcel"
    }
   ],
   "return_type" : "_ZTIi",
   "source_file" : "out/soong/.intermediates/hardware/interfaces/common/fmq/aidl/android.hardware.common.fmq-V1-ndk-source/gen/include/aidl/android/hardware/common/fmq/MQDescriptor.h"
  },
  {
   "function_name" : "aidl::android::hardware::camera::device::CameraBlob::writeToParcel",
   "linker_set_key" : "_ZNK4aidl7android8hardware6camera6device10CameraBlob13writeToParcelEP7AParcel",
   "parameters" :
   [
    {
     "is_this_ptr" : true,
     "referenced_type" : "_ZTIPKN4aidl7android8hardware6camera6device10CameraBlobE"
    },
    {
     "referenced_type" : "_ZTIP7AParcel"
    }
   ],
   "return_type" : "_ZTIi",
   "source_file" : "out/soong/.intermediates/hardware/interfaces/camera/device/aidl/android.hardware.camera.device-V1-ndk-source/gen/include/aidl/android/hardware/camera/device/CameraBlob.h"
  },
  {
   "function_name" : "aidl::android::hardware::camera::device::ShutterMsg::writeToParcel",
   "linker_set_key" : "_ZNK4aidl7android8hardware6camera6device10ShutterMsg13writeToParcelEP7AParcel",
   "parameters" :
   [
    {
     "is_this_ptr" : true,
     "referenced_type" : "_ZTIPKN4aidl7android8hardware6camera6device10ShutterMsgE"
    },
    {
     "referenced_type" : "_ZTIP7AParcel"
    }
   ],
   "return_type" : "_ZTIi",
   "source_file" : "out/soong/.intermediates/hardware/interfaces/camera/device/aidl/android.hardware.camera.device-V1-ndk-source/gen/include/aidl/android/hardware/camera/device/ShutterMsg.h"
  },
  {
   "function_name" : "aidl::android::hardware::camera::device::BufferCache::writeToParcel",
   "linker_set_key" : "_ZNK4aidl7android8hardware6camera6device11BufferCache13writeToParcelEP7AParcel",
   "parameters" :
   [
    {
     "is_this_ptr" : true,
     "referenced_type" : "_ZTIPKN4aidl7android8hardware6camera6device11BufferCacheE"
    },
    {
     "referenced_type" : "_ZTIP7AParcel"
    }
   ],
   "return_type" : "_ZTIi",
   "source_file" : "out/soong/.intermediates/hardware/interfaces/camera/device/aidl/android.hardware.camera.device-V1-ndk-source/gen/include/aidl/android/hardware/camera/device/BufferCache.h"
  },
  {
   "function_name" : "aidl::android::hardware::camera::device::StreamBuffer::writeToParcel",
   "linker_set_key" : "_ZNK4aidl7android8hardware6camera6device12StreamBuffer13writeToParcelEP7AParcel",
   "parameters" :
   [
    {
     "is_this_ptr" : true,
     "referenced_type" : "_ZTIPKN4aidl7android8hardware6camera6device12StreamBufferE"
    },
    {
     "referenced_type" : "_ZTIP7AParcel"
    }
   ],
   "return_type" : "_ZTIi",
   "source_file" : "out/soong/.intermediates/hardware/interfaces/camera/device/aidl/android.hardware.camera.device-V1-ndk-source/gen/include/aidl/android/hardware/camera/device/StreamBuffer.h"
  },
  {
   "function_name" : "aidl::android::hardware::camera::device::BufferRequest::writeToParcel",
   "linker_set_key" : "_ZNK4aidl7android8hardware6camera6device13BufferRequest13writeToParcelEP7AParcel",
   "parameters" :
   [
    {
     "is_this_ptr" : true,
     "referenced_type" : "_ZTIPKN4aidl7android8hardware6camera6device13BufferRequestE"
    },
    {
     "referenced_type" : "_ZTIP7AParcel"
    }
   ],
   "return_type" : "_ZTIi",
   "source_file" : "out/soong/.intermediates/hardware/interfaces/camera/device/aidl/android.hardware.camera.device-V1-ndk-source/gen/include/aidl/android/hardware/camera/device/BufferRequest.h"
  },
  {
   "function_name" : "aidl::android::hardware::camera::device::CaptureResult::writeToParcel",
   "linker_set_key" : "_ZNK4aidl7android8hardware6camera6device13CaptureResult13writeToParcelEP7AParcel",
   "parameters" :
   [
    {
     "is_this_ptr" : true,
     "referenced_type" : "_ZTIPKN4aidl7android8hardware6camera6device13CaptureResultE"
    },
    {
     "referenced_type" : "_ZTIP7AParcel"
    }
   ],
   "return_type" : "_ZTIi",
   "source_file" : "out/soong/.intermediates/hardware/interfaces/camera/device/aidl/android.hardware.camera.device-V1-ndk-source/gen/include/aidl/android/hardware/camera/device/CaptureResult.h"
  },
  {
   "function_name" : "aidl::android::hardware::camera::device::OfflineStream::writeToParcel",
   "linker_set_key" : "_ZNK4aidl7android8hardware6camera6device13OfflineStream13writeToParcelEP7AParcel",
   "parameters" :
   [
    {
     "is_this_ptr" : true,
     "referenced_type" : "_ZTIPKN4aidl7android8hardware6camera6device13OfflineStreamE"
    },
    {
     "referenced_type" : "_ZTIP7AParcel"
    }
   ],
   "return_type" : "_ZTIi",
   "source_file" : "out/soong/.intermediates/hardware/interfaces/camera/device/aidl/android.hardware.camera.device-V1-ndk-source/gen/include/aidl/android/hardware/camera/device/OfflineStream.h"
  },
  {
   "function_name" : "aidl::android::hardware::camera::device::CameraMetadata::writeToParcel",
   "linker_set_key" : "_ZNK4aidl7android8hardware6camera6device14CameraMetadata13writeToParcelEP7AParcel",
   "parameters" :
   [
    {
     "is_this_ptr" : true,
     "referenced_type" : "_ZTIPKN4aidl7android8hardware6camera6device14CameraMetadataE"
    },
    {
     "referenced_type" : "_ZTIP7AParcel"
    }
   ],
   "return_type" : "_ZTIi",
   "source_file" : "out/soong/.intermediates/hardware/interfaces/camera/device/aidl/android.hardware.camera.device-V1-ndk-source/gen/include/aidl/android/hardware/camera/device/CameraMetadata.h"
  },
  {
   "function_name" : "aidl::android::hardware::camera::device::CaptureRequest::writeToParcel",
   "linker_set_key" : "_ZNK4aidl7android8hardware6camera6device14CaptureRequest13writeToParcelEP7AParcel",
   "parameters" :
   [
    {
     "is_this_ptr" : true,
     "referenced_type" : "_ZTIPKN4aidl7android8hardware6camera6device14CaptureRequestE"
    },
    {
     "referenced_type" : "_ZTIP7AParcel"
    }
   ],
   "return_type" : "_ZTIi",
   "source_file" : "out/soong/.intermediates/hardware/interfaces/camera/device/aidl/android.hardware.camera.device-V1-ndk-source/gen/include/aidl/android/hardware/camera/device/CaptureRequest.h"
  },
  {
   "function_name" : "aidl::android::hardware::camera::device::OfflineRequest::writeToParcel",
   "linker_set_key" : "_ZNK4aidl7android8hardware6camera6device14OfflineRequest13writeToParcelEP7AParcel",
   "parameters" :
   [
    {
     "is_this_ptr" : true,
     "referenced_type" : "_ZTIPKN4aidl7android8hardware6camera6device14OfflineRequestE"
    },
    {
     "referenced_type" : "_ZTIP7AParcel"
    }
   ],
   "return_type" : "_ZTIi",
   "source_file" : "out/soong/.intermediates/hardware/interfaces/camera/device/aidl/android.hardware.camera.device-V1-ndk-source/gen/include/aidl/android/hardware/camera/device/OfflineRequest.h"
  },
  {
   "function_name" : "aidl::android::hardware::camera::device::StreamBufferRet::writeToParcel",
   "linker_set_key" : "_ZNK4aidl7android8hardware6camera6device15StreamBufferRet13writeToParcelEP7AParcel",
   "parameters" :
   [
    {
     "is_this_ptr" : true,
     "referenced_type" : "_ZTIPKN4aidl7android8hardware6camera6device15StreamBufferRetE"
    },
    {
     "referenced_type" : "_ZTIP7AParcel"
    }
   ],
   "return_type" : "_ZTIi",
   "source_file" : "out/soong/.intermediates/hardware/interfaces/camera/device/aidl/android.hardware.camera.device-V1-ndk-source/gen/include/aidl/android/hardware/camera/device/StreamBufferRet.h"
  },
  {
   "function_name" : "aidl::android::hardware::camera::device::StreamBuffersVal::writeToParcel",
   "linker_set_key" : "_ZNK4aidl7android8hardware6camera6device16StreamBuffersVal13writeToParcelEP7AParcel",
   "parameters" :
   [
    {
     "is_this_ptr" : true,
     "referenced_type" : "_ZTIPKN4aidl7android8hardware6camera6device16StreamBuffersValE"
    },
    {
     "referenced_type" : "_ZTIP7AParcel"
    }
   ],
   "return_type" : "_ZTIi",
   "source_file" : "out/soong/.intermediates/hardware/interfaces/camera/device/aidl/android.hardware.camera.device-V1-ndk-source/gen/include/aidl/android/hardware/camera/device/StreamBuffersVal.h"
  },
  {
   "function_name" : "aidl::android::hardware::camera::device::StreamConfiguration::writeToParcel",
   "linker_set_key" : "_ZNK4aidl7android8hardware6camera6device19StreamConfiguration13writeToParcelEP7AParcel",
   "parameters" :
   [
    {
     "is_this_ptr" : true,
     "referenced_type" : "_ZTIPKN4aidl7android8hardware6camera6device19StreamConfigurationE"
    },
    {
     "referenced_type" : "_ZTIP7AParcel"
    }
   ],
   "return_type" : "_ZTIi",
   "source_file" : "out/soong/.intermediates/hardware/interfaces/camera/device/aidl/android.hardware.camera.device-V1-ndk-source/gen/include/aidl/android/hardware/camera/device/StreamConfiguration.h"
  },
  {
   "function_name" : "aidl::android::hardware::camera::device::PhysicalCameraSetting::writeToParcel",
   "linker_set_key" : "_ZNK4aidl7android8hardware6camera6device21PhysicalCameraSetting13writeToParcelEP7AParcel",
   "parameters" :
   [
    {
     "is_this_ptr" : true,
     "referenced_type" : "_ZTIPKN4aidl7android8hardware6camera6device21PhysicalCameraSettingE"
    },
    {
     "referenced_type" : "_ZTIP7AParcel"
    }
   ],
   "return_type" : "_ZTIi",
   "source_file" : "out/soong/.intermediates/hardware/interfaces/camera/device/aidl/android.hardware.camera.device-V1-ndk-source/gen/include/aidl/android/hardware/camera/device/PhysicalCameraSetting.h"
  },
  {
   "function_name" : "aidl::android::hardware::camera::device::PhysicalCameraMetadata::writeToParcel",
   "linker_set_key" : "_ZNK4aidl7android8hardware6camera6device22PhysicalCameraMetadata13writeToParcelEP7AParcel",
   "parameters" :
   [
    {
     "is_this_ptr" : true,
     "referenced_type" : "_ZTIPKN4aidl7android8hardware6camera6device22PhysicalCameraMetadataE"
    },
    {
     "referenced_type" : "_ZTIP7AParcel"
    }
   ],
   "return_type" : "_ZTIi",
   "source_file" : "out/soong/.intermediates/hardware/interfaces/camera/device/aidl/android.hardware.camera.device-V1-ndk-source/gen/include/aidl/android/hardware/camera/device/PhysicalCameraMetadata.h"
  },
  {
   "function_name" : "aidl::android::hardware::camera::device::CameraOfflineSessionInfo::writeToParcel",
   "linker_set_key" : "_ZNK4aidl7android8hardware6camera6device24CameraOfflineSessionInfo13writeToParcelEP7AParcel",
   "parameters" :
   [
    {
     "is_this_ptr" : true,
     "referenced_type" : "_ZTIPKN4aidl7android8hardware6camera6device24CameraOfflineSessionInfoE"
    },
    {
     "referenced_type" : "_ZTIP7AParcel"
    }
   ],
   "return_type" : "_ZTIi",
   "source_file" : "out/soong/.intermediates/hardware/interfaces/camera/device/aidl/android.hardware.camera.device-V1-ndk-source/gen/include/aidl/android/hardware/camera/device/CameraOfflineSessionInfo.h"
  },
  {
   "function_name" : "aidl::android::hardware::camera::device::Stream::writeToParcel",
   "linker_set_key" : "_ZNK4aidl7android8hardware6camera6device6Stream13writeToParcelEP7AParcel",
   "parameters" :
   [
    {
     "is_this_ptr" : true,
     "referenced_type" : "_ZTIPKN4aidl7android8hardware6camera6device6StreamE"
    },
    {
     "referenced_type" : "_ZTIP7AParcel"
    }
   ],
   "return_type" : "_ZTIi",
   "source_file" : "out/soong/.intermediates/hardware/interfaces/camera/device/aidl/android.hardware.camera.device-V1-ndk-source/gen/include/aidl/android/hardware/camera/device/Stream.h"
  },
  {
   "function_name" : "aidl::android::hardware::camera::device::ErrorMsg::writeToParcel",
   "linker_set_key" : "_ZNK4aidl7android8hardware6camera6device8ErrorMsg13writeToParcelEP7AParcel",
   "parameters" :
   [
    {
     "is_this_ptr" : true,
     "referenced_type" : "_ZTIPKN4aidl7android8hardware6camera6device8ErrorMsgE"
    },
    {
     "referenced_type" : "_ZTIP7AParcel"
    }
   ],
   "return_type" : "_ZTIi",
   "source_file" : "out/soong/.intermediates/hardware/interfaces/camera/device/aidl/android.hardware.camera.device-V1-ndk-source/gen/include/aidl/android/hardware/camera/device/ErrorMsg.h"
  },
  {
   "function_name" : "aidl::android::hardware::camera::device::HalStream::writeToParcel",
   "linker_set_key" : "_ZNK4aidl7android8hardware6camera6device9HalStream13writeToParcelEP7AParcel",
   "parameters" :
   [
    {
     "is_this_ptr" : true,
     "referenced_type" : "_ZTIPKN4aidl7android8hardware6camera6device9HalStreamE"
    },
    {
     "referenced_type" : "_ZTIP7AParcel"
    }
   ],
   "return_type" : "_ZTIi",
   "source_file" : "out/soong/.intermediates/hardware/interfaces/camera/device/aidl/android.hardware.camera.device-V1-ndk-source/gen/include/aidl/android/hardware/camera/device/HalStream.h"
  },
  {
   "function_name" : "aidl::android::hardware::camera::device::NotifyMsg::writeToParcel",
   "linker_set_key" : "_ZNK4aidl7android8hardware6camera6device9NotifyMsg13writeToParcelEP7AParcel",
   "parameters" :
   [
    {
     "is_this_ptr" : true,
     "referenced_type" : "_ZTIPKN4aidl7android8hardware6camera6device9NotifyMsgE"
    },
    {
     "referenced_type" : "_ZTIP7AParcel"
    }
   ],
   "return_type" : "_ZTIi",
   "source_file" : "out/soong/.intermediates/hardware/interfaces/camera/device/aidl/android.hardware.camera.device-V1-ndk-source/gen/include/aidl/android/hardware/camera/device/NotifyMsg.h"
  },
  {
   "function_name" : "aidl::android::hardware::common::fmq::MQDescriptor<signed char, aidl::android::hardware::common::fmq::SynchronizedReadWrite>::writeToParcel",
   "linker_set_key" : "_ZNK4aidl7android8hardware6common3fmq12MQDescriptorIaNS3_21SynchronizedReadWriteEE13writeToParcelEP7AParcel",
   "parameters" :
   [
    {
     "is_this_ptr" : true,
     "referenced_type" : "_ZTIPKN4aidl7android8hardware6common3fmq12MQDescriptorIaNS3_21SynchronizedReadWriteEEE"
    },
    {
     "referenced_type" : "_ZTIP7AParcel"
    }
   ],
   "return_type" : "_ZTIi",
   "source_file" : "out/soong/.intermediates/hardware/interfaces/common/fmq/aidl/android.hardware.common.fmq-V1-ndk-source/gen/include/aidl/android/hardware/common/fmq/MQDescriptor.h"
  }
 ],
 "global_vars" :
 [
  {
   "linker_set_key" : "_ZN4aidl7android8hardware6camera6device10CameraBlob10descriptorE",
   "name" : "aidl::android::hardware::camera::device::CameraBlob::descriptor",
   "referenced_type" : "_ZTIPKc",
   "source_file" : "out/soong/.intermediates/hardware/interfaces/camera/device/aidl/android.hardware.camera.device-V1-ndk-source/gen/include/aidl/android/hardware/camera/device/CameraBlob.h"
  },
  {
   "linker_set_key" : "_ZN4aidl7android8hardware6camera6device10ShutterMsg10descriptorE",
   "name" : "aidl::android::hardware::camera::device::ShutterMsg::descriptor",
   "referenced_type" : "_ZTIPKc",
   "source_file" : "out/soong/.intermediates/hardware/interfaces/camera/device/aidl/android.hardware.camera.device-V1-ndk-source/gen/include/aidl/android/hardware/camera/device/ShutterMsg.h"
  },
  {
   "linker_set_key" : "_ZN4aidl7android8hardware6camera6device11BufferCache10descriptorE",
   "name" : "aidl::android::hardware::camera::device::BufferCache::descriptor",
   "referenced_type" : "_ZTIPKc",
   "source_file" : "out/soong/.intermediates/hardware/interfaces/camera/device/aidl/android.hardware.camera.device-V1-ndk-source/gen/include/aidl/android/hardware/camera/device/BufferCache.h"
  },
  {
   "linker_set_key" : "_ZN4aidl7android8hardware6camera6device12StreamBuffer10descriptorE",
   "name" : "aidl::android::hardware::camera::device::StreamBuffer::descriptor",
   "referenced_type" : "_ZTIPKc",
   "source_file" : "out/soong/.intermediates/hardware/interfaces/camera/device/aidl/android.hardware.camera.device-V1-ndk-source/gen/include/aidl/android/hardware/camera/device/StreamBuffer.h"
  },
  {
   "linker_set_key" : "_ZN4aidl7android8hardware6camera6device13BufferRequest10descriptorE",
   "name" : "aidl::android::hardware::camera::device::BufferRequest::descriptor",
   "referenced_type" : "_ZTIPKc",
   "source_file" : "out/soong/.intermediates/hardware/interfaces/camera/device/aidl/android.hardware.camera.device-V1-ndk-source/gen/include/aidl/android/hardware/camera/device/BufferRequest.h"
  },
  {
   "linker_set_key" : "_ZN4aidl7android8hardware6camera6device13CaptureResult10descriptorE",
   "name" : "aidl::android::hardware::camera::device::CaptureResult::descriptor",
   "referenced_type" : "_ZTIPKc",
   "source_file" : "out/soong/.intermediates/hardware/interfaces/camera/device/aidl/android.hardware.camera.device-V1-ndk-source/gen/include/aidl/android/hardware/camera/device/CaptureResult.h"
  },
  {
   "linker_set_key" : "_ZN4aidl7android8hardware6camera6device13ICameraDevice10descriptorE",
   "name" : "aidl::android::hardware::camera::device::ICameraDevice::descriptor",
   "referenced_type" : "_ZTIPKc",
   "source_file" : "out/soong/.intermediates/hardware/interfaces/camera/device/aidl/android.hardware.camera.device-V1-ndk-source/gen/include/aidl/android/hardware/camera/device/ICameraDevice.h"
  },
  {
   "access" : "private",
   "linker_set_key" : "_ZN4aidl7android8hardware6camera6device13ICameraDevice12default_implE",
   "name" : "aidl::android::hardware::camera::device::ICameraDevice::default_impl",
   "referenced_type" : "_ZTINSt3__110shared_ptrIN4aidl7android8hardware6camera6device13ICameraDeviceEEE",
   "source_file" : "out/soong/.intermediates/hardware/interfaces/camera/device/aidl/android.hardware.camera.device-V1-ndk-source/gen/include/aidl/android/hardware/camera/device/ICameraDevice.h"
  },
  {
   "linker_set_key" : "_ZN4aidl7android8hardware6camera6device13ICameraDevice4hashE",
   "name" : "aidl::android::hardware::camera::device::ICameraDevice::hash",
   "referenced_type" : "_ZTIKNSt3__112basic_stringIcNS_11char_traitsIcEENS_9allocatorIcEEEE",
   "source_file" : "out/soong/.intermediates/hardware/interfaces/camera/device/aidl/android.hardware.camera.device-V1-ndk-source/gen/include/aidl/android/hardware/camera/device/ICameraDevice.h"
  },
  {
   "linker_set_key" : "_ZN4aidl7android8hardware6camera6device13OfflineStream10descriptorE",
   "name" : "aidl::android::hardware::camera::device::OfflineStream::descriptor",
   "referenced_type" : "_ZTIPKc",
   "source_file" : "out/soong/.intermediates/hardware/interfaces/camera/device/aidl/android.hardware.camera.device-V1-ndk-source/gen/include/aidl/android/hardware/camera/device/OfflineStream.h"
  },
  {
   "linker_set_key" : "_ZN4aidl7android8hardware6camera6device14CameraMetadata10descriptorE",
   "name" : "aidl::android::hardware::camera::device::CameraMetadata::descriptor",
   "referenced_type" : "_ZTIPKc",
   "source_file" : "out/soong/.intermediates/hardware/interfaces/camera/device/aidl/android.hardware.camera.device-V1-ndk-source/gen/include/aidl/android/hardware/camera/device/CameraMetadata.h"
  },
  {
   "linker_set_key" : "_ZN4aidl7android8hardware6camera6device14CaptureRequest10descriptorE",
   "name" : "aidl::android::hardware::camera::device::CaptureRequest::descriptor",
   "referenced_type" : "_ZTIPKc",
   "source_file" : "out/soong/.intermediates/hardware/interfaces/camera/device/aidl/android.hardware.camera.device-V1-ndk-source/gen/include/aidl/android/hardware/camera/device/CaptureRequest.h"
  },
  {
   "linker_set_key" : "_ZN4aidl7android8hardware6camera6device14OfflineRequest10descriptorE",
   "name" : "aidl::android::hardware::camera::device::OfflineRequest::descriptor",
   "referenced_type" : "_ZTIPKc",
   "source_file" : "out/soong/.intermediates/hardware/interfaces/camera/device/aidl/android.hardware.camera.device-V1-ndk-source/gen/include/aidl/android/hardware/camera/device/OfflineRequest.h"
  },
  {
   "linker_set_key" : "_ZN4aidl7android8hardware6camera6device15StreamBufferRet10descriptorE",
   "name" : "aidl::android::hardware::camera::device::StreamBufferRet::descriptor",
   "referenced_type" : "_ZTIPKc",
   "source_file" : "out/soong/.intermediates/hardware/interfaces/camera/device/aidl/android.hardware.camera.device-V1-ndk-source/gen/include/aidl/android/hardware/camera/device/StreamBufferRet.h"
  },
  {
   "linker_set_key" : "_ZN4aidl7android8hardware6camera6device16StreamBuffersVal10descriptorE",
   "name" : "aidl::android::hardware::camera::device::StreamBuffersVal::descriptor",
   "referenced_type" : "_ZTIPKc",
   "source_file" : "out/soong/.intermediates/hardware/interfaces/camera/device/aidl/android.hardware.camera.device-V1-ndk-source/gen/include/aidl/android/hardware/camera/device/StreamBuffersVal.h"
  },
  {
   "linker_set_key" : "_ZN4aidl7android8hardware6camera6device19StreamConfiguration10descriptorE",
   "name" : "aidl::android::hardware::camera::device::StreamConfiguration::descriptor",
   "referenced_type" : "_ZTIPKc",
   "source_file" : "out/soong/.intermediates/hardware/interfaces/camera/device/aidl/android.hardware.camera.device-V1-ndk-source/gen/include/aidl/android/hardware/camera/device/StreamConfiguration.h"
  },
  {
   "linker_set_key" : "_ZN4aidl7android8hardware6camera6device20ICameraDeviceSession10descriptorE",
   "name" : "aidl::android::hardware::camera::device::ICameraDeviceSession::descriptor",
   "referenced_type" : "_ZTIPKc",
   "source_file" : "out/soong/.intermediates/hardware/interfaces/camera/device/aidl/android.hardware.camera.device-V1-ndk-source/gen/include/aidl/android/hardware/camera/device/ICameraDeviceSession.h"
  },
  {
   "access" : "private",
   "linker_set_key" : "_ZN4aidl7android8hardware6camera6device20ICameraDeviceSession12default_implE",
   "name" : "aidl::android::hardware::camera::device::ICameraDeviceSession::default_impl",
   "referenced_type" : "_ZTINSt3__110shared_ptrIN4aidl7android8hardware6camera6device20ICameraDeviceSessionEEE",
   "source_file" : "out/soong/.intermediates/hardware/interfaces/camera/device/aidl/android.hardware.camera.device-V1-ndk-source/gen/include/aidl/android/hardware/camera/device/ICameraDeviceSession.h"
  },
  {
   "linker_set_key" : "_ZN4aidl7android8hardware6camera6device20ICameraDeviceSession4hashE",
   "name" : "aidl::android::hardware::camera::device::ICameraDeviceSession::hash",
   "referenced_type" : "_ZTIKNSt3__112basic_stringIcNS_11char_traitsIcEENS_9allocatorIcEEEE",
   "source_file" : "out/soong/.intermediates/hardware/interfaces/camera/device/aidl/android.hardware.camera.device-V1-ndk-source/gen/include/aidl/android/hardware/camera/device/ICameraDeviceSession.h"
  },
  {
   "linker_set_key" : "_ZN4aidl7android8hardware6camera6device21ICameraDeviceCallback10descriptorE",
   "name" : "aidl::android::hardware::camera::device::ICameraDeviceCallback::descriptor",
   "referenced_type" : "_ZTIPKc",
   "source_file" : "out/soong/.intermediates/hardware/interfaces/camera/device/aidl/android.hardware.camera.device-V1-ndk-source/gen/include/aidl/android/hardware/camera/device/ICameraDeviceCallback.h"
  },
  {
   "access" : "private",
   "linker_set_key" : "_ZN4aidl7android8hardware6camera6device21ICameraDeviceCallback12default_implE",
   "name" : "aidl::android::hardware::camera::device::ICameraDeviceCallback::default_impl",
   "referenced_type" : "_ZTINSt3__110shared_ptrIN4aidl7android8hardware6camera6device21ICameraDeviceCallbackEEE",
   "source_file" : "out/soong/.intermediates/hardware/interfaces/camera/device/aidl/android.hardware.camera.device-V1-ndk-source/gen/include/aidl/android/hardware/camera/device/ICameraDeviceCallback.h"
  },
  {
   "linker_set_key" : "_ZN4aidl7android8hardware6camera6device21ICameraDeviceCallback4hashE",
   "name" : "aidl::android::hardware::camera::device::ICameraDeviceCallback::hash",
   "referenced_type" : "_ZTIKNSt3__112basic_stringIcNS_11char_traitsIcEENS_9allocatorIcEEEE",
   "source_file" : "out/soong/.intermediates/hardware/interfaces/camera/device/aidl/android.hardware.camera.device-V1-ndk-source/gen/include/aidl/android/hardware/camera/device/ICameraDeviceCallback.h"
  },
  {
   "linker_set_key" : "_ZN4aidl7android8hardware6camera6device21ICameraOfflineSession10descriptorE",
   "name" : "aidl::android::hardware::camera::device::ICameraOfflineSession::descriptor",
   "referenced_type" : "_ZTIPKc",
   "source_file" : "out/soong/.intermediates/hardware/interfaces/camera/device/aidl/android.hardware.camera.device-V1-ndk-source/gen/include/aidl/android/hardware/camera/device/ICameraOfflineSession.h"
  },
  {
   "access" : "private",
   "linker_set_key" : "_ZN4aidl7android8hardware6camera6device21ICameraOfflineSession12default_implE",
   "name" : "aidl::android::hardware::camera::device::ICameraOfflineSession::default_impl",
   "referenced_type" : "_ZTINSt3__110shared_ptrIN4aidl7android8hardware6camera6device21ICameraOfflineSessionEEE",
   "source_file" : "out/soong/.intermediates/hardware/interfaces/camera/device/aidl/android.hardware.camera.device-V1-ndk-source/gen/include/aidl/android/hardware/camera/device/ICameraOfflineSession.h"
  },
  {
   "linker_set_key" : "_ZN4aidl7android8hardware6camera6device21ICameraOfflineSession4hashE",
   "name" : "aidl::android::hardware::camera::device::ICameraOfflineSession::hash",
   "referenced_type" : "_ZTIKNSt3__112basic_stringIcNS_11char_traitsIcEENS_9allocatorIcEEEE",
   "source_file" : "out/soong/.intermediates/hardware/interfaces/camera/device/aidl/android.hardware.camera.device-V1-ndk-source/gen/include/aidl/android/hardware/camera/device/ICameraOfflineSession.h"
  },
  {
   "linker_set_key" : "_ZN4aidl7android8hardware6camera6device21PhysicalCameraSetting10descriptorE",
   "name" : "aidl::android::hardware::camera::device::PhysicalCameraSetting::descriptor",
   "referenced_type" : "_ZTIPKc",
   "source_file" : "out/soong/.intermediates/hardware/interfaces/camera/device/aidl/android.hardware.camera.device-V1-ndk-source/gen/include/aidl/android/hardware/camera/device/PhysicalCameraSetting.h"
  },
  {
   "linker_set_key" : "_ZN4aidl7android8hardware6camera6device22PhysicalCameraMetadata10descriptorE",
   "name" : "aidl::android::hardware::camera::device::PhysicalCameraMetadata::descriptor",
   "referenced_type" : "_ZTIPKc",
   "source_file" : "out/soong/.intermediates/hardware/interfaces/camera/device/aidl/android.hardware.camera.device-V1-ndk-source/gen/include/aidl/android/hardware/camera/device/PhysicalCameraMetadata.h"
  },
  {
   "linker_set_key" : "_ZN4aidl7android8hardware6camera6device23ICameraInjectionSession10descriptorE",
   "name" : "aidl::android::hardware::camera::device::ICameraInjectionSession::descriptor",
   "referenced_type" : "_ZTIPKc",
   "source_file" : "out/soong/.intermediates/hardware/interfaces/camera/device/aidl/android.hardware.camera.device-V1-ndk-source/gen/include/aidl/android/hardware/camera/device/ICameraInjectionSession.h"
  },
  {
   "access" : "private",
   "linker_set_key" : "_ZN4aidl7android8hardware6camera6device23ICameraInjectionSession12default_implE",
   "name" : "aidl::android::hardware::camera::device::ICameraInjectionSession::default_impl",
   "referenced_type" : "_ZTINSt3__110shared_ptrIN4aidl7android8hardware6camera6device23ICameraInjectionSessionEEE",
   "source_file" : "out/soong/.intermediates/hardware/interfaces/camera/device/aidl/android.hardware.camera.device-V1-ndk-source/gen/include/aidl/android/hardware/camera/device/ICameraInjectionSession.h"
  },
  {
   "linker_set_key" : "_ZN4aidl7android8hardware6camera6device23ICameraInjectionSession4hashE",
   "name" : "aidl::android::hardware::camera::device::ICameraInjectionSession::hash",
   "referenced_type" : "_ZTIKNSt3__112basic_stringIcNS_11char_traitsIcEENS_9allocatorIcEEEE",
   "source_file" : "out/soong/.intermediates/hardware/interfaces/camera/device/aidl/android.hardware.camera.device-V1-ndk-source/gen/include/aidl/android/hardware/camera/device/ICameraInjectionSession.h"
  },
  {
   "linker_set_key" : "_ZN4aidl7android8hardware6camera6device24CameraOfflineSessionInfo10descriptorE",
   "name" : "aidl::android::hardware::camera::device::CameraOfflineSessionInfo::descriptor",
   "referenced_type" : "_ZTIPKc",
   "source_file" : "out/soong/.intermediates/hardware/interfaces/camera/device/aidl/android.hardware.camera.device-V1-ndk-source/gen/include/aidl/android/hardware/camera/device/CameraOfflineSessionInfo.h"
  },
  {
   "linker_set_key" : "_ZN4aidl7android8hardware6camera6device6Stream10descriptorE",
   "name" : "aidl::android::hardware::camera::device::Stream::descriptor",
   "referenced_type" : "_ZTIPKc",
   "source_file" : "out/soong/.intermediates/hardware/interfaces/camera/device/aidl/android.hardware.camera.device-V1-ndk-source/gen/include/aidl/android/hardware/camera/device/Stream.h"
  },
  {
   "linker_set_key" : "_ZN4aidl7android8hardware6camera6device8ErrorMsg10descriptorE",
   "name" : "aidl::android::hardware::camera::device::ErrorMsg::descriptor",
   "referenced_type" : "_ZTIPKc",
   "source_file" : "out/soong/.intermediates/hardware/interfaces/camera/device/aidl/android.hardware.camera.device-V1-ndk-source/gen/include/aidl/android/hardware/camera/device/ErrorMsg.h"
  },
  {
   "linker_set_key" : "_ZN4aidl7android8hardware6camera6device9HalStream10descriptorE",
   "name" : "aidl::android::hardware::camera::device::HalStream::descriptor",
   "referenced_type" : "_ZTIPKc",
   "source_file" : "out/soong/.intermediates/hardware/interfaces/camera/device/aidl/android.hardware.camera.device-V1-ndk-source/gen/include/aidl/android/hardware/camera/device/HalStream.h"
  },
  {
   "linker_set_key" : "_ZN4aidl7android8hardware6camera6device9NotifyMsg10descriptorE",
   "name" : "aidl::android::hardware::camera::device::NotifyMsg::descriptor",
   "referenced_type" : "_ZTIPKc",
   "source_file" : "out/soong/.intermediates/hardware/interfaces/camera/device/aidl/android.hardware.camera.device-V1-ndk-source/gen/include/aidl/android/hardware/camera/device/NotifyMsg.h"
  }
 ],
 "lvalue_reference_types" :
 [
  {
   "alignment" : 4,
   "linker_set_key" : "_ZTIRKN3ndk10SpAIBinderE",
   "name" : "const ndk::SpAIBinder &",
   "referenced_type" : "_ZTIKN3ndk10SpAIBinderE",
   "self_type" : "_ZTIRKN3ndk10SpAIBinderE",
   "size" : 4,
   "source_file" : "frameworks/native/libs/binder/ndk/include_cpp/android/binder_auto_utils.h"
  },
  {
   "alignment" : 4,
   "linker_set_key" : "_ZTIRKN3ndk13ScopedAParcelE",
   "name" : "const ndk::ScopedAParcel &",
   "referenced_type" : "_ZTIKN3ndk13ScopedAParcelE",
   "self_type" : "_ZTIRKN3ndk13ScopedAParcelE",
   "size" : 4,
   "source_file" : "frameworks/native/libs/binder/ndk/include_cpp/android/binder_auto_utils.h"
  },
  {
   "alignment" : 4,
   "linker_set_key" : "_ZTIRKN3ndk17AParcelableHolderE",
   "name" : "const ndk::AParcelableHolder &",
   "referenced_type" : "_ZTIKN3ndk17AParcelableHolderE",
   "self_type" : "_ZTIRKN3ndk17AParcelableHolderE",
   "size" : 4,
   "source_file" : "frameworks/native/libs/binder/ndk/include_cpp/android/binder_parcelable_utils.h"
  },
  {
   "alignment" : 4,
   "linker_set_key" : "_ZTIRKN3ndk20ScopedFileDescriptorE",
   "name" : "const ndk::ScopedFileDescriptor &",
   "referenced_type" : "_ZTIKN3ndk20ScopedFileDescriptorE",
   "self_type" : "_ZTIRKN3ndk20ScopedFileDescriptorE",
   "size" : 4,
   "source_file" : "frameworks/native/libs/binder/ndk/include_cpp/android/binder_auto_utils.h"
  },
  {
   "alignment" : 4,
   "linker_set_key" : "_ZTIRKN4aidl7android8hardware6camera6common18CameraResourceCostE",
   "name" : "const aidl::android::hardware::camera::common::CameraResourceCost &",
   "referenced_type" : "_ZTIKN4aidl7android8hardware6camera6common18CameraResourceCostE",
   "self_type" : "_ZTIRKN4aidl7android8hardware6camera6common18CameraResourceCostE",
   "size" : 4,
   "source_file" : "out/soong/.intermediates/hardware/interfaces/camera/common/aidl/android.hardware.camera.common-V1-ndk-source/gen/include/aidl/android/hardware/camera/common/CameraResourceCost.h"
  },
  {
   "alignment" : 4,
   "linker_set_key" : "_ZTIRKN4aidl7android8hardware6camera6device10CameraBlobE",
   "name" : "const aidl::android::hardware::camera::device::CameraBlob &",
   "referenced_type" : "_ZTIKN4aidl7android8hardware6camera6device10CameraBlobE",
   "self_type" : "_ZTIRKN4aidl7android8hardware6camera6device10CameraBlobE",
   "size" : 4,
   "source_file" : "out/soong/.intermediates/hardware/interfaces/camera/device/aidl/android.hardware.camera.device-V1-ndk-source/gen/include/aidl/android/hardware/camera/device/CameraBlob.h"
  },
  {
   "alignment" : 4,
   "linker_set_key" : "_ZTIRKN4aidl7android8hardware6camera6device10ShutterMsgE",
   "name" : "const aidl::android::hardware::camera::device::ShutterMsg &",
   "referenced_type" : "_ZTIKN4aidl7android8hardware6camera6device10ShutterMsgE",
   "self_type" : "_ZTIRKN4aidl7android8hardware6camera6device10ShutterMsgE",
   "size" : 4,
   "source_file" : "frameworks/native/libs/binder/ndk/include_cpp/android/binder_to_string.h"
  },
  {
   "alignment" : 4,
   "linker_set_key" : "_ZTIRKN4aidl7android8hardware6camera6device10StreamTypeE",
   "name" : "const aidl::android::hardware::camera::device::StreamType &",
   "referenced_type" : "_ZTIKN4aidl7android8hardware6camera6device10StreamTypeE",
   "self_type" : "_ZTIRKN4aidl7android8hardware6camera6device10StreamTypeE",
   "size" : 4,
   "source_file" : "frameworks/native/libs/binder/ndk/include_cpp/android/binder_to_string.h"
  },
  {
   "alignment" : 4,
   "linker_set_key" : "_ZTIRKN4aidl7android8hardware6camera6device11BufferCacheE",
   "name" : "const aidl::android::hardware::camera::device::BufferCache &",
   "referenced_type" : "_ZTIKN4aidl7android8hardware6camera6device11BufferCacheE",
   "self_type" : "_ZTIRKN4aidl7android8hardware6camera6device11BufferCacheE",
   "size" : 4,
   "source_file" : "out/soong/.intermediates/hardware/interfaces/camera/device/aidl/android.hardware.camera.device-V1-ndk-source/gen/include/aidl/android/hardware/camera/device/BufferCache.h"
  },
  {
   "alignment" : 4,
   "linker_set_key" : "_ZTIRKN4aidl7android8hardware6camera6device12BufferStatusE",
   "name" : "const aidl::android::hardware::camera::device::BufferStatus &",
   "referenced_type" : "_ZTIKN4aidl7android8hardware6camera6device12BufferStatusE",
   "self_type" : "_ZTIRKN4aidl7android8hardware6camera6device12BufferStatusE",
   "size" : 4,
   "source_file" : "frameworks/native/libs/binder/ndk/include_cpp/android/binder_to_string.h"
  },
  {
   "alignment" : 4,
   "linker_set_key" : "_ZTIRKN4aidl7android8hardware6camera6device12CameraBlobIdE",
   "name" : "const aidl::android::hardware::camera::device::CameraBlobId &",
   "referenced_type" : "_ZTIKN4aidl7android8hardware6camera6device12CameraBlobIdE",
   "self_type" : "_ZTIRKN4aidl7android8hardware6camera6device12CameraBlobIdE",
   "size" : 4,
   "source_file" : "frameworks/native/libs/binder/ndk/include_cpp/android/binder_to_string.h"
  },
  {
   "alignment" : 4,
   "linker_set_key" : "_ZTIRKN4aidl7android8hardware6camera6device12StreamBufferE",
   "name" : "const aidl::android::hardware::camera::device::StreamBuffer &",
   "referenced_type" : "_ZTIKN4aidl7android8hardware6camera6device12StreamBufferE",
   "self_type" : "_ZTIRKN4aidl7android8hardware6camera6device12StreamBufferE",
   "size" : 4,
   "source_file" : "frameworks/native/libs/binder/ndk/include_cpp/android/binder_to_string.h"
  },
  {
   "alignment" : 4,
   "linker_set_key" : "_ZTIRKN4aidl7android8hardware6camera6device13BufferRequestE",
   "name" : "const aidl::android::hardware::camera::device::BufferRequest &",
   "referenced_type" : "_ZTIKN4aidl7android8hardware6camera6device13BufferRequestE",
   "self_type" : "_ZTIRKN4aidl7android8hardware6camera6device13BufferRequestE",
   "size" : 4,
   "source_file" : "out/soong/.intermediates/hardware/interfaces/camera/device/aidl/android.hardware.camera.device-V1-ndk-source/gen/include/aidl/android/hardware/camera/device/BufferRequest.h"
  },
  {
   "alignment" : 4,
   "linker_set_key" : "_ZTIRKN4aidl7android8hardware6camera6device13CaptureResultE",
   "name" : "const aidl::android::hardware::camera::device::CaptureResult &",
   "referenced_type" : "_ZTIKN4aidl7android8hardware6camera6device13CaptureResultE",
   "self_type" : "_ZTIRKN4aidl7android8hardware6camera6device13CaptureResultE",
   "size" : 4,
   "source_file" : "out/soong/.intermediates/hardware/interfaces/camera/device/aidl/android.hardware.camera.device-V1-ndk-source/gen/include/aidl/android/hardware/camera/device/CaptureResult.h"
  },
  {
   "alignment" : 4,
   "linker_set_key" : "_ZTIRKN4aidl7android8hardware6camera6device13OfflineStreamE",
   "name" : "const aidl::android::hardware::camera::device::OfflineStream &",
   "referenced_type" : "_ZTIKN4aidl7android8hardware6camera6device13OfflineStreamE",
   "self_type" : "_ZTIRKN4aidl7android8hardware6camera6device13OfflineStreamE",
   "size" : 4,
   "source_file" : "frameworks/native/libs/binder/ndk/include_cpp/android/binder_to_string.h"
  },
  {
   "alignment" : 4,
   "linker_set_key" : "_ZTIRKN4aidl7android8hardware6camera6device14CameraMetadataE",
   "name" : "const aidl::android::hardware::camera::device::CameraMetadata &",
   "referenced_type" : "_ZTIKN4aidl7android8hardware6camera6device14CameraMetadataE",
   "self_type" : "_ZTIRKN4aidl7android8hardware6camera6device14CameraMetadataE",
   "size" : 4,
   "source_file" : "out/soong/.intermediates/hardware/interfaces/camera/device/aidl/android.hardware.camera.device-V1-ndk-source/gen/include/aidl/android/hardware/camera/device/CameraMetadata.h"
  },
  {
   "alignment" : 4,
   "linker_set_key" : "_ZTIRKN4aidl7android8hardware6camera6device14CaptureRequestE",
   "name" : "const aidl::android::hardware::camera::device::CaptureRequest &",
   "referenced_type" : "_ZTIKN4aidl7android8hardware6camera6device14CaptureRequestE",
   "self_type" : "_ZTIRKN4aidl7android8hardware6camera6device14CaptureRequestE",
   "size" : 4,
   "source_file" : "out/soong/.intermediates/hardware/interfaces/camera/device/aidl/android.hardware.camera.device-V1-ndk-source/gen/include/aidl/android/hardware/camera/device/CaptureRequest.h"
  },
  {
   "alignment" : 4,
   "linker_set_key" : "_ZTIRKN4aidl7android8hardware6camera6device14OfflineRequestE",
   "name" : "const aidl::android::hardware::camera::device::OfflineRequest &",
   "referenced_type" : "_ZTIKN4aidl7android8hardware6camera6device14OfflineRequestE",
   "self_type" : "_ZTIRKN4aidl7android8hardware6camera6device14OfflineRequestE",
   "size" : 4,
   "source_file" : "frameworks/native/libs/binder/ndk/include_cpp/android/binder_to_string.h"
  },
  {
   "alignment" : 4,
   "linker_set_key" : "_ZTIRKN4aidl7android8hardware6camera6device14StreamRotationE",
   "name" : "const aidl::android::hardware::camera::device::StreamRotation &",
   "referenced_type" : "_ZTIKN4aidl7android8hardware6camera6device14StreamRotationE",
   "self_type" : "_ZTIRKN4aidl7android8hardware6camera6device14StreamRotationE",
   "size" : 4,
   "source_file" : "frameworks/native/libs/binder/ndk/include_cpp/android/binder_to_string.h"
  },
  {
   "alignment" : 4,
   "linker_set_key" : "_ZTIRKN4aidl7android8hardware6camera6device15StreamBufferRetE",
   "name" : "const aidl::android::hardware::camera::device::StreamBufferRet &",
   "referenced_type" : "_ZTIKN4aidl7android8hardware6camera6device15StreamBufferRetE",
   "self_type" : "_ZTIRKN4aidl7android8hardware6camera6device15StreamBufferRetE",
   "size" : 4,
   "source_file" : "out/soong/.intermediates/hardware/interfaces/camera/device/aidl/android.hardware.camera.device-V1-ndk-source/gen/include/aidl/android/hardware/camera/device/StreamBufferRet.h"
  },
  {
   "alignment" : 4,
   "linker_set_key" : "_ZTIRKN4aidl7android8hardware6camera6device16StreamBuffersValE",
   "name" : "const aidl::android::hardware::camera::device::StreamBuffersVal &",
   "referenced_type" : "_ZTIKN4aidl7android8hardware6camera6device16StreamBuffersValE",
   "self_type" : "_ZTIRKN4aidl7android8hardware6camera6device16StreamBuffersValE",
   "size" : 4,
   "source_file" : "frameworks/native/libs/binder/ndk/include_cpp/android/binder_to_string.h"
  },
  {
   "alignment" : 4,
   "linker_set_key" : "_ZTIRKN4aidl7android8hardware6camera6device19StreamConfigurationE",
   "name" : "const aidl::android::hardware::camera::device::StreamConfiguration &",
   "referenced_type" : "_ZTIKN4aidl7android8hardware6camera6device19StreamConfigurationE",
   "self_type" : "_ZTIRKN4aidl7android8hardware6camera6device19StreamConfigurationE",
   "size" : 4,
   "source_file" : "out/soong/.intermediates/hardware/interfaces/camera/device/aidl/android.hardware.camera.device-V1-ndk-source/gen/include/aidl/android/hardware/camera/device/StreamConfiguration.h"
  },
  {
   "alignment" : 4,
   "linker_set_key" : "_ZTIRKN4aidl7android8hardware6camera6device21PhysicalCameraSettingE",
   "name" : "const aidl::android::hardware::camera::device::PhysicalCameraSetting &",
   "referenced_type" : "_ZTIKN4aidl7android8hardware6camera6device21PhysicalCameraSettingE",
   "self_type" : "_ZTIRKN4aidl7android8hardware6camera6device21PhysicalCameraSettingE",
   "size" : 4,
   "source_file" : "frameworks/native/libs/binder/ndk/include_cpp/android/binder_to_string.h"
  },
  {
   "alignment" : 4,
   "linker_set_key" : "_ZTIRKN4aidl7android8hardware6camera6device22PhysicalCameraMetadataE",
   "name" : "const aidl::android::hardware::camera::device::PhysicalCameraMetadata &",
   "referenced_type" : "_ZTIKN4aidl7android8hardware6camera6device22PhysicalCameraMetadataE",
   "self_type" : "_ZTIRKN4aidl7android8hardware6camera6device22PhysicalCameraMetadataE",
   "size" : 4,
   "source_file" : "frameworks/native/libs/binder/ndk/include_cpp/android/binder_to_string.h"
  },
  {
   "alignment" : 4,
   "linker_set_key" : "_ZTIRKN4aidl7android8hardware6camera6device23StreamConfigurationModeE",
   "name" : "const aidl::android::hardware::camera::device::StreamConfigurationMode &",
   "referenced_type" : "_ZTIKN4aidl7android8hardware6camera6device23StreamConfigurationModeE",
   "self_type" : "_ZTIRKN4aidl7android8hardware6camera6device23StreamConfigurationModeE",
   "size" : 4,
   "source_file" : "frameworks/native/libs/binder/ndk/include_cpp/android/binder_to_string.h"
  },
  {
   "alignment" : 4,
   "linker_set_key" : "_ZTIRKN4aidl7android8hardware6camera6device24CameraOfflineSessionInfoE",
   "name" : "const aidl::android::hardware::camera::device::CameraOfflineSessionInfo &",
   "referenced_type" : "_ZTIKN4aidl7android8hardware6camera6device24CameraOfflineSessionInfoE",
   "self_type" : "_ZTIRKN4aidl7android8hardware6camera6device24CameraOfflineSessionInfoE",
   "size" : 4,
   "source_file" : "out/soong/.intermediates/hardware/interfaces/camera/device/aidl/android.hardware.camera.device-V1-ndk-source/gen/include/aidl/android/hardware/camera/device/CameraOfflineSessionInfo.h"
  },
  {
   "alignment" : 4,
   "linker_set_key" : "_ZTIRKN4aidl7android8hardware6camera6device24StreamBufferRequestErrorE",
   "name" : "const aidl::android::hardware::camera::device::StreamBufferRequestError &",
   "referenced_type" : "_ZTIKN4aidl7android8hardware6camera6device24StreamBufferRequestErrorE",
   "self_type" : "_ZTIRKN4aidl7android8hardware6camera6device24StreamBufferRequestErrorE",
   "size" : 4,
   "source_file" : "frameworks/native/libs/binder/ndk/include_cpp/android/binder_to_string.h"
  },
  {
   "alignment" : 4,
   "linker_set_key" : "_ZTIRKN4aidl7android8hardware6camera6device6StreamE",
   "name" : "const aidl::android::hardware::camera::device::Stream &",
   "referenced_type" : "_ZTIKN4aidl7android8hardware6camera6device6StreamE",
   "self_type" : "_ZTIRKN4aidl7android8hardware6camera6device6StreamE",
   "size" : 4,
   "source_file" : "frameworks/native/libs/binder/ndk/include_cpp/android/binder_to_string.h"
  },
  {
   "alignment" : 4,
   "linker_set_key" : "_ZTIRKN4aidl7android8hardware6camera6device8ErrorMsgE",
   "name" : "const aidl::android::hardware::camera::device::ErrorMsg &",
   "referenced_type" : "_ZTIKN4aidl7android8hardware6camera6device8ErrorMsgE",
   "self_type" : "_ZTIRKN4aidl7android8hardware6camera6device8ErrorMsgE",
   "size" : 4,
   "source_file" : "out/soong/.intermediates/hardware/interfaces/camera/device/aidl/android.hardware.camera.device-V1-ndk-source/gen/include/aidl/android/hardware/camera/device/ErrorMsg.h"
  },
  {
   "alignment" : 4,
   "linker_set_key" : "_ZTIRKN4aidl7android8hardware6camera6device9ErrorCodeE",
   "name" : "const aidl::android::hardware::camera::device::ErrorCode &",
   "referenced_type" : "_ZTIKN4aidl7android8hardware6camera6device9ErrorCodeE",
   "self_type" : "_ZTIRKN4aidl7android8hardware6camera6device9ErrorCodeE",
   "size" : 4,
   "source_file" : "frameworks/native/libs/binder/ndk/include_cpp/android/binder_to_string.h"
  },
  {
   "alignment" : 4,
   "linker_set_key" : "_ZTIRKN4aidl7android8hardware6camera6device9HalStreamE",
   "name" : "const aidl::android::hardware::camera::device::HalStream &",
   "referenced_type" : "_ZTIKN4aidl7android8hardware6camera6device9HalStreamE",
   "self_type" : "_ZTIRKN4aidl7android8hardware6camera6device9HalStreamE",
   "size" : 4,
   "source_file" : "out/soong/.intermediates/hardware/interfaces/camera/device/aidl/android.hardware.camera.device-V1-ndk-source/gen/include/aidl/android/hardware/camera/device/HalStream.h"
  },
  {
   "alignment" : 4,
   "linker_set_key" : "_ZTIRKN4aidl7android8hardware6camera6device9NotifyMsgE",
   "name" : "const aidl::android::hardware::camera::device::NotifyMsg &",
   "referenced_type" : "_ZTIKN4aidl7android8hardware6camera6device9NotifyMsgE",
   "self_type" : "_ZTIRKN4aidl7android8hardware6camera6device9NotifyMsgE",
   "size" : 4,
   "source_file" : "out/soong/.intermediates/hardware/interfaces/camera/device/aidl/android.hardware.camera.device-V1-ndk-source/gen/include/aidl/android/hardware/camera/device/NotifyMsg.h"
  },
  {
   "alignment" : 4,
   "linker_set_key" : "_ZTIRKN4aidl7android8hardware6camera8metadata15SensorPixelModeE",
   "name" : "const aidl::android::hardware::camera::metadata::SensorPixelMode &",
   "referenced_type" : "_ZTIKN4aidl7android8hardware6camera8metadata15SensorPixelModeE",
   "self_type" : "_ZTIRKN4aidl7android8hardware6camera8metadata15SensorPixelModeE",
   "size" : 4,
   "source_file" : "frameworks/native/libs/binder/ndk/include_cpp/android/binder_to_string.h"
  },
  {
   "alignment" : 4,
   "linker_set_key" : "_ZTIRKN4aidl7android8hardware6camera8metadata29ScalerAvailableStreamUseCasesE",
   "name" : "const aidl::android::hardware::camera::metadata::ScalerAvailableStreamUseCases &",
   "referenced_type" : "_ZTIKN4aidl7android8hardware6camera8metadata29ScalerAvailableStreamUseCasesE",
   "self_type" : "_ZTIRKN4aidl7android8hardware6camera8metadata29ScalerAvailableStreamUseCasesE",
   "size" : 4,
   "source_file" : "frameworks/native/libs/binder/ndk/include_cpp/android/binder_to_string.h"
  },
  {
   "alignment" : 4,
   "linker_set_key" : "_ZTIRKN4aidl7android8hardware6camera8metadata39RequestAvailableDynamicRangeProfilesMapE",
   "name" : "const aidl::android::hardware::camera::metadata::RequestAvailableDynamicRangeProfilesMap &",
   "referenced_type" : "_ZTIKN4aidl7android8hardware6camera8metadata39RequestAvailableDynamicRangeProfilesMapE",
   "self_type" : "_ZTIRKN4aidl7android8hardware6camera8metadata39RequestAvailableDynamicRangeProfilesMapE",
   "size" : 4,
   "source_file" : "frameworks/native/libs/binder/ndk/include_cpp/android/binder_to_string.h"
  },
  {
   "alignment" : 4,
   "linker_set_key" : "_ZTIRKN4aidl7android8hardware6common12NativeHandleE",
   "name" : "const aidl::android::hardware::common::NativeHandle &",
   "referenced_type" : "_ZTIKN4aidl7android8hardware6common12NativeHandleE",
   "self_type" : "_ZTIRKN4aidl7android8hardware6common12NativeHandleE",
   "size" : 4,
   "source_file" : "frameworks/native/libs/binder/ndk/include_cpp/android/binder_to_string.h"
  },
  {
   "alignment" : 4,
   "linker_set_key" : "_ZTIRKN4aidl7android8hardware6common3fmq17GrantorDescriptorE",
   "name" : "const aidl::android::hardware::common::fmq::GrantorDescriptor &",
   "referenced_type" : "_ZTIKN4aidl7android8hardware6common3fmq17GrantorDescriptorE",
   "self_type" : "_ZTIRKN4aidl7android8hardware6common3fmq17GrantorDescriptorE",
   "size" : 4,
   "source_file" : "out/soong/.intermediates/hardware/interfaces/common/fmq/aidl/android.hardware.common.fmq-V1-ndk-source/gen/include/aidl/android/hardware/common/fmq/GrantorDescriptor.h"
  },
  {
   "alignment" : 4,
   "linker_set_key" : "_ZTIRKN4aidl7android8hardware8graphics6common11BufferUsageE",
   "name" : "const aidl::android::hardware::graphics::common::BufferUsage &",
   "referenced_type" : "_ZTIKN4aidl7android8hardware8graphics6common11BufferUsageE",
   "self_type" : "_ZTIRKN4aidl7android8hardware8graphics6common11BufferUsageE",
   "size" : 4,
   "source_file" : "frameworks/native/libs/binder/ndk/include_cpp/android/binder_to_string.h"
  },
  {
   "alignment" : 4,
   "linker_set_key" : "_ZTIRKN4aidl7android8hardware8graphics6common11PixelFormatE",
   "name" : "const aidl::android::hardware::graphics::common::PixelFormat &",
   "referenced_type" : "_ZTIKN4aidl7android8hardware8graphics6common11PixelFormatE",
   "self_type" : "_ZTIRKN4aidl7android8hardware8graphics6common11PixelFormatE",
   "size" : 4,
   "source_file" : "frameworks/native/libs/binder/ndk/include_cpp/android/binder_to_string.h"
  },
  {
   "alignment" : 4,
   "linker_set_key" : "_ZTIRKN4aidl7android8hardware8graphics6common9DataspaceE",
   "name" : "const aidl::android::hardware::graphics::common::Dataspace &",
   "referenced_type" : "_ZTIKN4aidl7android8hardware8graphics6common9DataspaceE",
   "self_type" : "_ZTIRKN4aidl7android8hardware8graphics6common9DataspaceE",
   "size" : 4,
   "source_file" : "frameworks/native/libs/binder/ndk/include_cpp/android/binder_to_string.h"
  },
  {
   "alignment" : 4,
   "linker_set_key" : "_ZTIRKNSt3__110shared_ptrIN4aidl7android8hardware6camera6device13ICameraDeviceEEE",
   "name" : "const std::shared_ptr<aidl::android::hardware::camera::device::ICameraDevice> &",
   "referenced_type" : "_ZTIKNSt3__110shared_ptrIN4aidl7android8hardware6camera6device13ICameraDeviceEEE",
   "self_type" : "_ZTIRKNSt3__110shared_ptrIN4aidl7android8hardware6camera6device13ICameraDeviceEEE",
   "size" : 4,
   "source_file" : "out/soong/.intermediates/hardware/interfaces/camera/device/aidl/android.hardware.camera.device-V1-ndk-source/gen/include/aidl/android/hardware/camera/device/ICameraDevice.h"
  },
  {
   "alignment" : 4,
   "linker_set_key" : "_ZTIRKNSt3__110shared_ptrIN4aidl7android8hardware6camera6device20ICameraDeviceSessionEEE",
   "name" : "const std::shared_ptr<aidl::android::hardware::camera::device::ICameraDeviceSession> &",
   "referenced_type" : "_ZTIKNSt3__110shared_ptrIN4aidl7android8hardware6camera6device20ICameraDeviceSessionEEE",
   "self_type" : "_ZTIRKNSt3__110shared_ptrIN4aidl7android8hardware6camera6device20ICameraDeviceSessionEEE",
   "size" : 4,
   "source_file" : "out/soong/.intermediates/hardware/interfaces/camera/device/aidl/android.hardware.camera.device-V1-ndk-source/gen/include/aidl/android/hardware/camera/device/BnCameraDeviceSession.h"
  },
  {
   "alignment" : 4,
   "linker_set_key" : "_ZTIRKNSt3__110shared_ptrIN4aidl7android8hardware6camera6device21ICameraDeviceCallbackEEE",
   "name" : "const std::shared_ptr<aidl::android::hardware::camera::device::ICameraDeviceCallback> &",
   "referenced_type" : "_ZTIKNSt3__110shared_ptrIN4aidl7android8hardware6camera6device21ICameraDeviceCallbackEEE",
   "self_type" : "_ZTIRKNSt3__110shared_ptrIN4aidl7android8hardware6camera6device21ICameraDeviceCallbackEEE",
   "size" : 4,
   "source_file" : "out/soong/.intermediates/hardware/interfaces/camera/device/aidl/android.hardware.camera.device-V1-ndk-source/gen/include/aidl/android/hardware/camera/device/ICameraDevice.h"
  },
  {
   "alignment" : 4,
   "linker_set_key" : "_ZTIRKNSt3__110shared_ptrIN4aidl7android8hardware6camera6device21ICameraOfflineSessionEEE",
   "name" : "const std::shared_ptr<aidl::android::hardware::camera::device::ICameraOfflineSession> &",
   "referenced_type" : "_ZTIKNSt3__110shared_ptrIN4aidl7android8hardware6camera6device21ICameraOfflineSessionEEE",
   "self_type" : "_ZTIRKNSt3__110shared_ptrIN4aidl7android8hardware6camera6device21ICameraOfflineSessionEEE",
   "size" : 4,
   "source_file" : "out/soong/.intermediates/hardware/interfaces/camera/device/aidl/android.hardware.camera.device-V1-ndk-source/gen/include/aidl/android/hardware/camera/device/BnCameraOfflineSession.h"
  },
  {
   "alignment" : 4,
   "linker_set_key" : "_ZTIRKNSt3__110shared_ptrIN4aidl7android8hardware6camera6device23ICameraInjectionSessionEEE",
   "name" : "const std::shared_ptr<aidl::android::hardware::camera::device::ICameraInjectionSession> &",
   "referenced_type" : "_ZTIKNSt3__110shared_ptrIN4aidl7android8hardware6camera6device23ICameraInjectionSessionEEE",
   "self_type" : "_ZTIRKNSt3__110shared_ptrIN4aidl7android8hardware6camera6device23ICameraInjectionSessionEEE",
   "size" : 4,
   "source_file" : "out/soong/.intermediates/hardware/interfaces/camera/device/aidl/android.hardware.camera.device-V1-ndk-source/gen/include/aidl/android/hardware/camera/device/BnCameraInjectionSession.h"
  },
  {
   "alignment" : 4,
   "linker_set_key" : "_ZTIRKNSt3__112basic_stringIcNS_11char_traitsIcEENS_9allocatorIcEEEE",
   "name" : "const std::basic_string<char, std::char_traits<char>, std::allocator<char>> &",
   "referenced_type" : "_ZTIKNSt3__112basic_stringIcNS_11char_traitsIcEENS_9allocatorIcEEEE",
   "self_type" : "_ZTIRKNSt3__112basic_stringIcNS_11char_traitsIcEENS_9allocatorIcEEEE",
   "size" : 4,
   "source_file" : "frameworks/native/libs/binder/ndk/include_cpp/android/binder_to_string.h"
  },
  {
   "alignment" : 4,
   "linker_set_key" : "_ZTIRKNSt3__16vectorIDsNS_9allocatorIDsEEEE",
   "name" : "const std::vector<char16_t, std::allocator<char16_t>> &",
   "referenced_type" : "_ZTIKNSt3__16vectorIDsNS_9allocatorIDsEEEE",
   "self_type" : "_ZTIRKNSt3__16vectorIDsNS_9allocatorIDsEEEE",
   "size" : 4,
   "source_file" : "frameworks/native/libs/binder/ndk/include_cpp/android/binder_parcel_utils.h"
  },
  {
   "alignment" : 4,
   "linker_set_key" : "_ZTIRKNSt3__16vectorIN3ndk20ScopedFileDescriptorENS_9allocatorIS2_EEEE",
   "name" : "const std::vector<ndk::ScopedFileDescriptor, std::allocator<ndk::ScopedFileDescriptor>> &",
   "referenced_type" : "_ZTIKNSt3__16vectorIN3ndk20ScopedFileDescriptorENS_9allocatorIS2_EEEE",
   "self_type" : "_ZTIRKNSt3__16vectorIN3ndk20ScopedFileDescriptorENS_9allocatorIS2_EEEE",
   "size" : 4,
   "source_file" : "frameworks/native/libs/binder/ndk/include_cpp/android/binder_to_string.h"
  },
  {
   "alignment" : 4,
   "linker_set_key" : "_ZTIRKNSt3__16vectorIN4aidl7android8hardware6camera6device11BufferCacheENS_9allocatorIS6_EEEE",
   "name" : "const std::vector<aidl::android::hardware::camera::device::BufferCache, std::allocator<aidl::android::hardware::camera::device::BufferCache>> &",
   "referenced_type" : "_ZTIKNSt3__16vectorIN4aidl7android8hardware6camera6device11BufferCacheENS_9allocatorIS6_EEEE",
   "self_type" : "_ZTIRKNSt3__16vectorIN4aidl7android8hardware6camera6device11BufferCacheENS_9allocatorIS6_EEEE",
   "size" : 4,
   "source_file" : "out/soong/.intermediates/hardware/interfaces/camera/device/aidl/android.hardware.camera.device-V1-ndk-source/gen/include/aidl/android/hardware/camera/device/BnCameraDeviceSession.h"
  },
  {
   "alignment" : 4,
   "linker_set_key" : "_ZTIRKNSt3__16vectorIN4aidl7android8hardware6camera6device12StreamBufferENS_9allocatorIS6_EEEE",
   "name" : "const std::vector<aidl::android::hardware::camera::device::StreamBuffer, std::allocator<aidl::android::hardware::camera::device::StreamBuffer>> &",
   "referenced_type" : "_ZTIKNSt3__16vectorIN4aidl7android8hardware6camera6device12StreamBufferENS_9allocatorIS6_EEEE",
   "self_type" : "_ZTIRKNSt3__16vectorIN4aidl7android8hardware6camera6device12StreamBufferENS_9allocatorIS6_EEEE",
   "size" : 4,
   "source_file" : "frameworks/native/libs/binder/ndk/include_cpp/android/binder_to_string.h"
  },
  {
   "alignment" : 4,
   "linker_set_key" : "_ZTIRKNSt3__16vectorIN4aidl7android8hardware6camera6device13BufferRequestENS_9allocatorIS6_EEEE",
   "name" : "const std::vector<aidl::android::hardware::camera::device::BufferRequest, std::allocator<aidl::android::hardware::camera::device::BufferRequest>> &",
   "referenced_type" : "_ZTIKNSt3__16vectorIN4aidl7android8hardware6camera6device13BufferRequestENS_9allocatorIS6_EEEE",
   "self_type" : "_ZTIRKNSt3__16vectorIN4aidl7android8hardware6camera6device13BufferRequestENS_9allocatorIS6_EEEE",
   "size" : 4,
   "source_file" : "out/soong/.intermediates/hardware/interfaces/camera/device/aidl/android.hardware.camera.device-V1-ndk-source/gen/include/aidl/android/hardware/camera/device/BnCameraDeviceCallback.h"
  },
  {
   "alignment" : 4,
   "linker_set_key" : "_ZTIRKNSt3__16vectorIN4aidl7android8hardware6camera6device13CaptureResultENS_9allocatorIS6_EEEE",
   "name" : "const std::vector<aidl::android::hardware::camera::device::CaptureResult, std::allocator<aidl::android::hardware::camera::device::CaptureResult>> &",
   "referenced_type" : "_ZTIKNSt3__16vectorIN4aidl7android8hardware6camera6device13CaptureResultENS_9allocatorIS6_EEEE",
   "self_type" : "_ZTIRKNSt3__16vectorIN4aidl7android8hardware6camera6device13CaptureResultENS_9allocatorIS6_EEEE",
   "size" : 4,
   "source_file" : "out/soong/.intermediates/hardware/interfaces/camera/device/aidl/android.hardware.camera.device-V1-ndk-source/gen/include/aidl/android/hardware/camera/device/BnCameraDeviceCallback.h"
  },
  {
   "alignment" : 4,
   "linker_set_key" : "_ZTIRKNSt3__16vectorIN4aidl7android8hardware6camera6device13OfflineStreamENS_9allocatorIS6_EEEE",
   "name" : "const std::vector<aidl::android::hardware::camera::device::OfflineStream, std::allocator<aidl::android::hardware::camera::device::OfflineStream>> &",
   "referenced_type" : "_ZTIKNSt3__16vectorIN4aidl7android8hardware6camera6device13OfflineStreamENS_9allocatorIS6_EEEE",
   "self_type" : "_ZTIRKNSt3__16vectorIN4aidl7android8hardware6camera6device13OfflineStreamENS_9allocatorIS6_EEEE",
   "size" : 4,
   "source_file" : "frameworks/native/libs/binder/ndk/include_cpp/android/binder_to_string.h"
  },
  {
   "alignment" : 4,
   "linker_set_key" : "_ZTIRKNSt3__16vectorIN4aidl7android8hardware6camera6device14CaptureRequestENS_9allocatorIS6_EEEE",
   "name" : "const std::vector<aidl::android::hardware::camera::device::CaptureRequest, std::allocator<aidl::android::hardware::camera::device::CaptureRequest>> &",
   "referenced_type" : "_ZTIKNSt3__16vectorIN4aidl7android8hardware6camera6device14CaptureRequestENS_9allocatorIS6_EEEE",
   "self_type" : "_ZTIRKNSt3__16vectorIN4aidl7android8hardware6camera6device14CaptureRequestENS_9allocatorIS6_EEEE",
   "size" : 4,
   "source_file" : "out/soong/.intermediates/hardware/interfaces/camera/device/aidl/android.hardware.camera.device-V1-ndk-source/gen/include/aidl/android/hardware/camera/device/BnCameraDeviceSession.h"
  },
  {
   "alignment" : 4,
   "linker_set_key" : "_ZTIRKNSt3__16vectorIN4aidl7android8hardware6camera6device14OfflineRequestENS_9allocatorIS6_EEEE",
   "name" : "const std::vector<aidl::android::hardware::camera::device::OfflineRequest, std::allocator<aidl::android::hardware::camera::device::OfflineRequest>> &",
   "referenced_type" : "_ZTIKNSt3__16vectorIN4aidl7android8hardware6camera6device14OfflineRequestENS_9allocatorIS6_EEEE",
   "self_type" : "_ZTIRKNSt3__16vectorIN4aidl7android8hardware6camera6device14OfflineRequestENS_9allocatorIS6_EEEE",
   "size" : 4,
   "source_file" : "frameworks/native/libs/binder/ndk/include_cpp/android/binder_to_string.h"
  },
  {
   "alignment" : 4,
   "linker_set_key" : "_ZTIRKNSt3__16vectorIN4aidl7android8hardware6camera6device21PhysicalCameraSettingENS_9allocatorIS6_EEEE",
   "name" : "const std::vector<aidl::android::hardware::camera::device::PhysicalCameraSetting, std::allocator<aidl::android::hardware::camera::device::PhysicalCameraSetting>> &",
   "referenced_type" : "_ZTIKNSt3__16vectorIN4aidl7android8hardware6camera6device21PhysicalCameraSettingENS_9allocatorIS6_EEEE",
   "self_type" : "_ZTIRKNSt3__16vectorIN4aidl7android8hardware6camera6device21PhysicalCameraSettingENS_9allocatorIS6_EEEE",
   "size" : 4,
   "source_file" : "frameworks/native/libs/binder/ndk/include_cpp/android/binder_to_string.h"
  },
  {
   "alignment" : 4,
   "linker_set_key" : "_ZTIRKNSt3__16vectorIN4aidl7android8hardware6camera6device22PhysicalCameraMetadataENS_9allocatorIS6_EEEE",
   "name" : "const std::vector<aidl::android::hardware::camera::device::PhysicalCameraMetadata, std::allocator<aidl::android::hardware::camera::device::PhysicalCameraMetadata>> &",
   "referenced_type" : "_ZTIKNSt3__16vectorIN4aidl7android8hardware6camera6device22PhysicalCameraMetadataENS_9allocatorIS6_EEEE",
   "self_type" : "_ZTIRKNSt3__16vectorIN4aidl7android8hardware6camera6device22PhysicalCameraMetadataENS_9allocatorIS6_EEEE",
   "size" : 4,
   "source_file" : "frameworks/native/libs/binder/ndk/include_cpp/android/binder_to_string.h"
  },
  {
   "alignment" : 4,
   "linker_set_key" : "_ZTIRKNSt3__16vectorIN4aidl7android8hardware6camera6device6StreamENS_9allocatorIS6_EEEE",
   "name" : "const std::vector<aidl::android::hardware::camera::device::Stream, std::allocator<aidl::android::hardware::camera::device::Stream>> &",
   "referenced_type" : "_ZTIKNSt3__16vectorIN4aidl7android8hardware6camera6device6StreamENS_9allocatorIS6_EEEE",
   "self_type" : "_ZTIRKNSt3__16vectorIN4aidl7android8hardware6camera6device6StreamENS_9allocatorIS6_EEEE",
   "size" : 4,
   "source_file" : "frameworks/native/libs/binder/ndk/include_cpp/android/binder_to_string.h"
  },
  {
   "alignment" : 4,
   "linker_set_key" : "_ZTIRKNSt3__16vectorIN4aidl7android8hardware6camera6device9NotifyMsgENS_9allocatorIS6_EEEE",
   "name" : "const std::vector<aidl::android::hardware::camera::device::NotifyMsg, std::allocator<aidl::android::hardware::camera::device::NotifyMsg>> &",
   "referenced_type" : "_ZTIKNSt3__16vectorIN4aidl7android8hardware6camera6device9NotifyMsgENS_9allocatorIS6_EEEE",
   "self_type" : "_ZTIRKNSt3__16vectorIN4aidl7android8hardware6camera6device9NotifyMsgENS_9allocatorIS6_EEEE",
   "size" : 4,
   "source_file" : "out/soong/.intermediates/hardware/interfaces/camera/device/aidl/android.hardware.camera.device-V1-ndk-source/gen/include/aidl/android/hardware/camera/device/BnCameraDeviceCallback.h"
  },
  {
   "alignment" : 4,
   "linker_set_key" : "_ZTIRKNSt3__16vectorIN4aidl7android8hardware6camera8metadata15SensorPixelModeENS_9allocatorIS6_EEEE",
   "name" : "const std::vector<aidl::android::hardware::camera::metadata::SensorPixelMode, std::allocator<aidl::android::hardware::camera::metadata::SensorPixelMode>> &",
   "referenced_type" : "_ZTIKNSt3__16vectorIN4aidl7android8hardware6camera8metadata15SensorPixelModeENS_9allocatorIS6_EEEE",
   "self_type" : "_ZTIRKNSt3__16vectorIN4aidl7android8hardware6camera8metadata15SensorPixelModeENS_9allocatorIS6_EEEE",
   "size" : 4,
   "source_file" : "frameworks/native/libs/binder/ndk/include_cpp/android/binder_to_string.h"
  },
  {
   "alignment" : 4,
   "linker_set_key" : "_ZTIRKNSt3__16vectorINS_12basic_stringIcNS_11char_traitsIcEENS_9allocatorIcEEEENS4_IS6_EEEE",
   "name" : "const std::vector<std::basic_string<char, std::char_traits<char>, std::allocator<char>>, std::allocator<std::basic_string<char, std::char_traits<char>, std::allocator<char>>>> &",
   "referenced_type" : "_ZTIKNSt3__16vectorINS_12basic_stringIcNS_11char_traitsIcEENS_9allocatorIcEEEENS4_IS6_EEEE",
   "self_type" : "_ZTIRKNSt3__16vectorINS_12basic_stringIcNS_11char_traitsIcEENS_9allocatorIcEEEENS4_IS6_EEEE",
   "size" : 4,
   "source_file" : "frameworks/native/libs/binder/ndk/include_cpp/android/binder_to_string.h"
  },
  {
   "alignment" : 4,
   "linker_set_key" : "_ZTIRKNSt3__16vectorIbNS_9allocatorIbEEEE",
   "name" : "const std::vector<bool, std::allocator<bool>> &",
   "referenced_type" : "_ZTIKNSt3__16vectorIbNS_9allocatorIbEEEE",
   "self_type" : "_ZTIRKNSt3__16vectorIbNS_9allocatorIbEEEE",
   "size" : 4,
   "source_file" : "frameworks/native/libs/binder/ndk/include_cpp/android/binder_parcel_utils.h"
  },
  {
   "alignment" : 4,
   "linker_set_key" : "_ZTIRKNSt3__16vectorIdNS_9allocatorIdEEEE",
   "name" : "const std::vector<double, std::allocator<double>> &",
   "referenced_type" : "_ZTIKNSt3__16vectorIdNS_9allocatorIdEEEE",
   "self_type" : "_ZTIRKNSt3__16vectorIdNS_9allocatorIdEEEE",
   "size" : 4,
   "source_file" : "frameworks/native/libs/binder/ndk/include_cpp/android/binder_parcel_utils.h"
  },
  {
   "alignment" : 4,
   "linker_set_key" : "_ZTIRKNSt3__16vectorIfNS_9allocatorIfEEEE",
   "name" : "const std::vector<float, std::allocator<float>> &",
   "referenced_type" : "_ZTIKNSt3__16vectorIfNS_9allocatorIfEEEE",
   "self_type" : "_ZTIRKNSt3__16vectorIfNS_9allocatorIfEEEE",
   "size" : 4,
   "source_file" : "frameworks/native/libs/binder/ndk/include_cpp/android/binder_parcel_utils.h"
  },
  {
   "alignment" : 4,
   "linker_set_key" : "_ZTIRKNSt3__16vectorIhNS_9allocatorIhEEEE",
   "name" : "const std::vector<unsigned char, std::allocator<unsigned char>> &",
   "referenced_type" : "_ZTIKNSt3__16vectorIhNS_9allocatorIhEEEE",
   "self_type" : "_ZTIRKNSt3__16vectorIhNS_9allocatorIhEEEE",
   "size" : 4,
   "source_file" : "frameworks/native/libs/binder/ndk/include_cpp/android/binder_parcel_utils.h"
  },
  {
   "alignment" : 4,
   "linker_set_key" : "_ZTIRKNSt3__16vectorIiNS_9allocatorIiEEEE",
   "name" : "const std::vector<int, std::allocator<int>> &",
   "referenced_type" : "_ZTIKNSt3__16vectorIiNS_9allocatorIiEEEE",
   "self_type" : "_ZTIRKNSt3__16vectorIiNS_9allocatorIiEEEE",
   "size" : 4,
   "source_file" : "frameworks/native/libs/binder/ndk/include_cpp/android/binder_parcel_utils.h"
  },
  {
   "alignment" : 4,
   "linker_set_key" : "_ZTIRKNSt3__16vectorIjNS_9allocatorIjEEEE",
   "name" : "const std::vector<unsigned int, std::allocator<unsigned int>> &",
   "referenced_type" : "_ZTIKNSt3__16vectorIjNS_9allocatorIjEEEE",
   "self_type" : "_ZTIRKNSt3__16vectorIjNS_9allocatorIjEEEE",
   "size" : 4,
   "source_file" : "frameworks/native/libs/binder/ndk/include_cpp/android/binder_parcel_utils.h"
  },
  {
   "alignment" : 4,
   "linker_set_key" : "_ZTIRKNSt3__16vectorIxNS_9allocatorIxEEEE",
   "name" : "const std::vector<long long, std::allocator<long long>> &",
   "referenced_type" : "_ZTIKNSt3__16vectorIxNS_9allocatorIxEEEE",
   "self_type" : "_ZTIRKNSt3__16vectorIxNS_9allocatorIxEEEE",
   "size" : 4,
   "source_file" : "frameworks/native/libs/binder/ndk/include_cpp/android/binder_parcel_utils.h"
  },
  {
   "alignment" : 4,
   "linker_set_key" : "_ZTIRKNSt3__16vectorIyNS_9allocatorIyEEEE",
   "name" : "const std::vector<unsigned long long, std::allocator<unsigned long long>> &",
   "referenced_type" : "_ZTIKNSt3__16vectorIyNS_9allocatorIyEEEE",
   "self_type" : "_ZTIRKNSt3__16vectorIyNS_9allocatorIyEEEE",
   "size" : 4,
   "source_file" : "frameworks/native/libs/binder/ndk/include_cpp/android/binder_parcel_utils.h"
  },
  {
   "alignment" : 4,
   "linker_set_key" : "_ZTIRKNSt3__18optionalINS_6vectorIDsNS_9allocatorIDsEEEEEE",
   "name" : "const std::optional<std::vector<char16_t, std::allocator<char16_t>>> &",
   "referenced_type" : "_ZTIKNSt3__18optionalINS_6vectorIDsNS_9allocatorIDsEEEEEE",
   "self_type" : "_ZTIRKNSt3__18optionalINS_6vectorIDsNS_9allocatorIDsEEEEEE",
   "size" : 4,
   "source_file" : "frameworks/native/libs/binder/ndk/include_cpp/android/binder_parcel_utils.h"
  },
  {
   "alignment" : 4,
   "linker_set_key" : "_ZTIRKNSt3__18optionalINS_6vectorIbNS_9allocatorIbEEEEEE",
   "name" : "const std::optional<std::vector<bool, std::allocator<bool>>> &",
   "referenced_type" : "_ZTIKNSt3__18optionalINS_6vectorIbNS_9allocatorIbEEEEEE",
   "self_type" : "_ZTIRKNSt3__18optionalINS_6vectorIbNS_9allocatorIbEEEEEE",
   "size" : 4,
   "source_file" : "frameworks/native/libs/binder/ndk/include_cpp/android/binder_parcel_utils.h"
  },
  {
   "alignment" : 4,
   "linker_set_key" : "_ZTIRKNSt3__18optionalINS_6vectorIdNS_9allocatorIdEEEEEE",
   "name" : "const std::optional<std::vector<double, std::allocator<double>>> &",
   "referenced_type" : "_ZTIKNSt3__18optionalINS_6vectorIdNS_9allocatorIdEEEEEE",
   "self_type" : "_ZTIRKNSt3__18optionalINS_6vectorIdNS_9allocatorIdEEEEEE",
   "size" : 4,
   "source_file" : "frameworks/native/libs/binder/ndk/include_cpp/android/binder_parcel_utils.h"
  },
  {
   "alignment" : 4,
   "linker_set_key" : "_ZTIRKNSt3__18optionalINS_6vectorIfNS_9allocatorIfEEEEEE",
   "name" : "const std::optional<std::vector<float, std::allocator<float>>> &",
   "referenced_type" : "_ZTIKNSt3__18optionalINS_6vectorIfNS_9allocatorIfEEEEEE",
   "self_type" : "_ZTIRKNSt3__18optionalINS_6vectorIfNS_9allocatorIfEEEEEE",
   "size" : 4,
   "source_file" : "frameworks/native/libs/binder/ndk/include_cpp/android/binder_parcel_utils.h"
  },
  {
   "alignment" : 4,
   "linker_set_key" : "_ZTIRKNSt3__18optionalINS_6vectorIhNS_9allocatorIhEEEEEE",
   "name" : "const std::optional<std::vector<unsigned char, std::allocator<unsigned char>>> &",
   "referenced_type" : "_ZTIKNSt3__18optionalINS_6vectorIhNS_9allocatorIhEEEEEE",
   "self_type" : "_ZTIRKNSt3__18optionalINS_6vectorIhNS_9allocatorIhEEEEEE",
   "size" : 4,
   "source_file" : "frameworks/native/libs/binder/ndk/include_cpp/android/binder_parcel_utils.h"
  },
  {
   "alignment" : 4,
   "linker_set_key" : "_ZTIRKNSt3__18optionalINS_6vectorIiNS_9allocatorIiEEEEEE",
   "name" : "const std::optional<std::vector<int, std::allocator<int>>> &",
   "referenced_type" : "_ZTIKNSt3__18optionalINS_6vectorIiNS_9allocatorIiEEEEEE",
   "self_type" : "_ZTIRKNSt3__18optionalINS_6vectorIiNS_9allocatorIiEEEEEE",
   "size" : 4,
   "source_file" : "frameworks/native/libs/binder/ndk/include_cpp/android/binder_parcel_utils.h"
  },
  {
   "alignment" : 4,
   "linker_set_key" : "_ZTIRKNSt3__18optionalINS_6vectorIjNS_9allocatorIjEEEEEE",
   "name" : "const std::optional<std::vector<unsigned int, std::allocator<unsigned int>>> &",
   "referenced_type" : "_ZTIKNSt3__18optionalINS_6vectorIjNS_9allocatorIjEEEEEE",
   "self_type" : "_ZTIRKNSt3__18optionalINS_6vectorIjNS_9allocatorIjEEEEEE",
   "size" : 4,
   "source_file" : "frameworks/native/libs/binder/ndk/include_cpp/android/binder_parcel_utils.h"
  },
  {
   "alignment" : 4,
   "linker_set_key" : "_ZTIRKNSt3__18optionalINS_6vectorIxNS_9allocatorIxEEEEEE",
   "name" : "const std::optional<std::vector<long long, std::allocator<long long>>> &",
   "referenced_type" : "_ZTIKNSt3__18optionalINS_6vectorIxNS_9allocatorIxEEEEEE",
   "self_type" : "_ZTIRKNSt3__18optionalINS_6vectorIxNS_9allocatorIxEEEEEE",
   "size" : 4,
   "source_file" : "frameworks/native/libs/binder/ndk/include_cpp/android/binder_parcel_utils.h"
  },
  {
   "alignment" : 4,
   "linker_set_key" : "_ZTIRKNSt3__18optionalINS_6vectorIyNS_9allocatorIyEEEEEE",
   "name" : "const std::optional<std::vector<unsigned long long, std::allocator<unsigned long long>>> &",
   "referenced_type" : "_ZTIKNSt3__18optionalINS_6vectorIyNS_9allocatorIyEEEEEE",
   "self_type" : "_ZTIRKNSt3__18optionalINS_6vectorIyNS_9allocatorIyEEEEEE",
   "size" : 4,
   "source_file" : "frameworks/native/libs/binder/ndk/include_cpp/android/binder_parcel_utils.h"
  },
  {
   "alignment" : 4,
   "linker_set_key" : "_ZTIRKb",
   "name" : "const bool &",
   "referenced_type" : "_ZTIKb",
   "self_type" : "_ZTIRKb",
   "size" : 4,
   "source_file" : "frameworks/native/libs/binder/ndk/include_cpp/android/binder_to_string.h"
  },
  {
   "alignment" : 4,
   "linker_set_key" : "_ZTIRKh",
   "name" : "const unsigned char &",
   "referenced_type" : "_ZTIKh",
   "self_type" : "_ZTIRKh",
   "size" : 4,
   "source_file" : "frameworks/native/libs/binder/ndk/include_cpp/android/binder_to_string.h"
  },
  {
   "alignment" : 4,
   "linker_set_key" : "_ZTIRKi",
   "name" : "const int &",
   "referenced_type" : "_ZTIKi",
   "self_type" : "_ZTIRKi",
   "size" : 4,
   "source_file" : "frameworks/native/libs/binder/ndk/include_cpp/android/binder_to_string.h"
  },
  {
   "alignment" : 4,
   "linker_set_key" : "_ZTIRKx",
   "name" : "const long long &",
   "referenced_type" : "_ZTIKx",
   "self_type" : "_ZTIRKx",
   "size" : 4,
   "source_file" : "frameworks/native/libs/binder/ndk/include_cpp/android/binder_to_string.h"
  },
  {
   "alignment" : 4,
   "linker_set_key" : "_ZTIRN3ndk10SpAIBinderE",
   "name" : "ndk::SpAIBinder &",
   "referenced_type" : "_ZTIN3ndk10SpAIBinderE",
   "self_type" : "_ZTIRN3ndk10SpAIBinderE",
   "size" : 4,
   "source_file" : "frameworks/native/libs/binder/ndk/include_cpp/android/binder_auto_utils.h"
  },
  {
   "alignment" : 4,
   "linker_set_key" : "_ZTIRN3ndk13ScopedAParcelE",
   "name" : "ndk::ScopedAParcel &",
   "referenced_type" : "_ZTIN3ndk13ScopedAParcelE",
   "self_type" : "_ZTIRN3ndk13ScopedAParcelE",
   "size" : 4,
   "source_file" : "frameworks/native/libs/binder/ndk/include_cpp/android/binder_auto_utils.h"
  },
  {
   "alignment" : 4,
   "linker_set_key" : "_ZTIRN3ndk13ScopedAStatusE",
   "name" : "ndk::ScopedAStatus &",
   "referenced_type" : "_ZTIN3ndk13ScopedAStatusE",
   "self_type" : "_ZTIRN3ndk13ScopedAStatusE",
   "size" : 4,
   "source_file" : "frameworks/native/libs/binder/ndk/include_cpp/android/binder_auto_utils.h"
  },
  {
   "alignment" : 4,
   "linker_set_key" : "_ZTIRN3ndk19ScopedAIBinder_WeakE",
   "name" : "ndk::ScopedAIBinder_Weak &",
   "referenced_type" : "_ZTIN3ndk19ScopedAIBinder_WeakE",
   "self_type" : "_ZTIRN3ndk19ScopedAIBinder_WeakE",
   "size" : 4,
   "source_file" : "frameworks/native/libs/binder/ndk/include_cpp/android/binder_auto_utils.h"
  },
  {
   "alignment" : 4,
   "linker_set_key" : "_ZTIRN3ndk20ScopedFileDescriptorE",
   "name" : "ndk::ScopedFileDescriptor &",
   "referenced_type" : "_ZTIN3ndk20ScopedFileDescriptorE",
   "self_type" : "_ZTIRN3ndk20ScopedFileDescriptorE",
   "size" : 4,
   "source_file" : "frameworks/native/libs/binder/ndk/include_cpp/android/binder_auto_utils.h"
  },
  {
   "alignment" : 4,
   "linker_set_key" : "_ZTIRN3ndk29ScopedAIBinder_DeathRecipientE",
   "name" : "ndk::ScopedAIBinder_DeathRecipient &",
   "referenced_type" : "_ZTIN3ndk29ScopedAIBinder_DeathRecipientE",
   "self_type" : "_ZTIRN3ndk29ScopedAIBinder_DeathRecipientE",
   "size" : 4,
   "source_file" : "frameworks/native/libs/binder/ndk/include_cpp/android/binder_auto_utils.h"
  },
  {
   "alignment" : 4,
   "linker_set_key" : "_ZTIRN3ndk4impl15ScopedAResourceIP7AStatusXadL_Z14AStatus_deleteEELS3_0EEE",
   "name" : "ndk::impl::ScopedAResource<AStatus *, &AStatus_delete, nullptr> &",
   "referenced_type" : "_ZTIN3ndk4impl15ScopedAResourceIP7AStatusXadL_Z14AStatus_deleteEELS3_0EEE",
   "self_type" : "_ZTIRN3ndk4impl15ScopedAResourceIP7AStatusXadL_Z14AStatus_deleteEELS3_0EEE",
   "size" : 4,
   "source_file" : "frameworks/native/libs/binder/ndk/include_cpp/android/binder_auto_utils.h"
  },
  {
   "alignment" : 4,
   "linker_set_key" : "_ZTIRN4aidl7android8hardware6camera6device10ShutterMsgE",
   "name" : "aidl::android::hardware::camera::device::ShutterMsg &",
   "referenced_type" : "_ZTIN4aidl7android8hardware6camera6device10ShutterMsgE",
   "self_type" : "_ZTIRN4aidl7android8hardware6camera6device10ShutterMsgE",
   "size" : 4,
   "source_file" : "out/soong/.intermediates/hardware/interfaces/camera/device/aidl/android.hardware.camera.device-V1-ndk-source/gen/include/aidl/android/hardware/camera/device/NotifyMsg.h"
  },
  {
   "alignment" : 4,
   "linker_set_key" : "_ZTIRN4aidl7android8hardware6camera6device24StreamBufferRequestErrorE",
   "name" : "aidl::android::hardware::camera::device::StreamBufferRequestError &",
   "referenced_type" : "_ZTIN4aidl7android8hardware6camera6device24StreamBufferRequestErrorE",
   "self_type" : "_ZTIRN4aidl7android8hardware6camera6device24StreamBufferRequestErrorE",
   "size" : 4,
   "source_file" : "out/soong/.intermediates/hardware/interfaces/camera/device/aidl/android.hardware.camera.device-V1-ndk-source/gen/include/aidl/android/hardware/camera/device/StreamBuffersVal.h"
  },
  {
   "alignment" : 4,
   "linker_set_key" : "_ZTIRN4aidl7android8hardware6camera6device8ErrorMsgE",
   "name" : "aidl::android::hardware::camera::device::ErrorMsg &",
   "referenced_type" : "_ZTIN4aidl7android8hardware6camera6device8ErrorMsgE",
   "self_type" : "_ZTIRN4aidl7android8hardware6camera6device8ErrorMsgE",
   "size" : 4,
   "source_file" : "out/soong/.intermediates/hardware/interfaces/camera/device/aidl/android.hardware.camera.device-V1-ndk-source/gen/include/aidl/android/hardware/camera/device/NotifyMsg.h"
  }
 ],
 "pointer_types" :
 [
  {
   "alignment" : 4,
   "linker_set_key" : "_ZTIP13AIBinder_Weak",
   "name" : "AIBinder_Weak *",
   "referenced_type" : "_ZTI13AIBinder_Weak",
   "self_type" : "_ZTIP13AIBinder_Weak",
   "size" : 4,
   "source_file" : "frameworks/native/libs/binder/ndk/include_cpp/android/binder_auto_utils.h"
  },
  {
   "alignment" : 4,
   "linker_set_key" : "_ZTIP14AIBinder_Class",
   "name" : "AIBinder_Class *",
   "referenced_type" : "_ZTI14AIBinder_Class",
   "self_type" : "_ZTIP14AIBinder_Class",
   "size" : 4,
   "source_file" : "frameworks/native/libs/binder/ndk/include_cpp/android/binder_interface_utils.h"
  },
  {
   "alignment" : 4,
   "linker_set_key" : "_ZTIP23AIBinder_DeathRecipient",
   "name" : "AIBinder_DeathRecipient *",
   "referenced_type" : "_ZTI23AIBinder_DeathRecipient",
   "self_type" : "_ZTIP23AIBinder_DeathRecipient",
   "size" : 4,
   "source_file" : "frameworks/native/libs/binder/ndk/include_cpp/android/binder_auto_utils.h"
  },
  {
   "alignment" : 4,
   "linker_set_key" : "_ZTIP7AParcel",
   "name" : "AParcel *",
   "referenced_type" : "_ZTI7AParcel",
   "self_type" : "_ZTIP7AParcel",
   "size" : 4,
   "source_file" : "frameworks/native/libs/binder/ndk/include_cpp/android/binder_auto_utils.h"
  },
  {
   "alignment" : 4,
   "linker_set_key" : "_ZTIP7AStatus",
   "name" : "AStatus *",
   "referenced_type" : "_ZTI7AStatus",
   "self_type" : "_ZTIP7AStatus",
   "size" : 4,
   "source_file" : "frameworks/native/libs/binder/ndk/include_cpp/android/binder_auto_utils.h"
  },
  {
   "alignment" : 4,
   "linker_set_key" : "_ZTIP8AIBinder",
   "name" : "AIBinder *",
   "referenced_type" : "_ZTI8AIBinder",
   "self_type" : "_ZTIP8AIBinder",
   "size" : 4,
   "source_file" : "frameworks/native/libs/binder/ndk/include_cpp/android/binder_auto_utils.h"
  },
  {
   "alignment" : 4,
   "linker_set_key" : "_ZTIPFiP8AIBinderjPK7AParcelPS1_E",
