{
 "array_types" : [],
 "builtin_types" :
 [
  {
   "alignment" : 8,
   "linker_set_key" : "_ZTIDn",
   "name" : "std::nullptr_t",
   "referenced_type" : "_ZTIDn",
   "self_type" : "_ZTIDn",
   "size" : 8
  },
  {
   "alignment" : 1,
   "is_integral" : true,
   "linker_set_key" : "_ZTIa",
   "name" : "signed char",
   "referenced_type" : "_ZTIa",
   "self_type" : "_ZTIa",
   "size" : 1
  },
  {
   "alignment" : 1,
   "is_integral" : true,
   "is_unsigned" : true,
   "linker_set_key" : "_ZTIb",
   "name" : "bool",
   "referenced_type" : "_ZTIb",
   "self_type" : "_ZTIb",
   "size" : 1
  },
  {
   "alignment" : 1,
   "is_integral" : true,
   "is_unsigned" : true,
   "linker_set_key" : "_ZTIc",
   "name" : "char",
   "referenced_type" : "_ZTIc",
   "self_type" : "_ZTIc",
   "size" : 1
  },
  {
   "alignment" : 1,
   "is_integral" : true,
   "is_unsigned" : true,
   "linker_set_key" : "_ZTIh",
   "name" : "unsigned char",
   "referenced_type" : "_ZTIh",
   "self_type" : "_ZTIh",
   "size" : 1
  },
  {
   "alignment" : 4,
   "is_integral" : true,
   "linker_set_key" : "_ZTIi",
   "name" : "int",
   "referenced_type" : "_ZTIi",
   "self_type" : "_ZTIi",
   "size" : 4
  },
  {
   "alignment" : 4,
   "is_integral" : true,
   "is_unsigned" : true,
   "linker_set_key" : "_ZTIj",
   "name" : "unsigned int",
   "referenced_type" : "_ZTIj",
   "self_type" : "_ZTIj",
   "size" : 4
  },
  {
   "alignment" : 8,
   "is_integral" : true,
   "linker_set_key" : "_ZTIl",
   "name" : "long",
   "referenced_type" : "_ZTIl",
   "self_type" : "_ZTIl",
   "size" : 8
  },
  {
   "alignment" : 8,
   "is_integral" : true,
   "is_unsigned" : true,
   "linker_set_key" : "_ZTIm",
   "name" : "unsigned long",
   "referenced_type" : "_ZTIm",
   "self_type" : "_ZTIm",
   "size" : 8
  },
  {
   "linker_set_key" : "_ZTIv",
   "name" : "void",
   "referenced_type" : "_ZTIv",
   "self_type" : "_ZTIv"
  }
 ],
 "elf_functions" :
 [
  {
   "binding" : "weak",
   "name" : "_ZN3ndk12BnCInterfaceIN4aidl7android8hardware5radio3sim17IRadioSimResponseEE8asBinderEv"
  },
  {
   "binding" : "weak",
   "name" : "_ZN3ndk12BnCInterfaceIN4aidl7android8hardware5radio3sim19IRadioSimIndicationEE8asBinderEv"
  },
  {
   "binding" : "weak",
   "name" : "_ZN3ndk12BnCInterfaceIN4aidl7android8hardware5radio3sim9IRadioSimEE8asBinderEv"
  },
  {
   "binding" : "weak",
   "name" : "_ZN3ndk12BpCInterfaceIN4aidl7android8hardware5radio3sim17IRadioSimResponseEE8asBinderEv"
  },
  {
   "binding" : "weak",
   "name" : "_ZN3ndk12BpCInterfaceIN4aidl7android8hardware5radio3sim19IRadioSimIndicationEE8asBinderEv"
  },
  {
   "binding" : "weak",
   "name" : "_ZN3ndk12BpCInterfaceIN4aidl7android8hardware5radio3sim9IRadioSimEE8asBinderEv"
  },
  {
   "binding" : "weak",
   "name" : "_ZN3ndk38AParcel_readStdVectorParcelableElementIN4aidl7android8hardware5radio3sim19PhonebookRecordInfoEEEiPK7AParcelPvm"
  },
  {
   "binding" : "weak",
   "name" : "_ZN3ndk38AParcel_readStdVectorParcelableElementIN4aidl7android8hardware5radio3sim7CarrierEEEiPK7AParcelPvm"
  },
  {
   "binding" : "weak",
   "name" : "_ZN3ndk38AParcel_readStdVectorParcelableElementIN4aidl7android8hardware5radio3sim9AppStatusEEEiPK7AParcelPvm"
  },
  {
   "binding" : "weak",
   "name" : "_ZN3ndk39AParcel_writeStdVectorParcelableElementIN4aidl7android8hardware5radio3sim19PhonebookRecordInfoEEEiP7AParcelPKvm"
  },
  {
   "binding" : "weak",
   "name" : "_ZN3ndk39AParcel_writeStdVectorParcelableElementIN4aidl7android8hardware5radio3sim7CarrierEEEiP7AParcelPKvm"
  },
  {
   "binding" : "weak",
   "name" : "_ZN3ndk39AParcel_writeStdVectorParcelableElementIN4aidl7android8hardware5radio3sim9AppStatusEEEiP7AParcelPKvm"
  },
  {
   "name" : "_ZN4aidl7android8hardware5radio3sim10BnRadioSim12createBinderEv"
  },
  {
   "name" : "_ZN4aidl7android8hardware5radio3sim10BnRadioSim16getInterfaceHashEPNSt3__112basic_stringIcNS5_11char_traitsIcEENS5_9allocatorIcEEEE"
  },
  {
   "name" : "_ZN4aidl7android8hardware5radio3sim10BnRadioSim19getInterfaceVersionEPi"
  },
  {
   "name" : "_ZN4aidl7android8hardware5radio3sim10BnRadioSimC2Ev"
  },
  {
   "name" : "_ZN4aidl7android8hardware5radio3sim10BnRadioSimD0Ev"
  },
  {
   "name" : "_ZN4aidl7android8hardware5radio3sim10BnRadioSimD1Ev"
  },
  {
   "name" : "_ZN4aidl7android8hardware5radio3sim10BnRadioSimD2Ev"
  },
  {
   "name" : "_ZN4aidl7android8hardware5radio3sim10BpRadioSim11iccIoForAppEiRKNS3_5IccIoE"
  },
  {
   "name" : "_ZN4aidl7android8hardware5radio3sim10BpRadioSim12sendEnvelopeEiRKNSt3__112basic_stringIcNS5_11char_traitsIcEENS5_9allocatorIcEEEE"
  },
  {
   "name" : "_ZN4aidl7android8hardware5radio3sim10BpRadioSim13getImsiForAppEiRKNSt3__112basic_stringIcNS5_11char_traitsIcEENS5_9allocatorIcEEEE"
  },
  {
   "name" : "_ZN4aidl7android8hardware5radio3sim10BpRadioSim15setSimCardPowerEiNS3_14CardPowerStateE"
  },
  {
   "name" : "_ZN4aidl7android8hardware5radio3sim10BpRadioSim16getIccCardStatusEi"
  },
  {
   "name" : "_ZN4aidl7android8hardware5radio3sim10BpRadioSim16getInterfaceHashEPNSt3__112basic_stringIcNS5_11char_traitsIcEENS5_9allocatorIcEEEE"
  },
  {
   "name" : "_ZN4aidl7android8hardware5radio3sim10BpRadioSim18changeIccPinForAppEiRKNSt3__112basic_stringIcNS5_11char_traitsIcEENS5_9allocatorIcEEEESD_SD_"
  },
  {
   "name" : "_ZN4aidl7android8hardware5radio3sim10BpRadioSim18getAllowedCarriersEi"
  },
  {
   "name" : "_ZN4aidl7android8hardware5radio3sim10BpRadioSim18setAllowedCarriersEiRKNS3_19CarrierRestrictionsENS3_21SimLockMultiSimPolicyE"
  },
  {
   "name" : "_ZN4aidl7android8hardware5radio3sim10BpRadioSim18supplyIccPinForAppEiRKNSt3__112basic_stringIcNS5_11char_traitsIcEENS5_9allocatorIcEEEESD_"
  },
  {
   "name" : "_ZN4aidl7android8hardware5radio3sim10BpRadioSim18supplyIccPukForAppEiRKNSt3__112basic_stringIcNS5_11char_traitsIcEENS5_9allocatorIcEEEESD_SD_"
  },
  {
   "name" : "_ZN4aidl7android8hardware5radio3sim10BpRadioSim19changeIccPin2ForAppEiRKNSt3__112basic_stringIcNS5_11char_traitsIcEENS5_9allocatorIcEEEESD_SD_"
  },
  {
   "name" : "_ZN4aidl7android8hardware5radio3sim10BpRadioSim19getCdmaSubscriptionEi"
  },
  {
   "name" : "_ZN4aidl7android8hardware5radio3sim10BpRadioSim19getInterfaceVersionEPi"
  },
  {
   "name" : "_ZN4aidl7android8hardware5radio3sim10BpRadioSim19setUiccSubscriptionEiRKNS3_13SelectUiccSubE"
  },
  {
   "name" : "_ZN4aidl7android8hardware5radio3sim10BpRadioSim19supplyIccPin2ForAppEiRKNSt3__112basic_stringIcNS5_11char_traitsIcEENS5_9allocatorIcEEEESD_"
  },
  {
   "name" : "_ZN4aidl7android8hardware5radio3sim10BpRadioSim19supplyIccPuk2ForAppEiRKNSt3__112basic_stringIcNS5_11char_traitsIcEENS5_9allocatorIcEEEESD_SD_"
  },
  {
   "name" : "_ZN4aidl7android8hardware5radio3sim10BpRadioSim20setResponseFunctionsERKNSt3__110shared_ptrINS3_17IRadioSimResponseEEERKNS6_INS3_19IRadioSimIndicationEEE"
  },
  {
   "name" : "_ZN4aidl7android8hardware5radio3sim10BpRadioSim21getFacilityLockForAppEiRKNSt3__112basic_stringIcNS5_11char_traitsIcEENS5_9allocatorIcEEEESD_iSD_"
  },
  {
   "name" : "_ZN4aidl7android8hardware5radio3sim10BpRadioSim21iccOpenLogicalChannelEiRKNSt3__112basic_stringIcNS5_11char_traitsIcEENS5_9allocatorIcEEEEi"
  },
  {
   "name" : "_ZN4aidl7android8hardware5radio3sim10BpRadioSim21setFacilityLockForAppEiRKNSt3__112basic_stringIcNS5_11char_traitsIcEENS5_9allocatorIcEEEEbSD_iSD_"
  },
  {
   "name" : "_ZN4aidl7android8hardware5radio3sim10BpRadioSim22enableUiccApplicationsEib"
  },
  {
   "name" : "_ZN4aidl7android8hardware5radio3sim10BpRadioSim22getSimPhonebookRecordsEi"
  },
  {
   "name" : "_ZN4aidl7android8hardware5radio3sim10BpRadioSim22iccCloseLogicalChannelEii"
  },
  {
   "name" : "_ZN4aidl7android8hardware5radio3sim10BpRadioSim22sendEnvelopeWithStatusEiRKNSt3__112basic_stringIcNS5_11char_traitsIcEENS5_9allocatorIcEEEE"
  },
  {
   "name" : "_ZN4aidl7android8hardware5radio3sim10BpRadioSim23getSimPhonebookCapacityEi"
  },
  {
   "name" : "_ZN4aidl7android8hardware5radio3sim10BpRadioSim23responseAcknowledgementEv"
  },
  {
   "name" : "_ZN4aidl7android8hardware5radio3sim10BpRadioSim25getCdmaSubscriptionSourceEi"
  },
  {
   "name" : "_ZN4aidl7android8hardware5radio3sim10BpRadioSim25reportStkServiceIsRunningEi"
  },
  {
   "name" : "_ZN4aidl7android8hardware5radio3sim10BpRadioSim25sendTerminalResponseToSimEiRKNSt3__112basic_stringIcNS5_11char_traitsIcEENS5_9allocatorIcEEEE"
  },
  {
   "name" : "_ZN4aidl7android8hardware5radio3sim10BpRadioSim25setCdmaSubscriptionSourceEiNS3_22CdmaSubscriptionSourceE"
  },
  {
   "name" : "_ZN4aidl7android8hardware5radio3sim10BpRadioSim25updateSimPhonebookRecordsEiRKNS3_19PhonebookRecordInfoE"
  },
  {
   "name" : "_ZN4aidl7android8hardware5radio3sim10BpRadioSim26areUiccApplicationsEnabledEi"
  },
  {
   "name" : "_ZN4aidl7android8hardware5radio3sim10BpRadioSim26supplySimDepersonalizationEiNS3_13PersoSubstateERKNSt3__112basic_stringIcNS6_11char_traitsIcEENS6_9allocatorIcEEEE"
  },
  {
   "name" : "_ZN4aidl7android8hardware5radio3sim10BpRadioSim27iccTransmitApduBasicChannelEiRKNS3_7SimApduE"
  },
  {
   "name" : "_ZN4aidl7android8hardware5radio3sim10BpRadioSim27requestIccSimAuthenticationEiiRKNSt3__112basic_stringIcNS5_11char_traitsIcEENS5_9allocatorIcEEEESD_"
  },
  {
   "name" : "_ZN4aidl7android8hardware5radio3sim10BpRadioSim29iccTransmitApduLogicalChannelEiRKNS3_7SimApduE"
  },
  {
   "name" : "_ZN4aidl7android8hardware5radio3sim10BpRadioSim31setCarrierInfoForImsiEncryptionEiRKNS3_18ImsiEncryptionInfoE"
  },
  {
   "name" : "_ZN4aidl7android8hardware5radio3sim10BpRadioSimC1ERKN3ndk10SpAIBinderE"
  },
  {
   "name" : "_ZN4aidl7android8hardware5radio3sim10BpRadioSimC2ERKN3ndk10SpAIBinderE"
  },
  {
   "name" : "_ZN4aidl7android8hardware5radio3sim10BpRadioSimD0Ev"
  },
  {
   "name" : "_ZN4aidl7android8hardware5radio3sim10BpRadioSimD1Ev"
  },
  {
   "name" : "_ZN4aidl7android8hardware5radio3sim10BpRadioSimD2Ev"
  },
  {
   "name" : "_ZN4aidl7android8hardware5radio3sim10CardStatus14readFromParcelEPK7AParcel"
  },
  {
   "name" : "_ZN4aidl7android8hardware5radio3sim11IccIoResult14readFromParcelEPK7AParcel"
  },
  {
   "name" : "_ZN4aidl7android8hardware5radio3sim13SelectUiccSub14readFromParcelEPK7AParcel"
  },
  {
   "name" : "_ZN4aidl7android8hardware5radio3sim16IRadioSimDefault11iccIoForAppEiRKNS3_5IccIoE"
  },
  {
   "name" : "_ZN4aidl7android8hardware5radio3sim16IRadioSimDefault12sendEnvelopeEiRKNSt3__112basic_stringIcNS5_11char_traitsIcEENS5_9allocatorIcEEEE"
  },
  {
   "name" : "_ZN4aidl7android8hardware5radio3sim16IRadioSimDefault13getImsiForAppEiRKNSt3__112basic_stringIcNS5_11char_traitsIcEENS5_9allocatorIcEEEE"
  },
  {
   "name" : "_ZN4aidl7android8hardware5radio3sim16IRadioSimDefault15setSimCardPowerEiNS3_14CardPowerStateE"
  },
  {
   "name" : "_ZN4aidl7android8hardware5radio3sim16IRadioSimDefault16getIccCardStatusEi"
  },
  {
   "name" : "_ZN4aidl7android8hardware5radio3sim16IRadioSimDefault16getInterfaceHashEPNSt3__112basic_stringIcNS5_11char_traitsIcEENS5_9allocatorIcEEEE"
  },
  {
   "name" : "_ZN4aidl7android8hardware5radio3sim16IRadioSimDefault18changeIccPinForAppEiRKNSt3__112basic_stringIcNS5_11char_traitsIcEENS5_9allocatorIcEEEESD_SD_"
  },
  {
   "name" : "_ZN4aidl7android8hardware5radio3sim16IRadioSimDefault18getAllowedCarriersEi"
  },
  {
   "name" : "_ZN4aidl7android8hardware5radio3sim16IRadioSimDefault18setAllowedCarriersEiRKNS3_19CarrierRestrictionsENS3_21SimLockMultiSimPolicyE"
  },
  {
   "name" : "_ZN4aidl7android8hardware5radio3sim16IRadioSimDefault18supplyIccPinForAppEiRKNSt3__112basic_stringIcNS5_11char_traitsIcEENS5_9allocatorIcEEEESD_"
  },
  {
   "name" : "_ZN4aidl7android8hardware5radio3sim16IRadioSimDefault18supplyIccPukForAppEiRKNSt3__112basic_stringIcNS5_11char_traitsIcEENS5_9allocatorIcEEEESD_SD_"
  },
  {
   "name" : "_ZN4aidl7android8hardware5radio3sim16IRadioSimDefault19changeIccPin2ForAppEiRKNSt3__112basic_stringIcNS5_11char_traitsIcEENS5_9allocatorIcEEEESD_SD_"
  },
  {
   "name" : "_ZN4aidl7android8hardware5radio3sim16IRadioSimDefault19getCdmaSubscriptionEi"
  },
  {
   "name" : "_ZN4aidl7android8hardware5radio3sim16IRadioSimDefault19getInterfaceVersionEPi"
  },
  {
   "name" : "_ZN4aidl7android8hardware5radio3sim16IRadioSimDefault19setUiccSubscriptionEiRKNS3_13SelectUiccSubE"
  },
  {
   "name" : "_ZN4aidl7android8hardware5radio3sim16IRadioSimDefault19supplyIccPin2ForAppEiRKNSt3__112basic_stringIcNS5_11char_traitsIcEENS5_9allocatorIcEEEESD_"
  },
  {
   "name" : "_ZN4aidl7android8hardware5radio3sim16IRadioSimDefault19supplyIccPuk2ForAppEiRKNSt3__112basic_stringIcNS5_11char_traitsIcEENS5_9allocatorIcEEEESD_SD_"
  },
  {
   "name" : "_ZN4aidl7android8hardware5radio3sim16IRadioSimDefault20setResponseFunctionsERKNSt3__110shared_ptrINS3_17IRadioSimResponseEEERKNS6_INS3_19IRadioSimIndicationEEE"
  },
  {
   "name" : "_ZN4aidl7android8hardware5radio3sim16IRadioSimDefault21getFacilityLockForAppEiRKNSt3__112basic_stringIcNS5_11char_traitsIcEENS5_9allocatorIcEEEESD_iSD_"
  },
  {
   "name" : "_ZN4aidl7android8hardware5radio3sim16IRadioSimDefault21iccOpenLogicalChannelEiRKNSt3__112basic_stringIcNS5_11char_traitsIcEENS5_9allocatorIcEEEEi"
  },
  {
   "name" : "_ZN4aidl7android8hardware5radio3sim16IRadioSimDefault21setFacilityLockForAppEiRKNSt3__112basic_stringIcNS5_11char_traitsIcEENS5_9allocatorIcEEEEbSD_iSD_"
  },
  {
   "name" : "_ZN4aidl7android8hardware5radio3sim16IRadioSimDefault22enableUiccApplicationsEib"
  },
  {
   "name" : "_ZN4aidl7android8hardware5radio3sim16IRadioSimDefault22getSimPhonebookRecordsEi"
  },
  {
   "name" : "_ZN4aidl7android8hardware5radio3sim16IRadioSimDefault22iccCloseLogicalChannelEii"
  },
  {
   "name" : "_ZN4aidl7android8hardware5radio3sim16IRadioSimDefault22sendEnvelopeWithStatusEiRKNSt3__112basic_stringIcNS5_11char_traitsIcEENS5_9allocatorIcEEEE"
  },
  {
   "name" : "_ZN4aidl7android8hardware5radio3sim16IRadioSimDefault23getSimPhonebookCapacityEi"
  },
  {
   "name" : "_ZN4aidl7android8hardware5radio3sim16IRadioSimDefault23responseAcknowledgementEv"
  },
  {
   "name" : "_ZN4aidl7android8hardware5radio3sim16IRadioSimDefault25getCdmaSubscriptionSourceEi"
  },
  {
   "name" : "_ZN4aidl7android8hardware5radio3sim16IRadioSimDefault25reportStkServiceIsRunningEi"
  },
  {
   "name" : "_ZN4aidl7android8hardware5radio3sim16IRadioSimDefault25sendTerminalResponseToSimEiRKNSt3__112basic_stringIcNS5_11char_traitsIcEENS5_9allocatorIcEEEE"
  },
  {
   "name" : "_ZN4aidl7android8hardware5radio3sim16IRadioSimDefault25setCdmaSubscriptionSourceEiNS3_22CdmaSubscriptionSourceE"
  },
  {
   "name" : "_ZN4aidl7android8hardware5radio3sim16IRadioSimDefault25updateSimPhonebookRecordsEiRKNS3_19PhonebookRecordInfoE"
  },
  {
   "name" : "_ZN4aidl7android8hardware5radio3sim16IRadioSimDefault26areUiccApplicationsEnabledEi"
  },
  {
   "name" : "_ZN4aidl7android8hardware5radio3sim16IRadioSimDefault26supplySimDepersonalizationEiNS3_13PersoSubstateERKNSt3__112basic_stringIcNS6_11char_traitsIcEENS6_9allocatorIcEEEE"
  },
  {
   "name" : "_ZN4aidl7android8hardware5radio3sim16IRadioSimDefault27iccTransmitApduBasicChannelEiRKNS3_7SimApduE"
  },
  {
   "name" : "_ZN4aidl7android8hardware5radio3sim16IRadioSimDefault27requestIccSimAuthenticationEiiRKNSt3__112basic_stringIcNS5_11char_traitsIcEENS5_9allocatorIcEEEESD_"
  },
  {
   "name" : "_ZN4aidl7android8hardware5radio3sim16IRadioSimDefault29iccTransmitApduLogicalChannelEiRKNS3_7SimApduE"
  },
  {
   "name" : "_ZN4aidl7android8hardware5radio3sim16IRadioSimDefault31setCarrierInfoForImsiEncryptionEiRKNS3_18ImsiEncryptionInfoE"
  },
  {
   "name" : "_ZN4aidl7android8hardware5radio3sim16IRadioSimDefault8asBinderEv"
  },
  {
   "name" : "_ZN4aidl7android8hardware5radio3sim16IRadioSimDefault8isRemoteEv"
  },
  {
   "name" : "_ZN4aidl7android8hardware5radio3sim16SimRefreshResult14readFromParcelEPK7AParcel"
  },
  {
   "name" : "_ZN4aidl7android8hardware5radio3sim17IRadioSimResponse10fromBinderERKN3ndk10SpAIBinderE"
  },
  {
   "name" : "_ZN4aidl7android8hardware5radio3sim17IRadioSimResponse13writeToParcelEP7AParcelRKNSt3__110shared_ptrIS4_EE"
  },
  {
   "name" : "_ZN4aidl7android8hardware5radio3sim17IRadioSimResponse14getDefaultImplEv"
  },
  {
   "name" : "_ZN4aidl7android8hardware5radio3sim17IRadioSimResponse14readFromParcelEPK7AParcelPNSt3__110shared_ptrIS4_EE"
  },
  {
   "name" : "_ZN4aidl7android8hardware5radio3sim17IRadioSimResponse14setDefaultImplERKNSt3__110shared_ptrIS4_EE"
  },
  {
   "name" : "_ZN4aidl7android8hardware5radio3sim17IRadioSimResponseC2Ev"
  },
  {
   "name" : "_ZN4aidl7android8hardware5radio3sim17IRadioSimResponseD0Ev"
  },
  {
   "name" : "_ZN4aidl7android8hardware5radio3sim17IRadioSimResponseD1Ev"
  },
  {
   "name" : "_ZN4aidl7android8hardware5radio3sim17IRadioSimResponseD2Ev"
  },
  {
   "name" : "_ZN4aidl7android8hardware5radio3sim17PhonebookCapacity14readFromParcelEPK7AParcel"
  },
  {
   "name" : "_ZN4aidl7android8hardware5radio3sim18BnRadioSimResponse12createBinderEv"
  },
  {
   "name" : "_ZN4aidl7android8hardware5radio3sim18BnRadioSimResponse16getInterfaceHashEPNSt3__112basic_stringIcNS5_11char_traitsIcEENS5_9allocatorIcEEEE"
  },
  {
   "name" : "_ZN4aidl7android8hardware5radio3sim18BnRadioSimResponse19getInterfaceVersionEPi"
  },
  {
   "name" : "_ZN4aidl7android8hardware5radio3sim18BnRadioSimResponseC2Ev"
  },
  {
   "name" : "_ZN4aidl7android8hardware5radio3sim18BnRadioSimResponseD0Ev"
  },
  {
   "name" : "_ZN4aidl7android8hardware5radio3sim18BnRadioSimResponseD1Ev"
  },
  {
   "name" : "_ZN4aidl7android8hardware5radio3sim18BnRadioSimResponseD2Ev"
  },
  {
   "name" : "_ZN4aidl7android8hardware5radio3sim18BpRadioSimResponse16getInterfaceHashEPNSt3__112basic_stringIcNS5_11char_traitsIcEENS5_9allocatorIcEEEE"
  },
  {
   "name" : "_ZN4aidl7android8hardware5radio3sim18BpRadioSimResponse18acknowledgeRequestEi"
  },
  {
   "name" : "_ZN4aidl7android8hardware5radio3sim18BpRadioSimResponse19getInterfaceVersionEPi"
  },
  {
   "name" : "_ZN4aidl7android8hardware5radio3sim18BpRadioSimResponse19iccIoForAppResponseERKNS2_17RadioResponseInfoERKNS3_11IccIoResultE"
  },
  {
   "name" : "_ZN4aidl7android8hardware5radio3sim18BpRadioSimResponse20sendEnvelopeResponseERKNS2_17RadioResponseInfoERKNSt3__112basic_stringIcNS8_11char_traitsIcEENS8_9allocatorIcEEEE"
  },
  {
   "name" : "_ZN4aidl7android8hardware5radio3sim18BpRadioSimResponse21getImsiForAppResponseERKNS2_17RadioResponseInfoERKNSt3__112basic_stringIcNS8_11char_traitsIcEENS8_9allocatorIcEEEE"
  },
  {
   "name" : "_ZN4aidl7android8hardware5radio3sim18BpRadioSimResponse23setSimCardPowerResponseERKNS2_17RadioResponseInfoE"
  },
  {
   "name" : "_ZN4aidl7android8hardware5radio3sim18BpRadioSimResponse24getIccCardStatusResponseERKNS2_17RadioResponseInfoERKNS3_10CardStatusE"
  },
  {
   "name" : "_ZN4aidl7android8hardware5radio3sim18BpRadioSimResponse26changeIccPinForAppResponseERKNS2_17RadioResponseInfoEi"
  },
  {
   "name" : "_ZN4aidl7android8hardware5radio3sim18BpRadioSimResponse26getAllowedCarriersResponseERKNS2_17RadioResponseInfoERKNS3_19CarrierRestrictionsENS3_21SimLockMultiSimPolicyE"
  },
  {
   "name" : "_ZN4aidl7android8hardware5radio3sim18BpRadioSimResponse26setAllowedCarriersResponseERKNS2_17RadioResponseInfoE"
  },
  {
   "name" : "_ZN4aidl7android8hardware5radio3sim18BpRadioSimResponse26supplyIccPinForAppResponseERKNS2_17RadioResponseInfoEi"
  },
  {
   "name" : "_ZN4aidl7android8hardware5radio3sim18BpRadioSimResponse26supplyIccPukForAppResponseERKNS2_17RadioResponseInfoEi"
  },
  {
   "name" : "_ZN4aidl7android8hardware5radio3sim18BpRadioSimResponse27changeIccPin2ForAppResponseERKNS2_17RadioResponseInfoEi"
  },
  {
   "name" : "_ZN4aidl7android8hardware5radio3sim18BpRadioSimResponse27getCdmaSubscriptionResponseERKNS2_17RadioResponseInfoERKNSt3__112basic_stringIcNS8_11char_traitsIcEENS8_9allocatorIcEEEESG_SG_SG_SG_"
  },
  {
   "name" : "_ZN4aidl7android8hardware5radio3sim18BpRadioSimResponse27setUiccSubscriptionResponseERKNS2_17RadioResponseInfoE"
  },
  {
   "name" : "_ZN4aidl7android8hardware5radio3sim18BpRadioSimResponse27supplyIccPin2ForAppResponseERKNS2_17RadioResponseInfoEi"
  },
  {
   "name" : "_ZN4aidl7android8hardware5radio3sim18BpRadioSimResponse27supplyIccPuk2ForAppResponseERKNS2_17RadioResponseInfoEi"
  },
  {
   "name" : "_ZN4aidl7android8hardware5radio3sim18BpRadioSimResponse29getFacilityLockForAppResponseERKNS2_17RadioResponseInfoEi"
  },
  {
   "name" : "_ZN4aidl7android8hardware5radio3sim18BpRadioSimResponse29iccOpenLogicalChannelResponseERKNS2_17RadioResponseInfoEiRKNSt3__16vectorIhNS8_9allocatorIhEEEE"
  },
  {
   "name" : "_ZN4aidl7android8hardware5radio3sim18BpRadioSimResponse29setFacilityLockForAppResponseERKNS2_17RadioResponseInfoEi"
  },
  {
   "name" : "_ZN4aidl7android8hardware5radio3sim18BpRadioSimResponse30enableUiccApplicationsResponseERKNS2_17RadioResponseInfoE"
  },
  {
   "name" : "_ZN4aidl7android8hardware5radio3sim18BpRadioSimResponse30getSimPhonebookRecordsResponseERKNS2_17RadioResponseInfoE"
  },
  {
   "name" : "_ZN4aidl7android8hardware5radio3sim18BpRadioSimResponse30iccCloseLogicalChannelResponseERKNS2_17RadioResponseInfoE"
  },
  {
   "name" : "_ZN4aidl7android8hardware5radio3sim18BpRadioSimResponse30sendEnvelopeWithStatusResponseERKNS2_17RadioResponseInfoERKNS3_11IccIoResultE"
  },
  {
   "name" : "_ZN4aidl7android8hardware5radio3sim18BpRadioSimResponse31getSimPhonebookCapacityResponseERKNS2_17RadioResponseInfoERKNS3_17PhonebookCapacityE"
  },
  {
   "name" : "_ZN4aidl7android8hardware5radio3sim18BpRadioSimResponse33getCdmaSubscriptionSourceResponseERKNS2_17RadioResponseInfoENS3_22CdmaSubscriptionSourceE"
  },
  {
   "name" : "_ZN4aidl7android8hardware5radio3sim18BpRadioSimResponse33reportStkServiceIsRunningResponseERKNS2_17RadioResponseInfoE"
  },
  {
   "name" : "_ZN4aidl7android8hardware5radio3sim18BpRadioSimResponse33sendTerminalResponseToSimResponseERKNS2_17RadioResponseInfoE"
  },
  {
   "name" : "_ZN4aidl7android8hardware5radio3sim18BpRadioSimResponse33setCdmaSubscriptionSourceResponseERKNS2_17RadioResponseInfoE"
  },
  {
   "name" : "_ZN4aidl7android8hardware5radio3sim18BpRadioSimResponse33updateSimPhonebookRecordsResponseERKNS2_17RadioResponseInfoEi"
  },
  {
   "name" : "_ZN4aidl7android8hardware5radio3sim18BpRadioSimResponse34areUiccApplicationsEnabledResponseERKNS2_17RadioResponseInfoEb"
  },
  {
   "name" : "_ZN4aidl7android8hardware5radio3sim18BpRadioSimResponse34supplySimDepersonalizationResponseERKNS2_17RadioResponseInfoENS3_13PersoSubstateEi"
  },
  {
   "name" : "_ZN4aidl7android8hardware5radio3sim18BpRadioSimResponse35iccTransmitApduBasicChannelResponseERKNS2_17RadioResponseInfoERKNS3_11IccIoResultE"
  },
  {
   "name" : "_ZN4aidl7android8hardware5radio3sim18BpRadioSimResponse35requestIccSimAuthenticationResponseERKNS2_17RadioResponseInfoERKNS3_11IccIoResultE"
  },
  {
   "name" : "_ZN4aidl7android8hardware5radio3sim18BpRadioSimResponse37iccTransmitApduLogicalChannelResponseERKNS2_17RadioResponseInfoERKNS3_11IccIoResultE"
  },
  {
   "name" : "_ZN4aidl7android8hardware5radio3sim18BpRadioSimResponse39setCarrierInfoForImsiEncryptionResponseERKNS2_17RadioResponseInfoE"
  },
  {
   "name" : "_ZN4aidl7android8hardware5radio3sim18BpRadioSimResponseC1ERKN3ndk10SpAIBinderE"
  },
  {
   "name" : "_ZN4aidl7android8hardware5radio3sim18BpRadioSimResponseC2ERKN3ndk10SpAIBinderE"
  },
  {
   "name" : "_ZN4aidl7android8hardware5radio3sim18BpRadioSimResponseD0Ev"
  },
  {
   "name" : "_ZN4aidl7android8hardware5radio3sim18BpRadioSimResponseD1Ev"
  },
  {
   "name" : "_ZN4aidl7android8hardware5radio3sim18BpRadioSimResponseD2Ev"
  },
  {
   "name" : "_ZN4aidl7android8hardware5radio3sim18ImsiEncryptionInfo14readFromParcelEPK7AParcel"
  },
  {
   "name" : "_ZN4aidl7android8hardware5radio3sim19CarrierRestrictions14readFromParcelEPK7AParcel"
  },
  {
   "name" : "_ZN4aidl7android8hardware5radio3sim19IRadioSimIndication10fromBinderERKN3ndk10SpAIBinderE"
  },
  {
   "name" : "_ZN4aidl7android8hardware5radio3sim19IRadioSimIndication13writeToParcelEP7AParcelRKNSt3__110shared_ptrIS4_EE"
  },
  {
   "name" : "_ZN4aidl7android8hardware5radio3sim19IRadioSimIndication14getDefaultImplEv"
  },
  {
   "name" : "_ZN4aidl7android8hardware5radio3sim19IRadioSimIndication14readFromParcelEPK7AParcelPNSt3__110shared_ptrIS4_EE"
  },
  {
   "name" : "_ZN4aidl7android8hardware5radio3sim19IRadioSimIndication14setDefaultImplERKNSt3__110shared_ptrIS4_EE"
  },
  {
   "name" : "_ZN4aidl7android8hardware5radio3sim19IRadioSimIndicationC2Ev"
  },
  {
   "name" : "_ZN4aidl7android8hardware5radio3sim19IRadioSimIndicationD0Ev"
  },
  {
   "name" : "_ZN4aidl7android8hardware5radio3sim19IRadioSimIndicationD1Ev"
  },
  {
   "name" : "_ZN4aidl7android8hardware5radio3sim19IRadioSimIndicationD2Ev"
  },
  {
   "name" : "_ZN4aidl7android8hardware5radio3sim19PhonebookRecordInfo14readFromParcelEPK7AParcel"
  },
  {
   "name" : "_ZN4aidl7android8hardware5radio3sim20BnRadioSimIndication12createBinderEv"
  },
  {
   "name" : "_ZN4aidl7android8hardware5radio3sim20BnRadioSimIndication16getInterfaceHashEPNSt3__112basic_stringIcNS5_11char_traitsIcEENS5_9allocatorIcEEEE"
  },
  {
   "name" : "_ZN4aidl7android8hardware5radio3sim20BnRadioSimIndication19getInterfaceVersionEPi"
  },
  {
   "name" : "_ZN4aidl7android8hardware5radio3sim20BnRadioSimIndicationC2Ev"
  },
  {
   "name" : "_ZN4aidl7android8hardware5radio3sim20BnRadioSimIndicationD0Ev"
  },
  {
   "name" : "_ZN4aidl7android8hardware5radio3sim20BnRadioSimIndicationD1Ev"
  },
  {
   "name" : "_ZN4aidl7android8hardware5radio3sim20BnRadioSimIndicationD2Ev"
  },
  {
   "name" : "_ZN4aidl7android8hardware5radio3sim20BpRadioSimIndication10simRefreshENS2_19RadioIndicationTypeERKNS3_16SimRefreshResultE"
  },
  {
   "name" : "_ZN4aidl7android8hardware5radio3sim20BpRadioSimIndication13stkSessionEndENS2_19RadioIndicationTypeE"
  },
  {
   "name" : "_ZN4aidl7android8hardware5radio3sim20BpRadioSimIndication14stkEventNotifyENS2_19RadioIndicationTypeERKNSt3__112basic_stringIcNS6_11char_traitsIcEENS6_9allocatorIcEEEE"
  },
  {
   "name" : "_ZN4aidl7android8hardware5radio3sim20BpRadioSimIndication16getInterfaceHashEPNSt3__112basic_stringIcNS5_11char_traitsIcEENS5_9allocatorIcEEEE"
  },
  {
   "name" : "_ZN4aidl7android8hardware5radio3sim20BpRadioSimIndication16simStatusChangedENS2_19RadioIndicationTypeE"
  },
  {
   "name" : "_ZN4aidl7android8hardware5radio3sim20BpRadioSimIndication19getInterfaceVersionEPi"
  },
  {
   "name" : "_ZN4aidl7android8hardware5radio3sim20BpRadioSimIndication19simPhonebookChangedENS2_19RadioIndicationTypeE"
  },
  {
   "name" : "_ZN4aidl7android8hardware5radio3sim20BpRadioSimIndication19stkProactiveCommandENS2_19RadioIndicationTypeERKNSt3__112basic_stringIcNS6_11char_traitsIcEENS6_9allocatorIcEEEE"
  },
  {
   "name" : "_ZN4aidl7android8hardware5radio3sim20BpRadioSimIndication25subscriptionStatusChangedENS2_19RadioIndicationTypeEb"
  },
  {
   "name" : "_ZN4aidl7android8hardware5radio3sim20BpRadioSimIndication27simPhonebookRecordsReceivedENS2_19RadioIndicationTypeENS3_16PbReceivedStatusERKNSt3__16vectorINS3_19PhonebookRecordInfoENS7_9allocatorIS9_EEEE"
  },
  {
   "name" : "_ZN4aidl7android8hardware5radio3sim20BpRadioSimIndication28carrierInfoForImsiEncryptionENS2_19RadioIndicationTypeE"
  },
  {
   "name" : "_ZN4aidl7android8hardware5radio3sim20BpRadioSimIndication29cdmaSubscriptionSourceChangedENS2_19RadioIndicationTypeENS3_22CdmaSubscriptionSourceE"
  },
  {
   "name" : "_ZN4aidl7android8hardware5radio3sim20BpRadioSimIndication33uiccApplicationsEnablementChangedENS2_19RadioIndicationTypeEb"
  },
  {
   "name" : "_ZN4aidl7android8hardware5radio3sim20BpRadioSimIndicationC1ERKN3ndk10SpAIBinderE"
  },
  {
   "name" : "_ZN4aidl7android8hardware5radio3sim20BpRadioSimIndicationC2ERKN3ndk10SpAIBinderE"
  },
  {
   "name" : "_ZN4aidl7android8hardware5radio3sim20BpRadioSimIndicationD0Ev"
  },
  {
   "name" : "_ZN4aidl7android8hardware5radio3sim20BpRadioSimIndicationD1Ev"
  },
  {
   "name" : "_ZN4aidl7android8hardware5radio3sim20BpRadioSimIndicationD2Ev"
  },
  {
   "name" : "_ZN4aidl7android8hardware5radio3sim24IRadioSimResponseDefault16getInterfaceHashEPNSt3__112basic_stringIcNS5_11char_traitsIcEENS5_9allocatorIcEEEE"
  },
  {
   "name" : "_ZN4aidl7android8hardware5radio3sim24IRadioSimResponseDefault18acknowledgeRequestEi"
  },
  {
   "name" : "_ZN4aidl7android8hardware5radio3sim24IRadioSimResponseDefault19getInterfaceVersionEPi"
  },
  {
   "name" : "_ZN4aidl7android8hardware5radio3sim24IRadioSimResponseDefault19iccIoForAppResponseERKNS2_17RadioResponseInfoERKNS3_11IccIoResultE"
  },
  {
   "name" : "_ZN4aidl7android8hardware5radio3sim24IRadioSimResponseDefault20sendEnvelopeResponseERKNS2_17RadioResponseInfoERKNSt3__112basic_stringIcNS8_11char_traitsIcEENS8_9allocatorIcEEEE"
  },
  {
   "name" : "_ZN4aidl7android8hardware5radio3sim24IRadioSimResponseDefault21getImsiForAppResponseERKNS2_17RadioResponseInfoERKNSt3__112basic_stringIcNS8_11char_traitsIcEENS8_9allocatorIcEEEE"
  },
  {
   "name" : "_ZN4aidl7android8hardware5radio3sim24IRadioSimResponseDefault23setSimCardPowerResponseERKNS2_17RadioResponseInfoE"
  },
  {
   "name" : "_ZN4aidl7android8hardware5radio3sim24IRadioSimResponseDefault24getIccCardStatusResponseERKNS2_17RadioResponseInfoERKNS3_10CardStatusE"
  },
  {
   "name" : "_ZN4aidl7android8hardware5radio3sim24IRadioSimResponseDefault26changeIccPinForAppResponseERKNS2_17RadioResponseInfoEi"
  },
  {
   "name" : "_ZN4aidl7android8hardware5radio3sim24IRadioSimResponseDefault26getAllowedCarriersResponseERKNS2_17RadioResponseInfoERKNS3_19CarrierRestrictionsENS3_21SimLockMultiSimPolicyE"
  },
  {
   "name" : "_ZN4aidl7android8hardware5radio3sim24IRadioSimResponseDefault26setAllowedCarriersResponseERKNS2_17RadioResponseInfoE"
  },
  {
   "name" : "_ZN4aidl7android8hardware5radio3sim24IRadioSimResponseDefault26supplyIccPinForAppResponseERKNS2_17RadioResponseInfoEi"
  },
  {
   "name" : "_ZN4aidl7android8hardware5radio3sim24IRadioSimResponseDefault26supplyIccPukForAppResponseERKNS2_17RadioResponseInfoEi"
  },
  {
   "name" : "_ZN4aidl7android8hardware5radio3sim24IRadioSimResponseDefault27changeIccPin2ForAppResponseERKNS2_17RadioResponseInfoEi"
  },
  {
   "name" : "_ZN4aidl7android8hardware5radio3sim24IRadioSimResponseDefault27getCdmaSubscriptionResponseERKNS2_17RadioResponseInfoERKNSt3__112basic_stringIcNS8_11char_traitsIcEENS8_9allocatorIcEEEESG_SG_SG_SG_"
  },
  {
   "name" : "_ZN4aidl7android8hardware5radio3sim24IRadioSimResponseDefault27setUiccSubscriptionResponseERKNS2_17RadioResponseInfoE"
  },
  {
   "name" : "_ZN4aidl7android8hardware5radio3sim24IRadioSimResponseDefault27supplyIccPin2ForAppResponseERKNS2_17RadioResponseInfoEi"
  },
  {
   "name" : "_ZN4aidl7android8hardware5radio3sim24IRadioSimResponseDefault27supplyIccPuk2ForAppResponseERKNS2_17RadioResponseInfoEi"
  },
  {
   "name" : "_ZN4aidl7android8hardware5radio3sim24IRadioSimResponseDefault29getFacilityLockForAppResponseERKNS2_17RadioResponseInfoEi"
  },
  {
   "name" : "_ZN4aidl7android8hardware5radio3sim24IRadioSimResponseDefault29iccOpenLogicalChannelResponseERKNS2_17RadioResponseInfoEiRKNSt3__16vectorIhNS8_9allocatorIhEEEE"
  },
  {
   "name" : "_ZN4aidl7android8hardware5radio3sim24IRadioSimResponseDefault29setFacilityLockForAppResponseERKNS2_17RadioResponseInfoEi"
  },
  {
   "name" : "_ZN4aidl7android8hardware5radio3sim24IRadioSimResponseDefault30enableUiccApplicationsResponseERKNS2_17RadioResponseInfoE"
  },
  {
   "name" : "_ZN4aidl7android8hardware5radio3sim24IRadioSimResponseDefault30getSimPhonebookRecordsResponseERKNS2_17RadioResponseInfoE"
  },
  {
   "name" : "_ZN4aidl7android8hardware5radio3sim24IRadioSimResponseDefault30iccCloseLogicalChannelResponseERKNS2_17RadioResponseInfoE"
  },
  {
   "name" : "_ZN4aidl7android8hardware5radio3sim24IRadioSimResponseDefault30sendEnvelopeWithStatusResponseERKNS2_17RadioResponseInfoERKNS3_11IccIoResultE"
  },
  {
   "name" : "_ZN4aidl7android8hardware5radio3sim24IRadioSimResponseDefault31getSimPhonebookCapacityResponseERKNS2_17RadioResponseInfoERKNS3_17PhonebookCapacityE"
  },
  {
   "name" : "_ZN4aidl7android8hardware5radio3sim24IRadioSimResponseDefault33getCdmaSubscriptionSourceResponseERKNS2_17RadioResponseInfoENS3_22CdmaSubscriptionSourceE"
  },
  {
   "name" : "_ZN4aidl7android8hardware5radio3sim24IRadioSimResponseDefault33reportStkServiceIsRunningResponseERKNS2_17RadioResponseInfoE"
  },
  {
   "name" : "_ZN4aidl7android8hardware5radio3sim24IRadioSimResponseDefault33sendTerminalResponseToSimResponseERKNS2_17RadioResponseInfoE"
  },
  {
   "name" : "_ZN4aidl7android8hardware5radio3sim24IRadioSimResponseDefault33setCdmaSubscriptionSourceResponseERKNS2_17RadioResponseInfoE"
  },
  {
   "name" : "_ZN4aidl7android8hardware5radio3sim24IRadioSimResponseDefault33updateSimPhonebookRecordsResponseERKNS2_17RadioResponseInfoEi"
  },
  {
   "name" : "_ZN4aidl7android8hardware5radio3sim24IRadioSimResponseDefault34areUiccApplicationsEnabledResponseERKNS2_17RadioResponseInfoEb"
  },
  {
   "name" : "_ZN4aidl7android8hardware5radio3sim24IRadioSimResponseDefault34supplySimDepersonalizationResponseERKNS2_17RadioResponseInfoENS3_13PersoSubstateEi"
  },
  {
   "name" : "_ZN4aidl7android8hardware5radio3sim24IRadioSimResponseDefault35iccTransmitApduBasicChannelResponseERKNS2_17RadioResponseInfoERKNS3_11IccIoResultE"
  },
  {
   "name" : "_ZN4aidl7android8hardware5radio3sim24IRadioSimResponseDefault35requestIccSimAuthenticationResponseERKNS2_17RadioResponseInfoERKNS3_11IccIoResultE"
  },
  {
   "name" : "_ZN4aidl7android8hardware5radio3sim24IRadioSimResponseDefault37iccTransmitApduLogicalChannelResponseERKNS2_17RadioResponseInfoERKNS3_11IccIoResultE"
  },
  {
   "name" : "_ZN4aidl7android8hardware5radio3sim24IRadioSimResponseDefault39setCarrierInfoForImsiEncryptionResponseERKNS2_17RadioResponseInfoE"
  },
  {
   "name" : "_ZN4aidl7android8hardware5radio3sim24IRadioSimResponseDefault8asBinderEv"
  },
  {
   "name" : "_ZN4aidl7android8hardware5radio3sim24IRadioSimResponseDefault8isRemoteEv"
  },
  {
   "name" : "_ZN4aidl7android8hardware5radio3sim26IRadioSimIndicationDefault10simRefreshENS2_19RadioIndicationTypeERKNS3_16SimRefreshResultE"
  },
  {
   "name" : "_ZN4aidl7android8hardware5radio3sim26IRadioSimIndicationDefault13stkSessionEndENS2_19RadioIndicationTypeE"
  },
  {
   "name" : "_ZN4aidl7android8hardware5radio3sim26IRadioSimIndicationDefault14stkEventNotifyENS2_19RadioIndicationTypeERKNSt3__112basic_stringIcNS6_11char_traitsIcEENS6_9allocatorIcEEEE"
  },
  {
   "name" : "_ZN4aidl7android8hardware5radio3sim26IRadioSimIndicationDefault16getInterfaceHashEPNSt3__112basic_stringIcNS5_11char_traitsIcEENS5_9allocatorIcEEEE"
  },
  {
   "name" : "_ZN4aidl7android8hardware5radio3sim26IRadioSimIndicationDefault16simStatusChangedENS2_19RadioIndicationTypeE"
  },
  {
   "name" : "_ZN4aidl7android8hardware5radio3sim26IRadioSimIndicationDefault19getInterfaceVersionEPi"
  },
  {
   "name" : "_ZN4aidl7android8hardware5radio3sim26IRadioSimIndicationDefault19simPhonebookChangedENS2_19RadioIndicationTypeE"
  },
  {
   "name" : "_ZN4aidl7android8hardware5radio3sim26IRadioSimIndicationDefault19stkProactiveCommandENS2_19RadioIndicationTypeERKNSt3__112basic_stringIcNS6_11char_traitsIcEENS6_9allocatorIcEEEE"
  },
  {
   "name" : "_ZN4aidl7android8hardware5radio3sim26IRadioSimIndicationDefault25subscriptionStatusChangedENS2_19RadioIndicationTypeEb"
  },
  {
   "name" : "_ZN4aidl7android8hardware5radio3sim26IRadioSimIndicationDefault27simPhonebookRecordsReceivedENS2_19RadioIndicationTypeENS3_16PbReceivedStatusERKNSt3__16vectorINS3_19PhonebookRecordInfoENS7_9allocatorIS9_EEEE"
  },
  {
   "name" : "_ZN4aidl7android8hardware5radio3sim26IRadioSimIndicationDefault28carrierInfoForImsiEncryptionENS2_19RadioIndicationTypeE"
  },
  {
   "name" : "_ZN4aidl7android8hardware5radio3sim26IRadioSimIndicationDefault29cdmaSubscriptionSourceChangedENS2_19RadioIndicationTypeENS3_22CdmaSubscriptionSourceE"
  },
  {
   "name" : "_ZN4aidl7android8hardware5radio3sim26IRadioSimIndicationDefault33uiccApplicationsEnablementChangedENS2_19RadioIndicationTypeEb"
  },
  {
   "name" : "_ZN4aidl7android8hardware5radio3sim26IRadioSimIndicationDefault8asBinderEv"
  },
  {
   "name" : "_ZN4aidl7android8hardware5radio3sim26IRadioSimIndicationDefault8isRemoteEv"
  },
  {
   "name" : "_ZN4aidl7android8hardware5radio3sim5IccIo14readFromParcelEPK7AParcel"
  },
  {
   "name" : "_ZN4aidl7android8hardware5radio3sim7Carrier14readFromParcelEPK7AParcel"
  },
  {
   "name" : "_ZN4aidl7android8hardware5radio3sim7SimApdu14readFromParcelEPK7AParcel"
  },
  {
   "name" : "_ZN4aidl7android8hardware5radio3sim9AppStatus14readFromParcelEPK7AParcel"
  },
  {
   "name" : "_ZN4aidl7android8hardware5radio3sim9IRadioSim10fromBinderERKN3ndk10SpAIBinderE"
  },
  {
   "name" : "_ZN4aidl7android8hardware5radio3sim9IRadioSim13writeToParcelEP7AParcelRKNSt3__110shared_ptrIS4_EE"
  },
  {
   "name" : "_ZN4aidl7android8hardware5radio3sim9IRadioSim14getDefaultImplEv"
  },
  {
   "name" : "_ZN4aidl7android8hardware5radio3sim9IRadioSim14readFromParcelEPK7AParcelPNSt3__110shared_ptrIS4_EE"
  },
  {
   "name" : "_ZN4aidl7android8hardware5radio3sim9IRadioSim14setDefaultImplERKNSt3__110shared_ptrIS4_EE"
  },
  {
   "name" : "_ZN4aidl7android8hardware5radio3sim9IRadioSimC2Ev"
  },
  {
   "name" : "_ZN4aidl7android8hardware5radio3sim9IRadioSimD0Ev"
  },
  {
   "name" : "_ZN4aidl7android8hardware5radio3sim9IRadioSimD1Ev"
  },
  {
   "name" : "_ZN4aidl7android8hardware5radio3sim9IRadioSimD2Ev"
  },
  {
   "name" : "_ZNK4aidl7android8hardware5radio3sim10CardStatus13writeToParcelEP7AParcel"
  },
  {
   "name" : "_ZNK4aidl7android8hardware5radio3sim11IccIoResult13writeToParcelEP7AParcel"
  },
  {
   "name" : "_ZNK4aidl7android8hardware5radio3sim13SelectUiccSub13writeToParcelEP7AParcel"
  },
  {
   "name" : "_ZNK4aidl7android8hardware5radio3sim16SimRefreshResult13writeToParcelEP7AParcel"
  },
  {
   "name" : "_ZNK4aidl7android8hardware5radio3sim17PhonebookCapacity13writeToParcelEP7AParcel"
  },
  {
   "name" : "_ZNK4aidl7android8hardware5radio3sim18ImsiEncryptionInfo13writeToParcelEP7AParcel"
  },
  {
   "name" : "_ZNK4aidl7android8hardware5radio3sim19CarrierRestrictions13writeToParcelEP7AParcel"
  },
  {
   "name" : "_ZNK4aidl7android8hardware5radio3sim19PhonebookRecordInfo13writeToParcelEP7AParcel"
  },
  {
   "name" : "_ZNK4aidl7android8hardware5radio3sim5IccIo13writeToParcelEP7AParcel"
  },
  {
   "name" : "_ZNK4aidl7android8hardware5radio3sim7Carrier13writeToParcelEP7AParcel"
  },
  {
   "name" : "_ZNK4aidl7android8hardware5radio3sim7SimApdu13writeToParcelEP7AParcel"
  },
  {
   "name" : "_ZNK4aidl7android8hardware5radio3sim9AppStatus13writeToParcelEP7AParcel"
  },
  {
   "binding" : "weak",
   "name" : "_ZNSt3__110shared_ptrIN4aidl7android8hardware5radio3sim17IRadioSimResponseEED2Ev"
  },
  {
   "binding" : "weak",
   "name" : "_ZNSt3__110shared_ptrIN4aidl7android8hardware5radio3sim19IRadioSimIndicationEED2Ev"
  },
  {
   "binding" : "weak",
   "name" : "_ZNSt3__110shared_ptrIN4aidl7android8hardware5radio3sim9IRadioSimEED2Ev"
  },
  {
   "binding" : "weak",
   "name" : "_ZNSt3__120__shared_ptr_pointerIPN3ndk13SharedRefBaseENS_14default_deleteIS2_EENS_9allocatorIS2_EEE16__on_zero_sharedEv"
  },
  {
   "binding" : "weak",
   "name" : "_ZNSt3__120__shared_ptr_pointerIPN3ndk13SharedRefBaseENS_14default_deleteIS2_EENS_9allocatorIS2_EEE21__on_zero_shared_weakEv"
  },
  {
   "binding" : "weak",
   "name" : "_ZNSt3__16vectorIN4aidl7android8hardware5radio3sim19PhonebookRecordInfoENS_9allocatorIS6_EEE8__appendEm"
  },
  {
   "binding" : "weak",
   "name" : "_ZNSt3__16vectorIN4aidl7android8hardware5radio3sim7CarrierENS_9allocatorIS6_EEE8__appendEm"
  },
  {
   "binding" : "weak",
   "name" : "_ZNSt3__16vectorIN4aidl7android8hardware5radio3sim9AppStatusENS_9allocatorIS6_EEE8__appendEm"
  },
  {
   "binding" : "weak",
   "name" : "_ZNSt3__16vectorINS_12basic_stringIcNS_11char_traitsIcEENS_9allocatorIcEEEENS4_IS6_EEE8__appendEm"
  },
  {
   "binding" : "weak",
   "name" : "_ZNSt3__16vectorIaNS_9allocatorIaEEE8__appendEm"
  }
 ],
 "elf_objects" :
 [
  {
   "binding" : "weak",
   "name" : "_ZGVN4aidl7android8hardware5radio3sim17IRadioSimResponse4hashE"
  },
  {
   "binding" : "weak",
   "name" : "_ZGVN4aidl7android8hardware5radio3sim19IRadioSimIndication4hashE"
  },
  {
   "binding" : "weak",
   "name" : "_ZGVN4aidl7android8hardware5radio3sim9IRadioSim4hashE"
  },
  {
   "binding" : "weak",
   "name" : "_ZGVN4aidl7android8hardware5radio6config12IRadioConfig4hashE"
  },
  {
   "binding" : "weak",
   "name" : "_ZGVN4aidl7android8hardware5radio6config20IRadioConfigResponse4hashE"
  },
  {
   "binding" : "weak",
   "name" : "_ZGVN4aidl7android8hardware5radio6config22IRadioConfigIndication4hashE"
  },
  {
   "name" : "_ZN4aidl7android8hardware5radio3sim10CardStatus10descriptorE"
  },
  {
   "name" : "_ZN4aidl7android8hardware5radio3sim11IccIoResult10descriptorE"
  },
  {
   "name" : "_ZN4aidl7android8hardware5radio3sim13SelectUiccSub10descriptorE"
  },
  {
   "name" : "_ZN4aidl7android8hardware5radio3sim16SimRefreshResult10descriptorE"
  },
  {
   "name" : "_ZN4aidl7android8hardware5radio3sim17IRadioSimResponse10descriptorE"
  },
  {
   "name" : "_ZN4aidl7android8hardware5radio3sim17IRadioSimResponse12default_implE"
  },
  {
   "binding" : "weak",
   "name" : "_ZN4aidl7android8hardware5radio3sim17IRadioSimResponse4hashE"
  },
  {
   "name" : "_ZN4aidl7android8hardware5radio3sim17PhonebookCapacity10descriptorE"
  },
  {
   "name" : "_ZN4aidl7android8hardware5radio3sim18ImsiEncryptionInfo10descriptorE"
  },
  {
   "name" : "_ZN4aidl7android8hardware5radio3sim19CarrierRestrictions10descriptorE"
  },
  {
   "name" : "_ZN4aidl7android8hardware5radio3sim19IRadioSimIndication10descriptorE"
  },
  {
   "name" : "_ZN4aidl7android8hardware5radio3sim19IRadioSimIndication12default_implE"
  },
  {
   "binding" : "weak",
   "name" : "_ZN4aidl7android8hardware5radio3sim19IRadioSimIndication4hashE"
  },
  {
   "name" : "_ZN4aidl7android8hardware5radio3sim19PhonebookRecordInfo10descriptorE"
  },
  {
   "name" : "_ZN4aidl7android8hardware5radio3sim5IccIo10descriptorE"
  },
  {
   "name" : "_ZN4aidl7android8hardware5radio3sim7Carrier10descriptorE"
  },
  {
   "name" : "_ZN4aidl7android8hardware5radio3sim7SimApdu10descriptorE"
  },
  {
   "name" : "_ZN4aidl7android8hardware5radio3sim9AppStatus10descriptorE"
  },
  {
   "name" : "_ZN4aidl7android8hardware5radio3sim9IRadioSim10descriptorE"
  },
  {
   "name" : "_ZN4aidl7android8hardware5radio3sim9IRadioSim12default_implE"
  },
  {
   "binding" : "weak",
   "name" : "_ZN4aidl7android8hardware5radio3sim9IRadioSim4hashE"
  },
  {
   "binding" : "weak",
   "name" : "_ZN4aidl7android8hardware5radio6config12IRadioConfig4hashE"
  },
  {
   "binding" : "weak",
   "name" : "_ZN4aidl7android8hardware5radio6config20IRadioConfigResponse4hashE"
  },
  {
   "binding" : "weak",
   "name" : "_ZN4aidl7android8hardware5radio6config22IRadioConfigIndication4hashE"
  },
  {
   "binding" : "weak",
   "name" : "_ZTVN3ndk12BnCInterfaceIN4aidl7android8hardware5radio3sim17IRadioSimResponseEEE"
  },
  {
   "binding" : "weak",
   "name" : "_ZTVN3ndk12BnCInterfaceIN4aidl7android8hardware5radio3sim19IRadioSimIndicationEEE"
  },
  {
   "binding" : "weak",
   "name" : "_ZTVN3ndk12BnCInterfaceIN4aidl7android8hardware5radio3sim9IRadioSimEEE"
  },
  {
   "binding" : "weak",
   "name" : "_ZTVN3ndk12BpCInterfaceIN4aidl7android8hardware5radio3sim17IRadioSimResponseEEE"
  },
  {
   "binding" : "weak",
   "name" : "_ZTVN3ndk12BpCInterfaceIN4aidl7android8hardware5radio3sim19IRadioSimIndicationEEE"
  },
  {
   "binding" : "weak",
   "name" : "_ZTVN3ndk12BpCInterfaceIN4aidl7android8hardware5radio3sim9IRadioSimEEE"
  },
  {
   "binding" : "weak",
   "name" : "_ZTVN3ndk13SharedRefBaseE"
  },
  {
   "name" : "_ZTVN4aidl7android8hardware5radio3sim10BnRadioSimE"
  },
  {
   "name" : "_ZTVN4aidl7android8hardware5radio3sim10BpRadioSimE"
  },
  {
   "name" : "_ZTVN4aidl7android8hardware5radio3sim16IRadioSimDefaultE"
  },
  {
   "name" : "_ZTVN4aidl7android8hardware5radio3sim17IRadioSimResponseE"
  },
  {
   "name" : "_ZTVN4aidl7android8hardware5radio3sim18BnRadioSimResponseE"
  },
  {
   "name" : "_ZTVN4aidl7android8hardware5radio3sim18BpRadioSimResponseE"
  },
  {
   "name" : "_ZTVN4aidl7android8hardware5radio3sim19IRadioSimIndicationE"
  },
  {
   "name" : "_ZTVN4aidl7android8hardware5radio3sim20BnRadioSimIndicationE"
  },
  {
   "name" : "_ZTVN4aidl7android8hardware5radio3sim20BpRadioSimIndicationE"
  },
  {
   "name" : "_ZTVN4aidl7android8hardware5radio3sim24IRadioSimResponseDefaultE"
  },
  {
   "name" : "_ZTVN4aidl7android8hardware5radio3sim26IRadioSimIndicationDefaultE"
  },
  {
   "name" : "_ZTVN4aidl7android8hardware5radio3sim9IRadioSimE"
  },
  {
   "binding" : "weak",
   "name" : "_ZTVNSt3__120__shared_ptr_pointerIPN3ndk13SharedRefBaseENS_14default_deleteIS2_EENS_9allocatorIS2_EEEE"
  }
 ],
 "enum_types" :
 [
  {
   "alignment" : 4,
   "enum_fields" :
   [
    {
     "enum_field_value" : 1,
     "name" : "FLAG_ONEWAY"
    }
   ],
   "linker_set_key" : "_ZTI12$FLAG_ONEWAY",
   "name" : "(unnamed enum at frameworks/native/libs/binder/ndk/include_ndk/android/binder_ibinder.h:43:1)",
   "referenced_type" : "_ZTI12$FLAG_ONEWAY",
   "self_type" : "_ZTI12$FLAG_ONEWAY",
   "size" : 4,
   "source_file" : "frameworks/native/libs/binder/ndk/include_ndk/android/binder_ibinder.h",
   "underlying_type" : "_ZTIj"
  },
  {
   "alignment" : 4,
   "enum_fields" :
   [
    {
     "enum_field_value" : 0,
     "name" : "EX_NONE"
    },
    {
     "enum_field_value" : -1,
     "name" : "EX_SECURITY"
    },
    {
     "enum_field_value" : -2,
     "name" : "EX_BAD_PARCELABLE"
    },
    {
     "enum_field_value" : -3,
     "name" : "EX_ILLEGAL_ARGUMENT"
    },
    {
     "enum_field_value" : -4,
     "name" : "EX_NULL_POINTER"
    },
    {
     "enum_field_value" : -5,
     "name" : "EX_ILLEGAL_STATE"
    },
    {
     "enum_field_value" : -6,
     "name" : "EX_NETWORK_MAIN_THREAD"
    },
    {
     "enum_field_value" : -7,
     "name" : "EX_UNSUPPORTED_OPERATION"
    },
    {
     "enum_field_value" : -8,
     "name" : "EX_SERVICE_SPECIFIC"
    },
    {
     "enum_field_value" : -9,
     "name" : "EX_PARCELABLE"
    },
    {
     "enum_field_value" : -129,
     "name" : "EX_TRANSACTION_FAILED"
    }
   ],
   "linker_set_key" : "_ZTI18$EX_BAD_PARCELABLE",
   "name" : "(unnamed enum at frameworks/native/libs/binder/ndk/include_ndk/android/binder_status.h:94:1)",
   "referenced_type" : "_ZTI18$EX_BAD_PARCELABLE",
   "self_type" : "_ZTI18$EX_BAD_PARCELABLE",
   "size" : 4,
   "source_file" : "frameworks/native/libs/binder/ndk/include_ndk/android/binder_status.h",
   "underlying_type" : "_ZTIi"
  },
  {
   "alignment" : 4,
   "enum_fields" :
   [
    {
     "enum_field_value" : 268435456,
     "name" : "FLAG_PRIVATE_LOCAL"
    }
   ],
   "linker_set_key" : "_ZTI19$FLAG_PRIVATE_LOCAL",
   "name" : "(unnamed enum at frameworks/native/libs/binder/ndk/include_platform/android/binder_stability.h:35:1)",
   "referenced_type" : "_ZTI19$FLAG_PRIVATE_LOCAL",
   "self_type" : "_ZTI19$FLAG_PRIVATE_LOCAL",
   "size" : 4,
   "source_file" : "frameworks/native/libs/binder/ndk/include_platform/android/binder_stability.h",
   "underlying_type" : "_ZTIj"
  },
  {
   "alignment" : 4,
   "enum_fields" :
   [
    {
     "enum_field_value" : 268435456,
     "name" : "FLAG_PRIVATE_VENDOR"
    }
   ],
   "linker_set_key" : "_ZTI20$FLAG_PRIVATE_VENDOR",
   "name" : "(unnamed enum at frameworks/native/libs/binder/ndk/include_platform/android/binder_stability.h:26:1)",
   "referenced_type" : "_ZTI20$FLAG_PRIVATE_VENDOR",
   "self_type" : "_ZTI20$FLAG_PRIVATE_VENDOR",
   "size" : 4,
   "source_file" : "frameworks/native/libs/binder/ndk/include_platform/android/binder_stability.h",
   "underlying_type" : "_ZTIj"
  },
  {
   "alignment" : 4,
   "enum_fields" :
   [
    {
     "enum_field_value" : 0,
     "name" : "STATUS_OK"
    },
    {
     "enum_field_value" : -2147483648,
     "name" : "STATUS_UNKNOWN_ERROR"
    },
    {
     "enum_field_value" : -12,
     "name" : "STATUS_NO_MEMORY"
    },
    {
     "enum_field_value" : -38,
     "name" : "STATUS_INVALID_OPERATION"
    },
    {
     "enum_field_value" : -22,
     "name" : "STATUS_BAD_VALUE"
    },
    {
     "enum_field_value" : -2147483647,
     "name" : "STATUS_BAD_TYPE"
    },
    {
     "enum_field_value" : -2,
     "name" : "STATUS_NAME_NOT_FOUND"
    },
    {
     "enum_field_value" : -1,
     "name" : "STATUS_PERMISSION_DENIED"
    },
    {
     "enum_field_value" : -19,
     "name" : "STATUS_NO_INIT"
    },
    {
     "enum_field_value" : -17,
     "name" : "STATUS_ALREADY_EXISTS"
    },
    {
     "enum_field_value" : -32,
     "name" : "STATUS_DEAD_OBJECT"
    },
    {
     "enum_field_value" : -2147483646,
     "name" : "STATUS_FAILED_TRANSACTION"
    },
    {
     "enum_field_value" : -75,
     "name" : "STATUS_BAD_INDEX"
    },
    {
     "enum_field_value" : -61,
     "name" : "STATUS_NOT_ENOUGH_DATA"
    },
    {
     "enum_field_value" : -11,
     "name" : "STATUS_WOULD_BLOCK"
    },
    {
     "enum_field_value" : -110,
     "name" : "STATUS_TIMED_OUT"
    },
    {
     "enum_field_value" : -74,
     "name" : "STATUS_UNKNOWN_TRANSACTION"
    },
    {
     "enum_field_value" : -2147483641,
     "name" : "STATUS_FDS_NOT_ALLOWED"
    },
    {
     "enum_field_value" : -2147483640,
     "name" : "STATUS_UNEXPECTED_NULL"
    }
   ],
   "linker_set_key" : "_ZTI22$STATUS_ALREADY_EXISTS",
   "name" : "(unnamed enum at frameworks/native/libs/binder/ndk/include_ndk/android/binder_status.h:60:1)",
   "referenced_type" : "_ZTI22$STATUS_ALREADY_EXISTS",
   "self_type" : "_ZTI22$STATUS_ALREADY_EXISTS",
   "size" : 4,
   "source_file" : "frameworks/native/libs/binder/ndk/include_ndk/android/binder_status.h",
   "underlying_type" : "_ZTIi"
  },
  {
   "alignment" : 4,
   "enum_fields" :
   [
    {
     "enum_field_value" : 1,
     "name" : "FIRST_CALL_TRANSACTION"
    },
    {
     "enum_field_value" : 16777215,
     "name" : "LAST_CALL_TRANSACTION"
    }
   ],
   "linker_set_key" : "_ZTI23$FIRST_CALL_TRANSACTION",
   "name" : "(unnamed enum at frameworks/native/libs/binder/ndk/include_ndk/android/binder_ibinder.h:58:1)",
   "referenced_type" : "_ZTI23$FIRST_CALL_TRANSACTION",
   "self_type" : "_ZTI23$FIRST_CALL_TRANSACTION",
   "size" : 4,
   "source_file" : "frameworks/native/libs/binder/ndk/include_ndk/android/binder_ibinder.h",
   "underlying_type" : "_ZTIj"
  },
  {
   "alignment" : 4,
   "enum_fields" :
   [
    {
     "enum_field_value" : 0,
     "name" : "ndk::STABILITY_LOCAL"
    },
    {
     "enum_field_value" : 1,
     "name" : "ndk::STABILITY_VINTF"
    }
   ],
   "linker_set_key" : "_ZTIN3ndk16$STABILITY_LOCALE",
   "name" : "ndk::(unnamed enum at frameworks/native/libs/binder/ndk/include_cpp/android/binder_parcelable_utils.h:34:1)",
   "referenced_type" : "_ZTIN3ndk16$STABILITY_LOCALE",
   "self_type" : "_ZTIN3ndk16$STABILITY_LOCALE",
   "size" : 4,
   "source_file" : "frameworks/native/libs/binder/ndk/include_cpp/android/binder_parcelable_utils.h",
   "underlying_type" : "_ZTIj"
  },
  {
   "alignment" : 4,
   "enum_fields" :
   [
    {
     "enum_field_value" : 0,
     "name" : "aidl::android::hardware::radio::RadioError::NONE"
    },
    {
     "enum_field_value" : 1,
     "name" : "aidl::android::hardware::radio::RadioError::RADIO_NOT_AVAILABLE"
    },
    {
     "enum_field_value" : 2,
     "name" : "aidl::android::hardware::radio::RadioError::GENERIC_FAILURE"
    },
    {
     "enum_field_value" : 3,
     "name" : "aidl::android::hardware::radio::RadioError::PASSWORD_INCORRECT"
    },
    {
     "enum_field_value" : 4,
     "name" : "aidl::android::hardware::radio::RadioError::SIM_PIN2"
    },
    {
     "enum_field_value" : 5,
     "name" : "aidl::android::hardware::radio::RadioError::SIM_PUK2"
    },
    {
     "enum_field_value" : 6,
     "name" : "aidl::android::hardware::radio::RadioError::REQUEST_NOT_SUPPORTED"
    },
    {
     "enum_field_value" : 7,
     "name" : "aidl::android::hardware::radio::RadioError::CANCELLED"
    },
    {
     "enum_field_value" : 8,
     "name" : "aidl::android::hardware::radio::RadioError::OP_NOT_ALLOWED_DURING_VOICE_CALL"
    },
    {
     "enum_field_value" : 9,
     "name" : "aidl::android::hardware::radio::RadioError::OP_NOT_ALLOWED_BEFORE_REG_TO_NW"
    },
    {
     "enum_field_value" : 10,
     "name" : "aidl::android::hardware::radio::RadioError::SMS_SEND_FAIL_RETRY"
    },
    {
     "enum_field_value" : 11,
     "name" : "aidl::android::hardware::radio::RadioError::SIM_ABSENT"
    },
    {
     "enum_field_value" : 12,
     "name" : "aidl::android::hardware::radio::RadioError::SUBSCRIPTION_NOT_AVAILABLE"
    },
    {
     "enum_field_value" : 13,
     "name" : "aidl::android::hardware::radio::RadioError::MODE_NOT_SUPPORTED"
    },
    {
     "enum_field_value" : 14,
     "name" : "aidl::android::hardware::radio::RadioError::FDN_CHECK_FAILURE"
    },
    {
     "enum_field_value" : 15,
     "name" : "aidl::android::hardware::radio::RadioError::ILLEGAL_SIM_OR_ME"
    },
    {
     "enum_field_value" : 16,
     "name" : "aidl::android::hardware::radio::RadioError::MISSING_RESOURCE"
    },
    {
     "enum_field_value" : 17,
     "name" : "aidl::android::hardware::radio::RadioError::NO_SUCH_ELEMENT"
    },
    {
     "enum_field_value" : 18,
     "name" : "aidl::android::hardware::radio::RadioError::DIAL_MODIFIED_TO_USSD"
    },
    {
     "enum_field_value" : 19,
     "name" : "aidl::android::hardware::radio::RadioError::DIAL_MODIFIED_TO_SS"
    },
    {
     "enum_field_value" : 20,
     "name" : "aidl::android::hardware::radio::RadioError::DIAL_MODIFIED_TO_DIAL"
    },
    {
     "enum_field_value" : 21,
     "name" : "aidl::android::hardware::radio::RadioError::USSD_MODIFIED_TO_DIAL"
    },
    {
     "enum_field_value" : 22,
     "name" : "aidl::android::hardware::radio::RadioError::USSD_MODIFIED_TO_SS"
    },
    {
     "enum_field_value" : 23,
     "name" : "aidl::android::hardware::radio::RadioError::USSD_MODIFIED_TO_USSD"
    },
    {
     "enum_field_value" : 24,
     "name" : "aidl::android::hardware::radio::RadioError::SS_MODIFIED_TO_DIAL"
    },
    {
     "enum_field_value" : 25,
     "name" : "aidl::android::hardware::radio::RadioError::SS_MODIFIED_TO_USSD"
    },
    {
     "enum_field_value" : 26,
     "name" : "aidl::android::hardware::radio::RadioError::SUBSCRIPTION_NOT_SUPPORTED"
    },
    {
     "enum_field_value" : 27,
     "name" : "aidl::android::hardware::radio::RadioError::SS_MODIFIED_TO_SS"
    },
    {
     "enum_field_value" : 36,
     "name" : "aidl::android::hardware::radio::RadioError::LCE_NOT_SUPPORTED"
    },
    {
     "enum_field_value" : 37,
     "name" : "aidl::android::hardware::radio::RadioError::NO_MEMORY"
    },
    {
     "enum_field_value" : 38,
     "name" : "aidl::android::hardware::radio::RadioError::INTERNAL_ERR"
    },
    {
     "enum_field_value" : 39,
     "name" : "aidl::android::hardware::radio::RadioError::SYSTEM_ERR"
    },
    {
     "enum_field_value" : 40,
     "name" : "aidl::android::hardware::radio::RadioError::MODEM_ERR"
    },
    {
     "enum_field_value" : 41,
     "name" : "aidl::android::hardware::radio::RadioError::INVALID_STATE"
    },
    {
     "enum_field_value" : 42,
     "name" : "aidl::android::hardware::radio::RadioError::NO_RESOURCES"
    },
    {
     "enum_field_value" : 43,
     "name" : "aidl::android::hardware::radio::RadioError::SIM_ERR"
    },
    {
     "enum_field_value" : 44,
     "name" : "aidl::android::hardware::radio::RadioError::INVALID_ARGUMENTS"
    },
    {
     "enum_field_value" : 45,
     "name" : "aidl::android::hardware::radio::RadioError::INVALID_SIM_STATE"
    },
    {
     "enum_field_value" : 46,
     "name" : "aidl::android::hardware::radio::RadioError::INVALID_MODEM_STATE"
    },
    {
     "enum_field_value" : 47,
     "name" : "aidl::android::hardware::radio::RadioError::INVALID_CALL_ID"
    },
    {
     "enum_field_value" : 48,
     "name" : "aidl::android::hardware::radio::RadioError::NO_SMS_TO_ACK"
    },
    {
     "enum_field_value" : 49,
     "name" : "aidl::android::hardware::radio::RadioError::NETWORK_ERR"
    },
    {
     "enum_field_value" : 50,
     "name" : "aidl::android::hardware::radio::RadioError::REQUEST_RATE_LIMITED"
    },
    {
     "enum_field_value" : 51,
     "name" : "aidl::android::hardware::radio::RadioError::SIM_BUSY"
    },
    {
     "enum_field_value" : 52,
     "name" : "aidl::android::hardware::radio::RadioError::SIM_FULL"
    },
    {
     "enum_field_value" : 53,
     "name" : "aidl::android::hardware::radio::RadioError::NETWORK_REJECT"
    },
    {
     "enum_field_value" : 54,
     "name" : "aidl::android::hardware::radio::RadioError::OPERATION_NOT_ALLOWED"
    },
    {
     "enum_field_value" : 55,
     "name" : "aidl::android::hardware::radio::RadioError::EMPTY_RECORD"
    },
    {
     "enum_field_value" : 56,
     "name" : "aidl::android::hardware::radio::RadioError::INVALID_SMS_FORMAT"
    },
    {
     "enum_field_value" : 57,
     "name" : "aidl::android::hardware::radio::RadioError::ENCODING_ERR"
    },
    {
     "enum_field_value" : 58,
     "name" : "aidl::android::hardware::radio::RadioError::INVALID_SMSC_ADDRESS"
    },
    {
     "enum_field_value" : 59,
     "name" : "aidl::android::hardware::radio::RadioError::NO_SUCH_ENTRY"
    },
    {
     "enum_field_value" : 60,
     "name" : "aidl::android::hardware::radio::RadioError::NETWORK_NOT_READY"
    },
    {
     "enum_field_value" : 61,
     "name" : "aidl::android::hardware::radio::RadioError::NOT_PROVISIONED"
    },
    {
     "enum_field_value" : 62,
     "name" : "aidl::android::hardware::radio::RadioError::NO_SUBSCRIPTION"
    },
    {
     "enum_field_value" : 63,
     "name" : "aidl::android::hardware::radio::RadioError::NO_NETWORK_FOUND"
    },
    {
     "enum_field_value" : 64,
     "name" : "aidl::android::hardware::radio::RadioError::DEVICE_IN_USE"
    },
    {
     "enum_field_value" : 65,
     "name" : "aidl::android::hardware::radio::RadioError::ABORTED"
    },
    {
     "enum_field_value" : 66,
     "name" : "aidl::android::hardware::radio::RadioError::INVALID_RESPONSE"
    },
    {
     "enum_field_value" : 501,
     "name" : "aidl::android::hardware::radio::RadioError::OEM_ERROR_1"
    },
    {
     "enum_field_value" : 502,
     "name" : "aidl::android::hardware::radio::RadioError::OEM_ERROR_2"
    },
    {
     "enum_field_value" : 503,
     "name" : "aidl::android::hardware::radio::RadioError::OEM_ERROR_3"
    },
    {
     "enum_field_value" : 504,
     "name" : "aidl::android::hardware::radio::RadioError::OEM_ERROR_4"
    },
    {
     "enum_field_value" : 505,
     "name" : "aidl::android::hardware::radio::RadioError::OEM_ERROR_5"
    },
    {
     "enum_field_value" : 506,
     "name" : "aidl::android::hardware::radio::RadioError::OEM_ERROR_6"
    },
    {
     "enum_field_value" : 507,
     "name" : "aidl::android::hardware::radio::RadioError::OEM_ERROR_7"
    },
    {
     "enum_field_value" : 508,
     "name" : "aidl::android::hardware::radio::RadioError::OEM_ERROR_8"
    },
    {
     "enum_field_value" : 509,
     "name" : "aidl::android::hardware::radio::RadioError::OEM_ERROR_9"
    },
    {
     "enum_field_value" : 510,
     "name" : "aidl::android::hardware::radio::RadioError::OEM_ERROR_10"
    },
    {
     "enum_field_value" : 511,
     "name" : "aidl::android::hardware::radio::RadioError::OEM_ERROR_11"
    },
    {
     "enum_field_value" : 512,
     "name" : "aidl::android::hardware::radio::RadioError::OEM_ERROR_12"
    },
    {
     "enum_field_value" : 513,
     "name" : "aidl::android::hardware::radio::RadioError::OEM_ERROR_13"
    },
    {
     "enum_field_value" : 514,
     "name" : "aidl::android::hardware::radio::RadioError::OEM_ERROR_14"
    },
    {
     "enum_field_value" : 515,
     "name" : "aidl::android::hardware::radio::RadioError::OEM_ERROR_15"
    },
    {
     "enum_field_value" : 516,
     "name" : "aidl::android::hardware::radio::RadioError::OEM_ERROR_16"
    },
    {
     "enum_field_value" : 517,
     "name" : "aidl::android::hardware::radio::RadioError::OEM_ERROR_17"
    },
    {
     "enum_field_value" : 518,
     "name" : "aidl::android::hardware::radio::RadioError::OEM_ERROR_18"
    },
    {
     "enum_field_value" : 519,
     "name" : "aidl::android::hardware::radio::RadioError::OEM_ERROR_19"
    },
    {
     "enum_field_value" : 520,
     "name" : "aidl::android::hardware::radio::RadioError::OEM_ERROR_20"
    },
    {
     "enum_field_value" : 521,
     "name" : "aidl::android::hardware::radio::RadioError::OEM_ERROR_21"
    },
    {
     "enum_field_value" : 522,
     "name" : "aidl::android::hardware::radio::RadioError::OEM_ERROR_22"
    },
    {
     "enum_field_value" : 523,
     "name" : "aidl::android::hardware::radio::RadioError::OEM_ERROR_23"
    },
    {
     "enum_field_value" : 524,
     "name" : "aidl::android::hardware::radio::RadioError::OEM_ERROR_24"
    },
    {
     "enum_field_value" : 525,
     "name" : "aidl::android::hardware::radio::RadioError::OEM_ERROR_25"
    },
    {
     "enum_field_value" : 67,
     "name" : "aidl::android::hardware::radio::RadioError::SIMULTANEOUS_SMS_AND_CALL_NOT_ALLOWED"
    },
    {
     "enum_field_value" : 68,
     "name" : "aidl::android::hardware::radio::RadioError::ACCESS_BARRED"
    },
    {
     "enum_field_value" : 69,
     "name" : "aidl::android::hardware::radio::RadioError::BLOCKED_DUE_TO_CALL"
    },
    {
     "enum_field_value" : 70,
     "name" : "aidl::android::hardware::radio::RadioError::RF_HARDWARE_ISSUE"
    },
    {
     "enum_field_value" : 71,
     "name" : "aidl::android::hardware::radio::RadioError::NO_RF_CALIBRATION_INFO"
    }
   ],
   "linker_set_key" : "_ZTIN4aidl7android8hardware5radio10RadioErrorE",
   "name" : "aidl::android::hardware::radio::RadioError",
   "referenced_type" : "_ZTIN4aidl7android8hardware5radio10RadioErrorE",
   "self_type" : "_ZTIN4aidl7android8hardware5radio10RadioErrorE",
   "size" : 4,
   "source_file" : "out/soong/.intermediates/hardware/interfaces/radio/aidl/android.hardware.radio-V1-ndk-source/gen/include/aidl/android/hardware/radio/RadioError.h",
   "underlying_type" : "_ZTIi"
  },
  {
   "alignment" : 4,
   "enum_fields" :
   [
    {
     "enum_field_value" : 0,
     "name" : "aidl::android::hardware::radio::RadioResponseType::SOLICITED"
    },
    {
     "enum_field_value" : 1,
     "name" : "aidl::android::hardware::radio::RadioResponseType::SOLICITED_ACK"
    },
    {
     "enum_field_value" : 2,
     "name" : "aidl::android::hardware::radio::RadioResponseType::SOLICITED_ACK_EXP"
    }
   ],
   "linker_set_key" : "_ZTIN4aidl7android8hardware5radio17RadioResponseTypeE",
   "name" : "aidl::android::hardware::radio::RadioResponseType",
   "referenced_type" : "_ZTIN4aidl7android8hardware5radio17RadioResponseTypeE",
   "self_type" : "_ZTIN4aidl7android8hardware5radio17RadioResponseTypeE",
   "size" : 4,
   "source_file" : "out/soong/.intermediates/hardware/interfaces/radio/aidl/android.hardware.radio-V1-ndk-source/gen/include/aidl/android/hardware/radio/RadioResponseType.h",
   "underlying_type" : "_ZTIi"
  },
  {
   "alignment" : 4,
   "enum_fields" :
   [
    {
     "enum_field_value" : 0,
     "name" : "aidl::android::hardware::radio::RadioIndicationType::UNSOLICITED"
    },
    {
     "enum_field_value" : 1,
     "name" : "aidl::android::hardware::radio::RadioIndicationType::UNSOLICITED_ACK_EXP"
    }
   ],
   "linker_set_key" : "_ZTIN4aidl7android8hardware5radio19RadioIndicationTypeE",
   "name" : "aidl::android::hardware::radio::RadioIndicationType",
   "referenced_type" : "_ZTIN4aidl7android8hardware5radio19RadioIndicationTypeE",
   "self_type" : "_ZTIN4aidl7android8hardware5radio19RadioIndicationTypeE",
   "size" : 4,
   "source_file" : "out/soong/.intermediates/hardware/interfaces/radio/aidl/android.hardware.radio-V1-ndk-source/gen/include/aidl/android/hardware/radio/RadioIndicationType.h",
   "underlying_type" : "_ZTIi"
  },
  {
   "alignment" : 4,
   "enum_fields" :
   [
    {
     "enum_field_value" : 2,
     "name" : "aidl::android::hardware::radio::sim::CardStatus::STATE_ERROR"
    }
   ],
   "linker_set_key" : "_ZTIN4aidl7android8hardware5radio3sim10CardStatus12$STATE_ERRORE",
   "name" : "aidl::android::hardware::radio::sim::CardStatus::(unnamed enum at out/soong/.intermediates/hardware/interfaces/radio/aidl/android.hardware.radio.sim-V1-ndk-source/gen/include/aidl/android/hardware/radio/sim/CardStatus.h:64:3)",
   "referenced_type" : "_ZTIN4aidl7android8hardware5radio3sim10CardStatus12$STATE_ERRORE",
   "self_type" : "_ZTIN4aidl7android8hardware5radio3sim10CardStatus12$STATE_ERRORE",
   "size" : 4,
   "source_file" : "out/soong/.intermediates/hardware/interfaces/radio/aidl/android.hardware.radio.sim-V1-ndk-source/gen/include/aidl/android/hardware/radio/sim/CardStatus.h",
   "underlying_type" : "_ZTIi"
  },
  {
   "alignment" : 4,
   "enum_fields" :
   [
    {
     "enum_field_value" : 0,
     "name" : "aidl::android::hardware::radio::sim::CardStatus::STATE_ABSENT"
    }
   ],
   "linker_set_key" : "_ZTIN4aidl7android8hardware5radio3sim10CardStatus13$STATE_ABSENTE",
   "name" : "aidl::android::hardware::radio::sim::CardStatus::(unnamed enum at out/soong/.intermediates/hardware/interfaces/radio/aidl/android.hardware.radio.sim-V1-ndk-source/gen/include/aidl/android/hardware/radio/sim/CardStatus.h:62:3)",
   "referenced_type" : "_ZTIN4aidl7android8hardware5radio3sim10CardStatus13$STATE_ABSENTE",
   "self_type" : "_ZTIN4aidl7android8hardware5radio3sim10CardStatus13$STATE_ABSENTE",
   "size" : 4,
   "source_file" : "out/soong/.intermediates/hardware/interfaces/radio/aidl/android.hardware.radio.sim-V1-ndk-source/gen/include/aidl/android/hardware/radio/sim/CardStatus.h",
   "underlying_type" : "_ZTIi"
  },
  {
   "alignment" : 4,
   "enum_fields" :
   [
    {
     "enum_field_value" : 1,
     "name" : "aidl::android::hardware::radio::sim::CardStatus::STATE_PRESENT"
    }
   ],
   "linker_set_key" : "_ZTIN4aidl7android8hardware5radio3sim10CardStatus14$STATE_PRESENTE",
   "name" : "aidl::android::hardware::radio::sim::CardStatus::(unnamed enum at out/soong/.intermediates/hardware/interfaces/radio/aidl/android.hardware.radio.sim-V1-ndk-source/gen/include/aidl/android/hardware/radio/sim/CardStatus.h:63:3)",
   "referenced_type" : "_ZTIN4aidl7android8hardware5radio3sim10CardStatus14$STATE_PRESENTE",
   "self_type" : "_ZTIN4aidl7android8hardware5radio3sim10CardStatus14$STATE_PRESENTE",
   "size" : 4,
   "source_file" : "out/soong/.intermediates/hardware/interfaces/radio/aidl/android.hardware.radio.sim-V1-ndk-source/gen/include/aidl/android/hardware/radio/sim/CardStatus.h",
   "underlying_type" : "_ZTIi"
  },
  {
   "alignment" : 4,
   "enum_fields" :
   [
    {
     "enum_field_value" : 3,
     "name" : "aidl::android::hardware::radio::sim::CardStatus::STATE_RESTRICTED"
    }
   ],
   "linker_set_key" : "_ZTIN4aidl7android8hardware5radio3sim10CardStatus17$STATE_RESTRICTEDE",
   "name" : "aidl::android::hardware::radio::sim::CardStatus::(unnamed enum at out/soong/.intermediates/hardware/interfaces/radio/aidl/android.hardware.radio.sim-V1-ndk-source/gen/include/aidl/android/hardware/radio/sim/CardStatus.h:65:3)",
   "referenced_type" : "_ZTIN4aidl7android8hardware5radio3sim10CardStatus17$STATE_RESTRICTEDE",
   "self_type" : "_ZTIN4aidl7android8hardware5radio3sim10CardStatus17$STATE_RESTRICTEDE",
   "size" : 4,
   "source_file" : "out/soong/.intermediates/hardware/interfaces/radio/aidl/android.hardware.radio.sim-V1-ndk-source/gen/include/aidl/android/hardware/radio/sim/CardStatus.h",
   "underlying_type" : "_ZTIi"
  },
  {
   "alignment" : 4,
   "enum_fields" :
   [
    {
     "enum_field_value" : 0,
     "name" : "aidl::android::hardware::radio::sim::PersoSubstate::UNKNOWN"
    },
    {
     "enum_field_value" : 1,
     "name" : "aidl::android::hardware::radio::sim::PersoSubstate::IN_PROGRESS"
    },
    {
     "enum_field_value" : 2,
     "name" : "aidl::android::hardware::radio::sim::PersoSubstate::READY"
    },
    {
     "enum_field_value" : 3,
     "name" : "aidl::android::hardware::radio::sim::PersoSubstate::SIM_NETWORK"
    },
    {
     "enum_field_value" : 4,
     "name" : "aidl::android::hardware::radio::sim::PersoSubstate::SIM_NETWORK_SUBSET"
    },
    {
     "enum_field_value" : 5,
     "name" : "aidl::android::hardware::radio::sim::PersoSubstate::SIM_CORPORATE"
    },
    {
     "enum_field_value" : 6,
     "name" : "aidl::android::hardware::radio::sim::PersoSubstate::SIM_SERVICE_PROVIDER"
    },
    {
     "enum_field_value" : 7,
     "name" : "aidl::android::hardware::radio::sim::PersoSubstate::SIM_SIM"
    },
    {
     "enum_field_value" : 8,
     "name" : "aidl::android::hardware::radio::sim::PersoSubstate::SIM_NETWORK_PUK"
    },
    {
     "enum_field_value" : 9,
     "name" : "aidl::android::hardware::radio::sim::PersoSubstate::SIM_NETWORK_SUBSET_PUK"
    },
    {
     "enum_field_value" : 10,
     "name" : "aidl::android::hardware::radio::sim::PersoSubstate::SIM_CORPORATE_PUK"
    },
    {
     "enum_field_value" : 11,
     "name" : "aidl::android::hardware::radio::sim::PersoSubstate::SIM_SERVICE_PROVIDER_PUK"
    },
    {
     "enum_field_value" : 12,
     "name" : "aidl::android::hardware::radio::sim::PersoSubstate::SIM_SIM_PUK"
    },
    {
     "enum_field_value" : 13,
     "name" : "aidl::android::hardware::radio::sim::PersoSubstate::RUIM_NETWORK1"
    },
    {
     "enum_field_value" : 14,
     "name" : "aidl::android::hardware::radio::sim::PersoSubstate::RUIM_NETWORK2"
    },
    {
     "enum_field_value" : 15,
     "name" : "aidl::android::hardware::radio::sim::PersoSubstate::RUIM_HRPD"
    },
    {
     "enum_field_value" : 16,
     "name" : "aidl::android::hardware::radio::sim::PersoSubstate::RUIM_CORPORATE"
    },
    {
     "enum_field_value" : 17,
     "name" : "aidl::android::hardware::radio::sim::PersoSubstate::RUIM_SERVICE_PROVIDER"
    },
    {
     "enum_field_value" : 18,
     "name" : "aidl::android::hardware::radio::sim::PersoSubstate::RUIM_RUIM"
    },
    {
     "enum_field_value" : 19,
     "name" : "aidl::android::hardware::radio::sim::PersoSubstate::RUIM_NETWORK1_PUK"
    },
    {
     "enum_field_value" : 20,
     "name" : "aidl::android::hardware::radio::sim::PersoSubstate::RUIM_NETWORK2_PUK"
    },
    {
     "enum_field_value" : 21,
     "name" : "aidl::android::hardware::radio::sim::PersoSubstate::RUIM_HRPD_PUK"
    },
    {
     "enum_field_value" : 22,
     "name" : "aidl::android::hardware::radio::sim::PersoSubstate::RUIM_CORPORATE_PUK"
    },
    {
     "enum_field_value" : 23,
     "name" : "aidl::android::hardware::radio::sim::PersoSubstate::RUIM_SERVICE_PROVIDER_PUK"
    },
    {
     "enum_field_value" : 24,
     "name" : "aidl::android::hardware::radio::sim::PersoSubstate::RUIM_RUIM_PUK"
    },
    {
     "enum_field_value" : 25,
     "name" : "aidl::android::hardware::radio::sim::PersoSubstate::SIM_SPN"
    },
    {
     "enum_field_value" : 26,
     "name" : "aidl::android::hardware::radio::sim::PersoSubstate::SIM_SPN_PUK"
    },
    {
     "enum_field_value" : 27,
     "name" : "aidl::android::hardware::radio::sim::PersoSubstate::SIM_SP_EHPLMN"
    },
    {
     "enum_field_value" : 28,
     "name" : "aidl::android::hardware::radio::sim::PersoSubstate::SIM_SP_EHPLMN_PUK"
    },
    {
     "enum_field_value" : 29,
     "name" : "aidl::android::hardware::radio::sim::PersoSubstate::SIM_ICCID"
    },
    {
     "enum_field_value" : 30,
     "name" : "aidl::android::hardware::radio::sim::PersoSubstate::SIM_ICCID_PUK"
    },
    {
     "enum_field_value" : 31,
     "name" : "aidl::android::hardware::radio::sim::PersoSubstate::SIM_IMPI"
    },
    {
     "enum_field_value" : 32,
     "name" : "aidl::android::hardware::radio::sim::PersoSubstate::SIM_IMPI_PUK"
    },
    {
     "enum_field_value" : 33,
     "name" : "aidl::android::hardware::radio::sim::PersoSubstate::SIM_NS_SP"
    },
    {
     "enum_field_value" : 34,
     "name" : "aidl::android::hardware::radio::sim::PersoSubstate::SIM_NS_SP_PUK"
    }
   ],
   "linker_set_key" : "_ZTIN4aidl7android8hardware5radio3sim13PersoSubstateE",
   "name" : "aidl::android::hardware::radio::sim::PersoSubstate",
   "referenced_type" : "_ZTIN4aidl7android8hardware5radio3sim13PersoSubstateE",
   "self_type" : "_ZTIN4aidl7android8hardware5radio3sim13PersoSubstateE",
   "size" : 4,
   "source_file" : "out/soong/.intermediates/hardware/interfaces/radio/aidl/android.hardware.radio.sim-V1-ndk-source/gen/include/aidl/android/hardware/radio/sim/PersoSubstate.h",
   "underlying_type" : "_ZTIi"
  },
  {
   "alignment" : 4,
   "enum_fields" :
   [
    {
     "enum_field_value" : 1,
     "name" : "aidl::android::hardware::radio::sim::SelectUiccSub::ACT_STATUS_ACTIVATE"
    }
   ],
   "linker_set_key" : "_ZTIN4aidl7android8hardware5radio3sim13SelectUiccSub20$ACT_STATUS_ACTIVATEE",
   "name" : "aidl::android::hardware::radio::sim::SelectUiccSub::(unnamed enum at out/soong/.intermediates/hardware/interfaces/radio/aidl/android.hardware.radio.sim-V1-ndk-source/gen/include/aidl/android/hardware/radio/sim/SelectUiccSub.h:57:3)",
   "referenced_type" : "_ZTIN4aidl7android8hardware5radio3sim13SelectUiccSub20$ACT_STATUS_ACTIVATEE",
   "self_type" : "_ZTIN4aidl7android8hardware5radio3sim13SelectUiccSub20$ACT_STATUS_ACTIVATEE",
   "size" : 4,
   "source_file" : "out/soong/.intermediates/hardware/interfaces/radio/aidl/android.hardware.radio.sim-V1-ndk-source/gen/include/aidl/android/hardware/radio/sim/SelectUiccSub.h",
   "underlying_type" : "_ZTIi"
  },
  {
   "alignment" : 4,
   "enum_fields" :
   [
    {
     "enum_field_value" : 0,
     "name" : "aidl::android::hardware::radio::sim::SelectUiccSub::SUBSCRIPTION_TYPE_1"
    }
   ],
   "linker_set_key" : "_ZTIN4aidl7android8hardware5radio3sim13SelectUiccSub20$SUBSCRIPTION_TYPE_1E",
   "name" : "aidl::android::hardware::radio::sim::SelectUiccSub::(unnamed enum at out/soong/.intermediates/hardware/interfaces/radio/aidl/android.hardware.radio.sim-V1-ndk-source/gen/include/aidl/android/hardware/radio/sim/SelectUiccSub.h:53:3)",
   "referenced_type" : "_ZTIN4aidl7android8hardware5radio3sim13SelectUiccSub20$SUBSCRIPTION_TYPE_1E",
   "self_type" : "_ZTIN4aidl7android8hardware5radio3sim13SelectUiccSub20$SUBSCRIPTION_TYPE_1E",
   "size" : 4,
   "source_file" : "out/soong/.intermediates/hardware/interfaces/radio/aidl/android.hardware.radio.sim-V1-ndk-source/gen/include/aidl/android/hardware/radio/sim/SelectUiccSub.h",
   "underlying_type" : "_ZTIi"
  },
  {
   "alignment" : 4,
   "enum_fields" :
   [
    {
     "enum_field_value" : 1,
     "name" : "aidl::android::hardware::radio::sim::SelectUiccSub::SUBSCRIPTION_TYPE_2"
    }
   ],
   "linker_set_key" : "_ZTIN4aidl7android8hardware5radio3sim13SelectUiccSub20$SUBSCRIPTION_TYPE_2E",
   "name" : "aidl::android::hardware::radio::sim::SelectUiccSub::(unnamed enum at out/soong/.intermediates/hardware/interfaces/radio/aidl/android.hardware.radio.sim-V1-ndk-source/gen/include/aidl/android/hardware/radio/sim/SelectUiccSub.h:54:3)",
   "referenced_type" : "_ZTIN4aidl7android8hardware5radio3sim13SelectUiccSub20$SUBSCRIPTION_TYPE_2E",
   "self_type" : "_ZTIN4aidl7android8hardware5radio3sim13SelectUiccSub20$SUBSCRIPTION_TYPE_2E",
   "size" : 4,
   "source_file" : "out/soong/.intermediates/hardware/interfaces/radio/aidl/android.hardware.radio.sim-V1-ndk-source/gen/include/aidl/android/hardware/radio/sim/SelectUiccSub.h",
   "underlying_type" : "_ZTIi"
  },
  {
   "alignment" : 4,
   "enum_fields" :
   [
    {
     "enum_field_value" : 2,
     "name" : "aidl::android::hardware::radio::sim::SelectUiccSub::SUBSCRIPTION_TYPE_3"
    }
   ],
   "linker_set_key" : "_ZTIN4aidl7android8hardware5radio3sim13SelectUiccSub20$SUBSCRIPTION_TYPE_3E",
   "name" : "aidl::android::hardware::radio::sim::SelectUiccSub::(unnamed enum at out/soong/.intermediates/hardware/interfaces/radio/aidl/android.hardware.radio.sim-V1-ndk-source/gen/include/aidl/android/hardware/radio/sim/SelectUiccSub.h:55:3)",
   "referenced_type" : "_ZTIN4aidl7android8hardware5radio3sim13SelectUiccSub20$SUBSCRIPTION_TYPE_3E",
   "self_type" : "_ZTIN4aidl7android8hardware5radio3sim13SelectUiccSub20$SUBSCRIPTION_TYPE_3E",
   "size" : 4,
   "source_file" : "out/soong/.intermediates/hardware/interfaces/radio/aidl/android.hardware.radio.sim-V1-ndk-source/gen/include/aidl/android/hardware/radio/sim/SelectUiccSub.h",
   "underlying_type" : "_ZTIi"
  },
  {
   "alignment" : 4,
   "enum_fields" :
   [
    {
     "enum_field_value" : 0,
     "name" : "aidl::android::hardware::radio::sim::SelectUiccSub::ACT_STATUS_DEACTIVATE"
    }
   ],
   "linker_set_key" : "_ZTIN4aidl7android8hardware5radio3sim13SelectUiccSub22$ACT_STATUS_DEACTIVATEE",
   "name" : "aidl::android::hardware::radio::sim::SelectUiccSub::(unnamed enum at out/soong/.intermediates/hardware/interfaces/radio/aidl/android.hardware.radio.sim-V1-ndk-source/gen/include/aidl/android/hardware/radio/sim/SelectUiccSub.h:56:3)",
   "referenced_type" : "_ZTIN4aidl7android8hardware5radio3sim13SelectUiccSub22$ACT_STATUS_DEACTIVATEE",
   "self_type" : "_ZTIN4aidl7android8hardware5radio3sim13SelectUiccSub22$ACT_STATUS_DEACTIVATEE",
   "size" : 4,
   "source_file" : "out/soong/.intermediates/hardware/interfaces/radio/aidl/android.hardware.radio.sim-V1-ndk-source/gen/include/aidl/android/hardware/radio/sim/SelectUiccSub.h",
   "underlying_type" : "_ZTIi"
  },
  {
   "alignment" : 4,
   "enum_fields" :
   [
    {
     "enum_field_value" : 0,
     "name" : "aidl::android::hardware::radio::sim::CardPowerState::POWER_DOWN"
    },
    {
     "enum_field_value" : 1,
     "name" : "aidl::android::hardware::radio::sim::CardPowerState::POWER_UP"
    },
    {
     "enum_field_value" : 2,
     "name" : "aidl::android::hardware::radio::sim::CardPowerState::POWER_UP_PASS_THROUGH"
    }
   ],
   "linker_set_key" : "_ZTIN4aidl7android8hardware5radio3sim14CardPowerStateE",
   "name" : "aidl::android::hardware::radio::sim::CardPowerState",
   "referenced_type" : "_ZTIN4aidl7android8hardware5radio3sim14CardPowerStateE",
   "self_type" : "_ZTIN4aidl7android8hardware5radio3sim14CardPowerStateE",
   "size" : 4,
   "source_file" : "out/soong/.intermediates/hardware/interfaces/radio/aidl/android.hardware.radio.sim-V1-ndk-source/gen/include/aidl/android/hardware/radio/sim/CardPowerState.h",
   "underlying_type" : "_ZTIi"
  },
  {
   "alignment" : 1,
   "enum_fields" :
   [
    {
     "enum_field_value" : 1,
     "name" : "aidl::android::hardware::radio::sim::PbReceivedStatus::PB_RECEIVED_OK"
    },
    {
     "enum_field_value" : 2,
     "name" : "aidl::android::hardware::radio::sim::PbReceivedStatus::PB_RECEIVED_ERROR"
    },
    {
     "enum_field_value" : 3,
     "name" : "aidl::android::hardware::radio::sim::PbReceivedStatus::PB_RECEIVED_ABORT"
    },
    {
     "enum_field_value" : 4,
     "name" : "aidl::android::hardware::radio::sim::PbReceivedStatus::PB_RECEIVED_FINAL"
    }
   ],
   "linker_set_key" : "_ZTIN4aidl7android8hardware5radio3sim16PbReceivedStatusE",
   "name" : "aidl::android::hardware::radio::sim::PbReceivedStatus",
   "referenced_type" : "_ZTIN4aidl7android8hardware5radio3sim16PbReceivedStatusE",
   "self_type" : "_ZTIN4aidl7android8hardware5radio3sim16PbReceivedStatusE",
   "size" : 1,
   "source_file" : "out/soong/.intermediates/hardware/interfaces/radio/aidl/android.hardware.radio.sim-V1-ndk-source/gen/include/aidl/android/hardware/radio/sim/PbReceivedStatus.h",
   "underlying_type" : "_ZTIa"
  },
  {
   "alignment" : 4,
   "enum_fields" :
   [
    {
     "enum_field_value" : 1,
     "name" : "aidl::android::hardware::radio::sim::SimRefreshResult::TYPE_SIM_INIT"
    }
   ],
   "linker_set_key" : "_ZTIN4aidl7android8hardware5radio3sim16SimRefreshResult14$TYPE_SIM_INITE",
   "name" : "aidl::android::hardware::radio::sim::SimRefreshResult::(unnamed enum at out/soong/.intermediates/hardware/interfaces/radio/aidl/android.hardware.radio.sim-V1-ndk-source/gen/include/aidl/android/hardware/radio/sim/SimRefreshResult.h:53:3)",
   "referenced_type" : "_ZTIN4aidl7android8hardware5radio3sim16SimRefreshResult14$TYPE_SIM_INITE",
   "self_type" : "_ZTIN4aidl7android8hardware5radio3sim16SimRefreshResult14$TYPE_SIM_INITE",
   "size" : 4,
   "source_file" : "out/soong/.intermediates/hardware/interfaces/radio/aidl/android.hardware.radio.sim-V1-ndk-source/gen/include/aidl/android/hardware/radio/sim/SimRefreshResult.h",
   "underlying_type" : "_ZTIi"
  },
  {
   "alignment" : 4,
   "enum_fields" :
   [
    {
     "enum_field_value" : 2,
     "name" : "aidl::android::hardware::radio::sim::SimRefreshResult::TYPE_SIM_RESET"
    }
   ],
   "linker_set_key" : "_ZTIN4aidl7android8hardware5radio3sim16SimRefreshResult15$TYPE_SIM_RESETE",
   "name" : "aidl::android::hardware::radio::sim::SimRefreshResult::(unnamed enum at out/soong/.intermediates/hardware/interfaces/radio/aidl/android.hardware.radio.sim-V1-ndk-source/gen/include/aidl/android/hardware/radio/sim/SimRefreshResult.h:54:3)",
   "referenced_type" : "_ZTIN4aidl7android8hardware5radio3sim16SimRefreshResult15$TYPE_SIM_RESETE",
   "self_type" : "_ZTIN4aidl7android8hardware5radio3sim16SimRefreshResult15$TYPE_SIM_RESETE",
   "size" : 4,
   "source_file" : "out/soong/.intermediates/hardware/interfaces/radio/aidl/android.hardware.radio.sim-V1-ndk-source/gen/include/aidl/android/hardware/radio/sim/SimRefreshResult.h",
   "underlying_type" : "_ZTIi"
  },
  {
   "alignment" : 4,
   "enum_fields" :
   [
    {
     "enum_field_value" : 0,
     "name" : "aidl::android::hardware::radio::sim::SimRefreshResult::TYPE_SIM_FILE_UPDATE"
    }
   ],
   "linker_set_key" : "_ZTIN4aidl7android8hardware5radio3sim16SimRefreshResult21$TYPE_SIM_FILE_UPDATEE",
   "name" : "aidl::android::hardware::radio::sim::SimRefreshResult::(unnamed enum at out/soong/.intermediates/hardware/interfaces/radio/aidl/android.hardware.radio.sim-V1-ndk-source/gen/include/aidl/android/hardware/radio/sim/SimRefreshResult.h:52:3)",
   "referenced_type" : "_ZTIN4aidl7android8hardware5radio3sim16SimRefreshResult21$TYPE_SIM_FILE_UPDATEE",
   "self_type" : "_ZTIN4aidl7android8hardware5radio3sim16SimRefreshResult21$TYPE_SIM_FILE_UPDATEE",
   "size" : 4,
   "source_file" : "out/soong/.intermediates/hardware/interfaces/radio/aidl/android.hardware.radio.sim-V1-ndk-source/gen/include/aidl/android/hardware/radio/sim/SimRefreshResult.h",
   "underlying_type" : "_ZTIi"
  },
  {
   "alignment" : 1,
   "enum_fields" :
   [
    {
     "enum_field_value" : 1,
     "name" : "aidl::android::hardware::radio::sim::ImsiEncryptionInfo::PUBLIC_KEY_TYPE_EPDG"
    }
   ],
   "linker_set_key" : "_ZTIN4aidl7android8hardware5radio3sim18ImsiEncryptionInfo21$PUBLIC_KEY_TYPE_EPDGE",
   "name" : "aidl::android::hardware::radio::sim::ImsiEncryptionInfo::(unnamed enum at out/soong/.intermediates/hardware/interfaces/radio/aidl/android.hardware.radio.sim-V1-ndk-source/gen/include/aidl/android/hardware/radio/sim/ImsiEncryptionInfo.h:55:3)",
   "referenced_type" : "_ZTIN4aidl7android8hardware5radio3sim18ImsiEncryptionInfo21$PUBLIC_KEY_TYPE_EPDGE",
   "self_type" : "_ZTIN4aidl7android8hardware5radio3sim18ImsiEncryptionInfo21$PUBLIC_KEY_TYPE_EPDGE",
   "size" : 1,
   "source_file" : "out/soong/.intermediates/hardware/interfaces/radio/aidl/android.hardware.radio.sim-V1-ndk-source/gen/include/aidl/android/hardware/radio/sim/ImsiEncryptionInfo.h",
   "underlying_type" : "_ZTIa"
  },
  {
   "alignment" : 1,
   "enum_fields" :
   [
    {
     "enum_field_value" : 2,
     "name" : "aidl::android::hardware::radio::sim::ImsiEncryptionInfo::PUBLIC_KEY_TYPE_WLAN"
    }
   ],
   "linker_set_key" : "_ZTIN4aidl7android8hardware5radio3sim18ImsiEncryptionInfo21$PUBLIC_KEY_TYPE_WLANE",
   "name" : "aidl::android::hardware::radio::sim::ImsiEncryptionInfo::(unnamed enum at out/soong/.intermediates/hardware/interfaces/radio/aidl/android.hardware.radio.sim-V1-ndk-source/gen/include/aidl/android/hardware/radio/sim/ImsiEncryptionInfo.h:56:3)",
   "referenced_type" : "_ZTIN4aidl7android8hardware5radio3sim18ImsiEncryptionInfo21$PUBLIC_KEY_TYPE_WLANE",
   "self_type" : "_ZTIN4aidl7android8hardware5radio3sim18ImsiEncryptionInfo21$PUBLIC_KEY_TYPE_WLANE",
   "size" : 1,
   "source_file" : "out/soong/.intermediates/hardware/interfaces/radio/aidl/android.hardware.radio.sim-V1-ndk-source/gen/include/aidl/android/hardware/radio/sim/ImsiEncryptionInfo.h",
   "underlying_type" : "_ZTIa"
  },
  {
   "alignment" : 4,
   "enum_fields" :
   [
    {
     "enum_field_value" : 0,
     "name" : "aidl::android::hardware::radio::sim::SimLockMultiSimPolicy::NO_MULTISIM_POLICY"
    },
    {
     "enum_field_value" : 1,
     "name" : "aidl::android::hardware::radio::sim::SimLockMultiSimPolicy::ONE_VALID_SIM_MUST_BE_PRESENT"
    }
   ],
   "linker_set_key" : "_ZTIN4aidl7android8hardware5radio3sim21SimLockMultiSimPolicyE",
   "name" : "aidl::android::hardware::radio::sim::SimLockMultiSimPolicy",
   "referenced_type" : "_ZTIN4aidl7android8hardware5radio3sim21SimLockMultiSimPolicyE",
   "self_type" : "_ZTIN4aidl7android8hardware5radio3sim21SimLockMultiSimPolicyE",
   "size" : 4,
   "source_file" : "out/soong/.intermediates/hardware/interfaces/radio/aidl/android.hardware.radio.sim-V1-ndk-source/gen/include/aidl/android/hardware/radio/sim/SimLockMultiSimPolicy.h",
   "underlying_type" : "_ZTIi"
  },
  {
   "alignment" : 4,
   "enum_fields" :
   [
    {
     "enum_field_value" : 0,
     "name" : "aidl::android::hardware::radio::sim::CdmaSubscriptionSource::RUIM_SIM"
    },
    {
     "enum_field_value" : 1,
     "name" : "aidl::android::hardware::radio::sim::CdmaSubscriptionSource::NV"
    }
   ],
   "linker_set_key" : "_ZTIN4aidl7android8hardware5radio3sim22CdmaSubscriptionSourceE",
   "name" : "aidl::android::hardware::radio::sim::CdmaSubscriptionSource",
   "referenced_type" : "_ZTIN4aidl7android8hardware5radio3sim22CdmaSubscriptionSourceE",
   "self_type" : "_ZTIN4aidl7android8hardware5radio3sim22CdmaSubscriptionSourceE",
   "size" : 4,
   "source_file" : "out/soong/.intermediates/hardware/interfaces/radio/aidl/android.hardware.radio.sim-V1-ndk-source/gen/include/aidl/android/hardware/radio/sim/CdmaSubscriptionSource.h",
   "underlying_type" : "_ZTIi"
  },
  {
   "alignment" : 4,
   "enum_fields" :
   [
    {
     "enum_field_value" : 0,
     "name" : "aidl::android::hardware::radio::sim::Carrier::MATCH_TYPE_ALL"
    }
   ],
   "linker_set_key" : "_ZTIN4aidl7android8hardware5radio3sim7Carrier15$MATCH_TYPE_ALLE",
   "name" : "aidl::android::hardware::radio::sim::Carrier::(unnamed enum at out/soong/.intermediates/hardware/interfaces/radio/aidl/android.hardware.radio.sim-V1-ndk-source/gen/include/aidl/android/hardware/radio/sim/Carrier.h:53:3)",
   "referenced_type" : "_ZTIN4aidl7android8hardware5radio3sim7Carrier15$MATCH_TYPE_ALLE",
   "self_type" : "_ZTIN4aidl7android8hardware5radio3sim7Carrier15$MATCH_TYPE_ALLE",
   "size" : 4,
   "source_file" : "out/soong/.intermediates/hardware/interfaces/radio/aidl/android.hardware.radio.sim-V1-ndk-source/gen/include/aidl/android/hardware/radio/sim/Carrier.h",
   "underlying_type" : "_ZTIi"
  },
  {
   "alignment" : 4,
   "enum_fields" :
   [
    {
     "enum_field_value" : 1,
     "name" : "aidl::android::hardware::radio::sim::Carrier::MATCH_TYPE_SPN"
    }
   ],
   "linker_set_key" : "_ZTIN4aidl7android8hardware5radio3sim7Carrier15$MATCH_TYPE_SPNE",
   "name" : "aidl::android::hardware::radio::sim::Carrier::(unnamed enum at out/soong/.intermediates/hardware/interfaces/radio/aidl/android.hardware.radio.sim-V1-ndk-source/gen/include/aidl/android/hardware/radio/sim/Carrier.h:54:3)",
   "referenced_type" : "_ZTIN4aidl7android8hardware5radio3sim7Carrier15$MATCH_TYPE_SPNE",
   "self_type" : "_ZTIN4aidl7android8hardware5radio3sim7Carrier15$MATCH_TYPE_SPNE",
   "size" : 4,
   "source_file" : "out/soong/.intermediates/hardware/interfaces/radio/aidl/android.hardware.radio.sim-V1-ndk-source/gen/include/aidl/android/hardware/radio/sim/Carrier.h",
   "underlying_type" : "_ZTIi"
  },
  {
   "alignment" : 4,
   "enum_fields" :
   [
    {
     "enum_field_value" : 3,
     "name" : "aidl::android::hardware::radio::sim::Carrier::MATCH_TYPE_GID1"
    }
   ],
   "linker_set_key" : "_ZTIN4aidl7android8hardware5radio3sim7Carrier16$MATCH_TYPE_GID1E",
   "name" : "aidl::android::hardware::radio::sim::Carrier::(unnamed enum at out/soong/.intermediates/hardware/interfaces/radio/aidl/android.hardware.radio.sim-V1-ndk-source/gen/include/aidl/android/hardware/radio/sim/Carrier.h:56:3)",
   "referenced_type" : "_ZTIN4aidl7android8hardware5radio3sim7Carrier16$MATCH_TYPE_GID1E",
   "self_type" : "_ZTIN4aidl7android8hardware5radio3sim7Carrier16$MATCH_TYPE_GID1E",
   "size" : 4,
   "source_file" : "out/soong/.intermediates/hardware/interfaces/radio/aidl/android.hardware.radio.sim-V1-ndk-source/gen/include/aidl/android/hardware/radio/sim/Carrier.h",
   "underlying_type" : "_ZTIi"
  },
  {
   "alignment" : 4,
   "enum_fields" :
   [
    {
     "enum_field_value" : 4,
     "name" : "aidl::android::hardware::radio::sim::Carrier::MATCH_TYPE_GID2"
    }
   ],
   "linker_set_key" : "_ZTIN4aidl7android8hardware5radio3sim7Carrier16$MATCH_TYPE_GID2E",
   "name" : "aidl::android::hardware::radio::sim::Carrier::(unnamed enum at out/soong/.intermediates/hardware/interfaces/radio/aidl/android.hardware.radio.sim-V1-ndk-source/gen/include/aidl/android/hardware/radio/sim/Carrier.h:57:3)",
   "referenced_type" : "_ZTIN4aidl7android8hardware5radio3sim7Carrier16$MATCH_TYPE_GID2E",
   "self_type" : "_ZTIN4aidl7android8hardware5radio3sim7Carrier16$MATCH_TYPE_GID2E",
   "size" : 4,
   "source_file" : "out/soong/.intermediates/hardware/interfaces/radio/aidl/android.hardware.radio.sim-V1-ndk-source/gen/include/aidl/android/hardware/radio/sim/Carrier.h",
   "underlying_type" : "_ZTIi"
  },
  {
   "alignment" : 4,
   "enum_fields" :
   [
    {
     "enum_field_value" : 2,
     "name" : "aidl::android::hardware::radio::sim::Carrier::MATCH_TYPE_IMSI_PREFIX"
    }
   ],
   "linker_set_key" : "_ZTIN4aidl7android8hardware5radio3sim7Carrier23$MATCH_TYPE_IMSI_PREFIXE",
   "name" : "aidl::android::hardware::radio::sim::Carrier::(unnamed enum at out/soong/.intermediates/hardware/interfaces/radio/aidl/android.hardware.radio.sim-V1-ndk-source/gen/include/aidl/android/hardware/radio/sim/Carrier.h:55:3)",
   "referenced_type" : "_ZTIN4aidl7android8hardware5radio3sim7Carrier23$MATCH_TYPE_IMSI_PREFIXE",
   "self_type" : "_ZTIN4aidl7android8hardware5radio3sim7Carrier23$MATCH_TYPE_IMSI_PREFIXE",
   "size" : 4,
   "source_file" : "out/soong/.intermediates/hardware/interfaces/radio/aidl/android.hardware.radio.sim-V1-ndk-source/gen/include/aidl/android/hardware/radio/sim/Carrier.h",
   "underlying_type" : "_ZTIi"
  },
  {
   "alignment" : 4,
   "enum_fields" :
   [
    {
     "enum_field_value" : 0,
     "name" : "aidl::android::hardware::radio::sim::PinState::UNKNOWN"
    },
    {
     "enum_field_value" : 1,
     "name" : "aidl::android::hardware::radio::sim::PinState::ENABLED_NOT_VERIFIED"
    },
    {
     "enum_field_value" : 2,
     "name" : "aidl::android::hardware::radio::sim::PinState::ENABLED_VERIFIED"
    },
    {
     "enum_field_value" : 3,
     "name" : "aidl::android::hardware::radio::sim::PinState::DISABLED"
    },
    {
     "enum_field_value" : 4,
     "name" : "aidl::android::hardware::radio::sim::PinState::ENABLED_BLOCKED"
    },
    {
     "enum_field_value" : 5,
     "name" : "aidl::android::hardware::radio::sim::PinState::ENABLED_PERM_BLOCKED"
    }
   ],
   "linker_set_key" : "_ZTIN4aidl7android8hardware5radio3sim8PinStateE",
   "name" : "aidl::android::hardware::radio::sim::PinState",
   "referenced_type" : "_ZTIN4aidl7android8hardware5radio3sim8PinStateE",
   "self_type" : "_ZTIN4aidl7android8hardware5radio3sim8PinStateE",
   "size" : 4,
   "source_file" : "out/soong/.intermediates/hardware/interfaces/radio/aidl/android.hardware.radio.sim-V1-ndk-source/gen/include/aidl/android/hardware/radio/sim/PinState.h",
   "underlying_type" : "_ZTIi"
  },
  {
   "alignment" : 4,
   "enum_fields" :
   [
    {
     "enum_field_value" : 1,
     "name" : "aidl::android::hardware::radio::sim::AppStatus::APP_TYPE_SIM"
    }
   ],
   "linker_set_key" : "_ZTIN4aidl7android8hardware5radio3sim9AppStatus13$APP_TYPE_SIME",
   "name" : "aidl::android::hardware::radio::sim::AppStatus::(unnamed enum at out/soong/.intermediates/hardware/interfaces/radio/aidl/android.hardware.radio.sim-V1-ndk-source/gen/include/aidl/android/hardware/radio/sim/AppStatus.h:66:3)",
   "referenced_type" : "_ZTIN4aidl7android8hardware5radio3sim9AppStatus13$APP_TYPE_SIME",
   "self_type" : "_ZTIN4aidl7android8hardware5radio3sim9AppStatus13$APP_TYPE_SIME",
   "size" : 4,
   "source_file" : "out/soong/.intermediates/hardware/interfaces/radio/aidl/android.hardware.radio.sim-V1-ndk-source/gen/include/aidl/android/hardware/radio/sim/AppStatus.h",
   "underlying_type" : "_ZTIi"
  },
  {
   "alignment" : 4,
   "enum_fields" :
   [
    {
     "enum_field_value" : 2,
     "name" : "aidl::android::hardware::radio::sim::AppStatus::APP_STATE_PIN"
    }
   ],
   "linker_set_key" : "_ZTIN4aidl7android8hardware5radio3sim9AppStatus14$APP_STATE_PINE",
   "name" : "aidl::android::hardware::radio::sim::AppStatus::(unnamed enum at out/soong/.intermediates/hardware/interfaces/radio/aidl/android.hardware.radio.sim-V1-ndk-source/gen/include/aidl/android/hardware/radio/sim/AppStatus.h:61:3)",
   "referenced_type" : "_ZTIN4aidl7android8hardware5radio3sim9AppStatus14$APP_STATE_PINE",
   "self_type" : "_ZTIN4aidl7android8hardware5radio3sim9AppStatus14$APP_STATE_PINE",
   "size" : 4,
   "source_file" : "out/soong/.intermediates/hardware/interfaces/radio/aidl/android.hardware.radio.sim-V1-ndk-source/gen/include/aidl/android/hardware/radio/sim/AppStatus.h",
   "underlying_type" : "_ZTIi"
  },
  {
   "alignment" : 4,
   "enum_fields" :
   [
    {
     "enum_field_value" : 3,
     "name" : "aidl::android::hardware::radio::sim::AppStatus::APP_STATE_PUK"
    }
   ],
   "linker_set_key" : "_ZTIN4aidl7android8hardware5radio3sim9AppStatus14$APP_STATE_PUKE",
   "name" : "aidl::android::hardware::radio::sim::AppStatus::(unnamed enum at out/soong/.intermediates/hardware/interfaces/radio/aidl/android.hardware.radio.sim-V1-ndk-source/gen/include/aidl/android/hardware/radio/sim/AppStatus.h:62:3)",
   "referenced_type" : "_ZTIN4aidl7android8hardware5radio3sim9AppStatus14$APP_STATE_PUKE",
   "self_type" : "_ZTIN4aidl7android8hardware5radio3sim9AppStatus14$APP_STATE_PUKE",
   "size" : 4,
   "source_file" : "out/soong/.intermediates/hardware/interfaces/radio/aidl/android.hardware.radio.sim-V1-ndk-source/gen/include/aidl/android/hardware/radio/sim/AppStatus.h",
   "underlying_type" : "_ZTIi"
  },
  {
   "alignment" : 4,
   "enum_fields" :
   [
    {
     "enum_field_value" : 4,
     "name" : "aidl::android::hardware::radio::sim::AppStatus::APP_TYPE_CSIM"
    }
   ],
   "linker_set_key" : "_ZTIN4aidl7android8hardware5radio3sim9AppStatus14$APP_TYPE_CSIME",
   "name" : "aidl::android::hardware::radio::sim::AppStatus::(unnamed enum at out/soong/.intermediates/hardware/interfaces/radio/aidl/android.hardware.radio.sim-V1-ndk-source/gen/include/aidl/android/hardware/radio/sim/AppStatus.h:69:3)",
   "referenced_type" : "_ZTIN4aidl7android8hardware5radio3sim9AppStatus14$APP_TYPE_CSIME",
   "self_type" : "_ZTIN4aidl7android8hardware5radio3sim9AppStatus14$APP_TYPE_CSIME",
   "size" : 4,
   "source_file" : "out/soong/.intermediates/hardware/interfaces/radio/aidl/android.hardware.radio.sim-V1-ndk-source/gen/include/aidl/android/hardware/radio/sim/AppStatus.h",
   "underlying_type" : "_ZTIi"
  },
  {
   "alignment" : 4,
   "enum_fields" :
   [
    {
     "enum_field_value" : 5,
     "name" : "aidl::android::hardware::radio::sim::AppStatus::APP_TYPE_ISIM"
    }
   ],
   "linker_set_key" : "_ZTIN4aidl7android8hardware5radio3sim9AppStatus14$APP_TYPE_ISIME",
   "name" : "aidl::android::hardware::radio::sim::AppStatus::(unnamed enum at out/soong/.intermediates/hardware/interfaces/radio/aidl/android.hardware.radio.sim-V1-ndk-source/gen/include/aidl/android/hardware/radio/sim/AppStatus.h:70:3)",
   "referenced_type" : "_ZTIN4aidl7android8hardware5radio3sim9AppStatus14$APP_TYPE_ISIME",
   "self_type" : "_ZTIN4aidl7android8hardware5radio3sim9AppStatus14$APP_TYPE_ISIME",
   "size" : 4,
   "source_file" : "out/soong/.intermediates/hardware/interfaces/radio/aidl/android.hardware.radio.sim-V1-ndk-source/gen/include/aidl/android/hardware/radio/sim/AppStatus.h",
   "underlying_type" : "_ZTIi"
  },
  {
   "alignment" : 4,
   "enum_fields" :
   [
    {
     "enum_field_value" : 3,
     "name" : "aidl::android::hardware::radio::sim::AppStatus::APP_TYPE_RUIM"
    }
   ],
   "linker_set_key" : "_ZTIN4aidl7android8hardware5radio3sim9AppStatus14$APP_TYPE_RUIME",
   "name" : "aidl::android::hardware::radio::sim::AppStatus::(unnamed enum at out/soong/.intermediates/hardware/interfaces/radio/aidl/android.hardware.radio.sim-V1-ndk-source/gen/include/aidl/android/hardware/radio/sim/AppStatus.h:68:3)",
   "referenced_type" : "_ZTIN4aidl7android8hardware5radio3sim9AppStatus14$APP_TYPE_RUIME",
   "self_type" : "_ZTIN4aidl7android8hardware5radio3sim9AppStatus14$APP_TYPE_RUIME",
   "size" : 4,
   "source_file" : "out/soong/.intermediates/hardware/interfaces/radio/aidl/android.hardware.radio.sim-V1-ndk-source/gen/include/aidl/android/hardware/radio/sim/AppStatus.h",
   "underlying_type" : "_ZTIi"
  },
  {
   "alignment" : 4,
   "enum_fields" :
   [
    {
     "enum_field_value" : 2,
     "name" : "aidl::android::hardware::radio::sim::AppStatus::APP_TYPE_USIM"
    }
   ],
   "linker_set_key" : "_ZTIN4aidl7android8hardware5radio3sim9AppStatus14$APP_TYPE_USIME",
   "name" : "aidl::android::hardware::radio::sim::AppStatus::(unnamed enum at out/soong/.intermediates/hardware/interfaces/radio/aidl/android.hardware.radio.sim-V1-ndk-source/gen/include/aidl/android/hardware/radio/sim/AppStatus.h:67:3)",
   "referenced_type" : "_ZTIN4aidl7android8hardware5radio3sim9AppStatus14$APP_TYPE_USIME",
   "self_type" : "_ZTIN4aidl7android8hardware5radio3sim9AppStatus14$APP_TYPE_USIME",
   "size" : 4,
   "source_file" : "out/soong/.intermediates/hardware/interfaces/radio/aidl/android.hardware.radio.sim-V1-ndk-source/gen/include/aidl/android/hardware/radio/sim/AppStatus.h",
   "underlying_type" : "_ZTIi"
  },
  {
   "alignment" : 4,
   "enum_fields" :
   [
    {
     "enum_field_value" : 5,
     "name" : "aidl::android::hardware::radio::sim::AppStatus::APP_STATE_READY"
    }
   ],
   "linker_set_key" : "_ZTIN4aidl7android8hardware5radio3sim9AppStatus16$APP_STATE_READYE",
   "name" : "aidl::android::hardware::radio::sim::AppStatus::(unnamed enum at out/soong/.intermediates/hardware/interfaces/radio/aidl/android.hardware.radio.sim-V1-ndk-source/gen/include/aidl/android/hardware/radio/sim/AppStatus.h:64:3)",
   "referenced_type" : "_ZTIN4aidl7android8hardware5radio3sim9AppStatus16$APP_STATE_READYE",
   "self_type" : "_ZTIN4aidl7android8hardware5radio3sim9AppStatus16$APP_STATE_READYE",
   "size" : 4,
   "source_file" : "out/soong/.intermediates/hardware/interfaces/radio/aidl/android.hardware.radio.sim-V1-ndk-source/gen/include/aidl/android/hardware/radio/sim/AppStatus.h",
   "underlying_type" : "_ZTIi"
  },
  {
   "alignment" : 4,
   "enum_fields" :
   [
    {
     "enum_field_value" : 0,
     "name" : "aidl::android::hardware::radio::sim::AppStatus::APP_TYPE_UNKNOWN"
    }
   ],
   "linker_set_key" : "_ZTIN4aidl7android8hardware5radio3sim9AppStatus17$APP_TYPE_UNKNOWNE",
   "name" : "aidl::android::hardware::radio::sim::AppStatus::(unnamed enum at out/soong/.intermediates/hardware/interfaces/radio/aidl/android.hardware.radio.sim-V1-ndk-source/gen/include/aidl/android/hardware/radio/sim/AppStatus.h:65:3)",
   "referenced_type" : "_ZTIN4aidl7android8hardware5radio3sim9AppStatus17$APP_TYPE_UNKNOWNE",
   "self_type" : "_ZTIN4aidl7android8hardware5radio3sim9AppStatus17$APP_TYPE_UNKNOWNE",
   "size" : 4,
   "source_file" : "out/soong/.intermediates/hardware/interfaces/radio/aidl/android.hardware.radio.sim-V1-ndk-source/gen/include/aidl/android/hardware/radio/sim/AppStatus.h",
   "underlying_type" : "_ZTIi"
  },
  {
   "alignment" : 4,
   "enum_fields" :
   [
    {
     "enum_field_value" : 0,
     "name" : "aidl::android::hardware::radio::sim::AppStatus::APP_STATE_UNKNOWN"
    }
   ],
   "linker_set_key" : "_ZTIN4aidl7android8hardware5radio3sim9AppStatus18$APP_STATE_UNKNOWNE",
   "name" : "aidl::android::hardware::radio::sim::AppStatus::(unnamed enum at out/soong/.intermediates/hardware/interfaces/radio/aidl/android.hardware.radio.sim-V1-ndk-source/gen/include/aidl/android/hardware/radio/sim/AppStatus.h:59:3)",
   "referenced_type" : "_ZTIN4aidl7android8hardware5radio3sim9AppStatus18$APP_STATE_UNKNOWNE",
   "self_type" : "_ZTIN4aidl7android8hardware5radio3sim9AppStatus18$APP_STATE_UNKNOWNE",
   "size" : 4,
   "source_file" : "out/soong/.intermediates/hardware/interfaces/radio/aidl/android.hardware.radio.sim-V1-ndk-source/gen/include/aidl/android/hardware/radio/sim/AppStatus.h",
   "underlying_type" : "_ZTIi"
  },
  {
   "alignment" : 4,
   "enum_fields" :
   [
    {
     "enum_field_value" : 1,
     "name" : "aidl::android::hardware::radio::sim::AppStatus::APP_STATE_DETECTED"
    }
   ],
   "linker_set_key" : "_ZTIN4aidl7android8hardware5radio3sim9AppStatus19$APP_STATE_DETECTEDE",
   "name" : "aidl::android::hardware::radio::sim::AppStatus::(unnamed enum at out/soong/.intermediates/hardware/interfaces/radio/aidl/android.hardware.radio.sim-V1-ndk-source/gen/include/aidl/android/hardware/radio/sim/AppStatus.h:60:3)",
   "referenced_type" : "_ZTIN4aidl7android8hardware5radio3sim9AppStatus19$APP_STATE_DETECTEDE",
   "self_type" : "_ZTIN4aidl7android8hardware5radio3sim9AppStatus19$APP_STATE_DETECTEDE",
   "size" : 4,
   "source_file" : "out/soong/.intermediates/hardware/interfaces/radio/aidl/android.hardware.radio.sim-V1-ndk-source/gen/include/aidl/android/hardware/radio/sim/AppStatus.h",
   "underlying_type" : "_ZTIi"
  },
  {
   "alignment" : 4,
   "enum_fields" :
   [
    {
     "enum_field_value" : 4,
     "name" : "aidl::android::hardware::radio::sim::AppStatus::APP_STATE_SUBSCRIPTION_PERSO"
    }
   ],
   "linker_set_key" : "_ZTIN4aidl7android8hardware5radio3sim9AppStatus29$APP_STATE_SUBSCRIPTION_PERSOE",
   "name" : "aidl::android::hardware::radio::sim::AppStatus::(unnamed enum at out/soong/.intermediates/hardware/interfaces/radio/aidl/android.hardware.radio.sim-V1-ndk-source/gen/include/aidl/android/hardware/radio/sim/AppStatus.h:63:3)",
   "referenced_type" : "_ZTIN4aidl7android8hardware5radio3sim9AppStatus29$APP_STATE_SUBSCRIPTION_PERSOE",
   "self_type" : "_ZTIN4aidl7android8hardware5radio3sim9AppStatus29$APP_STATE_SUBSCRIPTION_PERSOE",
   "size" : 4,
   "source_file" : "out/soong/.intermediates/hardware/interfaces/radio/aidl/android.hardware.radio.sim-V1-ndk-source/gen/include/aidl/android/hardware/radio/sim/AppStatus.h",
   "underlying_type" : "_ZTIi"
  },
  {
   "alignment" : 4,
   "enum_fields" :
   [
    {
     "enum_field_value" : 1,
     "name" : "android::internal::details::IsIterable<std::vector<aidl::android::hardware::radio::sim::Carrier>>::value"
    }
   ],
   "linker_set_key" : "_ZTIN7android8internal7details10IsIterableINSt3__16vectorIN4aidl7android8hardware5radio3sim7CarrierENS3_9allocatorISA_EEEEE6$valueE",
   "name" : "android::internal::details::IsIterable<std::vector<aidl::android::hardware::radio::sim::Carrier, std::allocator<aidl::android::hardware::radio::sim::Carrier>>>::(unnamed enum at frameworks/native/libs/binder/ndk/include_cpp/android/binder_to_string.h:131:5)",
   "referenced_type" : "_ZTIN7android8internal7details10IsIterableINSt3__16vectorIN4aidl7android8hardware5radio3sim7CarrierENS3_9allocatorISA_EEEEE6$valueE",
   "self_type" : "_ZTIN7android8internal7details10IsIterableINSt3__16vectorIN4aidl7android8hardware5radio3sim7CarrierENS3_9allocatorISA_EEEEE6$valueE",
   "size" : 4,
   "source_file" : "frameworks/native/libs/binder/ndk/include_cpp/android/binder_to_string.h",
   "underlying_type" : "_ZTIj"
  },
  {
   "alignment" : 4,
   "enum_fields" :
   [
    {
     "enum_field_value" : 1,
     "name" : "android::internal::details::IsIterable<std::vector<aidl::android::hardware::radio::sim::AppStatus>>::value"
    }
   ],
   "linker_set_key" : "_ZTIN7android8internal7details10IsIterableINSt3__16vectorIN4aidl7android8hardware5radio3sim9AppStatusENS3_9allocatorISA_EEEEE6$valueE",
   "name" : "android::internal::details::IsIterable<std::vector<aidl::android::hardware::radio::sim::AppStatus, std::allocator<aidl::android::hardware::radio::sim::AppStatus>>>::(unnamed enum at frameworks/native/libs/binder/ndk/include_cpp/android/binder_to_string.h:131:5)",
   "referenced_type" : "_ZTIN7android8internal7details10IsIterableINSt3__16vectorIN4aidl7android8hardware5radio3sim9AppStatusENS3_9allocatorISA_EEEEE6$valueE",
   "self_type" : "_ZTIN7android8internal7details10IsIterableINSt3__16vectorIN4aidl7android8hardware5radio3sim9AppStatusENS3_9allocatorISA_EEEEE6$valueE",
   "size" : 4,
   "source_file" : "frameworks/native/libs/binder/ndk/include_cpp/android/binder_to_string.h",
   "underlying_type" : "_ZTIj"
  },
  {
   "alignment" : 4,
   "enum_fields" :
   [
    {
     "enum_field_value" : 1,
     "name" : "android::internal::details::IsIterable<std::vector<aidl::android::hardware::radio::config::SimPortInfo>>::value"
    }
   ],
   "linker_set_key" : "_ZTIN7android8internal7details10IsIterableINSt3__16vectorIN4aidl7android8hardware5radio6config11SimPortInfoENS3_9allocatorISA_EEEEE6$valueE",
   "name" : "android::internal::details::IsIterable<std::vector<aidl::android::hardware::radio::config::SimPortInfo, std::allocator<aidl::android::hardware::radio::config::SimPortInfo>>>::(unnamed enum at frameworks/native/libs/binder/ndk/include_cpp/android/binder_to_string.h:131:5)",
   "referenced_type" : "_ZTIN7android8internal7details10IsIterableINSt3__16vectorIN4aidl7android8hardware5radio6config11SimPortInfoENS3_9allocatorISA_EEEEE6$valueE",
   "self_type" : "_ZTIN7android8internal7details10IsIterableINSt3__16vectorIN4aidl7android8hardware5radio6config11SimPortInfoENS3_9allocatorISA_EEEEE6$valueE",
   "size" : 4,
   "source_file" : "frameworks/native/libs/binder/ndk/include_cpp/android/binder_to_string.h",
   "underlying_type" : "_ZTIj"
  },
  {
   "alignment" : 4,
   "enum_fields" :
   [
    {
     "enum_field_value" : 1,
     "name" : "android::internal::details::IsIterable<std::vector<std::basic_string<char>>>::value"
    }
   ],
   "linker_set_key" : "_ZTIN7android8internal7details10IsIterableINSt3__16vectorINS3_12basic_stringIcNS3_11char_traitsIcEENS3_9allocatorIcEEEENS8_ISA_EEEEE6$valueE",
   "name" : "android::internal::details::IsIterable<std::vector<std::basic_string<char, std::char_traits<char>, std::allocator<char>>, std::allocator<std::basic_string<char, std::char_traits<char>, std::allocator<char>>>>>::(unnamed enum at frameworks/native/libs/binder/ndk/include_cpp/android/binder_to_string.h:131:5)",
   "referenced_type" : "_ZTIN7android8internal7details10IsIterableINSt3__16vectorINS3_12basic_stringIcNS3_11char_traitsIcEENS3_9allocatorIcEEEENS8_ISA_EEEEE6$valueE",
   "self_type" : "_ZTIN7android8internal7details10IsIterableINSt3__16vectorINS3_12basic_stringIcNS3_11char_traitsIcEENS3_9allocatorIcEEEENS8_ISA_EEEEE6$valueE",
   "size" : 4,
   "source_file" : "frameworks/native/libs/binder/ndk/include_cpp/android/binder_to_string.h",
   "underlying_type" : "_ZTIj"
  },
  {
   "alignment" : 4,
   "enum_fields" :
   [
    {
     "enum_field_value" : 1,
     "name" : "android::internal::details::IsIterable<std::vector<unsigned char>>::value"
    }
   ],
   "linker_set_key" : "_ZTIN7android8internal7details10IsIterableINSt3__16vectorIhNS3_9allocatorIhEEEEE6$valueE",
   "name" : "android::internal::details::IsIterable<std::vector<unsigned char, std::allocator<unsigned char>>>::(unnamed enum at frameworks/native/libs/binder/ndk/include_cpp/android/binder_to_string.h:131:5)",
   "referenced_type" : "_ZTIN7android8internal7details10IsIterableINSt3__16vectorIhNS3_9allocatorIhEEEEE6$valueE",
   "self_type" : "_ZTIN7android8internal7details10IsIterableINSt3__16vectorIhNS3_9allocatorIhEEEEE6$valueE",
   "size" : 4,
   "source_file" : "frameworks/native/libs/binder/ndk/include_cpp/android/binder_to_string.h",
   "underlying_type" : "_ZTIj"
  },
  {
   "alignment" : 4,
   "enum_fields" :
   [
    {
     "enum_field_value" : 0,
     "name" : "android::internal::details::IsPointerLike<aidl::android::hardware::radio::RadioError>::value"
    }
   ],
   "linker_set_key" : "_ZTIN7android8internal7details13IsPointerLikeIN4aidl7android8hardware5radio10RadioErrorEE6$valueE",
   "name" : "android::internal::details::IsPointerLike<aidl::android::hardware::radio::RadioError>::(unnamed enum at frameworks/native/libs/binder/ndk/include_cpp/android/binder_to_string.h:118:5)",
   "referenced_type" : "_ZTIN7android8internal7details13IsPointerLikeIN4aidl7android8hardware5radio10RadioErrorEE6$valueE",
   "self_type" : "_ZTIN7android8internal7details13IsPointerLikeIN4aidl7android8hardware5radio10RadioErrorEE6$valueE",
   "size" : 4,
   "source_file" : "frameworks/native/libs/binder/ndk/include_cpp/android/binder_to_string.h",
   "underlying_type" : "_ZTIj"
  },
  {
   "alignment" : 4,
   "enum_fields" :
   [
    {
     "enum_field_value" : 0,
     "name" : "android::internal::details::IsPointerLike<aidl::android::hardware::radio::RadioResponseType>::value"
    }
   ],
   "linker_set_key" : "_ZTIN7android8internal7details13IsPointerLikeIN4aidl7android8hardware5radio17RadioResponseTypeEE6$valueE",
   "name" : "android::internal::details::IsPointerLike<aidl::android::hardware::radio::RadioResponseType>::(unnamed enum at frameworks/native/libs/binder/ndk/include_cpp/android/binder_to_string.h:118:5)",
   "referenced_type" : "_ZTIN7android8internal7details13IsPointerLikeIN4aidl7android8hardware5radio17RadioResponseTypeEE6$valueE",
   "self_type" : "_ZTIN7android8internal7details13IsPointerLikeIN4aidl7android8hardware5radio17RadioResponseTypeEE6$valueE",
   "size" : 4,
   "source_file" : "frameworks/native/libs/binder/ndk/include_cpp/android/binder_to_string.h",
   "underlying_type" : "_ZTIj"
  },
  {
   "alignment" : 4,
   "enum_fields" :
   [
    {
     "enum_field_value" : 0,
     "name" : "android::internal::details::IsPointerLike<aidl::android::hardware::radio::sim::PersoSubstate>::value"
    }
   ],
   "linker_set_key" : "_ZTIN7android8internal7details13IsPointerLikeIN4aidl7android8hardware5radio3sim13PersoSubstateEE6$valueE",
   "name" : "android::internal::details::IsPointerLike<aidl::android::hardware::radio::sim::PersoSubstate>::(unnamed enum at frameworks/native/libs/binder/ndk/include_cpp/android/binder_to_string.h:118:5)",
   "referenced_type" : "_ZTIN7android8internal7details13IsPointerLikeIN4aidl7android8hardware5radio3sim13PersoSubstateEE6$valueE",
   "self_type" : "_ZTIN7android8internal7details13IsPointerLikeIN4aidl7android8hardware5radio3sim13PersoSubstateEE6$valueE",
   "size" : 4,
   "source_file" : "frameworks/native/libs/binder/ndk/include_cpp/android/binder_to_string.h",
   "underlying_type" : "_ZTIj"
  },
  {
   "alignment" : 4,
   "enum_fields" :
   [
    {
     "enum_field_value" : 0,
     "name" : "android::internal::details::IsPointerLike<aidl::android::hardware::radio::sim::Carrier>::value"
    }
   ],
   "linker_set_key" : "_ZTIN7android8internal7details13IsPointerLikeIN4aidl7android8hardware5radio3sim7CarrierEE6$valueE",
   "name" : "android::internal::details::IsPointerLike<aidl::android::hardware::radio::sim::Carrier>::(unnamed enum at frameworks/native/libs/binder/ndk/include_cpp/android/binder_to_string.h:118:5)",
   "referenced_type" : "_ZTIN7android8internal7details13IsPointerLikeIN4aidl7android8hardware5radio3sim7CarrierEE6$valueE",
   "self_type" : "_ZTIN7android8internal7details13IsPointerLikeIN4aidl7android8hardware5radio3sim7CarrierEE6$valueE",
   "size" : 4,
   "source_file" : "frameworks/native/libs/binder/ndk/include_cpp/android/binder_to_string.h",
   "underlying_type" : "_ZTIj"
  },
  {
   "alignment" : 4,
   "enum_fields" :
   [
    {
     "enum_field_value" : 0,
     "name" : "android::internal::details::IsPointerLike<aidl::android::hardware::radio::sim::PinState>::value"
    }
   ],
   "linker_set_key" : "_ZTIN7android8internal7details13IsPointerLikeIN4aidl7android8hardware5radio3sim8PinStateEE6$valueE",
   "name" : "android::internal::details::IsPointerLike<aidl::android::hardware::radio::sim::PinState>::(unnamed enum at frameworks/native/libs/binder/ndk/include_cpp/android/binder_to_string.h:118:5)",
   "referenced_type" : "_ZTIN7android8internal7details13IsPointerLikeIN4aidl7android8hardware5radio3sim8PinStateEE6$valueE",
   "self_type" : "_ZTIN7android8internal7details13IsPointerLikeIN4aidl7android8hardware5radio3sim8PinStateEE6$valueE",
   "size" : 4,
   "source_file" : "frameworks/native/libs/binder/ndk/include_cpp/android/binder_to_string.h",
   "underlying_type" : "_ZTIj"
  },
  {
   "alignment" : 4,
   "enum_fields" :
   [
    {
     "enum_field_value" : 0,
     "name" : "android::internal::details::IsPointerLike<aidl::android::hardware::radio::sim::AppStatus>::value"
    }
   ],
   "linker_set_key" : "_ZTIN7android8internal7details13IsPointerLikeIN4aidl7android8hardware5radio3sim9AppStatusEE6$valueE",
   "name" : "android::internal::details::IsPointerLike<aidl::android::hardware::radio::sim::AppStatus>::(unnamed enum at frameworks/native/libs/binder/ndk/include_cpp/android/binder_to_string.h:118:5)",
   "referenced_type" : "_ZTIN7android8internal7details13IsPointerLikeIN4aidl7android8hardware5radio3sim9AppStatusEE6$valueE",
   "self_type" : "_ZTIN7android8internal7details13IsPointerLikeIN4aidl7android8hardware5radio3sim9AppStatusEE6$valueE",
   "size" : 4,
   "source_file" : "frameworks/native/libs/binder/ndk/include_cpp/android/binder_to_string.h",
   "underlying_type" : "_ZTIj"
  },
  {
   "alignment" : 4,
   "enum_fields" :
   [
    {
     "enum_field_value" : 0,
     "name" : "android::internal::details::IsPointerLike<aidl::android::hardware::radio::config::SimPortInfo>::value"
    }
   ],
   "linker_set_key" : "_ZTIN7android8internal7details13IsPointerLikeIN4aidl7android8hardware5radio6config11SimPortInfoEE6$valueE",
   "name" : "android::internal::details::IsPointerLike<aidl::android::hardware::radio::config::SimPortInfo>::(unnamed enum at frameworks/native/libs/binder/ndk/include_cpp/android/binder_to_string.h:118:5)",
   "referenced_type" : "_ZTIN7android8internal7details13IsPointerLikeIN4aidl7android8hardware5radio6config11SimPortInfoEE6$valueE",
   "self_type" : "_ZTIN7android8internal7details13IsPointerLikeIN4aidl7android8hardware5radio6config11SimPortInfoEE6$valueE",
   "size" : 4,
   "source_file" : "frameworks/native/libs/binder/ndk/include_cpp/android/binder_to_string.h",
   "underlying_type" : "_ZTIj"
  },
  {
   "alignment" : 4,
   "enum_fields" :
   [
    {
     "enum_field_value" : 0,
     "name" : "android::internal::details::IsPointerLike<aidl::android::hardware::radio::config::SlotPortMapping>::value"
    }
   ],
   "linker_set_key" : "_ZTIN7android8internal7details13IsPointerLikeIN4aidl7android8hardware5radio6config15SlotPortMappingEE6$valueE",
   "name" : "android::internal::details::IsPointerLike<aidl::android::hardware::radio::config::SlotPortMapping>::(unnamed enum at frameworks/native/libs/binder/ndk/include_cpp/android/binder_to_string.h:118:5)",
   "referenced_type" : "_ZTIN7android8internal7details13IsPointerLikeIN4aidl7android8hardware5radio6config15SlotPortMappingEE6$valueE",
   "self_type" : "_ZTIN7android8internal7details13IsPointerLikeIN4aidl7android8hardware5radio6config15SlotPortMappingEE6$valueE",
   "size" : 4,
   "source_file" : "frameworks/native/libs/binder/ndk/include_cpp/android/binder_to_string.h",
   "underlying_type" : "_ZTIj"
  },
  {
   "alignment" : 4,
   "enum_fields" :
   [
    {
     "enum_field_value" : 0,
     "name" : "android::internal::details::IsPointerLike<std::vector<aidl::android::hardware::radio::sim::Carrier>>::value"
    }
   ],
   "linker_set_key" : "_ZTIN7android8internal7details13IsPointerLikeINSt3__16vectorIN4aidl7android8hardware5radio3sim7CarrierENS3_9allocatorISA_EEEEE6$valueE",
   "name" : "android::internal::details::IsPointerLike<std::vector<aidl::android::hardware::radio::sim::Carrier, std::allocator<aidl::android::hardware::radio::sim::Carrier>>>::(unnamed enum at frameworks/native/libs/binder/ndk/include_cpp/android/binder_to_string.h:118:5)",
   "referenced_type" : "_ZTIN7android8internal7details13IsPointerLikeINSt3__16vectorIN4aidl7android8hardware5radio3sim7CarrierENS3_9allocatorISA_EEEEE6$valueE",
   "self_type" : "_ZTIN7android8internal7details13IsPointerLikeINSt3__16vectorIN4aidl7android8hardware5radio3sim7CarrierENS3_9allocatorISA_EEEEE6$valueE",
   "size" : 4,
   "source_file" : "frameworks/native/libs/binder/ndk/include_cpp/android/binder_to_string.h",
   "underlying_type" : "_ZTIj"
  },
  {
   "alignment" : 4,
   "enum_fields" :
   [
    {
     "enum_field_value" : 0,
     "name" : "android::internal::details::IsPointerLike<std::vector<aidl::android::hardware::radio::sim::AppStatus>>::value"
    }
   ],
   "linker_set_key" : "_ZTIN7android8internal7details13IsPointerLikeINSt3__16vectorIN4aidl7android8hardware5radio3sim9AppStatusENS3_9allocatorISA_EEEEE6$valueE",
   "name" : "android::internal::details::IsPointerLike<std::vector<aidl::android::hardware::radio::sim::AppStatus, std::allocator<aidl::android::hardware::radio::sim::AppStatus>>>::(unnamed enum at frameworks/native/libs/binder/ndk/include_cpp/android/binder_to_string.h:118:5)",
   "referenced_type" : "_ZTIN7android8internal7details13IsPointerLikeINSt3__16vectorIN4aidl7android8hardware5radio3sim9AppStatusENS3_9allocatorISA_EEEEE6$valueE",
   "self_type" : "_ZTIN7android8internal7details13IsPointerLikeINSt3__16vectorIN4aidl7android8hardware5radio3sim9AppStatusENS3_9allocatorISA_EEEEE6$valueE",
   "size" : 4,
   "source_file" : "frameworks/native/libs/binder/ndk/include_cpp/android/binder_to_string.h",
   "underlying_type" : "_ZTIj"
  },
  {
   "alignment" : 4,
   "enum_fields" :
   [
    {
     "enum_field_value" : 0,
     "name" : "android::internal::details::IsPointerLike<std::vector<aidl::android::hardware::radio::config::SimPortInfo>>::value"
    }
   ],
   "linker_set_key" : "_ZTIN7android8internal7details13IsPointerLikeINSt3__16vectorIN4aidl7android8hardware5radio6config11SimPortInfoENS3_9allocatorISA_EEEEE6$valueE",
   "name" : "android::internal::details::IsPointerLike<std::vector<aidl::android::hardware::radio::config::SimPortInfo, std::allocator<aidl::android::hardware::radio::config::SimPortInfo>>>::(unnamed enum at frameworks/native/libs/binder/ndk/include_cpp/android/binder_to_string.h:118:5)",
   "referenced_type" : "_ZTIN7android8internal7details13IsPointerLikeINSt3__16vectorIN4aidl7android8hardware5radio6config11SimPortInfoENS3_9allocatorISA_EEEEE6$valueE",
   "self_type" : "_ZTIN7android8internal7details13IsPointerLikeINSt3__16vectorIN4aidl7android8hardware5radio6config11SimPortInfoENS3_9allocatorISA_EEEEE6$valueE",
   "size" : 4,
   "source_file" : "frameworks/native/libs/binder/ndk/include_cpp/android/binder_to_string.h",
   "underlying_type" : "_ZTIj"
  },
  {
   "alignment" : 4,
   "enum_fields" :
   [
    {
     "enum_field_value" : 0,
     "name" : "android::internal::details::IsPointerLike<std::vector<std::basic_string<char>>>::value"
    }
   ],
   "linker_set_key" : "_ZTIN7android8internal7details13IsPointerLikeINSt3__16vectorINS3_12basic_stringIcNS3_11char_traitsIcEENS3_9allocatorIcEEEENS8_ISA_EEEEE6$valueE",
   "name" : "android::internal::details::IsPointerLike<std::vector<std::basic_string<char, std::char_traits<char>, std::allocator<char>>, std::allocator<std::basic_string<char, std::char_traits<char>, std::allocator<char>>>>>::(unnamed enum at frameworks/native/libs/binder/ndk/include_cpp/android/binder_to_string.h:118:5)",
   "referenced_type" : "_ZTIN7android8internal7details13IsPointerLikeINSt3__16vectorINS3_12basic_stringIcNS3_11char_traitsIcEENS3_9allocatorIcEEEENS8_ISA_EEEEE6$valueE",
   "self_type" : "_ZTIN7android8internal7details13IsPointerLikeINSt3__16vectorINS3_12basic_stringIcNS3_11char_traitsIcEENS3_9allocatorIcEEEENS8_ISA_EEEEE6$valueE",
   "size" : 4,
   "source_file" : "frameworks/native/libs/binder/ndk/include_cpp/android/binder_to_string.h",
   "underlying_type" : "_ZTIj"
  },
  {
   "alignment" : 4,
   "enum_fields" :
   [
    {
     "enum_field_value" : 0,
     "name" : "android::internal::details::IsPointerLike<std::vector<unsigned char>>::value"
    }
   ],
   "linker_set_key" : "_ZTIN7android8internal7details13IsPointerLikeINSt3__16vectorIhNS3_9allocatorIhEEEEE6$valueE",
   "name" : "android::internal::details::IsPointerLike<std::vector<unsigned char, std::allocator<unsigned char>>>::(unnamed enum at frameworks/native/libs/binder/ndk/include_cpp/android/binder_to_string.h:118:5)",
   "referenced_type" : "_ZTIN7android8internal7details13IsPointerLikeINSt3__16vectorIhNS3_9allocatorIhEEEEE6$valueE",
   "self_type" : "_ZTIN7android8internal7details13IsPointerLikeINSt3__16vectorIhNS3_9allocatorIhEEEEE6$valueE",
   "size" : 4,
   "source_file" : "frameworks/native/libs/binder/ndk/include_cpp/android/binder_to_string.h",
   "underlying_type" : "_ZTIj"
  },
  {
   "alignment" : 4,
   "enum_fields" :
   [
    {
     "enum_field_value" : 0,
     "name" : "android::internal::details::ToEmptyString<aidl::android::hardware::radio::RadioError>::value"
    }
   ],
   "linker_set_key" : "_ZTIN7android8internal7details13ToEmptyStringIN4aidl7android8hardware5radio10RadioErrorEE6$valueE",
   "name" : "android::internal::details::ToEmptyString<aidl::android::hardware::radio::RadioError>::(unnamed enum at frameworks/native/libs/binder/ndk/include_cpp/android/binder_to_string.h:153:5)",
   "referenced_type" : "_ZTIN7android8internal7details13ToEmptyStringIN4aidl7android8hardware5radio10RadioErrorEE6$valueE",
   "self_type" : "_ZTIN7android8internal7details13ToEmptyStringIN4aidl7android8hardware5radio10RadioErrorEE6$valueE",
   "size" : 4,
   "source_file" : "frameworks/native/libs/binder/ndk/include_cpp/android/binder_to_string.h",
   "underlying_type" : "_ZTIj"
  },
  {
   "alignment" : 4,
   "enum_fields" :
   [
    {
     "enum_field_value" : 0,
     "name" : "android::internal::details::ToEmptyString<aidl::android::hardware::radio::RadioResponseType>::value"
    }
   ],
   "linker_set_key" : "_ZTIN7android8internal7details13ToEmptyStringIN4aidl7android8hardware5radio17RadioResponseTypeEE6$valueE",
   "name" : "android::internal::details::ToEmptyString<aidl::android::hardware::radio::RadioResponseType>::(unnamed enum at frameworks/native/libs/binder/ndk/include_cpp/android/binder_to_string.h:153:5)",
   "referenced_type" : "_ZTIN7android8internal7details13ToEmptyStringIN4aidl7android8hardware5radio17RadioResponseTypeEE6$valueE",
   "self_type" : "_ZTIN7android8internal7details13ToEmptyStringIN4aidl7android8hardware5radio17RadioResponseTypeEE6$valueE",
   "size" : 4,
   "source_file" : "frameworks/native/libs/binder/ndk/include_cpp/android/binder_to_string.h",
   "underlying_type" : "_ZTIj"
  },
  {
   "alignment" : 4,
   "enum_fields" :
   [
    {
     "enum_field_value" : 0,
     "name" : "android::internal::details::ToEmptyString<aidl::android::hardware::radio::sim::PersoSubstate>::value"
    }
   ],
   "linker_set_key" : "_ZTIN7android8internal7details13ToEmptyStringIN4aidl7android8hardware5radio3sim13PersoSubstateEE6$valueE",
   "name" : "android::internal::details::ToEmptyString<aidl::android::hardware::radio::sim::PersoSubstate>::(unnamed enum at frameworks/native/libs/binder/ndk/include_cpp/android/binder_to_string.h:153:5)",
   "referenced_type" : "_ZTIN7android8internal7details13ToEmptyStringIN4aidl7android8hardware5radio3sim13PersoSubstateEE6$valueE",
   "self_type" : "_ZTIN7android8internal7details13ToEmptyStringIN4aidl7android8hardware5radio3sim13PersoSubstateEE6$valueE",
   "size" : 4,
   "source_file" : "frameworks/native/libs/binder/ndk/include_cpp/android/binder_to_string.h",
   "underlying_type" : "_ZTIj"
  },
  {
   "alignment" : 4,
   "enum_fields" :
   [
    {
     "enum_field_value" : 0,
     "name" : "android::internal::details::ToEmptyString<aidl::android::hardware::radio::sim::Carrier>::value"
    }
   ],
   "linker_set_key" : "_ZTIN7android8internal7details13ToEmptyStringIN4aidl7android8hardware5radio3sim7CarrierEE6$valueE",
   "name" : "android::internal::details::ToEmptyString<aidl::android::hardware::radio::sim::Carrier>::(unnamed enum at frameworks/native/libs/binder/ndk/include_cpp/android/binder_to_string.h:153:5)",
   "referenced_type" : "_ZTIN7android8internal7details13ToEmptyStringIN4aidl7android8hardware5radio3sim7CarrierEE6$valueE",
   "self_type" : "_ZTIN7android8internal7details13ToEmptyStringIN4aidl7android8hardware5radio3sim7CarrierEE6$valueE",
   "size" : 4,
   "source_file" : "frameworks/native/libs/binder/ndk/include_cpp/android/binder_to_string.h",
   "underlying_type" : "_ZTIj"
  },
  {
   "alignment" : 4,
   "enum_fields" :
   [
    {
     "enum_field_value" : 0,
     "name" : "android::internal::details::ToEmptyString<aidl::android::hardware::radio::sim::PinState>::value"
    }
   ],
   "linker_set_key" : "_ZTIN7android8internal7details13ToEmptyStringIN4aidl7android8hardware5radio3sim8PinStateEE6$valueE",
   "name" : "android::internal::details::ToEmptyString<aidl::android::hardware::radio::sim::PinState>::(unnamed enum at frameworks/native/libs/binder/ndk/include_cpp/android/binder_to_string.h:153:5)",
   "referenced_type" : "_ZTIN7android8internal7details13ToEmptyStringIN4aidl7android8hardware5radio3sim8PinStateEE6$valueE",
   "self_type" : "_ZTIN7android8internal7details13ToEmptyStringIN4aidl7android8hardware5radio3sim8PinStateEE6$valueE",
   "size" : 4,
   "source_file" : "frameworks/native/libs/binder/ndk/include_cpp/android/binder_to_string.h",
   "underlying_type" : "_ZTIj"
  },
  {
   "alignment" : 4,
   "enum_fields" :
   [
    {
     "enum_field_value" : 0,
     "name" : "android::internal::details::ToEmptyString<aidl::android::hardware::radio::sim::AppStatus>::value"
    }
   ],
   "linker_set_key" : "_ZTIN7android8internal7details13ToEmptyStringIN4aidl7android8hardware5radio3sim9AppStatusEE6$valueE",
   "name" : "android::internal::details::ToEmptyString<aidl::android::hardware::radio::sim::AppStatus>::(unnamed enum at frameworks/native/libs/binder/ndk/include_cpp/android/binder_to_string.h:153:5)",
   "referenced_type" : "_ZTIN7android8internal7details13ToEmptyStringIN4aidl7android8hardware5radio3sim9AppStatusEE6$valueE",
   "self_type" : "_ZTIN7android8internal7details13ToEmptyStringIN4aidl7android8hardware5radio3sim9AppStatusEE6$valueE",
   "size" : 4,
   "source_file" : "frameworks/native/libs/binder/ndk/include_cpp/android/binder_to_string.h",
   "underlying_type" : "_ZTIj"
  },
  {
   "alignment" : 4,
   "enum_fields" :
   [
    {
     "enum_field_value" : 0,
     "name" : "android::internal::details::ToEmptyString<aidl::android::hardware::radio::config::SimPortInfo>::value"
    }
   ],
   "linker_set_key" : "_ZTIN7android8internal7details13ToEmptyStringIN4aidl7android8hardware5radio6config11SimPortInfoEE6$valueE",
   "name" : "android::internal::details::ToEmptyString<aidl::android::hardware::radio::config::SimPortInfo>::(unnamed enum at frameworks/native/libs/binder/ndk/include_cpp/android/binder_to_string.h:153:5)",
   "referenced_type" : "_ZTIN7android8internal7details13ToEmptyStringIN4aidl7android8hardware5radio6config11SimPortInfoEE6$valueE",
   "self_type" : "_ZTIN7android8internal7details13ToEmptyStringIN4aidl7android8hardware5radio6config11SimPortInfoEE6$valueE",
   "size" : 4,
   "source_file" : "frameworks/native/libs/binder/ndk/include_cpp/android/binder_to_string.h",
   "underlying_type" : "_ZTIj"
  },
  {
   "alignment" : 4,
   "enum_fields" :
   [
    {
     "enum_field_value" : 0,
     "name" : "android::internal::details::ToEmptyString<aidl::android::hardware::radio::config::SlotPortMapping>::value"
    }
   ],
   "linker_set_key" : "_ZTIN7android8internal7details13ToEmptyStringIN4aidl7android8hardware5radio6config15SlotPortMappingEE6$valueE",
   "name" : "android::internal::details::ToEmptyString<aidl::android::hardware::radio::config::SlotPortMapping>::(unnamed enum at frameworks/native/libs/binder/ndk/include_cpp/android/binder_to_string.h:153:5)",
   "referenced_type" : "_ZTIN7android8internal7details13ToEmptyStringIN4aidl7android8hardware5radio6config15SlotPortMappingEE6$valueE",
   "self_type" : "_ZTIN7android8internal7details13ToEmptyStringIN4aidl7android8hardware5radio6config15SlotPortMappingEE6$valueE",
   "size" : 4,
   "source_file" : "frameworks/native/libs/binder/ndk/include_cpp/android/binder_to_string.h",
   "underlying_type" : "_ZTIj"
  },
  {
   "alignment" : 4,
   "enum_fields" :
   [
    {
     "enum_field_value" : 0,
     "name" : "android::internal::details::ToEmptyString<std::basic_string<char>>::value"
    }
   ],
   "linker_set_key" : "_ZTIN7android8internal7details13ToEmptyStringINSt3__112basic_stringIcNS3_11char_traitsIcEENS3_9allocatorIcEEEEE6$valueE",
   "name" : "android::internal::details::ToEmptyString<std::basic_string<char, std::char_traits<char>, std::allocator<char>>>::(unnamed enum at frameworks/native/libs/binder/ndk/include_cpp/android/binder_to_string.h:153:5)",
   "referenced_type" : "_ZTIN7android8internal7details13ToEmptyStringINSt3__112basic_stringIcNS3_11char_traitsIcEENS3_9allocatorIcEEEEE6$valueE",
   "self_type" : "_ZTIN7android8internal7details13ToEmptyStringINSt3__112basic_stringIcNS3_11char_traitsIcEENS3_9allocatorIcEEEEE6$valueE",
   "size" : 4,
   "source_file" : "frameworks/native/libs/binder/ndk/include_cpp/android/binder_to_string.h",
   "underlying_type" : "_ZTIj"
  },
  {
   "alignment" : 4,
   "enum_fields" :
   [
    {
     "enum_field_value" : 0,
     "name" : "android::internal::details::ToEmptyString<std::vector<aidl::android::hardware::radio::sim::Carrier>>::value"
    }
   ],
   "linker_set_key" : "_ZTIN7android8internal7details13ToEmptyStringINSt3__16vectorIN4aidl7android8hardware5radio3sim7CarrierENS3_9allocatorISA_EEEEE6$valueE",
   "name" : "android::internal::details::ToEmptyString<std::vector<aidl::android::hardware::radio::sim::Carrier, std::allocator<aidl::android::hardware::radio::sim::Carrier>>>::(unnamed enum at frameworks/native/libs/binder/ndk/include_cpp/android/binder_to_string.h:153:5)",
   "referenced_type" : "_ZTIN7android8internal7details13ToEmptyStringINSt3__16vectorIN4aidl7android8hardware5radio3sim7CarrierENS3_9allocatorISA_EEEEE6$valueE",
   "self_type" : "_ZTIN7android8internal7details13ToEmptyStringINSt3__16vectorIN4aidl7android8hardware5radio3sim7CarrierENS3_9allocatorISA_EEEEE6$valueE",
   "size" : 4,
   "source_file" : "frameworks/native/libs/binder/ndk/include_cpp/android/binder_to_string.h",
   "underlying_type" : "_ZTIj"
  },
  {
   "alignment" : 4,
   "enum_fields" :
   [
    {
     "enum_field_value" : 0,
     "name" : "android::internal::details::ToEmptyString<std::vector<aidl::android::hardware::radio::sim::AppStatus>>::value"
    }
   ],
   "linker_set_key" : "_ZTIN7android8internal7details13ToEmptyStringINSt3__16vectorIN4aidl7android8hardware5radio3sim9AppStatusENS3_9allocatorISA_EEEEE6$valueE",
   "name" : "android::internal::details::ToEmptyString<std::vector<aidl::android::hardware::radio::sim::AppStatus, std::allocator<aidl::android::hardware::radio::sim::AppStatus>>>::(unnamed enum at frameworks/native/libs/binder/ndk/include_cpp/android/binder_to_string.h:153:5)",
   "referenced_type" : "_ZTIN7android8internal7details13ToEmptyStringINSt3__16vectorIN4aidl7android8hardware5radio3sim9AppStatusENS3_9allocatorISA_EEEEE6$valueE",
   "self_type" : "_ZTIN7android8internal7details13ToEmptyStringINSt3__16vectorIN4aidl7android8hardware5radio3sim9AppStatusENS3_9allocatorISA_EEEEE6$valueE",
   "size" : 4,
   "source_file" : "frameworks/native/libs/binder/ndk/include_cpp/android/binder_to_string.h",
   "underlying_type" : "_ZTIj"
  },
  {
   "alignment" : 4,
   "enum_fields" :
   [
    {
     "enum_field_value" : 0,
     "name" : "android::internal::details::ToEmptyString<std::vector<aidl::android::hardware::radio::config::SimPortInfo>>::value"
    }
   ],
   "linker_set_key" : "_ZTIN7android8internal7details13ToEmptyStringINSt3__16vectorIN4aidl7android8hardware5radio6config11SimPortInfoENS3_9allocatorISA_EEEEE6$valueE",
   "name" : "android::internal::details::ToEmptyString<std::vector<aidl::android::hardware::radio::config::SimPortInfo, std::allocator<aidl::android::hardware::radio::config::SimPortInfo>>>::(unnamed enum at frameworks/native/libs/binder/ndk/include_cpp/android/binder_to_string.h:153:5)",
   "referenced_type" : "_ZTIN7android8internal7details13ToEmptyStringINSt3__16vectorIN4aidl7android8hardware5radio6config11SimPortInfoENS3_9allocatorISA_EEEEE6$valueE",
   "self_type" : "_ZTIN7android8internal7details13ToEmptyStringINSt3__16vectorIN4aidl7android8hardware5radio6config11SimPortInfoENS3_9allocatorISA_EEEEE6$valueE",
   "size" : 4,
   "source_file" : "frameworks/native/libs/binder/ndk/include_cpp/android/binder_to_string.h",
   "underlying_type" : "_ZTIj"
  },
  {
   "alignment" : 4,
   "enum_fields" :
   [
    {
     "enum_field_value" : 0,
     "name" : "android::internal::details::ToEmptyString<std::vector<std::basic_string<char>>>::value"
    }
   ],
   "linker_set_key" : "_ZTIN7android8internal7details13ToEmptyStringINSt3__16vectorINS3_12basic_stringIcNS3_11char_traitsIcEENS3_9allocatorIcEEEENS8_ISA_EEEEE6$valueE",
   "name" : "android::internal::details::ToEmptyString<std::vector<std::basic_string<char, std::char_traits<char>, std::allocator<char>>, std::allocator<std::basic_string<char, std::char_traits<char>, std::allocator<char>>>>>::(unnamed enum at frameworks/native/libs/binder/ndk/include_cpp/android/binder_to_string.h:153:5)",
   "referenced_type" : "_ZTIN7android8internal7details13ToEmptyStringINSt3__16vectorINS3_12basic_stringIcNS3_11char_traitsIcEENS3_9allocatorIcEEEENS8_ISA_EEEEE6$valueE",
   "self_type" : "_ZTIN7android8internal7details13ToEmptyStringINSt3__16vectorINS3_12basic_stringIcNS3_11char_traitsIcEENS3_9allocatorIcEEEENS8_ISA_EEEEE6$valueE",
   "size" : 4,
   "source_file" : "frameworks/native/libs/binder/ndk/include_cpp/android/binder_to_string.h",
   "underlying_type" : "_ZTIj"
  },
  {
   "alignment" : 4,
   "enum_fields" :
   [
    {
     "enum_field_value" : 0,
     "name" : "android::internal::details::ToEmptyString<std::vector<unsigned char>>::value"
    }
   ],
   "linker_set_key" : "_ZTIN7android8internal7details13ToEmptyStringINSt3__16vectorIhNS3_9allocatorIhEEEEE6$valueE",
   "name" : "android::internal::details::ToEmptyString<std::vector<unsigned char, std::allocator<unsigned char>>>::(unnamed enum at frameworks/native/libs/binder/ndk/include_cpp/android/binder_to_string.h:153:5)",
   "referenced_type" : "_ZTIN7android8internal7details13ToEmptyStringINSt3__16vectorIhNS3_9allocatorIhEEEEE6$valueE",
   "self_type" : "_ZTIN7android8internal7details13ToEmptyStringINSt3__16vectorIhNS3_9allocatorIhEEEEE6$valueE",
   "size" : 4,
   "source_file" : "frameworks/native/libs/binder/ndk/include_cpp/android/binder_to_string.h",
   "underlying_type" : "_ZTIj"
  },
  {
   "alignment" : 4,
   "enum_fields" :
   [
    {
     "enum_field_value" : 0,
     "name" : "android::internal::details::ToEmptyString<signed char>::value"
    }
   ],
   "linker_set_key" : "_ZTIN7android8internal7details13ToEmptyStringIaE6$valueE",
   "name" : "android::internal::details::ToEmptyString<signed char>::(unnamed enum at frameworks/native/libs/binder/ndk/include_cpp/android/binder_to_string.h:153:5)",
   "referenced_type" : "_ZTIN7android8internal7details13ToEmptyStringIaE6$valueE",
   "self_type" : "_ZTIN7android8internal7details13ToEmptyStringIaE6$valueE",
   "size" : 4,
   "source_file" : "frameworks/native/libs/binder/ndk/include_cpp/android/binder_to_string.h",
   "underlying_type" : "_ZTIj"
  },
  {
   "alignment" : 4,
   "enum_fields" :
   [
    {
     "enum_field_value" : 0,
     "name" : "android::internal::details::ToEmptyString<bool>::value"
    }
   ],
   "linker_set_key" : "_ZTIN7android8internal7details13ToEmptyStringIbE6$valueE",
   "name" : "android::internal::details::ToEmptyString<bool>::(unnamed enum at frameworks/native/libs/binder/ndk/include_cpp/android/binder_to_string.h:153:5)",
   "referenced_type" : "_ZTIN7android8internal7details13ToEmptyStringIbE6$valueE",
   "self_type" : "_ZTIN7android8internal7details13ToEmptyStringIbE6$valueE",
   "size" : 4,
   "source_file" : "frameworks/native/libs/binder/ndk/include_cpp/android/binder_to_string.h",
   "underlying_type" : "_ZTIj"
  },
  {
   "alignment" : 4,
   "enum_fields" :
   [
    {
     "enum_field_value" : 0,
     "name" : "android::internal::details::ToEmptyString<unsigned char>::value"
    }
   ],
   "linker_set_key" : "_ZTIN7android8internal7details13ToEmptyStringIhE6$valueE",
   "name" : "android::internal::details::ToEmptyString<unsigned char>::(unnamed enum at frameworks/native/libs/binder/ndk/include_cpp/android/binder_to_string.h:153:5)",
   "referenced_type" : "_ZTIN7android8internal7details13ToEmptyStringIhE6$valueE",
   "self_type" : "_ZTIN7android8internal7details13ToEmptyStringIhE6$valueE",
   "size" : 4,
   "source_file" : "frameworks/native/libs/binder/ndk/include_cpp/android/binder_to_string.h",
   "underlying_type" : "_ZTIj"
  },
  {
   "alignment" : 4,
   "enum_fields" :
   [
    {
     "enum_field_value" : 0,
     "name" : "android::internal::details::ToEmptyString<int>::value"
    }
   ],
   "linker_set_key" : "_ZTIN7android8internal7details13ToEmptyStringIiE6$valueE",
   "name" : "android::internal::details::ToEmptyString<int>::(unnamed enum at frameworks/native/libs/binder/ndk/include_cpp/android/binder_to_string.h:153:5)",
   "referenced_type" : "_ZTIN7android8internal7details13ToEmptyStringIiE6$valueE",
   "self_type" : "_ZTIN7android8internal7details13ToEmptyStringIiE6$valueE",
   "size" : 4,
   "source_file" : "frameworks/native/libs/binder/ndk/include_cpp/android/binder_to_string.h",
   "underlying_type" : "_ZTIj"
  },
  {
   "alignment" : 4,
   "enum_fields" :
   [
    {
     "enum_field_value" : 0,
     "name" : "android::internal::details::ToEmptyString<long>::value"
    }
   ],
   "linker_set_key" : "_ZTIN7android8internal7details13ToEmptyStringIlE6$valueE",
   "name" : "android::internal::details::ToEmptyString<long>::(unnamed enum at frameworks/native/libs/binder/ndk/include_cpp/android/binder_to_string.h:153:5)",
   "referenced_type" : "_ZTIN7android8internal7details13ToEmptyStringIlE6$valueE",
   "self_type" : "_ZTIN7android8internal7details13ToEmptyStringIlE6$valueE",
   "size" : 4,
   "source_file" : "frameworks/native/libs/binder/ndk/include_cpp/android/binder_to_string.h",
   "underlying_type" : "_ZTIj"
  },
  {
   "alignment" : 4,
   "enum_fields" :
   [
    {
     "enum_field_value" : 0,
     "name" : "android::internal::details::HasToStringMethod<aidl::android::hardware::radio::RadioError>::value"
    }
   ],
   "linker_set_key" : "_ZTIN7android8internal7details17HasToStringMethodIN4aidl7android8hardware5radio10RadioErrorEE6$valueE",
   "name" : "android::internal::details::HasToStringMethod<aidl::android::hardware::radio::RadioError>::(unnamed enum at frameworks/native/libs/binder/ndk/include_cpp/android/binder_to_string.h:77:5)",
   "referenced_type" : "_ZTIN7android8internal7details17HasToStringMethodIN4aidl7android8hardware5radio10RadioErrorEE6$valueE",
   "self_type" : "_ZTIN7android8internal7details17HasToStringMethodIN4aidl7android8hardware5radio10RadioErrorEE6$valueE",
   "size" : 4,
   "source_file" : "frameworks/native/libs/binder/ndk/include_cpp/android/binder_to_string.h",
   "underlying_type" : "_ZTIj"
  },
  {
   "alignment" : 4,
   "enum_fields" :
   [
    {
     "enum_field_value" : 0,
     "name" : "android::internal::details::HasToStringMethod<aidl::android::hardware::radio::RadioResponseType>::value"
    }
   ],
   "linker_set_key" : "_ZTIN7android8internal7details17HasToStringMethodIN4aidl7android8hardware5radio17RadioResponseTypeEE6$valueE",
   "name" : "android::internal::details::HasToStringMethod<aidl::android::hardware::radio::RadioResponseType>::(unnamed enum at frameworks/native/libs/binder/ndk/include_cpp/android/binder_to_string.h:77:5)",
   "referenced_type" : "_ZTIN7android8internal7details17HasToStringMethodIN4aidl7android8hardware5radio17RadioResponseTypeEE6$valueE",
   "self_type" : "_ZTIN7android8internal7details17HasToStringMethodIN4aidl7android8hardware5radio17RadioResponseTypeEE6$valueE",
   "size" : 4,
   "source_file" : "frameworks/native/libs/binder/ndk/include_cpp/android/binder_to_string.h",
   "underlying_type" : "_ZTIj"
  },
  {
   "alignment" : 4,
   "enum_fields" :
   [
    {
     "enum_field_value" : 0,
     "name" : "android::internal::details::HasToStringMethod<aidl::android::hardware::radio::sim::PersoSubstate>::value"
    }
   ],
   "linker_set_key" : "_ZTIN7android8internal7details17HasToStringMethodIN4aidl7android8hardware5radio3sim13PersoSubstateEE6$valueE",
   "name" : "android::internal::details::HasToStringMethod<aidl::android::hardware::radio::sim::PersoSubstate>::(unnamed enum at frameworks/native/libs/binder/ndk/include_cpp/android/binder_to_string.h:77:5)",
   "referenced_type" : "_ZTIN7android8internal7details17HasToStringMethodIN4aidl7android8hardware5radio3sim13PersoSubstateEE6$valueE",
   "self_type" : "_ZTIN7android8internal7details17HasToStringMethodIN4aidl7android8hardware5radio3sim13PersoSubstateEE6$valueE",
   "size" : 4,
   "source_file" : "frameworks/native/libs/binder/ndk/include_cpp/android/binder_to_string.h",
   "underlying_type" : "_ZTIj"
  },
  {
   "alignment" : 4,
   "enum_fields" :
   [
    {
     "enum_field_value" : 1,
     "name" : "android::internal::details::HasToStringMethod<aidl::android::hardware::radio::sim::Carrier>::value"
    }
   ],
   "linker_set_key" : "_ZTIN7android8internal7details17HasToStringMethodIN4aidl7android8hardware5radio3sim7CarrierEE6$valueE",
   "name" : "android::internal::details::HasToStringMethod<aidl::android::hardware::radio::sim::Carrier>::(unnamed enum at frameworks/native/libs/binder/ndk/include_cpp/android/binder_to_string.h:77:5)",
   "referenced_type" : "_ZTIN7android8internal7details17HasToStringMethodIN4aidl7android8hardware5radio3sim7CarrierEE6$valueE",
   "self_type" : "_ZTIN7android8internal7details17HasToStringMethodIN4aidl7android8hardware5radio3sim7CarrierEE6$valueE",
   "size" : 4,
   "source_file" : "frameworks/native/libs/binder/ndk/include_cpp/android/binder_to_string.h",
   "underlying_type" : "_ZTIj"
  },
  {
   "alignment" : 4,
   "enum_fields" :
   [
    {
     "enum_field_value" : 0,
     "name" : "android::internal::details::HasToStringMethod<aidl::android::hardware::radio::sim::PinState>::value"
    }
   ],
   "linker_set_key" : "_ZTIN7android8internal7details17HasToStringMethodIN4aidl7android8hardware5radio3sim8PinStateEE6$valueE",
   "name" : "android::internal::details::HasToStringMethod<aidl::android::hardware::radio::sim::PinState>::(unnamed enum at frameworks/native/libs/binder/ndk/include_cpp/android/binder_to_string.h:77:5)",
   "referenced_type" : "_ZTIN7android8internal7details17HasToStringMethodIN4aidl7android8hardware5radio3sim8PinStateEE6$valueE",
   "self_type" : "_ZTIN7android8internal7details17HasToStringMethodIN4aidl7android8hardware5radio3sim8PinStateEE6$valueE",
   "size" : 4,
   "source_file" : "frameworks/native/libs/binder/ndk/include_cpp/android/binder_to_string.h",
   "underlying_type" : "_ZTIj"
  },
  {
   "alignment" : 4,
   "enum_fields" :
   [
    {
     "enum_field_value" : 1,
     "name" : "android::internal::details::HasToStringMethod<aidl::android::hardware::radio::sim::AppStatus>::value"
    }
   ],
   "linker_set_key" : "_ZTIN7android8internal7details17HasToStringMethodIN4aidl7android8hardware5radio3sim9AppStatusEE6$valueE",
   "name" : "android::internal::details::HasToStringMethod<aidl::android::hardware::radio::sim::AppStatus>::(unnamed enum at frameworks/native/libs/binder/ndk/include_cpp/android/binder_to_string.h:77:5)",
   "referenced_type" : "_ZTIN7android8internal7details17HasToStringMethodIN4aidl7android8hardware5radio3sim9AppStatusEE6$valueE",
   "self_type" : "_ZTIN7android8internal7details17HasToStringMethodIN4aidl7android8hardware5radio3sim9AppStatusEE6$valueE",
   "size" : 4,
   "source_file" : "frameworks/native/libs/binder/ndk/include_cpp/android/binder_to_string.h",
   "underlying_type" : "_ZTIj"
  },
  {
   "alignment" : 4,
   "enum_fields" :
   [
    {
     "enum_field_value" : 1,
     "name" : "android::internal::details::HasToStringMethod<aidl::android::hardware::radio::config::SimPortInfo>::value"
    }
   ],
   "linker_set_key" : "_ZTIN7android8internal7details17HasToStringMethodIN4aidl7android8hardware5radio6config11SimPortInfoEE6$valueE",
   "name" : "android::internal::details::HasToStringMethod<aidl::android::hardware::radio::config::SimPortInfo>::(unnamed enum at frameworks/native/libs/binder/ndk/include_cpp/android/binder_to_string.h:77:5)",
   "referenced_type" : "_ZTIN7android8internal7details17HasToStringMethodIN4aidl7android8hardware5radio6config11SimPortInfoEE6$valueE",
   "self_type" : "_ZTIN7android8internal7details17HasToStringMethodIN4aidl7android8hardware5radio6config11SimPortInfoEE6$valueE",
   "size" : 4,
   "source_file" : "frameworks/native/libs/binder/ndk/include_cpp/android/binder_to_string.h",
   "underlying_type" : "_ZTIj"
  },
  {
   "alignment" : 4,
   "enum_fields" :
   [
    {
     "enum_field_value" : 1,
     "name" : "android::internal::details::HasToStringMethod<aidl::android::hardware::radio::config::SlotPortMapping>::value"
    }
   ],
   "linker_set_key" : "_ZTIN7android8internal7details17HasToStringMethodIN4aidl7android8hardware5radio6config15SlotPortMappingEE6$valueE",
   "name" : "android::internal::details::HasToStringMethod<aidl::android::hardware::radio::config::SlotPortMapping>::(unnamed enum at frameworks/native/libs/binder/ndk/include_cpp/android/binder_to_string.h:77:5)",
   "referenced_type" : "_ZTIN7android8internal7details17HasToStringMethodIN4aidl7android8hardware5radio6config15SlotPortMappingEE6$valueE",
   "self_type" : "_ZTIN7android8internal7details17HasToStringMethodIN4aidl7android8hardware5radio6config15SlotPortMappingEE6$valueE",
   "size" : 4,
   "source_file" : "frameworks/native/libs/binder/ndk/include_cpp/android/binder_to_string.h",
   "underlying_type" : "_ZTIj"
  },
  {
   "alignment" : 4,
   "enum_fields" :
   [
    {
     "enum_field_value" : 0,
     "name" : "android::internal::details::HasToStringMethod<std::vector<aidl::android::hardware::radio::sim::Carrier>>::value"
    }
   ],
   "linker_set_key" : "_ZTIN7android8internal7details17HasToStringMethodINSt3__16vectorIN4aidl7android8hardware5radio3sim7CarrierENS3_9allocatorISA_EEEEE6$valueE",
   "name" : "android::internal::details::HasToStringMethod<std::vector<aidl::android::hardware::radio::sim::Carrier, std::allocator<aidl::android::hardware::radio::sim::Carrier>>>::(unnamed enum at frameworks/native/libs/binder/ndk/include_cpp/android/binder_to_string.h:77:5)",
   "referenced_type" : "_ZTIN7android8internal7details17HasToStringMethodINSt3__16vectorIN4aidl7android8hardware5radio3sim7CarrierENS3_9allocatorISA_EEEEE6$valueE",
   "self_type" : "_ZTIN7android8internal7details17HasToStringMethodINSt3__16vectorIN4aidl7android8hardware5radio3sim7CarrierENS3_9allocatorISA_EEEEE6$valueE",
   "size" : 4,
   "source_file" : "frameworks/native/libs/binder/ndk/include_cpp/android/binder_to_string.h",
   "underlying_type" : "_ZTIj"
  },
  {
   "alignment" : 4,
   "enum_fields" :
   [
    {
     "enum_field_value" : 0,
     "name" : "android::internal::details::HasToStringMethod<std::vector<aidl::android::hardware::radio::sim::AppStatus>>::value"
    }
   ],
   "linker_set_key" : "_ZTIN7android8internal7details17HasToStringMethodINSt3__16vectorIN4aidl7android8hardware5radio3sim9AppStatusENS3_9allocatorISA_EEEEE6$valueE",
   "name" : "android::internal::details::HasToStringMethod<std::vector<aidl::android::hardware::radio::sim::AppStatus, std::allocator<aidl::android::hardware::radio::sim::AppStatus>>>::(unnamed enum at frameworks/native/libs/binder/ndk/include_cpp/android/binder_to_string.h:77:5)",
   "referenced_type" : "_ZTIN7android8internal7details17HasToStringMethodINSt3__16vectorIN4aidl7android8hardware5radio3sim9AppStatusENS3_9allocatorISA_EEEEE6$valueE",
   "self_type" : "_ZTIN7android8internal7details17HasToStringMethodINSt3__16vectorIN4aidl7android8hardware5radio3sim9AppStatusENS3_9allocatorISA_EEEEE6$valueE",
   "size" : 4,
   "source_file" : "frameworks/native/libs/binder/ndk/include_cpp/android/binder_to_string.h",
   "underlying_type" : "_ZTIj"
  },
  {
   "alignment" : 4,
   "enum_fields" :
   [
    {
     "enum_field_value" : 0,
     "name" : "android::internal::details::HasToStringMethod<std::vector<aidl::android::hardware::radio::config::SimPortInfo>>::value"
    }
   ],
   "linker_set_key" : "_ZTIN7android8internal7details17HasToStringMethodINSt3__16vectorIN4aidl7android8hardware5radio6config11SimPortInfoENS3_9allocatorISA_EEEEE6$valueE",
   "name" : "android::internal::details::HasToStringMethod<std::vector<aidl::android::hardware::radio::config::SimPortInfo, std::allocator<aidl::android::hardware::radio::config::SimPortInfo>>>::(unnamed enum at frameworks/native/libs/binder/ndk/include_cpp/android/binder_to_string.h:77:5)",
   "referenced_type" : "_ZTIN7android8internal7details17HasToStringMethodINSt3__16vectorIN4aidl7android8hardware5radio6config11SimPortInfoENS3_9allocatorISA_EEEEE6$valueE",
   "self_type" : "_ZTIN7android8internal7details17HasToStringMethodINSt3__16vectorIN4aidl7android8hardware5radio6config11SimPortInfoENS3_9allocatorISA_EEEEE6$valueE",
   "size" : 4,
   "source_file" : "frameworks/native/libs/binder/ndk/include_cpp/android/binder_to_string.h",
   "underlying_type" : "_ZTIj"
  },
  {
   "alignment" : 4,
   "enum_fields" :
   [
    {
     "enum_field_value" : 0,
     "name" : "android::internal::details::HasToStringMethod<std::vector<std::basic_string<char>>>::value"
    }
   ],
   "linker_set_key" : "_ZTIN7android8internal7details17HasToStringMethodINSt3__16vectorINS3_12basic_stringIcNS3_11char_traitsIcEENS3_9allocatorIcEEEENS8_ISA_EEEEE6$valueE",
   "name" : "android::internal::details::HasToStringMethod<std::vector<std::basic_string<char, std::char_traits<char>, std::allocator<char>>, std::allocator<std::basic_string<char, std::char_traits<char>, std::allocator<char>>>>>::(unnamed enum at frameworks/native/libs/binder/ndk/include_cpp/android/binder_to_string.h:77:5)",
   "referenced_type" : "_ZTIN7android8internal7details17HasToStringMethodINSt3__16vectorINS3_12basic_stringIcNS3_11char_traitsIcEENS3_9allocatorIcEEEENS8_ISA_EEEEE6$valueE",
   "self_type" : "_ZTIN7android8internal7details17HasToStringMethodINSt3__16vectorINS3_12basic_stringIcNS3_11char_traitsIcEENS3_9allocatorIcEEEENS8_ISA_EEEEE6$valueE",
   "size" : 4,
   "source_file" : "frameworks/native/libs/binder/ndk/include_cpp/android/binder_to_string.h",
   "underlying_type" : "_ZTIj"
  },
  {
   "alignment" : 4,
   "enum_fields" :
   [
    {
     "enum_field_value" : 0,
     "name" : "android::internal::details::HasToStringMethod<std::vector<unsigned char>>::value"
    }
   ],
   "linker_set_key" : "_ZTIN7android8internal7details17HasToStringMethodINSt3__16vectorIhNS3_9allocatorIhEEEEE6$valueE",
   "name" : "android::internal::details::HasToStringMethod<std::vector<unsigned char, std::allocator<unsigned char>>>::(unnamed enum at frameworks/native/libs/binder/ndk/include_cpp/android/binder_to_string.h:77:5)",
   "referenced_type" : "_ZTIN7android8internal7details17HasToStringMethodINSt3__16vectorIhNS3_9allocatorIhEEEEE6$valueE",
   "self_type" : "_ZTIN7android8internal7details17HasToStringMethodINSt3__16vectorIhNS3_9allocatorIhEEEEE6$valueE",
   "size" : 4,
   "source_file" : "frameworks/native/libs/binder/ndk/include_cpp/android/binder_to_string.h",
   "underlying_type" : "_ZTIj"
  },
  {
   "alignment" : 4,
   "enum_fields" :
   [
    {
     "enum_field_value" : 1,
     "name" : "android::internal::details::HasToStringFunction<aidl::android::hardware::radio::RadioError>::value"
    }
   ],
   "linker_set_key" : "_ZTIN7android8internal7details19HasToStringFunctionIN4aidl7android8hardware5radio10RadioErrorEE6$valueE",
   "name" : "android::internal::details::HasToStringFunction<aidl::android::hardware::radio::RadioError>::(unnamed enum at frameworks/native/libs/binder/ndk/include_cpp/android/binder_to_string.h:89:5)",
   "referenced_type" : "_ZTIN7android8internal7details19HasToStringFunctionIN4aidl7android8hardware5radio10RadioErrorEE6$valueE",
   "self_type" : "_ZTIN7android8internal7details19HasToStringFunctionIN4aidl7android8hardware5radio10RadioErrorEE6$valueE",
   "size" : 4,
   "source_file" : "frameworks/native/libs/binder/ndk/include_cpp/android/binder_to_string.h",
   "underlying_type" : "_ZTIj"
  },
  {
   "alignment" : 4,
   "enum_fields" :
   [
    {
     "enum_field_value" : 1,
     "name" : "android::internal::details::HasToStringFunction<aidl::android::hardware::radio::RadioResponseType>::value"
    }
   ],
   "linker_set_key" : "_ZTIN7android8internal7details19HasToStringFunctionIN4aidl7android8hardware5radio17RadioResponseTypeEE6$valueE",
   "name" : "android::internal::details::HasToStringFunction<aidl::android::hardware::radio::RadioResponseType>::(unnamed enum at frameworks/native/libs/binder/ndk/include_cpp/android/binder_to_string.h:89:5)",
   "referenced_type" : "_ZTIN7android8internal7details19HasToStringFunctionIN4aidl7android8hardware5radio17RadioResponseTypeEE6$valueE",
   "self_type" : "_ZTIN7android8internal7details19HasToStringFunctionIN4aidl7android8hardware5radio17RadioResponseTypeEE6$valueE",
   "size" : 4,
   "source_file" : "frameworks/native/libs/binder/ndk/include_cpp/android/binder_to_string.h",
   "underlying_type" : "_ZTIj"
  },
  {
   "alignment" : 4,
   "enum_fields" :
   [
    {
     "enum_field_value" : 1,
     "name" : "android::internal::details::HasToStringFunction<aidl::android::hardware::radio::sim::PersoSubstate>::value"
    }
   ],
   "linker_set_key" : "_ZTIN7android8internal7details19HasToStringFunctionIN4aidl7android8hardware5radio3sim13PersoSubstateEE6$valueE",
   "name" : "android::internal::details::HasToStringFunction<aidl::android::hardware::radio::sim::PersoSubstate>::(unnamed enum at frameworks/native/libs/binder/ndk/include_cpp/android/binder_to_string.h:89:5)",
   "referenced_type" : "_ZTIN7android8internal7details19HasToStringFunctionIN4aidl7android8hardware5radio3sim13PersoSubstateEE6$valueE",
   "self_type" : "_ZTIN7android8internal7details19HasToStringFunctionIN4aidl7android8hardware5radio3sim13PersoSubstateEE6$valueE",
   "size" : 4,
   "source_file" : "frameworks/native/libs/binder/ndk/include_cpp/android/binder_to_string.h",
   "underlying_type" : "_ZTIj"
  },
  {
   "alignment" : 4,
   "enum_fields" :
   [
    {
     "enum_field_value" : 1,
     "name" : "android::internal::details::HasToStringFunction<aidl::android::hardware::radio::sim::PinState>::value"
    }
   ],
   "linker_set_key" : "_ZTIN7android8internal7details19HasToStringFunctionIN4aidl7android8hardware5radio3sim8PinStateEE6$valueE",
   "name" : "android::internal::details::HasToStringFunction<aidl::android::hardware::radio::sim::PinState>::(unnamed enum at frameworks/native/libs/binder/ndk/include_cpp/android/binder_to_string.h:89:5)",
   "referenced_type" : "_ZTIN7android8internal7details19HasToStringFunctionIN4aidl7android8hardware5radio3sim8PinStateEE6$valueE",
   "self_type" : "_ZTIN7android8internal7details19HasToStringFunctionIN4aidl7android8hardware5radio3sim8PinStateEE6$valueE",
   "size" : 4,
   "source_file" : "frameworks/native/libs/binder/ndk/include_cpp/android/binder_to_string.h",
   "underlying_type" : "_ZTIj"
  },
  {
   "alignment" : 4,
   "enum_fields" :
   [
    {
     "enum_field_value" : 0,
     "name" : "android::internal::details::HasToStringFunction<std::vector<aidl::android::hardware::radio::sim::Carrier>>::value"
    }
   ],
   "linker_set_key" : "_ZTIN7android8internal7details19HasToStringFunctionINSt3__16vectorIN4aidl7android8hardware5radio3sim7CarrierENS3_9allocatorISA_EEEEE6$valueE",
   "name" : "android::internal::details::HasToStringFunction<std::vector<aidl::android::hardware::radio::sim::Carrier, std::allocator<aidl::android::hardware::radio::sim::Carrier>>>::(unnamed enum at frameworks/native/libs/binder/ndk/include_cpp/android/binder_to_string.h:89:5)",
   "referenced_type" : "_ZTIN7android8internal7details19HasToStringFunctionINSt3__16vectorIN4aidl7android8hardware5radio3sim7CarrierENS3_9allocatorISA_EEEEE6$valueE",
   "self_type" : "_ZTIN7android8internal7details19HasToStringFunctionINSt3__16vectorIN4aidl7android8hardware5radio3sim7CarrierENS3_9allocatorISA_EEEEE6$valueE",
   "size" : 4,
   "source_file" : "frameworks/native/libs/binder/ndk/include_cpp/android/binder_to_string.h",
   "underlying_type" : "_ZTIj"
  },
  {
   "alignment" : 4,
   "enum_fields" :
   [
    {
     "enum_field_value" : 0,
     "name" : "android::internal::details::HasToStringFunction<std::vector<aidl::android::hardware::radio::sim::AppStatus>>::value"
    }
   ],
   "linker_set_key" : "_ZTIN7android8internal7details19HasToStringFunctionINSt3__16vectorIN4aidl7android8hardware5radio3sim9AppStatusENS3_9allocatorISA_EEEEE6$valueE",
   "name" : "android::internal::details::HasToStringFunction<std::vector<aidl::android::hardware::radio::sim::AppStatus, std::allocator<aidl::android::hardware::radio::sim::AppStatus>>>::(unnamed enum at frameworks/native/libs/binder/ndk/include_cpp/android/binder_to_string.h:89:5)",
   "referenced_type" : "_ZTIN7android8internal7details19HasToStringFunctionINSt3__16vectorIN4aidl7android8hardware5radio3sim9AppStatusENS3_9allocatorISA_EEEEE6$valueE",
   "self_type" : "_ZTIN7android8internal7details19HasToStringFunctionINSt3__16vectorIN4aidl7android8hardware5radio3sim9AppStatusENS3_9allocatorISA_EEEEE6$valueE",
   "size" : 4,
   "source_file" : "frameworks/native/libs/binder/ndk/include_cpp/android/binder_to_string.h",
   "underlying_type" : "_ZTIj"
  },
  {
   "alignment" : 4,
   "enum_fields" :
   [
    {
     "enum_field_value" : 0,
     "name" : "android::internal::details::HasToStringFunction<std::vector<aidl::android::hardware::radio::config::SimPortInfo>>::value"
    }
   ],
   "linker_set_key" : "_ZTIN7android8internal7details19HasToStringFunctionINSt3__16vectorIN4aidl7android8hardware5radio6config11SimPortInfoENS3_9allocatorISA_EEEEE6$valueE",
   "name" : "android::internal::details::HasToStringFunction<std::vector<aidl::android::hardware::radio::config::SimPortInfo, std::allocator<aidl::android::hardware::radio::config::SimPortInfo>>>::(unnamed enum at frameworks/native/libs/binder/ndk/include_cpp/android/binder_to_string.h:89:5)",
   "referenced_type" : "_ZTIN7android8internal7details19HasToStringFunctionINSt3__16vectorIN4aidl7android8hardware5radio6config11SimPortInfoENS3_9allocatorISA_EEEEE6$valueE",
   "self_type" : "_ZTIN7android8internal7details19HasToStringFunctionINSt3__16vectorIN4aidl7android8hardware5radio6config11SimPortInfoENS3_9allocatorISA_EEEEE6$valueE",
   "size" : 4,
   "source_file" : "frameworks/native/libs/binder/ndk/include_cpp/android/binder_to_string.h",
   "underlying_type" : "_ZTIj"
  },
  {
   "alignment" : 4,
   "enum_fields" :
   [
    {
     "enum_field_value" : 0,
     "name" : "android::internal::details::HasToStringFunction<std::vector<std::basic_string<char>>>::value"
    }
   ],
   "linker_set_key" : "_ZTIN7android8internal7details19HasToStringFunctionINSt3__16vectorINS3_12basic_stringIcNS3_11char_traitsIcEENS3_9allocatorIcEEEENS8_ISA_EEEEE6$valueE",
   "name" : "android::internal::details::HasToStringFunction<std::vector<std::basic_string<char, std::char_traits<char>, std::allocator<char>>, std::allocator<std::basic_string<char, std::char_traits<char>, std::allocator<char>>>>>::(unnamed enum at frameworks/native/libs/binder/ndk/include_cpp/android/binder_to_string.h:89:5)",
   "referenced_type" : "_ZTIN7android8internal7details19HasToStringFunctionINSt3__16vectorINS3_12basic_stringIcNS3_11char_traitsIcEENS3_9allocatorIcEEEENS8_ISA_EEEEE6$valueE",
   "self_type" : "_ZTIN7android8internal7details19HasToStringFunctionINSt3__16vectorINS3_12basic_stringIcNS3_11char_traitsIcEENS3_9allocatorIcEEEENS8_ISA_EEEEE6$valueE",
   "size" : 4,
   "source_file" : "frameworks/native/libs/binder/ndk/include_cpp/android/binder_to_string.h",
   "underlying_type" : "_ZTIj"
  },
  {
   "alignment" : 4,
   "enum_fields" :
   [
    {
     "enum_field_value" : 0,
     "name" : "android::internal::details::HasToStringFunction<std::vector<unsigned char>>::value"
    }
   ],
   "linker_set_key" : "_ZTIN7android8internal7details19HasToStringFunctionINSt3__16vectorIhNS3_9allocatorIhEEEEE6$valueE",
   "name" : "android::internal::details::HasToStringFunction<std::vector<unsigned char, std::allocator<unsigned char>>>::(unnamed enum at frameworks/native/libs/binder/ndk/include_cpp/android/binder_to_string.h:89:5)",
   "referenced_type" : "_ZTIN7android8internal7details19HasToStringFunctionINSt3__16vectorIhNS3_9allocatorIhEEEEE6$valueE",
   "self_type" : "_ZTIN7android8internal7details19HasToStringFunctionINSt3__16vectorIhNS3_9allocatorIhEEEEE6$valueE",
   "size" : 4,
   "source_file" : "frameworks/native/libs/binder/ndk/include_cpp/android/binder_to_string.h",
   "underlying_type" : "_ZTIj"
  }
 ],
 "function_types" :
 [
  {
   "alignment" : 4,
   "linker_set_key" : "_ZTIFiP8AIBinderjPK7AParcelPS1_E",
   "name" : "int (AIBinder *, unsigned int, const AParcel *, AParcel *)",
   "parameters" :
   [
    {
     "referenced_type" : "_ZTIP8AIBinder"
    },
    {
     "referenced_type" : "_ZTIj"
    },
    {
     "referenced_type" : "_ZTIPK7AParcel"
    },
    {
     "referenced_type" : "_ZTIP7AParcel"
    }
   ],
   "referenced_type" : "_ZTIFiP8AIBinderjPK7AParcelPS1_E",
   "return_type" : "_ZTIi",
   "self_type" : "_ZTIFiP8AIBinderjPK7AParcelPS1_E",
   "source_file" : "frameworks/native/libs/binder/ndk/include_cpp/android/binder_interface_utils.h"
  }
 ],
 "functions" :
 [
  {
   "function_name" : "ndk::BnCInterface<aidl::android::hardware::radio::sim::IRadioSimResponse>::asBinder",
   "linker_set_key" : "_ZN3ndk12BnCInterfaceIN4aidl7android8hardware5radio3sim17IRadioSimResponseEE8asBinderEv",
   "parameters" :
   [
    {
     "is_this_ptr" : true,
     "referenced_type" : "_ZTIPN3ndk12BnCInterfaceIN4aidl7android8hardware5radio3sim17IRadioSimResponseEEE"
    }
   ],
   "return_type" : "_ZTIN3ndk10SpAIBinderE",
   "source_file" : "frameworks/native/libs/binder/ndk/include_cpp/android/binder_interface_utils.h"
  },
  {
   "function_name" : "ndk::BnCInterface<aidl::android::hardware::radio::sim::IRadioSimIndication>::asBinder",
   "linker_set_key" : "_ZN3ndk12BnCInterfaceIN4aidl7android8hardware5radio3sim19IRadioSimIndicationEE8asBinderEv",
   "parameters" :
   [
    {
     "is_this_ptr" : true,
     "referenced_type" : "_ZTIPN3ndk12BnCInterfaceIN4aidl7android8hardware5radio3sim19IRadioSimIndicationEEE"
    }
   ],
   "return_type" : "_ZTIN3ndk10SpAIBinderE",
   "source_file" : "frameworks/native/libs/binder/ndk/include_cpp/android/binder_interface_utils.h"
  },
  {
   "function_name" : "ndk::BnCInterface<aidl::android::hardware::radio::sim::IRadioSim>::asBinder",
   "linker_set_key" : "_ZN3ndk12BnCInterfaceIN4aidl7android8hardware5radio3sim9IRadioSimEE8asBinderEv",
   "parameters" :
   [
    {
     "is_this_ptr" : true,
     "referenced_type" : "_ZTIPN3ndk12BnCInterfaceIN4aidl7android8hardware5radio3sim9IRadioSimEEE"
    }
   ],
   "return_type" : "_ZTIN3ndk10SpAIBinderE",
   "source_file" : "frameworks/native/libs/binder/ndk/include_cpp/android/binder_interface_utils.h"
  },
  {
   "function_name" : "ndk::BpCInterface<aidl::android::hardware::radio::sim::IRadioSimResponse>::asBinder",
   "linker_set_key" : "_ZN3ndk12BpCInterfaceIN4aidl7android8hardware5radio3sim17IRadioSimResponseEE8asBinderEv",
   "parameters" :
   [
    {
     "is_this_ptr" : true,
     "referenced_type" : "_ZTIPN3ndk12BpCInterfaceIN4aidl7android8hardware5radio3sim17IRadioSimResponseEEE"
    }
   ],
   "return_type" : "_ZTIN3ndk10SpAIBinderE",
   "source_file" : "frameworks/native/libs/binder/ndk/include_cpp/android/binder_interface_utils.h"
  },
  {
   "function_name" : "ndk::BpCInterface<aidl::android::hardware::radio::sim::IRadioSimIndication>::asBinder",
   "linker_set_key" : "_ZN3ndk12BpCInterfaceIN4aidl7android8hardware5radio3sim19IRadioSimIndicationEE8asBinderEv",
   "parameters" :
   [
    {
     "is_this_ptr" : true,
     "referenced_type" : "_ZTIPN3ndk12BpCInterfaceIN4aidl7android8hardware5radio3sim19IRadioSimIndicationEEE"
    }
   ],
   "return_type" : "_ZTIN3ndk10SpAIBinderE",
   "source_file" : "frameworks/native/libs/binder/ndk/include_cpp/android/binder_interface_utils.h"
  },
  {
   "function_name" : "ndk::BpCInterface<aidl::android::hardware::radio::sim::IRadioSim>::asBinder",
   "linker_set_key" : "_ZN3ndk12BpCInterfaceIN4aidl7android8hardware5radio3sim9IRadioSimEE8asBinderEv",
   "parameters" :
   [
    {
     "is_this_ptr" : true,
     "referenced_type" : "_ZTIPN3ndk12BpCInterfaceIN4aidl7android8hardware5radio3sim9IRadioSimEEE"
    }
   ],
   "return_type" : "_ZTIN3ndk10SpAIBinderE",
   "source_file" : "frameworks/native/libs/binder/ndk/include_cpp/android/binder_interface_utils.h"
  },
  {
   "function_name" : "ndk::AParcel_readStdVectorParcelableElement",
   "linker_set_key" : "_ZN3ndk38AParcel_readStdVectorParcelableElementIN4aidl7android8hardware5radio3sim19PhonebookRecordInfoEEEiPK7AParcelPvm",
   "parameters" :
   [
    {
     "referenced_type" : "_ZTIPK7AParcel"
    },
    {
     "referenced_type" : "_ZTIPv"
    },
    {
     "referenced_type" : "_ZTIm"
    }
   ],
   "return_type" : "_ZTIi",
   "source_file" : "frameworks/native/libs/binder/ndk/include_cpp/android/binder_parcel_utils.h",
   "template_args" :
   [
    "_ZTIN4aidl7android8hardware5radio3sim19PhonebookRecordInfoE"
   ]
  },
  {
   "function_name" : "ndk::AParcel_readStdVectorParcelableElement",
   "linker_set_key" : "_ZN3ndk38AParcel_readStdVectorParcelableElementIN4aidl7android8hardware5radio3sim7CarrierEEEiPK7AParcelPvm",
   "parameters" :
   [
    {
     "referenced_type" : "_ZTIPK7AParcel"
    },
    {
     "referenced_type" : "_ZTIPv"
    },
    {
     "referenced_type" : "_ZTIm"
    }
   ],
   "return_type" : "_ZTIi",
   "source_file" : "frameworks/native/libs/binder/ndk/include_cpp/android/binder_parcel_utils.h",
   "template_args" :
   [
    "_ZTIN4aidl7android8hardware5radio3sim7CarrierE"
   ]
  },
  {
   "function_name" : "ndk::AParcel_readStdVectorParcelableElement",
   "linker_set_key" : "_ZN3ndk38AParcel_readStdVectorParcelableElementIN4aidl7android8hardware5radio3sim9AppStatusEEEiPK7AParcelPvm",
   "parameters" :
   [
    {
     "referenced_type" : "_ZTIPK7AParcel"
    },
    {
     "referenced_type" : "_ZTIPv"
    },
    {
     "referenced_type" : "_ZTIm"
    }
   ],
   "return_type" : "_ZTIi",
   "source_file" : "frameworks/native/libs/binder/ndk/include_cpp/android/binder_parcel_utils.h",
   "template_args" :
   [
    "_ZTIN4aidl7android8hardware5radio3sim9AppStatusE"
   ]
  },
  {
   "function_name" : "ndk::AParcel_writeStdVectorParcelableElement",
   "linker_set_key" : "_ZN3ndk39AParcel_writeStdVectorParcelableElementIN4aidl7android8hardware5radio3sim19PhonebookRecordInfoEEEiP7AParcelPKvm",
   "parameters" :
   [
    {
     "referenced_type" : "_ZTIP7AParcel"
    },
    {
     "referenced_type" : "_ZTIPKv"
    },
    {
     "referenced_type" : "_ZTIm"
    }
   ],
   "return_type" : "_ZTIi",
   "source_file" : "frameworks/native/libs/binder/ndk/include_cpp/android/binder_parcel_utils.h",
   "template_args" :
   [
    "_ZTIN4aidl7android8hardware5radio3sim19PhonebookRecordInfoE"
   ]
  },
  {
   "function_name" : "ndk::AParcel_writeStdVectorParcelableElement",
   "linker_set_key" : "_ZN3ndk39AParcel_writeStdVectorParcelableElementIN4aidl7android8hardware5radio3sim7CarrierEEEiP7AParcelPKvm",
   "parameters" :
   [
    {
     "referenced_type" : "_ZTIP7AParcel"
    },
    {
     "referenced_type" : "_ZTIPKv"
    },
    {
     "referenced_type" : "_ZTIm"
    }
   ],
   "return_type" : "_ZTIi",
   "source_file" : "frameworks/native/libs/binder/ndk/include_cpp/android/binder_parcel_utils.h",
   "template_args" :
   [
    "_ZTIN4aidl7android8hardware5radio3sim7CarrierE"
   ]
  },
  {
   "function_name" : "ndk::AParcel_writeStdVectorParcelableElement",
   "linker_set_key" : "_ZN3ndk39AParcel_writeStdVectorParcelableElementIN4aidl7android8hardware5radio3sim9AppStatusEEEiP7AParcelPKvm",
   "parameters" :
   [
    {
     "referenced_type" : "_ZTIP7AParcel"
    },
    {
     "referenced_type" : "_ZTIPKv"
    },
    {
     "referenced_type" : "_ZTIm"
    }
   ],
   "return_type" : "_ZTIi",
   "source_file" : "frameworks/native/libs/binder/ndk/include_cpp/android/binder_parcel_utils.h",
   "template_args" :
   [
    "_ZTIN4aidl7android8hardware5radio3sim9AppStatusE"
   ]
  },
  {
   "access" : "protected",
   "function_name" : "aidl::android::hardware::radio::sim::BnRadioSim::createBinder",
   "linker_set_key" : "_ZN4aidl7android8hardware5radio3sim10BnRadioSim12createBinderEv",
   "parameters" :
   [
    {
     "is_this_ptr" : true,
     "referenced_type" : "_ZTIPN4aidl7android8hardware5radio3sim10BnRadioSimE"
    }
   ],
   "return_type" : "_ZTIN3ndk10SpAIBinderE",
   "source_file" : "out/soong/.intermediates/hardware/interfaces/radio/aidl/android.hardware.radio.sim-V1-ndk-source/gen/include/aidl/android/hardware/radio/sim/BnRadioSim.h"
  },
  {
   "function_name" : "aidl::android::hardware::radio::sim::BnRadioSim::getInterfaceHash",
   "linker_set_key" : "_ZN4aidl7android8hardware5radio3sim10BnRadioSim16getInterfaceHashEPNSt3__112basic_stringIcNS5_11char_traitsIcEENS5_9allocatorIcEEEE",
   "parameters" :
   [
    {
     "is_this_ptr" : true,
     "referenced_type" : "_ZTIPN4aidl7android8hardware5radio3sim10BnRadioSimE"
    },
    {
     "referenced_type" : "_ZTIPNSt3__112basic_stringIcNS_11char_traitsIcEENS_9allocatorIcEEEE"
    }
   ],
   "return_type" : "_ZTIN3ndk13ScopedAStatusE",
   "source_file" : "out/soong/.intermediates/hardware/interfaces/radio/aidl/android.hardware.radio.sim-V1-ndk-source/gen/include/aidl/android/hardware/radio/sim/BnRadioSim.h"
  },
  {
   "function_name" : "aidl::android::hardware::radio::sim::BnRadioSim::getInterfaceVersion",
   "linker_set_key" : "_ZN4aidl7android8hardware5radio3sim10BnRadioSim19getInterfaceVersionEPi",
   "parameters" :
   [
    {
     "is_this_ptr" : true,
     "referenced_type" : "_ZTIPN4aidl7android8hardware5radio3sim10BnRadioSimE"
    },
    {
     "referenced_type" : "_ZTIPi"
    }
   ],
   "return_type" : "_ZTIN3ndk13ScopedAStatusE",
   "source_file" : "out/soong/.intermediates/hardware/interfaces/radio/aidl/android.hardware.radio.sim-V1-ndk-source/gen/include/aidl/android/hardware/radio/sim/BnRadioSim.h"
  },
  {
   "function_name" : "aidl::android::hardware::radio::sim::BnRadioSim::BnRadioSim",
   "linker_set_key" : "_ZN4aidl7android8hardware5radio3sim10BnRadioSimC2Ev",
   "parameters" :
   [
    {
     "is_this_ptr" : true,
     "referenced_type" : "_ZTIPN4aidl7android8hardware5radio3sim10BnRadioSimE"
    }
   ],
   "return_type" : "_ZTIv",
   "source_file" : "out/soong/.intermediates/hardware/interfaces/radio/aidl/android.hardware.radio.sim-V1-ndk-source/gen/include/aidl/android/hardware/radio/sim/BnRadioSim.h"
  },
  {
   "function_name" : "aidl::android::hardware::radio::sim::BnRadioSim::~BnRadioSim",
   "linker_set_key" : "_ZN4aidl7android8hardware5radio3sim10BnRadioSimD0Ev",
   "parameters" :
   [
    {
     "is_this_ptr" : true,
     "referenced_type" : "_ZTIPN4aidl7android8hardware5radio3sim10BnRadioSimE"
    }
   ],
   "return_type" : "_ZTIv",
   "source_file" : "out/soong/.intermediates/hardware/interfaces/radio/aidl/android.hardware.radio.sim-V1-ndk-source/gen/include/aidl/android/hardware/radio/sim/BnRadioSim.h"
  },
  {
   "function_name" : "aidl::android::hardware::radio::sim::BnRadioSim::~BnRadioSim",
   "linker_set_key" : "_ZN4aidl7android8hardware5radio3sim10BnRadioSimD1Ev",
   "parameters" :
   [
    {
     "is_this_ptr" : true,
     "referenced_type" : "_ZTIPN4aidl7android8hardware5radio3sim10BnRadioSimE"
    }
   ],
   "return_type" : "_ZTIv",
   "source_file" : "out/soong/.intermediates/hardware/interfaces/radio/aidl/android.hardware.radio.sim-V1-ndk-source/gen/include/aidl/android/hardware/radio/sim/BnRadioSim.h"
  },
  {
   "function_name" : "aidl::android::hardware::radio::sim::BnRadioSim::~BnRadioSim",
   "linker_set_key" : "_ZN4aidl7android8hardware5radio3sim10BnRadioSimD2Ev",
   "parameters" :
   [
    {
     "is_this_ptr" : true,
     "referenced_type" : "_ZTIPN4aidl7android8hardware5radio3sim10BnRadioSimE"
    }
   ],
   "return_type" : "_ZTIv",
   "source_file" : "out/soong/.intermediates/hardware/interfaces/radio/aidl/android.hardware.radio.sim-V1-ndk-source/gen/include/aidl/android/hardware/radio/sim/BnRadioSim.h"
  },
  {
   "function_name" : "aidl::android::hardware::radio::sim::BpRadioSim::iccIoForApp",
   "linker_set_key" : "_ZN4aidl7android8hardware5radio3sim10BpRadioSim11iccIoForAppEiRKNS3_5IccIoE",
   "parameters" :
   [
    {
     "is_this_ptr" : true,
     "referenced_type" : "_ZTIPN4aidl7android8hardware5radio3sim10BpRadioSimE"
    },
    {
     "referenced_type" : "_ZTIi"
    },
    {
     "referenced_type" : "_ZTIRKN4aidl7android8hardware5radio3sim5IccIoE"
    }
   ],
   "return_type" : "_ZTIN3ndk13ScopedAStatusE",
   "source_file" : "out/soong/.intermediates/hardware/interfaces/radio/aidl/android.hardware.radio.sim-V1-ndk-source/gen/include/aidl/android/hardware/radio/sim/BpRadioSim.h"
  },
  {
   "function_name" : "aidl::android::hardware::radio::sim::BpRadioSim::sendEnvelope",
   "linker_set_key" : "_ZN4aidl7android8hardware5radio3sim10BpRadioSim12sendEnvelopeEiRKNSt3__112basic_stringIcNS5_11char_traitsIcEENS5_9allocatorIcEEEE",
   "parameters" :
   [
    {
     "is_this_ptr" : true,
     "referenced_type" : "_ZTIPN4aidl7android8hardware5radio3sim10BpRadioSimE"
    },
    {
     "referenced_type" : "_ZTIi"
    },
    {
     "referenced_type" : "_ZTIRKNSt3__112basic_stringIcNS_11char_traitsIcEENS_9allocatorIcEEEE"
    }
   ],
   "return_type" : "_ZTIN3ndk13ScopedAStatusE",
   "source_file" : "out/soong/.intermediates/hardware/interfaces/radio/aidl/android.hardware.radio.sim-V1-ndk-source/gen/include/aidl/android/hardware/radio/sim/BpRadioSim.h"
  },
  {
   "function_name" : "aidl::android::hardware::radio::sim::BpRadioSim::getImsiForApp",
   "linker_set_key" : "_ZN4aidl7android8hardware5radio3sim10BpRadioSim13getImsiForAppEiRKNSt3__112basic_stringIcNS5_11char_traitsIcEENS5_9allocatorIcEEEE",
   "parameters" :
   [
    {
     "is_this_ptr" : true,
     "referenced_type" : "_ZTIPN4aidl7android8hardware5radio3sim10BpRadioSimE"
    },
    {
     "referenced_type" : "_ZTIi"
    },
    {
     "referenced_type" : "_ZTIRKNSt3__112basic_stringIcNS_11char_traitsIcEENS_9allocatorIcEEEE"
    }
   ],
   "return_type" : "_ZTIN3ndk13ScopedAStatusE",
   "source_file" : "out/soong/.intermediates/hardware/interfaces/radio/aidl/android.hardware.radio.sim-V1-ndk-source/gen/include/aidl/android/hardware/radio/sim/BpRadioSim.h"
  },
  {
   "function_name" : "aidl::android::hardware::radio::sim::BpRadioSim::setSimCardPower",
   "linker_set_key" : "_ZN4aidl7android8hardware5radio3sim10BpRadioSim15setSimCardPowerEiNS3_14CardPowerStateE",
   "parameters" :
   [
    {
     "is_this_ptr" : true,
     "referenced_type" : "_ZTIPN4aidl7android8hardware5radio3sim10BpRadioSimE"
    },
    {
     "referenced_type" : "_ZTIi"
    },
    {
     "referenced_type" : "_ZTIN4aidl7android8hardware5radio3sim14CardPowerStateE"
    }
   ],
   "return_type" : "_ZTIN3ndk13ScopedAStatusE",
   "source_file" : "out/soong/.intermediates/hardware/interfaces/radio/aidl/android.hardware.radio.sim-V1-ndk-source/gen/include/aidl/android/hardware/radio/sim/BpRadioSim.h"
  },
  {
   "function_name" : "aidl::android::hardware::radio::sim::BpRadioSim::getIccCardStatus",
   "linker_set_key" : "_ZN4aidl7android8hardware5radio3sim10BpRadioSim16getIccCardStatusEi",
   "parameters" :
   [
    {
     "is_this_ptr" : true,
     "referenced_type" : "_ZTIPN4aidl7android8hardware5radio3sim10BpRadioSimE"
    },
    {
     "referenced_type" : "_ZTIi"
    }
   ],
   "return_type" : "_ZTIN3ndk13ScopedAStatusE",
   "source_file" : "out/soong/.intermediates/hardware/interfaces/radio/aidl/android.hardware.radio.sim-V1-ndk-source/gen/include/aidl/android/hardware/radio/sim/BpRadioSim.h"
  },
  {
   "function_name" : "aidl::android::hardware::radio::sim::BpRadioSim::getInterfaceHash",
   "linker_set_key" : "_ZN4aidl7android8hardware5radio3sim10BpRadioSim16getInterfaceHashEPNSt3__112basic_stringIcNS5_11char_traitsIcEENS5_9allocatorIcEEEE",
   "parameters" :
   [
    {
     "is_this_ptr" : true,
     "referenced_type" : "_ZTIPN4aidl7android8hardware5radio3sim10BpRadioSimE"
    },
    {
     "referenced_type" : "_ZTIPNSt3__112basic_stringIcNS_11char_traitsIcEENS_9allocatorIcEEEE"
    }
   ],
   "return_type" : "_ZTIN3ndk13ScopedAStatusE",
   "source_file" : "out/soong/.intermediates/hardware/interfaces/radio/aidl/android.hardware.radio.sim-V1-ndk-source/gen/include/aidl/android/hardware/radio/sim/BpRadioSim.h"
  },
  {
   "function_name" : "aidl::android::hardware::radio::sim::BpRadioSim::changeIccPinForApp",
   "linker_set_key" : "_ZN4aidl7android8hardware5radio3sim10BpRadioSim18changeIccPinForAppEiRKNSt3__112basic_stringIcNS5_11char_traitsIcEENS5_9allocatorIcEEEESD_SD_",
   "parameters" :
   [
    {
     "is_this_ptr" : true,
     "referenced_type" : "_ZTIPN4aidl7android8hardware5radio3sim10BpRadioSimE"
    },
    {
     "referenced_type" : "_ZTIi"
    },
    {
     "referenced_type" : "_ZTIRKNSt3__112basic_stringIcNS_11char_traitsIcEENS_9allocatorIcEEEE"
    },
    {
     "referenced_type" : "_ZTIRKNSt3__112basic_stringIcNS_11char_traitsIcEENS_9allocatorIcEEEE"
    },
    {
     "referenced_type" : "_ZTIRKNSt3__112basic_stringIcNS_11char_traitsIcEENS_9allocatorIcEEEE"
    }
   ],
   "return_type" : "_ZTIN3ndk13ScopedAStatusE",
   "source_file" : "out/soong/.intermediates/hardware/interfaces/radio/aidl/android.hardware.radio.sim-V1-ndk-source/gen/include/aidl/android/hardware/radio/sim/BpRadioSim.h"
  },
  {
   "function_name" : "aidl::android::hardware::radio::sim::BpRadioSim::getAllowedCarriers",
   "linker_set_key" : "_ZN4aidl7android8hardware5radio3sim10BpRadioSim18getAllowedCarriersEi",
   "parameters" :
   [
    {
     "is_this_ptr" : true,
     "referenced_type" : "_ZTIPN4aidl7android8hardware5radio3sim10BpRadioSimE"
    },
    {
     "referenced_type" : "_ZTIi"
    }
   ],
   "return_type" : "_ZTIN3ndk13ScopedAStatusE",
   "source_file" : "out/soong/.intermediates/hardware/interfaces/radio/aidl/android.hardware.radio.sim-V1-ndk-source/gen/include/aidl/android/hardware/radio/sim/BpRadioSim.h"
  },
  {
   "function_name" : "aidl::android::hardware::radio::sim::BpRadioSim::setAllowedCarriers",
   "linker_set_key" : "_ZN4aidl7android8hardware5radio3sim10BpRadioSim18setAllowedCarriersEiRKNS3_19CarrierRestrictionsENS3_21SimLockMultiSimPolicyE",
   "parameters" :
   [
    {
     "is_this_ptr" : true,
     "referenced_type" : "_ZTIPN4aidl7android8hardware5radio3sim10BpRadioSimE"
    },
    {
     "referenced_type" : "_ZTIi"
    },
    {
     "referenced_type" : "_ZTIRKN4aidl7android8hardware5radio3sim19CarrierRestrictionsE"
    },
    {
     "referenced_type" : "_ZTIN4aidl7android8hardware5radio3sim21SimLockMultiSimPolicyE"
    }
   ],
   "return_type" : "_ZTIN3ndk13ScopedAStatusE",
   "source_file" : "out/soong/.intermediates/hardware/interfaces/radio/aidl/android.hardware.radio.sim-V1-ndk-source/gen/include/aidl/android/hardware/radio/sim/BpRadioSim.h"
  },
  {
   "function_name" : "aidl::android::hardware::radio::sim::BpRadioSim::supplyIccPinForApp",
   "linker_set_key" : "_ZN4aidl7android8hardware5radio3sim10BpRadioSim18supplyIccPinForAppEiRKNSt3__112basic_stringIcNS5_11char_traitsIcEENS5_9allocatorIcEEEESD_",
   "parameters" :
   [
    {
     "is_this_ptr" : true,
     "referenced_type" : "_ZTIPN4aidl7android8hardware5radio3sim10BpRadioSimE"
    },
    {
     "referenced_type" : "_ZTIi"
    },
    {
     "referenced_type" : "_ZTIRKNSt3__112basic_stringIcNS_11char_traitsIcEENS_9allocatorIcEEEE"
    },
    {
     "referenced_type" : "_ZTIRKNSt3__112basic_stringIcNS_11char_traitsIcEENS_9allocatorIcEEEE"
    }
   ],
   "return_type" : "_ZTIN3ndk13ScopedAStatusE",
   "source_file" : "out/soong/.intermediates/hardware/interfaces/radio/aidl/android.hardware.radio.sim-V1-ndk-source/gen/include/aidl/android/hardware/radio/sim/BpRadioSim.h"
  },
  {
   "function_name" : "aidl::android::hardware::radio::sim::BpRadioSim::supplyIccPukForApp",
   "linker_set_key" : "_ZN4aidl7android8hardware5radio3sim10BpRadioSim18supplyIccPukForAppEiRKNSt3__112basic_stringIcNS5_11char_traitsIcEENS5_9allocatorIcEEEESD_SD_",
   "parameters" :
   [
    {
     "is_this_ptr" : true,
     "referenced_type" : "_ZTIPN4aidl7android8hardware5radio3sim10BpRadioSimE"
    },
    {
     "referenced_type" : "_ZTIi"
    },
    {
     "referenced_type" : "_ZTIRKNSt3__112basic_stringIcNS_11char_traitsIcEENS_9allocatorIcEEEE"
    },
    {
     "referenced_type" : "_ZTIRKNSt3__112basic_stringIcNS_11char_traitsIcEENS_9allocatorIcEEEE"
    },
    {
     "referenced_type" : "_ZTIRKNSt3__112basic_stringIcNS_11char_traitsIcEENS_9allocatorIcEEEE"
    }
   ],
   "return_type" : "_ZTIN3ndk13ScopedAStatusE",
   "source_file" : "out/soong/.intermediates/hardware/interfaces/radio/aidl/android.hardware.radio.sim-V1-ndk-source/gen/include/aidl/android/hardware/radio/sim/BpRadioSim.h"
  },
  {
   "function_name" : "aidl::android::hardware::radio::sim::BpRadioSim::changeIccPin2ForApp",
   "linker_set_key" : "_ZN4aidl7android8hardware5radio3sim10BpRadioSim19changeIccPin2ForAppEiRKNSt3__112basic_stringIcNS5_11char_traitsIcEENS5_9allocatorIcEEEESD_SD_",
   "parameters" :
   [
    {
     "is_this_ptr" : true,
     "referenced_type" : "_ZTIPN4aidl7android8hardware5radio3sim10BpRadioSimE"
    },
    {
     "referenced_type" : "_ZTIi"
    },
    {
     "referenced_type" : "_ZTIRKNSt3__112basic_stringIcNS_11char_traitsIcEENS_9allocatorIcEEEE"
    },
    {
     "referenced_type" : "_ZTIRKNSt3__112basic_stringIcNS_11char_traitsIcEENS_9allocatorIcEEEE"
    },
    {
     "referenced_type" : "_ZTIRKNSt3__112basic_stringIcNS_11char_traitsIcEENS_9allocatorIcEEEE"
    }
   ],
   "return_type" : "_ZTIN3ndk13ScopedAStatusE",
   "source_file" : "out/soong/.intermediates/hardware/interfaces/radio/aidl/android.hardware.radio.sim-V1-ndk-source/gen/include/aidl/android/hardware/radio/sim/BpRadioSim.h"
  },
  {
   "function_name" : "aidl::android::hardware::radio::sim::BpRadioSim::getCdmaSubscription",
   "linker_set_key" : "_ZN4aidl7android8hardware5radio3sim10BpRadioSim19getCdmaSubscriptionEi",
   "parameters" :
   [
    {
     "is_this_ptr" : true,
     "referenced_type" : "_ZTIPN4aidl7android8hardware5radio3sim10BpRadioSimE"
    },
    {
     "referenced_type" : "_ZTIi"
    }
   ],
   "return_type" : "_ZTIN3ndk13ScopedAStatusE",
   "source_file" : "out/soong/.intermediates/hardware/interfaces/radio/aidl/android.hardware.radio.sim-V1-ndk-source/gen/include/aidl/android/hardware/radio/sim/BpRadioSim.h"
  },
  {
   "function_name" : "aidl::android::hardware::radio::sim::BpRadioSim::getInterfaceVersion",
   "linker_set_key" : "_ZN4aidl7android8hardware5radio3sim10BpRadioSim19getInterfaceVersionEPi",
   "parameters" :
   [
    {
     "is_this_ptr" : true,
     "referenced_type" : "_ZTIPN4aidl7android8hardware5radio3sim10BpRadioSimE"
    },
    {
     "referenced_type" : "_ZTIPi"
    }
   ],
   "return_type" : "_ZTIN3ndk13ScopedAStatusE",
   "source_file" : "out/soong/.intermediates/hardware/interfaces/radio/aidl/android.hardware.radio.sim-V1-ndk-source/gen/include/aidl/android/hardware/radio/sim/BpRadioSim.h"
  },
  {
   "function_name" : "aidl::android::hardware::radio::sim::BpRadioSim::setUiccSubscription",
   "linker_set_key" : "_ZN4aidl7android8hardware5radio3sim10BpRadioSim19setUiccSubscriptionEiRKNS3_13SelectUiccSubE",
   "parameters" :
   [
    {
     "is_this_ptr" : true,
     "referenced_type" : "_ZTIPN4aidl7android8hardware5radio3sim10BpRadioSimE"
    },
    {
     "referenced_type" : "_ZTIi"
    },
    {
     "referenced_type" : "_ZTIRKN4aidl7android8hardware5radio3sim13SelectUiccSubE"
    }
   ],
   "return_type" : "_ZTIN3ndk13ScopedAStatusE",
   "source_file" : "out/soong/.intermediates/hardware/interfaces/radio/aidl/android.hardware.radio.sim-V1-ndk-source/gen/include/aidl/android/hardware/radio/sim/BpRadioSim.h"
  },
  {
   "function_name" : "aidl::android::hardware::radio::sim::BpRadioSim::supplyIccPin2ForApp",
   "linker_set_key" : "_ZN4aidl7android8hardware5radio3sim10BpRadioSim19supplyIccPin2ForAppEiRKNSt3__112basic_stringIcNS5_11char_traitsIcEENS5_9allocatorIcEEEESD_",
   "parameters" :
   [
    {
     "is_this_ptr" : true,
     "referenced_type" : "_ZTIPN4aidl7android8hardware5radio3sim10BpRadioSimE"
    },
    {
     "referenced_type" : "_ZTIi"
    },
    {
     "referenced_type" : "_ZTIRKNSt3__112basic_stringIcNS_11char_traitsIcEENS_9allocatorIcEEEE"
    },
    {
     "referenced_type" : "_ZTIRKNSt3__112basic_stringIcNS_11char_traitsIcEENS_9allocatorIcEEEE"
    }
   ],
   "return_type" : "_ZTIN3ndk13ScopedAStatusE",
   "source_file" : "out/soong/.intermediates/hardware/interfaces/radio/aidl/android.hardware.radio.sim-V1-ndk-source/gen/include/aidl/android/hardware/radio/sim/BpRadioSim.h"
  },
  {
   "function_name" : "aidl::android::hardware::radio::sim::BpRadioSim::supplyIccPuk2ForApp",
   "linker_set_key" : "_ZN4aidl7android8hardware5radio3sim10BpRadioSim19supplyIccPuk2ForAppEiRKNSt3__112basic_stringIcNS5_11char_traitsIcEENS5_9allocatorIcEEEESD_SD_",
   "parameters" :
   [
    {
     "is_this_ptr" : true,
     "referenced_type" : "_ZTIPN4aidl7android8hardware5radio3sim10BpRadioSimE"
    },
    {
     "referenced_type" : "_ZTIi"
    },
    {
     "referenced_type" : "_ZTIRKNSt3__112basic_stringIcNS_11char_traitsIcEENS_9allocatorIcEEEE"
    },
    {
     "referenced_type" : "_ZTIRKNSt3__112basic_stringIcNS_11char_traitsIcEENS_9allocatorIcEEEE"
    },
    {
     "referenced_type" : "_ZTIRKNSt3__112basic_stringIcNS_11char_traitsIcEENS_9allocatorIcEEEE"
    }
   ],
   "return_type" : "_ZTIN3ndk13ScopedAStatusE",
   "source_file" : "out/soong/.intermediates/hardware/interfaces/radio/aidl/android.hardware.radio.sim-V1-ndk-source/gen/include/aidl/android/hardware/radio/sim/BpRadioSim.h"
  },
  {
   "function_name" : "aidl::android::hardware::radio::sim::BpRadioSim::setResponseFunctions",
   "linker_set_key" : "_ZN4aidl7android8hardware5radio3sim10BpRadioSim20setResponseFunctionsERKNSt3__110shared_ptrINS3_17IRadioSimResponseEEERKNS6_INS3_19IRadioSimIndicationEEE",
   "parameters" :
   [
    {
     "is_this_ptr" : true,
     "referenced_type" : "_ZTIPN4aidl7android8hardware5radio3sim10BpRadioSimE"
    },
    {
     "referenced_type" : "_ZTIRKNSt3__110shared_ptrIN4aidl7android8hardware5radio3sim17IRadioSimResponseEEE"
    },
    {
     "referenced_type" : "_ZTIRKNSt3__110shared_ptrIN4aidl7android8hardware5radio3sim19IRadioSimIndicationEEE"
    }
   ],
   "return_type" : "_ZTIN3ndk13ScopedAStatusE",
   "source_file" : "out/soong/.intermediates/hardware/interfaces/radio/aidl/android.hardware.radio.sim-V1-ndk-source/gen/include/aidl/android/hardware/radio/sim/BpRadioSim.h"
  },
  {
   "function_name" : "aidl::android::hardware::radio::sim::BpRadioSim::getFacilityLockForApp",
   "linker_set_key" : "_ZN4aidl7android8hardware5radio3sim10BpRadioSim21getFacilityLockForAppEiRKNSt3__112basic_stringIcNS5_11char_traitsIcEENS5_9allocatorIcEEEESD_iSD_",
   "parameters" :
   [
    {
     "is_this_ptr" : true,
     "referenced_type" : "_ZTIPN4aidl7android8hardware5radio3sim10BpRadioSimE"
    },
    {
     "referenced_type" : "_ZTIi"
    },
    {
     "referenced_type" : "_ZTIRKNSt3__112basic_stringIcNS_11char_traitsIcEENS_9allocatorIcEEEE"
    },
    {
     "referenced_type" : "_ZTIRKNSt3__112basic_stringIcNS_11char_traitsIcEENS_9allocatorIcEEEE"
    },
    {
     "referenced_type" : "_ZTIi"
    },
    {
     "referenced_type" : "_ZTIRKNSt3__112basic_stringIcNS_11char_traitsIcEENS_9allocatorIcEEEE"
    }
   ],
   "return_type" : "_ZTIN3ndk13ScopedAStatusE",
   "source_file" : "out/soong/.intermediates/hardware/interfaces/radio/aidl/android.hardware.radio.sim-V1-ndk-source/gen/include/aidl/android/hardware/radio/sim/BpRadioSim.h"
  },
  {
   "function_name" : "aidl::android::hardware::radio::sim::BpRadioSim::iccOpenLogicalChannel",
   "linker_set_key" : "_ZN4aidl7android8hardware5radio3sim10BpRadioSim21iccOpenLogicalChannelEiRKNSt3__112basic_stringIcNS5_11char_traitsIcEENS5_9allocatorIcEEEEi",
   "parameters" :
   [
    {
     "is_this_ptr" : true,
     "referenced_type" : "_ZTIPN4aidl7android8hardware5radio3sim10BpRadioSimE"
    },
    {
     "referenced_type" : "_ZTIi"
    },
    {
     "referenced_type" : "_ZTIRKNSt3__112basic_stringIcNS_11char_traitsIcEENS_9allocatorIcEEEE"
    },
    {
     "referenced_type" : "_ZTIi"
    }
   ],
   "return_type" : "_ZTIN3ndk13ScopedAStatusE",
   "source_file" : "out/soong/.intermediates/hardware/interfaces/radio/aidl/android.hardware.radio.sim-V1-ndk-source/gen/include/aidl/android/hardware/radio/sim/BpRadioSim.h"
  },
  {
   "function_name" : "aidl::android::hardware::radio::sim::BpRadioSim::setFacilityLockForApp",
   "linker_set_key" : "_ZN4aidl7android8hardware5radio3sim10BpRadioSim21setFacilityLockForAppEiRKNSt3__112basic_stringIcNS5_11char_traitsIcEENS5_9allocatorIcEEEEbSD_iSD_",
   "parameters" :
   [
    {
     "is_this_ptr" : true,
     "referenced_type" : "_ZTIPN4aidl7android8hardware5radio3sim10BpRadioSimE"
    },
    {
     "referenced_type" : "_ZTIi"
    },
    {
     "referenced_type" : "_ZTIRKNSt3__112basic_stringIcNS_11char_traitsIcEENS_9allocatorIcEEEE"
    },
    {
     "referenced_type" : "_ZTIb"
    },
    {
     "referenced_type" : "_ZTIRKNSt3__112basic_stringIcNS_11char_traitsIcEENS_9allocatorIcEEEE"
    },
    {
     "referenced_type" : "_ZTIi"
    },
    {
     "referenced_type" : "_ZTIRKNSt3__112basic_stringIcNS_11char_traitsIcEENS_9allocatorIcEEEE"
    }
   ],
   "return_type" : "_ZTIN3ndk13ScopedAStatusE",
   "source_file" : "out/soong/.intermediates/hardware/interfaces/radio/aidl/android.hardware.radio.sim-V1-ndk-source/gen/include/aidl/android/hardware/radio/sim/BpRadioSim.h"
  },
  {
   "function_name" : "aidl::android::hardware::radio::sim::BpRadioSim::enableUiccApplications",
   "linker_set_key" : "_ZN4aidl7android8hardware5radio3sim10BpRadioSim22enableUiccApplicationsEib",
   "parameters" :
   [
    {
     "is_this_ptr" : true,
     "referenced_type" : "_ZTIPN4aidl7android8hardware5radio3sim10BpRadioSimE"
    },
    {
     "referenced_type" : "_ZTIi"
    },
    {
     "referenced_type" : "_ZTIb"
    }
   ],
   "return_type" : "_ZTIN3ndk13ScopedAStatusE",
   "source_file" : "out/soong/.intermediates/hardware/interfaces/radio/aidl/android.hardware.radio.sim-V1-ndk-source/gen/include/aidl/android/hardware/radio/sim/BpRadioSim.h"
  },
  {
   "function_name" : "aidl::android::hardware::radio::sim::BpRadioSim::getSimPhonebookRecords",
   "linker_set_key" : "_ZN4aidl7android8hardware5radio3sim10BpRadioSim22getSimPhonebookRecordsEi",
   "parameters" :
   [
    {
     "is_this_ptr" : true,
     "referenced_type" : "_ZTIPN4aidl7android8hardware5radio3sim10BpRadioSimE"
    },
    {
     "referenced_type" : "_ZTIi"
    }
   ],
   "return_type" : "_ZTIN3ndk13ScopedAStatusE",
   "source_file" : "out/soong/.intermediates/hardware/interfaces/radio/aidl/android.hardware.radio.sim-V1-ndk-source/gen/include/aidl/android/hardware/radio/sim/BpRadioSim.h"
  },
  {
   "function_name" : "aidl::android::hardware::radio::sim::BpRadioSim::iccCloseLogicalChannel",
   "linker_set_key" : "_ZN4aidl7android8hardware5radio3sim10BpRadioSim22iccCloseLogicalChannelEii",
   "parameters" :
   [
    {
     "is_this_ptr" : true,
     "referenced_type" : "_ZTIPN4aidl7android8hardware5radio3sim10BpRadioSimE"
    },
    {
     "referenced_type" : "_ZTIi"
    },
    {
     "referenced_type" : "_ZTIi"
    }
   ],
   "return_type" : "_ZTIN3ndk13ScopedAStatusE",
   "source_file" : "out/soong/.intermediates/hardware/interfaces/radio/aidl/android.hardware.radio.sim-V1-ndk-source/gen/include/aidl/android/hardware/radio/sim/BpRadioSim.h"
  },
  {
   "function_name" : "aidl::android::hardware::radio::sim::BpRadioSim::sendEnvelopeWithStatus",
   "linker_set_key" : "_ZN4aidl7android8hardware5radio3sim10BpRadioSim22sendEnvelopeWithStatusEiRKNSt3__112basic_stringIcNS5_11char_traitsIcEENS5_9allocatorIcEEEE",
   "parameters" :
   [
    {
     "is_this_ptr" : true,
     "referenced_type" : "_ZTIPN4aidl7android8hardware5radio3sim10BpRadioSimE"
    },
    {
     "referenced_type" : "_ZTIi"
    },
    {
     "referenced_type" : "_ZTIRKNSt3__112basic_stringIcNS_11char_traitsIcEENS_9allocatorIcEEEE"
    }
   ],
   "return_type" : "_ZTIN3ndk13ScopedAStatusE",
   "source_file" : "out/soong/.intermediates/hardware/interfaces/radio/aidl/android.hardware.radio.sim-V1-ndk-source/gen/include/aidl/android/hardware/radio/sim/BpRadioSim.h"
  },
  {
   "function_name" : "aidl::android::hardware::radio::sim::BpRadioSim::getSimPhonebookCapacity",
   "linker_set_key" : "_ZN4aidl7android8hardware5radio3sim10BpRadioSim23getSimPhonebookCapacityEi",
   "parameters" :
   [
    {
     "is_this_ptr" : true,
     "referenced_type" : "_ZTIPN4aidl7android8hardware5radio3sim10BpRadioSimE"
    },
    {
     "referenced_type" : "_ZTIi"
    }
   ],
   "return_type" : "_ZTIN3ndk13ScopedAStatusE",
   "source_file" : "out/soong/.intermediates/hardware/interfaces/radio/aidl/android.hardware.radio.sim-V1-ndk-source/gen/include/aidl/android/hardware/radio/sim/BpRadioSim.h"
  },
  {
   "function_name" : "aidl::android::hardware::radio::sim::BpRadioSim::responseAcknowledgement",
   "linker_set_key" : "_ZN4aidl7android8hardware5radio3sim10BpRadioSim23responseAcknowledgementEv",
   "parameters" :
   [
    {
     "is_this_ptr" : true,
     "referenced_type" : "_ZTIPN4aidl7android8hardware5radio3sim10BpRadioSimE"
    }
   ],
   "return_type" : "_ZTIN3ndk13ScopedAStatusE",
   "source_file" : "out/soong/.intermediates/hardware/interfaces/radio/aidl/android.hardware.radio.sim-V1-ndk-source/gen/include/aidl/android/hardware/radio/sim/BpRadioSim.h"
  },
  {
   "function_name" : "aidl::android::hardware::radio::sim::BpRadioSim::getCdmaSubscriptionSource",
   "linker_set_key" : "_ZN4aidl7android8hardware5radio3sim10BpRadioSim25getCdmaSubscriptionSourceEi",
   "parameters" :
   [
    {
     "is_this_ptr" : true,
     "referenced_type" : "_ZTIPN4aidl7android8hardware5radio3sim10BpRadioSimE"
    },
    {
     "referenced_type" : "_ZTIi"
    }
   ],
   "return_type" : "_ZTIN3ndk13ScopedAStatusE",
   "source_file" : "out/soong/.intermediates/hardware/interfaces/radio/aidl/android.hardware.radio.sim-V1-ndk-source/gen/include/aidl/android/hardware/radio/sim/BpRadioSim.h"
  },
  {
   "function_name" : "aidl::android::hardware::radio::sim::BpRadioSim::reportStkServiceIsRunning",
   "linker_set_key" : "_ZN4aidl7android8hardware5radio3sim10BpRadioSim25reportStkServiceIsRunningEi",
   "parameters" :
   [
    {
     "is_this_ptr" : true,
     "referenced_type" : "_ZTIPN4aidl7android8hardware5radio3sim10BpRadioSimE"
    },
    {
     "referenced_type" : "_ZTIi"
    }
   ],
   "return_type" : "_ZTIN3ndk13ScopedAStatusE",
   "source_file" : "out/soong/.intermediates/hardware/interfaces/radio/aidl/android.hardware.radio.sim-V1-ndk-source/gen/include/aidl/android/hardware/radio/sim/BpRadioSim.h"
  },
  {
   "function_name" : "aidl::android::hardware::radio::sim::BpRadioSim::sendTerminalResponseToSim",
   "linker_set_key" : "_ZN4aidl7android8hardware5radio3sim10BpRadioSim25sendTerminalResponseToSimEiRKNSt3__112basic_stringIcNS5_11char_traitsIcEENS5_9allocatorIcEEEE",
   "parameters" :
   [
    {
     "is_this_ptr" : true,
     "referenced_type" : "_ZTIPN4aidl7android8hardware5radio3sim10BpRadioSimE"
    },
    {
     "referenced_type" : "_ZTIi"
    },
    {
     "referenced_type" : "_ZTIRKNSt3__112basic_stringIcNS_11char_traitsIcEENS_9allocatorIcEEEE"
    }
   ],
   "return_type" : "_ZTIN3ndk13ScopedAStatusE",
   "source_file" : "out/soong/.intermediates/hardware/interfaces/radio/aidl/android.hardware.radio.sim-V1-ndk-source/gen/include/aidl/android/hardware/radio/sim/BpRadioSim.h"
  },
  {
   "function_name" : "aidl::android::hardware::radio::sim::BpRadioSim::setCdmaSubscriptionSource",
   "linker_set_key" : "_ZN4aidl7android8hardware5radio3sim10BpRadioSim25setCdmaSubscriptionSourceEiNS3_22CdmaSubscriptionSourceE",
   "parameters" :
   [
    {
     "is_this_ptr" : true,
     "referenced_type" : "_ZTIPN4aidl7android8hardware5radio3sim10BpRadioSimE"
    },
    {
     "referenced_type" : "_ZTIi"
    },
    {
     "referenced_type" : "_ZTIN4aidl7android8hardware5radio3sim22CdmaSubscriptionSourceE"
    }
   ],
   "return_type" : "_ZTIN3ndk13ScopedAStatusE",
   "source_file" : "out/soong/.intermediates/hardware/interfaces/radio/aidl/android.hardware.radio.sim-V1-ndk-source/gen/include/aidl/android/hardware/radio/sim/BpRadioSim.h"
  },
  {
   "function_name" : "aidl::android::hardware::radio::sim::BpRadioSim::updateSimPhonebookRecords",
   "linker_set_key" : "_ZN4aidl7android8hardware5radio3sim10BpRadioSim25updateSimPhonebookRecordsEiRKNS3_19PhonebookRecordInfoE",
   "parameters" :
   [
    {
     "is_this_ptr" : true,
     "referenced_type" : "_ZTIPN4aidl7android8hardware5radio3sim10BpRadioSimE"
    },
    {
     "referenced_type" : "_ZTIi"
    },
    {
     "referenced_type" : "_ZTIRKN4aidl7android8hardware5radio3sim19PhonebookRecordInfoE"
    }
   ],
   "return_type" : "_ZTIN3ndk13ScopedAStatusE",
   "source_file" : "out/soong/.intermediates/hardware/interfaces/radio/aidl/android.hardware.radio.sim-V1-ndk-source/gen/include/aidl/android/hardware/radio/sim/BpRadioSim.h"
  },
  {
   "function_name" : "aidl::android::hardware::radio::sim::BpRadioSim::areUiccApplicationsEnabled",
   "linker_set_key" : "_ZN4aidl7android8hardware5radio3sim10BpRadioSim26areUiccApplicationsEnabledEi",
   "parameters" :
   [
    {
     "is_this_ptr" : true,
     "referenced_type" : "_ZTIPN4aidl7android8hardware5radio3sim10BpRadioSimE"
    },
    {
     "referenced_type" : "_ZTIi"
    }
   ],
   "return_type" : "_ZTIN3ndk13ScopedAStatusE",
   "source_file" : "out/soong/.intermediates/hardware/interfaces/radio/aidl/android.hardware.radio.sim-V1-ndk-source/gen/include/aidl/android/hardware/radio/sim/BpRadioSim.h"
  },
  {
   "function_name" : "aidl::android::hardware::radio::sim::BpRadioSim::supplySimDepersonalization",
   "linker_set_key" : "_ZN4aidl7android8hardware5radio3sim10BpRadioSim26supplySimDepersonalizationEiNS3_13PersoSubstateERKNSt3__112basic_stringIcNS6_11char_traitsIcEENS6_9allocatorIcEEEE",
   "parameters" :
   [
    {
     "is_this_ptr" : true,
     "referenced_type" : "_ZTIPN4aidl7android8hardware5radio3sim10BpRadioSimE"
    },
    {
     "referenced_type" : "_ZTIi"
    },
    {
     "referenced_type" : "_ZTIN4aidl7android8hardware5radio3sim13PersoSubstateE"
    },
    {
     "referenced_type" : "_ZTIRKNSt3__112basic_stringIcNS_11char_traitsIcEENS_9allocatorIcEEEE"
    }
   ],
   "return_type" : "_ZTIN3ndk13ScopedAStatusE",
   "source_file" : "out/soong/.intermediates/hardware/interfaces/radio/aidl/android.hardware.radio.sim-V1-ndk-source/gen/include/aidl/android/hardware/radio/sim/BpRadioSim.h"
  },
  {
   "function_name" : "aidl::android::hardware::radio::sim::BpRadioSim::iccTransmitApduBasicChannel",
   "linker_set_key" : "_ZN4aidl7android8hardware5radio3sim10BpRadioSim27iccTransmitApduBasicChannelEiRKNS3_7SimApduE",
   "parameters" :
   [
    {
     "is_this_ptr" : true,
     "referenced_type" : "_ZTIPN4aidl7android8hardware5radio3sim10BpRadioSimE"
    },
    {
     "referenced_type" : "_ZTIi"
    },
    {
     "referenced_type" : "_ZTIRKN4aidl7android8hardware5radio3sim7SimApduE"
    }
   ],
   "return_type" : "_ZTIN3ndk13ScopedAStatusE",
   "source_file" : "out/soong/.intermediates/hardware/interfaces/radio/aidl/android.hardware.radio.sim-V1-ndk-source/gen/include/aidl/android/hardware/radio/sim/BpRadioSim.h"
  },
  {
   "function_name" : "aidl::android::hardware::radio::sim::BpRadioSim::requestIccSimAuthentication",
   "linker_set_key" : "_ZN4aidl7android8hardware5radio3sim10BpRadioSim27requestIccSimAuthenticationEiiRKNSt3__112basic_stringIcNS5_11char_traitsIcEENS5_9allocatorIcEEEESD_",
   "parameters" :
   [
    {
     "is_this_ptr" : true,
     "referenced_type" : "_ZTIPN4aidl7android8hardware5radio3sim10BpRadioSimE"
    },
    {
     "referenced_type" : "_ZTIi"
    },
    {
     "referenced_type" : "_ZTIi"
    },
    {
     "referenced_type" : "_ZTIRKNSt3__112basic_stringIcNS_11char_traitsIcEENS_9allocatorIcEEEE"
    },
    {
     "referenced_type" : "_ZTIRKNSt3__112basic_stringIcNS_11char_traitsIcEENS_9allocatorIcEEEE"
    }
   ],
   "return_type" : "_ZTIN3ndk13ScopedAStatusE",
   "source_file" : "out/soong/.intermediates/hardware/interfaces/radio/aidl/android.hardware.radio.sim-V1-ndk-source/gen/include/aidl/android/hardware/radio/sim/BpRadioSim.h"
  },
  {
   "function_name" : "aidl::android::hardware::radio::sim::BpRadioSim::iccTransmitApduLogicalChannel",
   "linker_set_key" : "_ZN4aidl7android8hardware5radio3sim10BpRadioSim29iccTransmitApduLogicalChannelEiRKNS3_7SimApduE",
   "parameters" :
   [
    {
     "is_this_ptr" : true,
     "referenced_type" : "_ZTIPN4aidl7android8hardware5radio3sim10BpRadioSimE"
    },
    {
     "referenced_type" : "_ZTIi"
    },
    {
     "referenced_type" : "_ZTIRKN4aidl7android8hardware5radio3sim7SimApduE"
    }
   ],
   "return_type" : "_ZTIN3ndk13ScopedAStatusE",
   "source_file" : "out/soong/.intermediates/hardware/interfaces/radio/aidl/android.hardware.radio.sim-V1-ndk-source/gen/include/aidl/android/hardware/radio/sim/BpRadioSim.h"
  },
  {
   "function_name" : "aidl::android::hardware::radio::sim::BpRadioSim::setCarrierInfoForImsiEncryption",
   "linker_set_key" : "_ZN4aidl7android8hardware5radio3sim10BpRadioSim31setCarrierInfoForImsiEncryptionEiRKNS3_18ImsiEncryptionInfoE",
   "parameters" :
   [
    {
     "is_this_ptr" : true,
     "referenced_type" : "_ZTIPN4aidl7android8hardware5radio3sim10BpRadioSimE"
    },
    {
     "referenced_type" : "_ZTIi"
    },
    {
     "referenced_type" : "_ZTIRKN4aidl7android8hardware5radio3sim18ImsiEncryptionInfoE"
    }
   ],
   "return_type" : "_ZTIN3ndk13ScopedAStatusE",
   "source_file" : "out/soong/.intermediates/hardware/interfaces/radio/aidl/android.hardware.radio.sim-V1-ndk-source/gen/include/aidl/android/hardware/radio/sim/BpRadioSim.h"
  },
  {
   "function_name" : "aidl::android::hardware::radio::sim::BpRadioSim::BpRadioSim",
   "linker_set_key" : "_ZN4aidl7android8hardware5radio3sim10BpRadioSimC1ERKN3ndk10SpAIBinderE",
   "parameters" :
   [
    {
     "is_this_ptr" : true,
     "referenced_type" : "_ZTIPN4aidl7android8hardware5radio3sim10BpRadioSimE"
    },
    {
     "referenced_type" : "_ZTIRKN3ndk10SpAIBinderE"
    }
   ],
   "return_type" : "_ZTIv",
   "source_file" : "out/soong/.intermediates/hardware/interfaces/radio/aidl/android.hardware.radio.sim-V1-ndk-source/gen/include/aidl/android/hardware/radio/sim/BpRadioSim.h"
  },
  {
   "function_name" : "aidl::android::hardware::radio::sim::BpRadioSim::BpRadioSim",
   "linker_set_key" : "_ZN4aidl7android8hardware5radio3sim10BpRadioSimC2ERKN3ndk10SpAIBinderE",
   "parameters" :
   [
    {
     "is_this_ptr" : true,
     "referenced_type" : "_ZTIPN4aidl7android8hardware5radio3sim10BpRadioSimE"
    },
    {
     "referenced_type" : "_ZTIRKN3ndk10SpAIBinderE"
    }
   ],
   "return_type" : "_ZTIv",
   "source_file" : "out/soong/.intermediates/hardware/interfaces/radio/aidl/android.hardware.radio.sim-V1-ndk-source/gen/include/aidl/android/hardware/radio/sim/BpRadioSim.h"
  },
  {
   "function_name" : "aidl::android::hardware::radio::sim::BpRadioSim::~BpRadioSim",
   "linker_set_key" : "_ZN4aidl7android8hardware5radio3sim10BpRadioSimD0Ev",
   "parameters" :
   [
    {
     "is_this_ptr" : true,
     "referenced_type" : "_ZTIPN4aidl7android8hardware5radio3sim10BpRadioSimE"
    }
   ],
   "return_type" : "_ZTIv",
   "source_file" : "out/soong/.intermediates/hardware/interfaces/radio/aidl/android.hardware.radio.sim-V1-ndk-source/gen/include/aidl/android/hardware/radio/sim/BpRadioSim.h"
  },
  {
   "function_name" : "aidl::android::hardware::radio::sim::BpRadioSim::~BpRadioSim",
   "linker_set_key" : "_ZN4aidl7android8hardware5radio3sim10BpRadioSimD1Ev",
   "parameters" :
   [
    {
     "is_this_ptr" : true,
     "referenced_type" : "_ZTIPN4aidl7android8hardware5radio3sim10BpRadioSimE"
    }
   ],
   "return_type" : "_ZTIv",
   "source_file" : "out/soong/.intermediates/hardware/interfaces/radio/aidl/android.hardware.radio.sim-V1-ndk-source/gen/include/aidl/android/hardware/radio/sim/BpRadioSim.h"
  },
  {
   "function_name" : "aidl::android::hardware::radio::sim::BpRadioSim::~BpRadioSim",
   "linker_set_key" : "_ZN4aidl7android8hardware5radio3sim10BpRadioSimD2Ev",
   "parameters" :
   [
    {
     "is_this_ptr" : true,
     "referenced_type" : "_ZTIPN4aidl7android8hardware5radio3sim10BpRadioSimE"
    }
   ],
   "return_type" : "_ZTIv",
   "source_file" : "out/soong/.intermediates/hardware/interfaces/radio/aidl/android.hardware.radio.sim-V1-ndk-source/gen/include/aidl/android/hardware/radio/sim/BpRadioSim.h"
  },
  {
   "function_name" : "aidl::android::hardware::radio::sim::CardStatus::readFromParcel",
   "linker_set_key" : "_ZN4aidl7android8hardware5radio3sim10CardStatus14readFromParcelEPK7AParcel",
   "parameters" :
   [
    {
     "is_this_ptr" : true,
     "referenced_type" : "_ZTIPN4aidl7android8hardware5radio3sim10CardStatusE"
    },
    {
     "referenced_type" : "_ZTIPK7AParcel"
    }
   ],
   "return_type" : "_ZTIi",
   "source_file" : "out/soong/.intermediates/hardware/interfaces/radio/aidl/android.hardware.radio.sim-V1-ndk-source/gen/include/aidl/android/hardware/radio/sim/CardStatus.h"
  },
  {
   "function_name" : "aidl::android::hardware::radio::sim::IccIoResult::readFromParcel",
   "linker_set_key" : "_ZN4aidl7android8hardware5radio3sim11IccIoResult14readFromParcelEPK7AParcel",
   "parameters" :
   [
    {
     "is_this_ptr" : true,
     "referenced_type" : "_ZTIPN4aidl7android8hardware5radio3sim11IccIoResultE"
    },
    {
     "referenced_type" : "_ZTIPK7AParcel"
    }
   ],
   "return_type" : "_ZTIi",
   "source_file" : "out/soong/.intermediates/hardware/interfaces/radio/aidl/android.hardware.radio.sim-V1-ndk-source/gen/include/aidl/android/hardware/radio/sim/IccIoResult.h"
  },
  {
   "function_name" : "aidl::android::hardware::radio::sim::SelectUiccSub::readFromParcel",
   "linker_set_key" : "_ZN4aidl7android8hardware5radio3sim13SelectUiccSub14readFromParcelEPK7AParcel",
   "parameters" :
   [
    {
     "is_this_ptr" : true,
     "referenced_type" : "_ZTIPN4aidl7android8hardware5radio3sim13SelectUiccSubE"
    },
    {
     "referenced_type" : "_ZTIPK7AParcel"
    }
   ],
   "return_type" : "_ZTIi",
   "source_file" : "out/soong/.intermediates/hardware/interfaces/radio/aidl/android.hardware.radio.sim-V1-ndk-source/gen/include/aidl/android/hardware/radio/sim/SelectUiccSub.h"
  },
  {
   "function_name" : "aidl::android::hardware::radio::sim::IRadioSimDefault::iccIoForApp",
   "linker_set_key" : "_ZN4aidl7android8hardware5radio3sim16IRadioSimDefault11iccIoForAppEiRKNS3_5IccIoE",
   "parameters" :
   [
    {
     "is_this_ptr" : true,
     "referenced_type" : "_ZTIPN4aidl7android8hardware5radio3sim16IRadioSimDefaultE"
    },
    {
     "referenced_type" : "_ZTIi"
    },
    {
     "referenced_type" : "_ZTIRKN4aidl7android8hardware5radio3sim5IccIoE"
    }
   ],
   "return_type" : "_ZTIN3ndk13ScopedAStatusE",
   "source_file" : "out/soong/.intermediates/hardware/interfaces/radio/aidl/android.hardware.radio.sim-V1-ndk-source/gen/include/aidl/android/hardware/radio/sim/IRadioSim.h"
  },
  {
   "function_name" : "aidl::android::hardware::radio::sim::IRadioSimDefault::sendEnvelope",
   "linker_set_key" : "_ZN4aidl7android8hardware5radio3sim16IRadioSimDefault12sendEnvelopeEiRKNSt3__112basic_stringIcNS5_11char_traitsIcEENS5_9allocatorIcEEEE",
   "parameters" :
   [
    {
     "is_this_ptr" : true,
     "referenced_type" : "_ZTIPN4aidl7android8hardware5radio3sim16IRadioSimDefaultE"
    },
    {
     "referenced_type" : "_ZTIi"
    },
    {
     "referenced_type" : "_ZTIRKNSt3__112basic_stringIcNS_11char_traitsIcEENS_9allocatorIcEEEE"
    }
   ],
   "return_type" : "_ZTIN3ndk13ScopedAStatusE",
   "source_file" : "out/soong/.intermediates/hardware/interfaces/radio/aidl/android.hardware.radio.sim-V1-ndk-source/gen/include/aidl/android/hardware/radio/sim/IRadioSim.h"
  },
  {
   "function_name" : "aidl::android::hardware::radio::sim::IRadioSimDefault::getImsiForApp",
   "linker_set_key" : "_ZN4aidl7android8hardware5radio3sim16IRadioSimDefault13getImsiForAppEiRKNSt3__112basic_stringIcNS5_11char_traitsIcEENS5_9allocatorIcEEEE",
   "parameters" :
   [
    {
     "is_this_ptr" : true,
     "referenced_type" : "_ZTIPN4aidl7android8hardware5radio3sim16IRadioSimDefaultE"
    },
    {
     "referenced_type" : "_ZTIi"
    },
    {
     "referenced_type" : "_ZTIRKNSt3__112basic_stringIcNS_11char_traitsIcEENS_9allocatorIcEEEE"
    }
   ],
   "return_type" : "_ZTIN3ndk13ScopedAStatusE",
   "source_file" : "out/soong/.intermediates/hardware/interfaces/radio/aidl/android.hardware.radio.sim-V1-ndk-source/gen/include/aidl/android/hardware/radio/sim/IRadioSim.h"
  },
  {
   "function_name" : "aidl::android::hardware::radio::sim::IRadioSimDefault::setSimCardPower",
   "linker_set_key" : "_ZN4aidl7android8hardware5radio3sim16IRadioSimDefault15setSimCardPowerEiNS3_14CardPowerStateE",
   "parameters" :
   [
    {
     "is_this_ptr" : true,
     "referenced_type" : "_ZTIPN4aidl7android8hardware5radio3sim16IRadioSimDefaultE"
    },
    {
     "referenced_type" : "_ZTIi"
    },
    {
     "referenced_type" : "_ZTIN4aidl7android8hardware5radio3sim14CardPowerStateE"
    }
   ],
   "return_type" : "_ZTIN3ndk13ScopedAStatusE",
   "source_file" : "out/soong/.intermediates/hardware/interfaces/radio/aidl/android.hardware.radio.sim-V1-ndk-source/gen/include/aidl/android/hardware/radio/sim/IRadioSim.h"
  },
  {
   "function_name" : "aidl::android::hardware::radio::sim::IRadioSimDefault::getIccCardStatus",
   "linker_set_key" : "_ZN4aidl7android8hardware5radio3sim16IRadioSimDefault16getIccCardStatusEi",
   "parameters" :
   [
    {
     "is_this_ptr" : true,
     "referenced_type" : "_ZTIPN4aidl7android8hardware5radio3sim16IRadioSimDefaultE"
    },
    {
     "referenced_type" : "_ZTIi"
    }
   ],
   "return_type" : "_ZTIN3ndk13ScopedAStatusE",
   "source_file" : "out/soong/.intermediates/hardware/interfaces/radio/aidl/android.hardware.radio.sim-V1-ndk-source/gen/include/aidl/android/hardware/radio/sim/IRadioSim.h"
  },
  {
   "function_name" : "aidl::android::hardware::radio::sim::IRadioSimDefault::getInterfaceHash",
   "linker_set_key" : "_ZN4aidl7android8hardware5radio3sim16IRadioSimDefault16getInterfaceHashEPNSt3__112basic_stringIcNS5_11char_traitsIcEENS5_9allocatorIcEEEE",
   "parameters" :
   [
    {
     "is_this_ptr" : true,
     "referenced_type" : "_ZTIPN4aidl7android8hardware5radio3sim16IRadioSimDefaultE"
    },
    {
     "referenced_type" : "_ZTIPNSt3__112basic_stringIcNS_11char_traitsIcEENS_9allocatorIcEEEE"
    }
   ],
   "return_type" : "_ZTIN3ndk13ScopedAStatusE",
   "source_file" : "out/soong/.intermediates/hardware/interfaces/radio/aidl/android.hardware.radio.sim-V1-ndk-source/gen/include/aidl/android/hardware/radio/sim/IRadioSim.h"
  },
  {
   "function_name" : "aidl::android::hardware::radio::sim::IRadioSimDefault::changeIccPinForApp",
   "linker_set_key" : "_ZN4aidl7android8hardware5radio3sim16IRadioSimDefault18changeIccPinForAppEiRKNSt3__112basic_stringIcNS5_11char_traitsIcEENS5_9allocatorIcEEEESD_SD_",
   "parameters" :
   [
    {
     "is_this_ptr" : true,
     "referenced_type" : "_ZTIPN4aidl7android8hardware5radio3sim16IRadioSimDefaultE"
    },
    {
     "referenced_type" : "_ZTIi"
    },
    {
     "referenced_type" : "_ZTIRKNSt3__112basic_stringIcNS_11char_traitsIcEENS_9allocatorIcEEEE"
    },
    {
     "referenced_type" : "_ZTIRKNSt3__112basic_stringIcNS_11char_traitsIcEENS_9allocatorIcEEEE"
    },
    {
     "referenced_type" : "_ZTIRKNSt3__112basic_stringIcNS_11char_traitsIcEENS_9allocatorIcEEEE"
    }
   ],
   "return_type" : "_ZTIN3ndk13ScopedAStatusE",
   "source_file" : "out/soong/.intermediates/hardware/interfaces/radio/aidl/android.hardware.radio.sim-V1-ndk-source/gen/include/aidl/android/hardware/radio/sim/IRadioSim.h"
  },
  {
   "function_name" : "aidl::android::hardware::radio::sim::IRadioSimDefault::getAllowedCarriers",
   "linker_set_key" : "_ZN4aidl7android8hardware5radio3sim16IRadioSimDefault18getAllowedCarriersEi",
   "parameters" :
   [
    {
     "is_this_ptr" : true,
     "referenced_type" : "_ZTIPN4aidl7android8hardware5radio3sim16IRadioSimDefaultE"
    },
    {
     "referenced_type" : "_ZTIi"
    }
   ],
   "return_type" : "_ZTIN3ndk13ScopedAStatusE",
   "source_file" : "out/soong/.intermediates/hardware/interfaces/radio/aidl/android.hardware.radio.sim-V1-ndk-source/gen/include/aidl/android/hardware/radio/sim/IRadioSim.h"
  },
  {
   "function_name" : "aidl::android::hardware::radio::sim::IRadioSimDefault::setAllowedCarriers",
   "linker_set_key" : "_ZN4aidl7android8hardware5radio3sim16IRadioSimDefault18setAllowedCarriersEiRKNS3_19CarrierRestrictionsENS3_21SimLockMultiSimPolicyE",
   "parameters" :
   [
    {
     "is_this_ptr" : true,
     "referenced_type" : "_ZTIPN4aidl7android8hardware5radio3sim16IRadioSimDefaultE"
    },
    {
     "referenced_type" : "_ZTIi"
    },
    {
     "referenced_type" : "_ZTIRKN4aidl7android8hardware5radio3sim19CarrierRestrictionsE"
    },
    {
     "referenced_type" : "_ZTIN4aidl7android8hardware5radio3sim21SimLockMultiSimPolicyE"
    }
   ],
   "return_type" : "_ZTIN3ndk13ScopedAStatusE",
   "source_file" : "out/soong/.intermediates/hardware/interfaces/radio/aidl/android.hardware.radio.sim-V1-ndk-source/gen/include/aidl/android/hardware/radio/sim/IRadioSim.h"
  },
  {
   "function_name" : "aidl::android::hardware::radio::sim::IRadioSimDefault::supplyIccPinForApp",
   "linker_set_key" : "_ZN4aidl7android8hardware5radio3sim16IRadioSimDefault18supplyIccPinForAppEiRKNSt3__112basic_stringIcNS5_11char_traitsIcEENS5_9allocatorIcEEEESD_",
   "parameters" :
   [
    {
     "is_this_ptr" : true,
     "referenced_type" : "_ZTIPN4aidl7android8hardware5radio3sim16IRadioSimDefaultE"
    },
    {
     "referenced_type" : "_ZTIi"
    },
    {
     "referenced_type" : "_ZTIRKNSt3__112basic_stringIcNS_11char_traitsIcEENS_9allocatorIcEEEE"
    },
    {
     "referenced_type" : "_ZTIRKNSt3__112basic_stringIcNS_11char_traitsIcEENS_9allocatorIcEEEE"
    }
   ],
   "return_type" : "_ZTIN3ndk13ScopedAStatusE",
   "source_file" : "out/soong/.intermediates/hardware/interfaces/radio/aidl/android.hardware.radio.sim-V1-ndk-source/gen/include/aidl/android/hardware/radio/sim/IRadioSim.h"
  },
  {
   "function_name" : "aidl::android::hardware::radio::sim::IRadioSimDefault::supplyIccPukForApp",
   "linker_set_key" : "_ZN4aidl7android8hardware5radio3sim16IRadioSimDefault18supplyIccPukForAppEiRKNSt3__112basic_stringIcNS5_11char_traitsIcEENS5_9allocatorIcEEEESD_SD_",
   "parameters" :
   [
    {
     "is_this_ptr" : true,
     "referenced_type" : "_ZTIPN4aidl7android8hardware5radio3sim16IRadioSimDefaultE"
    },
    {
     "referenced_type" : "_ZTIi"
    },
    {
     "referenced_type" : "_ZTIRKNSt3__112basic_stringIcNS_11char_traitsIcEENS_9allocatorIcEEEE"
    },
    {
     "referenced_type" : "_ZTIRKNSt3__112basic_stringIcNS_11char_traitsIcEENS_9allocatorIcEEEE"
    },
    {
     "referenced_type" : "_ZTIRKNSt3__112basic_stringIcNS_11char_traitsIcEENS_9allocatorIcEEEE"
    }
   ],
   "return_type" : "_ZTIN3ndk13ScopedAStatusE",
   "source_file" : "out/soong/.intermediates/hardware/interfaces/radio/aidl/android.hardware.radio.sim-V1-ndk-source/gen/include/aidl/android/hardware/radio/sim/IRadioSim.h"
  },
  {
   "function_name" : "aidl::android::hardware::radio::sim::IRadioSimDefault::changeIccPin2ForApp",
   "linker_set_key" : "_ZN4aidl7android8hardware5radio3sim16IRadioSimDefault19changeIccPin2ForAppEiRKNSt3__112basic_stringIcNS5_11char_traitsIcEENS5_9allocatorIcEEEESD_SD_",
   "parameters" :
   [
    {
     "is_this_ptr" : true,
     "referenced_type" : "_ZTIPN4aidl7android8hardware5radio3sim16IRadioSimDefaultE"
    },
    {
     "referenced_type" : "_ZTIi"
    },
    {
     "referenced_type" : "_ZTIRKNSt3__112basic_stringIcNS_11char_traitsIcEENS_9allocatorIcEEEE"
    },
    {
     "referenced_type" : "_ZTIRKNSt3__112basic_stringIcNS_11char_traitsIcEENS_9allocatorIcEEEE"
    },
    {
     "referenced_type" : "_ZTIRKNSt3__112basic_stringIcNS_11char_traitsIcEENS_9allocatorIcEEEE"
    }
   ],
   "return_type" : "_ZTIN3ndk13ScopedAStatusE",
   "source_file" : "out/soong/.intermediates/hardware/interfaces/radio/aidl/android.hardware.radio.sim-V1-ndk-source/gen/include/aidl/android/hardware/radio/sim/IRadioSim.h"
  },
  {
   "function_name" : "aidl::android::hardware::radio::sim::IRadioSimDefault::getCdmaSubscription",
   "linker_set_key" : "_ZN4aidl7android8hardware5radio3sim16IRadioSimDefault19getCdmaSubscriptionEi",
   "parameters" :
   [
    {
     "is_this_ptr" : true,
     "referenced_type" : "_ZTIPN4aidl7android8hardware5radio3sim16IRadioSimDefaultE"
    },
    {
     "referenced_type" : "_ZTIi"
    }
   ],
   "return_type" : "_ZTIN3ndk13ScopedAStatusE",
   "source_file" : "out/soong/.intermediates/hardware/interfaces/radio/aidl/android.hardware.radio.sim-V1-ndk-source/gen/include/aidl/android/hardware/radio/sim/IRadioSim.h"
  },
  {
   "function_name" : "aidl::android::hardware::radio::sim::IRadioSimDefault::getInterfaceVersion",
   "linker_set_key" : "_ZN4aidl7android8hardware5radio3sim16IRadioSimDefault19getInterfaceVersionEPi",
   "parameters" :
   [
    {
     "is_this_ptr" : true,
     "referenced_type" : "_ZTIPN4aidl7android8hardware5radio3sim16IRadioSimDefaultE"
    },
    {
     "referenced_type" : "_ZTIPi"
    }
   ],
   "return_type" : "_ZTIN3ndk13ScopedAStatusE",
   "source_file" : "out/soong/.intermediates/hardware/interfaces/radio/aidl/android.hardware.radio.sim-V1-ndk-source/gen/include/aidl/android/hardware/radio/sim/IRadioSim.h"
  },
  {
   "function_name" : "aidl::android::hardware::radio::sim::IRadioSimDefault::setUiccSubscription",
   "linker_set_key" : "_ZN4aidl7android8hardware5radio3sim16IRadioSimDefault19setUiccSubscriptionEiRKNS3_13SelectUiccSubE",
   "parameters" :
   [
    {
     "is_this_ptr" : true,
     "referenced_type" : "_ZTIPN4aidl7android8hardware5radio3sim16IRadioSimDefaultE"
    },
    {
     "referenced_type" : "_ZTIi"
    },
    {
     "referenced_type" : "_ZTIRKN4aidl7android8hardware5radio3sim13SelectUiccSubE"
    }
   ],
   "return_type" : "_ZTIN3ndk13ScopedAStatusE",
   "source_file" : "out/soong/.intermediates/hardware/interfaces/radio/aidl/android.hardware.radio.sim-V1-ndk-source/gen/include/aidl/android/hardware/radio/sim/IRadioSim.h"
  },
  {
   "function_name" : "aidl::android::hardware::radio::sim::IRadioSimDefault::supplyIccPin2ForApp",
   "linker_set_key" : "_ZN4aidl7android8hardware5radio3sim16IRadioSimDefault19supplyIccPin2ForAppEiRKNSt3__112basic_stringIcNS5_11char_traitsIcEENS5_9allocatorIcEEEESD_",
   "parameters" :
   [
    {
     "is_this_ptr" : true,
     "referenced_type" : "_ZTIPN4aidl7android8hardware5radio3sim16IRadioSimDefaultE"
    },
    {
     "referenced_type" : "_ZTIi"
    },
    {
     "referenced_type" : "_ZTIRKNSt3__112basic_stringIcNS_11char_traitsIcEENS_9allocatorIcEEEE"
    },
    {
     "referenced_type" : "_ZTIRKNSt3__112basic_stringIcNS_11char_traitsIcEENS_9allocatorIcEEEE"
    }
   ],
   "return_type" : "_ZTIN3ndk13ScopedAStatusE",
   "source_file" : "out/soong/.intermediates/hardware/interfaces/radio/aidl/android.hardware.radio.sim-V1-ndk-source/gen/include/aidl/android/hardware/radio/sim/IRadioSim.h"
  },
  {
   "function_name" : "aidl::android::hardware::radio::sim::IRadioSimDefault::supplyIccPuk2ForApp",
   "linker_set_key" : "_ZN4aidl7android8hardware5radio3sim16IRadioSimDefault19supplyIccPuk2ForAppEiRKNSt3__112basic_stringIcNS5_11char_traitsIcEENS5_9allocatorIcEEEESD_SD_",
   "parameters" :
   [
    {
     "is_this_ptr" : true,
     "referenced_type" : "_ZTIPN4aidl7android8hardware5radio3sim16IRadioSimDefaultE"
    },
    {
     "referenced_type" : "_ZTIi"
    },
    {
     "referenced_type" : "_ZTIRKNSt3__112basic_stringIcNS_11char_traitsIcEENS_9allocatorIcEEEE"
    },
    {
     "referenced_type" : "_ZTIRKNSt3__112basic_stringIcNS_11char_traitsIcEENS_9allocatorIcEEEE"
    },
    {
     "referenced_type" : "_ZTIRKNSt3__112basic_stringIcNS_11char_traitsIcEENS_9allocatorIcEEEE"
    }
   ],
   "return_type" : "_ZTIN3ndk13ScopedAStatusE",
   "source_file" : "out/soong/.intermediates/hardware/interfaces/radio/aidl/android.hardware.radio.sim-V1-ndk-source/gen/include/aidl/android/hardware/radio/sim/IRadioSim.h"
  },
  {
   "function_name" : "aidl::android::hardware::radio::sim::IRadioSimDefault::setResponseFunctions",
   "linker_set_key" : "_ZN4aidl7android8hardware5radio3sim16IRadioSimDefault20setResponseFunctionsERKNSt3__110shared_ptrINS3_17IRadioSimResponseEEERKNS6_INS3_19IRadioSimIndicationEEE",
   "parameters" :
   [
    {
     "is_this_ptr" : true,
     "referenced_type" : "_ZTIPN4aidl7android8hardware5radio3sim16IRadioSimDefaultE"
    },
    {
     "referenced_type" : "_ZTIRKNSt3__110shared_ptrIN4aidl7android8hardware5radio3sim17IRadioSimResponseEEE"
    },
    {
     "referenced_type" : "_ZTIRKNSt3__110shared_ptrIN4aidl7android8hardware5radio3sim19IRadioSimIndicationEEE"
    }
   ],
   "return_type" : "_ZTIN3ndk13ScopedAStatusE",
   "source_file" : "out/soong/.intermediates/hardware/interfaces/radio/aidl/android.hardware.radio.sim-V1-ndk-source/gen/include/aidl/android/hardware/radio/sim/IRadioSim.h"
  },
  {
   "function_name" : "aidl::android::hardware::radio::sim::IRadioSimDefault::getFacilityLockForApp",
   "linker_set_key" : "_ZN4aidl7android8hardware5radio3sim16IRadioSimDefault21getFacilityLockForAppEiRKNSt3__112basic_stringIcNS5_11char_traitsIcEENS5_9allocatorIcEEEESD_iSD_",
   "parameters" :
   [
    {
     "is_this_ptr" : true,
     "referenced_type" : "_ZTIPN4aidl7android8hardware5radio3sim16IRadioSimDefaultE"
    },
    {
     "referenced_type" : "_ZTIi"
    },
    {
     "referenced_type" : "_ZTIRKNSt3__112basic_stringIcNS_11char_traitsIcEENS_9allocatorIcEEEE"
    },
    {
     "referenced_type" : "_ZTIRKNSt3__112basic_stringIcNS_11char_traitsIcEENS_9allocatorIcEEEE"
    },
    {
     "referenced_type" : "_ZTIi"
    },
    {
     "referenced_type" : "_ZTIRKNSt3__112basic_stringIcNS_11char_traitsIcEENS_9allocatorIcEEEE"
    }
   ],
   "return_type" : "_ZTIN3ndk13ScopedAStatusE",
   "source_file" : "out/soong/.intermediates/hardware/interfaces/radio/aidl/android.hardware.radio.sim-V1-ndk-source/gen/include/aidl/android/hardware/radio/sim/IRadioSim.h"
  },
  {
   "function_name" : "aidl::android::hardware::radio::sim::IRadioSimDefault::iccOpenLogicalChannel",
   "linker_set_key" : "_ZN4aidl7android8hardware5radio3sim16IRadioSimDefault21iccOpenLogicalChannelEiRKNSt3__112basic_stringIcNS5_11char_traitsIcEENS5_9allocatorIcEEEEi",
   "parameters" :
   [
    {
     "is_this_ptr" : true,
     "referenced_type" : "_ZTIPN4aidl7android8hardware5radio3sim16IRadioSimDefaultE"
    },
    {
     "referenced_type" : "_ZTIi"
    },
    {
     "referenced_type" : "_ZTIRKNSt3__112basic_stringIcNS_11char_traitsIcEENS_9allocatorIcEEEE"
    },
    {
     "referenced_type" : "_ZTIi"
    }
   ],
   "return_type" : "_ZTIN3ndk13ScopedAStatusE",
   "source_file" : "out/soong/.intermediates/hardware/interfaces/radio/aidl/android.hardware.radio.sim-V1-ndk-source/gen/include/aidl/android/hardware/radio/sim/IRadioSim.h"
  },
  {
   "function_name" : "aidl::android::hardware::radio::sim::IRadioSimDefault::setFacilityLockForApp",
   "linker_set_key" : "_ZN4aidl7android8hardware5radio3sim16IRadioSimDefault21setFacilityLockForAppEiRKNSt3__112basic_stringIcNS5_11char_traitsIcEENS5_9allocatorIcEEEEbSD_iSD_",
   "parameters" :
   [
    {
     "is_this_ptr" : true,
     "referenced_type" : "_ZTIPN4aidl7android8hardware5radio3sim16IRadioSimDefaultE"
    },
    {
     "referenced_type" : "_ZTIi"
    },
    {
     "referenced_type" : "_ZTIRKNSt3__112basic_stringIcNS_11char_traitsIcEENS_9allocatorIcEEEE"
    },
    {
     "referenced_type" : "_ZTIb"
    },
    {
     "referenced_type" : "_ZTIRKNSt3__112basic_stringIcNS_11char_traitsIcEENS_9allocatorIcEEEE"
    },
    {
     "referenced_type" : "_ZTIi"
    },
    {
     "referenced_type" : "_ZTIRKNSt3__112basic_stringIcNS_11char_traitsIcEENS_9allocatorIcEEEE"
    }
   ],
   "return_type" : "_ZTIN3ndk13ScopedAStatusE",
   "source_file" : "out/soong/.intermediates/hardware/interfaces/radio/aidl/android.hardware.radio.sim-V1-ndk-source/gen/include/aidl/android/hardware/radio/sim/IRadioSim.h"
  },
  {
   "function_name" : "aidl::android::hardware::radio::sim::IRadioSimDefault::enableUiccApplications",
   "linker_set_key" : "_ZN4aidl7android8hardware5radio3sim16IRadioSimDefault22enableUiccApplicationsEib",
   "parameters" :
   [
    {
     "is_this_ptr" : true,
     "referenced_type" : "_ZTIPN4aidl7android8hardware5radio3sim16IRadioSimDefaultE"
    },
    {
     "referenced_type" : "_ZTIi"
    },
    {
     "referenced_type" : "_ZTIb"
    }
   ],
   "return_type" : "_ZTIN3ndk13ScopedAStatusE",
   "source_file" : "out/soong/.intermediates/hardware/interfaces/radio/aidl/android.hardware.radio.sim-V1-ndk-source/gen/include/aidl/android/hardware/radio/sim/IRadioSim.h"
  },
  {
   "function_name" : "aidl::android::hardware::radio::sim::IRadioSimDefault::getSimPhonebookRecords",
   "linker_set_key" : "_ZN4aidl7android8hardware5radio3sim16IRadioSimDefault22getSimPhonebookRecordsEi",
   "parameters" :
   [
    {
     "is_this_ptr" : true,
     "referenced_type" : "_ZTIPN4aidl7android8hardware5radio3sim16IRadioSimDefaultE"
    },
    {
     "referenced_type" : "_ZTIi"
    }
   ],
   "return_type" : "_ZTIN3ndk13ScopedAStatusE",
   "source_file" : "out/soong/.intermediates/hardware/interfaces/radio/aidl/android.hardware.radio.sim-V1-ndk-source/gen/include/aidl/android/hardware/radio/sim/IRadioSim.h"
  },
  {
   "function_name" : "aidl::android::hardware::radio::sim::IRadioSimDefault::iccCloseLogicalChannel",
   "linker_set_key" : "_ZN4aidl7android8hardware5radio3sim16IRadioSimDefault22iccCloseLogicalChannelEii",
   "parameters" :
   [
    {
     "is_this_ptr" : true,
     "referenced_type" : "_ZTIPN4aidl7android8hardware5radio3sim16IRadioSimDefaultE"
    },
    {
     "referenced_type" : "_ZTIi"
    },
    {
     "referenced_type" : "_ZTIi"
    }
   ],
   "return_type" : "_ZTIN3ndk13ScopedAStatusE",
   "source_file" : "out/soong/.intermediates/hardware/interfaces/radio/aidl/android.hardware.radio.sim-V1-ndk-source/gen/include/aidl/android/hardware/radio/sim/IRadioSim.h"
  },
  {
   "function_name" : "aidl::android::hardware::radio::sim::IRadioSimDefault::sendEnvelopeWithStatus",
   "linker_set_key" : "_ZN4aidl7android8hardware5radio3sim16IRadioSimDefault22sendEnvelopeWithStatusEiRKNSt3__112basic_stringIcNS5_11char_traitsIcEENS5_9allocatorIcEEEE",
   "parameters" :
   [
    {
     "is_this_ptr" : true,
     "referenced_type" : "_ZTIPN4aidl7android8hardware5radio3sim16IRadioSimDefaultE"
    },
    {
     "referenced_type" : "_ZTIi"
    },
    {
     "referenced_type" : "_ZTIRKNSt3__112basic_stringIcNS_11char_traitsIcEENS_9allocatorIcEEEE"
    }
   ],
   "return_type" : "_ZTIN3ndk13ScopedAStatusE",
   "source_file" : "out/soong/.intermediates/hardware/interfaces/radio/aidl/android.hardware.radio.sim-V1-ndk-source/gen/include/aidl/android/hardware/radio/sim/IRadioSim.h"
  },
  {
   "function_name" : "aidl::android::hardware::radio::sim::IRadioSimDefault::getSimPhonebookCapacity",
   "linker_set_key" : "_ZN4aidl7android8hardware5radio3sim16IRadioSimDefault23getSimPhonebookCapacityEi",
   "parameters" :
   [
    {
     "is_this_ptr" : true,
     "referenced_type" : "_ZTIPN4aidl7android8hardware5radio3sim16IRadioSimDefaultE"
    },
    {
     "referenced_type" : "_ZTIi"
    }
   ],
   "return_type" : "_ZTIN3ndk13ScopedAStatusE",
   "source_file" : "out/soong/.intermediates/hardware/interfaces/radio/aidl/android.hardware.radio.sim-V1-ndk-source/gen/include/aidl/android/hardware/radio/sim/IRadioSim.h"
  },
  {
   "function_name" : "aidl::android::hardware::radio::sim::IRadioSimDefault::responseAcknowledgement",
   "linker_set_key" : "_ZN4aidl7android8hardware5radio3sim16IRadioSimDefault23responseAcknowledgementEv",
   "parameters" :
   [
    {
     "is_this_ptr" : true,
     "referenced_type" : "_ZTIPN4aidl7android8hardware5radio3sim16IRadioSimDefaultE"
    }
   ],
   "return_type" : "_ZTIN3ndk13ScopedAStatusE",
   "source_file" : "out/soong/.intermediates/hardware/interfaces/radio/aidl/android.hardware.radio.sim-V1-ndk-source/gen/include/aidl/android/hardware/radio/sim/IRadioSim.h"
  },
  {
   "function_name" : "aidl::android::hardware::radio::sim::IRadioSimDefault::getCdmaSubscriptionSource",
   "linker_set_key" : "_ZN4aidl7android8hardware5radio3sim16IRadioSimDefault25getCdmaSubscriptionSourceEi",
   "parameters" :
   [
    {
     "is_this_ptr" : true,
     "referenced_type" : "_ZTIPN4aidl7android8hardware5radio3sim16IRadioSimDefaultE"
    },
    {
     "referenced_type" : "_ZTIi"
    }
   ],
   "return_type" : "_ZTIN3ndk13ScopedAStatusE",
   "source_file" : "out/soong/.intermediates/hardware/interfaces/radio/aidl/android.hardware.radio.sim-V1-ndk-source/gen/include/aidl/android/hardware/radio/sim/IRadioSim.h"
  },
  {
   "function_name" : "aidl::android::hardware::radio::sim::IRadioSimDefault::reportStkServiceIsRunning",
   "linker_set_key" : "_ZN4aidl7android8hardware5radio3sim16IRadioSimDefault25reportStkServiceIsRunningEi",
   "parameters" :
   [
    {
     "is_this_ptr" : true,
     "referenced_type" : "_ZTIPN4aidl7android8hardware5radio3sim16IRadioSimDefaultE"
    },
    {
     "referenced_type" : "_ZTIi"
    }
   ],
   "return_type" : "_ZTIN3ndk13ScopedAStatusE",
   "source_file" : "out/soong/.intermediates/hardware/interfaces/radio/aidl/android.hardware.radio.sim-V1-ndk-source/gen/include/aidl/android/hardware/radio/sim/IRadioSim.h"
  },
  {
   "function_name" : "aidl::android::hardware::radio::sim::IRadioSimDefault::sendTerminalResponseToSim",
   "linker_set_key" : "_ZN4aidl7android8hardware5radio3sim16IRadioSimDefault25sendTerminalResponseToSimEiRKNSt3__112basic_stringIcNS5_11char_traitsIcEENS5_9allocatorIcEEEE",
   "parameters" :
   [
    {
     "is_this_ptr" : true,
     "referenced_type" : "_ZTIPN4aidl7android8hardware5radio3sim16IRadioSimDefaultE"
    },
    {
     "referenced_type" : "_ZTIi"
    },
    {
     "referenced_type" : "_ZTIRKNSt3__112basic_stringIcNS_11char_traitsIcEENS_9allocatorIcEEEE"
    }
   ],
   "return_type" : "_ZTIN3ndk13ScopedAStatusE",
   "source_file" : "out/soong/.intermediates/hardware/interfaces/radio/aidl/android.hardware.radio.sim-V1-ndk-source/gen/include/aidl/android/hardware/radio/sim/IRadioSim.h"
  },
  {
   "function_name" : "aidl::android::hardware::radio::sim::IRadioSimDefault::setCdmaSubscriptionSource",
   "linker_set_key" : "_ZN4aidl7android8hardware5radio3sim16IRadioSimDefault25setCdmaSubscriptionSourceEiNS3_22CdmaSubscriptionSourceE",
   "parameters" :
   [
    {
     "is_this_ptr" : true,
     "referenced_type" : "_ZTIPN4aidl7android8hardware5radio3sim16IRadioSimDefaultE"
    },
    {
     "referenced_type" : "_ZTIi"
    },
    {
     "referenced_type" : "_ZTIN4aidl7android8hardware5radio3sim22CdmaSubscriptionSourceE"
    }
   ],
   "return_type" : "_ZTIN3ndk13ScopedAStatusE",
   "source_file" : "out/soong/.intermediates/hardware/interfaces/radio/aidl/android.hardware.radio.sim-V1-ndk-source/gen/include/aidl/android/hardware/radio/sim/IRadioSim.h"
  },
  {
   "function_name" : "aidl::android::hardware::radio::sim::IRadioSimDefault::updateSimPhonebookRecords",
   "linker_set_key" : "_ZN4aidl7android8hardware5radio3sim16IRadioSimDefault25updateSimPhonebookRecordsEiRKNS3_19PhonebookRecordInfoE",
   "parameters" :
   [
    {
     "is_this_ptr" : true,
     "referenced_type" : "_ZTIPN4aidl7android8hardware5radio3sim16IRadioSimDefaultE"
    },
    {
     "referenced_type" : "_ZTIi"
    },
    {
     "referenced_type" : "_ZTIRKN4aidl7android8hardware5radio3sim19PhonebookRecordInfoE"
    }
   ],
   "return_type" : "_ZTIN3ndk13ScopedAStatusE",
   "source_file" : "out/soong/.intermediates/hardware/interfaces/radio/aidl/android.hardware.radio.sim-V1-ndk-source/gen/include/aidl/android/hardware/radio/sim/IRadioSim.h"
  },
  {
   "function_name" : "aidl::android::hardware::radio::sim::IRadioSimDefault::areUiccApplicationsEnabled",
   "linker_set_key" : "_ZN4aidl7android8hardware5radio3sim16IRadioSimDefault26areUiccApplicationsEnabledEi",
   "parameters" :
   [
    {
     "is_this_ptr" : true,
     "referenced_type" : "_ZTIPN4aidl7android8hardware5radio3sim16IRadioSimDefaultE"
    },
    {
     "referenced_type" : "_ZTIi"
    }
   ],
   "return_type" : "_ZTIN3ndk13ScopedAStatusE",
   "source_file" : "out/soong/.intermediates/hardware/interfaces/radio/aidl/android.hardware.radio.sim-V1-ndk-source/gen/include/aidl/android/hardware/radio/sim/IRadioSim.h"
  },
  {
   "function_name" : "aidl::android::hardware::radio::sim::IRadioSimDefault::supplySimDepersonalization",
   "linker_set_key" : "_ZN4aidl7android8hardware5radio3sim16IRadioSimDefault26supplySimDepersonalizationEiNS3_13PersoSubstateERKNSt3__112basic_stringIcNS6_11char_traitsIcEENS6_9allocatorIcEEEE",
   "parameters" :
   [
    {
     "is_this_ptr" : true,
     "referenced_type" : "_ZTIPN4aidl7android8hardware5radio3sim16IRadioSimDefaultE"
    },
    {
     "referenced_type" : "_ZTIi"
    },
    {
     "referenced_type" : "_ZTIN4aidl7android8hardware5radio3sim13PersoSubstateE"
    },
    {
     "referenced_type" : "_ZTIRKNSt3__112basic_stringIcNS_11char_traitsIcEENS_9allocatorIcEEEE"
    }
   ],
   "return_type" : "_ZTIN3ndk13ScopedAStatusE",
   "source_file" : "out/soong/.intermediates/hardware/interfaces/radio/aidl/android.hardware.radio.sim-V1-ndk-source/gen/include/aidl/android/hardware/radio/sim/IRadioSim.h"
  },
  {
   "function_name" : "aidl::android::hardware::radio::sim::IRadioSimDefault::iccTransmitApduBasicChannel",
   "linker_set_key" : "_ZN4aidl7android8hardware5radio3sim16IRadioSimDefault27iccTransmitApduBasicChannelEiRKNS3_7SimApduE",
   "parameters" :
   [
    {
     "is_this_ptr" : true,
     "referenced_type" : "_ZTIPN4aidl7android8hardware5radio3sim16IRadioSimDefaultE"
    },
    {
     "referenced_type" : "_ZTIi"
    },
    {
     "referenced_type" : "_ZTIRKN4aidl7android8hardware5radio3sim7SimApduE"
    }
   ],
   "return_type" : "_ZTIN3ndk13ScopedAStatusE",
   "source_file" : "out/soong/.intermediates/hardware/interfaces/radio/aidl/android.hardware.radio.sim-V1-ndk-source/gen/include/aidl/android/hardware/radio/sim/IRadioSim.h"
  },
  {
   "function_name" : "aidl::android::hardware::radio::sim::IRadioSimDefault::requestIccSimAuthentication",
   "linker_set_key" : "_ZN4aidl7android8hardware5radio3sim16IRadioSimDefault27requestIccSimAuthenticationEiiRKNSt3__112basic_stringIcNS5_11char_traitsIcEENS5_9allocatorIcEEEESD_",
   "parameters" :
   [
    {
     "is_this_ptr" : true,
     "referenced_type" : "_ZTIPN4aidl7android8hardware5radio3sim16IRadioSimDefaultE"
    },
    {
     "referenced_type" : "_ZTIi"
    },
    {
     "referenced_type" : "_ZTIi"
    },
    {
     "referenced_type" : "_ZTIRKNSt3__112basic_stringIcNS_11char_traitsIcEENS_9allocatorIcEEEE"
    },
    {
     "referenced_type" : "_ZTIRKNSt3__112basic_stringIcNS_11char_traitsIcEENS_9allocatorIcEEEE"
    }
   ],
   "return_type" : "_ZTIN3ndk13ScopedAStatusE",
   "source_file" : "out/soong/.intermediates/hardware/interfaces/radio/aidl/android.hardware.radio.sim-V1-ndk-source/gen/include/aidl/android/hardware/radio/sim/IRadioSim.h"
  },
  {
   "function_name" : "aidl::android::hardware::radio::sim::IRadioSimDefault::iccTransmitApduLogicalChannel",
   "linker_set_key" : "_ZN4aidl7android8hardware5radio3sim16IRadioSimDefault29iccTransmitApduLogicalChannelEiRKNS3_7SimApduE",
   "parameters" :
   [
    {
     "is_this_ptr" : true,
     "referenced_type" : "_ZTIPN4aidl7android8hardware5radio3sim16IRadioSimDefaultE"
    },
    {
     "referenced_type" : "_ZTIi"
    },
    {
     "referenced_type" : "_ZTIRKN4aidl7android8hardware5radio3sim7SimApduE"
    }
   ],
   "return_type" : "_ZTIN3ndk13ScopedAStatusE",
   "source_file" : "out/soong/.intermediates/hardware/interfaces/radio/aidl/android.hardware.radio.sim-V1-ndk-source/gen/include/aidl/android/hardware/radio/sim/IRadioSim.h"
  },
  {
   "function_name" : "aidl::android::hardware::radio::sim::IRadioSimDefault::setCarrierInfoForImsiEncryption",
   "linker_set_key" : "_ZN4aidl7android8hardware5radio3sim16IRadioSimDefault31setCarrierInfoForImsiEncryptionEiRKNS3_18ImsiEncryptionInfoE",
   "parameters" :
   [
    {
     "is_this_ptr" : true,
     "referenced_type" : "_ZTIPN4aidl7android8hardware5radio3sim16IRadioSimDefaultE"
    },
    {
     "referenced_type" : "_ZTIi"
    },
    {
     "referenced_type" : "_ZTIRKN4aidl7android8hardware5radio3sim18ImsiEncryptionInfoE"
    }
   ],
   "return_type" : "_ZTIN3ndk13ScopedAStatusE",
   "source_file" : "out/soong/.intermediates/hardware/interfaces/radio/aidl/android.hardware.radio.sim-V1-ndk-source/gen/include/aidl/android/hardware/radio/sim/IRadioSim.h"
  },
  {
   "function_name" : "aidl::android::hardware::radio::sim::IRadioSimDefault::asBinder",
   "linker_set_key" : "_ZN4aidl7android8hardware5radio3sim16IRadioSimDefault8asBinderEv",
   "parameters" :
   [
    {
     "is_this_ptr" : true,
     "referenced_type" : "_ZTIPN4aidl7android8hardware5radio3sim16IRadioSimDefaultE"
    }
   ],
   "return_type" : "_ZTIN3ndk10SpAIBinderE",
   "source_file" : "out/soong/.intermediates/hardware/interfaces/radio/aidl/android.hardware.radio.sim-V1-ndk-source/gen/include/aidl/android/hardware/radio/sim/IRadioSim.h"
  },
  {
   "function_name" : "aidl::android::hardware::radio::sim::IRadioSimDefault::isRemote",
   "linker_set_key" : "_ZN4aidl7android8hardware5radio3sim16IRadioSimDefault8isRemoteEv",
   "parameters" :
   [
    {
     "is_this_ptr" : true,
     "referenced_type" : "_ZTIPN4aidl7android8hardware5radio3sim16IRadioSimDefaultE"
    }
   ],
   "return_type" : "_ZTIb",
   "source_file" : "out/soong/.intermediates/hardware/interfaces/radio/aidl/android.hardware.radio.sim-V1-ndk-source/gen/include/aidl/android/hardware/radio/sim/IRadioSim.h"
  },
  {
   "function_name" : "aidl::android::hardware::radio::sim::SimRefreshResult::readFromParcel",
   "linker_set_key" : "_ZN4aidl7android8hardware5radio3sim16SimRefreshResult14readFromParcelEPK7AParcel",
   "parameters" :
   [
    {
     "is_this_ptr" : true,
     "referenced_type" : "_ZTIPN4aidl7android8hardware5radio3sim16SimRefreshResultE"
    },
    {
     "referenced_type" : "_ZTIPK7AParcel"
    }
   ],
   "return_type" : "_ZTIi",
   "source_file" : "out/soong/.intermediates/hardware/interfaces/radio/aidl/android.hardware.radio.sim-V1-ndk-source/gen/include/aidl/android/hardware/radio/sim/SimRefreshResult.h"
  },
  {
   "function_name" : "aidl::android::hardware::radio::sim::IRadioSimResponse::fromBinder",
   "linker_set_key" : "_ZN4aidl7android8hardware5radio3sim17IRadioSimResponse10fromBinderERKN3ndk10SpAIBinderE",
   "parameters" :
   [
    {
     "referenced_type" : "_ZTIRKN3ndk10SpAIBinderE"
    }
   ],
   "return_type" : "_ZTINSt3__110shared_ptrIN4aidl7android8hardware5radio3sim17IRadioSimResponseEEE",
   "source_file" : "out/soong/.intermediates/hardware/interfaces/radio/aidl/android.hardware.radio.sim-V1-ndk-source/gen/include/aidl/android/hardware/radio/sim/IRadioSimResponse.h"
  },
  {
   "function_name" : "aidl::android::hardware::radio::sim::IRadioSimResponse::writeToParcel",
   "linker_set_key" : "_ZN4aidl7android8hardware5radio3sim17IRadioSimResponse13writeToParcelEP7AParcelRKNSt3__110shared_ptrIS4_EE",
   "parameters" :
   [
    {
     "referenced_type" : "_ZTIP7AParcel"
    },
    {
     "referenced_type" : "_ZTIRKNSt3__110shared_ptrIN4aidl7android8hardware5radio3sim17IRadioSimResponseEEE"
    }
   ],
   "return_type" : "_ZTIi",
   "source_file" : "out/soong/.intermediates/hardware/interfaces/radio/aidl/android.hardware.radio.sim-V1-ndk-source/gen/include/aidl/android/hardware/radio/sim/IRadioSimResponse.h"
  },
  {
   "function_name" : "aidl::android::hardware::radio::sim::IRadioSimResponse::getDefaultImpl",
   "linker_set_key" : "_ZN4aidl7android8hardware5radio3sim17IRadioSimResponse14getDefaultImplEv",
   "return_type" : "_ZTIRKNSt3__110shared_ptrIN4aidl7android8hardware5radio3sim17IRadioSimResponseEEE",
   "source_file" : "out/soong/.intermediates/hardware/interfaces/radio/aidl/android.hardware.radio.sim-V1-ndk-source/gen/include/aidl/android/hardware/radio/sim/IRadioSimResponse.h"
  },
  {
   "function_name" : "aidl::android::hardware::radio::sim::IRadioSimResponse::readFromParcel",
   "linker_set_key" : "_ZN4aidl7android8hardware5radio3sim17IRadioSimResponse14readFromParcelEPK7AParcelPNSt3__110shared_ptrIS4_EE",
   "parameters" :
   [
    {
     "referenced_type" : "_ZTIPK7AParcel"
    },
    {
     "referenced_type" : "_ZTIPNSt3__110shared_ptrIN4aidl7android8hardware5radio3sim17IRadioSimResponseEEE"
    }
   ],
   "return_type" : "_ZTIi",
   "source_file" : "out/soong/.intermediates/hardware/interfaces/radio/aidl/android.hardware.radio.sim-V1-ndk-source/gen/include/aidl/android/hardware/radio/sim/IRadioSimResponse.h"
  },
  {
   "function_name" : "aidl::android::hardware::radio::sim::IRadioSimResponse::setDefaultImpl",
   "linker_set_key" : "_ZN4aidl7android8hardware5radio3sim17IRadioSimResponse14setDefaultImplERKNSt3__110shared_ptrIS4_EE",
   "parameters" :
   [
    {
     "referenced_type" : "_ZTIRKNSt3__110shared_ptrIN4aidl7android8hardware5radio3sim17IRadioSimResponseEEE"
    }
   ],
   "return_type" : "_ZTIb",
   "source_file" : "out/soong/.intermediates/hardware/interfaces/radio/aidl/android.hardware.radio.sim-V1-ndk-source/gen/include/aidl/android/hardware/radio/sim/IRadioSimResponse.h"
  },
  {
   "function_name" : "aidl::android::hardware::radio::sim::IRadioSimResponse::IRadioSimResponse",
   "linker_set_key" : "_ZN4aidl7android8hardware5radio3sim17IRadioSimResponseC2Ev",
   "parameters" :
   [
    {
     "is_this_ptr" : true,
     "referenced_type" : "_ZTIPN4aidl7android8hardware5radio3sim17IRadioSimResponseE"
    }
   ],
   "return_type" : "_ZTIv",
   "source_file" : "out/soong/.intermediates/hardware/interfaces/radio/aidl/android.hardware.radio.sim-V1-ndk-source/gen/include/aidl/android/hardware/radio/sim/IRadioSimResponse.h"
  },
  {
   "function_name" : "aidl::android::hardware::radio::sim::IRadioSimResponse::~IRadioSimResponse",
   "linker_set_key" : "_ZN4aidl7android8hardware5radio3sim17IRadioSimResponseD0Ev",
   "parameters" :
   [
    {
     "is_this_ptr" : true,
     "referenced_type" : "_ZTIPN4aidl7android8hardware5radio3sim17IRadioSimResponseE"
    }
   ],
   "return_type" : "_ZTIv",
   "source_file" : "out/soong/.intermediates/hardware/interfaces/radio/aidl/android.hardware.radio.sim-V1-ndk-source/gen/include/aidl/android/hardware/radio/sim/IRadioSimResponse.h"
  },
  {
   "function_name" : "aidl::android::hardware::radio::sim::IRadioSimResponse::~IRadioSimResponse",
   "linker_set_key" : "_ZN4aidl7android8hardware5radio3sim17IRadioSimResponseD1Ev",
   "parameters" :
   [
    {
     "is_this_ptr" : true,
     "referenced_type" : "_ZTIPN4aidl7android8hardware5radio3sim17IRadioSimResponseE"
    }
   ],
   "return_type" : "_ZTIv",
   "source_file" : "out/soong/.intermediates/hardware/interfaces/radio/aidl/android.hardware.radio.sim-V1-ndk-source/gen/include/aidl/android/hardware/radio/sim/IRadioSimResponse.h"
  },
  {
   "function_name" : "aidl::android::hardware::radio::sim::IRadioSimResponse::~IRadioSimResponse",
   "linker_set_key" : "_ZN4aidl7android8hardware5radio3sim17IRadioSimResponseD2Ev",
   "parameters" :
   [
    {
     "is_this_ptr" : true,
     "referenced_type" : "_ZTIPN4aidl7android8hardware5radio3sim17IRadioSimResponseE"
    }
   ],
   "return_type" : "_ZTIv",
   "source_file" : "out/soong/.intermediates/hardware/interfaces/radio/aidl/android.hardware.radio.sim-V1-ndk-source/gen/include/aidl/android/hardware/radio/sim/IRadioSimResponse.h"
  },
  {
   "function_name" : "aidl::android::hardware::radio::sim::PhonebookCapacity::readFromParcel",
   "linker_set_key" : "_ZN4aidl7android8hardware5radio3sim17PhonebookCapacity14readFromParcelEPK7AParcel",
   "parameters" :
   [
    {
     "is_this_ptr" : true,
     "referenced_type" : "_ZTIPN4aidl7android8hardware5radio3sim17PhonebookCapacityE"
    },
    {
     "referenced_type" : "_ZTIPK7AParcel"
    }
   ],
   "return_type" : "_ZTIi",
   "source_file" : "out/soong/.intermediates/hardware/interfaces/radio/aidl/android.hardware.radio.sim-V1-ndk-source/gen/include/aidl/android/hardware/radio/sim/PhonebookCapacity.h"
  },
  {
   "access" : "protected",
   "function_name" : "aidl::android::hardware::radio::sim::BnRadioSimResponse::createBinder",
   "linker_set_key" : "_ZN4aidl7android8hardware5radio3sim18BnRadioSimResponse12createBinderEv",
   "parameters" :
   [
    {
     "is_this_ptr" : true,
     "referenced_type" : "_ZTIPN4aidl7android8hardware5radio3sim18BnRadioSimResponseE"
    }
   ],
   "return_type" : "_ZTIN3ndk10SpAIBinderE",
   "source_file" : "out/soong/.intermediates/hardware/interfaces/radio/aidl/android.hardware.radio.sim-V1-ndk-source/gen/include/aidl/android/hardware/radio/sim/BnRadioSimResponse.h"
  },
  {
   "function_name" : "aidl::android::hardware::radio::sim::BnRadioSimResponse::getInterfaceHash",
   "linker_set_key" : "_ZN4aidl7android8hardware5radio3sim18BnRadioSimResponse16getInterfaceHashEPNSt3__112basic_stringIcNS5_11char_traitsIcEENS5_9allocatorIcEEEE",
   "parameters" :
   [
    {
     "is_this_ptr" : true,
     "referenced_type" : "_ZTIPN4aidl7android8hardware5radio3sim18BnRadioSimResponseE"
    },
    {
     "referenced_type" : "_ZTIPNSt3__112basic_stringIcNS_11char_traitsIcEENS_9allocatorIcEEEE"
    }
   ],
   "return_type" : "_ZTIN3ndk13ScopedAStatusE",
   "source_file" : "out/soong/.intermediates/hardware/interfaces/radio/aidl/android.hardware.radio.sim-V1-ndk-source/gen/include/aidl/android/hardware/radio/sim/BnRadioSimResponse.h"
  },
  {
   "function_name" : "aidl::android::hardware::radio::sim::BnRadioSimResponse::getInterfaceVersion",
   "linker_set_key" : "_ZN4aidl7android8hardware5radio3sim18BnRadioSimResponse19getInterfaceVersionEPi",
   "parameters" :
   [
    {
     "is_this_ptr" : true,
     "referenced_type" : "_ZTIPN4aidl7android8hardware5radio3sim18BnRadioSimResponseE"
    },
    {
     "referenced_type" : "_ZTIPi"
    }
   ],
   "return_type" : "_ZTIN3ndk13ScopedAStatusE",
   "source_file" : "out/soong/.intermediates/hardware/interfaces/radio/aidl/android.hardware.radio.sim-V1-ndk-source/gen/include/aidl/android/hardware/radio/sim/BnRadioSimResponse.h"
  },
  {
   "function_name" : "aidl::android::hardware::radio::sim::BnRadioSimResponse::BnRadioSimResponse",
   "linker_set_key" : "_ZN4aidl7android8hardware5radio3sim18BnRadioSimResponseC2Ev",
   "parameters" :
   [
    {
     "is_this_ptr" : true,
     "referenced_type" : "_ZTIPN4aidl7android8hardware5radio3sim18BnRadioSimResponseE"
    }
   ],
   "return_type" : "_ZTIv",
   "source_file" : "out/soong/.intermediates/hardware/interfaces/radio/aidl/android.hardware.radio.sim-V1-ndk-source/gen/include/aidl/android/hardware/radio/sim/BnRadioSimResponse.h"
  },
  {
   "function_name" : "aidl::android::hardware::radio::sim::BnRadioSimResponse::~BnRadioSimResponse",
   "linker_set_key" : "_ZN4aidl7android8hardware5radio3sim18BnRadioSimResponseD0Ev",
   "parameters" :
   [
    {
     "is_this_ptr" : true,
     "referenced_type" : "_ZTIPN4aidl7android8hardware5radio3sim18BnRadioSimResponseE"
    }
   ],
   "return_type" : "_ZTIv",
   "source_file" : "out/soong/.intermediates/hardware/interfaces/radio/aidl/android.hardware.radio.sim-V1-ndk-source/gen/include/aidl/android/hardware/radio/sim/BnRadioSimResponse.h"
  },
  {
   "function_name" : "aidl::android::hardware::radio::sim::BnRadioSimResponse::~BnRadioSimResponse",
   "linker_set_key" : "_ZN4aidl7android8hardware5radio3sim18BnRadioSimResponseD1Ev",
   "parameters" :
   [
    {
     "is_this_ptr" : true,
     "referenced_type" : "_ZTIPN4aidl7android8hardware5radio3sim18BnRadioSimResponseE"
    }
   ],
   "return_type" : "_ZTIv",
   "source_file" : "out/soong/.intermediates/hardware/interfaces/radio/aidl/android.hardware.radio.sim-V1-ndk-source/gen/include/aidl/android/hardware/radio/sim/BnRadioSimResponse.h"
  },
  {
   "function_name" : "aidl::android::hardware::radio::sim::BnRadioSimResponse::~BnRadioSimResponse",
   "linker_set_key" : "_ZN4aidl7android8hardware5radio3sim18BnRadioSimResponseD2Ev",
   "parameters" :
   [
    {
     "is_this_ptr" : true,
     "referenced_type" : "_ZTIPN4aidl7android8hardware5radio3sim18BnRadioSimResponseE"
    }
   ],
   "return_type" : "_ZTIv",
   "source_file" : "out/soong/.intermediates/hardware/interfaces/radio/aidl/android.hardware.radio.sim-V1-ndk-source/gen/include/aidl/android/hardware/radio/sim/BnRadioSimResponse.h"
  },
  {
   "function_name" : "aidl::android::hardware::radio::sim::BpRadioSimResponse::getInterfaceHash",
   "linker_set_key" : "_ZN4aidl7android8hardware5radio3sim18BpRadioSimResponse16getInterfaceHashEPNSt3__112basic_stringIcNS5_11char_traitsIcEENS5_9allocatorIcEEEE",
   "parameters" :
   [
    {
     "is_this_ptr" : true,
     "referenced_type" : "_ZTIPN4aidl7android8hardware5radio3sim18BpRadioSimResponseE"
    },
    {
     "referenced_type" : "_ZTIPNSt3__112basic_stringIcNS_11char_traitsIcEENS_9allocatorIcEEEE"
    }
   ],
   "return_type" : "_ZTIN3ndk13ScopedAStatusE",
   "source_file" : "out/soong/.intermediates/hardware/interfaces/radio/aidl/android.hardware.radio.sim-V1-ndk-source/gen/include/aidl/android/hardware/radio/sim/BpRadioSimResponse.h"
  },
  {
   "function_name" : "aidl::android::hardware::radio::sim::BpRadioSimResponse::acknowledgeRequest",
   "linker_set_key" : "_ZN4aidl7android8hardware5radio3sim18BpRadioSimResponse18acknowledgeRequestEi",
   "parameters" :
   [
    {
     "is_this_ptr" : true,
     "referenced_type" : "_ZTIPN4aidl7android8hardware5radio3sim18BpRadioSimResponseE"
    },
    {
     "referenced_type" : "_ZTIi"
    }
   ],
   "return_type" : "_ZTIN3ndk13ScopedAStatusE",
   "source_file" : "out/soong/.intermediates/hardware/interfaces/radio/aidl/android.hardware.radio.sim-V1-ndk-source/gen/include/aidl/android/hardware/radio/sim/BpRadioSimResponse.h"
  },
  {
   "function_name" : "aidl::android::hardware::radio::sim::BpRadioSimResponse::getInterfaceVersion",
   "linker_set_key" : "_ZN4aidl7android8hardware5radio3sim18BpRadioSimResponse19getInterfaceVersionEPi",
   "parameters" :
   [
    {
     "is_this_ptr" : true,
     "referenced_type" : "_ZTIPN4aidl7android8hardware5radio3sim18BpRadioSimResponseE"
    },
    {
     "referenced_type" : "_ZTIPi"
    }
   ],
   "return_type" : "_ZTIN3ndk13ScopedAStatusE",
   "source_file" : "out/soong/.intermediates/hardware/interfaces/radio/aidl/android.hardware.radio.sim-V1-ndk-source/gen/include/aidl/android/hardware/radio/sim/BpRadioSimResponse.h"
  },
  {
   "function_name" : "aidl::android::hardware::radio::sim::BpRadioSimResponse::iccIoForAppResponse",
   "linker_set_key" : "_ZN4aidl7android8hardware5radio3sim18BpRadioSimResponse19iccIoForAppResponseERKNS2_17RadioResponseInfoERKNS3_11IccIoResultE",
   "parameters" :
   [
    {
     "is_this_ptr" : true,
     "referenced_type" : "_ZTIPN4aidl7android8hardware5radio3sim18BpRadioSimResponseE"
    },
    {
     "referenced_type" : "_ZTIRKN4aidl7android8hardware5radio17RadioResponseInfoE"
    },
    {
     "referenced_type" : "_ZTIRKN4aidl7android8hardware5radio3sim11IccIoResultE"
    }
   ],
   "return_type" : "_ZTIN3ndk13ScopedAStatusE",
   "source_file" : "out/soong/.intermediates/hardware/interfaces/radio/aidl/android.hardware.radio.sim-V1-ndk-source/gen/include/aidl/android/hardware/radio/sim/BpRadioSimResponse.h"
  },
  {
   "function_name" : "aidl::android::hardware::radio::sim::BpRadioSimResponse::sendEnvelopeResponse",
   "linker_set_key" : "_ZN4aidl7android8hardware5radio3sim18BpRadioSimResponse20sendEnvelopeResponseERKNS2_17RadioResponseInfoERKNSt3__112basic_stringIcNS8_11char_traitsIcEENS8_9allocatorIcEEEE",
   "parameters" :
   [
    {
     "is_this_ptr" : true,
     "referenced_type" : "_ZTIPN4aidl7android8hardware5radio3sim18BpRadioSimResponseE"
    },
    {
     "referenced_type" : "_ZTIRKN4aidl7android8hardware5radio17RadioResponseInfoE"
    },
    {
     "referenced_type" : "_ZTIRKNSt3__112basic_stringIcNS_11char_traitsIcEENS_9allocatorIcEEEE"
    }
   ],
   "return_type" : "_ZTIN3ndk13ScopedAStatusE",
   "source_file" : "out/soong/.intermediates/hardware/interfaces/radio/aidl/android.hardware.radio.sim-V1-ndk-source/gen/include/aidl/android/hardware/radio/sim/BpRadioSimResponse.h"
  },
  {
   "function_name" : "aidl::android::hardware::radio::sim::BpRadioSimResponse::getImsiForAppResponse",
   "linker_set_key" : "_ZN4aidl7android8hardware5radio3sim18BpRadioSimResponse21getImsiForAppResponseERKNS2_17RadioResponseInfoERKNSt3__112basic_stringIcNS8_11char_traitsIcEENS8_9allocatorIcEEEE",
   "parameters" :
   [
    {
     "is_this_ptr" : true,
     "referenced_type" : "_ZTIPN4aidl7android8hardware5radio3sim18BpRadioSimResponseE"
    },
    {
     "referenced_type" : "_ZTIRKN4aidl7android8hardware5radio17RadioResponseInfoE"
    },
    {
     "referenced_type" : "_ZTIRKNSt3__112basic_stringIcNS_11char_traitsIcEENS_9allocatorIcEEEE"
    }
   ],
   "return_type" : "_ZTIN3ndk13ScopedAStatusE",
   "source_file" : "out/soong/.intermediates/hardware/interfaces/radio/aidl/android.hardware.radio.sim-V1-ndk-source/gen/include/aidl/android/hardware/radio/sim/BpRadioSimResponse.h"
  },
  {
   "function_name" : "aidl::android::hardware::radio::sim::BpRadioSimResponse::setSimCardPowerResponse",
   "linker_set_key" : "_ZN4aidl7android8hardware5radio3sim18BpRadioSimResponse23setSimCardPowerResponseERKNS2_17RadioResponseInfoE",
   "parameters" :
   [
    {
     "is_this_ptr" : true,
     "referenced_type" : "_ZTIPN4aidl7android8hardware5radio3sim18BpRadioSimResponseE"
    },
    {
     "referenced_type" : "_ZTIRKN4aidl7android8hardware5radio17RadioResponseInfoE"
    }
   ],
   "return_type" : "_ZTIN3ndk13ScopedAStatusE",
   "source_file" : "out/soong/.intermediates/hardware/interfaces/radio/aidl/android.hardware.radio.sim-V1-ndk-source/gen/include/aidl/android/hardware/radio/sim/BpRadioSimResponse.h"
  },
  {
   "function_name" : "aidl::android::hardware::radio::sim::BpRadioSimResponse::getIccCardStatusResponse",
   "linker_set_key" : "_ZN4aidl7android8hardware5radio3sim18BpRadioSimResponse24getIccCardStatusResponseERKNS2_17RadioResponseInfoERKNS3_10CardStatusE",
   "parameters" :
   [
    {
     "is_this_ptr" : true,
     "referenced_type" : "_ZTIPN4aidl7android8hardware5radio3sim18BpRadioSimResponseE"
    },
    {
     "referenced_type" : "_ZTIRKN4aidl7android8hardware5radio17RadioResponseInfoE"
    },
    {
     "referenced_type" : "_ZTIRKN4aidl7android8hardware5radio3sim10CardStatusE"
    }
   ],
   "return_type" : "_ZTIN3ndk13ScopedAStatusE",
   "source_file" : "out/soong/.intermediates/hardware/interfaces/radio/aidl/android.hardware.radio.sim-V1-ndk-source/gen/include/aidl/android/hardware/radio/sim/BpRadioSimResponse.h"
  },
  {
   "function_name" : "aidl::android::hardware::radio::sim::BpRadioSimResponse::changeIccPinForAppResponse",
   "linker_set_key" : "_ZN4aidl7android8hardware5radio3sim18BpRadioSimResponse26changeIccPinForAppResponseERKNS2_17RadioResponseInfoEi",
   "parameters" :
   [
    {
     "is_this_ptr" : true,
     "referenced_type" : "_ZTIPN4aidl7android8hardware5radio3sim18BpRadioSimResponseE"
    },
    {
     "referenced_type" : "_ZTIRKN4aidl7android8hardware5radio17RadioResponseInfoE"
    },
    {
     "referenced_type" : "_ZTIi"
    }
   ],
   "return_type" : "_ZTIN3ndk13ScopedAStatusE",
   "source_file" : "out/soong/.intermediates/hardware/interfaces/radio/aidl/android.hardware.radio.sim-V1-ndk-source/gen/include/aidl/android/hardware/radio/sim/BpRadioSimResponse.h"
  },
  {
   "function_name" : "aidl::android::hardware::radio::sim::BpRadioSimResponse::getAllowedCarriersResponse",
   "linker_set_key" : "_ZN4aidl7android8hardware5radio3sim18BpRadioSimResponse26getAllowedCarriersResponseERKNS2_17RadioResponseInfoERKNS3_19CarrierRestrictionsENS3_21SimLockMultiSimPolicyE",
   "parameters" :
   [
    {
     "is_this_ptr" : true,
     "referenced_type" : "_ZTIPN4aidl7android8hardware5radio3sim18BpRadioSimResponseE"
    },
    {
     "referenced_type" : "_ZTIRKN4aidl7android8hardware5radio17RadioResponseInfoE"
    },
    {
     "referenced_type" : "_ZTIRKN4aidl7android8hardware5radio3sim19CarrierRestrictionsE"
    },
    {
     "referenced_type" : "_ZTIN4aidl7android8hardware5radio3sim21SimLockMultiSimPolicyE"
    }
   ],
   "return_type" : "_ZTIN3ndk13ScopedAStatusE",
   "source_file" : "out/soong/.intermediates/hardware/interfaces/radio/aidl/android.hardware.radio.sim-V1-ndk-source/gen/include/aidl/android/hardware/radio/sim/BpRadioSimResponse.h"
  },
  {
   "function_name" : "aidl::android::hardware::radio::sim::BpRadioSimResponse::setAllowedCarriersResponse",
   "linker_set_key" : "_ZN4aidl7android8hardware5radio3sim18BpRadioSimResponse26setAllowedCarriersResponseERKNS2_17RadioResponseInfoE",
   "parameters" :
   [
    {
     "is_this_ptr" : true,
     "referenced_type" : "_ZTIPN4aidl7android8hardware5radio3sim18BpRadioSimResponseE"
    },
    {
     "referenced_type" : "_ZTIRKN4aidl7android8hardware5radio17RadioResponseInfoE"
    }
   ],
   "return_type" : "_ZTIN3ndk13ScopedAStatusE",
   "source_file" : "out/soong/.intermediates/hardware/interfaces/radio/aidl/android.hardware.radio.sim-V1-ndk-source/gen/include/aidl/android/hardware/radio/sim/BpRadioSimResponse.h"
  },
  {
   "function_name" : "aidl::android::hardware::radio::sim::BpRadioSimResponse::supplyIccPinForAppResponse",
   "linker_set_key" : "_ZN4aidl7android8hardware5radio3sim18BpRadioSimResponse26supplyIccPinForAppResponseERKNS2_17RadioResponseInfoEi",
   "parameters" :
   [
    {
     "is_this_ptr" : true,
     "referenced_type" : "_ZTIPN4aidl7android8hardware5radio3sim18BpRadioSimResponseE"
    },
    {
     "referenced_type" : "_ZTIRKN4aidl7android8hardware5radio17RadioResponseInfoE"
    },
    {
     "referenced_type" : "_ZTIi"
    }
   ],
   "return_type" : "_ZTIN3ndk13ScopedAStatusE",
   "source_file" : "out/soong/.intermediates/hardware/interfaces/radio/aidl/android.hardware.radio.sim-V1-ndk-source/gen/include/aidl/android/hardware/radio/sim/BpRadioSimResponse.h"
  },
  {
   "function_name" : "aidl::android::hardware::radio::sim::BpRadioSimResponse::supplyIccPukForAppResponse",
   "linker_set_key" : "_ZN4aidl7android8hardware5radio3sim18BpRadioSimResponse26supplyIccPukForAppResponseERKNS2_17RadioResponseInfoEi",
   "parameters" :
   [
    {
     "is_this_ptr" : true,
     "referenced_type" : "_ZTIPN4aidl7android8hardware5radio3sim18BpRadioSimResponseE"
    },
    {
     "referenced_type" : "_ZTIRKN4aidl7android8hardware5radio17RadioResponseInfoE"
    },
    {
     "referenced_type" : "_ZTIi"
    }
   ],
   "return_type" : "_ZTIN3ndk13ScopedAStatusE",
   "source_file" : "out/soong/.intermediates/hardware/interfaces/radio/aidl/android.hardware.radio.sim-V1-ndk-source/gen/include/aidl/android/hardware/radio/sim/BpRadioSimResponse.h"
  },
  {
   "function_name" : "aidl::android::hardware::radio::sim::BpRadioSimResponse::changeIccPin2ForAppResponse",
   "linker_set_key" : "_ZN4aidl7android8hardware5radio3sim18BpRadioSimResponse27changeIccPin2ForAppResponseERKNS2_17RadioResponseInfoEi",
   "parameters" :
   [
    {
     "is_this_ptr" : true,
     "referenced_type" : "_ZTIPN4aidl7android8hardware5radio3sim18BpRadioSimResponseE"
    },
    {
     "referenced_type" : "_ZTIRKN4aidl7android8hardware5radio17RadioResponseInfoE"
    },
    {
     "referenced_type" : "_ZTIi"
    }
   ],
   "return_type" : "_ZTIN3ndk13ScopedAStatusE",
   "source_file" : "out/soong/.intermediates/hardware/interfaces/radio/aidl/android.hardware.radio.sim-V1-ndk-source/gen/include/aidl/android/hardware/radio/sim/BpRadioSimResponse.h"
  },
  {
   "function_name" : "aidl::android::hardware::radio::sim::BpRadioSimResponse::getCdmaSubscriptionResponse",
   "linker_set_key" : "_ZN4aidl7android8hardware5radio3sim18BpRadioSimResponse27getCdmaSubscriptionResponseERKNS2_17RadioResponseInfoERKNSt3__112basic_stringIcNS8_11char_traitsIcEENS8_9allocatorIcEEEESG_SG_SG_SG_",
   "parameters" :
   [
    {
     "is_this_ptr" : true,
     "referenced_type" : "_ZTIPN4aidl7android8hardware5radio3sim18BpRadioSimResponseE"
    },
    {
     "referenced_type" : "_ZTIRKN4aidl7android8hardware5radio17RadioResponseInfoE"
    },
    {
     "referenced_type" : "_ZTIRKNSt3__112basic_stringIcNS_11char_traitsIcEENS_9allocatorIcEEEE"
    },
    {
     "referenced_type" : "_ZTIRKNSt3__112basic_stringIcNS_11char_traitsIcEENS_9allocatorIcEEEE"
    },
    {
     "referenced_type" : "_ZTIRKNSt3__112basic_stringIcNS_11char_traitsIcEENS_9allocatorIcEEEE"
    },
    {
     "referenced_type" : "_ZTIRKNSt3__112basic_stringIcNS_11char_traitsIcEENS_9allocatorIcEEEE"
    },
    {
     "referenced_type" : "_ZTIRKNSt3__112basic_stringIcNS_11char_traitsIcEENS_9allocatorIcEEEE"
    }
   ],
   "return_type" : "_ZTIN3ndk13ScopedAStatusE",
   "source_file" : "out/soong/.intermediates/hardware/interfaces/radio/aidl/android.hardware.radio.sim-V1-ndk-source/gen/include/aidl/android/hardware/radio/sim/BpRadioSimResponse.h"
  },
  {
   "function_name" : "aidl::android::hardware::radio::sim::BpRadioSimResponse::setUiccSubscriptionResponse",
   "linker_set_key" : "_ZN4aidl7android8hardware5radio3sim18BpRadioSimResponse27setUiccSubscriptionResponseERKNS2_17RadioResponseInfoE",
   "parameters" :
   [
    {
     "is_this_ptr" : true,
     "referenced_type" : "_ZTIPN4aidl7android8hardware5radio3sim18BpRadioSimResponseE"
    },
    {
     "referenced_type" : "_ZTIRKN4aidl7android8hardware5radio17RadioResponseInfoE"
    }
   ],
   "return_type" : "_ZTIN3ndk13ScopedAStatusE",
   "source_file" : "out/soong/.intermediates/hardware/interfaces/radio/aidl/android.hardware.radio.sim-V1-ndk-source/gen/include/aidl/android/hardware/radio/sim/BpRadioSimResponse.h"
  },
  {
   "function_name" : "aidl::android::hardware::radio::sim::BpRadioSimResponse::supplyIccPin2ForAppResponse",
   "linker_set_key" : "_ZN4aidl7android8hardware5radio3sim18BpRadioSimResponse27supplyIccPin2ForAppResponseERKNS2_17RadioResponseInfoEi",
   "parameters" :
   [
    {
     "is_this_ptr" : true,
     "referenced_type" : "_ZTIPN4aidl7android8hardware5radio3sim18BpRadioSimResponseE"
    },
    {
     "referenced_type" : "_ZTIRKN4aidl7android8hardware5radio17RadioResponseInfoE"
    },
    {
     "referenced_type" : "_ZTIi"
    }
   ],
   "return_type" : "_ZTIN3ndk13ScopedAStatusE",
   "source_file" : "out/soong/.intermediates/hardware/interfaces/radio/aidl/android.hardware.radio.sim-V1-ndk-source/gen/include/aidl/android/hardware/radio/sim/BpRadioSimResponse.h"
  },
  {
   "function_name" : "aidl::android::hardware::radio::sim::BpRadioSimResponse::supplyIccPuk2ForAppResponse",
   "linker_set_key" : "_ZN4aidl7android8hardware5radio3sim18BpRadioSimResponse27supplyIccPuk2ForAppResponseERKNS2_17RadioResponseInfoEi",
   "parameters" :
   [
    {
     "is_this_ptr" : true,
     "referenced_type" : "_ZTIPN4aidl7android8hardware5radio3sim18BpRadioSimResponseE"
    },
    {
     "referenced_type" : "_ZTIRKN4aidl7android8hardware5radio17RadioResponseInfoE"
    },
    {
     "referenced_type" : "_ZTIi"
    }
   ],
   "return_type" : "_ZTIN3ndk13ScopedAStatusE",
   "source_file" : "out/soong/.intermediates/hardware/interfaces/radio/aidl/android.hardware.radio.sim-V1-ndk-source/gen/include/aidl/android/hardware/radio/sim/BpRadioSimResponse.h"
  },
  {
   "function_name" : "aidl::android::hardware::radio::sim::BpRadioSimResponse::getFacilityLockForAppResponse",
   "linker_set_key" : "_ZN4aidl7android8hardware5radio3sim18BpRadioSimResponse29getFacilityLockForAppResponseERKNS2_17RadioResponseInfoEi",
   "parameters" :
   [
    {
     "is_this_ptr" : true,
     "referenced_type" : "_ZTIPN4aidl7android8hardware5radio3sim18BpRadioSimResponseE"
    },
    {
     "referenced_type" : "_ZTIRKN4aidl7android8hardware5radio17RadioResponseInfoE"
    },
    {
     "referenced_type" : "_ZTIi"
    }
   ],
   "return_type" : "_ZTIN3ndk13ScopedAStatusE",
   "source_file" : "out/soong/.intermediates/hardware/interfaces/radio/aidl/android.hardware.radio.sim-V1-ndk-source/gen/include/aidl/android/hardware/radio/sim/BpRadioSimResponse.h"
  },
  {
   "function_name" : "aidl::android::hardware::radio::sim::BpRadioSimResponse::iccOpenLogicalChannelResponse",
   "linker_set_key" : "_ZN4aidl7android8hardware5radio3sim18BpRadioSimResponse29iccOpenLogicalChannelResponseERKNS2_17RadioResponseInfoEiRKNSt3__16vectorIhNS8_9allocatorIhEEEE",
   "parameters" :
   [
    {
     "is_this_ptr" : true,
     "referenced_type" : "_ZTIPN4aidl7android8hardware5radio3sim18BpRadioSimResponseE"
    },
    {
     "referenced_type" : "_ZTIRKN4aidl7android8hardware5radio17RadioResponseInfoE"
    },
    {
     "referenced_type" : "_ZTIi"
    },
    {
     "referenced_type" : "_ZTIRKNSt3__16vectorIhNS_9allocatorIhEEEE"
    }
   ],
   "return_type" : "_ZTIN3ndk13ScopedAStatusE",
   "source_file" : "out/soong/.intermediates/hardware/interfaces/radio/aidl/android.hardware.radio.sim-V1-ndk-source/gen/include/aidl/android/hardware/radio/sim/BpRadioSimResponse.h"
  },
  {
   "function_name" : "aidl::android::hardware::radio::sim::BpRadioSimResponse::setFacilityLockForAppResponse",
   "linker_set_key" : "_ZN4aidl7android8hardware5radio3sim18BpRadioSimResponse29setFacilityLockForAppResponseERKNS2_17RadioResponseInfoEi",
   "parameters" :
   [
    {
     "is_this_ptr" : true,
     "referenced_type" : "_ZTIPN4aidl7android8hardware5radio3sim18BpRadioSimResponseE"
    },
    {
     "referenced_type" : "_ZTIRKN4aidl7android8hardware5radio17RadioResponseInfoE"
    },
    {
     "referenced_type" : "_ZTIi"
    }
   ],
   "return_type" : "_ZTIN3ndk13ScopedAStatusE",
   "source_file" : "out/soong/.intermediates/hardware/interfaces/radio/aidl/android.hardware.radio.sim-V1-ndk-source/gen/include/aidl/android/hardware/radio/sim/BpRadioSimResponse.h"
  },
  {
   "function_name" : "aidl::android::hardware::radio::sim::BpRadioSimResponse::enableUiccApplicationsResponse",
   "linker_set_key" : "_ZN4aidl7android8hardware5radio3sim18BpRadioSimResponse30enableUiccApplicationsResponseERKNS2_17RadioResponseInfoE",
   "parameters" :
   [
    {
     "is_this_ptr" : true,
     "referenced_type" : "_ZTIPN4aidl7android8hardware5radio3sim18BpRadioSimResponseE"
    },
    {
     "referenced_type" : "_ZTIRKN4aidl7android8hardware5radio17RadioResponseInfoE"
    }
   ],
   "return_type" : "_ZTIN3ndk13ScopedAStatusE",
   "source_file" : "out/soong/.intermediates/hardware/interfaces/radio/aidl/android.hardware.radio.sim-V1-ndk-source/gen/include/aidl/android/hardware/radio/sim/BpRadioSimResponse.h"
  },
  {
   "function_name" : "aidl::android::hardware::radio::sim::BpRadioSimResponse::getSimPhonebookRecordsResponse",
   "linker_set_key" : "_ZN4aidl7android8hardware5radio3sim18BpRadioSimResponse30getSimPhonebookRecordsResponseERKNS2_17RadioResponseInfoE",
   "parameters" :
   [
    {
     "is_this_ptr" : true,
     "referenced_type" : "_ZTIPN4aidl7android8hardware5radio3sim18BpRadioSimResponseE"
    },
    {
     "referenced_type" : "_ZTIRKN4aidl7android8hardware5radio17RadioResponseInfoE"
    }
   ],
   "return_type" : "_ZTIN3ndk13ScopedAStatusE",
   "source_file" : "out/soong/.intermediates/hardware/interfaces/radio/aidl/android.hardware.radio.sim-V1-ndk-source/gen/include/aidl/android/hardware/radio/sim/BpRadioSimResponse.h"
  },
  {
   "function_name" : "aidl::android::hardware::radio::sim::BpRadioSimResponse::iccCloseLogicalChannelResponse",
   "linker_set_key" : "_ZN4aidl7android8hardware5radio3sim18BpRadioSimResponse30iccCloseLogicalChannelResponseERKNS2_17RadioResponseInfoE",
   "parameters" :
   [
    {
     "is_this_ptr" : true,
     "referenced_type" : "_ZTIPN4aidl7android8hardware5radio3sim18BpRadioSimResponseE"
    },
    {
     "referenced_type" : "_ZTIRKN4aidl7android8hardware5radio17RadioResponseInfoE"
    }
   ],
   "return_type" : "_ZTIN3ndk13ScopedAStatusE",
   "source_file" : "out/soong/.intermediates/hardware/interfaces/radio/aidl/android.hardware.radio.sim-V1-ndk-source/gen/include/aidl/android/hardware/radio/sim/BpRadioSimResponse.h"
  },
  {
   "function_name" : "aidl::android::hardware::radio::sim::BpRadioSimResponse::sendEnvelopeWithStatusResponse",
   "linker_set_key" : "_ZN4aidl7android8hardware5radio3sim18BpRadioSimResponse30sendEnvelopeWithStatusResponseERKNS2_17RadioResponseInfoERKNS3_11IccIoResultE",
   "parameters" :
   [
    {
     "is_this_ptr" : true,
     "referenced_type" : "_ZTIPN4aidl7android8hardware5radio3sim18BpRadioSimResponseE"
    },
    {
     "referenced_type" : "_ZTIRKN4aidl7android8hardware5radio17RadioResponseInfoE"
    },
    {
     "referenced_type" : "_ZTIRKN4aidl7android8hardware5radio3sim11IccIoResultE"
    }
   ],
   "return_type" : "_ZTIN3ndk13ScopedAStatusE",
   "source_file" : "out/soong/.intermediates/hardware/interfaces/radio/aidl/android.hardware.radio.sim-V1-ndk-source/gen/include/aidl/android/hardware/radio/sim/BpRadioSimResponse.h"
  },
  {
   "function_name" : "aidl::android::hardware::radio::sim::BpRadioSimResponse::getSimPhonebookCapacityResponse",
   "linker_set_key" : "_ZN4aidl7android8hardware5radio3sim18BpRadioSimResponse31getSimPhonebookCapacityResponseERKNS2_17RadioResponseInfoERKNS3_17PhonebookCapacityE",
   "parameters" :
   [
    {
     "is_this_ptr" : true,
     "referenced_type" : "_ZTIPN4aidl7android8hardware5radio3sim18BpRadioSimResponseE"
    },
    {
     "referenced_type" : "_ZTIRKN4aidl7android8hardware5radio17RadioResponseInfoE"
    },
    {
     "referenced_type" : "_ZTIRKN4aidl7android8hardware5radio3sim17PhonebookCapacityE"
    }
   ],
   "return_type" : "_ZTIN3ndk13ScopedAStatusE",
   "source_file" : "out/soong/.intermediates/hardware/interfaces/radio/aidl/android.hardware.radio.sim-V1-ndk-source/gen/include/aidl/android/hardware/radio/sim/BpRadioSimResponse.h"
  },
  {
   "function_name" : "aidl::android::hardware::radio::sim::BpRadioSimResponse::getCdmaSubscriptionSourceResponse",
   "linker_set_key" : "_ZN4aidl7android8hardware5radio3sim18BpRadioSimResponse33getCdmaSubscriptionSourceResponseERKNS2_17RadioResponseInfoENS3_22CdmaSubscriptionSourceE",
   "parameters" :
   [
    {
     "is_this_ptr" : true,
     "referenced_type" : "_ZTIPN4aidl7android8hardware5radio3sim18BpRadioSimResponseE"
    },
    {
     "referenced_type" : "_ZTIRKN4aidl7android8hardware5radio17RadioResponseInfoE"
    },
    {
     "referenced_type" : "_ZTIN4aidl7android8hardware5radio3sim22CdmaSubscriptionSourceE"
    }
   ],
   "return_type" : "_ZTIN3ndk13ScopedAStatusE",
   "source_file" : "out/soong/.intermediates/hardware/interfaces/radio/aidl/android.hardware.radio.sim-V1-ndk-source/gen/include/aidl/android/hardware/radio/sim/BpRadioSimResponse.h"
  },
  {
   "function_name" : "aidl::android::hardware::radio::sim::BpRadioSimResponse::reportStkServiceIsRunningResponse",
   "linker_set_key" : "_ZN4aidl7android8hardware5radio3sim18BpRadioSimResponse33reportStkServiceIsRunningResponseERKNS2_17RadioResponseInfoE",
   "parameters" :
   [
    {
     "is_this_ptr" : true,
     "referenced_type" : "_ZTIPN4aidl7android8hardware5radio3sim18BpRadioSimResponseE"
    },
    {
     "referenced_type" : "_ZTIRKN4aidl7android8hardware5radio17RadioResponseInfoE"
    }
   ],
   "return_type" : "_ZTIN3ndk13ScopedAStatusE",
   "source_file" : "out/soong/.intermediates/hardware/interfaces/radio/aidl/android.hardware.radio.sim-V1-ndk-source/gen/include/aidl/android/hardware/radio/sim/BpRadioSimResponse.h"
  },
  {
   "function_name" : "aidl::android::hardware::radio::sim::BpRadioSimResponse::sendTerminalResponseToSimResponse",
   "linker_set_key" : "_ZN4aidl7android8hardware5radio3sim18BpRadioSimResponse33sendTerminalResponseToSimResponseERKNS2_17RadioResponseInfoE",
   "parameters" :
   [
    {
     "is_this_ptr" : true,
     "referenced_type" : "_ZTIPN4aidl7android8hardware5radio3sim18BpRadioSimResponseE"
    },
    {
     "referenced_type" : "_ZTIRKN4aidl7android8hardware5radio17RadioResponseInfoE"
    }
   ],
   "return_type" : "_ZTIN3ndk13ScopedAStatusE",
   "source_file" : "out/soong/.intermediates/hardware/interfaces/radio/aidl/android.hardware.radio.sim-V1-ndk-source/gen/include/aidl/android/hardware/radio/sim/BpRadioSimResponse.h"
  },
  {
   "function_name" : "aidl::android::hardware::radio::sim::BpRadioSimResponse::setCdmaSubscriptionSourceResponse",
   "linker_set_key" : "_ZN4aidl7android8hardware5radio3sim18BpRadioSimResponse33setCdmaSubscriptionSourceResponseERKNS2_17RadioResponseInfoE",
   "parameters" :
   [
    {
     "is_this_ptr" : true,
     "referenced_type" : "_ZTIPN4aidl7android8hardware5radio3sim18BpRadioSimResponseE"
    },
    {
     "referenced_type" : "_ZTIRKN4aidl7android8hardware5radio17RadioResponseInfoE"
    }
   ],
   "return_type" : "_ZTIN3ndk13ScopedAStatusE",
   "source_file" : "out/soong/.intermediates/hardware/interfaces/radio/aidl/android.hardware.radio.sim-V1-ndk-source/gen/include/aidl/android/hardware/radio/sim/BpRadioSimResponse.h"
  },
  {
   "function_name" : "aidl::android::hardware::radio::sim::BpRadioSimResponse::updateSimPhonebookRecordsResponse",
   "linker_set_key" : "_ZN4aidl7android8hardware5radio3sim18BpRadioSimResponse33updateSimPhonebookRecordsResponseERKNS2_17RadioResponseInfoEi",
   "parameters" :
   [
    {
     "is_this_ptr" : true,
     "referenced_type" : "_ZTIPN4aidl7android8hardware5radio3sim18BpRadioSimResponseE"
    },
    {
     "referenced_type" : "_ZTIRKN4aidl7android8hardware5radio17RadioResponseInfoE"
    },
    {
     "referenced_type" : "_ZTIi"
    }
   ],
   "return_type" : "_ZTIN3ndk13ScopedAStatusE",
   "source_file" : "out/soong/.intermediates/hardware/interfaces/radio/aidl/android.hardware.radio.sim-V1-ndk-source/gen/include/aidl/android/hardware/radio/sim/BpRadioSimResponse.h"
  },
  {
   "function_name" : "aidl::android::hardware::radio::sim::BpRadioSimResponse::areUiccApplicationsEnabledResponse",
   "linker_set_key" : "_ZN4aidl7android8hardware5radio3sim18BpRadioSimResponse34areUiccApplicationsEnabledResponseERKNS2_17RadioResponseInfoEb",
   "parameters" :
   [
    {
     "is_this_ptr" : true,
     "referenced_type" : "_ZTIPN4aidl7android8hardware5radio3sim18BpRadioSimResponseE"
    },
    {
     "referenced_type" : "_ZTIRKN4aidl7android8hardware5radio17RadioResponseInfoE"
    },
    {
     "referenced_type" : "_ZTIb"
    }
   ],
   "return_type" : "_ZTIN3ndk13ScopedAStatusE",
   "source_file" : "out/soong/.intermediates/hardware/interfaces/radio/aidl/android.hardware.radio.sim-V1-ndk-source/gen/include/aidl/android/hardware/radio/sim/BpRadioSimResponse.h"
  },
  {
   "function_name" : "aidl::android::hardware::radio::sim::BpRadioSimResponse::supplySimDepersonalizationResponse",
   "linker_set_key" : "_ZN4aidl7android8hardware5radio3sim18BpRadioSimResponse34supplySimDepersonalizationResponseERKNS2_17RadioResponseInfoENS3_13PersoSubstateEi",
   "parameters" :
   [
    {
     "is_this_ptr" : true,
     "referenced_type" : "_ZTIPN4aidl7android8hardware5radio3sim18BpRadioSimResponseE"
    },
    {
     "referenced_type" : "_ZTIRKN4aidl7android8hardware5radio17RadioResponseInfoE"
    },
    {
     "referenced_type" : "_ZTIN4aidl7android8hardware5radio3sim13PersoSubstateE"
    },
    {
     "referenced_type" : "_ZTIi"
    }
   ],
   "return_type" : "_ZTIN3ndk13ScopedAStatusE",
   "source_file" : "out/soong/.intermediates/hardware/interfaces/radio/aidl/android.hardware.radio.sim-V1-ndk-source/gen/include/aidl/android/hardware/radio/sim/BpRadioSimResponse.h"
  },
  {
   "function_name" : "aidl::android::hardware::radio::sim::BpRadioSimResponse::iccTransmitApduBasicChannelResponse",
   "linker_set_key" : "_ZN4aidl7android8hardware5radio3sim18BpRadioSimResponse35iccTransmitApduBasicChannelResponseERKNS2_17RadioResponseInfoERKNS3_11IccIoResultE",
   "parameters" :
   [
    {
     "is_this_ptr" : true,
     "referenced_type" : "_ZTIPN4aidl7android8hardware5radio3sim18BpRadioSimResponseE"
    },
    {
     "referenced_type" : "_ZTIRKN4aidl7android8hardware5radio17RadioResponseInfoE"
    },
    {
     "referenced_type" : "_ZTIRKN4aidl7android8hardware5radio3sim11IccIoResultE"
    }
   ],
   "return_type" : "_ZTIN3ndk13ScopedAStatusE",
   "source_file" : "out/soong/.intermediates/hardware/interfaces/radio/aidl/android.hardware.radio.sim-V1-ndk-source/gen/include/aidl/android/hardware/radio/sim/BpRadioSimResponse.h"
  },
  {
   "function_name" : "aidl::android::hardware::radio::sim::BpRadioSimResponse::requestIccSimAuthenticationResponse",
   "linker_set_key" : "_ZN4aidl7android8hardware5radio3sim18BpRadioSimResponse35requestIccSimAuthenticationResponseERKNS2_17RadioResponseInfoERKNS3_11IccIoResultE",
   "parameters" :
   [
    {
     "is_this_ptr" : true,
     "referenced_type" : "_ZTIPN4aidl7android8hardware5radio3sim18BpRadioSimResponseE"
    },
    {
     "referenced_type" : "_ZTIRKN4aidl7android8hardware5radio17RadioResponseInfoE"
    },
    {
     "referenced_type" : "_ZTIRKN4aidl7android8hardware5radio3sim11IccIoResultE"
    }
   ],
   "return_type" : "_ZTIN3ndk13ScopedAStatusE",
   "source_file" : "out/soong/.intermediates/hardware/interfaces/radio/aidl/android.hardware.radio.sim-V1-ndk-source/gen/include/aidl/android/hardware/radio/sim/BpRadioSimResponse.h"
  },
  {
   "function_name" : "aidl::android::hardware::radio::sim::BpRadioSimResponse::iccTransmitApduLogicalChannelResponse",
   "linker_set_key" : "_ZN4aidl7android8hardware5radio3sim18BpRadioSimResponse37iccTransmitApduLogicalChannelResponseERKNS2_17RadioResponseInfoERKNS3_11IccIoResultE",
   "parameters" :
   [
    {
     "is_this_ptr" : true,
     "referenced_type" : "_ZTIPN4aidl7android8hardware5radio3sim18BpRadioSimResponseE"
    },
    {
     "referenced_type" : "_ZTIRKN4aidl7android8hardware5radio17RadioResponseInfoE"
    },
    {
     "referenced_type" : "_ZTIRKN4aidl7android8hardware5radio3sim11IccIoResultE"
    }
   ],
   "return_type" : "_ZTIN3ndk13ScopedAStatusE",
   "source_file" : "out/soong/.intermediates/hardware/interfaces/radio/aidl/android.hardware.radio.sim-V1-ndk-source/gen/include/aidl/android/hardware/radio/sim/BpRadioSimResponse.h"
  },
  {
   "function_name" : "aidl::android::hardware::radio::sim::BpRadioSimResponse::setCarrierInfoForImsiEncryptionResponse",
   "linker_set_key" : "_ZN4aidl7android8hardware5radio3sim18BpRadioSimResponse39setCarrierInfoForImsiEncryptionResponseERKNS2_17RadioResponseInfoE",
   "parameters" :
   [
    {
     "is_this_ptr" : true,
     "referenced_type" : "_ZTIPN4aidl7android8hardware5radio3sim18BpRadioSimResponseE"
    },
    {
     "referenced_type" : "_ZTIRKN4aidl7android8hardware5radio17RadioResponseInfoE"
    }
   ],
   "return_type" : "_ZTIN3ndk13ScopedAStatusE",
   "source_file" : "out/soong/.intermediates/hardware/interfaces/radio/aidl/android.hardware.radio.sim-V1-ndk-source/gen/include/aidl/android/hardware/radio/sim/BpRadioSimResponse.h"
  },
  {
   "function_name" : "aidl::android::hardware::radio::sim::BpRadioSimResponse::BpRadioSimResponse",
   "linker_set_key" : "_ZN4aidl7android8hardware5radio3sim18BpRadioSimResponseC1ERKN3ndk10SpAIBinderE",
   "parameters" :
   [
    {
     "is_this_ptr" : true,
     "referenced_type" : "_ZTIPN4aidl7android8hardware5radio3sim18BpRadioSimResponseE"
    },
    {
     "referenced_type" : "_ZTIRKN3ndk10SpAIBinderE"
    }
   ],
   "return_type" : "_ZTIv",
   "source_file" : "out/soong/.intermediates/hardware/interfaces/radio/aidl/android.hardware.radio.sim-V1-ndk-source/gen/include/aidl/android/hardware/radio/sim/BpRadioSimResponse.h"
  },
  {
   "function_name" : "aidl::android::hardware::radio::sim::BpRadioSimResponse::BpRadioSimResponse",
   "linker_set_key" : "_ZN4aidl7android8hardware5radio3sim18BpRadioSimResponseC2ERKN3ndk10SpAIBinderE",
   "parameters" :
   [
    {
     "is_this_ptr" : true,
     "referenced_type" : "_ZTIPN4aidl7android8hardware5radio3sim18BpRadioSimResponseE"
    },
    {
     "referenced_type" : "_ZTIRKN3ndk10SpAIBinderE"
    }
   ],
   "return_type" : "_ZTIv",
   "source_file" : "out/soong/.intermediates/hardware/interfaces/radio/aidl/android.hardware.radio.sim-V1-ndk-source/gen/include/aidl/android/hardware/radio/sim/BpRadioSimResponse.h"
  },
  {
   "function_name" : "aidl::android::hardware::radio::sim::BpRadioSimResponse::~BpRadioSimResponse",
   "linker_set_key" : "_ZN4aidl7android8hardware5radio3sim18BpRadioSimResponseD0Ev",
   "parameters" :
   [
    {
     "is_this_ptr" : true,
     "referenced_type" : "_ZTIPN4aidl7android8hardware5radio3sim18BpRadioSimResponseE"
    }
   ],
   "return_type" : "_ZTIv",
   "source_file" : "out/soong/.intermediates/hardware/interfaces/radio/aidl/android.hardware.radio.sim-V1-ndk-source/gen/include/aidl/android/hardware/radio/sim/BpRadioSimResponse.h"
  },
  {
   "function_name" : "aidl::android::hardware::radio::sim::BpRadioSimResponse::~BpRadioSimResponse",
   "linker_set_key" : "_ZN4aidl7android8hardware5radio3sim18BpRadioSimResponseD1Ev",
   "parameters" :
   [
    {
     "is_this_ptr" : true,
     "referenced_type" : "_ZTIPN4aidl7android8hardware5radio3sim18BpRadioSimResponseE"
    }
   ],
   "return_type" : "_ZTIv",
   "source_file" : "out/soong/.intermediates/hardware/interfaces/radio/aidl/android.hardware.radio.sim-V1-ndk-source/gen/include/aidl/android/hardware/radio/sim/BpRadioSimResponse.h"
  },
  {
   "function_name" : "aidl::android::hardware::radio::sim::BpRadioSimResponse::~BpRadioSimResponse",
   "linker_set_key" : "_ZN4aidl7android8hardware5radio3sim18BpRadioSimResponseD2Ev",
   "parameters" :
   [
    {
     "is_this_ptr" : true,
     "referenced_type" : "_ZTIPN4aidl7android8hardware5radio3sim18BpRadioSimResponseE"
    }
   ],
   "return_type" : "_ZTIv",
   "source_file" : "out/soong/.intermediates/hardware/interfaces/radio/aidl/android.hardware.radio.sim-V1-ndk-source/gen/include/aidl/android/hardware/radio/sim/BpRadioSimResponse.h"
  },
  {
   "function_name" : "aidl::android::hardware::radio::sim::ImsiEncryptionInfo::readFromParcel",
   "linker_set_key" : "_ZN4aidl7android8hardware5radio3sim18ImsiEncryptionInfo14readFromParcelEPK7AParcel",
   "parameters" :
   [
    {
     "is_this_ptr" : true,
     "referenced_type" : "_ZTIPN4aidl7android8hardware5radio3sim18ImsiEncryptionInfoE"
    },
    {
     "referenced_type" : "_ZTIPK7AParcel"
    }
   ],
   "return_type" : "_ZTIi",
   "source_file" : "out/soong/.intermediates/hardware/interfaces/radio/aidl/android.hardware.radio.sim-V1-ndk-source/gen/include/aidl/android/hardware/radio/sim/ImsiEncryptionInfo.h"
  },
  {
   "function_name" : "aidl::android::hardware::radio::sim::CarrierRestrictions::readFromParcel",
   "linker_set_key" : "_ZN4aidl7android8hardware5radio3sim19CarrierRestrictions14readFromParcelEPK7AParcel",
   "parameters" :
   [
    {
     "is_this_ptr" : true,
     "referenced_type" : "_ZTIPN4aidl7android8hardware5radio3sim19CarrierRestrictionsE"
    },
    {
     "referenced_type" : "_ZTIPK7AParcel"
    }
   ],
   "return_type" : "_ZTIi",
   "source_file" : "out/soong/.intermediates/hardware/interfaces/radio/aidl/android.hardware.radio.sim-V1-ndk-source/gen/include/aidl/android/hardware/radio/sim/CarrierRestrictions.h"
  },
  {
   "function_name" : "aidl::android::hardware::radio::sim::IRadioSimIndication::fromBinder",
   "linker_set_key" : "_ZN4aidl7android8hardware5radio3sim19IRadioSimIndication10fromBinderERKN3ndk10SpAIBinderE",
   "parameters" :
   [
    {
     "referenced_type" : "_ZTIRKN3ndk10SpAIBinderE"
    }
   ],
   "return_type" : "_ZTINSt3__110shared_ptrIN4aidl7android8hardware5radio3sim19IRadioSimIndicationEEE",
   "source_file" : "out/soong/.intermediates/hardware/interfaces/radio/aidl/android.hardware.radio.sim-V1-ndk-source/gen/include/aidl/android/hardware/radio/sim/IRadioSimIndication.h"
  },
  {
   "function_name" : "aidl::android::hardware::radio::sim::IRadioSimIndication::writeToParcel",
   "linker_set_key" : "_ZN4aidl7android8hardware5radio3sim19IRadioSimIndication13writeToParcelEP7AParcelRKNSt3__110shared_ptrIS4_EE",
   "parameters" :
   [
    {
     "referenced_type" : "_ZTIP7AParcel"
    },
    {
     "referenced_type" : "_ZTIRKNSt3__110shared_ptrIN4aidl7android8hardware5radio3sim19IRadioSimIndicationEEE"
    }
   ],
   "return_type" : "_ZTIi",
   "source_file" : "out/soong/.intermediates/hardware/interfaces/radio/aidl/android.hardware.radio.sim-V1-ndk-source/gen/include/aidl/android/hardware/radio/sim/IRadioSimIndication.h"
  },
  {
   "function_name" : "aidl::android::hardware::radio::sim::IRadioSimIndication::getDefaultImpl",
   "linker_set_key" : "_ZN4aidl7android8hardware5radio3sim19IRadioSimIndication14getDefaultImplEv",
   "return_type" : "_ZTIRKNSt3__110shared_ptrIN4aidl7android8hardware5radio3sim19IRadioSimIndicationEEE",
   "source_file" : "out/soong/.intermediates/hardware/interfaces/radio/aidl/android.hardware.radio.sim-V1-ndk-source/gen/include/aidl/android/hardware/radio/sim/IRadioSimIndication.h"
  },
  {
   "function_name" : "aidl::android::hardware::radio::sim::IRadioSimIndication::readFromParcel",
   "linker_set_key" : "_ZN4aidl7android8hardware5radio3sim19IRadioSimIndication14readFromParcelEPK7AParcelPNSt3__110shared_ptrIS4_EE",
   "parameters" :
   [
    {
     "referenced_type" : "_ZTIPK7AParcel"
    },
    {
     "referenced_type" : "_ZTIPNSt3__110shared_ptrIN4aidl7android8hardware5radio3sim19IRadioSimIndicationEEE"
    }
   ],
   "return_type" : "_ZTIi",
   "source_file" : "out/soong/.intermediates/hardware/interfaces/radio/aidl/android.hardware.radio.sim-V1-ndk-source/gen/include/aidl/android/hardware/radio/sim/IRadioSimIndication.h"
  },
  {
   "function_name" : "aidl::android::hardware::radio::sim::IRadioSimIndication::setDefaultImpl",
   "linker_set_key" : "_ZN4aidl7android8hardware5radio3sim19IRadioSimIndication14setDefaultImplERKNSt3__110shared_ptrIS4_EE",
   "parameters" :
   [
    {
     "referenced_type" : "_ZTIRKNSt3__110shared_ptrIN4aidl7android8hardware5radio3sim19IRadioSimIndicationEEE"
    }
   ],
   "return_type" : "_ZTIb",
   "source_file" : "out/soong/.intermediates/hardware/interfaces/radio/aidl/android.hardware.radio.sim-V1-ndk-source/gen/include/aidl/android/hardware/radio/sim/IRadioSimIndication.h"
  },
  {
   "function_name" : "aidl::android::hardware::radio::sim::IRadioSimIndication::IRadioSimIndication",
   "linker_set_key" : "_ZN4aidl7android8hardware5radio3sim19IRadioSimIndicationC2Ev",
   "parameters" :
   [
    {
     "is_this_ptr" : true,
     "referenced_type" : "_ZTIPN4aidl7android8hardware5radio3sim19IRadioSimIndicationE"
    }
   ],
   "return_type" : "_ZTIv",
   "source_file" : "out/soong/.intermediates/hardware/interfaces/radio/aidl/android.hardware.radio.sim-V1-ndk-source/gen/include/aidl/android/hardware/radio/sim/IRadioSimIndication.h"
  },
  {
   "function_name" : "aidl::android::hardware::radio::sim::IRadioSimIndication::~IRadioSimIndication",
   "linker_set_key" : "_ZN4aidl7android8hardware5radio3sim19IRadioSimIndicationD0Ev",
   "parameters" :
   [
    {
     "is_this_ptr" : true,
     "referenced_type" : "_ZTIPN4aidl7android8hardware5radio3sim19IRadioSimIndicationE"
    }
   ],
   "return_type" : "_ZTIv",
   "source_file" : "out/soong/.intermediates/hardware/interfaces/radio/aidl/android.hardware.radio.sim-V1-ndk-source/gen/include/aidl/android/hardware/radio/sim/IRadioSimIndication.h"
  },
  {
   "function_name" : "aidl::android::hardware::radio::sim::IRadioSimIndication::~IRadioSimIndication",
   "linker_set_key" : "_ZN4aidl7android8hardware5radio3sim19IRadioSimIndicationD1Ev",
   "parameters" :
   [
    {
     "is_this_ptr" : true,
     "referenced_type" : "_ZTIPN4aidl7android8hardware5radio3sim19IRadioSimIndicationE"
    }
   ],
   "return_type" : "_ZTIv",
   "source_file" : "out/soong/.intermediates/hardware/interfaces/radio/aidl/android.hardware.radio.sim-V1-ndk-source/gen/include/aidl/android/hardware/radio/sim/IRadioSimIndication.h"
  },
  {
   "function_name" : "aidl::android::hardware::radio::sim::IRadioSimIndication::~IRadioSimIndication",
   "linker_set_key" : "_ZN4aidl7android8hardware5radio3sim19IRadioSimIndicationD2Ev",
   "parameters" :
   [
    {
     "is_this_ptr" : true,
     "referenced_type" : "_ZTIPN4aidl7android8hardware5radio3sim19IRadioSimIndicationE"
    }
   ],
   "return_type" : "_ZTIv",
   "source_file" : "out/soong/.intermediates/hardware/interfaces/radio/aidl/android.hardware.radio.sim-V1-ndk-source/gen/include/aidl/android/hardware/radio/sim/IRadioSimIndication.h"
  },
  {
   "function_name" : "aidl::android::hardware::radio::sim::PhonebookRecordInfo::readFromParcel",
   "linker_set_key" : "_ZN4aidl7android8hardware5radio3sim19PhonebookRecordInfo14readFromParcelEPK7AParcel",
   "parameters" :
   [
    {
     "is_this_ptr" : true,
     "referenced_type" : "_ZTIPN4aidl7android8hardware5radio3sim19PhonebookRecordInfoE"
    },
    {
     "referenced_type" : "_ZTIPK7AParcel"
    }
   ],
   "return_type" : "_ZTIi",
   "source_file" : "out/soong/.intermediates/hardware/interfaces/radio/aidl/android.hardware.radio.sim-V1-ndk-source/gen/include/aidl/android/hardware/radio/sim/PhonebookRecordInfo.h"
  },
  {
   "access" : "protected",
   "function_name" : "aidl::android::hardware::radio::sim::BnRadioSimIndication::createBinder",
   "linker_set_key" : "_ZN4aidl7android8hardware5radio3sim20BnRadioSimIndication12createBinderEv",
   "parameters" :
   [
    {
     "is_this_ptr" : true,
     "referenced_type" : "_ZTIPN4aidl7android8hardware5radio3sim20BnRadioSimIndicationE"
    }
   ],
   "return_type" : "_ZTIN3ndk10SpAIBinderE",
   "source_file" : "out/soong/.intermediates/hardware/interfaces/radio/aidl/android.hardware.radio.sim-V1-ndk-source/gen/include/aidl/android/hardware/radio/sim/BnRadioSimIndication.h"
  },
  {
   "function_name" : "aidl::android::hardware::radio::sim::BnRadioSimIndication::getInterfaceHash",
   "linker_set_key" : "_ZN4aidl7android8hardware5radio3sim20BnRadioSimIndication16getInterfaceHashEPNSt3__112basic_stringIcNS5_11char_traitsIcEENS5_9allocatorIcEEEE",
   "parameters" :
   [
    {
     "is_this_ptr" : true,
     "referenced_type" : "_ZTIPN4aidl7android8hardware5radio3sim20BnRadioSimIndicationE"
    },
    {
     "referenced_type" : "_ZTIPNSt3__112basic_stringIcNS_11char_traitsIcEENS_9allocatorIcEEEE"
    }
   ],
   "return_type" : "_ZTIN3ndk13ScopedAStatusE",
   "source_file" : "out/soong/.intermediates/hardware/interfaces/radio/aidl/android.hardware.radio.sim-V1-ndk-source/gen/include/aidl/android/hardware/radio/sim/BnRadioSimIndication.h"
  },
  {
   "function_name" : "aidl::android::hardware::radio::sim::BnRadioSimIndication::getInterfaceVersion",
   "linker_set_key" : "_ZN4aidl7android8hardware5radio3sim20BnRadioSimIndication19getInterfaceVersionEPi",
   "parameters" :
   [
    {
     "is_this_ptr" : true,
     "referenced_type" : "_ZTIPN4aidl7android8hardware5radio3sim20BnRadioSimIndicationE"
    },
    {
     "referenced_type" : "_ZTIPi"
    }
   ],
   "return_type" : "_ZTIN3ndk13ScopedAStatusE",
   "source_file" : "out/soong/.intermediates/hardware/interfaces/radio/aidl/android.hardware.radio.sim-V1-ndk-source/gen/include/aidl/android/hardware/radio/sim/BnRadioSimIndication.h"
  },
  {
   "function_name" : "aidl::android::hardware::radio::sim::BnRadioSimIndication::BnRadioSimIndication",
   "linker_set_key" : "_ZN4aidl7android8hardware5radio3sim20BnRadioSimIndicationC2Ev",
   "parameters" :
   [
    {
     "is_this_ptr" : true,
     "referenced_type" : "_ZTIPN4aidl7android8hardware5radio3sim20BnRadioSimIndicationE"
    }
   ],
   "return_type" : "_ZTIv",
   "source_file" : "out/soong/.intermediates/hardware/interfaces/radio/aidl/android.hardware.radio.sim-V1-ndk-source/gen/include/aidl/android/hardware/radio/sim/BnRadioSimIndication.h"
  },
  {
   "function_name" : "aidl::android::hardware::radio::sim::BnRadioSimIndication::~BnRadioSimIndication",
   "linker_set_key" : "_ZN4aidl7android8hardware5radio3sim20BnRadioSimIndicationD0Ev",
   "parameters" :
   [
    {
     "is_this_ptr" : true,
     "referenced_type" : "_ZTIPN4aidl7android8hardware5radio3sim20BnRadioSimIndicationE"
    }
   ],
   "return_type" : "_ZTIv",
   "source_file" : "out/soong/.intermediates/hardware/interfaces/radio/aidl/android.hardware.radio.sim-V1-ndk-source/gen/include/aidl/android/hardware/radio/sim/BnRadioSimIndication.h"
  },
  {
   "function_name" : "aidl::android::hardware::radio::sim::BnRadioSimIndication::~BnRadioSimIndication",
   "linker_set_key" : "_ZN4aidl7android8hardware5radio3sim20BnRadioSimIndicationD1Ev",
   "parameters" :
   [
    {
     "is_this_ptr" : true,
     "referenced_type" : "_ZTIPN4aidl7android8hardware5radio3sim20BnRadioSimIndicationE"
    }
   ],
   "return_type" : "_ZTIv",
   "source_file" : "out/soong/.intermediates/hardware/interfaces/radio/aidl/android.hardware.radio.sim-V1-ndk-source/gen/include/aidl/android/hardware/radio/sim/BnRadioSimIndication.h"
  },
  {
   "function_name" : "aidl::android::hardware::radio::sim::BnRadioSimIndication::~BnRadioSimIndication",
   "linker_set_key" : "_ZN4aidl7android8hardware5radio3sim20BnRadioSimIndicationD2Ev",
   "parameters" :
   [
    {
     "is_this_ptr" : true,
     "referenced_type" : "_ZTIPN4aidl7android8hardware5radio3sim20BnRadioSimIndicationE"
    }
   ],
   "return_type" : "_ZTIv",
   "source_file" : "out/soong/.intermediates/hardware/interfaces/radio/aidl/android.hardware.radio.sim-V1-ndk-source/gen/include/aidl/android/hardware/radio/sim/BnRadioSimIndication.h"
  },
  {
   "function_name" : "aidl::android::hardware::radio::sim::BpRadioSimIndication::simRefresh",
   "linker_set_key" : "_ZN4aidl7android8hardware5radio3sim20BpRadioSimIndication10simRefreshENS2_19RadioIndicationTypeERKNS3_16SimRefreshResultE",
   "parameters" :
   [
    {
     "is_this_ptr" : true,
     "referenced_type" : "_ZTIPN4aidl7android8hardware5radio3sim20BpRadioSimIndicationE"
    },
    {
     "referenced_type" : "_ZTIN4aidl7android8hardware5radio19RadioIndicationTypeE"
    },
    {
     "referenced_type" : "_ZTIRKN4aidl7android8hardware5radio3sim16SimRefreshResultE"
    }
   ],
   "return_type" : "_ZTIN3ndk13ScopedAStatusE",
   "source_file" : "out/soong/.intermediates/hardware/interfaces/radio/aidl/android.hardware.radio.sim-V1-ndk-source/gen/include/aidl/android/hardware/radio/sim/BpRadioSimIndication.h"
  },
  {
   "function_name" : "aidl::android::hardware::radio::sim::BpRadioSimIndication::stkSessionEnd",
   "linker_set_key" : "_ZN4aidl7android8hardware5radio3sim20BpRadioSimIndication13stkSessionEndENS2_19RadioIndicationTypeE",
   "parameters" :
   [
    {
     "is_this_ptr" : true,
     "referenced_type" : "_ZTIPN4aidl7android8hardware5radio3sim20BpRadioSimIndicationE"
    },
    {
     "referenced_type" : "_ZTIN4aidl7android8hardware5radio19RadioIndicationTypeE"
    }
   ],
   "return_type" : "_ZTIN3ndk13ScopedAStatusE",
   "source_file" : "out/soong/.intermediates/hardware/interfaces/radio/aidl/android.hardware.radio.sim-V1-ndk-source/gen/include/aidl/android/hardware/radio/sim/BpRadioSimIndication.h"
  },
  {
   "function_name" : "aidl::android::hardware::radio::sim::BpRadioSimIndication::stkEventNotify",
   "linker_set_key" : "_ZN4aidl7android8hardware5radio3sim20BpRadioSimIndication14stkEventNotifyENS2_19RadioIndicationTypeERKNSt3__112basic_stringIcNS6_11char_traitsIcEENS6_9allocatorIcEEEE",
   "parameters" :
   [
    {
     "is_this_ptr" : true,
     "referenced_type" : "_ZTIPN4aidl7android8hardware5radio3sim20BpRadioSimIndicationE"
    },
    {
     "referenced_type" : "_ZTIN4aidl7android8hardware5radio19RadioIndicationTypeE"
    },
    {
     "referenced_type" : "_ZTIRKNSt3__112basic_stringIcNS_11char_traitsIcEENS_9allocatorIcEEEE"
    }
   ],
   "return_type" : "_ZTIN3ndk13ScopedAStatusE",
   "source_file" : "out/soong/.intermediates/hardware/interfaces/radio/aidl/android.hardware.radio.sim-V1-ndk-source/gen/include/aidl/android/hardware/radio/sim/BpRadioSimIndication.h"
  },
  {
   "function_name" : "aidl::android::hardware::radio::sim::BpRadioSimIndication::getInterfaceHash",
   "linker_set_key" : "_ZN4aidl7android8hardware5radio3sim20BpRadioSimIndication16getInterfaceHashEPNSt3__112basic_stringIcNS5_11char_traitsIcEENS5_9allocatorIcEEEE",
   "parameters" :
   [
    {
     "is_this_ptr" : true,
     "referenced_type" : "_ZTIPN4aidl7android8hardware5radio3sim20BpRadioSimIndicationE"
    },
    {
     "referenced_type" : "_ZTIPNSt3__112basic_stringIcNS_11char_traitsIcEENS_9allocatorIcEEEE"
    }
   ],
   "return_type" : "_ZTIN3ndk13ScopedAStatusE",
   "source_file" : "out/soong/.intermediates/hardware/interfaces/radio/aidl/android.hardware.radio.sim-V1-ndk-source/gen/include/aidl/android/hardware/radio/sim/BpRadioSimIndication.h"
  },
  {
   "function_name" : "aidl::android::hardware::radio::sim::BpRadioSimIndication::simStatusChanged",
   "linker_set_key" : "_ZN4aidl7android8hardware5radio3sim20BpRadioSimIndication16simStatusChangedENS2_19RadioIndicationTypeE",
   "parameters" :
   [
    {
     "is_this_ptr" : true,
     "referenced_type" : "_ZTIPN4aidl7android8hardware5radio3sim20BpRadioSimIndicationE"
    },
    {
     "referenced_type" : "_ZTIN4aidl7android8hardware5radio19RadioIndicationTypeE"
    }
   ],
   "return_type" : "_ZTIN3ndk13ScopedAStatusE",
   "source_file" : "out/soong/.intermediates/hardware/interfaces/radio/aidl/android.hardware.radio.sim-V1-ndk-source/gen/include/aidl/android/hardware/radio/sim/BpRadioSimIndication.h"
  },
  {
   "function_name" : "aidl::android::hardware::radio::sim::BpRadioSimIndication::getInterfaceVersion",
   "linker_set_key" : "_ZN4aidl7android8hardware5radio3sim20BpRadioSimIndication19getInterfaceVersionEPi",
   "parameters" :
   [
    {
     "is_this_ptr" : true,
     "referenced_type" : "_ZTIPN4aidl7android8hardware5radio3sim20BpRadioSimIndicationE"
    },
    {
     "referenced_type" : "_ZTIPi"
    }
   ],
   "return_type" : "_ZTIN3ndk13ScopedAStatusE",
   "source_file" : "out/soong/.intermediates/hardware/interfaces/radio/aidl/android.hardware.radio.sim-V1-ndk-source/gen/include/aidl/android/hardware/radio/sim/BpRadioSimIndication.h"
  },
  {
   "function_name" : "aidl::android::hardware::radio::sim::BpRadioSimIndication::simPhonebookChanged",
   "linker_set_key" : "_ZN4aidl7android8hardware5radio3sim20BpRadioSimIndication19simPhonebookChangedENS2_19RadioIndicationTypeE",
   "parameters" :
   [
    {
     "is_this_ptr" : true,
     "referenced_type" : "_ZTIPN4aidl7android8hardware5radio3sim20BpRadioSimIndicationE"
    },
    {
     "referenced_type" : "_ZTIN4aidl7android8hardware5radio19RadioIndicationTypeE"
    }
   ],
   "return_type" : "_ZTIN3ndk13ScopedAStatusE",
   "source_file" : "out/soong/.intermediates/hardware/interfaces/radio/aidl/android.hardware.radio.sim-V1-ndk-source/gen/include/aidl/android/hardware/radio/sim/BpRadioSimIndication.h"
  },
  {
   "function_name" : "aidl::android::hardware::radio::sim::BpRadioSimIndication::stkProactiveCommand",
   "linker_set_key" : "_ZN4aidl7android8hardware5radio3sim20BpRadioSimIndication19stkProactiveCommandENS2_19RadioIndicationTypeERKNSt3__112basic_stringIcNS6_11char_traitsIcEENS6_9allocatorIcEEEE",
   "parameters" :
   [
    {
     "is_this_ptr" : true,
     "referenced_type" : "_ZTIPN4aidl7android8hardware5radio3sim20BpRadioSimIndicationE"
    },
    {
     "referenced_type" : "_ZTIN4aidl7android8hardware5radio19RadioIndicationTypeE"
    },
    {
     "referenced_type" : "_ZTIRKNSt3__112basic_stringIcNS_11char_traitsIcEENS_9allocatorIcEEEE"
    }
   ],
   "return_type" : "_ZTIN3ndk13ScopedAStatusE",
   "source_file" : "out/soong/.intermediates/hardware/interfaces/radio/aidl/android.hardware.radio.sim-V1-ndk-source/gen/include/aidl/android/hardware/radio/sim/BpRadioSimIndication.h"
  },
  {
   "function_name" : "aidl::android::hardware::radio::sim::BpRadioSimIndication::subscriptionStatusChanged",
   "linker_set_key" : "_ZN4aidl7android8hardware5radio3sim20BpRadioSimIndication25subscriptionStatusChangedENS2_19RadioIndicationTypeEb",
   "parameters" :
   [
    {
     "is_this_ptr" : true,
     "referenced_type" : "_ZTIPN4aidl7android8hardware5radio3sim20BpRadioSimIndicationE"
    },
    {
     "referenced_type" : "_ZTIN4aidl7android8hardware5radio19RadioIndicationTypeE"
    },
    {
     "referenced_type" : "_ZTIb"
    }
   ],
   "return_type" : "_ZTIN3ndk13ScopedAStatusE",
   "source_file" : "out/soong/.intermediates/hardware/interfaces/radio/aidl/android.hardware.radio.sim-V1-ndk-source/gen/include/aidl/android/hardware/radio/sim/BpRadioSimIndication.h"
  },
  {
   "function_name" : "aidl::android::hardware::radio::sim::BpRadioSimIndication::simPhonebookRecordsReceived",
   "linker_set_key" : "_ZN4aidl7android8hardware5radio3sim20BpRadioSimIndication27simPhonebookRecordsReceivedENS2_19RadioIndicationTypeENS3_16PbReceivedStatusERKNSt3__16vectorINS3_19PhonebookRecordInfoENS7_9allocatorIS9_EEEE",
   "parameters" :
   [
    {
     "is_this_ptr" : true,
     "referenced_type" : "_ZTIPN4aidl7android8hardware5radio3sim20BpRadioSimIndicationE"
    },
    {
     "referenced_type" : "_ZTIN4aidl7android8hardware5radio19RadioIndicationTypeE"
    },
    {
     "referenced_type" : "_ZTIN4aidl7android8hardware5radio3sim16PbReceivedStatusE"
    },
    {
     "referenced_type" : "_ZTIRKNSt3__16vectorIN4aidl7android8hardware5radio3sim19PhonebookRecordInfoENS_9allocatorIS6_EEEE"
    }
   ],
   "return_type" : "_ZTIN3ndk13ScopedAStatusE",
   "source_file" : "out/soong/.intermediates/hardware/interfaces/radio/aidl/android.hardware.radio.sim-V1-ndk-source/gen/include/aidl/android/hardware/radio/sim/BpRadioSimIndication.h"
  },
  {
   "function_name" : "aidl::android::hardware::radio::sim::BpRadioSimIndication::carrierInfoForImsiEncryption",
   "linker_set_key" : "_ZN4aidl7android8hardware5radio3sim20BpRadioSimIndication28carrierInfoForImsiEncryptionENS2_19RadioIndicationTypeE",
   "parameters" :
   [
    {
     "is_this_ptr" : true,
     "referenced_type" : "_ZTIPN4aidl7android8hardware5radio3sim20BpRadioSimIndicationE"
    },
    {
     "referenced_type" : "_ZTIN4aidl7android8hardware5radio19RadioIndicationTypeE"
    }
   ],
   "return_type" : "_ZTIN3ndk13ScopedAStatusE",
   "source_file" : "out/soong/.intermediates/hardware/interfaces/radio/aidl/android.hardware.radio.sim-V1-ndk-source/gen/include/aidl/android/hardware/radio/sim/BpRadioSimIndication.h"
  },
  {
   "function_name" : "aidl::android::hardware::radio::sim::BpRadioSimIndication::cdmaSubscriptionSourceChanged",
   "linker_set_key" : "_ZN4aidl7android8hardware5radio3sim20BpRadioSimIndication29cdmaSubscriptionSourceChangedENS2_19RadioIndicationTypeENS3_22CdmaSubscriptionSourceE",
   "parameters" :
   [
    {
     "is_this_ptr" : true,
     "referenced_type" : "_ZTIPN4aidl7android8hardware5radio3sim20BpRadioSimIndicationE"
    },
    {
     "referenced_type" : "_ZTIN4aidl7android8hardware5radio19RadioIndicationTypeE"
    },
    {
     "referenced_type" : "_ZTIN4aidl7android8hardware5radio3sim22CdmaSubscriptionSourceE"
    }
   ],
   "return_type" : "_ZTIN3ndk13ScopedAStatusE",
   "source_file" : "out/soong/.intermediates/hardware/interfaces/radio/aidl/android.hardware.radio.sim-V1-ndk-source/gen/include/aidl/android/hardware/radio/sim/BpRadioSimIndication.h"
  },
  {
   "function_name" : "aidl::android::hardware::radio::sim::BpRadioSimIndication::uiccApplicationsEnablementChanged",
   "linker_set_key" : "_ZN4aidl7android8hardware5radio3sim20BpRadioSimIndication33uiccApplicationsEnablementChangedENS2_19RadioIndicationTypeEb",
   "parameters" :
   [
    {
     "is_this_ptr" : true,
     "referenced_type" : "_ZTIPN4aidl7android8hardware5radio3sim20BpRadioSimIndicationE"
    },
    {
     "referenced_type" : "_ZTIN4aidl7android8hardware5radio19RadioIndicationTypeE"
    },
    {
     "referenced_type" : "_ZTIb"
    }
   ],
   "return_type" : "_ZTIN3ndk13ScopedAStatusE",
   "source_file" : "out/soong/.intermediates/hardware/interfaces/radio/aidl/android.hardware.radio.sim-V1-ndk-source/gen/include/aidl/android/hardware/radio/sim/BpRadioSimIndication.h"
  },
  {
   "function_name" : "aidl::android::hardware::radio::sim::BpRadioSimIndication::BpRadioSimIndication",
   "linker_set_key" : "_ZN4aidl7android8hardware5radio3sim20BpRadioSimIndicationC1ERKN3ndk10SpAIBinderE",
   "parameters" :
   [
    {
     "is_this_ptr" : true,
     "referenced_type" : "_ZTIPN4aidl7android8hardware5radio3sim20BpRadioSimIndicationE"
    },
    {
     "referenced_type" : "_ZTIRKN3ndk10SpAIBinderE"
    }
   ],
   "return_type" : "_ZTIv",
   "source_file" : "out/soong/.intermediates/hardware/interfaces/radio/aidl/android.hardware.radio.sim-V1-ndk-source/gen/include/aidl/android/hardware/radio/sim/BpRadioSimIndication.h"
  },
  {
   "function_name" : "aidl::android::hardware::radio::sim::BpRadioSimIndication::BpRadioSimIndication",
   "linker_set_key" : "_ZN4aidl7android8hardware5radio3sim20BpRadioSimIndicationC2ERKN3ndk10SpAIBinderE",
   "parameters" :
   [
    {
     "is_this_ptr" : true,
     "referenced_type" : "_ZTIPN4aidl7android8hardware5radio3sim20BpRadioSimIndicationE"
    },
    {
     "referenced_type" : "_ZTIRKN3ndk10SpAIBinderE"
    }
   ],
   "return_type" : "_ZTIv",
   "source_file" : "out/soong/.intermediates/hardware/interfaces/radio/aidl/android.hardware.radio.sim-V1-ndk-source/gen/include/aidl/android/hardware/radio/sim/BpRadioSimIndication.h"
  },
  {
   "function_name" : "aidl::android::hardware::radio::sim::BpRadioSimIndication::~BpRadioSimIndication",
   "linker_set_key" : "_ZN4aidl7android8hardware5radio3sim20BpRadioSimIndicationD0Ev",
   "parameters" :
   [
    {
     "is_this_ptr" : true,
     "referenced_type" : "_ZTIPN4aidl7android8hardware5radio3sim20BpRadioSimIndicationE"
    }
   ],
   "return_type" : "_ZTIv",
   "source_file" : "out/soong/.intermediates/hardware/interfaces/radio/aidl/android.hardware.radio.sim-V1-ndk-source/gen/include/aidl/android/hardware/radio/sim/BpRadioSimIndication.h"
  },
  {
   "function_name" : "aidl::android::hardware::radio::sim::BpRadioSimIndication::~BpRadioSimIndication",
   "linker_set_key" : "_ZN4aidl7android8hardware5radio3sim20BpRadioSimIndicationD1Ev",
   "parameters" :
   [
    {
     "is_this_ptr" : true,
     "referenced_type" : "_ZTIPN4aidl7android8hardware5radio3sim20BpRadioSimIndicationE"
    }
   ],
   "return_type" : "_ZTIv",
   "source_file" : "out/soong/.intermediates/hardware/interfaces/radio/aidl/android.hardware.radio.sim-V1-ndk-source/gen/include/aidl/android/hardware/radio/sim/BpRadioSimIndication.h"
  },
  {
   "function_name" : "aidl::android::hardware::radio::sim::BpRadioSimIndication::~BpRadioSimIndication",
   "linker_set_key" : "_ZN4aidl7android8hardware5radio3sim20BpRadioSimIndicationD2Ev",
   "parameters" :
   [
    {
     "is_this_ptr" : true,
     "referenced_type" : "_ZTIPN4aidl7android8hardware5radio3sim20BpRadioSimIndicationE"
    }
   ],
   "return_type" : "_ZTIv",
   "source_file" : "out/soong/.intermediates/hardware/interfaces/radio/aidl/android.hardware.radio.sim-V1-ndk-source/gen/include/aidl/android/hardware/radio/sim/BpRadioSimIndication.h"
  },
  {
   "function_name" : "aidl::android::hardware::radio::sim::IRadioSimResponseDefault::getInterfaceHash",
   "linker_set_key" : "_ZN4aidl7android8hardware5radio3sim24IRadioSimResponseDefault16getInterfaceHashEPNSt3__112basic_stringIcNS5_11char_traitsIcEENS5_9allocatorIcEEEE",
   "parameters" :
   [
    {
     "is_this_ptr" : true,
     "referenced_type" : "_ZTIPN4aidl7android8hardware5radio3sim24IRadioSimResponseDefaultE"
    },
    {
     "referenced_type" : "_ZTIPNSt3__112basic_stringIcNS_11char_traitsIcEENS_9allocatorIcEEEE"
    }
   ],
   "return_type" : "_ZTIN3ndk13ScopedAStatusE",
   "source_file" : "out/soong/.intermediates/hardware/interfaces/radio/aidl/android.hardware.radio.sim-V1-ndk-source/gen/include/aidl/android/hardware/radio/sim/IRadioSimResponse.h"
  },
  {
   "function_name" : "aidl::android::hardware::radio::sim::IRadioSimResponseDefault::acknowledgeRequest",
   "linker_set_key" : "_ZN4aidl7android8hardware5radio3sim24IRadioSimResponseDefault18acknowledgeRequestEi",
   "parameters" :
   [
    {
     "is_this_ptr" : true,
     "referenced_type" : "_ZTIPN4aidl7android8hardware5radio3sim24IRadioSimResponseDefaultE"
    },
    {
     "referenced_type" : "_ZTIi"
    }
   ],
   "return_type" : "_ZTIN3ndk13ScopedAStatusE",
   "source_file" : "out/soong/.intermediates/hardware/interfaces/radio/aidl/android.hardware.radio.sim-V1-ndk-source/gen/include/aidl/android/hardware/radio/sim/IRadioSimResponse.h"
  },
  {
   "function_name" : "aidl::android::hardware::radio::sim::IRadioSimResponseDefault::getInterfaceVersion",
   "linker_set_key" : "_ZN4aidl7android8hardware5radio3sim24IRadioSimResponseDefault19getInterfaceVersionEPi",
   "parameters" :
   [
    {
     "is_this_ptr" : true,
     "referenced_type" : "_ZTIPN4aidl7android8hardware5radio3sim24IRadioSimResponseDefaultE"
    },
    {
     "referenced_type" : "_ZTIPi"
    }
   ],
   "return_type" : "_ZTIN3ndk13ScopedAStatusE",
   "source_file" : "out/soong/.intermediates/hardware/interfaces/radio/aidl/android.hardware.radio.sim-V1-ndk-source/gen/include/aidl/android/hardware/radio/sim/IRadioSimResponse.h"
  },
  {
   "function_name" : "aidl::android::hardware::radio::sim::IRadioSimResponseDefault::iccIoForAppResponse",
   "linker_set_key" : "_ZN4aidl7android8hardware5radio3sim24IRadioSimResponseDefault19iccIoForAppResponseERKNS2_17RadioResponseInfoERKNS3_11IccIoResultE",
   "parameters" :
   [
    {
     "is_this_ptr" : true,
     "referenced_type" : "_ZTIPN4aidl7android8hardware5radio3sim24IRadioSimResponseDefaultE"
    },
    {
     "referenced_type" : "_ZTIRKN4aidl7android8hardware5radio17RadioResponseInfoE"
    },
    {
     "referenced_type" : "_ZTIRKN4aidl7android8hardware5radio3sim11IccIoResultE"
    }
   ],
   "return_type" : "_ZTIN3ndk13ScopedAStatusE",
   "source_file" : "out/soong/.intermediates/hardware/interfaces/radio/aidl/android.hardware.radio.sim-V1-ndk-source/gen/include/aidl/android/hardware/radio/sim/IRadioSimResponse.h"
  },
  {
   "function_name" : "aidl::android::hardware::radio::sim::IRadioSimResponseDefault::sendEnvelopeResponse",
   "linker_set_key" : "_ZN4aidl7android8hardware5radio3sim24IRadioSimResponseDefault20sendEnvelopeResponseERKNS2_17RadioResponseInfoERKNSt3__112basic_stringIcNS8_11char_traitsIcEENS8_9allocatorIcEEEE",
   "parameters" :
   [
    {
     "is_this_ptr" : true,
     "referenced_type" : "_ZTIPN4aidl7android8hardware5radio3sim24IRadioSimResponseDefaultE"
    },
    {
     "referenced_type" : "_ZTIRKN4aidl7android8hardware5radio17RadioResponseInfoE"
    },
    {
     "referenced_type" : "_ZTIRKNSt3__112basic_stringIcNS_11char_traitsIcEENS_9allocatorIcEEEE"
    }
   ],
   "return_type" : "_ZTIN3ndk13ScopedAStatusE",
   "source_file" : "out/soong/.intermediates/hardware/interfaces/radio/aidl/android.hardware.radio.sim-V1-ndk-source/gen/include/aidl/android/hardware/radio/sim/IRadioSimResponse.h"
  },
  {
   "function_name" : "aidl::android::hardware::radio::sim::IRadioSimResponseDefault::getImsiForAppResponse",
   "linker_set_key" : "_ZN4aidl7android8hardware5radio3sim24IRadioSimResponseDefault21getImsiForAppResponseERKNS2_17RadioResponseInfoERKNSt3__112basic_stringIcNS8_11char_traitsIcEENS8_9allocatorIcEEEE",
   "parameters" :
   [
    {
     "is_this_ptr" : true,
     "referenced_type" : "_ZTIPN4aidl7android8hardware5radio3sim24IRadioSimResponseDefaultE"
    },
    {
     "referenced_type" : "_ZTIRKN4aidl7android8hardware5radio17RadioResponseInfoE"
    },
    {
     "referenced_type" : "_ZTIRKNSt3__112basic_stringIcNS_11char_traitsIcEENS_9allocatorIcEEEE"
    }
   ],
   "return_type" : "_ZTIN3ndk13ScopedAStatusE",
   "source_file" : "out/soong/.intermediates/hardware/interfaces/radio/aidl/android.hardware.radio.sim-V1-ndk-source/gen/include/aidl/android/hardware/radio/sim/IRadioSimResponse.h"
  },
  {
   "function_name" : "aidl::android::hardware::radio::sim::IRadioSimResponseDefault::setSimCardPowerResponse",
   "linker_set_key" : "_ZN4aidl7android8hardware5radio3sim24IRadioSimResponseDefault23setSimCardPowerResponseERKNS2_17RadioResponseInfoE",
   "parameters" :
   [
    {
     "is_this_ptr" : true,
     "referenced_type" : "_ZTIPN4aidl7android8hardware5radio3sim24IRadioSimResponseDefaultE"
    },
    {
     "referenced_type" : "_ZTIRKN4aidl7android8hardware5radio17RadioResponseInfoE"
    }
   ],
   "return_type" : "_ZTIN3ndk13ScopedAStatusE",
   "source_file" : "out/soong/.intermediates/hardware/interfaces/radio/aidl/android.hardware.radio.sim-V1-ndk-source/gen/include/aidl/android/hardware/radio/sim/IRadioSimResponse.h"
  },
  {
   "function_name" : "aidl::android::hardware::radio::sim::IRadioSimResponseDefault::getIccCardStatusResponse",
   "linker_set_key" : "_ZN4aidl7android8hardware5radio3sim24IRadioSimResponseDefault24getIccCardStatusResponseERKNS2_17RadioResponseInfoERKNS3_10CardStatusE",
   "parameters" :
   [
    {
     "is_this_ptr" : true,
     "referenced_type" : "_ZTIPN4aidl7android8hardware5radio3sim24IRadioSimResponseDefaultE"
    },
    {
     "referenced_type" : "_ZTIRKN4aidl7android8hardware5radio17RadioResponseInfoE"
    },
    {
     "referenced_type" : "_ZTIRKN4aidl7android8hardware5radio3sim10CardStatusE"
    }
   ],
   "return_type" : "_ZTIN3ndk13ScopedAStatusE",
   "source_file" : "out/soong/.intermediates/hardware/interfaces/radio/aidl/android.hardware.radio.sim-V1-ndk-source/gen/include/aidl/android/hardware/radio/sim/IRadioSimResponse.h"
  },
  {
   "function_name" : "aidl::android::hardware::radio::sim::IRadioSimResponseDefault::changeIccPinForAppResponse",
   "linker_set_key" : "_ZN4aidl7android8hardware5radio3sim24IRadioSimResponseDefault26changeIccPinForAppResponseERKNS2_17RadioResponseInfoEi",
   "parameters" :
   [
    {
     "is_this_ptr" : true,
     "referenced_type" : "_ZTIPN4aidl7android8hardware5radio3sim24IRadioSimResponseDefaultE"
    },
    {
     "referenced_type" : "_ZTIRKN4aidl7android8hardware5radio17RadioResponseInfoE"
    },
    {
     "referenced_type" : "_ZTIi"
    }
   ],
   "return_type" : "_ZTIN3ndk13ScopedAStatusE",
   "source_file" : "out/soong/.intermediates/hardware/interfaces/radio/aidl/android.hardware.radio.sim-V1-ndk-source/gen/include/aidl/android/hardware/radio/sim/IRadioSimResponse.h"
  },
  {
   "function_name" : "aidl::android::hardware::radio::sim::IRadioSimResponseDefault::getAllowedCarriersResponse",
   "linker_set_key" : "_ZN4aidl7android8hardware5radio3sim24IRadioSimResponseDefault26getAllowedCarriersResponseERKNS2_17RadioResponseInfoERKNS3_19CarrierRestrictionsENS3_21SimLockMultiSimPolicyE",
   "parameters" :
   [
    {
     "is_this_ptr" : true,
     "referenced_type" : "_ZTIPN4aidl7android8hardware5radio3sim24IRadioSimResponseDefaultE"
    },
    {
     "referenced_type" : "_ZTIRKN4aidl7android8hardware5radio17RadioResponseInfoE"
    },
    {
     "referenced_type" : "_ZTIRKN4aidl7android8hardware5radio3sim19CarrierRestrictionsE"
    },
    {
     "referenced_type" : "_ZTIN4aidl7android8hardware5radio3sim21SimLockMultiSimPolicyE"
    }
   ],
   "return_type" : "_ZTIN3ndk13ScopedAStatusE",
   "source_file" : "out/soong/.intermediates/hardware/interfaces/radio/aidl/android.hardware.radio.sim-V1-ndk-source/gen/include/aidl/android/hardware/radio/sim/IRadioSimResponse.h"
  },
  {
   "function_name" : "aidl::android::hardware::radio::sim::IRadioSimResponseDefault::setAllowedCarriersResponse",
   "linker_set_key" : "_ZN4aidl7android8hardware5radio3sim24IRadioSimResponseDefault26setAllowedCarriersResponseERKNS2_17RadioResponseInfoE",
   "parameters" :
   [
    {
     "is_this_ptr" : true,
     "referenced_type" : "_ZTIPN4aidl7android8hardware5radio3sim24IRadioSimResponseDefaultE"
    },
    {
     "referenced_type" : "_ZTIRKN4aidl7android8hardware5radio17RadioResponseInfoE"
    }
   ],
   "return_type" : "_ZTIN3ndk13ScopedAStatusE",
   "source_file" : "out/soong/.intermediates/hardware/interfaces/radio/aidl/android.hardware.radio.sim-V1-ndk-source/gen/include/aidl/android/hardware/radio/sim/IRadioSimResponse.h"
  },
  {
   "function_name" : "aidl::android::hardware::radio::sim::IRadioSimResponseDefault::supplyIccPinForAppResponse",
   "linker_set_key" : "_ZN4aidl7android8hardware5radio3sim24IRadioSimResponseDefault26supplyIccPinForAppResponseERKNS2_17RadioResponseInfoEi",
   "parameters" :
   [
    {
     "is_this_ptr" : true,
     "referenced_type" : "_ZTIPN4aidl7android8hardware5radio3sim24IRadioSimResponseDefaultE"
    },
    {
     "referenced_type" : "_ZTIRKN4aidl7android8hardware5radio17RadioResponseInfoE"
    },
    {
     "referenced_type" : "_ZTIi"
    }
   ],
   "return_type" : "_ZTIN3ndk13ScopedAStatusE",
   "source_file" : "out/soong/.intermediates/hardware/interfaces/radio/aidl/android.hardware.radio.sim-V1-ndk-source/gen/include/aidl/android/hardware/radio/sim/IRadioSimResponse.h"
  },
  {
   "function_name" : "aidl::android::hardware::radio::sim::IRadioSimResponseDefault::supplyIccPukForAppResponse",
   "linker_set_key" : "_ZN4aidl7android8hardware5radio3sim24IRadioSimResponseDefault26supplyIccPukForAppResponseERKNS2_17RadioResponseInfoEi",
   "parameters" :
   [
    {
     "is_this_ptr" : true,
     "referenced_type" : "_ZTIPN4aidl7android8hardware5radio3sim24IRadioSimResponseDefaultE"
    },
    {
     "referenced_type" : "_ZTIRKN4aidl7android8hardware5radio17RadioResponseInfoE"
    },
    {
     "referenced_type" : "_ZTIi"
    }
   ],
   "return_type" : "_ZTIN3ndk13ScopedAStatusE",
   "source_file" : "out/soong/.intermediates/hardware/interfaces/radio/aidl/android.hardware.radio.sim-V1-ndk-source/gen/include/aidl/android/hardware/radio/sim/IRadioSimResponse.h"
  },
  {
   "function_name" : "aidl::android::hardware::radio::sim::IRadioSimResponseDefault::changeIccPin2ForAppResponse",
   "linker_set_key" : "_ZN4aidl7android8hardware5radio3sim24IRadioSimResponseDefault27changeIccPin2ForAppResponseERKNS2_17RadioResponseInfoEi",
   "parameters" :
   [
    {
     "is_this_ptr" : true,
     "referenced_type" : "_ZTIPN4aidl7android8hardware5radio3sim24IRadioSimResponseDefaultE"
    },
    {
     "referenced_type" : "_ZTIRKN4aidl7android8hardware5radio17RadioResponseInfoE"
    },
    {
     "referenced_type" : "_ZTIi"
    }
   ],
   "return_type" : "_ZTIN3ndk13ScopedAStatusE",
   "source_file" : "out/soong/.intermediates/hardware/interfaces/radio/aidl/android.hardware.radio.sim-V1-ndk-source/gen/include/aidl/android/hardware/radio/sim/IRadioSimResponse.h"
  },
  {
   "function_name" : "aidl::android::hardware::radio::sim::IRadioSimResponseDefault::getCdmaSubscriptionResponse",
   "linker_set_key" : "_ZN4aidl7android8hardware5radio3sim24IRadioSimResponseDefault27getCdmaSubscriptionResponseERKNS2_17RadioResponseInfoERKNSt3__112basic_stringIcNS8_11char_traitsIcEENS8_9allocatorIcEEEESG_SG_SG_SG_",
   "parameters" :
   [
    {
     "is_this_ptr" : true,
     "referenced_type" : "_ZTIPN4aidl7android8hardware5radio3sim24IRadioSimResponseDefaultE"
    },
    {
     "referenced_type" : "_ZTIRKN4aidl7android8hardware5radio17RadioResponseInfoE"
    },
    {
     "referenced_type" : "_ZTIRKNSt3__112basic_stringIcNS_11char_traitsIcEENS_9allocatorIcEEEE"
    },
    {
     "referenced_type" : "_ZTIRKNSt3__112basic_stringIcNS_11char_traitsIcEENS_9allocatorIcEEEE"
    },
    {
     "referenced_type" : "_ZTIRKNSt3__112basic_stringIcNS_11char_traitsIcEENS_9allocatorIcEEEE"
    },
    {
     "referenced_type" : "_ZTIRKNSt3__112basic_stringIcNS_11char_traitsIcEENS_9allocatorIcEEEE"
    },
    {
     "referenced_type" : "_ZTIRKNSt3__112basic_stringIcNS_11char_traitsIcEENS_9allocatorIcEEEE"
    }
   ],
   "return_type" : "_ZTIN3ndk13ScopedAStatusE",
   "source_file" : "out/soong/.intermediates/hardware/interfaces/radio/aidl/android.hardware.radio.sim-V1-ndk-source/gen/include/aidl/android/hardware/radio/sim/IRadioSimResponse.h"
  },
  {
   "function_name" : "aidl::android::hardware::radio::sim::IRadioSimResponseDefault::setUiccSubscriptionResponse",
   "linker_set_key" : "_ZN4aidl7android8hardware5radio3sim24IRadioSimResponseDefault27setUiccSubscriptionResponseERKNS2_17RadioResponseInfoE",
   "parameters" :
   [
    {
     "is_this_ptr" : true,
     "referenced_type" : "_ZTIPN4aidl7android8hardware5radio3sim24IRadioSimResponseDefaultE"
    },
    {
     "referenced_type" : "_ZTIRKN4aidl7android8hardware5radio17RadioResponseInfoE"
    }
   ],
   "return_type" : "_ZTIN3ndk13ScopedAStatusE",
   "source_file" : "out/soong/.intermediates/hardware/interfaces/radio/aidl/android.hardware.radio.sim-V1-ndk-source/gen/include/aidl/android/hardware/radio/sim/IRadioSimResponse.h"
  },
  {
   "function_name" : "aidl::android::hardware::radio::sim::IRadioSimResponseDefault::supplyIccPin2ForAppResponse",
   "linker_set_key" : "_ZN4aidl7android8hardware5radio3sim24IRadioSimResponseDefault27supplyIccPin2ForAppResponseERKNS2_17RadioResponseInfoEi",
   "parameters" :
   [
    {
     "is_this_ptr" : true,
     "referenced_type" : "_ZTIPN4aidl7android8hardware5radio3sim24IRadioSimResponseDefaultE"
    },
    {
     "referenced_type" : "_ZTIRKN4aidl7android8hardware5radio17RadioResponseInfoE"
    },
    {
     "referenced_type" : "_ZTIi"
    }
   ],
   "return_type" : "_ZTIN3ndk13ScopedAStatusE",
   "source_file" : "out/soong/.intermediates/hardware/interfaces/radio/aidl/android.hardware.radio.sim-V1-ndk-source/gen/include/aidl/android/hardware/radio/sim/IRadioSimResponse.h"
  },
  {
   "function_name" : "aidl::android::hardware::radio::sim::IRadioSimResponseDefault::supplyIccPuk2ForAppResponse",
   "linker_set_key" : "_ZN4aidl7android8hardware5radio3sim24IRadioSimResponseDefault27supplyIccPuk2ForAppResponseERKNS2_17RadioResponseInfoEi",
   "parameters" :
   [
    {
     "is_this_ptr" : true,
     "referenced_type" : "_ZTIPN4aidl7android8hardware5radio3sim24IRadioSimResponseDefaultE"
    },
    {
     "referenced_type" : "_ZTIRKN4aidl7android8hardware5radio17RadioResponseInfoE"
    },
    {
     "referenced_type" : "_ZTIi"
    }
   ],
   "return_type" : "_ZTIN3ndk13ScopedAStatusE",
   "source_file" : "out/soong/.intermediates/hardware/interfaces/radio/aidl/android.hardware.radio.sim-V1-ndk-source/gen/include/aidl/android/hardware/radio/sim/IRadioSimResponse.h"
  },
  {
   "function_name" : "aidl::android::hardware::radio::sim::IRadioSimResponseDefault::getFacilityLockForAppResponse",
   "linker_set_key" : "_ZN4aidl7android8hardware5radio3sim24IRadioSimResponseDefault29getFacilityLockForAppResponseERKNS2_17RadioResponseInfoEi",
   "parameters" :
   [
    {
     "is_this_ptr" : true,
     "referenced_type" : "_ZTIPN4aidl7android8hardware5radio3sim24IRadioSimResponseDefaultE"
    },
    {
     "referenced_type" : "_ZTIRKN4aidl7android8hardware5radio17RadioResponseInfoE"
    },
    {
     "referenced_type" : "_ZTIi"
    }
   ],
   "return_type" : "_ZTIN3ndk13ScopedAStatusE",
   "source_file" : "out/soong/.intermediates/hardware/interfaces/radio/aidl/android.hardware.radio.sim-V1-ndk-source/gen/include/aidl/android/hardware/radio/sim/IRadioSimResponse.h"
  },
  {
   "function_name" : "aidl::android::hardware::radio::sim::IRadioSimResponseDefault::iccOpenLogicalChannelResponse",
   "linker_set_key" : "_ZN4aidl7android8hardware5radio3sim24IRadioSimResponseDefault29iccOpenLogicalChannelResponseERKNS2_17RadioResponseInfoEiRKNSt3__16vectorIhNS8_9allocatorIhEEEE",
   "parameters" :
   [
    {
     "is_this_ptr" : true,
     "referenced_type" : "_ZTIPN4aidl7android8hardware5radio3sim24IRadioSimResponseDefaultE"
    },
    {
     "referenced_type" : "_ZTIRKN4aidl7android8hardware5radio17RadioResponseInfoE"
    },
    {
     "referenced_type" : "_ZTIi"
    },
    {
     "referenced_type" : "_ZTIRKNSt3__16vectorIhNS_9allocatorIhEEEE"
    }
   ],
   "return_type" : "_ZTIN3ndk13ScopedAStatusE",
   "source_file" : "out/soong/.intermediates/hardware/interfaces/radio/aidl/android.hardware.radio.sim-V1-ndk-source/gen/include/aidl/android/hardware/radio/sim/IRadioSimResponse.h"
  },
  {
   "function_name" : "aidl::android::hardware::radio::sim::IRadioSimResponseDefault::setFacilityLockForAppResponse",
   "linker_set_key" : "_ZN4aidl7android8hardware5radio3sim24IRadioSimResponseDefault29setFacilityLockForAppResponseERKNS2_17RadioResponseInfoEi",
   "parameters" :
   [
    {
     "is_this_ptr" : true,
     "referenced_type" : "_ZTIPN4aidl7android8hardware5radio3sim24IRadioSimResponseDefaultE"
    },
    {
     "referenced_type" : "_ZTIRKN4aidl7android8hardware5radio17RadioResponseInfoE"
    },
    {
     "referenced_type" : "_ZTIi"
    }
   ],
   "return_type" : "_ZTIN3ndk13ScopedAStatusE",
   "source_file" : "out/soong/.intermediates/hardware/interfaces/radio/aidl/android.hardware.radio.sim-V1-ndk-source/gen/include/aidl/android/hardware/radio/sim/IRadioSimResponse.h"
  },
  {
   "function_name" : "aidl::android::hardware::radio::sim::IRadioSimResponseDefault::enableUiccApplicationsResponse",
   "linker_set_key" : "_ZN4aidl7android8hardware5radio3sim24IRadioSimResponseDefault30enableUiccApplicationsResponseERKNS2_17RadioResponseInfoE",
   "parameters" :
   [
    {
     "is_this_ptr" : true,
     "referenced_type" : "_ZTIPN4aidl7android8hardware5radio3sim24IRadioSimResponseDefaultE"
    },
    {
     "referenced_type" : "_ZTIRKN4aidl7android8hardware5radio17RadioResponseInfoE"
    }
   ],
   "return_type" : "_ZTIN3ndk13ScopedAStatusE",
   "source_file" : "out/soong/.intermediates/hardware/interfaces/radio/aidl/android.hardware.radio.sim-V1-ndk-source/gen/include/aidl/android/hardware/radio/sim/IRadioSimResponse.h"
  },
  {
   "function_name" : "aidl::android::hardware::radio::sim::IRadioSimResponseDefault::getSimPhonebookRecordsResponse",
   "linker_set_key" : "_ZN4aidl7android8hardware5radio3sim24IRadioSimResponseDefault30getSimPhonebookRecordsResponseERKNS2_17RadioResponseInfoE",
   "parameters" :
   [
    {
     "is_this_ptr" : true,
     "referenced_type" : "_ZTIPN4aidl7android8hardware5radio3sim24IRadioSimResponseDefaultE"
    },
    {
     "referenced_type" : "_ZTIRKN4aidl7android8hardware5radio17RadioResponseInfoE"
    }
   ],
   "return_type" : "_ZTIN3ndk13ScopedAStatusE",
   "source_file" : "out/soong/.intermediates/hardware/interfaces/radio/aidl/android.hardware.radio.sim-V1-ndk-source/gen/include/aidl/android/hardware/radio/sim/IRadioSimResponse.h"
  },
  {
   "function_name" : "aidl::android::hardware::radio::sim::IRadioSimResponseDefault::iccCloseLogicalChannelResponse",
   "linker_set_key" : "_ZN4aidl7android8hardware5radio3sim24IRadioSimResponseDefault30iccCloseLogicalChannelResponseERKNS2_17RadioResponseInfoE",
   "parameters" :
   [
    {
     "is_this_ptr" : true,
     "referenced_type" : "_ZTIPN4aidl7android8hardware5radio3sim24IRadioSimResponseDefaultE"
    },
    {
     "referenced_type" : "_ZTIRKN4aidl7android8hardware5radio17RadioResponseInfoE"
    }
   ],
   "return_type" : "_ZTIN3ndk13ScopedAStatusE",
   "source_file" : "out/soong/.intermediates/hardware/interfaces/radio/aidl/android.hardware.radio.sim-V1-ndk-source/gen/include/aidl/android/hardware/radio/sim/IRadioSimResponse.h"
  },
  {
   "function_name" : "aidl::android::hardware::radio::sim::IRadioSimResponseDefault::sendEnvelopeWithStatusResponse",
   "linker_set_key" : "_ZN4aidl7android8hardware5radio3sim24IRadioSimResponseDefault30sendEnvelopeWithStatusResponseERKNS2_17RadioResponseInfoERKNS3_11IccIoResultE",
   "parameters" :
   [
    {
     "is_this_ptr" : true,
     "referenced_type" : "_ZTIPN4aidl7android8hardware5radio3sim24IRadioSimResponseDefaultE"
    },
    {
     "referenced_type" : "_ZTIRKN4aidl7android8hardware5radio17RadioResponseInfoE"
    },
    {
     "referenced_type" : "_ZTIRKN4aidl7android8hardware5radio3sim11IccIoResultE"
    }
   ],
   "return_type" : "_ZTIN3ndk13ScopedAStatusE",
   "source_file" : "out/soong/.intermediates/hardware/interfaces/radio/aidl/android.hardware.radio.sim-V1-ndk-source/gen/include/aidl/android/hardware/radio/sim/IRadioSimResponse.h"
  },
  {
   "function_name" : "aidl::android::hardware::radio::sim::IRadioSimResponseDefault::getSimPhonebookCapacityResponse",
   "linker_set_key" : "_ZN4aidl7android8hardware5radio3sim24IRadioSimResponseDefault31getSimPhonebookCapacityResponseERKNS2_17RadioResponseInfoERKNS3_17PhonebookCapacityE",
   "parameters" :
   [
    {
     "is_this_ptr" : true,
     "referenced_type" : "_ZTIPN4aidl7android8hardware5radio3sim24IRadioSimResponseDefaultE"
    },
    {
     "referenced_type" : "_ZTIRKN4aidl7android8hardware5radio17RadioResponseInfoE"
    },
    {
     "referenced_type" : "_ZTIRKN4aidl7android8hardware5radio3sim17PhonebookCapacityE"
    }
   ],
   "return_type" : "_ZTIN3ndk13ScopedAStatusE",
   "source_file" : "out/soong/.intermediates/hardware/interfaces/radio/aidl/android.hardware.radio.sim-V1-ndk-source/gen/include/aidl/android/hardware/radio/sim/IRadioSimResponse.h"
  },
  {
   "function_name" : "aidl::android::hardware::radio::sim::IRadioSimResponseDefault::getCdmaSubscriptionSourceResponse",
   "linker_set_key" : "_ZN4aidl7android8hardware5radio3sim24IRadioSimResponseDefault33getCdmaSubscriptionSourceResponseERKNS2_17RadioResponseInfoENS3_22CdmaSubscriptionSourceE",
   "parameters" :
   [
    {
     "is_this_ptr" : true,
     "referenced_type" : "_ZTIPN4aidl7android8hardware5radio3sim24IRadioSimResponseDefaultE"
    },
    {
     "referenced_type" : "_ZTIRKN4aidl7android8hardware5radio17RadioResponseInfoE"
    },
    {
     "referenced_type" : "_ZTIN4aidl7android8hardware5radio3sim22CdmaSubscriptionSourceE"
    }
   ],
   "return_type" : "_ZTIN3ndk13ScopedAStatusE",
   "source_file" : "out/soong/.intermediates/hardware/interfaces/radio/aidl/android.hardware.radio.sim-V1-ndk-source/gen/include/aidl/android/hardware/radio/sim/IRadioSimResponse.h"
  },
  {
   "function_name" : "aidl::android::hardware::radio::sim::IRadioSimResponseDefault::reportStkServiceIsRunningResponse",
   "linker_set_key" : "_ZN4aidl7android8hardware5radio3sim24IRadioSimResponseDefault33reportStkServiceIsRunningResponseERKNS2_17RadioResponseInfoE",
   "parameters" :
   [
    {
     "is_this_ptr" : true,
     "referenced_type" : "_ZTIPN4aidl7android8hardware5radio3sim24IRadioSimResponseDefaultE"
    },
    {
     "referenced_type" : "_ZTIRKN4aidl7android8hardware5radio17RadioResponseInfoE"
    }
   ],
   "return_type" : "_ZTIN3ndk13ScopedAStatusE",
   "source_file" : "out/soong/.intermediates/hardware/interfaces/radio/aidl/android.hardware.radio.sim-V1-ndk-source/gen/include/aidl/android/hardware/radio/sim/IRadioSimResponse.h"
  },
  {
   "function_name" : "aidl::android::hardware::radio::sim::IRadioSimResponseDefault::sendTerminalResponseToSimResponse",
   "linker_set_key" : "_ZN4aidl7android8hardware5radio3sim24IRadioSimResponseDefault33sendTerminalResponseToSimResponseERKNS2_17RadioResponseInfoE",
   "parameters" :
   [
    {
     "is_this_ptr" : true,
     "referenced_type" : "_ZTIPN4aidl7android8hardware5radio3sim24IRadioSimResponseDefaultE"
    },
    {
     "referenced_type" : "_ZTIRKN4aidl7android8hardware5radio17RadioResponseInfoE"
    }
   ],
   "return_type" : "_ZTIN3ndk13ScopedAStatusE",
   "source_file" : "out/soong/.intermediates/hardware/interfaces/radio/aidl/android.hardware.radio.sim-V1-ndk-source/gen/include/aidl/android/hardware/radio/sim/IRadioSimResponse.h"
  },
  {
   "function_name" : "aidl::android::hardware::radio::sim::IRadioSimResponseDefault::setCdmaSubscriptionSourceResponse",
   "linker_set_key" : "_ZN4aidl7android8hardware5radio3sim24IRadioSimResponseDefault33setCdmaSubscriptionSourceResponseERKNS2_17RadioResponseInfoE",
   "parameters" :
   [
    {
     "is_this_ptr" : true,
     "referenced_type" : "_ZTIPN4aidl7android8hardware5radio3sim24IRadioSimResponseDefaultE"
    },
    {
     "referenced_type" : "_ZTIRKN4aidl7android8hardware5radio17RadioResponseInfoE"
    }
   ],
   "return_type" : "_ZTIN3ndk13ScopedAStatusE",
   "source_file" : "out/soong/.intermediates/hardware/interfaces/radio/aidl/android.hardware.radio.sim-V1-ndk-source/gen/include/aidl/android/hardware/radio/sim/IRadioSimResponse.h"
  },
  {
   "function_name" : "aidl::android::hardware::radio::sim::IRadioSimResponseDefault::updateSimPhonebookRecordsResponse",
   "linker_set_key" : "_ZN4aidl7android8hardware5radio3sim24IRadioSimResponseDefault33updateSimPhonebookRecordsResponseERKNS2_17RadioResponseInfoEi",
   "parameters" :
   [
    {
     "is_this_ptr" : true,
     "referenced_type" : "_ZTIPN4aidl7android8hardware5radio3sim24IRadioSimResponseDefaultE"
    },
    {
     "referenced_type" : "_ZTIRKN4aidl7android8hardware5radio17RadioResponseInfoE"
    },
    {
     "referenced_type" : "_ZTIi"
    }
   ],
   "return_type" : "_ZTIN3ndk13ScopedAStatusE",
   "source_file" : "out/soong/.intermediates/hardware/interfaces/radio/aidl/android.hardware.radio.sim-V1-ndk-source/gen/include/aidl/android/hardware/radio/sim/IRadioSimResponse.h"
  },
  {
   "function_name" : "aidl::android::hardware::radio::sim::IRadioSimResponseDefault::areUiccApplicationsEnabledResponse",
   "linker_set_key" : "_ZN4aidl7android8hardware5radio3sim24IRadioSimResponseDefault34areUiccApplicationsEnabledResponseERKNS2_17RadioResponseInfoEb",
   "parameters" :
   [
    {
     "is_this_ptr" : true,
     "referenced_type" : "_ZTIPN4aidl7android8hardware5radio3sim24IRadioSimResponseDefaultE"
    },
    {
     "referenced_type" : "_ZTIRKN4aidl7android8hardware5radio17RadioResponseInfoE"
    },
    {
     "referenced_type" : "_ZTIb"
    }
   ],
   "return_type" : "_ZTIN3ndk13ScopedAStatusE",
   "source_file" : "out/soong/.intermediates/hardware/interfaces/radio/aidl/android.hardware.radio.sim-V1-ndk-source/gen/include/aidl/android/hardware/radio/sim/IRadioSimResponse.h"
  },
  {
   "function_name" : "aidl::android::hardware::radio::sim::IRadioSimResponseDefault::supplySimDepersonalizationResponse",
   "linker_set_key" : "_ZN4aidl7android8hardware5radio3sim24IRadioSimResponseDefault34supplySimDepersonalizationResponseERKNS2_17RadioResponseInfoENS3_13PersoSubstateEi",
   "parameters" :
   [
    {
     "is_this_ptr" : true,
     "referenced_type" : "_ZTIPN4aidl7android8hardware5radio3sim24IRadioSimResponseDefaultE"
    },
    {
     "referenced_type" : "_ZTIRKN4aidl7android8hardware5radio17RadioResponseInfoE"
    },
    {
     "referenced_type" : "_ZTIN4aidl7android8hardware5radio3sim13PersoSubstateE"
    },
    {
     "referenced_type" : "_ZTIi"
    }
   ],
   "return_type" : "_ZTIN3ndk13ScopedAStatusE",
   "source_file" : "out/soong/.intermediates/hardware/interfaces/radio/aidl/android.hardware.radio.sim-V1-ndk-source/gen/include/aidl/android/hardware/radio/sim/IRadioSimResponse.h"
  },
  {
   "function_name" : "aidl::android::hardware::radio::sim::IRadioSimResponseDefault::iccTransmitApduBasicChannelResponse",
   "linker_set_key" : "_ZN4aidl7android8hardware5radio3sim24IRadioSimResponseDefault35iccTransmitApduBasicChannelResponseERKNS2_17RadioResponseInfoERKNS3_11IccIoResultE",
   "parameters" :
   [
    {
     "is_this_ptr" : true,
     "referenced_type" : "_ZTIPN4aidl7android8hardware5radio3sim24IRadioSimResponseDefaultE"
    },
    {
     "referenced_type" : "_ZTIRKN4aidl7android8hardware5radio17RadioResponseInfoE"
    },
    {
     "referenced_type" : "_ZTIRKN4aidl7android8hardware5radio3sim11IccIoResultE"
    }
   ],
   "return_type" : "_ZTIN3ndk13ScopedAStatusE",
   "source_file" : "out/soong/.intermediates/hardware/interfaces/radio/aidl/android.hardware.radio.sim-V1-ndk-source/gen/include/aidl/android/hardware/radio/sim/IRadioSimResponse.h"
  },
  {
   "function_name" : "aidl::android::hardware::radio::sim::IRadioSimResponseDefault::requestIccSimAuthenticationResponse",
   "linker_set_key" : "_ZN4aidl7android8hardware5radio3sim24IRadioSimResponseDefault35requestIccSimAuthenticationResponseERKNS2_17RadioResponseInfoERKNS3_11IccIoResultE",
   "parameters" :
   [
    {
     "is_this_ptr" : true,
     "referenced_type" : "_ZTIPN4aidl7android8hardware5radio3sim24IRadioSimResponseDefaultE"
    },
    {
     "referenced_type" : "_ZTIRKN4aidl7android8hardware5radio17RadioResponseInfoE"
    },
    {
     "referenced_type" : "_ZTIRKN4aidl7android8hardware5radio3sim11IccIoResultE"
    }
   ],
   "return_type" : "_ZTIN3ndk13ScopedAStatusE",
   "source_file" : "out/soong/.intermediates/hardware/interfaces/radio/aidl/android.hardware.radio.sim-V1-ndk-source/gen/include/aidl/android/hardware/radio/sim/IRadioSimResponse.h"
  },
  {
   "function_name" : "aidl::android::hardware::radio::sim::IRadioSimResponseDefault::iccTransmitApduLogicalChannelResponse",
   "linker_set_key" : "_ZN4aidl7android8hardware5radio3sim24IRadioSimResponseDefault37iccTransmitApduLogicalChannelResponseERKNS2_17RadioResponseInfoERKNS3_11IccIoResultE",
   "parameters" :
   [
    {
     "is_this_ptr" : true,
     "referenced_type" : "_ZTIPN4aidl7android8hardware5radio3sim24IRadioSimResponseDefaultE"
    },
    {
     "referenced_type" : "_ZTIRKN4aidl7android8hardware5radio17RadioResponseInfoE"
    },
    {
     "referenced_type" : "_ZTIRKN4aidl7android8hardware5radio3sim11IccIoResultE"
    }
   ],
   "return_type" : "_ZTIN3ndk13ScopedAStatusE",
   "source_file" : "out/soong/.intermediates/hardware/interfaces/radio/aidl/android.hardware.radio.sim-V1-ndk-source/gen/include/aidl/android/hardware/radio/sim/IRadioSimResponse.h"
  },
  {
   "function_name" : "aidl::android::hardware::radio::sim::IRadioSimResponseDefault::setCarrierInfoForImsiEncryptionResponse",
   "linker_set_key" : "_ZN4aidl7android8hardware5radio3sim24IRadioSimResponseDefault39setCarrierInfoForImsiEncryptionResponseERKNS2_17RadioResponseInfoE",
   "parameters" :
   [
    {
     "is_this_ptr" : true,
     "referenced_type" : "_ZTIPN4aidl7android8hardware5radio3sim24IRadioSimResponseDefaultE"
    },
    {
     "referenced_type" : "_ZTIRKN4aidl7android8hardware5radio17RadioResponseInfoE"
    }
   ],
   "return_type" : "_ZTIN3ndk13ScopedAStatusE",
   "source_file" : "out/soong/.intermediates/hardware/interfaces/radio/aidl/android.hardware.radio.sim-V1-ndk-source/gen/include/aidl/android/hardware/radio/sim/IRadioSimResponse.h"
  },
  {
   "function_name" : "aidl::android::hardware::radio::sim::IRadioSimResponseDefault::asBinder",
   "linker_set_key" : "_ZN4aidl7android8hardware5radio3sim24IRadioSimResponseDefault8asBinderEv",
   "parameters" :
   [
    {
     "is_this_ptr" : true,
     "referenced_type" : "_ZTIPN4aidl7android8hardware5radio3sim24IRadioSimResponseDefaultE"
    }
   ],
   "return_type" : "_ZTIN3ndk10SpAIBinderE",
   "source_file" : "out/soong/.intermediates/hardware/interfaces/radio/aidl/android.hardware.radio.sim-V1-ndk-source/gen/include/aidl/android/hardware/radio/sim/IRadioSimResponse.h"
  },
  {
   "function_name" : "aidl::android::hardware::radio::sim::IRadioSimResponseDefault::isRemote",
   "linker_set_key" : "_ZN4aidl7android8hardware5radio3sim24IRadioSimResponseDefault8isRemoteEv",
   "parameters" :
   [
    {
     "is_this_ptr" : true,
     "referenced_type" : "_ZTIPN4aidl7android8hardware5radio3sim24IRadioSimResponseDefaultE"
    }
   ],
   "return_type" : "_ZTIb",
   "source_file" : "out/soong/.intermediates/hardware/interfaces/radio/aidl/android.hardware.radio.sim-V1-ndk-source/gen/include/aidl/android/hardware/radio/sim/IRadioSimResponse.h"
  },
  {
   "function_name" : "aidl::android::hardware::radio::sim::IRadioSimIndicationDefault::simRefresh",
   "linker_set_key" : "_ZN4aidl7android8hardware5radio3sim26IRadioSimIndicationDefault10simRefreshENS2_19RadioIndicationTypeERKNS3_16SimRefreshResultE",
   "parameters" :
   [
    {
     "is_this_ptr" : true,
     "referenced_type" : "_ZTIPN4aidl7android8hardware5radio3sim26IRadioSimIndicationDefaultE"
    },
    {
     "referenced_type" : "_ZTIN4aidl7android8hardware5radio19RadioIndicationTypeE"
    },
    {
     "referenced_type" : "_ZTIRKN4aidl7android8hardware5radio3sim16SimRefreshResultE"
    }
   ],
   "return_type" : "_ZTIN3ndk13ScopedAStatusE",
   "source_file" : "out/soong/.intermediates/hardware/interfaces/radio/aidl/android.hardware.radio.sim-V1-ndk-source/gen/include/aidl/android/hardware/radio/sim/IRadioSimIndication.h"
  },
  {
   "function_name" : "aidl::android::hardware::radio::sim::IRadioSimIndicationDefault::stkSessionEnd",
   "linker_set_key" : "_ZN4aidl7android8hardware5radio3sim26IRadioSimIndicationDefault13stkSessionEndENS2_19RadioIndicationTypeE",
   "parameters" :
   [
    {
     "is_this_ptr" : true,
     "referenced_type" : "_ZTIPN4aidl7android8hardware5radio3sim26IRadioSimIndicationDefaultE"
    },
    {
     "referenced_type" : "_ZTIN4aidl7android8hardware5radio19RadioIndicationTypeE"
    }
   ],
   "return_type" : "_ZTIN3ndk13ScopedAStatusE",
   "source_file" : "out/soong/.intermediates/hardware/interfaces/radio/aidl/android.hardware.radio.sim-V1-ndk-source/gen/include/aidl/android/hardware/radio/sim/IRadioSimIndication.h"
  },
  {
   "function_name" : "aidl::android::hardware::radio::sim::IRadioSimIndicationDefault::stkEventNotify",
   "linker_set_key" : "_ZN4aidl7android8hardware5radio3sim26IRadioSimIndicationDefault14stkEventNotifyENS2_19RadioIndicationTypeERKNSt3__112basic_stringIcNS6_11char_traitsIcEENS6_9allocatorIcEEEE",
   "parameters" :
   [
    {
     "is_this_ptr" : true,
     "referenced_type" : "_ZTIPN4aidl7android8hardware5radio3sim26IRadioSimIndicationDefaultE"
    },
    {
     "referenced_type" : "_ZTIN4aidl7android8hardware5radio19RadioIndicationTypeE"
    },
    {
     "referenced_type" : "_ZTIRKNSt3__112basic_stringIcNS_11char_traitsIcEENS_9allocatorIcEEEE"
    }
   ],
   "return_type" : "_ZTIN3ndk13ScopedAStatusE",
   "source_file" : "out/soong/.intermediates/hardware/interfaces/radio/aidl/android.hardware.radio.sim-V1-ndk-source/gen/include/aidl/android/hardware/radio/sim/IRadioSimIndication.h"
  },
  {
   "function_name" : "aidl::android::hardware::radio::sim::IRadioSimIndicationDefault::getInterfaceHash",
   "linker_set_key" : "_ZN4aidl7android8hardware5radio3sim26IRadioSimIndicationDefault16getInterfaceHashEPNSt3__112basic_stringIcNS5_11char_traitsIcEENS5_9allocatorIcEEEE",
   "parameters" :
   [
    {
     "is_this_ptr" : true,
     "referenced_type" : "_ZTIPN4aidl7android8hardware5radio3sim26IRadioSimIndicationDefaultE"
    },
    {
     "referenced_type" : "_ZTIPNSt3__112basic_stringIcNS_11char_traitsIcEENS_9allocatorIcEEEE"
    }
   ],
   "return_type" : "_ZTIN3ndk13ScopedAStatusE",
   "source_file" : "out/soong/.intermediates/hardware/interfaces/radio/aidl/android.hardware.radio.sim-V1-ndk-source/gen/include/aidl/android/hardware/radio/sim/IRadioSimIndication.h"
  },
  {
   "function_name" : "aidl::android::hardware::radio::sim::IRadioSimIndicationDefault::simStatusChanged",
   "linker_set_key" : "_ZN4aidl7android8hardware5radio3sim26IRadioSimIndicationDefault16simStatusChangedENS2_19RadioIndicationTypeE",
   "parameters" :
   [
    {
     "is_this_ptr" : true,
     "referenced_type" : "_ZTIPN4aidl7android8hardware5radio3sim26IRadioSimIndicationDefaultE"
    },
    {
     "referenced_type" : "_ZTIN4aidl7android8hardware5radio19RadioIndicationTypeE"
    }
   ],
   "return_type" : "_ZTIN3ndk13ScopedAStatusE",
   "source_file" : "out/soong/.intermediates/hardware/interfaces/radio/aidl/android.hardware.radio.sim-V1-ndk-source/gen/include/aidl/android/hardware/radio/sim/IRadioSimIndication.h"
  },
  {
   "function_name" : "aidl::android::hardware::radio::sim::IRadioSimIndicationDefault::getInterfaceVersion",
   "linker_set_key" : "_ZN4aidl7android8hardware5radio3sim26IRadioSimIndicationDefault19getInterfaceVersionEPi",
   "parameters" :
   [
    {
     "is_this_ptr" : true,
     "referenced_type" : "_ZTIPN4aidl7android8hardware5radio3sim26IRadioSimIndicationDefaultE"
    },
    {
     "referenced_type" : "_ZTIPi"
    }
   ],
   "return_type" : "_ZTIN3ndk13ScopedAStatusE",
   "source_file" : "out/soong/.intermediates/hardware/interfaces/radio/aidl/android.hardware.radio.sim-V1-ndk-source/gen/include/aidl/android/hardware/radio/sim/IRadioSimIndication.h"
  },
  {
   "function_name" : "aidl::android::hardware::radio::sim::IRadioSimIndicationDefault::simPhonebookChanged",
   "linker_set_key" : "_ZN4aidl7android8hardware5radio3sim26IRadioSimIndicationDefault19simPhonebookChangedENS2_19RadioIndicationTypeE",
   "parameters" :
   [
    {
     "is_this_ptr" : true,
     "referenced_type" : "_ZTIPN4aidl7android8hardware5radio3sim26IRadioSimIndicationDefaultE"
    },
    {
     "referenced_type" : "_ZTIN4aidl7android8hardware5radio19RadioIndicationTypeE"
    }
   ],
   "return_type" : "_ZTIN3ndk13ScopedAStatusE",
   "source_file" : "out/soong/.intermediates/hardware/interfaces/radio/aidl/android.hardware.radio.sim-V1-ndk-source/gen/include/aidl/android/hardware/radio/sim/IRadioSimIndication.h"
  },
  {
   "function_name" : "aidl::android::hardware::radio::sim::IRadioSimIndicationDefault::stkProactiveCommand",
   "linker_set_key" : "_ZN4aidl7android8hardware5radio3sim26IRadioSimIndicationDefault19stkProactiveCommandENS2_19RadioIndicationTypeERKNSt3__112basic_stringIcNS6_11char_traitsIcEENS6_9allocatorIcEEEE",
   "parameters" :
   [
    {
     "is_this_ptr" : true,
     "referenced_type" : "_ZTIPN4aidl7android8hardware5radio3sim26IRadioSimIndicationDefaultE"
    },
    {
     "referenced_type" : "_ZTIN4aidl7android8hardware5radio19RadioIndicationTypeE"
    },
    {
     "referenced_type" : "_ZTIRKNSt3__112basic_stringIcNS_11char_traitsIcEENS_9allocatorIcEEEE"
    }
   ],
   "return_type" : "_ZTIN3ndk13ScopedAStatusE",
   "source_file" : "out/soong/.intermediates/hardware/interfaces/radio/aidl/android.hardware.radio.sim-V1-ndk-source/gen/include/aidl/android/hardware/radio/sim/IRadioSimIndication.h"
  },
  {
   "function_name" : "aidl::android::hardware::radio::sim::IRadioSimIndicationDefault::subscriptionStatusChanged",
   "linker_set_key" : "_ZN4aidl7android8hardware5radio3sim26IRadioSimIndicationDefault25subscriptionStatusChangedENS2_19RadioIndicationTypeEb",
   "parameters" :
   [
    {
     "is_this_ptr" : true,
     "referenced_type" : "_ZTIPN4aidl7android8hardware5radio3sim26IRadioSimIndicationDefaultE"
    },
    {
     "referenced_type" : "_ZTIN4aidl7android8hardware5radio19RadioIndicationTypeE"
    },
    {
     "referenced_type" : "_ZTIb"
    }
   ],
   "return_type" : "_ZTIN3ndk13ScopedAStatusE",
   "source_file" : "out/soong/.intermediates/hardware/interfaces/radio/aidl/android.hardware.radio.sim-V1-ndk-source/gen/include/aidl/android/hardware/radio/sim/IRadioSimIndication.h"
  },
  {
   "function_name" : "aidl::android::hardware::radio::sim::IRadioSimIndicationDefault::simPhonebookRecordsReceived",
   "linker_set_key" : "_ZN4aidl7android8hardware5radio3sim26IRadioSimIndicationDefault27simPhonebookRecordsReceivedENS2_19RadioIndicationTypeENS3_16PbReceivedStatusERKNSt3__16vectorINS3_19PhonebookRecordInfoENS7_9allocatorIS9_EEEE",
   "parameters" :
   [
    {
     "is_this_ptr" : true,
     "referenced_type" : "_ZTIPN4aidl7android8hardware5radio3sim26IRadioSimIndicationDefaultE"
    },
    {
     "referenced_type" : "_ZTIN4aidl7android8hardware5radio19RadioIndicationTypeE"
    },
    {
     "referenced_type" : "_ZTIN4aidl7android8hardware5radio3sim16PbReceivedStatusE"
    },
    {
     "referenced_type" : "_ZTIRKNSt3__16vectorIN4aidl7android8hardware5radio3sim19PhonebookRecordInfoENS_9allocatorIS6_EEEE"
    }
   ],
   "return_type" : "_ZTIN3ndk13ScopedAStatusE",
   "source_file" : "out/soong/.intermediates/hardware/interfaces/radio/aidl/android.hardware.radio.sim-V1-ndk-source/gen/include/aidl/android/hardware/radio/sim/IRadioSimIndication.h"
  },
  {
   "function_name" : "aidl::android::hardware::radio::sim::IRadioSimIndicationDefault::carrierInfoForImsiEncryption",
   "linker_set_key" : "_ZN4aidl7android8hardware5radio3sim26IRadioSimIndicationDefault28carrierInfoForImsiEncryptionENS2_19RadioIndicationTypeE",
   "parameters" :
   [
    {
     "is_this_ptr" : true,
     "referenced_type" : "_ZTIPN4aidl7android8hardware5radio3sim26IRadioSimIndicationDefaultE"
    },
    {
     "referenced_type" : "_ZTIN4aidl7android8hardware5radio19RadioIndicationTypeE"
    }
   ],
   "return_type" : "_ZTIN3ndk13ScopedAStatusE",
   "source_file" : "out/soong/.intermediates/hardware/interfaces/radio/aidl/android.hardware.radio.sim-V1-ndk-source/gen/include/aidl/android/hardware/radio/sim/IRadioSimIndication.h"
  },
  {
   "function_name" : "aidl::android::hardware::radio::sim::IRadioSimIndicationDefault::cdmaSubscriptionSourceChanged",
   "linker_set_key" : "_ZN4aidl7android8hardware5radio3sim26IRadioSimIndicationDefault29cdmaSubscriptionSourceChangedENS2_19RadioIndicationTypeENS3_22CdmaSubscriptionSourceE",
   "parameters" :
   [
    {
     "is_this_ptr" : true,
     "referenced_type" : "_ZTIPN4aidl7android8hardware5radio3sim26IRadioSimIndicationDefaultE"
    },
    {
     "referenced_type" : "_ZTIN4aidl7android8hardware5radio19RadioIndicationTypeE"
    },
    {
     "referenced_type" : "_ZTIN4aidl7android8hardware5radio3sim22CdmaSubscriptionSourceE"
    }
   ],
   "return_type" : "_ZTIN3ndk13ScopedAStatusE",
   "source_file" : "out/soong/.intermediates/hardware/interfaces/radio/aidl/android.hardware.radio.sim-V1-ndk-source/gen/include/aidl/android/hardware/radio/sim/IRadioSimIndication.h"
  },
  {
   "function_name" : "aidl::android::hardware::radio::sim::IRadioSimIndicationDefault::uiccApplicationsEnablementChanged",
   "linker_set_key" : "_ZN4aidl7android8hardware5radio3sim26IRadioSimIndicationDefault33uiccApplicationsEnablementChangedENS2_19RadioIndicationTypeEb",
   "parameters" :
   [
    {
     "is_this_ptr" : true,
     "referenced_type" : "_ZTIPN4aidl7android8hardware5radio3sim26IRadioSimIndicationDefaultE"
    },
    {
     "referenced_type" : "_ZTIN4aidl7android8hardware5radio19RadioIndicationTypeE"
    },
    {
     "referenced_type" : "_ZTIb"
    }
   ],
   "return_type" : "_ZTIN3ndk13ScopedAStatusE",
   "source_file" : "out/soong/.intermediates/hardware/interfaces/radio/aidl/android.hardware.radio.sim-V1-ndk-source/gen/include/aidl/android/hardware/radio/sim/IRadioSimIndication.h"
  },
  {
   "function_name" : "aidl::android::hardware::radio::sim::IRadioSimIndicationDefault::asBinder",
   "linker_set_key" : "_ZN4aidl7android8hardware5radio3sim26IRadioSimIndicationDefault8asBinderEv",
   "parameters" :
   [
    {
     "is_this_ptr" : true,
     "referenced_type" : "_ZTIPN4aidl7android8hardware5radio3sim26IRadioSimIndicationDefaultE"
    }
   ],
   "return_type" : "_ZTIN3ndk10SpAIBinderE",
   "source_file" : "out/soong/.intermediates/hardware/interfaces/radio/aidl/android.hardware.radio.sim-V1-ndk-source/gen/include/aidl/android/hardware/radio/sim/IRadioSimIndication.h"
  },
  {
   "function_name" : "aidl::android::hardware::radio::sim::IRadioSimIndicationDefault::isRemote",
   "linker_set_key" : "_ZN4aidl7android8hardware5radio3sim26IRadioSimIndicationDefault8isRemoteEv",
   "parameters" :
   [
    {
     "is_this_ptr" : true,
     "referenced_type" : "_ZTIPN4aidl7android8hardware5radio3sim26IRadioSimIndicationDefaultE"
    }
   ],
   "return_type" : "_ZTIb",
   "source_file" : "out/soong/.intermediates/hardware/interfaces/radio/aidl/android.hardware.radio.sim-V1-ndk-source/gen/include/aidl/android/hardware/radio/sim/IRadioSimIndication.h"
  },
  {
   "function_name" : "aidl::android::hardware::radio::sim::IccIo::readFromParcel",
   "linker_set_key" : "_ZN4aidl7android8hardware5radio3sim5IccIo14readFromParcelEPK7AParcel",
   "parameters" :
   [
    {
     "is_this_ptr" : true,
     "referenced_type" : "_ZTIPN4aidl7android8hardware5radio3sim5IccIoE"
    },
    {
     "referenced_type" : "_ZTIPK7AParcel"
    }
   ],
   "return_type" : "_ZTIi",
   "source_file" : "out/soong/.intermediates/hardware/interfaces/radio/aidl/android.hardware.radio.sim-V1-ndk-source/gen/include/aidl/android/hardware/radio/sim/IccIo.h"
  },
  {
   "function_name" : "aidl::android::hardware::radio::sim::Carrier::readFromParcel",
   "linker_set_key" : "_ZN4aidl7android8hardware5radio3sim7Carrier14readFromParcelEPK7AParcel",
   "parameters" :
   [
    {
     "is_this_ptr" : true,
     "referenced_type" : "_ZTIPN4aidl7android8hardware5radio3sim7CarrierE"
    },
    {
     "referenced_type" : "_ZTIPK7AParcel"
    }
   ],
   "return_type" : "_ZTIi",
   "source_file" : "out/soong/.intermediates/hardware/interfaces/radio/aidl/android.hardware.radio.sim-V1-ndk-source/gen/include/aidl/android/hardware/radio/sim/Carrier.h"
  },
  {
   "function_name" : "aidl::android::hardware::radio::sim::SimApdu::readFromParcel",
   "linker_set_key" : "_ZN4aidl7android8hardware5radio3sim7SimApdu14readFromParcelEPK7AParcel",
   "parameters" :
   [
    {
     "is_this_ptr" : true,
     "referenced_type" : "_ZTIPN4aidl7android8hardware5radio3sim7SimApduE"
    },
    {
     "referenced_type" : "_ZTIPK7AParcel"
    }
   ],
   "return_type" : "_ZTIi",
   "source_file" : "out/soong/.intermediates/hardware/interfaces/radio/aidl/android.hardware.radio.sim-V1-ndk-source/gen/include/aidl/android/hardware/radio/sim/SimApdu.h"
  },
  {
   "function_name" : "aidl::android::hardware::radio::sim::AppStatus::readFromParcel",
   "linker_set_key" : "_ZN4aidl7android8hardware5radio3sim9AppStatus14readFromParcelEPK7AParcel",
   "parameters" :
   [
    {
     "is_this_ptr" : true,
     "referenced_type" : "_ZTIPN4aidl7android8hardware5radio3sim9AppStatusE"
    },
    {
     "referenced_type" : "_ZTIPK7AParcel"
    }
   ],
   "return_type" : "_ZTIi",
   "source_file" : "out/soong/.intermediates/hardware/interfaces/radio/aidl/android.hardware.radio.sim-V1-ndk-source/gen/include/aidl/android/hardware/radio/sim/AppStatus.h"
  },
  {
   "function_name" : "aidl::android::hardware::radio::sim::IRadioSim::fromBinder",
   "linker_set_key" : "_ZN4aidl7android8hardware5radio3sim9IRadioSim10fromBinderERKN3ndk10SpAIBinderE",
   "parameters" :
   [
    {
     "referenced_type" : "_ZTIRKN3ndk10SpAIBinderE"
    }
   ],
   "return_type" : "_ZTINSt3__110shared_ptrIN4aidl7android8hardware5radio3sim9IRadioSimEEE",
   "source_file" : "out/soong/.intermediates/hardware/interfaces/radio/aidl/android.hardware.radio.sim-V1-ndk-source/gen/include/aidl/android/hardware/radio/sim/IRadioSim.h"
  },
  {
   "function_name" : "aidl::android::hardware::radio::sim::IRadioSim::writeToParcel",
   "linker_set_key" : "_ZN4aidl7android8hardware5radio3sim9IRadioSim13writeToParcelEP7AParcelRKNSt3__110shared_ptrIS4_EE",
   "parameters" :
   [
    {
     "referenced_type" : "_ZTIP7AParcel"
    },
    {
     "referenced_type" : "_ZTIRKNSt3__110shared_ptrIN4aidl7android8hardware5radio3sim9IRadioSimEEE"
    }
   ],
   "return_type" : "_ZTIi",
   "source_file" : "out/soong/.intermediates/hardware/interfaces/radio/aidl/android.hardware.radio.sim-V1-ndk-source/gen/include/aidl/android/hardware/radio/sim/IRadioSim.h"
  },
  {
   "function_name" : "aidl::android::hardware::radio::sim::IRadioSim::getDefaultImpl",
   "linker_set_key" : "_ZN4aidl7android8hardware5radio3sim9IRadioSim14getDefaultImplEv",
   "return_type" : "_ZTIRKNSt3__110shared_ptrIN4aidl7android8hardware5radio3sim9IRadioSimEEE",
   "source_file" : "out/soong/.intermediates/hardware/interfaces/radio/aidl/android.hardware.radio.sim-V1-ndk-source/gen/include/aidl/android/hardware/radio/sim/IRadioSim.h"
  },
  {
   "function_name" : "aidl::android::hardware::radio::sim::IRadioSim::readFromParcel",
   "linker_set_key" : "_ZN4aidl7android8hardware5radio3sim9IRadioSim14readFromParcelEPK7AParcelPNSt3__110shared_ptrIS4_EE",
   "parameters" :
   [
    {
     "referenced_type" : "_ZTIPK7AParcel"
    },
    {
     "referenced_type" : "_ZTIPNSt3__110shared_ptrIN4aidl7android8hardware5radio3sim9IRadioSimEEE"
    }
   ],
   "return_type" : "_ZTIi",
   "source_file" : "out/soong/.intermediates/hardware/interfaces/radio/aidl/android.hardware.radio.sim-V1-ndk-source/gen/include/aidl/android/hardware/radio/sim/IRadioSim.h"
  },
  {
   "function_name" : "aidl::android::hardware::radio::sim::IRadioSim::setDefaultImpl",
   "linker_set_key" : "_ZN4aidl7android8hardware5radio3sim9IRadioSim14setDefaultImplERKNSt3__110shared_ptrIS4_EE",
   "parameters" :
   [
    {
     "referenced_type" : "_ZTIRKNSt3__110shared_ptrIN4aidl7android8hardware5radio3sim9IRadioSimEEE"
    }
   ],
   "return_type" : "_ZTIb",
   "source_file" : "out/soong/.intermediates/hardware/interfaces/radio/aidl/android.hardware.radio.sim-V1-ndk-source/gen/include/aidl/android/hardware/radio/sim/IRadioSim.h"
  },
  {
   "function_name" : "aidl::android::hardware::radio::sim::IRadioSim::IRadioSim",
   "linker_set_key" : "_ZN4aidl7android8hardware5radio3sim9IRadioSimC2Ev",
   "parameters" :
   [
    {
     "is_this_ptr" : true,
     "referenced_type" : "_ZTIPN4aidl7android8hardware5radio3sim9IRadioSimE"
    }
   ],
   "return_type" : "_ZTIv",
   "source_file" : "out/soong/.intermediates/hardware/interfaces/radio/aidl/android.hardware.radio.sim-V1-ndk-source/gen/include/aidl/android/hardware/radio/sim/IRadioSim.h"
  },
  {
   "function_name" : "aidl::android::hardware::radio::sim::IRadioSim::~IRadioSim",
   "linker_set_key" : "_ZN4aidl7android8hardware5radio3sim9IRadioSimD0Ev",
   "parameters" :
   [
    {
     "is_this_ptr" : true,
     "referenced_type" : "_ZTIPN4aidl7android8hardware5radio3sim9IRadioSimE"
    }
   ],
   "return_type" : "_ZTIv",
   "source_file" : "out/soong/.intermediates/hardware/interfaces/radio/aidl/android.hardware.radio.sim-V1-ndk-source/gen/include/aidl/android/hardware/radio/sim/IRadioSim.h"
  },
  {
   "function_name" : "aidl::android::hardware::radio::sim::IRadioSim::~IRadioSim",
   "linker_set_key" : "_ZN4aidl7android8hardware5radio3sim9IRadioSimD1Ev",
   "parameters" :
   [
    {
     "is_this_ptr" : true,
     "referenced_type" : "_ZTIPN4aidl7android8hardware5radio3sim9IRadioSimE"
    }
   ],
   "return_type" : "_ZTIv",
   "source_file" : "out/soong/.intermediates/hardware/interfaces/radio/aidl/android.hardware.radio.sim-V1-ndk-source/gen/include/aidl/android/hardware/radio/sim/IRadioSim.h"
  },
  {
   "function_name" : "aidl::android::hardware::radio::sim::IRadioSim::~IRadioSim",
   "linker_set_key" : "_ZN4aidl7android8hardware5radio3sim9IRadioSimD2Ev",
   "parameters" :
   [
    {
     "is_this_ptr" : true,
     "referenced_type" : "_ZTIPN4aidl7android8hardware5radio3sim9IRadioSimE"
    }
   ],
   "return_type" : "_ZTIv",
   "source_file" : "out/soong/.intermediates/hardware/interfaces/radio/aidl/android.hardware.radio.sim-V1-ndk-source/gen/include/aidl/android/hardware/radio/sim/IRadioSim.h"
  },
  {
   "function_name" : "aidl::android::hardware::radio::sim::CardStatus::writeToParcel",
   "linker_set_key" : "_ZNK4aidl7android8hardware5radio3sim10CardStatus13writeToParcelEP7AParcel",
   "parameters" :
   [
    {
     "is_this_ptr" : true,
     "referenced_type" : "_ZTIPKN4aidl7android8hardware5radio3sim10CardStatusE"
    },
    {
     "referenced_type" : "_ZTIP7AParcel"
    }
   ],
   "return_type" : "_ZTIi",
   "source_file" : "out/soong/.intermediates/hardware/interfaces/radio/aidl/android.hardware.radio.sim-V1-ndk-source/gen/include/aidl/android/hardware/radio/sim/CardStatus.h"
  },
  {
   "function_name" : "aidl::android::hardware::radio::sim::IccIoResult::writeToParcel",
   "linker_set_key" : "_ZNK4aidl7android8hardware5radio3sim11IccIoResult13writeToParcelEP7AParcel",
   "parameters" :
   [
    {
     "is_this_ptr" : true,
     "referenced_type" : "_ZTIPKN4aidl7android8hardware5radio3sim11IccIoResultE"
    },
    {
     "referenced_type" : "_ZTIP7AParcel"
    }
   ],
   "return_type" : "_ZTIi",
   "source_file" : "out/soong/.intermediates/hardware/interfaces/radio/aidl/android.hardware.radio.sim-V1-ndk-source/gen/include/aidl/android/hardware/radio/sim/IccIoResult.h"
  },
  {
   "function_name" : "aidl::android::hardware::radio::sim::SelectUiccSub::writeToParcel",
   "linker_set_key" : "_ZNK4aidl7android8hardware5radio3sim13SelectUiccSub13writeToParcelEP7AParcel",
   "parameters" :
   [
    {
     "is_this_ptr" : true,
     "referenced_type" : "_ZTIPKN4aidl7android8hardware5radio3sim13SelectUiccSubE"
    },
    {
     "referenced_type" : "_ZTIP7AParcel"
    }
   ],
   "return_type" : "_ZTIi",
   "source_file" : "out/soong/.intermediates/hardware/interfaces/radio/aidl/android.hardware.radio.sim-V1-ndk-source/gen/include/aidl/android/hardware/radio/sim/SelectUiccSub.h"
  },
  {
   "function_name" : "aidl::android::hardware::radio::sim::SimRefreshResult::writeToParcel",
   "linker_set_key" : "_ZNK4aidl7android8hardware5radio3sim16SimRefreshResult13writeToParcelEP7AParcel",
   "parameters" :
   [
    {
     "is_this_ptr" : true,
     "referenced_type" : "_ZTIPKN4aidl7android8hardware5radio3sim16SimRefreshResultE"
    },
    {
     "referenced_type" : "_ZTIP7AParcel"
    }
   ],
   "return_type" : "_ZTIi",
   "source_file" : "out/soong/.intermediates/hardware/interfaces/radio/aidl/android.hardware.radio.sim-V1-ndk-source/gen/include/aidl/android/hardware/radio/sim/SimRefreshResult.h"
  },
  {
   "function_name" : "aidl::android::hardware::radio::sim::PhonebookCapacity::writeToParcel",
   "linker_set_key" : "_ZNK4aidl7android8hardware5radio3sim17PhonebookCapacity13writeToParcelEP7AParcel",
   "parameters" :
   [
    {
     "is_this_ptr" : true,
     "referenced_type" : "_ZTIPKN4aidl7android8hardware5radio3sim17PhonebookCapacityE"
    },
    {
     "referenced_type" : "_ZTIP7AParcel"
    }
   ],
   "return_type" : "_ZTIi",
   "source_file" : "out/soong/.intermediates/hardware/interfaces/radio/aidl/android.hardware.radio.sim-V1-ndk-source/gen/include/aidl/android/hardware/radio/sim/PhonebookCapacity.h"
  },
  {
   "function_name" : "aidl::android::hardware::radio::sim::ImsiEncryptionInfo::writeToParcel",
   "linker_set_key" : "_ZNK4aidl7android8hardware5radio3sim18ImsiEncryptionInfo13writeToParcelEP7AParcel",
   "parameters" :
   [
    {
     "is_this_ptr" : true,
     "referenced_type" : "_ZTIPKN4aidl7android8hardware5radio3sim18ImsiEncryptionInfoE"
    },
    {
     "referenced_type" : "_ZTIP7AParcel"
    }
   ],
   "return_type" : "_ZTIi",
   "source_file" : "out/soong/.intermediates/hardware/interfaces/radio/aidl/android.hardware.radio.sim-V1-ndk-source/gen/include/aidl/android/hardware/radio/sim/ImsiEncryptionInfo.h"
  },
  {
   "function_name" : "aidl::android::hardware::radio::sim::CarrierRestrictions::writeToParcel",
   "linker_set_key" : "_ZNK4aidl7android8hardware5radio3sim19CarrierRestrictions13writeToParcelEP7AParcel",
   "parameters" :
   [
    {
     "is_this_ptr" : true,
     "referenced_type" : "_ZTIPKN4aidl7android8hardware5radio3sim19CarrierRestrictionsE"
    },
    {
     "referenced_type" : "_ZTIP7AParcel"
    }
   ],
   "return_type" : "_ZTIi",
   "source_file" : "out/soong/.intermediates/hardware/interfaces/radio/aidl/android.hardware.radio.sim-V1-ndk-source/gen/include/aidl/android/hardware/radio/sim/CarrierRestrictions.h"
  },
  {
   "function_name" : "aidl::android::hardware::radio::sim::PhonebookRecordInfo::writeToParcel",
   "linker_set_key" : "_ZNK4aidl7android8hardware5radio3sim19PhonebookRecordInfo13writeToParcelEP7AParcel",
   "parameters" :
   [
    {
     "is_this_ptr" : true,
     "referenced_type" : "_ZTIPKN4aidl7android8hardware5radio3sim19PhonebookRecordInfoE"
    },
    {
     "referenced_type" : "_ZTIP7AParcel"
    }
   ],
   "return_type" : "_ZTIi",
   "source_file" : "out/soong/.intermediates/hardware/interfaces/radio/aidl/android.hardware.radio.sim-V1-ndk-source/gen/include/aidl/android/hardware/radio/sim/PhonebookRecordInfo.h"
  },
  {
   "function_name" : "aidl::android::hardware::radio::sim::IccIo::writeToParcel",
   "linker_set_key" : "_ZNK4aidl7android8hardware5radio3sim5IccIo13writeToParcelEP7AParcel",
   "parameters" :
   [
    {
     "is_this_ptr" : true,
     "referenced_type" : "_ZTIPKN4aidl7android8hardware5radio3sim5IccIoE"
    },
    {
     "referenced_type" : "_ZTIP7AParcel"
    }
   ],
   "return_type" : "_ZTIi",
   "source_file" : "out/soong/.intermediates/hardware/interfaces/radio/aidl/android.hardware.radio.sim-V1-ndk-source/gen/include/aidl/android/hardware/radio/sim/IccIo.h"
  },
  {
   "function_name" : "aidl::android::hardware::radio::sim::Carrier::writeToParcel",
   "linker_set_key" : "_ZNK4aidl7android8hardware5radio3sim7Carrier13writeToParcelEP7AParcel",
   "parameters" :
   [
    {
     "is_this_ptr" : true,
     "referenced_type" : "_ZTIPKN4aidl7android8hardware5radio3sim7CarrierE"
    },
    {
     "referenced_type" : "_ZTIP7AParcel"
    }
   ],
   "return_type" : "_ZTIi",
   "source_file" : "out/soong/.intermediates/hardware/interfaces/radio/aidl/android.hardware.radio.sim-V1-ndk-source/gen/include/aidl/android/hardware/radio/sim/Carrier.h"
  },
  {
   "function_name" : "aidl::android::hardware::radio::sim::SimApdu::writeToParcel",
   "linker_set_key" : "_ZNK4aidl7android8hardware5radio3sim7SimApdu13writeToParcelEP7AParcel",
   "parameters" :
   [
    {
     "is_this_ptr" : true,
     "referenced_type" : "_ZTIPKN4aidl7android8hardware5radio3sim7SimApduE"
    },
    {
     "referenced_type" : "_ZTIP7AParcel"
    }
   ],
   "return_type" : "_ZTIi",
   "source_file" : "out/soong/.intermediates/hardware/interfaces/radio/aidl/android.hardware.radio.sim-V1-ndk-source/gen/include/aidl/android/hardware/radio/sim/SimApdu.h"
  },
  {
   "function_name" : "aidl::android::hardware::radio::sim::AppStatus::writeToParcel",
   "linker_set_key" : "_ZNK4aidl7android8hardware5radio3sim9AppStatus13writeToParcelEP7AParcel",
   "parameters" :
   [
    {
     "is_this_ptr" : true,
     "referenced_type" : "_ZTIPKN4aidl7android8hardware5radio3sim9AppStatusE"
    },
    {
     "referenced_type" : "_ZTIP7AParcel"
    }
   ],
   "return_type" : "_ZTIi",
   "source_file" : "out/soong/.intermediates/hardware/interfaces/radio/aidl/android.hardware.radio.sim-V1-ndk-source/gen/include/aidl/android/hardware/radio/sim/AppStatus.h"
  }
 ],
 "global_vars" :
 [
  {
   "linker_set_key" : "_ZN4aidl7android8hardware5radio3sim10CardStatus10descriptorE",
   "name" : "aidl::android::hardware::radio::sim::CardStatus::descriptor",
   "referenced_type" : "_ZTIPKc",
   "source_file" : "out/soong/.intermediates/hardware/interfaces/radio/aidl/android.hardware.radio.sim-V1-ndk-source/gen/include/aidl/android/hardware/radio/sim/CardStatus.h"
  },
  {
   "linker_set_key" : "_ZN4aidl7android8hardware5radio3sim11IccIoResult10descriptorE",
   "name" : "aidl::android::hardware::radio::sim::IccIoResult::descriptor",
   "referenced_type" : "_ZTIPKc",
   "source_file" : "out/soong/.intermediates/hardware/interfaces/radio/aidl/android.hardware.radio.sim-V1-ndk-source/gen/include/aidl/android/hardware/radio/sim/IccIoResult.h"
  },
  {
   "linker_set_key" : "_ZN4aidl7android8hardware5radio3sim13SelectUiccSub10descriptorE",
   "name" : "aidl::android::hardware::radio::sim::SelectUiccSub::descriptor",
   "referenced_type" : "_ZTIPKc",
   "source_file" : "out/soong/.intermediates/hardware/interfaces/radio/aidl/android.hardware.radio.sim-V1-ndk-source/gen/include/aidl/android/hardware/radio/sim/SelectUiccSub.h"
  },
  {
   "linker_set_key" : "_ZN4aidl7android8hardware5radio3sim16SimRefreshResult10descriptorE",
   "name" : "aidl::android::hardware::radio::sim::SimRefreshResult::descriptor",
   "referenced_type" : "_ZTIPKc",
   "source_file" : "out/soong/.intermediates/hardware/interfaces/radio/aidl/android.hardware.radio.sim-V1-ndk-source/gen/include/aidl/android/hardware/radio/sim/SimRefreshResult.h"
  },
  {
   "linker_set_key" : "_ZN4aidl7android8hardware5radio3sim17IRadioSimResponse10descriptorE",
   "name" : "aidl::android::hardware::radio::sim::IRadioSimResponse::descriptor",
   "referenced_type" : "_ZTIPKc",
   "source_file" : "out/soong/.intermediates/hardware/interfaces/radio/aidl/android.hardware.radio.sim-V1-ndk-source/gen/include/aidl/android/hardware/radio/sim/IRadioSimResponse.h"
  },
  {
   "access" : "private",
   "linker_set_key" : "_ZN4aidl7android8hardware5radio3sim17IRadioSimResponse12default_implE",
   "name" : "aidl::android::hardware::radio::sim::IRadioSimResponse::default_impl",
   "referenced_type" : "_ZTINSt3__110shared_ptrIN4aidl7android8hardware5radio3sim17IRadioSimResponseEEE",
   "source_file" : "out/soong/.intermediates/hardware/interfaces/radio/aidl/android.hardware.radio.sim-V1-ndk-source/gen/include/aidl/android/hardware/radio/sim/IRadioSimResponse.h"
  },
  {
   "linker_set_key" : "_ZN4aidl7android8hardware5radio3sim17IRadioSimResponse4hashE",
   "name" : "aidl::android::hardware::radio::sim::IRadioSimResponse::hash",
   "referenced_type" : "_ZTIKNSt3__112basic_stringIcNS_11char_traitsIcEENS_9allocatorIcEEEE",
   "source_file" : "out/soong/.intermediates/hardware/interfaces/radio/aidl/android.hardware.radio.sim-V1-ndk-source/gen/include/aidl/android/hardware/radio/sim/IRadioSimResponse.h"
  },
  {
   "linker_set_key" : "_ZN4aidl7android8hardware5radio3sim17PhonebookCapacity10descriptorE",
   "name" : "aidl::android::hardware::radio::sim::PhonebookCapacity::descriptor",
   "referenced_type" : "_ZTIPKc",
   "source_file" : "out/soong/.intermediates/hardware/interfaces/radio/aidl/android.hardware.radio.sim-V1-ndk-source/gen/include/aidl/android/hardware/radio/sim/PhonebookCapacity.h"
  },
  {
   "linker_set_key" : "_ZN4aidl7android8hardware5radio3sim18ImsiEncryptionInfo10descriptorE",
   "name" : "aidl::android::hardware::radio::sim::ImsiEncryptionInfo::descriptor",
   "referenced_type" : "_ZTIPKc",
   "source_file" : "out/soong/.intermediates/hardware/interfaces/radio/aidl/android.hardware.radio.sim-V1-ndk-source/gen/include/aidl/android/hardware/radio/sim/ImsiEncryptionInfo.h"
  },
  {
   "linker_set_key" : "_ZN4aidl7android8hardware5radio3sim19CarrierRestrictions10descriptorE",
   "name" : "aidl::android::hardware::radio::sim::CarrierRestrictions::descriptor",
   "referenced_type" : "_ZTIPKc",
   "source_file" : "out/soong/.intermediates/hardware/interfaces/radio/aidl/android.hardware.radio.sim-V1-ndk-source/gen/include/aidl/android/hardware/radio/sim/CarrierRestrictions.h"
  },
  {
   "linker_set_key" : "_ZN4aidl7android8hardware5radio3sim19IRadioSimIndication10descriptorE",
   "name" : "aidl::android::hardware::radio::sim::IRadioSimIndication::descriptor",
   "referenced_type" : "_ZTIPKc",
   "source_file" : "out/soong/.intermediates/hardware/interfaces/radio/aidl/android.hardware.radio.sim-V1-ndk-source/gen/include/aidl/android/hardware/radio/sim/IRadioSimIndication.h"
  },
  {
   "access" : "private",
   "linker_set_key" : "_ZN4aidl7android8hardware5radio3sim19IRadioSimIndication12default_implE",
   "name" : "aidl::android::hardware::radio::sim::IRadioSimIndication::default_impl",
   "referenced_type" : "_ZTINSt3__110shared_ptrIN4aidl7android8hardware5radio3sim19IRadioSimIndicationEEE",
   "source_file" : "out/soong/.intermediates/hardware/interfaces/radio/aidl/android.hardware.radio.sim-V1-ndk-source/gen/include/aidl/android/hardware/radio/sim/IRadioSimIndication.h"
  },
  {
   "linker_set_key" : "_ZN4aidl7android8hardware5radio3sim19IRadioSimIndication4hashE",
   "name" : "aidl::android::hardware::radio::sim::IRadioSimIndication::hash",
   "referenced_type" : "_ZTIKNSt3__112basic_stringIcNS_11char_traitsIcEENS_9allocatorIcEEEE",
   "source_file" : "out/soong/.intermediates/hardware/interfaces/radio/aidl/android.hardware.radio.sim-V1-ndk-source/gen/include/aidl/android/hardware/radio/sim/IRadioSimIndication.h"
  },
  {
   "linker_set_key" : "_ZN4aidl7android8hardware5radio3sim19PhonebookRecordInfo10descriptorE",
   "name" : "aidl::android::hardware::radio::sim::PhonebookRecordInfo::descriptor",
   "referenced_type" : "_ZTIPKc",
   "source_file" : "out/soong/.intermediates/hardware/interfaces/radio/aidl/android.hardware.radio.sim-V1-ndk-source/gen/include/aidl/android/hardware/radio/sim/PhonebookRecordInfo.h"
  },
  {
   "linker_set_key" : "_ZN4aidl7android8hardware5radio3sim5IccIo10descriptorE",
   "name" : "aidl::android::hardware::radio::sim::IccIo::descriptor",
   "referenced_type" : "_ZTIPKc",
   "source_file" : "out/soong/.intermediates/hardware/interfaces/radio/aidl/android.hardware.radio.sim-V1-ndk-source/gen/include/aidl/android/hardware/radio/sim/IccIo.h"
  },
  {
   "linker_set_key" : "_ZN4aidl7android8hardware5radio3sim7Carrier10descriptorE",
   "name" : "aidl::android::hardware::radio::sim::Carrier::descriptor",
   "referenced_type" : "_ZTIPKc",
   "source_file" : "out/soong/.intermediates/hardware/interfaces/radio/aidl/android.hardware.radio.sim-V1-ndk-source/gen/include/aidl/android/hardware/radio/sim/Carrier.h"
  },
  {
   "linker_set_key" : "_ZN4aidl7android8hardware5radio3sim7SimApdu10descriptorE",
   "name" : "aidl::android::hardware::radio::sim::SimApdu::descriptor",
   "referenced_type" : "_ZTIPKc",
   "source_file" : "out/soong/.intermediates/hardware/interfaces/radio/aidl/android.hardware.radio.sim-V1-ndk-source/gen/include/aidl/android/hardware/radio/sim/SimApdu.h"
  },
  {
   "linker_set_key" : "_ZN4aidl7android8hardware5radio3sim9AppStatus10descriptorE",
   "name" : "aidl::android::hardware::radio::sim::AppStatus::descriptor",
   "referenced_type" : "_ZTIPKc",
   "source_file" : "out/soong/.intermediates/hardware/interfaces/radio/aidl/android.hardware.radio.sim-V1-ndk-source/gen/include/aidl/android/hardware/radio/sim/AppStatus.h"
  },
  {
   "linker_set_key" : "_ZN4aidl7android8hardware5radio3sim9IRadioSim10descriptorE",
   "name" : "aidl::android::hardware::radio::sim::IRadioSim::descriptor",
   "referenced_type" : "_ZTIPKc",
   "source_file" : "out/soong/.intermediates/hardware/interfaces/radio/aidl/android.hardware.radio.sim-V1-ndk-source/gen/include/aidl/android/hardware/radio/sim/IRadioSim.h"
  },
  {
   "access" : "private",
   "linker_set_key" : "_ZN4aidl7android8hardware5radio3sim9IRadioSim12default_implE",
   "name" : "aidl::android::hardware::radio::sim::IRadioSim::default_impl",
   "referenced_type" : "_ZTINSt3__110shared_ptrIN4aidl7android8hardware5radio3sim9IRadioSimEEE",
   "source_file" : "out/soong/.intermediates/hardware/interfaces/radio/aidl/android.hardware.radio.sim-V1-ndk-source/gen/include/aidl/android/hardware/radio/sim/IRadioSim.h"
  },
  {
   "linker_set_key" : "_ZN4aidl7android8hardware5radio3sim9IRadioSim4hashE",
   "name" : "aidl::android::hardware::radio::sim::IRadioSim::hash",
   "referenced_type" : "_ZTIKNSt3__112basic_stringIcNS_11char_traitsIcEENS_9allocatorIcEEEE",
   "source_file" : "out/soong/.intermediates/hardware/interfaces/radio/aidl/android.hardware.radio.sim-V1-ndk-source/gen/include/aidl/android/hardware/radio/sim/IRadioSim.h"
  },
  {
   "linker_set_key" : "_ZN4aidl7android8hardware5radio6config12IRadioConfig4hashE",
   "name" : "aidl::android::hardware::radio::config::IRadioConfig::hash",
   "referenced_type" : "_ZTIKNSt3__112basic_stringIcNS_11char_traitsIcEENS_9allocatorIcEEEE",
   "source_file" : "out/soong/.intermediates/hardware/interfaces/radio/aidl/android.hardware.radio.config-V1-ndk-source/gen/include/aidl/android/hardware/radio/config/IRadioConfig.h"
  },
  {
   "linker_set_key" : "_ZN4aidl7android8hardware5radio6config20IRadioConfigResponse4hashE",
   "name" : "aidl::android::hardware::radio::config::IRadioConfigResponse::hash",
   "referenced_type" : "_ZTIKNSt3__112basic_stringIcNS_11char_traitsIcEENS_9allocatorIcEEEE",
   "source_file" : "out/soong/.intermediates/hardware/interfaces/radio/aidl/android.hardware.radio.config-V1-ndk-source/gen/include/aidl/android/hardware/radio/config/IRadioConfigResponse.h"
  },
  {
   "linker_set_key" : "_ZN4aidl7android8hardware5radio6config22IRadioConfigIndication4hashE",
   "name" : "aidl::android::hardware::radio::config::IRadioConfigIndication::hash",
   "referenced_type" : "_ZTIKNSt3__112basic_stringIcNS_11char_traitsIcEENS_9allocatorIcEEEE",
   "source_file" : "out/soong/.intermediates/hardware/interfaces/radio/aidl/android.hardware.radio.config-V1-ndk-source/gen/include/aidl/android/hardware/radio/config/IRadioConfigIndication.h"
  }
 ],
 "lvalue_reference_types" :
 [
  {
   "alignment" : 8,
   "linker_set_key" : "_ZTIRKN3ndk10SpAIBinderE",
   "name" : "const ndk::SpAIBinder &",
   "referenced_type" : "_ZTIKN3ndk10SpAIBinderE",
   "self_type" : "_ZTIRKN3ndk10SpAIBinderE",
   "size" : 8,
   "source_file" : "frameworks/native/libs/binder/ndk/include_cpp/android/binder_auto_utils.h"
  },
  {
   "alignment" : 8,
   "linker_set_key" : "_ZTIRKN3ndk13ScopedAParcelE",
   "name" : "const ndk::ScopedAParcel &",
   "referenced_type" : "_ZTIKN3ndk13ScopedAParcelE",
   "self_type" : "_ZTIRKN3ndk13ScopedAParcelE",
   "size" : 8,
   "source_file" : "frameworks/native/libs/binder/ndk/include_cpp/android/binder_auto_utils.h"
  },
  {
   "alignment" : 8,
   "linker_set_key" : "_ZTIRKN3ndk17AParcelableHolderE",
   "name" : "const ndk::AParcelableHolder &",
   "referenced_type" : "_ZTIKN3ndk17AParcelableHolderE",
   "self_type" : "_ZTIRKN3ndk17AParcelableHolderE",
   "size" : 8,
   "source_file" : "frameworks/native/libs/binder/ndk/include_cpp/android/binder_parcelable_utils.h"
  },
  {
   "alignment" : 8,
   "linker_set_key" : "_ZTIRKN3ndk20ScopedFileDescriptorE",
   "name" : "const ndk::ScopedFileDescriptor &",
   "referenced_type" : "_ZTIKN3ndk20ScopedFileDescriptorE",
   "self_type" : "_ZTIRKN3ndk20ScopedFileDescriptorE",
   "size" : 8,
   "source_file" : "frameworks/native/libs/binder/ndk/include_cpp/android/binder_auto_utils.h"
  },
  {
   "alignment" : 8,
   "linker_set_key" : "_ZTIRKN4aidl7android8hardware5radio10RadioErrorE",
   "name" : "const aidl::android::hardware::radio::RadioError &",
   "referenced_type" : "_ZTIKN4aidl7android8hardware5radio10RadioErrorE",
   "self_type" : "_ZTIRKN4aidl7android8hardware5radio10RadioErrorE",
   "size" : 8,
   "source_file" : "frameworks/native/libs/binder/ndk/include_cpp/android/binder_to_string.h"
  },
  {
   "alignment" : 8,
   "linker_set_key" : "_ZTIRKN4aidl7android8hardware5radio17RadioResponseInfoE",
   "name" : "const aidl::android::hardware::radio::RadioResponseInfo &",
   "referenced_type" : "_ZTIKN4aidl7android8hardware5radio17RadioResponseInfoE",
   "self_type" : "_ZTIRKN4aidl7android8hardware5radio17RadioResponseInfoE",
   "size" : 8,
   "source_file" : "out/soong/.intermediates/hardware/interfaces/radio/aidl/android.hardware.radio-V1-ndk-source/gen/include/aidl/android/hardware/radio/RadioResponseInfo.h"
  },
  {
   "alignment" : 8,
   "linker_set_key" : "_ZTIRKN4aidl7android8hardware5radio17RadioResponseTypeE",
   "name" : "const aidl::android::hardware::radio::RadioResponseType &",
   "referenced_type" : "_ZTIKN4aidl7android8hardware5radio17RadioResponseTypeE",
   "self_type" : "_ZTIRKN4aidl7android8hardware5radio17RadioResponseTypeE",
   "size" : 8,
   "source_file" : "frameworks/native/libs/binder/ndk/include_cpp/android/binder_to_string.h"
  },
  {
   "alignment" : 8,
   "linker_set_key" : "_ZTIRKN4aidl7android8hardware5radio3sim10CardStatusE",
   "name" : "const aidl::android::hardware::radio::sim::CardStatus &",
   "referenced_type" : "_ZTIKN4aidl7android8hardware5radio3sim10CardStatusE",
   "self_type" : "_ZTIRKN4aidl7android8hardware5radio3sim10CardStatusE",
   "size" : 8,
   "source_file" : "out/soong/.intermediates/hardware/interfaces/radio/aidl/android.hardware.radio.sim-V1-ndk-source/gen/include/aidl/android/hardware/radio/sim/CardStatus.h"
  },
  {
   "alignment" : 8,
   "linker_set_key" : "_ZTIRKN4aidl7android8hardware5radio3sim11IccIoResultE",
   "name" : "const aidl::android::hardware::radio::sim::IccIoResult &",
   "referenced_type" : "_ZTIKN4aidl7android8hardware5radio3sim11IccIoResultE",
   "self_type" : "_ZTIRKN4aidl7android8hardware5radio3sim11IccIoResultE",
   "size" : 8,
   "source_file" : "out/soong/.intermediates/hardware/interfaces/radio/aidl/android.hardware.radio.sim-V1-ndk-source/gen/include/aidl/android/hardware/radio/sim/IccIoResult.h"
  },
  {
   "alignment" : 8,
   "linker_set_key" : "_ZTIRKN4aidl7android8hardware5radio3sim13PersoSubstateE",
   "name" : "const aidl::android::hardware::radio::sim::PersoSubstate &",
   "referenced_type" : "_ZTIKN4aidl7android8hardware5radio3sim13PersoSubstateE",
   "self_type" : "_ZTIRKN4aidl7android8hardware5radio3sim13PersoSubstateE",
   "size" : 8,
   "source_file" : "frameworks/native/libs/binder/ndk/include_cpp/android/binder_to_string.h"
  },
  {
   "alignment" : 8,
   "linker_set_key" : "_ZTIRKN4aidl7android8hardware5radio3sim13SelectUiccSubE",
   "name" : "const aidl::android::hardware::radio::sim::SelectUiccSub &",
   "referenced_type" : "_ZTIKN4aidl7android8hardware5radio3sim13SelectUiccSubE",
   "self_type" : "_ZTIRKN4aidl7android8hardware5radio3sim13SelectUiccSubE",
   "size" : 8,
   "source_file" : "out/soong/.intermediates/hardware/interfaces/radio/aidl/android.hardware.radio.sim-V1-ndk-source/gen/include/aidl/android/hardware/radio/sim/SelectUiccSub.h"
  },
  {
   "alignment" : 8,
   "linker_set_key" : "_ZTIRKN4aidl7android8hardware5radio3sim16SimRefreshResultE",
   "name" : "const aidl::android::hardware::radio::sim::SimRefreshResult &",
   "referenced_type" : "_ZTIKN4aidl7android8hardware5radio3sim16SimRefreshResultE",
   "self_type" : "_ZTIRKN4aidl7android8hardware5radio3sim16SimRefreshResultE",
   "size" : 8,
   "source_file" : "out/soong/.intermediates/hardware/interfaces/radio/aidl/android.hardware.radio.sim-V1-ndk-source/gen/include/aidl/android/hardware/radio/sim/SimRefreshResult.h"
  },
  {
   "alignment" : 8,
   "linker_set_key" : "_ZTIRKN4aidl7android8hardware5radio3sim17PhonebookCapacityE",
   "name" : "const aidl::android::hardware::radio::sim::PhonebookCapacity &",
   "referenced_type" : "_ZTIKN4aidl7android8hardware5radio3sim17PhonebookCapacityE",
   "self_type" : "_ZTIRKN4aidl7android8hardware5radio3sim17PhonebookCapacityE",
   "size" : 8,
   "source_file" : "out/soong/.intermediates/hardware/interfaces/radio/aidl/android.hardware.radio.sim-V1-ndk-source/gen/include/aidl/android/hardware/radio/sim/PhonebookCapacity.h"
  },
  {
   "alignment" : 8,
   "linker_set_key" : "_ZTIRKN4aidl7android8hardware5radio3sim18ImsiEncryptionInfoE",
   "name" : "const aidl::android::hardware::radio::sim::ImsiEncryptionInfo &",
   "referenced_type" : "_ZTIKN4aidl7android8hardware5radio3sim18ImsiEncryptionInfoE",
   "self_type" : "_ZTIRKN4aidl7android8hardware5radio3sim18ImsiEncryptionInfoE",
   "size" : 8,
   "source_file" : "out/soong/.intermediates/hardware/interfaces/radio/aidl/android.hardware.radio.sim-V1-ndk-source/gen/include/aidl/android/hardware/radio/sim/ImsiEncryptionInfo.h"
  },
  {
   "alignment" : 8,
   "linker_set_key" : "_ZTIRKN4aidl7android8hardware5radio3sim19CarrierRestrictionsE",
   "name" : "const aidl::android::hardware::radio::sim::CarrierRestrictions &",
   "referenced_type" : "_ZTIKN4aidl7android8hardware5radio3sim19CarrierRestrictionsE",
   "self_type" : "_ZTIRKN4aidl7android8hardware5radio3sim19CarrierRestrictionsE",
   "size" : 8,
   "source_file" : "out/soong/.intermediates/hardware/interfaces/radio/aidl/android.hardware.radio.sim-V1-ndk-source/gen/include/aidl/android/hardware/radio/sim/CarrierRestrictions.h"
  },
  {
   "alignment" : 8,
   "linker_set_key" : "_ZTIRKN4aidl7android8hardware5radio3sim19PhonebookRecordInfoE",
   "name" : "const aidl::android::hardware::radio::sim::PhonebookRecordInfo &",
   "referenced_type" : "_ZTIKN4aidl7android8hardware5radio3sim19PhonebookRecordInfoE",
   "self_type" : "_ZTIRKN4aidl7android8hardware5radio3sim19PhonebookRecordInfoE",
   "size" : 8,
   "source_file" : "out/soong/.intermediates/hardware/interfaces/radio/aidl/android.hardware.radio.sim-V1-ndk-source/gen/include/aidl/android/hardware/radio/sim/PhonebookRecordInfo.h"
  },
  {
   "alignment" : 8,
   "linker_set_key" : "_ZTIRKN4aidl7android8hardware5radio3sim5IccIoE",
   "name" : "const aidl::android::hardware::radio::sim::IccIo &",
   "referenced_type" : "_ZTIKN4aidl7android8hardware5radio3sim5IccIoE",
   "self_type" : "_ZTIRKN4aidl7android8hardware5radio3sim5IccIoE",
   "size" : 8,
   "source_file" : "out/soong/.intermediates/hardware/interfaces/radio/aidl/android.hardware.radio.sim-V1-ndk-source/gen/include/aidl/android/hardware/radio/sim/IccIo.h"
  },
  {
   "alignment" : 8,
   "linker_set_key" : "_ZTIRKN4aidl7android8hardware5radio3sim7CarrierE",
   "name" : "const aidl::android::hardware::radio::sim::Carrier &",
   "referenced_type" : "_ZTIKN4aidl7android8hardware5radio3sim7CarrierE",
   "self_type" : "_ZTIRKN4aidl7android8hardware5radio3sim7CarrierE",
   "size" : 8,
   "source_file" : "out/soong/.intermediates/hardware/interfaces/radio/aidl/android.hardware.radio.sim-V1-ndk-source/gen/include/aidl/android/hardware/radio/sim/Carrier.h"
  },
  {
   "alignment" : 8,
   "linker_set_key" : "_ZTIRKN4aidl7android8hardware5radio3sim7SimApduE",
   "name" : "const aidl::android::hardware::radio::sim::SimApdu &",
   "referenced_type" : "_ZTIKN4aidl7android8hardware5radio3sim7SimApduE",
   "self_type" : "_ZTIRKN4aidl7android8hardware5radio3sim7SimApduE",
   "size" : 8,
   "source_file" : "out/soong/.intermediates/hardware/interfaces/radio/aidl/android.hardware.radio.sim-V1-ndk-source/gen/include/aidl/android/hardware/radio/sim/SimApdu.h"
  },
  {
   "alignment" : 8,
   "linker_set_key" : "_ZTIRKN4aidl7android8hardware5radio3sim8PinStateE",
   "name" : "const aidl::android::hardware::radio::sim::PinState &",
   "referenced_type" : "_ZTIKN4aidl7android8hardware5radio3sim8PinStateE",
   "self_type" : "_ZTIRKN4aidl7android8hardware5radio3sim8PinStateE",
   "size" : 8,
   "source_file" : "frameworks/native/libs/binder/ndk/include_cpp/android/binder_to_string.h"
  },
  {
   "alignment" : 8,
   "linker_set_key" : "_ZTIRKN4aidl7android8hardware5radio3sim9AppStatusE",
   "name" : "const aidl::android::hardware::radio::sim::AppStatus &",
   "referenced_type" : "_ZTIKN4aidl7android8hardware5radio3sim9AppStatusE",
   "self_type" : "_ZTIRKN4aidl7android8hardware5radio3sim9AppStatusE",
   "size" : 8,
   "source_file" : "out/soong/.intermediates/hardware/interfaces/radio/aidl/android.hardware.radio.sim-V1-ndk-source/gen/include/aidl/android/hardware/radio/sim/AppStatus.h"
  },
  {
   "alignment" : 8,
   "linker_set_key" : "_ZTIRKN4aidl7android8hardware5radio6config11SimPortInfoE",
   "name" : "const aidl::android::hardware::radio::config::SimPortInfo &",
   "referenced_type" : "_ZTIKN4aidl7android8hardware5radio6config11SimPortInfoE",
   "self_type" : "_ZTIRKN4aidl7android8hardware5radio6config11SimPortInfoE",
   "size" : 8,
   "source_file" : "frameworks/native/libs/binder/ndk/include_cpp/android/binder_to_string.h"
  },
  {
   "alignment" : 8,
   "linker_set_key" : "_ZTIRKN4aidl7android8hardware5radio6config13SimSlotStatusE",
   "name" : "const aidl::android::hardware::radio::config::SimSlotStatus &",
   "referenced_type" : "_ZTIKN4aidl7android8hardware5radio6config13SimSlotStatusE",
   "self_type" : "_ZTIRKN4aidl7android8hardware5radio6config13SimSlotStatusE",
   "size" : 8,
   "source_file" : "out/soong/.intermediates/hardware/interfaces/radio/aidl/android.hardware.radio.config-V1-ndk-source/gen/include/aidl/android/hardware/radio/config/SimSlotStatus.h"
  },
  {
   "alignment" : 8,
   "linker_set_key" : "_ZTIRKN4aidl7android8hardware5radio6config15PhoneCapabilityE",
   "name" : "const aidl::android::hardware::radio::config::PhoneCapability &",
   "referenced_type" : "_ZTIKN4aidl7android8hardware5radio6config15PhoneCapabilityE",
   "self_type" : "_ZTIRKN4aidl7android8hardware5radio6config15PhoneCapabilityE",
   "size" : 8,
   "source_file" : "out/soong/.intermediates/hardware/interfaces/radio/aidl/android.hardware.radio.config-V1-ndk-source/gen/include/aidl/android/hardware/radio/config/PhoneCapability.h"
  },
  {
   "alignment" : 8,
   "linker_set_key" : "_ZTIRKN4aidl7android8hardware5radio6config15SlotPortMappingE",
   "name" : "const aidl::android::hardware::radio::config::SlotPortMapping &",
   "referenced_type" : "_ZTIKN4aidl7android8hardware5radio6config15SlotPortMappingE",
   "self_type" : "_ZTIRKN4aidl7android8hardware5radio6config15SlotPortMappingE",
   "size" : 8,
   "source_file" : "out/soong/.intermediates/hardware/interfaces/radio/aidl/android.hardware.radio.config-V1-ndk-source/gen/include/aidl/android/hardware/radio/config/SlotPortMapping.h"
  },
  {
   "alignment" : 8,
   "linker_set_key" : "_ZTIRKNSt3__110shared_ptrIN4aidl7android8hardware5radio3sim17IRadioSimResponseEEE",
   "name" : "const std::shared_ptr<aidl::android::hardware::radio::sim::IRadioSimResponse> &",
   "referenced_type" : "_ZTIKNSt3__110shared_ptrIN4aidl7android8hardware5radio3sim17IRadioSimResponseEEE",
   "self_type" : "_ZTIRKNSt3__110shared_ptrIN4aidl7android8hardware5radio3sim17IRadioSimResponseEEE",
   "size" : 8,
   "source_file" : "out/soong/.intermediates/hardware/interfaces/radio/aidl/android.hardware.radio.sim-V1-ndk-source/gen/include/aidl/android/hardware/radio/sim/IRadioSim.h"
  },
  {
   "alignment" : 8,
   "linker_set_key" : "_ZTIRKNSt3__110shared_ptrIN4aidl7android8hardware5radio3sim19IRadioSimIndicationEEE",
   "name" : "const std::shared_ptr<aidl::android::hardware::radio::sim::IRadioSimIndication> &",
   "referenced_type" : "_ZTIKNSt3__110shared_ptrIN4aidl7android8hardware5radio3sim19IRadioSimIndicationEEE",
   "self_type" : "_ZTIRKNSt3__110shared_ptrIN4aidl7android8hardware5radio3sim19IRadioSimIndicationEEE",
   "size" : 8,
   "source_file" : "out/soong/.intermediates/hardware/interfaces/radio/aidl/android.hardware.radio.sim-V1-ndk-source/gen/include/aidl/android/hardware/radio/sim/IRadioSim.h"
  },
  {
   "alignment" : 8,
   "linker_set_key" : "_ZTIRKNSt3__110shared_ptrIN4aidl7android8hardware5radio3sim9IRadioSimEEE",
   "name" : "const std::shared_ptr<aidl::android::hardware::radio::sim::IRadioSim> &",
   "referenced_type" : "_ZTIKNSt3__110shared_ptrIN4aidl7android8hardware5radio3sim9IRadioSimEEE",
   "self_type" : "_ZTIRKNSt3__110shared_ptrIN4aidl7android8hardware5radio3sim9IRadioSimEEE",
   "size" : 8,
   "source_file" : "out/soong/.intermediates/hardware/interfaces/radio/aidl/android.hardware.radio.sim-V1-ndk-source/gen/include/aidl/android/hardware/radio/sim/IRadioSim.h"
  },
  {
   "alignment" : 8,
   "linker_set_key" : "_ZTIRKNSt3__110shared_ptrIN4aidl7android8hardware5radio6config12IRadioConfigEEE",
   "name" : "const std::shared_ptr<aidl::android::hardware::radio::config::IRadioConfig> &",
   "referenced_type" : "_ZTIKNSt3__110shared_ptrIN4aidl7android8hardware5radio6config12IRadioConfigEEE",
   "self_type" : "_ZTIRKNSt3__110shared_ptrIN4aidl7android8hardware5radio6config12IRadioConfigEEE",
   "size" : 8,
   "source_file" : "out/soong/.intermediates/hardware/interfaces/radio/aidl/android.hardware.radio.config-V1-ndk-source/gen/include/aidl/android/hardware/radio/config/BnRadioConfig.h"
  },
  {
   "alignment" : 8,
   "linker_set_key" : "_ZTIRKNSt3__110shared_ptrIN4aidl7android8hardware5radio6config20IRadioConfigResponseEEE",
   "name" : "const std::shared_ptr<aidl::android::hardware::radio::config::IRadioConfigResponse> &",
   "referenced_type" : "_ZTIKNSt3__110shared_ptrIN4aidl7android8hardware5radio6config20IRadioConfigResponseEEE",
   "self_type" : "_ZTIRKNSt3__110shared_ptrIN4aidl7android8hardware5radio6config20IRadioConfigResponseEEE",
   "size" : 8,
   "source_file" : "out/soong/.intermediates/hardware/interfaces/radio/aidl/android.hardware.radio.config-V1-ndk-source/gen/include/aidl/android/hardware/radio/config/BnRadioConfig.h"
  },
  {
   "alignment" : 8,
   "linker_set_key" : "_ZTIRKNSt3__110shared_ptrIN4aidl7android8hardware5radio6config22IRadioConfigIndicationEEE",
   "name" : "const std::shared_ptr<aidl::android::hardware::radio::config::IRadioConfigIndication> &",
   "referenced_type" : "_ZTIKNSt3__110shared_ptrIN4aidl7android8hardware5radio6config22IRadioConfigIndicationEEE",
   "self_type" : "_ZTIRKNSt3__110shared_ptrIN4aidl7android8hardware5radio6config22IRadioConfigIndicationEEE",
   "size" : 8,
   "source_file" : "out/soong/.intermediates/hardware/interfaces/radio/aidl/android.hardware.radio.config-V1-ndk-source/gen/include/aidl/android/hardware/radio/config/BnRadioConfig.h"
  },
  {
   "alignment" : 8,
   "linker_set_key" : "_ZTIRKNSt3__112basic_stringIcNS_11char_traitsIcEENS_9allocatorIcEEEE",
   "name" : "const std::basic_string<char, std::char_traits<char>, std::allocator<char>> &",
   "referenced_type" : "_ZTIKNSt3__112basic_stringIcNS_11char_traitsIcEENS_9allocatorIcEEEE",
   "self_type" : "_ZTIRKNSt3__112basic_stringIcNS_11char_traitsIcEENS_9allocatorIcEEEE",
   "size" : 8,
   "source_file" : "frameworks/native/libs/binder/ndk/include_cpp/android/binder_to_string.h"
  },
  {
   "alignment" : 8,
   "linker_set_key" : "_ZTIRKNSt3__16vectorIDsNS_9allocatorIDsEEEE",
   "name" : "const std::vector<char16_t, std::allocator<char16_t>> &",
   "referenced_type" : "_ZTIKNSt3__16vectorIDsNS_9allocatorIDsEEEE",
   "self_type" : "_ZTIRKNSt3__16vectorIDsNS_9allocatorIDsEEEE",
   "size" : 8,
   "source_file" : "frameworks/native/libs/binder/ndk/include_cpp/android/binder_parcel_utils.h"
  },
  {
   "alignment" : 8,
   "linker_set_key" : "_ZTIRKNSt3__16vectorIN4aidl7android8hardware5radio3sim19PhonebookRecordInfoENS_9allocatorIS6_EEEE",
   "name" : "const std::vector<aidl::android::hardware::radio::sim::PhonebookRecordInfo, std::allocator<aidl::android::hardware::radio::sim::PhonebookRecordInfo>> &",
   "referenced_type" : "_ZTIKNSt3__16vectorIN4aidl7android8hardware5radio3sim19PhonebookRecordInfoENS_9allocatorIS6_EEEE",
   "self_type" : "_ZTIRKNSt3__16vectorIN4aidl7android8hardware5radio3sim19PhonebookRecordInfoENS_9allocatorIS6_EEEE",
   "size" : 8,
   "source_file" : "out/soong/.intermediates/hardware/interfaces/radio/aidl/android.hardware.radio.sim-V1-ndk-source/gen/include/aidl/android/hardware/radio/sim/BnRadioSimIndication.h"
  },
  {
   "alignment" : 8,
   "linker_set_key" : "_ZTIRKNSt3__16vectorIN4aidl7android8hardware5radio3sim7CarrierENS_9allocatorIS6_EEEE",
   "name" : "const std::vector<aidl::android::hardware::radio::sim::Carrier, std::allocator<aidl::android::hardware::radio::sim::Carrier>> &",
   "referenced_type" : "_ZTIKNSt3__16vectorIN4aidl7android8hardware5radio3sim7CarrierENS_9allocatorIS6_EEEE",
   "self_type" : "_ZTIRKNSt3__16vectorIN4aidl7android8hardware5radio3sim7CarrierENS_9allocatorIS6_EEEE",
   "size" : 8,
   "source_file" : "frameworks/native/libs/binder/ndk/include_cpp/android/binder_to_string.h"
  },
  {
   "alignment" : 8,
   "linker_set_key" : "_ZTIRKNSt3__16vectorIN4aidl7android8hardware5radio3sim9AppStatusENS_9allocatorIS6_EEEE",
   "name" : "const std::vector<aidl::android::hardware::radio::sim::AppStatus, std::allocator<aidl::android::hardware::radio::sim::AppStatus>> &",
   "referenced_type" : "_ZTIKNSt3__16vectorIN4aidl7android8hardware5radio3sim9AppStatusENS_9allocatorIS6_EEEE",
   "self_type" : "_ZTIRKNSt3__16vectorIN4aidl7android8hardware5radio3sim9AppStatusENS_9allocatorIS6_EEEE",
   "size" : 8,
   "source_file" : "frameworks/native/libs/binder/ndk/include_cpp/android/binder_to_string.h"
  },
  {
   "alignment" : 8,
   "linker_set_key" : "_ZTIRKNSt3__16vectorIN4aidl7android8hardware5radio6config11SimPortInfoENS_9allocatorIS6_EEEE",
   "name" : "const std::vector<aidl::android::hardware::radio::config::SimPortInfo, std::allocator<aidl::android::hardware::radio::config::SimPortInfo>> &",
   "referenced_type" : "_ZTIKNSt3__16vectorIN4aidl7android8hardware5radio6config11SimPortInfoENS_9allocatorIS6_EEEE",
   "self_type" : "_ZTIRKNSt3__16vectorIN4aidl7android8hardware5radio6config11SimPortInfoENS_9allocatorIS6_EEEE",
   "size" : 8,
   "source_file" : "frameworks/native/libs/binder/ndk/include_cpp/android/binder_to_string.h"
  },
  {
   "alignment" : 8,
   "linker_set_key" : "_ZTIRKNSt3__16vectorIN4aidl7android8hardware5radio6config13SimSlotStatusENS_9allocatorIS6_EEEE",
   "name" : "const std::vector<aidl::android::hardware::radio::config::SimSlotStatus, std::allocator<aidl::android::hardware::radio::config::SimSlotStatus>> &",
   "referenced_type" : "_ZTIKNSt3__16vectorIN4aidl7android8hardware5radio6config13SimSlotStatusENS_9allocatorIS6_EEEE",
   "self_type" : "_ZTIRKNSt3__16vectorIN4aidl7android8hardware5radio6config13SimSlotStatusENS_9allocatorIS6_EEEE",
   "size" : 8,
   "source_file" : "out/soong/.intermediates/hardware/interfaces/radio/aidl/android.hardware.radio.config-V1-ndk-source/gen/include/aidl/android/hardware/radio/config/BnRadioConfigIndication.h"
  },
  {
   "alignment" : 8,
   "linker_set_key" : "_ZTIRKNSt3__16vectorIN4aidl7android8hardware5radio6config15SlotPortMappingENS_9allocatorIS6_EEEE",
   "name" : "const std::vector<aidl::android::hardware::radio::config::SlotPortMapping, std::allocator<aidl::android::hardware::radio::config::SlotPortMapping>> &",
   "referenced_type" : "_ZTIKNSt3__16vectorIN4aidl7android8hardware5radio6config15SlotPortMappingENS_9allocatorIS6_EEEE",
   "self_type" : "_ZTIRKNSt3__16vectorIN4aidl7android8hardware5radio6config15SlotPortMappingENS_9allocatorIS6_EEEE",
   "size" : 8,
   "source_file" : "out/soong/.intermediates/hardware/interfaces/radio/aidl/android.hardware.radio.config-V1-ndk-source/gen/include/aidl/android/hardware/radio/config/BnRadioConfig.h"
  },
  {
   "alignment" : 8,
   "linker_set_key" : "_ZTIRKNSt3__16vectorINS_12basic_stringIcNS_11char_traitsIcEENS_9allocatorIcEEEENS4_IS6_EEEE",
   "name" : "const std::vector<std::basic_string<char, std::char_traits<char>, std::allocator<char>>, std::allocator<std::basic_string<char, std::char_traits<char>, std::allocator<char>>>> &",
   "referenced_type" : "_ZTIKNSt3__16vectorINS_12basic_stringIcNS_11char_traitsIcEENS_9allocatorIcEEEENS4_IS6_EEEE",
   "self_type" : "_ZTIRKNSt3__16vectorINS_12basic_stringIcNS_11char_traitsIcEENS_9allocatorIcEEEENS4_IS6_EEEE",
   "size" : 8,
   "source_file" : "frameworks/native/libs/binder/ndk/include_cpp/android/binder_to_string.h"
  },
  {
   "alignment" : 8,
   "linker_set_key" : "_ZTIRKNSt3__16vectorIbNS_9allocatorIbEEEE",
   "name" : "const std::vector<bool, std::allocator<bool>> &",
   "referenced_type" : "_ZTIKNSt3__16vectorIbNS_9allocatorIbEEEE",
   "self_type" : "_ZTIRKNSt3__16vectorIbNS_9allocatorIbEEEE",
   "size" : 8,
   "source_file" : "frameworks/native/libs/binder/ndk/include_cpp/android/binder_parcel_utils.h"
  },
  {
   "alignment" : 8,
   "linker_set_key" : "_ZTIRKNSt3__16vectorIdNS_9allocatorIdEEEE",
   "name" : "const std::vector<double, std::allocator<double>> &",
   "referenced_type" : "_ZTIKNSt3__16vectorIdNS_9allocatorIdEEEE",
   "self_type" : "_ZTIRKNSt3__16vectorIdNS_9allocatorIdEEEE",
   "size" : 8,
   "source_file" : "frameworks/native/libs/binder/ndk/include_cpp/android/binder_parcel_utils.h"
  },
  {
   "alignment" : 8,
   "linker_set_key" : "_ZTIRKNSt3__16vectorIfNS_9allocatorIfEEEE",
   "name" : "const std::vector<float, std::allocator<float>> &",
   "referenced_type" : "_ZTIKNSt3__16vectorIfNS_9allocatorIfEEEE",
   "self_type" : "_ZTIRKNSt3__16vectorIfNS_9allocatorIfEEEE",
   "size" : 8,
   "source_file" : "frameworks/native/libs/binder/ndk/include_cpp/android/binder_parcel_utils.h"
  },
  {
   "alignment" : 8,
   "linker_set_key" : "_ZTIRKNSt3__16vectorIhNS_9allocatorIhEEEE",
   "name" : "const std::vector<unsigned char, std::allocator<unsigned char>> &",
   "referenced_type" : "_ZTIKNSt3__16vectorIhNS_9allocatorIhEEEE",
   "self_type" : "_ZTIRKNSt3__16vectorIhNS_9allocatorIhEEEE",
   "size" : 8,
   "source_file" : "frameworks/native/libs/binder/ndk/include_cpp/android/binder_parcel_utils.h"
  },
  {
   "alignment" : 8,
   "linker_set_key" : "_ZTIRKNSt3__16vectorIiNS_9allocatorIiEEEE",
   "name" : "const std::vector<int, std::allocator<int>> &",
   "referenced_type" : "_ZTIKNSt3__16vectorIiNS_9allocatorIiEEEE",
   "self_type" : "_ZTIRKNSt3__16vectorIiNS_9allocatorIiEEEE",
   "size" : 8,
   "source_file" : "frameworks/native/libs/binder/ndk/include_cpp/android/binder_parcel_utils.h"
  },
  {
   "alignment" : 8,
   "linker_set_key" : "_ZTIRKNSt3__16vectorIjNS_9allocatorIjEEEE",
   "name" : "const std::vector<unsigned int, std::allocator<unsigned int>> &",
   "referenced_type" : "_ZTIKNSt3__16vectorIjNS_9allocatorIjEEEE",
   "self_type" : "_ZTIRKNSt3__16vectorIjNS_9allocatorIjEEEE",
   "size" : 8,
   "source_file" : "frameworks/native/libs/binder/ndk/include_cpp/android/binder_parcel_utils.h"
  },
  {
   "alignment" : 8,
   "linker_set_key" : "_ZTIRKNSt3__16vectorIlNS_9allocatorIlEEEE",
   "name" : "const std::vector<long, std::allocator<long>> &",
   "referenced_type" : "_ZTIKNSt3__16vectorIlNS_9allocatorIlEEEE",
   "self_type" : "_ZTIRKNSt3__16vectorIlNS_9allocatorIlEEEE",
   "size" : 8,
   "source_file" : "frameworks/native/libs/binder/ndk/include_cpp/android/binder_parcel_utils.h"
  },
  {
   "alignment" : 8,
   "linker_set_key" : "_ZTIRKNSt3__16vectorImNS_9allocatorImEEEE",
   "name" : "const std::vector<unsigned long, std::allocator<unsigned long>> &",
   "referenced_type" : "_ZTIKNSt3__16vectorImNS_9allocatorImEEEE",
   "self_type" : "_ZTIRKNSt3__16vectorImNS_9allocatorImEEEE",
   "size" : 8,
   "source_file" : "frameworks/native/libs/binder/ndk/include_cpp/android/binder_parcel_utils.h"
  },
  {
   "alignment" : 8,
   "linker_set_key" : "_ZTIRKNSt3__18optionalINS_6vectorIDsNS_9allocatorIDsEEEEEE",
   "name" : "const std::optional<std::vector<char16_t, std::allocator<char16_t>>> &",
   "referenced_type" : "_ZTIKNSt3__18optionalINS_6vectorIDsNS_9allocatorIDsEEEEEE",
   "self_type" : "_ZTIRKNSt3__18optionalINS_6vectorIDsNS_9allocatorIDsEEEEEE",
   "size" : 8,
   "source_file" : "frameworks/native/libs/binder/ndk/include_cpp/android/binder_parcel_utils.h"
  },
  {
   "alignment" : 8,
   "linker_set_key" : "_ZTIRKNSt3__18optionalINS_6vectorIbNS_9allocatorIbEEEEEE",
   "name" : "const std::optional<std::vector<bool, std::allocator<bool>>> &",
   "referenced_type" : "_ZTIKNSt3__18optionalINS_6vectorIbNS_9allocatorIbEEEEEE",
   "self_type" : "_ZTIRKNSt3__18optionalINS_6vectorIbNS_9allocatorIbEEEEEE",
   "size" : 8,
   "source_file" : "frameworks/native/libs/binder/ndk/include_cpp/android/binder_parcel_utils.h"
  },
  {
   "alignment" : 8,
   "linker_set_key" : "_ZTIRKNSt3__18optionalINS_6vectorIdNS_9allocatorIdEEEEEE",
   "name" : "const std::optional<std::vector<double, std::allocator<double>>> &",
   "referenced_type" : "_ZTIKNSt3__18optionalINS_6vectorIdNS_9allocatorIdEEEEEE",
   "self_type" : "_ZTIRKNSt3__18optionalINS_6vectorIdNS_9allocatorIdEEEEEE",
   "size" : 8,
   "source_file" : "frameworks/native/libs/binder/ndk/include_cpp/android/binder_parcel_utils.h"
  },
  {
   "alignment" : 8,
   "linker_set_key" : "_ZTIRKNSt3__18optionalINS_6vectorIfNS_9allocatorIfEEEEEE",
   "name" : "const std::optional<std::vector<float, std::allocator<float>>> &",
   "referenced_type" : "_ZTIKNSt3__18optionalINS_6vectorIfNS_9allocatorIfEEEEEE",
   "self_type" : "_ZTIRKNSt3__18optionalINS_6vectorIfNS_9allocatorIfEEEEEE",
   "size" : 8,
   "source_file" : "frameworks/native/libs/binder/ndk/include_cpp/android/binder_parcel_utils.h"
  },
  {
   "alignment" : 8,
   "linker_set_key" : "_ZTIRKNSt3__18optionalINS_6vectorIhNS_9allocatorIhEEEEEE",
   "name" : "const std::optional<std::vector<unsigned char, std::allocator<unsigned char>>> &",
   "referenced_type" : "_ZTIKNSt3__18optionalINS_6vectorIhNS_9allocatorIhEEEEEE",
   "self_type" : "_ZTIRKNSt3__18optionalINS_6vectorIhNS_9allocatorIhEEEEEE",
   "size" : 8,
   "source_file" : "frameworks/native/libs/binder/ndk/include_cpp/android/binder_parcel_utils.h"
  },
  {
   "alignment" : 8,
   "linker_set_key" : "_ZTIRKNSt3__18optionalINS_6vectorIiNS_9allocatorIiEEEEEE",
   "name" : "const std::optional<std::vector<int, std::allocator<int>>> &",
   "referenced_type" : "_ZTIKNSt3__18optionalINS_6vectorIiNS_9allocatorIiEEEEEE",
   "self_type" : "_ZTIRKNSt3__18optionalINS_6vectorIiNS_9allocatorIiEEEEEE",
   "size" : 8,
   "source_file" : "frameworks/native/libs/binder/ndk/include_cpp/android/binder_parcel_utils.h"
  },
  {
   "alignment" : 8,
   "linker_set_key" : "_ZTIRKNSt3__18optionalINS_6vectorIjNS_9allocatorIjEEEEEE",
   "name" : "const std::optional<std::vector<unsigned int, std::allocator<unsigned int>>> &",
   "referenced_type" : "_ZTIKNSt3__18optionalINS_6vectorIjNS_9allocatorIjEEEEEE",
   "self_type" : "_ZTIRKNSt3__18optionalINS_6vectorIjNS_9allocatorIjEEEEEE",
   "size" : 8,
   "source_file" : "frameworks/native/libs/binder/ndk/include_cpp/android/binder_parcel_utils.h"
  },
  {
   "alignment" : 8,
   "linker_set_key" : "_ZTIRKNSt3__18optionalINS_6vectorIlNS_9allocatorIlEEEEEE",
   "name" : "const std::optional<std::vector<long, std::allocator<long>>> &",
   "referenced_type" : "_ZTIKNSt3__18optionalINS_6vectorIlNS_9allocatorIlEEEEEE",
   "self_type" : "_ZTIRKNSt3__18optionalINS_6vectorIlNS_9allocatorIlEEEEEE",
   "size" : 8,
   "source_file" : "frameworks/native/libs/binder/ndk/include_cpp/android/binder_parcel_utils.h"
  },
  {
   "alignment" : 8,
   "linker_set_key" : "_ZTIRKNSt3__18optionalINS_6vectorImNS_9allocatorImEEEEEE",
   "name" : "const std::optional<std::vector<unsigned long, std::allocator<unsigned long>>> &",
   "referenced_type" : "_ZTIKNSt3__18optionalINS_6vectorImNS_9allocatorImEEEEEE",
   "self_type" : "_ZTIRKNSt3__18optionalINS_6vectorImNS_9allocatorImEEEEEE",
   "size" : 8,
   "source_file" : "frameworks/native/libs/binder/ndk/include_cpp/android/binder_parcel_utils.h"
  },
  {
   "alignment" : 8,
   "linker_set_key" : "_ZTIRKa",
   "name" : "const signed char &",
   "referenced_type" : "_ZTIKa",
   "self_type" : "_ZTIRKa",
   "size" : 8,
   "source_file" : "frameworks/native/libs/binder/ndk/include_cpp/android/binder_to_string.h"
  },
  {
   "alignment" : 8,
   "linker_set_key" : "_ZTIRKb",
   "name" : "const bool &",
   "referenced_type" : "_ZTIKb",
   "self_type" : "_ZTIRKb",
   "size" : 8,
   "source_file" : "frameworks/native/libs/binder/ndk/include_cpp/android/binder_to_string.h"
  },
  {
   "alignment" : 8,
   "linker_set_key" : "_ZTIRKh",
   "name" : "const unsigned char &",
   "referenced_type" : "_ZTIKh",
   "self_type" : "_ZTIRKh",
   "size" : 8,
   "source_file" : "frameworks/native/libs/binder/ndk/include_cpp/android/binder_to_string.h"
  },
  {
   "alignment" : 8,
   "linker_set_key" : "_ZTIRKi",
   "name" : "const int &",
   "referenced_type" : "_ZTIKi",
   "self_type" : "_ZTIRKi",
   "size" : 8,
   "source_file" : "frameworks/native/libs/binder/ndk/include_cpp/android/binder_to_string.h"
  },
  {
   "alignment" : 8,
   "linker_set_key" : "_ZTIRKl",
   "name" : "const long &",
   "referenced_type" : "_ZTIKl",
   "self_type" : "_ZTIRKl",
   "size" : 8,
   "source_file" : "frameworks/native/libs/binder/ndk/include_cpp/android/binder_to_string.h"
  },
  {
   "alignment" : 8,
   "linker_set_key" : "_ZTIRN3ndk10SpAIBinderE",
   "name" : "ndk::SpAIBinder &",
   "referenced_type" : "_ZTIN3ndk10SpAIBinderE",
   "self_type" : "_ZTIRN3ndk10SpAIBinderE",
   "size" : 8,
   "source_file" : "frameworks/native/libs/binder/ndk/include_cpp/android/binder_auto_utils.h"
  },
  {
   "alignment" : 8,
   "linker_set_key" : "_ZTIRN3ndk13ScopedAParcelE",
   "name" : "ndk::ScopedAParcel &",
   "referenced_type" : "_ZTIN3ndk13ScopedAParcelE",
   "self_type" : "_ZTIRN3ndk13ScopedAParcelE",
   "size" : 8,
   "source_file" : "frameworks/native/libs/binder/ndk/include_cpp/android/binder_auto_utils.h"
  },
  {
   "alignment" : 8,
   "linker_set_key" : "_ZTIRN3ndk13ScopedAStatusE",
   "name" : "ndk::ScopedAStatus &",
   "referenced_type" : "_ZTIN3ndk13ScopedAStatusE",
   "self_type" : "_ZTIRN3ndk13ScopedAStatusE",
   "size" : 8,
   "source_file" : "frameworks/native/libs/binder/ndk/include_cpp/android/binder_auto_utils.h"
  },
  {
   "alignment" : 8,
   "linker_set_key" : "_ZTIRN3ndk19ScopedAIBinder_WeakE",
   "name" : "ndk::ScopedAIBinder_Weak &",
   "referenced_type" : "_ZTIN3ndk19ScopedAIBinder_WeakE",
   "self_type" : "_ZTIRN3ndk19ScopedAIBinder_WeakE",
   "size" : 8,
   "source_file" : "frameworks/native/libs/binder/ndk/include_cpp/android/binder_auto_utils.h"
  },
  {
   "alignment" : 8,
   "linker_set_key" : "_ZTIRN3ndk20ScopedFileDescriptorE",
   "name" : "ndk::ScopedFileDescriptor &",
   "referenced_type" : "_ZTIN3ndk20ScopedFileDescriptorE",
   "self_type" : "_ZTIRN3ndk20ScopedFileDescriptorE",
   "size" : 8,
   "source_file" : "frameworks/native/libs/binder/ndk/include_cpp/android/binder_auto_utils.h"
  },
  {
   "alignment" : 8,
   "linker_set_key" : "_ZTIRN3ndk29ScopedAIBinder_DeathRecipientE",
   "name" : "ndk::ScopedAIBinder_DeathRecipient &",
   "referenced_type" : "_ZTIN3ndk29ScopedAIBinder_DeathRecipientE",
   "self_type" : "_ZTIRN3ndk29ScopedAIBinder_DeathRecipientE",
   "size" : 8,
   "source_file" : "frameworks/native/libs/binder/ndk/include_cpp/android/binder_auto_utils.h"
  },
  {
   "alignment" : 8,
   "linker_set_key" : "_ZTIRN3ndk4impl15ScopedAResourceIP7AStatusXadL_Z14AStatus_deleteEELS3_0EEE",
   "name" : "ndk::impl::ScopedAResource<AStatus *, &AStatus_delete, nullptr> &",
   "referenced_type" : "_ZTIN3ndk4impl15ScopedAResourceIP7AStatusXadL_Z14AStatus_deleteEELS3_0EEE",
   "self_type" : "_ZTIRN3ndk4impl15ScopedAResourceIP7AStatusXadL_Z14AStatus_deleteEELS3_0EEE",
   "size" : 8,
   "source_file" : "frameworks/native/libs/binder/ndk/include_cpp/android/binder_auto_utils.h"
  }
 ],
 "pointer_types" :
 [
  {
   "alignment" : 8,
   "linker_set_key" : "_ZTIP13AIBinder_Weak",
   "name" : "AIBinder_Weak *",
   "referenced_type" : "_ZTI13AIBinder_Weak",
   "self_type" : "_ZTIP13AIBinder_Weak",
   "size" : 8,
   "source_file" : "frameworks/native/libs/binder/ndk/include_cpp/android/binder_auto_utils.h"
  },
  {
   "alignment" : 8,
   "linker_set_key" : "_ZTIP14AIBinder_Class",
   "name" : "AIBinder_Class *",
   "referenced_type" : "_ZTI14AIBinder_Class",
   "self_type" : "_ZTIP14AIBinder_Class",
   "size" : 8,
   "source_file" : "frameworks/native/libs/binder/ndk/include_cpp/android/binder_interface_utils.h"
  },
  {
   "alignment" : 8,
   "linker_set_key" : "_ZTIP23AIBinder_DeathRecipient",
   "name" : "AIBinder_DeathRecipient *",
   "referenced_type" : "_ZTI23AIBinder_DeathRecipient",
   "self_type" : "_ZTIP23AIBinder_DeathRecipient",
   "size" : 8,
   "source_file" : "frameworks/native/libs/binder/ndk/include_cpp/android/binder_auto_utils.h"
  },
  {
   "alignment" : 8,
   "linker_set_key" : "_ZTIP7AParcel",
   "name" : "AParcel *",
   "referenced_type" : "_ZTI7AParcel",
   "self_type" : "_ZTIP7AParcel",
   "size" : 8,
   "source_file" : "frameworks/native/libs/binder/ndk/include_cpp/android/binder_auto_utils.h"
  },
  {
   "alignment" : 8,
   "linker_set_key" : "_ZTIP7AStatus",
   "name" : "AStatus *",
   "referenced_type" : "_ZTI7AStatus",
   "self_type" : "_ZTIP7AStatus",
   "size" : 8,
   "source_file" : "frameworks/native/libs/binder/ndk/include_cpp/android/binder_auto_utils.h"
  },
  {
   "alignment" : 8,
   "linker_set_key" : "_ZTIP8AIBinder",
   "name" : "AIBinder *",
   "referenced_type" : "_ZTI8AIBinder",
   "self_type" : "_ZTIP8AIBinder",
   "size" : 8,
   "source_file" : "frameworks/native/libs/binder/ndk/include_cpp/android/binder_auto_utils.h"
  },
  {
   "alignment" : 8,
   "linker_set_key" : "_ZTIPFiP8AIBinderjPK7AParcelPS1_E",
   "name" : "int (*)(AIBinder *, unsigned int, const AParcel *, AParcel *)",
   "referenced_type" : "_ZTIFiP8AIBinderjPK7AParcelPS1_E",
   "self_type" : "_ZTIPFiP8AIBinderjPK7AParcelPS1_E",
   "size" : 8,
   "source_file" : "frameworks/native/libs/binder/ndk/include_cpp/android/binder_interface_utils.h"
  },
  {
   "alignment" : 8,
   "linker_set_key" : "_ZTIPK7AParcel",
   "name" : "const AParcel *",
   "referenced_type" : "_ZTIK7AParcel",
   "self_type" : "_ZTIPK7AParcel",
   "size" : 8,
   "source_file" : "frameworks/native/libs/binder/ndk/include_cpp/android/binder_interface_utils.h"
  },
  {
   "alignment" : 8,
   "linker_set_key" : "_ZTIPKN3ndk10SpAIBinderE",
   "name" : "const ndk::SpAIBinder *",
   "referenced_type" : "_ZTIKN3ndk10SpAIBinderE",
   "self_type" : "_ZTIPKN3ndk10SpAIBinderE",
   "size" : 8,
   "source_file" : "frameworks/native/libs/binder/ndk/include_cpp/android/binder_auto_utils.h"
  },
  {
   "alignment" : 8,
   "linker_set_key" : "_ZTIPKN3ndk13ScopedAParcelE",
   "name" : "const ndk::ScopedAParcel *",
   "referenced_type" : "_ZTIKN3ndk13ScopedAParcelE",
   "self_type" : "_ZTIPKN3ndk13ScopedAParcelE",
   "size" : 8,
   "source_file" : "frameworks/native/libs/binder/ndk/include_cpp/android/binder_auto_utils.h"
  },
  {
   "alignment" : 8,
   "linker_set_key" : "_ZTIPKN3ndk13ScopedAStatusE",
   "name" : "const ndk::ScopedAStatus *",
   "referenced_type" : "_ZTIKN3ndk13ScopedAStatusE",
   "self_type" : "_ZTIPKN3ndk13ScopedAStatusE",
   "size" : 8,
   "source_file" : "frameworks/native/libs/binder/ndk/include_cpp/android/binder_auto_utils.h"
  },
  {
   "alignment" : 8,
   "linker_set_key" : "_ZTIPKN3ndk17AParcelableHolderE",
   "name" : "const ndk::AParcelableHolder *",
   "referenced_type" : "_ZTIKN3ndk17AParcelableHolderE",
   "self_type" : "_ZTIPKN3ndk17AParcelableHolderE",
   "size" : 8,
   "source_file" : "frameworks/native/libs/binder/ndk/include_cpp/android/binder_parcelable_utils.h"
  },
  {
   "alignment" : 8,
   "linker_set_key" : "_ZTIPKN3ndk20ScopedFileDescriptorE",
   "name" : "const ndk::ScopedFileDescriptor *",
   "referenced_type" : "_ZTIKN3ndk20ScopedFileDescriptorE",
   "self_type" : "_ZTIPKN3ndk20ScopedFileDescriptorE",
   "size" : 8,
   "source_file" : "frameworks/native/libs/binder/ndk/include_cpp/android/binder_auto_utils.h"
  },
  {
   "alignment" : 8,
   "linker_set_key" : "_ZTIPKN3ndk4impl15ScopedAResourceIP7AParcelXadL_Z14AParcel_deleteEELS3_0EEE",
   "name" : "const ndk::impl::ScopedAResource<AParcel *, &AParcel_delete, nullptr> *",
   "referenced_type" : "_ZTIKN3ndk4impl15ScopedAResourceIP7AParcelXadL_Z14AParcel_deleteEELS3_0EEE",
   "self_type" : "_ZTIPKN3ndk4impl15ScopedAResourceIP7AParcelXadL_Z14AParcel_deleteEELS3_0EEE",
   "size" : 8,
   "source_file" : "frameworks/native/libs/binder/ndk/include_cpp/android/binder_auto_utils.h"
  },
  {
   "alignment" : 8,
   "linker_set_key" : "_ZTIPKN3ndk4impl15ScopedAResourceIP7AStatusXadL_Z14AStatus_deleteEELS3_0EEE",
   "name" : "const ndk::impl::ScopedAResource<AStatus *, &AStatus_delete, nullptr> *",
   "referenced_type" : "_ZTIKN3ndk4impl15ScopedAResourceIP7AStatusXadL_Z14AStatus_deleteEELS3_0EEE",
   "self_type" : "_ZTIPKN3ndk4impl15ScopedAResourceIP7AStatusXadL_Z14AStatus_deleteEELS3_0EEE",
   "size" : 8,
   "source_file" : "frameworks/native/libs/binder/ndk/include_cpp/android/binder_auto_utils.h"
  },
  {
   "alignment" : 8,
   "linker_set_key" : "_ZTIPKN4aidl7android8hardware5radio17RadioResponseInfoE",
   "name" : "const aidl::android::hardware::radio::RadioResponseInfo *",
   "referenced_type" : "_ZTIKN4aidl7android8hardware5radio17RadioResponseInfoE",
   "self_type" : "_ZTIPKN4aidl7android8hardware5radio17RadioResponseInfoE",
   "size" : 8,
   "source_file" : "out/soong/.intermediates/hardware/interfaces/radio/aidl/android.hardware.radio-V1-ndk-source/gen/include/aidl/android/hardware/radio/RadioResponseInfo.h"
  },
  {
   "alignment" : 8,
   "linker_set_key" : "_ZTIPKN4aidl7android8hardware5radio3sim10CardStatusE",
   "name" : "const aidl::android::hardware::radio::sim::CardStatus *",
   "referenced_type" : "_ZTIKN4aidl7android8hardware5radio3sim10CardStatusE",
   "self_type" : "_ZTIPKN4aidl7android8hardware5radio3sim10CardStatusE",
   "size" : 8,
   "source_file" : "out/soong/.intermediates/hardware/interfaces/radio/aidl/android.hardware.radio.sim-V1-ndk-source/gen/include/aidl/android/hardware/radio/sim/CardStatus.h"
  },
  {
   "alignment" : 8,
   "linker_set_key" : "_ZTIPKN4aidl7android8hardware5radio3sim11IccIoResultE",
   "name" : "const aidl::android::hardware::radio::sim::IccIoResult *",
   "referenced_type" : "_ZTIKN4aidl7android8hardware5radio3sim11IccIoResultE",
   "self_type" : "_ZTIPKN4aidl7android8hardware5radio3sim11IccIoResultE",
   "size" : 8,
   "source_file" : "out/soong/.intermediates/hardware/interfaces/radio/aidl/android.hardware.radio.sim-V1-ndk-source/gen/include/aidl/android/hardware/radio/sim/IccIoResult.h"
  },
  {
   "alignment" : 8,
   "linker_set_key" : "_ZTIPKN4aidl7android8hardware5radio3sim13SelectUiccSubE",
   "name" : "const aidl::android::hardware::radio::sim::SelectUiccSub *",
   "referenced_type" : "_ZTIKN4aidl7android8hardware5radio3sim13SelectUiccSubE",
   "self_type" : "_ZTIPKN4aidl7android8hardware5radio3sim13SelectUiccSubE",
   "size" : 8,
   "source_file" : "out/soong/.intermediates/hardware/interfaces/radio/aidl/android.hardware.radio.sim-V1-ndk-source/gen/include/aidl/android/hardware/radio/sim/SelectUiccSub.h"
  },
  {
   "alignment" : 8,
   "linker_set_key" : "_ZTIPKN4aidl7android8hardware5radio3sim16SimRefreshResultE",
   "name" : "const aidl::android::hardware::radio::sim::SimRefreshResult *",
   "referenced_type" : "_ZTIKN4aidl7android8hardware5radio3sim16SimRefreshResultE",
   "self_type" : "_ZTIPKN4aidl7android8hardware5radio3sim16SimRefreshResultE",
   "size" : 8,
   "source_file" : "out/soong/.intermediates/hardware/interfaces/radio/aidl/android.hardware.radio.sim-V1-ndk-source/gen/include/aidl/android/hardware/radio/sim/SimRefreshResult.h"
  },
  {
   "alignment" : 8,
   "linker_set_key" : "_ZTIPKN4aidl7android8hardware5radio3sim17PhonebookCapacityE",
   "name" : "const aidl::android::hardware::radio::sim::PhonebookCapacity *",
   "referenced_type" : "_ZTIKN4aidl7android8hardware5radio3sim17PhonebookCapacityE",
   "self_type" : "_ZTIPKN4aidl7android8hardware5radio3sim17PhonebookCapacityE",
   "size" : 8,
   "source_file" : "out/soong/.intermediates/hardware/interfaces/radio/aidl/android.hardware.radio.sim-V1-ndk-source/gen/include/aidl/android/hardware/radio/sim/PhonebookCapacity.h"
  },
  {
   "alignment" : 8,
   "linker_set_key" : "_ZTIPKN4aidl7android8hardware5radio3sim18ImsiEncryptionInfoE",
   "name" : "const aidl::android::hardware::radio::sim::ImsiEncryptionInfo *",
   "referenced_type" : "_ZTIKN4aidl7android8hardware5radio3sim18ImsiEncryptionInfoE",
   "self_type" : "_ZTIPKN4aidl7android8hardware5radio3sim18ImsiEncryptionInfoE",
   "size" : 8,
   "source_file" : "out/soong/.intermediates/hardware/interfaces/radio/aidl/android.hardware.radio.sim-V1-ndk-source/gen/include/aidl/android/hardware/radio/sim/ImsiEncryptionInfo.h"
  },
  {
   "alignment" : 8,
   "linker_set_key" : "_ZTIPKN4aidl7android8hardware5radio3sim19CarrierRestrictionsE",
   "name" : "const aidl::android::hardware::radio::sim::CarrierRestrictions *",
   "referenced_type" : "_ZTIKN4aidl7android8hardware5radio3sim19CarrierRestrictionsE",
   "self_type" : "_ZTIPKN4aidl7android8hardware5radio3sim19CarrierRestrictionsE",
   "size" : 8,
   "source_file" : "out/soong/.intermediates/hardware/interfaces/radio/aidl/android.hardware.radio.sim-V1-ndk-source/gen/include/aidl/android/hardware/radio/sim/CarrierRestrictions.h"
  },
  {
   "alignment" : 8,
   "linker_set_key" : "_ZTIPKN4aidl7android8hardware5radio3sim19PhonebookRecordInfoE",
   "name" : "const aidl::android::hardware::radio::sim::PhonebookRecordInfo *",
   "referenced_type" : "_ZTIKN4aidl7android8hardware5radio3sim19PhonebookRecordInfoE",
   "self_type" : "_ZTIPKN4aidl7android8hardware5radio3sim19PhonebookRecordInfoE",
   "size" : 8,
   "source_file" : "out/soong/.intermediates/hardware/interfaces/radio/aidl/android.hardware.radio.sim-V1-ndk-source/gen/include/aidl/android/hardware/radio/sim/PhonebookRecordInfo.h"
  },
  {
   "alignment" : 8,
   "linker_set_key" : "_ZTIPKN4aidl7android8hardware5radio3sim5IccIoE",
   "name" : "const aidl::android::hardware::radio::sim::IccIo *",
   "referenced_type" : "_ZTIKN4aidl7android8hardware5radio3sim5IccIoE",
   "self_type" : "_ZTIPKN4aidl7android8hardware5radio3sim5IccIoE",
   "size" : 8,
   "source_file" : "out/soong/.intermediates/hardware/interfaces/radio/aidl/android.hardware.radio.sim-V1-ndk-source/gen/include/aidl/android/hardware/radio/sim/IccIo.h"
  },
  {
   "alignment" : 8,
   "linker_set_key" : "_ZTIPKN4aidl7android8hardware5radio3sim7CarrierE",
   "name" : "const aidl::android::hardware::radio::sim::Carrier *",
   "referenced_type" : "_ZTIKN4aidl7android8hardware5radio3sim7CarrierE",
   "self_type" : "_ZTIPKN4aidl7android8hardware5radio3sim7CarrierE",
   "size" : 8,
   "source_file" : "out/soong/.intermediates/hardware/interfaces/radio/aidl/android.hardware.radio.sim-V1-ndk-source/gen/include/aidl/android/hardware/radio/sim/Carrier.h"
  },
  {
   "alignment" : 8,
   "linker_set_key" : "_ZTIPKN4aidl7android8hardware5radio3sim7SimApduE",
   "name" : "const aidl::android::hardware::radio::sim::SimApdu *",
   "referenced_type" : "_ZTIKN4aidl7android8hardware5radio3sim7SimApduE",
   "self_type" : "_ZTIPKN4aidl7android8hardware5radio3sim7SimApduE",
   "size" : 8,
   "source_file" : "out/soong/.intermediates/hardware/interfaces/radio/aidl/android.hardware.radio.sim-V1-ndk-source/gen/include/aidl/android/hardware/radio/sim/SimApdu.h"
  },
  {
   "alignment" : 8,
   "linker_set_key" : "_ZTIPKN4aidl7android8hardware5radio3sim9AppStatusE",
   "name" : "const aidl::android::hardware::radio::sim::AppStatus *",
   "referenced_type" : "_ZTIKN4aidl7android8hardware5radio3sim9AppStatusE",
   "self_type" : "_ZTIPKN4aidl7android8hardware5radio3sim9AppStatusE",
   "size" : 8,
   "source_file" : "out/soong/.intermediates/hardware/interfaces/radio/aidl/android.hardware.radio.sim-V1-ndk-source/gen/include/aidl/android/hardware/radio/sim/AppStatus.h"
  },
  {
   "alignment" : 8,
   "linker_set_key" : "_ZTIPKN4aidl7android8hardware5radio6config11SimPortInfoE",
   "name" : "const aidl::android::hardware::radio::config::SimPortInfo *",
   "referenced_type" : "_ZTIKN4aidl7android8hardware5radio6config11SimPortInfoE",
   "self_type" : "_ZTIPKN4aidl7android8hardware5radio6config11SimPortInfoE",
   "size" : 8,
   "source_file" : "out/soong/.intermediates/hardware/interfaces/radio/aidl/android.hardware.radio.config-V1-ndk-source/gen/include/aidl/android/hardware/radio/config/SimPortInfo.h"
  },
  {
   "alignment" : 8,
   "linker_set_key" : "_ZTIPKN4aidl7android8hardware5radio6config13SimSlotStatusE",
   "name" : "const aidl::android::hardware::radio::config::SimSlotStatus *",
   "referenced_type" : "_ZTIKN4aidl7android8hardware5radio6config13SimSlotStatusE",
   "self_type" : "_ZTIPKN4aidl7android8hardware5radio6config13SimSlotStatusE",
   "size" : 8,
   "source_file" : "out/soong/.intermediates/hardware/interfaces/radio/aidl/android.hardware.radio.config-V1-ndk-source/gen/include/aidl/android/hardware/radio/config/SimSlotStatus.h"
  },
  {
   "alignment" : 8,
   "linker_set_key" : "_ZTIPKN4aidl7android8hardware5radio6config15PhoneCapabilityE",
   "name" : "const aidl::android::hardware::radio::config::PhoneCapability *",
   "referenced_type" : "_ZTIKN4aidl7android8hardware5radio6config15PhoneCapabilityE",
   "self_type" : "_ZTIPKN4aidl7android8hardware5radio6config15PhoneCapabilityE",
   "size" : 8,
   "source_file" : "out/soong/.intermediates/hardware/interfaces/radio/aidl/android.hardware.radio.config-V1-ndk-source/gen/include/aidl/android/hardware/radio/config/PhoneCapability.h"
  },
  {
   "alignment" : 8,
   "linker_set_key" : "_ZTIPKN4aidl7android8hardware5radio6config15SlotPortMappingE",
   "name" : "const aidl::android::hardware::radio::config::SlotPortMapping *",
   "referenced_type" : "_ZTIKN4aidl7android8hardware5radio6config15SlotPortMappingE",
   "self_type" : "_ZTIPKN4aidl7android8hardware5radio6config15SlotPortMappingE",
   "size" : 8,
   "source_file" : "out/soong/.intermediates/hardware/interfaces/radio/aidl/android.hardware.radio.config-V1-ndk-source/gen/include/aidl/android/hardware/radio/config/SlotPortMapping.h"
  },
  {
   "alignment" : 8,
   "linker_set_key" : "_ZTIPKc",
   "name" : "const char *",
   "referenced_type" : "_ZTIKc",
   "self_type" : "_ZTIPKc",
   "size" : 8,
   "source_file" : "frameworks/native/libs/binder/ndk/include_cpp/android/binder_auto_utils.h"
  },
  {
   "alignment" : 8,
   "linker_set_key" : "_ZTIPKv",
   "name" : "const void *",
   "referenced_type" : "_ZTIKv",
   "self_type" : "_ZTIPKv",
   "size" : 8,
   "source_file" : "frameworks/native/libs/binder/ndk/include_cpp/android/binder_parcel_utils.h"
  },
  {
   "alignment" : 8,
   "linker_set_key" : "_ZTIPN3ndk10SpAIBinderE",
   "name" : "ndk::SpAIBinder *",
   "referenced_type" : "_ZTIN3ndk10SpAIBinderE",
   "self_type" : "_ZTIPN3ndk10SpAIBinderE",
   "size" : 8,
   "source_file" : "frameworks/native/libs/binder/ndk/include_cpp/android/binder_auto_utils.h"
  },
  {
   "alignment" : 8,
   "linker_set_key" : "_ZTIPN3ndk11ICInterfaceE",
   "name" : "ndk::ICInterface *",
   "referenced_type" : "_ZTIN3ndk11ICInterfaceE",
   "self_type" : "_ZTIPN3ndk11ICInterfaceE",
   "size" : 8,
   "source_file" : "frameworks/native/libs/binder/ndk/include_cpp/android/binder_interface_utils.h"
  },
  {
   "alignment" : 8,
   "linker_set_key" : "_ZTIPN3ndk12BnCInterfaceIN4aidl7android8hardware5radio3sim17IRadioSimResponseEEE",
   "name" : "ndk::BnCInterface<aidl::android::hardware::radio::sim::IRadioSimResponse> *",
   "referenced_type" : "_ZTIN3ndk12BnCInterfaceIN4aidl7android8hardware5radio3sim17IRadioSimResponseEEE",
   "self_type" : "_ZTIPN3ndk12BnCInterfaceIN4aidl7android8hardware5radio3sim17IRadioSimResponseEEE",
   "size" : 8,
   "source_file" : "frameworks/native/libs/binder/ndk/include_cpp/android/binder_interface_utils.h"
  },
  {
   "alignment" : 8,
   "linker_set_key" : "_ZTIPN3ndk12BnCInterfaceIN4aidl7android8hardware5radio3sim19IRadioSimIndicationEEE",
   "name" : "ndk::BnCInterface<aidl::android::hardware::radio::sim::IRadioSimIndication> *",
   "referenced_type" : "_ZTIN3ndk12BnCInterfaceIN4aidl7android8hardware5radio3sim19IRadioSimIndicationEEE",
   "self_type" : "_ZTIPN3ndk12BnCInterfaceIN4aidl7android8hardware5radio3sim19IRadioSimIndicationEEE",
   "size" : 8,
   "source_file" : "frameworks/native/libs/binder/ndk/include_cpp/android/binder_interface_utils.h"
  },
  {
   "alignment" : 8,
   "linker_set_key" : "_ZTIPN3ndk12BnCInterfaceIN4aidl7android8hardware5radio3sim9IRadioSimEEE",
   "name" : "ndk::BnCInterface<aidl::android::hardware::radio::sim::IRadioSim> *",
   "referenced_type" : "_ZTIN3ndk12BnCInterfaceIN4aidl7android8hardware5radio3sim9IRadioSimEEE",
   "self_type" : "_ZTIPN3ndk12BnCInterfaceIN4aidl7android8hardware5radio3sim9IRadioSimEEE",
   "size" : 8,
   "source_file" : "frameworks/native/libs/binder/ndk/include_cpp/android/binder_interface_utils.h"
  },
  {
   "alignment" : 8,
   "linker_set_key" : "_ZTIPN3ndk12BnCInterfaceIN4aidl7android8hardware5radio6config12IRadioConfigEEE",
   "name" : "ndk::BnCInterface<aidl::android::hardware::radio::config::IRadioConfig> *",
   "referenced_type" : "_ZTIN3ndk12BnCInterfaceIN4aidl7android8hardware5radio6config12IRadioConfigEEE",
   "self_type" : "_ZTIPN3ndk12BnCInterfaceIN4aidl7android8hardware5radio6config12IRadioConfigEEE",
   "size" : 8,
   "source_file" : "frameworks/native/libs/binder/ndk/include_cpp/android/binder_interface_utils.h"
  },
  {
   "alignment" : 8,
   "linker_set_key" : "_ZTIPN3ndk12BnCInterfaceIN4aidl7android8hardware5radio6config20IRadioConfigResponseEEE",
   "name" : "ndk::BnCInterface<aidl::android::hardware::radio::config::IRadioConfigResponse> *",
   "referenced_type" : "_ZTIN3ndk12BnCInterfaceIN4aidl7android8hardware5radio6config20IRadioConfigResponseEEE",
   "self_type" : "_ZTIPN3ndk12BnCInterfaceIN4aidl7android8hardware5radio6config20IRadioConfigResponseEEE",
   "size" : 8,
   "source_file" : "frameworks/native/libs/binder/ndk/include_cpp/android/binder_interface_utils.h"
  },
  {
   "alignment" : 8,
   "linker_set_key" : "_ZTIPN3ndk12BnCInterfaceIN4aidl7android8hardware5radio6config22IRadioConfigIndicationEEE",
   "name" : "ndk::BnCInterface<aidl::android::hardware::radio::config::IRadioConfigIndication> *",
   "referenced_type" : "_ZTIN3ndk12BnCInterfaceIN4aidl7android8hardware5radio6config22IRadioConfigIndicationEEE",
   "self_type" : "_ZTIPN3ndk12BnCInterfaceIN4aidl7android8hardware5radio6config22IRadioConfigIndicationEEE",
   "size" : 8,
   "source_file" : "frameworks/native/libs/binder/ndk/include_cpp/android/binder_interface_utils.h"
  },
  {
   "alignment" : 8,
   "linker_set_key" : "_ZTIPN3ndk12BpCInterfaceIN4aidl7android8hardware5radio3sim17IRadioSimResponseEEE",
   "name" : "ndk::BpCInterface<aidl::android::hardware::radio::sim::IRadioSimResponse> *",
   "referenced_type" : "_ZTIN3ndk12BpCInterfaceIN4aidl7android8hardware5radio3sim17IRadioSimResponseEEE",
   "self_type" : "_ZTIPN3ndk12BpCInterfaceIN4aidl7android8hardware5radio3sim17IRadioSimResponseEEE",
   "size" : 8,
   "source_file" : "frameworks/native/libs/binder/ndk/include_cpp/android/binder_interface_utils.h"
  },
  {
   "alignment" : 8,
   "linker_set_key" : "_ZTIPN3ndk12BpCInterfaceIN4aidl7android8hardware5radio3sim19IRadioSimIndicationEEE",
   "name" : "ndk::BpCInterface<aidl::android::hardware::radio::sim::IRadioSimIndication> *",
   "referenced_type" : "_ZTIN3ndk12BpCInterfaceIN4aidl7android8hardware5radio3sim19IRadioSimIndicationEEE",
   "self_type" : "_ZTIPN3ndk12BpCInterfaceIN4aidl7android8hardware5radio3sim19IRadioSimIndicationEEE",
   "size" : 8,
   "source_file" : "frameworks/native/libs/binder/ndk/include_cpp/android/binder_interface_utils.h"
  },
  {
   "alignment" : 8,
   "linker_set_key" : "_ZTIPN3ndk12BpCInterfaceIN4aidl7android8hardware5radio3sim9IRadioSimEEE",
   "name" : "ndk::BpCInterface<aidl::android::hardware::radio::sim::IRadioSim> *",
   "referenced_type" : "_ZTIN3ndk12BpCInterfaceIN4aidl7android8hardware5radio3sim9IRadioSimEEE",
   "self_type" : "_ZTIPN3ndk12BpCInterfaceIN4aidl7android8hardware5radio3sim9IRadioSimEEE",
   "size" : 8,
   "source_file" : "frameworks/native/libs/binder/ndk/include_cpp/android/binder_interface_utils.h"
  },
  {
   "alignment" : 8,
   "linker_set_key" : "_ZTIPN3ndk13ScopedAParcelE",
   "name" : "ndk::ScopedAParcel *",
   "referenced_type" : "_ZTIN3ndk13ScopedAParcelE",
   "self_type" : "_ZTIPN3ndk13ScopedAParcelE",
   "size" : 8,
   "source_file" : "frameworks/native/libs/binder/ndk/include_cpp/android/binder_auto_utils.h"
  },
  {
   "alignment" : 8,
   "linker_set_key" : "_ZTIPN3ndk13ScopedAStatusE",
   "name" : "ndk::ScopedAStatus *",
   "referenced_type" : "_ZTIN3ndk13ScopedAStatusE",
   "self_type" : "_ZTIPN3ndk13ScopedAStatusE",
   "size" : 8,
   "source_file" : "frameworks/native/libs/binder/ndk/include_cpp/android/binder_auto_utils.h"
  },
  {
   "alignment" : 8,
   "linker_set_key" : "_ZTIPN3ndk13SharedRefBaseE",
   "name" : "ndk::SharedRefBase *",
   "referenced_type" : "_ZTIN3ndk13SharedRefBaseE",
   "self_type" : "_ZTIPN3ndk13SharedRefBaseE",
   "size" : 8,
   "source_file" : "frameworks/native/libs/binder/ndk/include_cpp/android/binder_interface_utils.h"
  },
  {
   "alignment" : 8,
   "linker_set_key" : "_ZTIPN3ndk17AParcelableHolderE",
   "name" : "ndk::AParcelableHolder *",
   "referenced_type" : "_ZTIN3ndk17AParcelableHolderE",
   "self_type" : "_ZTIPN3ndk17AParcelableHolderE",
   "size" : 8,
   "source_file" : "frameworks/native/libs/binder/ndk/include_cpp/android/binder_parcelable_utils.h"
  },
  {
   "alignment" : 8,
   "linker_set_key" : "_ZTIPN3ndk19ScopedAIBinder_WeakE",
   "name" : "ndk::ScopedAIBinder_Weak *",
   "referenced_type" : "_ZTIN3ndk19ScopedAIBinder_WeakE",
   "self_type" : "_ZTIPN3ndk19ScopedAIBinder_WeakE",
   "size" : 8,
   "source_file" : "frameworks/native/libs/binder/ndk/include_cpp/android/binder_auto_utils.h"
  },
  {
   "alignment" : 8,
   "linker_set_key" : "_ZTIPN3ndk20ScopedFileDescriptorE",
   "name" : "ndk::ScopedFileDescriptor *",
   "referenced_type" : "_ZTIN3ndk20ScopedFileDescriptorE",
   "self_type" : "_ZTIPN3ndk20ScopedFileDescriptorE",
   "size" : 8,
   "source_file" : "frameworks/native/libs/binder/ndk/include_cpp/android/binder_auto_utils.h"
  },
  {
   "alignment" : 8,
   "linker_set_key" : "_ZTIPN3ndk29ScopedAIBinder_DeathRecipientE",
   "name" : "ndk::ScopedAIBinder_DeathRecipient *",
   "referenced_type" : "_ZTIN3ndk29ScopedAIBinder_DeathRecipientE",
   "self_type" : "_ZTIPN3ndk29ScopedAIBinder_DeathRecipientE",
   "size" : 8,
   "source_file" : "frameworks/native/libs/binder/ndk/include_cpp/android/binder_auto_utils.h"
  },
  {
   "alignment" : 8,
   "linker_set_key" : "_ZTIPN3ndk4impl15ScopedAResourceIP13AIBinder_WeakXadL_Z20AIBinder_Weak_deleteEELS3_0EEE",
   "name" : "ndk::impl::ScopedAResource<AIBinder_Weak *, &AIBinder_Weak_delete, nullptr> *",
   "referenced_type" : "_ZTIN3ndk4impl15ScopedAResourceIP13AIBinder_WeakXadL_Z20AIBinder_Weak_deleteEELS3_0EEE",
   "self_type" : "_ZTIPN3ndk4impl15ScopedAResourceIP13AIBinder_WeakXadL_Z20AIBinder_Weak_deleteEELS3_0EEE",
   "size" : 8,
   "source_file" : "frameworks/native/libs/binder/ndk/include_cpp/android/binder_auto_utils.h"
  },
  {
   "alignment" : 8,
   "linker_set_key" : "_ZTIPN3ndk4impl15ScopedAResourceIP23AIBinder_DeathRecipientXadL_Z30AIBinder_DeathRecipient_deleteEELS3_0EEE",
   "name" : "ndk::impl::ScopedAResource<AIBinder_DeathRecipient *, &AIBinder_DeathRecipient_delete, nullptr> *",
   "referenced_type" : "_ZTIN3ndk4impl15ScopedAResourceIP23AIBinder_DeathRecipientXadL_Z30AIBinder_DeathRecipient_deleteEELS3_0EEE",
   "self_type" : "_ZTIPN3ndk4impl15ScopedAResourceIP23AIBinder_DeathRecipientXadL_Z30AIBinder_DeathRecipient_deleteEELS3_0EEE",
   "size" : 8,
   "source_file" : "frameworks/native/libs/binder/ndk/include_cpp/android/binder_auto_utils.h"
  },
  {
   "alignment" : 8,
   "linker_set_key" : "_ZTIPN3ndk4impl15ScopedAResourceIP7AParcelXadL_Z14AParcel_deleteEELS3_0EEE",
   "name" : "ndk::impl::ScopedAResource<AParcel *, &AParcel_delete, nullptr> *",
   "referenced_type" : "_ZTIN3ndk4impl15ScopedAResourceIP7AParcelXadL_Z14AParcel_deleteEELS3_0EEE",
   "self_type" : "_ZTIPN3ndk4impl15ScopedAResourceIP7AParcelXadL_Z14AParcel_deleteEELS3_0EEE",
   "size" : 8,
   "source_file" : "frameworks/native/libs/binder/ndk/include_cpp/android/binder_auto_utils.h"
  },
  {
   "alignment" : 8,
   "linker_set_key" : "_ZTIPN3ndk4impl15ScopedAResourceIP7AStatusXadL_Z14AStatus_deleteEELS3_0EEE",
   "name" : "ndk::impl::ScopedAResource<AStatus *, &AStatus_delete, nullptr> *",
   "referenced_type" : "_ZTIN3ndk4impl15ScopedAResourceIP7AStatusXadL_Z14AStatus_deleteEELS3_0EEE",
   "self_type" : "_ZTIPN3ndk4impl15ScopedAResourceIP7AStatusXadL_Z14AStatus_deleteEELS3_0EEE",
   "size" : 8,
   "source_file" : "frameworks/native/libs/binder/ndk/include_cpp/android/binder_auto_utils.h"
  },
  {
   "alignment" : 8,
   "linker_set_key" : "_ZTIPN4aidl7android8hardware5radio3sim10BnRadioSimE",
   "name" : "aidl::android::hardware::radio::sim::BnRadioSim *",
   "referenced_type" : "_ZTIN4aidl7android8hardware5radio3sim10BnRadioSimE",
   "self_type" : "_ZTIPN4aidl7android8hardware5radio3sim10BnRadioSimE",
   "size" : 8,
   "source_file" : "out/soong/.intermediates/hardware/interfaces/radio/aidl/android.hardware.radio.sim-V1-ndk-source/gen/include/aidl/android/hardware/radio/sim/BnRadioSim.h"
  },
  {
   "alignment" : 8,
   "linker_set_key" : "_ZTIPN4aidl7android8hardware5radio3sim10BpRadioSimE",
   "name" : "aidl::android::hardware::radio::sim::BpRadioSim *",
   "referenced_type" : "_ZTIN4aidl7android8hardware5radio3sim10BpRadioSimE",
   "self_type" : "_ZTIPN4aidl7android8hardware5radio3sim10BpRadioSimE",
   "size" : 8,
   "source_file" : "out/soong/.intermediates/hardware/interfaces/radio/aidl/android.hardware.radio.sim-V1-ndk-source/gen/include/aidl/android/hardware/radio/sim/BpRadioSim.h"
  },
  {
   "alignment" : 8,
   "linker_set_key" : "_ZTIPN4aidl7android8hardware5radio3sim10CardStatusE",
   "name" : "aidl::android::hardware::radio::sim::CardStatus *",
   "referenced_type" : "_ZTIN4aidl7android8hardware5radio3sim10CardStatusE",
   "self_type" : "_ZTIPN4aidl7android8hardware5radio3sim10CardStatusE",
   "size" : 8,
   "source_file" : "out/soong/.intermediates/hardware/interfaces/radio/aidl/android.hardware.radio.sim-V1-ndk-source/gen/include/aidl/android/hardware/radio/sim/CardStatus.h"
  },
  {
   "alignment" : 8,
   "linker_set_key" : "_ZTIPN4aidl7android8hardware5radio3sim11IccIoResultE",
   "name" : "aidl::android::hardware::radio::sim::IccIoResult *",
   "referenced_type" : "_ZTIN4aidl7android8hardware5radio3sim11IccIoResultE",
   "self_type" : "_ZTIPN4aidl7android8hardware5radio3sim11IccIoResultE",
   "size" : 8,
   "source_file" : "out/soong/.intermediates/hardware/interfaces/radio/aidl/android.hardware.radio.sim-V1-ndk-source/gen/include/aidl/android/hardware/radio/sim/IccIoResult.h"
  },
  {
   "alignment" : 8,
   "linker_set_key" : "_ZTIPN4aidl7android8hardware5radio3sim13SelectUiccSubE",
   "name" : "aidl::android::hardware::radio::sim::SelectUiccSub *",
   "referenced_type" : "_ZTIN4aidl7android8hardware5radio3sim13SelectUiccSubE",
   "self_type" : "_ZTIPN4aidl7android8hardware5radio3sim13SelectUiccSubE",
   "size" : 8,
   "source_file" : "out/soong/.intermediates/hardware/interfaces/radio/aidl/android.hardware.radio.sim-V1-ndk-source/gen/include/aidl/android/hardware/radio/sim/SelectUiccSub.h"
  },
  {
   "alignment" : 8,
   "linker_set_key" : "_ZTIPN4aidl7android8hardware5radio3sim16IRadioSimDefaultE",
   "name" : "aidl::android::hardware::radio::sim::IRadioSimDefault *",
   "referenced_type" : "_ZTIN4aidl7android8hardware5radio3sim16IRadioSimDefaultE",
   "self_type" : "_ZTIPN4aidl7android8hardware5radio3sim16IRadioSimDefaultE",
   "size" : 8,
   "source_file" : "out/soong/.intermediates/hardware/interfaces/radio/aidl/android.hardware.radio.sim-V1-ndk-source/gen/include/aidl/android/hardware/radio/sim/IRadioSim.h"
  },
  {
   "alignment" : 8,
   "linker_set_key" : "_ZTIPN4aidl7android8hardware5radio3sim16SimRefreshResultE",
   "name" : "aidl::android::hardware::radio::sim::SimRefreshResult *",
   "referenced_type" : "_ZTIN4aidl7android8hardware5radio3sim16SimRefreshResultE",
   "self_type" : "_ZTIPN4aidl7android8hardware5radio3sim16SimRefreshResultE",
   "size" : 8,
   "source_file" : "out/soong/.intermediates/hardware/interfaces/radio/aidl/android.hardware.radio.sim-V1-ndk-source/gen/include/aidl/android/hardware/radio/sim/SimRefreshResult.h"
  },
  {
   "alignment" : 8,
   "linker_set_key" : "_ZTIPN4aidl7android8hardware5radio3sim17IRadioSimResponseE",
   "name" : "aidl::android::hardware::radio::sim::IRadioSimResponse *",
   "referenced_type" : "_ZTIN4aidl7android8hardware5radio3sim17IRadioSimResponseE",
   "self_type" : "_ZTIPN4aidl7android8hardware5radio3sim17IRadioSimResponseE",
   "size" : 8,
   "source_file" : "out/soong/.intermediates/hardware/interfaces/radio/aidl/android.hardware.radio.sim-V1-ndk-source/gen/include/aidl/android/hardware/radio/sim/IRadioSimResponse.h"
  },
  {
   "alignment" : 8,
   "linker_set_key" : "_ZTIPN4aidl7android8hardware5radio3sim17PhonebookCapacityE",
   "name" : "aidl::android::hardware::radio::sim::PhonebookCapacity *",
   "referenced_type" : "_ZTIN4aidl7android8hardware5radio3sim17PhonebookCapacityE",
   "self_type" : "_ZTIPN4aidl7android8hardware5radio3sim17PhonebookCapacityE",
   "size" : 8,
   "source_file" : "out/soong/.intermediates/hardware/interfaces/radio/aidl/android.hardware.radio.sim-V1-ndk-source/gen/include/aidl/android/hardware/radio/sim/PhonebookCapacity.h"
  },
  {
   "alignment" : 8,
   "linker_set_key" : "_ZTIPN4aidl7android8hardware5radio3sim18BnRadioSimResponseE",
   "name" : "aidl::android::hardware::radio::sim::BnRadioSimResponse *",
   "referenced_type" : "_ZTIN4aidl7android8hardware5radio3sim18BnRadioSimResponseE",
   "self_type" : "_ZTIPN4aidl7android8hardware5radio3sim18BnRadioSimResponseE",
   "size" : 8,
   "source_file" : "out/soong/.intermediates/hardware/interfaces/radio/aidl/android.hardware.radio.sim-V1-ndk-source/gen/include/aidl/android/hardware/radio/sim/BnRadioSimResponse.h"
  },
  {
   "alignment" : 8,
   "linker_set_key" : "_ZTIPN4aidl7android8hardware5radio3sim18BpRadioSimResponseE",
   "name" : "aidl::android::hardware::radio::sim::BpRadioSimResponse *",
   "referenced_type" : "_ZTIN4aidl7android8hardware5radio3sim18BpRadioSimResponseE",
   "self_type" : "_ZTIPN4aidl7android8hardware5radio3sim18BpRadioSimResponseE",
   "size" : 8,
   "source_file" : "out/soong/.intermediates/hardware/interfaces/radio/aidl/android.hardware.radio.sim-V1-ndk-source/gen/include/aidl/android/hardware/radio/sim/BpRadioSimResponse.h"
  },
  {
   "alignment" : 8,
   "linker_set_key" : "_ZTIPN4aidl7android8hardware5radio3sim18IRadioSimDelegatorE",
   "name" : "aidl::android::hardware::radio::sim::IRadioSimDelegator *",
   "referenced_type" : "_ZTIN4aidl7android8hardware5radio3sim18IRadioSimDelegatorE",
   "self_type" : "_ZTIPN4aidl7android8hardware5radio3sim18IRadioSimDelegatorE",
   "size" : 8,
   "source_file" : "out/soong/.intermediates/hardware/interfaces/radio/aidl/android.hardware.radio.sim-V1-ndk-source/gen/include/aidl/android/hardware/radio/sim/BnRadioSim.h"
  },
  {
   "alignment" : 8,
   "linker_set_key" : "_ZTIPN4aidl7android8hardware5radio3sim18ImsiEncryptionInfoE",
   "name" : "aidl::android::hardware::radio::sim::ImsiEncryptionInfo *",
   "referenced_type" : "_ZTIN4aidl7android8hardware5radio3sim18ImsiEncryptionInfoE",
   "self_type" : "_ZTIPN4aidl7android8hardware5radio3sim18ImsiEncryptionInfoE",
   "size" : 8,
   "source_file" : "out/soong/.intermediates/hardware/interfaces/radio/aidl/android.hardware.radio.sim-V1-ndk-source/gen/include/aidl/android/hardware/radio/sim/ImsiEncryptionInfo.h"
  },
  {
   "alignment" : 8,
   "linker_set_key" : "_ZTIPN4aidl7android8hardware5radio3sim19CarrierRestrictionsE",
   "name" : "aidl::android::hardware::radio::sim::CarrierRestrictions *",
   "referenced_type" : "_ZTIN4aidl7android8hardware5radio3sim19CarrierRestrictionsE",
   "self_type" : "_ZTIPN4aidl7android8hardware5radio3sim19CarrierRestrictionsE",
   "size" : 8,
   "source_file" : "out/soong/.intermediates/hardware/interfaces/radio/aidl/android.hardware.radio.sim-V1-ndk-source/gen/include/aidl/android/hardware/radio/sim/CarrierRestrictions.h"
  },
  {
   "alignment" : 8,
   "linker_set_key" : "_ZTIPN4aidl7android8hardware5radio3sim19IRadioSimIndicationE",
   "name" : "aidl::android::hardware::radio::sim::IRadioSimIndication *",
   "referenced_type" : "_ZTIN4aidl7android8hardware5radio3sim19IRadioSimIndicationE",
   "self_type" : "_ZTIPN4aidl7android8hardware5radio3sim19IRadioSimIndicationE",
   "size" : 8,
   "source_file" : "out/soong/.intermediates/hardware/interfaces/radio/aidl/android.hardware.radio.sim-V1-ndk-source/gen/include/aidl/android/hardware/radio/sim/IRadioSimIndication.h"
  },
  {
   "alignment" : 8,
   "linker_set_key" : "_ZTIPN4aidl7android8hardware5radio3sim19PhonebookRecordInfoE",
   "name" : "aidl::android::hardware::radio::sim::PhonebookRecordInfo *",
   "referenced_type" : "_ZTIN4aidl7android8hardware5radio3sim19PhonebookRecordInfoE",
   "self_type" : "_ZTIPN4aidl7android8hardware5radio3sim19PhonebookRecordInfoE",
   "size" : 8,
   "source_file" : "out/soong/.intermediates/hardware/interfaces/radio/aidl/android.hardware.radio.sim-V1-ndk-source/gen/include/aidl/android/hardware/radio/sim/PhonebookRecordInfo.h"
  },
  {
   "alignment" : 8,
   "linker_set_key" : "_ZTIPN4aidl7android8hardware5radio3sim20BnRadioSimIndicationE",
   "name" : "aidl::android::hardware::radio::sim::BnRadioSimIndication *",
   "referenced_type" : "_ZTIN4aidl7android8hardware5radio3sim20BnRadioSimIndicationE",
   "self_type" : "_ZTIPN4aidl7android8hardware5radio3sim20BnRadioSimIndicationE",
   "size" : 8,
   "source_file" : "out/soong/.intermediates/hardware/interfaces/radio/aidl/android.hardware.radio.sim-V1-ndk-source/gen/include/aidl/android/hardware/radio/sim/BnRadioSimIndication.h"
  },
  {
   "alignment" : 8,
   "linker_set_key" : "_ZTIPN4aidl7android8hardware5radio3sim20BpRadioSimIndicationE",
   "name" : "aidl::android::hardware::radio::sim::BpRadioSimIndication *",
   "referenced_type" : "_ZTIN4aidl7android8hardware5radio3sim20BpRadioSimIndicationE",
   "self_type" : "_ZTIPN4aidl7android8hardware5radio3sim20BpRadioSimIndicationE",
   "size" : 8,
   "source_file" : "out/soong/.intermediates/hardware/interfaces/radio/aidl/android.hardware.radio.sim-V1-ndk-source/gen/include/aidl/android/hardware/radio/sim/BpRadioSimIndication.h"
  },
  {
   "alignment" : 8,
   "linker_set_key" : "_ZTIPN4aidl7android8hardware5radio3sim24IRadioSimResponseDefaultE",
   "name" : "aidl::android::hardware::radio::sim::IRadioSimResponseDefault *",
   "referenced_type" : "_ZTIN4aidl7android8hardware5radio3sim24IRadioSimResponseDefaultE",
   "self_type" : "_ZTIPN4aidl7android8hardware5radio3sim24IRadioSimResponseDefaultE",
   "size" : 8,
   "source_file" : "out/soong/.intermediates/hardware/interfaces/radio/aidl/android.hardware.radio.sim-V1-ndk-source/gen/include/aidl/android/hardware/radio/sim/IRadioSimResponse.h"
  },
  {
   "alignment" : 8,
   "linker_set_key" : "_ZTIPN4aidl7android8hardware5radio3sim26IRadioSimIndicationDefaultE",
   "name" : "aidl::android::hardware::radio::sim::IRadioSimIndicationDefault *",
   "referenced_type" : "_ZTIN4aidl7android8hardware5radio3sim26IRadioSimIndicationDefaultE",
   "self_type" : "_ZTIPN4aidl7android8hardware5radio3sim26IRadioSimIndicationDefaultE",
   "size" : 8,
   "source_file" : "out/soong/.intermediates/hardware/interfaces/radio/aidl/android.hardware.radio.sim-V1-ndk-source/gen/include/aidl/android/hardware/radio/sim/IRadioSimIndication.h"
  },
  {
   "alignment" : 8,
   "linker_set_key" : "_ZTIPN4aidl7android8hardware5radio3sim26IRadioSimResponseDelegatorE",
   "name" : "aidl::android::hardware::radio::sim::IRadioSimResponseDelegator *",
   "referenced_type" : "_ZTIN4aidl7android8hardware5radio3sim26IRadioSimResponseDelegatorE",
   "self_type" : "_ZTIPN4aidl7android8hardware5radio3sim26IRadioSimResponseDelegatorE",
   "size" : 8,
   "source_file" : "out/soong/.intermediates/hardware/interfaces/radio/aidl/android.hardware.radio.sim-V1-ndk-source/gen/include/aidl/android/hardware/radio/sim/BnRadioSimResponse.h"
  },
  {
   "alignment" : 8,
   "linker_set_key" : "_ZTIPN4aidl7android8hardware5radio3sim28IRadioSimIndicationDelegatorE",
   "name" : "aidl::android::hardware::radio::sim::IRadioSimIndicationDelegator *",
   "referenced_type" : "_ZTIN4aidl7android8hardware5radio3sim28IRadioSimIndicationDelegatorE",
   "self_type" : "_ZTIPN4aidl7android8hardware5radio3sim28IRadioSimIndicationDelegatorE",
   "size" : 8,
   "source_file" : "out/soong/.intermediates/hardware/interfaces/radio/aidl/android.hardware.radio.sim-V1-ndk-source/gen/include/aidl/android/hardware/radio/sim/BnRadioSimIndication.h"
  },
  {
   "alignment" : 8,
   "linker_set_key" : "_ZTIPN4aidl7android8hardware5radio3sim5IccIoE",
   "name" : "aidl::android::hardware::radio::sim::IccIo *",
   "referenced_type" : "_ZTIN4aidl7android8hardware5radio3sim5IccIoE",
   "self_type" : "_ZTIPN4aidl7android8hardware5radio3sim5IccIoE",
   "size" : 8,
   "source_file" : "out/soong/.intermediates/hardware/interfaces/radio/aidl/android.hardware.radio.sim-V1-ndk-source/gen/include/aidl/android/hardware/radio/sim/IccIo.h"
  },
  {
   "alignment" : 8,
   "linker_set_key" : "_ZTIPN4aidl7android8hardware5radio3sim7CarrierE",
   "name" : "aidl::android::hardware::radio::sim::Carrier *",
   "referenced_type" : "_ZTIN4aidl7android8hardware5radio3sim7CarrierE",
   "self_type" : "_ZTIPN4aidl7android8hardware5radio3sim7CarrierE",
   "size" : 8,
   "source_file" : "out/soong/.intermediates/hardware/interfaces/radio/aidl/android.hardware.radio.sim-V1-ndk-source/gen/include/aidl/android/hardware/radio/sim/Carrier.h"
  },
  {
   "alignment" : 8,
   "linker_set_key" : "_ZTIPN4aidl7android8hardware5radio3sim7SimApduE",
   "name" : "aidl::android::hardware::radio::sim::SimApdu *",
   "referenced_type" : "_ZTIN4aidl7android8hardware5radio3sim7SimApduE",
   "self_type" : "_ZTIPN4aidl7android8hardware5radio3sim7SimApduE",
   "size" : 8,
   "source_file" : "out/soong/.intermediates/hardware/interfaces/radio/aidl/android.hardware.radio.sim-V1-ndk-source/gen/include/aidl/android/hardware/radio/sim/SimApdu.h"
  },
  {
   "alignment" : 8,
   "linker_set_key" : "_ZTIPN4aidl7android8hardware5radio3sim9AppStatusE",
   "name" : "aidl::android::hardware::radio::sim::AppStatus *",
   "referenced_type" : "_ZTIN4aidl7android8hardware5radio3sim9AppStatusE",
   "self_type" : "_ZTIPN4aidl7android8hardware5radio3sim9AppStatusE",
   "size" : 8,
   "source_file" : "out/soong/.intermediates/hardware/interfaces/radio/aidl/android.hardware.radio.sim-V1-ndk-source/gen/include/aidl/android/hardware/radio/sim/AppStatus.h"
  },
  {
   "alignment" : 8,
   "linker_set_key" : "_ZTIPN4aidl7android8hardware5radio3sim9IRadioSimE",
   "name" : "aidl::android::hardware::radio::sim::IRadioSim *",
   "referenced_type" : "_ZTIN4aidl7android8hardware5radio3sim9IRadioSimE",
   "self_type" : "_ZTIPN4aidl7android8hardware5radio3sim9IRadioSimE",
   "size" : 8,
   "source_file" : "out/soong/.intermediates/hardware/interfaces/radio/aidl/android.hardware.radio.sim-V1-ndk-source/gen/include/aidl/android/hardware/radio/sim/IRadioSim.h"
  },
  {
   "alignment" : 8,
   "linker_set_key" : "_ZTIPN4aidl7android8hardware5radio6config21IRadioConfigDelegatorE",
   "name" : "aidl::android::hardware::radio::config::IRadioConfigDelegator *",
   "referenced_type" : "_ZTIN4aidl7android8hardware5radio6config21IRadioConfigDelegatorE",
   "self_type" : "_ZTIPN4aidl7android8hardware5radio6config21IRadioConfigDelegatorE",
   "size" : 8,
   "source_file" : "out/soong/.intermediates/hardware/interfaces/radio/aidl/android.hardware.radio.config-V1-ndk-source/gen/include/aidl/android/hardware/radio/config/BnRadioConfig.h"
  },
  {
   "alignment" : 8,
   "linker_set_key" : "_ZTIPN4aidl7android8hardware5radio6config29IRadioConfigResponseDelegatorE",
   "name" : "aidl::android::hardware::radio::config::IRadioConfigResponseDelegator *",
   "referenced_type" : "_ZTIN4aidl7android8hardware5radio6config29IRadioConfigResponseDelegatorE",
   "self_type" : "_ZTIPN4aidl7android8hardware5radio6config29IRadioConfigResponseDelegatorE",
   "size" : 8,
   "source_file" : "out/soong/.intermediates/hardware/interfaces/radio/aidl/android.hardware.radio.config-V1-ndk-source/gen/include/aidl/android/hardware/radio/config/BnRadioConfigResponse.h"
  },
  {
   "alignment" : 8,
   "linker_set_key" : "_ZTIPN4aidl7android8hardware5radio6config31IRadioConfigIndicationDelegatorE",
   "name" : "aidl::android::hardware::radio::config::IRadioConfigIndicationDelegator *",
   "referenced_type" : "_ZTIN4aidl7android8hardware5radio6config31IRadioConfigIndicationDelegatorE",
   "self_type" : "_ZTIPN4aidl7android8hardware5radio6config31IRadioConfigIndicationDelegatorE",
   "size" : 8,
   "source_file" : "out/soong/.intermediates/hardware/interfaces/radio/aidl/android.hardware.radio.config-V1-ndk-source/gen/include/aidl/android/hardware/radio/config/BnRadioConfigIndication.h"
  },
  {
   "alignment" : 8,
   "linker_set_key" : "_ZTIPNSt3__110shared_ptrIN4aidl7android8hardware5radio3sim17IRadioSimResponseEEE",
   "name" : "std::shared_ptr<aidl::android::hardware::radio::sim::IRadioSimResponse> *",
   "referenced_type" : "_ZTINSt3__110shared_ptrIN4aidl7android8hardware5radio3sim17IRadioSimResponseEEE",
   "self_type" : "_ZTIPNSt3__110shared_ptrIN4aidl7android8hardware5radio3sim17IRadioSimResponseEEE",
   "size" : 8,
   "source_file" : "out/soong/.intermediates/hardware/interfaces/radio/aidl/android.hardware.radio.sim-V1-ndk-source/gen/include/aidl/android/hardware/radio/sim/IRadioSimResponse.h"
  },
  {
   "alignment" : 8,
   "linker_set_key" : "_ZTIPNSt3__110shared_ptrIN4aidl7android8hardware5radio3sim19IRadioSimIndicationEEE",
   "name" : "std::shared_ptr<aidl::android::hardware::radio::sim::IRadioSimIndication> *",
   "referenced_type" : "_ZTINSt3__110shared_ptrIN4aidl7android8hardware5radio3sim19IRadioSimIndicationEEE",
   "self_type" : "_ZTIPNSt3__110shared_ptrIN4aidl7android8hardware5radio3sim19IRadioSimIndicationEEE",
   "size" : 8,
   "source_file" : "out/soong/.intermediates/hardware/interfaces/radio/aidl/android.hardware.radio.sim-V1-ndk-source/gen/include/aidl/android/hardware/radio/sim/IRadioSimIndication.h"
  },
  {
   "alignment" : 8,
   "linker_set_key" : "_ZTIPNSt3__110shared_ptrIN4aidl7android8hardware5radio3sim9IRadioSimEEE",
   "name" : "std::shared_ptr<aidl::android::hardware::radio::sim::IRadioSim> *",
   "referenced_type" : "_ZTINSt3__110shared_ptrIN4aidl7android8hardware5radio3sim9IRadioSimEEE",
   "self_type" : "_ZTIPNSt3__110shared_ptrIN4aidl7android8hardware5radio3sim9IRadioSimEEE",
   "size" : 8,
   "source_file" : "out/soong/.intermediates/hardware/interfaces/radio/aidl/android.hardware.radio.sim-V1-ndk-source/gen/include/aidl/android/hardware/radio/sim/IRadioSim.h"
  },
  {
   "alignment" : 8,
   "linker_set_key" : "_ZTIPNSt3__112basic_stringIcNS_11char_traitsIcEENS_9allocatorIcEEEE",
   "name" : "std::basic_string<char, std::char_traits<char>, std::allocator<char>> *",
   "referenced_type" : "_ZTINSt3__112basic_stringIcNS_11char_traitsIcEENS_9allocatorIcEEEE",
   "self_type" : "_ZTIPNSt3__112basic_stringIcNS_11char_traitsIcEENS_9allocatorIcEEEE",
   "size" : 8,
   "source_file" : "out/soong/.intermediates/hardware/interfaces/radio/aidl/android.hardware.radio.sim-V1-ndk-source/gen/include/aidl/android/hardware/radio/sim/IRadioSim.h"
  },
  {
   "alignment" : 8,
   "linker_set_key" : "_ZTIPNSt3__16vectorIDsNS_9allocatorIDsEEEE",
   "name" : "std::vector<char16_t, std::allocator<char16_t>> *",
   "referenced_type" : "_ZTINSt3__16vectorIDsNS_9allocatorIDsEEEE",
   "self_type" : "_ZTIPNSt3__16vectorIDsNS_9allocatorIDsEEEE",
   "size" : 8,
   "source_file" : "frameworks/native/libs/binder/ndk/include_cpp/android/binder_parcel_utils.h"
  },
  {
   "alignment" : 8,
   "linker_set_key" : "_ZTIPNSt3__16vectorIbNS_9allocatorIbEEEE",
   "name" : "std::vector<bool, std::allocator<bool>> *",
   "referenced_type" : "_ZTINSt3__16vectorIbNS_9allocatorIbEEEE",
   "self_type" : "_ZTIPNSt3__16vectorIbNS_9allocatorIbEEEE",
   "size" : 8,
   "source_file" : "frameworks/native/libs/binder/ndk/include_cpp/android/binder_parcel_utils.h"
  },
  {
   "alignment" : 8,
   "linker_set_key" : "_ZTIPNSt3__16vectorIdNS_9allocatorIdEEEE",
   "name" : "std::vector<double, std::allocator<double>> *",
   "referenced_type" : "_ZTINSt3__16vectorIdNS_9allocatorIdEEEE",
   "self_type" : "_ZTIPNSt3__16vectorIdNS_9allocatorIdEEEE",
   "size" : 8,
   "source_file" : "frameworks/native/libs/binder/ndk/include_cpp/android/binder_parcel_utils.h"
  },
  {
   "alignment" : 8,
   "linker_set_key" : "_ZTIPNSt3__16vectorIfNS_9allocatorIfEEEE",
   "name" : "std::vector<float, std::allocator<float>> *",
   "referenced_type" : "_ZTINSt3__16vectorIfNS_9allocatorIfEEEE",
   "self_type" : "_ZTIPNSt3__16vectorIfNS_9allocatorIfEEEE",
   "size" : 8,
   "source_file" : "frameworks/native/libs/binder/ndk/include_cpp/android/binder_parcel_utils.h"
  },
  {
   "alignment" : 8,
   "linker_set_key" : "_ZTIPNSt3__16vectorIhNS_9allocatorIhEEEE",
   "name" : "std::vector<unsigned char, std::allocator<unsigned char>> *",
   "referenced_type" : "_ZTINSt3__16vectorIhNS_9allocatorIhEEEE",
   "self_type" : "_ZTIPNSt3__16vectorIhNS_9allocatorIhEEEE",
   "size" : 8,
   "source_file" : "frameworks/native/libs/binder/ndk/include_cpp/android/binder_parcel_utils.h"
  },
  {
   "alignment" : 8,
   "linker_set_key" : "_ZTIPNSt3__16vectorIiNS_9allocatorIiEEEE",
   "name" : "std::vector<int, std::allocator<int>> *",
   "referenced_type" : "_ZTINSt3__16vectorIiNS_9allocatorIiEEEE",
   "self_type" : "_ZTIPNSt3__16vectorIiNS_9allocatorIiEEEE",
   "size" : 8,
   "source_file" : "frameworks/native/libs/binder/ndk/include_cpp/android/binder_parcel_utils.h"
  },
  {
   "alignment" : 8,
   "linker_set_key" : "_ZTIPNSt3__16vectorIjNS_9allocatorIjEEEE",
   "name" : "std::vector<unsigned int, std::allocator<unsigned int>> *",
   "referenced_type" : "_ZTINSt3__16vectorIjNS_9allocatorIjEEEE",
   "self_type" : "_ZTIPNSt3__16vectorIjNS_9allocatorIjEEEE",
   "size" : 8,
   "source_file" : "frameworks/native/libs/binder/ndk/include_cpp/android/binder_parcel_utils.h"
  },
  {
   "alignment" : 8,
   "linker_set_key" : "_ZTIPNSt3__16vectorIlNS_9allocatorIlEEEE",
   "name" : "std::vector<long, std::allocator<long>> *",
   "referenced_type" : "_ZTINSt3__16vectorIlNS_9allocatorIlEEEE",
   "self_type" : "_ZTIPNSt3__16vectorIlNS_9allocatorIlEEEE",
   "size" : 8,
   "source_file" : "frameworks/native/libs/binder/ndk/include_cpp/android/binder_parcel_utils.h"
  },
  {
   "alignment" : 8,
   "linker_set_key" : "_ZTIPNSt3__16vectorImNS_9allocatorImEEEE",
   "name" : "std::vector<unsigned long, std::allocator<unsigned long>> *",
   "referenced_type" : "_ZTINSt3__16vectorImNS_9allocatorImEEEE",
   "self_type" : "_ZTIPNSt3__16vectorImNS_9allocatorImEEEE",
   "size" : 8,
   "source_file" : "frameworks/native/libs/binder/ndk/include_cpp/android/binder_parcel_utils.h"
  },
  {
   "alignment" : 8,
   "linker_set_key" : "_ZTIPNSt3__18optionalINS_6vectorIDsNS_9allocatorIDsEEEEEE",
   "name" : "std::optional<std::vector<char16_t, std::allocator<char16_t>>> *",
   "referenced_type" : "_ZTINSt3__18optionalINS_6vectorIDsNS_9allocatorIDsEEEEEE",
   "self_type" : "_ZTIPNSt3__18optionalINS_6vectorIDsNS_9allocatorIDsEEEEEE",
   "size" : 8,
   "source_file" : "frameworks/native/libs/binder/ndk/include_cpp/android/binder_parcel_utils.h"
  },
  {
   "alignment" : 8,
   "linker_set_key" : "_ZTIPNSt3__18optionalINS_6vectorIbNS_9allocatorIbEEEEEE",
   "name" : "std::optional<std::vector<bool, std::allocator<bool>>> *",
   "referenced_type" : "_ZTINSt3__18optionalINS_6vectorIbNS_9allocatorIbEEEEEE",
   "self_type" : "_ZTIPNSt3__18optionalINS_6vectorIbNS_9allocatorIbEEEEEE",
   "size" : 8,
   "source_file" : "frameworks/native/libs/binder/ndk/include_cpp/android/binder_parcel_utils.h"
  },
  {
   "alignment" : 8,
   "linker_set_key" : "_ZTIPNSt3__18optionalINS_6vectorIdNS_9allocatorIdEEEEEE",
   "name" : "std::optional<std::vector<double, std::allocator<double>>> *",
   "referenced_type" : "_ZTINSt3__18optionalINS_6vectorIdNS_9allocatorIdEEEEEE",
   "self_type" : "_ZTIPNSt3__18optionalINS_6vectorIdNS_9allocatorIdEEEEEE",
   "size" : 8,
   "source_file" : "frameworks/native/libs/binder/ndk/include_cpp/android/binder_parcel_utils.h"
  },
  {
   "alignment" : 8,
   "linker_set_key" : "_ZTIPNSt3__18optionalINS_6vectorIfNS_9allocatorIfEEEEEE",
   "name" : "std::optional<std::vector<float, std::allocator<float>>> *",
   "referenced_type" : "_ZTINSt3__18optionalINS_6vectorIfNS_9allocatorIfEEEEEE",
   "self_type" : "_ZTIPNSt3__18optionalINS_6vectorIfNS_9allocatorIfEEEEEE",
   "size" : 8,
   "source_file" : "frameworks/native/libs/binder/ndk/include_cpp/android/binder_parcel_utils.h"
  },
  {
   "alignment" : 8,
   "linker_set_key" : "_ZTIPNSt3__18optionalINS_6vectorIhNS_9allocatorIhEEEEEE",
   "name" : "std::optional<std::vector<unsigned char, std::allocator<unsigned char>>> *",
   "referenced_type" : "_ZTINSt3__18optionalINS_6vectorIhNS_9allocatorIhEEEEEE",
   "self_type" : "_ZTIPNSt3__18optionalINS_6vectorIhNS_9allocatorIhEEEEEE",
   "size" : 8,
   "source_file" : "frameworks/native/libs/binder/ndk/include_cpp/android/binder_parcel_utils.h"
  },
  {
   "alignment" : 8,
   "linker_set_key" : "_ZTIPNSt3__18optionalINS_6vectorIiNS_9allocatorIiEEEEEE",
   "name" : "std::optional<std::vector<int, std::allocator<int>>> *",
   "referenced_type" : "_ZTINSt3__18optionalINS_6vectorIiNS_9allocatorIiEEEEEE",
   "self_type" : "_ZTIPNSt3__18optionalINS_6vectorIiNS_9allocatorIiEEEEEE",
   "size" : 8,
   "source_file" : "frameworks/native/libs/binder/ndk/include_cpp/android/binder_parcel_utils.h"
  },
  {
   "alignment" : 8,
   "linker_set_key" : "_ZTIPNSt3__18optionalINS_6vectorIjNS_9allocatorIjEEEEEE",
   "name" : "std::optional<std::vector<unsigned int, std::allocator<unsigned int>>> *",
   "referenced_type" : "_ZTINSt3__18optionalINS_6vectorIjNS_9allocatorIjEEEEEE",
   "self_type" : "_ZTIPNSt3__18optionalINS_6vectorIjNS_9allocatorIjEEEEEE",
   "size" : 8,
   "source_file" : "frameworks/native/libs/binder/ndk/include_cpp/android/binder_parcel_utils.h"
  },
  {
   "alignment" : 8,
   "linker_set_key" : "_ZTIPNSt3__18optionalINS_6vectorIlNS_9allocatorIlEEEEEE",
   "name" : "std::optional<std::vector<long, std::allocator<long>>> *",
   "referenced_type" : "_ZTINSt3__18optionalINS_6vectorIlNS_9allocatorIlEEEEEE",
   "self_type" : "_ZTIPNSt3__18optionalINS_6vectorIlNS_9allocatorIlEEEEEE",
   "size" : 8,
   "source_file" : "frameworks/native/libs/binder/ndk/include_cpp/android/binder_parcel_utils.h"
  },
  {
   "alignment" : 8,
   "linker_set_key" : "_ZTIPNSt3__18optionalINS_6vectorImNS_9allocatorImEEEEEE",
   "name" : "std::optional<std::vector<unsigned long, std::allocator<unsigned long>>> *",
   "referenced_type" : "_ZTINSt3__18optionalINS_6vectorImNS_9allocatorImEEEEEE",
   "self_type" : "_ZTIPNSt3__18optionalINS_6vectorImNS_9allocatorImEEEEEE",
   "size" : 8,
   "source_file" : "frameworks/native/libs/binder/ndk/include_cpp/android/binder_parcel_utils.h"
  },
  {
   "alignment" : 8,
   "linker_set_key" : "_ZTIPP7AParcel",
   "name" : "AParcel **",
   "referenced_type" : "_ZTIP7AParcel",
   "self_type" : "_ZTIPP7AParcel",
   "size" : 8,
   "source_file" : "frameworks/native/libs/binder/ndk/include_cpp/android/binder_auto_utils.h"
  },
  {
   "alignment" : 8,
   "linker_set_key" : "_ZTIPP7AStatus",
   "name" : "AStatus **",
   "referenced_type" : "_ZTIP7AStatus",
   "self_type" : "_ZTIPP7AStatus",
   "size" : 8,
   "source_file" : "frameworks/native/libs/binder/ndk/include_cpp/android/binder_auto_utils.h"
  },
  {
   "alignment" : 8,
   "linker_set_key" : "_ZTIPP8AIBinder",
   "name" : "AIBinder **",
   "referenced_type" : "_ZTIP8AIBinder",
   "self_type" : "_ZTIPP8AIBinder",
   "size" : 8,
   "source_file" : "frameworks/native/libs/binder/ndk/include_cpp/android/binder_auto_utils.h"
  },
  {
   "alignment" : 8,
   "linker_set_key" : "_ZTIPPKc",
   "name" : "const char **",
   "referenced_type" : "_ZTIPKc",
   "self_type" : "_ZTIPPKc",
   "size" : 8,
   "source_file" : "frameworks/native/libs/binder/ndk/include_cpp/android/binder_interface_utils.h"
  },
  {
   "alignment" : 8,
   "linker_set_key" : "_ZTIPi",
   "name" : "int *",
   "referenced_type" : "_ZTIi",
   "self_type" : "_ZTIPi",
   "size" : 8,
   "source_file" : "out/soong/.intermediates/hardware/interfaces/radio/aidl/android.hardware.radio.sim-V1-ndk-source/gen/include/aidl/android/hardware/radio/sim/IRadioSim.h"
  },
  {
   "alignment" : 8,
   "linker_set_key" : "_ZTIPv",
   "name" : "void *",
   "referenced_type" : "_ZTIv",
   "self_type" : "_ZTIPv",
   "size" : 8,
   "source_file" : "frameworks/native/libs/binder/ndk/include_cpp/android/binder_interface_utils.h"
  }
 ],
 "qualified_types" :
 [
  {
   "is_const" : true,
   "linker_set_key" : "_ZTIK7AParcel",
   "name" : "const AParcel",
   "referenced_type" : "_ZTI7AParcel",
   "self_type" : "_ZTIK7AParcel",
   "source_file" : "frameworks/native/libs/binder/ndk/include_cpp/android/binder_interface_utils.h"
  },
  {
   "alignment" : 8,
   "is_const" : true,
   "linker_set_key" : "_ZTIKN3ndk10SpAIBinderE",
   "name" : "const ndk::SpAIBinder",
   "referenced_type" : "_ZTIN3ndk10SpAIBinderE",
   "self_type" : "_ZTIKN3ndk10SpAIBinderE",
   "size" : 8,
   "source_file" : "frameworks/native/libs/binder/ndk/include_cpp/android/binder_auto_utils.h"
  },
  {
   "alignment" : 8,
   "is_const" : true,
   "linker_set_key" : "_ZTIKN3ndk13ScopedAParcelE",
   "name" : "const ndk::ScopedAParcel",
   "referenced_type" : "_ZTIN3ndk13ScopedAParcelE",
   "self_type" : "_ZTIKN3ndk13ScopedAParcelE",
   "size" : 8,
   "source_file" : "frameworks/native/libs/binder/ndk/include_cpp/android/binder_auto_utils.h"
  },
  {
   "alignment" : 8,
   "is_const" : true,
   "linker_set_key" : "_ZTIKN3ndk13ScopedAStatusE",
   "name" : "const ndk::ScopedAStatus",
   "referenced_type" : "_ZTIN3ndk13ScopedAStatusE",
   "self_type" : "_ZTIKN3ndk13ScopedAStatusE",
   "size" : 8,
   "source_file" : "frameworks/native/libs/binder/ndk/include_cpp/android/binder_auto_utils.h"
  },
  {
   "alignment" : 8,
   "is_const" : true,
   "linker_set_key" : "_ZTIKN3ndk17AParcelableHolderE",
   "name" : "const ndk::AParcelableHolder",
   "referenced_type" : "_ZTIN3ndk17AParcelableHolderE",
   "self_type" : "_ZTIKN3ndk17AParcelableHolderE",
   "size" : 24,
   "source_file" : "frameworks/native/libs/binder/ndk/include_cpp/android/binder_parcelable_utils.h"
  },
  {
   "alignment" : 4,
   "is_const" : true,
   "linker_set_key" : "_ZTIKN3ndk20ScopedFileDescriptorE",
   "name" : "const ndk::ScopedFileDescriptor",
   "referenced_type" : "_ZTIN3ndk20ScopedFileDescriptorE",
   "self_type" : "_ZTIKN3ndk20ScopedFileDescriptorE",
   "size" : 4,
   "source_file" : "frameworks/native/libs/binder/ndk/include_cpp/android/binder_auto_utils.h"
  },
  {
   "alignment" : 8,
   "is_const" : true,
   "linker_set_key" : "_ZTIKN3ndk4impl15ScopedAResourceIP7AParcelXadL_Z14AParcel_deleteEELS3_0EEE",
   "name" : "const ndk::impl::ScopedAResource<AParcel *, &AParcel_delete, nullptr>",
   "referenced_type" : "_ZTIN3ndk4impl15ScopedAResourceIP7AParcelXadL_Z14AParcel_deleteEELS3_0EEE",
   "self_type" : "_ZTIKN3ndk4impl15ScopedAResourceIP7AParcelXadL_Z14AParcel_deleteEELS3_0EEE",
   "size" : 8,
   "source_file" : "frameworks/native/libs/binder/ndk/include_cpp/android/binder_auto_utils.h"
  },
  {
   "alignment" : 8,
   "is_const" : true,
   "linker_set_key" : "_ZTIKN3ndk4impl15ScopedAResourceIP7AStatusXadL_Z14AStatus_deleteEELS3_0EEE",
   "name" : "const ndk::impl::ScopedAResource<AStatus *, &AStatus_delete, nullptr>",
   "referenced_type" : "_ZTIN3ndk4impl15ScopedAResourceIP7AStatusXadL_Z14AStatus_deleteEELS3_0EEE",
   "self_type" : "_ZTIKN3ndk4impl15ScopedAResourceIP7AStatusXadL_Z14AStatus_deleteEELS3_0EEE",
   "size" : 8,
   "source_file" : "frameworks/native/libs/binder/ndk/include_cpp/android/binder_auto_utils.h"
  },
  {
   "alignment" : 4,
   "is_const" : true,
   "linker_set_key" : "_ZTIKN4aidl7android8hardware5radio10RadioErrorE",
   "name" : "const aidl::android::hardware::radio::RadioError",
   "referenced_type" : "_ZTIN4aidl7android8hardware5radio10RadioErrorE",
   "self_type" : "_ZTIKN4aidl7android8hardware5radio10RadioErrorE",
   "size" : 4,
   "source_file" : "frameworks/native/libs/binder/ndk/include_cpp/android/binder_to_string.h"
  },
  {
   "alignment" : 4,
   "is_const" : true,
   "linker_set_key" : "_ZTIKN4aidl7android8hardware5radio17RadioResponseInfoE",
   "name" : "const aidl::android::hardware::radio::RadioResponseInfo",
   "referenced_type" : "_ZTIN4aidl7android8hardware5radio17RadioResponseInfoE",
   "self_type" : "_ZTIKN4aidl7android8hardware5radio17RadioResponseInfoE",
   "size" : 12,
   "source_file" : "out/soong/.intermediates/hardware/interfaces/radio/aidl/android.hardware.radio-V1-ndk-source/gen/include/aidl/android/hardware/radio/RadioResponseInfo.h"
  },
  {
   "alignment" : 4,
   "is_const" : true,
   "linker_set_key" : "_ZTIKN4aidl7android8hardware5radio17RadioResponseTypeE",
   "name" : "const aidl::android::hardware::radio::RadioResponseType",
   "referenced_type" : "_ZTIN4aidl7android8hardware5radio17RadioResponseTypeE",
   "self_type" : "_ZTIKN4aidl7android8hardware5radio17RadioResponseTypeE",
   "size" : 4,
   "source_file" : "frameworks/native/libs/binder/ndk/include_cpp/android/binder_to_string.h"
  },
  {
   "alignment" : 8,
   "is_const" : true,
   "linker_set_key" : "_ZTIKN4aidl7android8hardware5radio3sim10CardStatusE",
   "name" : "const aidl::android::hardware::radio::sim::CardStatus",
   "referenced_type" : "_ZTIN4aidl7android8hardware5radio3sim10CardStatusE",
   "self_type" : "_ZTIKN4aidl7android8hardware5radio3sim10CardStatusE",
   "size" : 128,
   "source_file" : "out/soong/.intermediates/hardware/interfaces/radio/aidl/android.hardware.radio.sim-V1-ndk-source/gen/include/aidl/android/hardware/radio/sim/CardStatus.h"
  },
  {
   "alignment" : 8,
   "is_const" : true,
   "linker_set_key" : "_ZTIKN4aidl7android8hardware5radio3sim11IccIoResultE",
   "name" : "const aidl::android::hardware::radio::sim::IccIoResult",
   "referenced_type" : "_ZTIN4aidl7android8hardware5radio3sim11IccIoResultE",
   "self_type" : "_ZTIKN4aidl7android8hardware5radio3sim11IccIoResultE",
   "size" : 32,
   "source_file" : "out/soong/.intermediates/hardware/interfaces/radio/aidl/android.hardware.radio.sim-V1-ndk-source/gen/include/aidl/android/hardware/radio/sim/IccIoResult.h"
  },
  {
   "alignment" : 4,
   "is_const" : true,
   "linker_set_key" : "_ZTIKN4aidl7android8hardware5radio3sim13PersoSubstateE",
   "name" : "const aidl::android::hardware::radio::sim::PersoSubstate",
   "referenced_type" : "_ZTIN4aidl7android8hardware5radio3sim13PersoSubstateE",
   "self_type" : "_ZTIKN4aidl7android8hardware5radio3sim13PersoSubstateE",
   "size" : 4,
   "source_file" : "frameworks/native/libs/binder/ndk/include_cpp/android/binder_to_string.h"
  },
  {
   "alignment" : 4,
   "is_const" : true,
   "linker_set_key" : "_ZTIKN4aidl7android8hardware5radio3sim13SelectUiccSubE",
   "name" : "const aidl::android::hardware::radio::sim::SelectUiccSub",
   "referenced_type" : "_ZTIN4aidl7android8hardware5radio3sim13SelectUiccSubE",
   "self_type" : "_ZTIKN4aidl7android8hardware5radio3sim13SelectUiccSubE",
   "size" : 16,
   "source_file" : "out/soong/.intermediates/hardware/interfaces/radio/aidl/android.hardware.radio.sim-V1-ndk-source/gen/include/aidl/android/hardware/radio/sim/SelectUiccSub.h"
  },
  {
   "alignment" : 8,
   "is_const" : true,
   "linker_set_key" : "_ZTIKN4aidl7android8hardware5radio3sim16SimRefreshResultE",
   "name" : "const aidl::android::hardware::radio::sim::SimRefreshResult",
   "referenced_type" : "_ZTIN4aidl7android8hardware5radio3sim16SimRefreshResultE",
   "self_type" : "_ZTIKN4aidl7android8hardware5radio3sim16SimRefreshResultE",
   "size" : 32,
   "source_file" : "out/soong/.intermediates/hardware/interfaces/radio/aidl/android.hardware.radio.sim-V1-ndk-source/gen/include/aidl/android/hardware/radio/sim/SimRefreshResult.h"
  },
  {
   "alignment" : 4,
   "is_const" : true,
   "linker_set_key" : "_ZTIKN4aidl7android8hardware5radio3sim17PhonebookCapacityE",
   "name" : "const aidl::android::hardware::radio::sim::PhonebookCapacity",
   "referenced_type" : "_ZTIN4aidl7android8hardware5radio3sim17PhonebookCapacityE",
   "self_type" : "_ZTIKN4aidl7android8hardware5radio3sim17PhonebookCapacityE",
   "size" : 40,
   "source_file" : "out/soong/.intermediates/hardware/interfaces/radio/aidl/android.hardware.radio.sim-V1-ndk-source/gen/include/aidl/android/hardware/radio/sim/PhonebookCapacity.h"
  },
  {
   "alignment" : 8,
   "is_const" : true,
   "linker_set_key" : "_ZTIKN4aidl7android8hardware5radio3sim18ImsiEncryptionInfoE",
   "name" : "const aidl::android::hardware::radio::sim::ImsiEncryptionInfo",
   "referenced_type" : "_ZTIN4aidl7android8hardware5radio3sim18ImsiEncryptionInfoE",
   "self_type" : "_ZTIKN4aidl7android8hardware5radio3sim18ImsiEncryptionInfoE",
   "size" : 112,
   "source_file" : "out/soong/.intermediates/hardware/interfaces/radio/aidl/android.hardware.radio.sim-V1-ndk-source/gen/include/aidl/android/hardware/radio/sim/ImsiEncryptionInfo.h"
  },
  {
   "alignment" : 8,
   "is_const" : true,
   "linker_set_key" : "_ZTIKN4aidl7android8hardware5radio3sim19CarrierRestrictionsE",
   "name" : "const aidl::android::hardware::radio::sim::CarrierRestrictions",
   "referenced_type" : "_ZTIN4aidl7android8hardware5radio3sim19CarrierRestrictionsE",
   "self_type" : "_ZTIKN4aidl7android8hardware5radio3sim19CarrierRestrictionsE",
   "size" : 56,
   "source_file" : "out/soong/.intermediates/hardware/interfaces/radio/aidl/android.hardware.radio.sim-V1-ndk-source/gen/include/aidl/android/hardware/radio/sim/CarrierRestrictions.h"
  },
  {
   "alignment" : 8,
   "is_const" : true,
   "linker_set_key" : "_ZTIKN4aidl7android8hardware5radio3sim19PhonebookRecordInfoE",
   "name" : "const aidl::android::hardware::radio::sim::PhonebookRecordInfo",
   "referenced_type" : "_ZTIN4aidl7android8hardware5radio3sim19PhonebookRecordInfoE",
   "self_type" : "_ZTIKN4aidl7android8hardware5radio3sim19PhonebookRecordInfoE",
   "size" : 104,
   "source_file" : "out/soong/.intermediates/hardware/interfaces/radio/aidl/android.hardware.radio.sim-V1-ndk-source/gen/include/aidl/android/hardware/radio/sim/PhonebookRecordInfo.h"
  },
  {
   "alignment" : 8,
   "is_const" : true,
   "linker_set_key" : "_ZTIKN4aidl7android8hardware5radio3sim5IccIoE",
   "name" : "const aidl::android::hardware::radio::sim::IccIo",
   "referenced_type" : "_ZTIN4aidl7android8hardware5radio3sim5IccIoE",
   "self_type" : "_ZTIKN4aidl7android8hardware5radio3sim5IccIoE",
   "size" : 120,
   "source_file" : "out/soong/.intermediates/hardware/interfaces/radio/aidl/android.hardware.radio.sim-V1-ndk-source/gen/include/aidl/android/hardware/radio/sim/IccIo.h"
  },
  {
   "alignment" : 8,
   "is_const" : true,
   "linker_set_key" : "_ZTIKN4aidl7android8hardware5radio3sim7CarrierE",
   "name" : "const aidl::android::hardware::radio::sim::Carrier",
   "referenced_type" : "_ZTIN4aidl7android8hardware5radio3sim7CarrierE",
   "self_type" : "_ZTIKN4aidl7android8hardware5radio3sim7CarrierE",
   "size" : 80,
   "source_file" : "out/soong/.intermediates/hardware/interfaces/radio/aidl/android.hardware.radio.sim-V1-ndk-source/gen/include/aidl/android/hardware/radio/sim/Carrier.h"
  },
  {
   "alignment" : 8,
   "is_const" : true,
   "linker_set_key" : "_ZTIKN4aidl7android8hardware5radio3sim7SimApduE",
   "name" : "const aidl::android::hardware::radio::sim::SimApdu",
   "referenced_type" : "_ZTIN4aidl7android8hardware5radio3sim7SimApduE",
   "self_type" : "_ZTIKN4aidl7android8hardware5radio3sim7SimApduE",
   "size" : 48,
   "source_file" : "out/soong/.intermediates/hardware/interfaces/radio/aidl/android.hardware.radio.sim-V1-ndk-source/gen/include/aidl/android/hardware/radio/sim/SimApdu.h"
  },
  {
   "alignment" : 4,
   "is_const" : true,
   "linker_set_key" : "_ZTIKN4aidl7android8hardware5radio3sim8PinStateE",
   "name" : "const aidl::android::hardware::radio::sim::PinState",
   "referenced_type" : "_ZTIN4aidl7android8hardware5radio3sim8PinStateE",
   "self_type" : "_ZTIKN4aidl7android8hardware5radio3sim8PinStateE",
   "size" : 4,
   "source_file" : "frameworks/native/libs/binder/ndk/include_cpp/android/binder_to_string.h"
  },
  {
   "alignment" : 8,
   "is_const" : true,
   "linker_set_key" : "_ZTIKN4aidl7android8hardware5radio3sim9AppStatusE",
   "name" : "const aidl::android::hardware::radio::sim::AppStatus",
   "referenced_type" : "_ZTIN4aidl7android8hardware5radio3sim9AppStatusE",
   "self_type" : "_ZTIKN4aidl7android8hardware5radio3sim9AppStatusE",
   "size" : 80,
   "source_file" : "out/soong/.intermediates/hardware/interfaces/radio/aidl/android.hardware.radio.sim-V1-ndk-source/gen/include/aidl/android/hardware/radio/sim/AppStatus.h"
  },
  {
   "alignment" : 8,
   "is_const" : true,
   "linker_set_key" : "_ZTIKN4aidl7android8hardware5radio6config11SimPortInfoE",
   "name" : "const aidl::android::hardware::radio::config::SimPortInfo",
   "referenced_type" : "_ZTIN4aidl7android8hardware5radio6config11SimPortInfoE",
   "self_type" : "_ZTIKN4aidl7android8hardware5radio6config11SimPortInfoE",
   "size" : 32,
   "source_file" : "frameworks/native/libs/binder/ndk/include_cpp/android/binder_to_string.h"
  },
  {
   "alignment" : 8,
   "is_const" : true,
   "linker_set_key" : "_ZTIKN4aidl7android8hardware5radio6config13SimSlotStatusE",
   "name" : "const aidl::android::hardware::radio::config::SimSlotStatus",
   "referenced_type" : "_ZTIN4aidl7android8hardware5radio6config13SimSlotStatusE",
   "self_type" : "_ZTIKN4aidl7android8hardware5radio6config13SimSlotStatusE",
   "size" : 80,
   "source_file" : "out/soong/.intermediates/hardware/interfaces/radio/aidl/android.hardware.radio.config-V1-ndk-source/gen/include/aidl/android/hardware/radio/config/SimSlotStatus.h"
  },
  {
   "alignment" : 8,
   "is_const" : true,
   "linker_set_key" : "_ZTIKN4aidl7android8hardware5radio6config15PhoneCapabilityE",
   "name" : "const aidl::android::hardware::radio::config::PhoneCapability",
   "referenced_type" : "_ZTIN4aidl7android8hardware5radio6config15PhoneCapabilityE",
   "self_type" : "_ZTIKN4aidl7android8hardware5radio6config15PhoneCapabilityE",
   "size" : 32,
   "source_file" : "out/soong/.intermediates/hardware/interfaces/radio/aidl/android.hardware.radio.config-V1-ndk-source/gen/include/aidl/android/hardware/radio/config/PhoneCapability.h"
  },
  {
   "alignment" : 4,
   "is_const" : true,
   "linker_set_key" : "_ZTIKN4aidl7android8hardware5radio6config15SlotPortMappingE",
   "name" : "const aidl::android::hardware::radio::config::SlotPortMapping",
   "referenced_type" : "_ZTIN4aidl7android8hardware5radio6config15SlotPortMappingE",
   "self_type" : "_ZTIKN4aidl7android8hardware5radio6config15SlotPortMappingE",
   "size" : 8,
   "source_file" : "out/soong/.intermediates/hardware/interfaces/radio/aidl/android.hardware.radio.config-V1-ndk-source/gen/include/aidl/android/hardware/radio/config/SlotPortMapping.h"
  },
  {
   "alignment" : 8,
   "is_const" : true,
   "linker_set_key" : "_ZTIKNSt3__110shared_ptrIN4aidl7android8hardware5radio3sim17IRadioSimResponseEEE",
   "name" : "const std::shared_ptr<aidl::android::hardware::radio::sim::IRadioSimResponse>",
   "referenced_type" : "_ZTINSt3__110shared_ptrIN4aidl7android8hardware5radio3sim17IRadioSimResponseEEE",
   "self_type" : "_ZTIKNSt3__110shared_ptrIN4aidl7android8hardware5radio3sim17IRadioSimResponseEEE",
   "size" : 16,
   "source_file" : "out/soong/.intermediates/hardware/interfaces/radio/aidl/android.hardware.radio.sim-V1-ndk-source/gen/include/aidl/android/hardware/radio/sim/IRadioSim.h"
  },
  {
   "alignment" : 8,
   "is_const" : true,
   "linker_set_key" : "_ZTIKNSt3__110shared_ptrIN4aidl7android8hardware5radio3sim19IRadioSimIndicationEEE",
   "name" : "const std::shared_ptr<aidl::android::hardware::radio::sim::IRadioSimIndication>",
   "referenced_type" : "_ZTINSt3__110shared_ptrIN4aidl7android8hardware5radio3sim19IRadioSimIndicationEEE",
   "self_type" : "_ZTIKNSt3__110shared_ptrIN4aidl7android8hardware5radio3sim19IRadioSimIndicationEEE",
   "size" : 16,
   "source_file" : "out/soong/.intermediates/hardware/interfaces/radio/aidl/android.hardware.radio.sim-V1-ndk-source/gen/include/aidl/android/hardware/radio/sim/IRadioSim.h"
  },
  {
   "alignment" : 8,
   "is_const" : true,
   "linker_set_key" : "_ZTIKNSt3__110shared_ptrIN4aidl7android8hardware5radio3sim9IRadioSimEEE",
   "name" : "const std::shared_ptr<aidl::android::hardware::radio::sim::IRadioSim>",
   "referenced_type" : "_ZTINSt3__110shared_ptrIN4aidl7android8hardware5radio3sim9IRadioSimEEE",
   "self_type" : "_ZTIKNSt3__110shared_ptrIN4aidl7android8hardware5radio3sim9IRadioSimEEE",
   "size" : 16,
   "source_file" : "out/soong/.intermediates/hardware/interfaces/radio/aidl/android.hardware.radio.sim-V1-ndk-source/gen/include/aidl/android/hardware/radio/sim/IRadioSim.h"
  },
  {
   "alignment" : 8,
   "is_const" : true,
   "linker_set_key" : "_ZTIKNSt3__110shared_ptrIN4aidl7android8hardware5radio6config12IRadioConfigEEE",
   "name" : "const std::shared_ptr<aidl::android::hardware::radio::config::IRadioConfig>",
   "referenced_type" : "_ZTINSt3__110shared_ptrIN4aidl7android8hardware5radio6config12IRadioConfigEEE",
   "self_type" : "_ZTIKNSt3__110shared_ptrIN4aidl7android8hardware5radio6config12IRadioConfigEEE",
   "size" : 16,
   "source_file" : "out/soong/.intermediates/hardware/interfaces/radio/aidl/android.hardware.radio.config-V1-ndk-source/gen/include/aidl/android/hardware/radio/config/BnRadioConfig.h"
  },
  {
   "alignment" : 8,
   "is_const" : true,
   "linker_set_key" : "_ZTIKNSt3__110shared_ptrIN4aidl7android8hardware5radio6config20IRadioConfigResponseEEE",
   "name" : "const std::shared_ptr<aidl::android::hardware::radio::config::IRadioConfigResponse>",
   "referenced_type" : "_ZTINSt3__110shared_ptrIN4aidl7android8hardware5radio6config20IRadioConfigResponseEEE",
   "self_type" : "_ZTIKNSt3__110shared_ptrIN4aidl7android8hardware5radio6config20IRadioConfigResponseEEE",
   "size" : 16,
   "source_file" : "out/soong/.intermediates/hardware/interfaces/radio/aidl/android.hardware.radio.config-V1-ndk-source/gen/include/aidl/android/hardware/radio/config/BnRadioConfig.h"
  },
  {
   "alignment" : 8,
   "is_const" : true,
   "linker_set_key" : "_ZTIKNSt3__110shared_ptrIN4aidl7android8hardware5radio6config22IRadioConfigIndicationEEE",
   "name" : "const std::shared_ptr<aidl::android::hardware::radio::config::IRadioConfigIndication>",
   "referenced_type" : "_ZTINSt3__110shared_ptrIN4aidl7android8hardware5radio6config22IRadioConfigIndicationEEE",
   "self_type" : "_ZTIKNSt3__110shared_ptrIN4aidl7android8hardware5radio6config22IRadioConfigIndicationEEE",
   "size" : 16,
   "source_file" : "out/soong/.intermediates/hardware/interfaces/radio/aidl/android.hardware.radio.config-V1-ndk-source/gen/include/aidl/android/hardware/radio/config/BnRadioConfig.h"
  },
  {
   "alignment" : 8,
   "is_const" : true,
   "linker_set_key" : "_ZTIKNSt3__112basic_stringIcNS_11char_traitsIcEENS_9allocatorIcEEEE",
   "name" : "const std::basic_string<char, std::char_traits<char>, std::allocator<char>>",
   "referenced_type" : "_ZTINSt3__112basic_stringIcNS_11char_traitsIcEENS_9allocatorIcEEEE",
   "self_type" : "_ZTIKNSt3__112basic_stringIcNS_11char_traitsIcEENS_9allocatorIcEEEE",
   "size" : 24,
   "source_file" : "frameworks/native/libs/binder/ndk/include_cpp/android/binder_to_string.h"
  },
  {
   "alignment" : 4,
   "is_const" : true,
   "linker_set_key" : "_ZTIKNSt3__15arrayIN4aidl7android8hardware5radio10RadioErrorELm89EEE",
   "name" : "const std::array<aidl::android::hardware::radio::RadioError, 89UL>",
   "referenced_type" : "_ZTINSt3__15arrayIN4aidl7android8hardware5radio10RadioErrorELm89EEE",
   "self_type" : "_ZTIKNSt3__15arrayIN4aidl7android8hardware5radio10RadioErrorELm89EEE",
   "size" : 356,
   "source_file" : "out/soong/.intermediates/hardware/interfaces/radio/aidl/android.hardware.radio-V1-ndk-source/gen/include/aidl/android/hardware/radio/RadioError.h"
  },
  {
   "alignment" : 4,
   "is_const" : true,
   "linker_set_key" : "_ZTIKNSt3__15arrayIN4aidl7android8hardware5radio17RadioResponseTypeELm3EEE",
   "name" : "const std::array<aidl::android::hardware::radio::RadioResponseType, 3UL>",
   "referenced_type" : "_ZTINSt3__15arrayIN4aidl7android8hardware5radio17RadioResponseTypeELm3EEE",
   "self_type" : "_ZTIKNSt3__15arrayIN4aidl7android8hardware5radio17RadioResponseTypeELm3EEE",
   "size" : 12,
   "source_file" : "out/soong/.intermediates/hardware/interfaces/radio/aidl/android.hardware.radio-V1-ndk-source/gen/include/aidl/android/hardware/radio/RadioResponseType.h"
  },
  {
   "alignment" : 4,
   "is_const" : true,
   "linker_set_key" : "_ZTIKNSt3__15arrayIN4aidl7android8hardware5radio19RadioIndicationTypeELm2EEE",
   "name" : "const std::array<aidl::android::hardware::radio::RadioIndicationType, 2UL>",
   "referenced_type" : "_ZTINSt3__15arrayIN4aidl7android8hardware5radio19RadioIndicationTypeELm2EEE",
   "self_type" : "_ZTIKNSt3__15arrayIN4aidl7android8hardware5radio19RadioIndicationTypeELm2EEE",
   "size" : 8,
   "source_file" : "out/soong/.intermediates/hardware/interfaces/radio/aidl/android.hardware.radio-V1-ndk-source/gen/include/aidl/android/hardware/radio/RadioIndicationType.h"
  },
  {
   "alignment" : 4,
   "is_const" : true,
   "linker_set_key" : "_ZTIKNSt3__15arrayIN4aidl7android8hardware5radio3sim13PersoSubstateELm35EEE",
   "name" : "const std::array<aidl::android::hardware::radio::sim::PersoSubstate, 35UL>",
   "referenced_type" : "_ZTINSt3__15arrayIN4aidl7android8hardware5radio3sim13PersoSubstateELm35EEE",
   "self_type" : "_ZTIKNSt3__15arrayIN4aidl7android8hardware5radio3sim13PersoSubstateELm35EEE",
   "size" : 140,
   "source_file" : "out/soong/.intermediates/hardware/interfaces/radio/aidl/android.hardware.radio.sim-V1-ndk-source/gen/include/aidl/android/hardware/radio/sim/PersoSubstate.h"
  },
  {
   "alignment" : 4,
   "is_const" : true,
   "linker_set_key" : "_ZTIKNSt3__15arrayIN4aidl7android8hardware5radio3sim14CardPowerStateELm3EEE",
   "name" : "const std::array<aidl::android::hardware::radio::sim::CardPowerState, 3UL>",
   "referenced_type" : "_ZTINSt3__15arrayIN4aidl7android8hardware5radio3sim14CardPowerStateELm3EEE",
   "self_type" : "_ZTIKNSt3__15arrayIN4aidl7android8hardware5radio3sim14CardPowerStateELm3EEE",
   "size" : 12,
   "source_file" : "out/soong/.intermediates/hardware/interfaces/radio/aidl/android.hardware.radio.sim-V1-ndk-source/gen/include/aidl/android/hardware/radio/sim/CardPowerState.h"
  },
  {
   "alignment" : 1,
   "is_const" : true,
   "linker_set_key" : "_ZTIKNSt3__15arrayIN4aidl7android8hardware5radio3sim16PbReceivedStatusELm4EEE",
   "name" : "const std::array<aidl::android::hardware::radio::sim::PbReceivedStatus, 4UL>",
   "referenced_type" : "_ZTINSt3__15arrayIN4aidl7android8hardware5radio3sim16PbReceivedStatusELm4EEE",
   "self_type" : "_ZTIKNSt3__15arrayIN4aidl7android8hardware5radio3sim16PbReceivedStatusELm4EEE",
   "size" : 4,
   "source_file" : "out/soong/.intermediates/hardware/interfaces/radio/aidl/android.hardware.radio.sim-V1-ndk-source/gen/include/aidl/android/hardware/radio/sim/PbReceivedStatus.h"
  },
  {
   "alignment" : 4,
   "is_const" : true,
   "linker_set_key" : "_ZTIKNSt3__15arrayIN4aidl7android8hardware5radio3sim21SimLockMultiSimPolicyELm2EEE",
   "name" : "const std::array<aidl::android::hardware::radio::sim::SimLockMultiSimPolicy, 2UL>",
   "referenced_type" : "_ZTINSt3__15arrayIN4aidl7android8hardware5radio3sim21SimLockMultiSimPolicyELm2EEE",
   "self_type" : "_ZTIKNSt3__15arrayIN4aidl7android8hardware5radio3sim21SimLockMultiSimPolicyELm2EEE",
   "size" : 8,
   "source_file" : "out/soong/.intermediates/hardware/interfaces/radio/aidl/android.hardware.radio.sim-V1-ndk-source/gen/include/aidl/android/hardware/radio/sim/SimLockMultiSimPolicy.h"
  },
  {
   "alignment" : 4,
   "is_const" : true,
   "linker_set_key" : "_ZTIKNSt3__15arrayIN4aidl7android8hardware5radio3sim22CdmaSubscriptionSourceELm2EEE",
   "name" : "const std::array<aidl::android::hardware::radio::sim::CdmaSubscriptionSource, 2UL>",
   "referenced_type" : "_ZTINSt3__15arrayIN4aidl7android8hardware5radio3sim22CdmaSubscriptionSourceELm2EEE",
   "self_type" : "_ZTIKNSt3__15arrayIN4aidl7android8hardware5radio3sim22CdmaSubscriptionSourceELm2EEE",
   "size" : 8,
   "source_file" : "out/soong/.intermediates/hardware/interfaces/radio/aidl/android.hardware.radio.sim-V1-ndk-source/gen/include/aidl/android/hardware/radio/sim/CdmaSubscriptionSource.h"
  },
  {
   "alignment" : 4,
   "is_const" : true,
   "linker_set_key" : "_ZTIKNSt3__15arrayIN4aidl7android8hardware5radio3sim8PinStateELm6EEE",
   "name" : "const std::array<aidl::android::hardware::radio::sim::PinState, 6UL>",
   "referenced_type" : "_ZTINSt3__15arrayIN4aidl7android8hardware5radio3sim8PinStateELm6EEE",
   "self_type" : "_ZTIKNSt3__15arrayIN4aidl7android8hardware5radio3sim8PinStateELm6EEE",
   "size" : 24,
   "source_file" : "out/soong/.intermediates/hardware/interfaces/radio/aidl/android.hardware.radio.sim-V1-ndk-source/gen/include/aidl/android/hardware/radio/sim/PinState.h"
  },
  {
   "alignment" : 8,
   "is_const" : true,
   "linker_set_key" : "_ZTIKNSt3__16vectorIDsNS_9allocatorIDsEEEE",
   "name" : "const std::vector<char16_t, std::allocator<char16_t>>",
   "referenced_type" : "_ZTINSt3__16vectorIDsNS_9allocatorIDsEEEE",
   "self_type" : "_ZTIKNSt3__16vectorIDsNS_9allocatorIDsEEEE",
   "size" : 24,
   "source_file" : "frameworks/native/libs/binder/ndk/include_cpp/android/binder_parcel_utils.h"
  },
  {
   "is_const" : true,
   "linker_set_key" : "_ZTIKNSt3__16vectorIN4aidl7android8hardware5radio3sim19PhonebookRecordInfoENS_9allocatorIS6_EEEE",
   "name" : "const std::vector<aidl::android::hardware::radio::sim::PhonebookRecordInfo, std::allocator<aidl::android::hardware::radio::sim::PhonebookRecordInfo>>",
   "referenced_type" : "_ZTINSt3__16vectorIN4aidl7android8hardware5radio3sim19PhonebookRecordInfoENS_9allocatorIS6_EEEE",
   "self_type" : "_ZTIKNSt3__16vectorIN4aidl7android8hardware5radio3sim19PhonebookRecordInfoENS_9allocatorIS6_EEEE",
   "source_file" : "out/soong/.intermediates/hardware/interfaces/radio/aidl/android.hardware.radio.sim-V1-ndk-source/gen/include/aidl/android/hardware/radio/sim/BnRadioSimIndication.h"
  },
  {
   "alignment" : 8,
   "is_const" : true,
   "linker_set_key" : "_ZTIKNSt3__16vectorIN4aidl7android8hardware5radio3sim7CarrierENS_9allocatorIS6_EEEE",
   "name" : "const std::vector<aidl::android::hardware::radio::sim::Carrier, std::allocator<aidl::android::hardware::radio::sim::Carrier>>",
   "referenced_type" : "_ZTINSt3__16vectorIN4aidl7android8hardware5radio3sim7CarrierENS_9allocatorIS6_EEEE",
   "self_type" : "_ZTIKNSt3__16vectorIN4aidl7android8hardware5radio3sim7CarrierENS_9allocatorIS6_EEEE",
   "size" : 24,
   "source_file" : "frameworks/native/libs/binder/ndk/include_cpp/android/binder_to_string.h"
  },
  {
   "alignment" : 8,
   "is_const" : true,
   "linker_set_key" : "_ZTIKNSt3__16vectorIN4aidl7android8hardware5radio3sim9AppStatusENS_9allocatorIS6_EEEE",
   "name" : "const std::vector<aidl::android::hardware::radio::sim::AppStatus, std::allocator<aidl::android::hardware::radio::sim::AppStatus>>",
   "referenced_type" : "_ZTINSt3__16vectorIN4aidl7android8hardware5radio3sim9AppStatusENS_9allocatorIS6_EEEE",
   "self_type" : "_ZTIKNSt3__16vectorIN4aidl7android8hardware5radio3sim9AppStatusENS_9allocatorIS6_EEEE",
   "size" : 24,
   "source_file" : "frameworks/native/libs/binder/ndk/include_cpp/android/binder_to_string.h"
  },
  {
   "alignment" : 8,
   "is_const" : true,
   "linker_set_key" : "_ZTIKNSt3__16vectorIN4aidl7android8hardware5radio6config11SimPortInfoENS_9allocatorIS6_EEEE",
   "name" : "const std::vector<aidl::android::hardware::radio::config::SimPortInfo, std::allocator<aidl::android::hardware::radio::config::SimPortInfo>>",
   "referenced_type" : "_ZTINSt3__16vectorIN4aidl7android8hardware5radio6config11SimPortInfoENS_9allocatorIS6_EEEE",
   "self_type" : "_ZTIKNSt3__16vectorIN4aidl7android8hardware5radio6config11SimPortInfoENS_9allocatorIS6_EEEE",
   "size" : 24,
   "source_file" : "frameworks/native/libs/binder/ndk/include_cpp/android/binder_to_string.h"
  },
  {
   "is_const" : true,
   "linker_set_key" : "_ZTIKNSt3__16vectorIN4aidl7android8hardware5radio6config13SimSlotStatusENS_9allocatorIS6_EEEE",
   "name" : "const std::vector<aidl::android::hardware::radio::config::SimSlotStatus, std::allocator<aidl::android::hardware::radio::config::SimSlotStatus>>",
   "referenced_type" : "_ZTINSt3__16vectorIN4aidl7android8hardware5radio6config13SimSlotStatusENS_9allocatorIS6_EEEE",
   "self_type" : "_ZTIKNSt3__16vectorIN4aidl7android8hardware5radio6config13SimSlotStatusENS_9allocatorIS6_EEEE",
   "source_file" : "out/soong/.intermediates/hardware/interfaces/radio/aidl/android.hardware.radio.config-V1-ndk-source/gen/include/aidl/android/hardware/radio/config/BnRadioConfigIndication.h"
  },
  {
   "is_const" : true,
   "linker_set_key" : "_ZTIKNSt3__16vectorIN4aidl7android8hardware5radio6config15SlotPortMappingENS_9allocatorIS6_EEEE",
   "name" : "const std::vector<aidl::android::hardware::radio::config::SlotPortMapping, std::allocator<aidl::android::hardware::radio::config::SlotPortMapping>>",
   "referenced_type" : "_ZTINSt3__16vectorIN4aidl7android8hardware5radio6config15SlotPortMappingENS_9allocatorIS6_EEEE",
   "self_type" : "_ZTIKNSt3__16vectorIN4aidl7android8hardware5radio6config15SlotPortMappingENS_9allocatorIS6_EEEE",
   "source_file" : "out/soong/.intermediates/hardware/interfaces/radio/aidl/android.hardware.radio.config-V1-ndk-source/gen/include/aidl/android/hardware/radio/config/BnRadioConfig.h"
  },
  {
   "alignment" : 8,
   "is_const" : true,
   "linker_set_key" : "_ZTIKNSt3__16vectorINS_12basic_stringIcNS_11char_traitsIcEENS_9allocatorIcEEEENS4_IS6_EEEE",
   "name" : "const std::vector<std::basic_string<char, std::char_traits<char>, std::allocator<char>>, std::allocator<std::basic_string<char, std::char_traits<char>, std::allocator<char>>>>",
   "referenced_type" : "_ZTINSt3__16vectorINS_12basic_stringIcNS_11char_traitsIcEENS_9allocatorIcEEEENS4_IS6_EEEE",
   "self_type" : "_ZTIKNSt3__16vectorINS_12basic_stringIcNS_11char_traitsIcEENS_9allocatorIcEEEENS4_IS6_EEEE",
   "size" : 24,
   "source_file" : "frameworks/native/libs/binder/ndk/include_cpp/android/binder_to_string.h"
  },
  {
   "alignment" : 8,
   "is_const" : true,
   "linker_set_key" : "_ZTIKNSt3__16vectorIbNS_9allocatorIbEEEE",
   "name" : "const std::vector<bool, std::allocator<bool>>",
   "referenced_type" : "_ZTINSt3__16vectorIbNS_9allocatorIbEEEE",
   "self_type" : "_ZTIKNSt3__16vectorIbNS_9allocatorIbEEEE",
   "size" : 24,
   "source_file" : "frameworks/native/libs/binder/ndk/include_cpp/android/binder_parcel_utils.h"
  },
  {
   "alignment" : 8,
   "is_const" : true,
   "linker_set_key" : "_ZTIKNSt3__16vectorIdNS_9allocatorIdEEEE",
   "name" : "const std::vector<double, std::allocator<double>>",
   "referenced_type" : "_ZTINSt3__16vectorIdNS_9allocatorIdEEEE",
   "self_type" : "_ZTIKNSt3__16vectorIdNS_9allocatorIdEEEE",
   "size" : 24,
   "source_file" : "frameworks/native/libs/binder/ndk/include_cpp/android/binder_parcel_utils.h"
  },
  {
   "alignment" : 8,
   "is_const" : true,
   "linker_set_key" : "_ZTIKNSt3__16vectorIfNS_9allocatorIfEEEE",
   "name" : "const std::vector<float, std::allocator<float>>",
   "referenced_type" : "_ZTINSt3__16vectorIfNS_9allocatorIfEEEE",
   "self_type" : "_ZTIKNSt3__16vectorIfNS_9allocatorIfEEEE",
   "size" : 24,
   "source_file" : "frameworks/native/libs/binder/ndk/include_cpp/android/binder_parcel_utils.h"
  },
  {
   "alignment" : 8,
   "is_const" : true,
   "linker_set_key" : "_ZTIKNSt3__16vectorIhNS_9allocatorIhEEEE",
   "name" : "const std::vector<unsigned char, std::allocator<unsigned char>>",
   "referenced_type" : "_ZTINSt3__16vectorIhNS_9allocatorIhEEEE",
   "self_type" : "_ZTIKNSt3__16vectorIhNS_9allocatorIhEEEE",
   "size" : 24,
   "source_file" : "frameworks/native/libs/binder/ndk/include_cpp/android/binder_parcel_utils.h"
  },
  {
   "alignment" : 8,
   "is_const" : true,
   "linker_set_key" : "_ZTIKNSt3__16vectorIiNS_9allocatorIiEEEE",
   "name" : "const std::vector<int, std::allocator<int>>",
   "referenced_type" : "_ZTINSt3__16vectorIiNS_9allocatorIiEEEE",
   "self_type" : "_ZTIKNSt3__16vectorIiNS_9allocatorIiEEEE",
   "size" : 24,
   "source_file" : "frameworks/native/libs/binder/ndk/include_cpp/android/binder_parcel_utils.h"
  },
  {
   "alignment" : 8,
   "is_const" : true,
   "linker_set_key" : "_ZTIKNSt3__16vectorIjNS_9allocatorIjEEEE",
   "name" : "const std::vector<unsigned int, std::allocator<unsigned int>>",
   "referenced_type" : "_ZTINSt3__16vectorIjNS_9allocatorIjEEEE",
   "self_type" : "_ZTIKNSt3__16vectorIjNS_9allocatorIjEEEE",
   "size" : 24,
   "source_file" : "frameworks/native/libs/binder/ndk/include_cpp/android/binder_parcel_utils.h"
  },
  {
   "alignment" : 8,
   "is_const" : true,
   "linker_set_key" : "_ZTIKNSt3__16vectorIlNS_9allocatorIlEEEE",
   "name" : "const std::vector<long, std::allocator<long>>",
   "referenced_type" : "_ZTINSt3__16vectorIlNS_9allocatorIlEEEE",
   "self_type" : "_ZTIKNSt3__16vectorIlNS_9allocatorIlEEEE",
   "size" : 24,
   "source_file" : "frameworks/native/libs/binder/ndk/include_cpp/android/binder_parcel_utils.h"
  },
  {
   "alignment" : 8,
   "is_const" : true,
   "linker_set_key" : "_ZTIKNSt3__16vectorImNS_9allocatorImEEEE",
   "name" : "const std::vector<unsigned long, std::allocator<unsigned long>>",
   "referenced_type" : "_ZTINSt3__16vectorImNS_9allocatorImEEEE",
   "self_type" : "_ZTIKNSt3__16vectorImNS_9allocatorImEEEE",
   "size" : 24,
   "source_file" : "frameworks/native/libs/binder/ndk/include_cpp/android/binder_parcel_utils.h"
  },
  {
   "alignment" : 8,
   "is_const" : true,
   "linker_set_key" : "_ZTIKNSt3__18optionalINS_6vectorIDsNS_9allocatorIDsEEEEEE",
   "name" : "const std::optional<std::vector<char16_t, std::allocator<char16_t>>>",
   "referenced_type" : "_ZTINSt3__18optionalINS_6vectorIDsNS_9allocatorIDsEEEEEE",
   "self_type" : "_ZTIKNSt3__18optionalINS_6vectorIDsNS_9allocatorIDsEEEEEE",
   "size" : 32,
   "source_file" : "frameworks/native/libs/binder/ndk/include_cpp/android/binder_parcel_utils.h"
  },
  {
   "alignment" : 8,
   "is_const" : true,
   "linker_set_key" : "_ZTIKNSt3__18optionalINS_6vectorIbNS_9allocatorIbEEEEEE",
   "name" : "const std::optional<std::vector<bool, std::allocator<bool>>>",
   "referenced_type" : "_ZTINSt3__18optionalINS_6vectorIbNS_9allocatorIbEEEEEE",
   "self_type" : "_ZTIKNSt3__18optionalINS_6vectorIbNS_9allocatorIbEEEEEE",
   "size" : 32,
   "source_file" : "frameworks/native/libs/binder/ndk/include_cpp/android/binder_parcel_utils.h"
  },
  {
   "alignment" : 8,
   "is_const" : true,
   "linker_set_key" : "_ZTIKNSt3__18optionalINS_6vectorIdNS_9allocatorIdEEEEEE",
   "name" : "const std::optional<std::vector<double, std::allocator<double>>>",
   "referenced_type" : "_ZTINSt3__18optionalINS_6vectorIdNS_9allocatorIdEEEEEE",
   "self_type" : "_ZTIKNSt3__18optionalINS_6vectorIdNS_9allocatorIdEEEEEE",
   "size" : 32,
   "source_file" : "frameworks/native/libs/binder/ndk/include_cpp/android/binder_parcel_utils.h"
  },
  {
   "alignment" : 8,
   "is_const" : true,
   "linker_set_key" : "_ZTIKNSt3__18optionalINS_6vectorIfNS_9allocatorIfEEEEEE",
   "name" : "const std::optional<std::vector<float, std::allocator<float>>>",
   "referenced_type" : "_ZTINSt3__18optionalINS_6vectorIfNS_9allocatorIfEEEEEE",
   "self_type" : "_ZTIKNSt3__18optionalINS_6vectorIfNS_9allocatorIfEEEEEE",
   "size" : 32,
   "source_file" : "frameworks/native/libs/binder/ndk/include_cpp/android/binder_parcel_utils.h"
  },
  {
   "alignment" : 8,
   "is_const" : true,
   "linker_set_key" : "_ZTIKNSt3__18optionalINS_6vectorIhNS_9allocatorIhEEEEEE",
   "name" : "const std::optional<std::vector<unsigned char, std::allocator<unsigned char>>>",
   "referenced_type" : "_ZTINSt3__18optionalINS_6vectorIhNS_9allocatorIhEEEEEE",
   "self_type" : "_ZTIKNSt3__18optionalINS_6vectorIhNS_9allocatorIhEEEEEE",
   "size" : 32,
   "source_file" : "frameworks/native/libs/binder/ndk/include_cpp/android/binder_parcel_utils.h"
  },
  {
   "alignment" : 8,
   "is_const" : true,
   "linker_set_key" : "_ZTIKNSt3__18optionalINS_6vectorIiNS_9allocatorIiEEEEEE",
   "name" : "const std::optional<std::vector<int, std::allocator<int>>>",
   "referenced_type" : "_ZTINSt3__18optionalINS_6vectorIiNS_9allocatorIiEEEEEE",
   "self_type" : "_ZTIKNSt3__18optionalINS_6vectorIiNS_9allocatorIiEEEEEE",
   "size" : 32,
   "source_file" : "frameworks/native/libs/binder/ndk/include_cpp/android/binder_parcel_utils.h"
  },
  {
   "alignment" : 8,
   "is_const" : true,
   "linker_set_key" : "_ZTIKNSt3__18optionalINS_6vectorIjNS_9allocatorIjEEEEEE",
   "name" : "const std::optional<std::vector<unsigned int, std::allocator<unsigned int>>>",
   "referenced_type" : "_ZTINSt3__18optionalINS_6vectorIjNS_9allocatorIjEEEEEE",
   "self_type" : "_ZTIKNSt3__18optionalINS_6vectorIjNS_9allocatorIjEEEEEE",
   "size" : 32,
   "source_file" : "frameworks/native/libs/binder/ndk/include_cpp/android/binder_parcel_utils.h"
  },
  {
   "alignment" : 8,
   "is_const" : true,
   "linker_set_key" : "_ZTIKNSt3__18optionalINS_6vectorIlNS_9allocatorIlEEEEEE",
   "name" : "const std::optional<std::vector<long, std::allocator<long>>>",
   "referenced_type" : "_ZTINSt3__18optionalINS_6vectorIlNS_9allocatorIlEEEEEE",
   "self_type" : "_ZTIKNSt3__18optionalINS_6vectorIlNS_9allocatorIlEEEEEE",
   "size" : 32,
   "source_file" : "frameworks/native/libs/binder/ndk/include_cpp/android/binder_parcel_utils.h"
  },
  {
   "alignment" : 8,
   "is_const" : true,
   "linker_set_key" : "_ZTIKNSt3__18optionalINS_6vectorImNS_9allocatorImEEEEEE",
