{
 "array_types" : [],
 "builtin_types" :
 [
  {
   "alignment" : 8,
   "linker_set_key" : "_ZTIDn",
   "name" : "std::nullptr_t",
   "referenced_type" : "_ZTIDn",
   "self_type" : "_ZTIDn",
   "size" : 8
  },
  {
   "alignment" : 2,
   "is_integral" : true,
   "is_unsigned" : true,
   "linker_set_key" : "_ZTIDs",
   "name" : "char16_t",
   "referenced_type" : "_ZTIDs",
   "self_type" : "_ZTIDs",
   "size" : 2
  },
  {
   "alignment" : 1,
   "is_integral" : true,
   "linker_set_key" : "_ZTIa",
   "name" : "signed char",
   "referenced_type" : "_ZTIa",
   "self_type" : "_ZTIa",
   "size" : 1
  },
  {
   "alignment" : 1,
   "is_integral" : true,
   "is_unsigned" : true,
   "linker_set_key" : "_ZTIb",
   "name" : "bool",
   "referenced_type" : "_ZTIb",
   "self_type" : "_ZTIb",
   "size" : 1
  },
  {
   "alignment" : 1,
   "is_integral" : true,
   "is_unsigned" : true,
   "linker_set_key" : "_ZTIc",
   "name" : "char",
   "referenced_type" : "_ZTIc",
   "self_type" : "_ZTIc",
   "size" : 1
  },
  {
   "alignment" : 4,
   "linker_set_key" : "_ZTIf",
   "name" : "float",
   "referenced_type" : "_ZTIf",
   "self_type" : "_ZTIf",
   "size" : 4
  },
  {
   "alignment" : 1,
   "is_integral" : true,
   "is_unsigned" : true,
   "linker_set_key" : "_ZTIh",
   "name" : "unsigned char",
   "referenced_type" : "_ZTIh",
   "self_type" : "_ZTIh",
   "size" : 1
  },
  {
   "alignment" : 4,
   "is_integral" : true,
   "linker_set_key" : "_ZTIi",
   "name" : "int",
   "referenced_type" : "_ZTIi",
   "self_type" : "_ZTIi",
   "size" : 4
  },
  {
   "alignment" : 4,
   "is_integral" : true,
   "is_unsigned" : true,
   "linker_set_key" : "_ZTIj",
   "name" : "unsigned int",
   "referenced_type" : "_ZTIj",
   "self_type" : "_ZTIj",
   "size" : 4
  },
  {
   "alignment" : 8,
   "is_integral" : true,
   "linker_set_key" : "_ZTIl",
   "name" : "long",
   "referenced_type" : "_ZTIl",
   "self_type" : "_ZTIl",
   "size" : 8
  },
  {
   "alignment" : 8,
   "is_integral" : true,
   "is_unsigned" : true,
   "linker_set_key" : "_ZTIm",
   "name" : "unsigned long",
   "referenced_type" : "_ZTIm",
   "self_type" : "_ZTIm",
   "size" : 8
  },
  {
   "linker_set_key" : "_ZTIv",
   "name" : "void",
   "referenced_type" : "_ZTIv",
   "self_type" : "_ZTIv"
  }
 ],
 "elf_functions" :
 [
  {
   "binding" : "weak",
   "name" : "_ZN3ndk12BnCInterfaceIN4aidl7android8hardware9bluetooth5audio19IBluetoothAudioPortEE8asBinderEv"
  },
  {
   "binding" : "weak",
   "name" : "_ZN3ndk12BnCInterfaceIN4aidl7android8hardware9bluetooth5audio23IBluetoothAudioProviderEE8asBinderEv"
  },
  {
   "binding" : "weak",
   "name" : "_ZN3ndk12BnCInterfaceIN4aidl7android8hardware9bluetooth5audio30IBluetoothAudioProviderFactoryEE8asBinderEv"
  },
  {
   "binding" : "weak",
   "name" : "_ZN3ndk12BpCInterfaceIN4aidl7android8hardware9bluetooth5audio19IBluetoothAudioPortEE8asBinderEv"
  },
  {
   "binding" : "weak",
   "name" : "_ZN3ndk12BpCInterfaceIN4aidl7android8hardware9bluetooth5audio23IBluetoothAudioProviderEE8asBinderEv"
  },
  {
   "binding" : "weak",
   "name" : "_ZN3ndk12BpCInterfaceIN4aidl7android8hardware9bluetooth5audio30IBluetoothAudioProviderFactoryEE8asBinderEv"
  },
  {
   "binding" : "weak",
   "name" : "_ZN3ndk38AParcel_readStdVectorParcelableElementIN4aidl7android8hardware6common3fmq17GrantorDescriptorEEEiPK7AParcelPvm"
  },
  {
   "binding" : "weak",
   "name" : "_ZN3ndk38AParcel_readStdVectorParcelableElementIN4aidl7android8hardware9bluetooth5audio17AudioCapabilitiesEEEiPK7AParcelPvm"
  },
  {
   "binding" : "weak",
   "name" : "_ZN3ndk38AParcel_readStdVectorParcelableElementIN4aidl7android8hardware9bluetooth5audio20LeAudioConfiguration9StreamMapEEEiPK7AParcelPvm"
  },
  {
   "binding" : "weak",
   "name" : "_ZN3ndk38AParcel_readStdVectorParcelableElementIN4aidl7android8hardware9bluetooth5audio29LeAudioBroadcastConfiguration18BroadcastStreamMapEEEiPK7AParcelPvm"
  },
  {
   "binding" : "weak",
   "name" : "_ZN3ndk39AParcel_writeStdVectorParcelableElementIN4aidl7android8hardware6common3fmq17GrantorDescriptorEEEiP7AParcelPKvm"
  },
  {
   "binding" : "weak",
   "name" : "_ZN3ndk39AParcel_writeStdVectorParcelableElementIN4aidl7android8hardware9bluetooth5audio17AudioCapabilitiesEEEiP7AParcelPKvm"
  },
  {
   "binding" : "weak",
   "name" : "_ZN3ndk39AParcel_writeStdVectorParcelableElementIN4aidl7android8hardware9bluetooth5audio20LeAudioConfiguration9StreamMapEEEiP7AParcelPKvm"
  },
  {
   "binding" : "weak",
   "name" : "_ZN3ndk39AParcel_writeStdVectorParcelableElementIN4aidl7android8hardware9bluetooth5audio29LeAudioBroadcastConfiguration18BroadcastStreamMapEEEiP7AParcelPKvm"
  },
  {
   "binding" : "weak",
   "name" : "_ZN3ndk46AParcel_readNullableStdVectorParcelableElementINSt3__18optionalIN4aidl7android8hardware9bluetooth5audio15Lc3CapabilitiesEEEEEiPK7AParcelPvm"
  },
  {
   "binding" : "weak",
   "name" : "_ZN3ndk46AParcel_readNullableStdVectorParcelableElementINSt3__18optionalIN4aidl7android8hardware9bluetooth5audio19BroadcastCapability18VendorCapabilitiesEEEEEiPK7AParcelPvm"
  },
  {
   "binding" : "weak",
   "name" : "_ZN3ndk47AParcel_writeNullableStdVectorParcelableElementINSt3__18optionalIN4aidl7android8hardware9bluetooth5audio15Lc3CapabilitiesEEEEEiP7AParcelPKvm"
  },
  {
   "binding" : "weak",
   "name" : "_ZN3ndk47AParcel_writeNullableStdVectorParcelableElementINSt3__18optionalIN4aidl7android8hardware9bluetooth5audio19BroadcastCapability18VendorCapabilitiesEEEEEiP7AParcelPKvm"
  },
  {
   "binding" : "weak",
   "name" : "_ZN4aidl7android8hardware6common3fmq12MQDescriptorIaNS3_21SynchronizedReadWriteEE14readFromParcelEPK7AParcel"
  },
  {
   "name" : "_ZN4aidl7android8hardware9bluetooth5audio15AacCapabilities14readFromParcelEPK7AParcel"
  },
  {
   "name" : "_ZN4aidl7android8hardware9bluetooth5audio15Lc3Capabilities14readFromParcelEPK7AParcel"
  },
  {
   "name" : "_ZN4aidl7android8hardware9bluetooth5audio15PcmCapabilities14readFromParcelEPK7AParcel"
  },
  {
   "name" : "_ZN4aidl7android8hardware9bluetooth5audio15SbcCapabilities14readFromParcelEPK7AParcel"
  },
  {
   "name" : "_ZN4aidl7android8hardware9bluetooth5audio16AacConfiguration14readFromParcelEPK7AParcel"
  },
  {
   "name" : "_ZN4aidl7android8hardware9bluetooth5audio16AptxCapabilities14readFromParcelEPK7AParcel"
  },
  {
   "name" : "_ZN4aidl7android8hardware9bluetooth5audio16Lc3Configuration14readFromParcelEPK7AParcel"
  },
  {
   "name" : "_ZN4aidl7android8hardware9bluetooth5audio16LdacCapabilities14readFromParcelEPK7AParcel"
  },
  {
   "name" : "_ZN4aidl7android8hardware9bluetooth5audio16OpusCapabilities14readFromParcelEPK7AParcel"
  },
  {
   "name" : "_ZN4aidl7android8hardware9bluetooth5audio16PcmConfiguration14readFromParcelEPK7AParcel"
  },
  {
   "name" : "_ZN4aidl7android8hardware9bluetooth5audio16SbcConfiguration14readFromParcelEPK7AParcel"
  },
  {
   "name" : "_ZN4aidl7android8hardware9bluetooth5audio17AptxConfiguration14readFromParcelEPK7AParcel"
  },
  {
   "name" : "_ZN4aidl7android8hardware9bluetooth5audio17AptxSinkBuffering14readFromParcelEPK7AParcel"
  },
  {
   "name" : "_ZN4aidl7android8hardware9bluetooth5audio17AudioCapabilities14readFromParcelEPK7AParcel"
  },
  {
   "name" : "_ZN4aidl7android8hardware9bluetooth5audio17CodecCapabilities12Capabilities14readFromParcelEPK7AParcel"
  },
  {
   "name" : "_ZN4aidl7android8hardware9bluetooth5audio17CodecCapabilities14readFromParcelEPK7AParcel"
  },
  {
   "name" : "_ZN4aidl7android8hardware9bluetooth5audio17CodecCapabilities18VendorCapabilities14readFromParcelEPK7AParcel"
  },
  {
   "name" : "_ZN4aidl7android8hardware9bluetooth5audio17LdacConfiguration14readFromParcelEPK7AParcel"
  },
  {
   "name" : "_ZN4aidl7android8hardware9bluetooth5audio17OpusConfiguration14readFromParcelEPK7AParcel"
  },
  {
   "name" : "_ZN4aidl7android8hardware9bluetooth5audio17UnicastCapability14readFromParcelEPK7AParcel"
  },
  {
   "name" : "_ZN4aidl7android8hardware9bluetooth5audio17UnicastCapability18VendorCapabilities14readFromParcelEPK7AParcel"
  },
  {
   "name" : "_ZN4aidl7android8hardware9bluetooth5audio17UnicastCapability24LeAudioCodecCapabilities14readFromParcelEPK7AParcel"
  },
  {
   "name" : "_ZN4aidl7android8hardware9bluetooth5audio18AudioConfiguration14readFromParcelEPK7AParcel"
  },
  {
   "name" : "_ZN4aidl7android8hardware9bluetooth5audio18CodecConfiguration13CodecSpecific14readFromParcelEPK7AParcel"
  },
  {
   "name" : "_ZN4aidl7android8hardware9bluetooth5audio18CodecConfiguration14readFromParcelEPK7AParcel"
  },
  {
   "name" : "_ZN4aidl7android8hardware9bluetooth5audio18CodecConfiguration19VendorConfiguration14readFromParcelEPK7AParcel"
  },
  {
   "name" : "_ZN4aidl7android8hardware9bluetooth5audio19BroadcastCapability14readFromParcelEPK7AParcel"
  },
  {
   "name" : "_ZN4aidl7android8hardware9bluetooth5audio19BroadcastCapability18VendorCapabilities14readFromParcelEPK7AParcel"
  },
  {
   "name" : "_ZN4aidl7android8hardware9bluetooth5audio19BroadcastCapability24LeAudioCodecCapabilities14readFromParcelEPK7AParcel"
  },
  {
   "name" : "_ZN4aidl7android8hardware9bluetooth5audio19IBluetoothAudioPort10fromBinderERKN3ndk10SpAIBinderE"
  },
  {
   "name" : "_ZN4aidl7android8hardware9bluetooth5audio19IBluetoothAudioPort13writeToParcelEP7AParcelRKNSt3__110shared_ptrIS4_EE"
  },
  {
   "name" : "_ZN4aidl7android8hardware9bluetooth5audio19IBluetoothAudioPort14getDefaultImplEv"
  },
  {
   "name" : "_ZN4aidl7android8hardware9bluetooth5audio19IBluetoothAudioPort14readFromParcelEPK7AParcelPNSt3__110shared_ptrIS4_EE"
  },
  {
   "name" : "_ZN4aidl7android8hardware9bluetooth5audio19IBluetoothAudioPort14setDefaultImplERKNSt3__110shared_ptrIS4_EE"
  },
  {
   "name" : "_ZN4aidl7android8hardware9bluetooth5audio19IBluetoothAudioPortC2Ev"
  },
  {
   "name" : "_ZN4aidl7android8hardware9bluetooth5audio19IBluetoothAudioPortD0Ev"
  },
  {
   "name" : "_ZN4aidl7android8hardware9bluetooth5audio19IBluetoothAudioPortD1Ev"
  },
  {
   "name" : "_ZN4aidl7android8hardware9bluetooth5audio19IBluetoothAudioPortD2Ev"
  },
  {
   "name" : "_ZN4aidl7android8hardware9bluetooth5audio20BnBluetoothAudioPort12createBinderEv"
  },
  {
   "name" : "_ZN4aidl7android8hardware9bluetooth5audio20BnBluetoothAudioPort16getInterfaceHashEPNSt3__112basic_stringIcNS5_11char_traitsIcEENS5_9allocatorIcEEEE"
  },
  {
   "name" : "_ZN4aidl7android8hardware9bluetooth5audio20BnBluetoothAudioPort19getInterfaceVersionEPi"
  },
  {
   "name" : "_ZN4aidl7android8hardware9bluetooth5audio20BnBluetoothAudioPortC2Ev"
  },
  {
   "name" : "_ZN4aidl7android8hardware9bluetooth5audio20BnBluetoothAudioPortD0Ev"
  },
  {
   "name" : "_ZN4aidl7android8hardware9bluetooth5audio20BnBluetoothAudioPortD1Ev"
  },
  {
   "name" : "_ZN4aidl7android8hardware9bluetooth5audio20BnBluetoothAudioPortD2Ev"
  },
  {
   "name" : "_ZN4aidl7android8hardware9bluetooth5audio20BpBluetoothAudioPort10stopStreamEv"
  },
  {
   "name" : "_ZN4aidl7android8hardware9bluetooth5audio20BpBluetoothAudioPort11startStreamEb"
  },
  {
   "name" : "_ZN4aidl7android8hardware9bluetooth5audio20BpBluetoothAudioPort13suspendStreamEv"
  },
  {
   "name" : "_ZN4aidl7android8hardware9bluetooth5audio20BpBluetoothAudioPort14setLatencyModeENS3_11LatencyModeE"
  },
  {
   "name" : "_ZN4aidl7android8hardware9bluetooth5audio20BpBluetoothAudioPort16getInterfaceHashEPNSt3__112basic_stringIcNS5_11char_traitsIcEENS5_9allocatorIcEEEE"
  },
  {
   "name" : "_ZN4aidl7android8hardware9bluetooth5audio20BpBluetoothAudioPort18updateSinkMetadataERKNS1_5audio6common12SinkMetadataE"
  },
  {
   "name" : "_ZN4aidl7android8hardware9bluetooth5audio20BpBluetoothAudioPort19getInterfaceVersionEPi"
  },
  {
   "name" : "_ZN4aidl7android8hardware9bluetooth5audio20BpBluetoothAudioPort20updateSourceMetadataERKNS1_5audio6common14SourceMetadataE"
  },
  {
   "name" : "_ZN4aidl7android8hardware9bluetooth5audio20BpBluetoothAudioPort23getPresentationPositionEPNS3_20PresentationPositionE"
  },
  {
   "name" : "_ZN4aidl7android8hardware9bluetooth5audio20BpBluetoothAudioPortC1ERKN3ndk10SpAIBinderE"
  },
  {
   "name" : "_ZN4aidl7android8hardware9bluetooth5audio20BpBluetoothAudioPortC2ERKN3ndk10SpAIBinderE"
  },
  {
   "name" : "_ZN4aidl7android8hardware9bluetooth5audio20BpBluetoothAudioPortD0Ev"
  },
  {
   "name" : "_ZN4aidl7android8hardware9bluetooth5audio20BpBluetoothAudioPortD1Ev"
  },
  {
   "name" : "_ZN4aidl7android8hardware9bluetooth5audio20BpBluetoothAudioPortD2Ev"
  },
  {
   "name" : "_ZN4aidl7android8hardware9bluetooth5audio20LeAudioConfiguration14readFromParcelEPK7AParcel"
  },
  {
   "name" : "_ZN4aidl7android8hardware9bluetooth5audio20LeAudioConfiguration9StreamMap14readFromParcelEPK7AParcel"
  },
  {
   "name" : "_ZN4aidl7android8hardware9bluetooth5audio20PresentationPosition14readFromParcelEPK7AParcel"
  },
  {
   "name" : "_ZN4aidl7android8hardware9bluetooth5audio20PresentationPosition8TimeSpec14readFromParcelEPK7AParcel"
  },
  {
   "name" : "_ZN4aidl7android8hardware9bluetooth5audio22AptxAdaptiveTimeToPlay14readFromParcelEPK7AParcel"
  },
  {
   "name" : "_ZN4aidl7android8hardware9bluetooth5audio23IBluetoothAudioProvider10fromBinderERKN3ndk10SpAIBinderE"
  },
  {
   "name" : "_ZN4aidl7android8hardware9bluetooth5audio23IBluetoothAudioProvider13writeToParcelEP7AParcelRKNSt3__110shared_ptrIS4_EE"
  },
  {
   "name" : "_ZN4aidl7android8hardware9bluetooth5audio23IBluetoothAudioProvider14getDefaultImplEv"
  },
  {
   "name" : "_ZN4aidl7android8hardware9bluetooth5audio23IBluetoothAudioProvider14readFromParcelEPK7AParcelPNSt3__110shared_ptrIS4_EE"
  },
  {
   "name" : "_ZN4aidl7android8hardware9bluetooth5audio23IBluetoothAudioProvider14setDefaultImplERKNSt3__110shared_ptrIS4_EE"
  },
  {
   "name" : "_ZN4aidl7android8hardware9bluetooth5audio23IBluetoothAudioProviderC2Ev"
  },
  {
   "name" : "_ZN4aidl7android8hardware9bluetooth5audio23IBluetoothAudioProviderD0Ev"
  },
  {
   "name" : "_ZN4aidl7android8hardware9bluetooth5audio23IBluetoothAudioProviderD1Ev"
  },
  {
   "name" : "_ZN4aidl7android8hardware9bluetooth5audio23IBluetoothAudioProviderD2Ev"
  },
  {
   "name" : "_ZN4aidl7android8hardware9bluetooth5audio24AptxAdaptiveCapabilities14readFromParcelEPK7AParcel"
  },
  {
   "name" : "_ZN4aidl7android8hardware9bluetooth5audio24BnBluetoothAudioProvider12createBinderEv"
  },
  {
   "name" : "_ZN4aidl7android8hardware9bluetooth5audio24BnBluetoothAudioProvider16getInterfaceHashEPNSt3__112basic_stringIcNS5_11char_traitsIcEENS5_9allocatorIcEEEE"
  },
  {
   "name" : "_ZN4aidl7android8hardware9bluetooth5audio24BnBluetoothAudioProvider19getInterfaceVersionEPi"
  },
  {
   "name" : "_ZN4aidl7android8hardware9bluetooth5audio24BnBluetoothAudioProviderC2Ev"
  },
  {
   "name" : "_ZN4aidl7android8hardware9bluetooth5audio24BnBluetoothAudioProviderD0Ev"
  },
  {
   "name" : "_ZN4aidl7android8hardware9bluetooth5audio24BnBluetoothAudioProviderD1Ev"
  },
  {
   "name" : "_ZN4aidl7android8hardware9bluetooth5audio24BnBluetoothAudioProviderD2Ev"
  },
  {
   "name" : "_ZN4aidl7android8hardware9bluetooth5audio24BpBluetoothAudioProvider10endSessionEv"
  },
  {
   "name" : "_ZN4aidl7android8hardware9bluetooth5audio24BpBluetoothAudioProvider12startSessionERKNSt3__110shared_ptrINS3_19IBluetoothAudioPortEEERKNS3_18AudioConfigurationERKNS5_6vectorINS3_11LatencyModeENS5_9allocatorISF_EEEEPNS1_6common3fmq12MQDescriptorIaNSM_21SynchronizedReadWriteEEE"
  },
  {
   "name" : "_ZN4aidl7android8hardware9bluetooth5audio24BpBluetoothAudioProvider13streamStartedENS3_20BluetoothAudioStatusE"
  },
  {
   "name" : "_ZN4aidl7android8hardware9bluetooth5audio24BpBluetoothAudioProvider15streamSuspendedENS3_20BluetoothAudioStatusE"
  },
  {
   "name" : "_ZN4aidl7android8hardware9bluetooth5audio24BpBluetoothAudioProvider16getInterfaceHashEPNSt3__112basic_stringIcNS5_11char_traitsIcEENS5_9allocatorIcEEEE"
  },
  {
   "name" : "_ZN4aidl7android8hardware9bluetooth5audio24BpBluetoothAudioProvider19getInterfaceVersionEPi"
  },
  {
   "name" : "_ZN4aidl7android8hardware9bluetooth5audio24BpBluetoothAudioProvider24setLowLatencyModeAllowedEb"
  },
  {
   "name" : "_ZN4aidl7android8hardware9bluetooth5audio24BpBluetoothAudioProvider24updateAudioConfigurationERKNS3_18AudioConfigurationE"
  },
  {
   "name" : "_ZN4aidl7android8hardware9bluetooth5audio24BpBluetoothAudioProviderC1ERKN3ndk10SpAIBinderE"
  },
  {
   "name" : "_ZN4aidl7android8hardware9bluetooth5audio24BpBluetoothAudioProviderC2ERKN3ndk10SpAIBinderE"
  },
  {
   "name" : "_ZN4aidl7android8hardware9bluetooth5audio24BpBluetoothAudioProviderD0Ev"
  },
  {
   "name" : "_ZN4aidl7android8hardware9bluetooth5audio24BpBluetoothAudioProviderD1Ev"
  },
  {
   "name" : "_ZN4aidl7android8hardware9bluetooth5audio24BpBluetoothAudioProviderD2Ev"
  },
  {
   "name" : "_ZN4aidl7android8hardware9bluetooth5audio25AptxAdaptiveConfiguration14readFromParcelEPK7AParcel"
  },
  {
   "name" : "_ZN4aidl7android8hardware9bluetooth5audio25LeAudioCodecConfiguration14readFromParcelEPK7AParcel"
  },
  {
   "name" : "_ZN4aidl7android8hardware9bluetooth5audio25LeAudioCodecConfiguration19VendorConfiguration14readFromParcelEPK7AParcel"
  },
  {
   "name" : "_ZN4aidl7android8hardware9bluetooth5audio26IBluetoothAudioPortDefault10stopStreamEv"
  },
  {
   "name" : "_ZN4aidl7android8hardware9bluetooth5audio26IBluetoothAudioPortDefault11startStreamEb"
  },
  {
   "name" : "_ZN4aidl7android8hardware9bluetooth5audio26IBluetoothAudioPortDefault13suspendStreamEv"
  },
  {
   "name" : "_ZN4aidl7android8hardware9bluetooth5audio26IBluetoothAudioPortDefault14setLatencyModeENS3_11LatencyModeE"
  },
  {
   "name" : "_ZN4aidl7android8hardware9bluetooth5audio26IBluetoothAudioPortDefault16getInterfaceHashEPNSt3__112basic_stringIcNS5_11char_traitsIcEENS5_9allocatorIcEEEE"
  },
  {
   "name" : "_ZN4aidl7android8hardware9bluetooth5audio26IBluetoothAudioPortDefault18updateSinkMetadataERKNS1_5audio6common12SinkMetadataE"
  },
  {
   "name" : "_ZN4aidl7android8hardware9bluetooth5audio26IBluetoothAudioPortDefault19getInterfaceVersionEPi"
  },
  {
   "name" : "_ZN4aidl7android8hardware9bluetooth5audio26IBluetoothAudioPortDefault20updateSourceMetadataERKNS1_5audio6common14SourceMetadataE"
  },
  {
   "name" : "_ZN4aidl7android8hardware9bluetooth5audio26IBluetoothAudioPortDefault23getPresentationPositionEPNS3_20PresentationPositionE"
  },
  {
   "name" : "_ZN4aidl7android8hardware9bluetooth5audio26IBluetoothAudioPortDefault8asBinderEv"
  },
  {
   "name" : "_ZN4aidl7android8hardware9bluetooth5audio26IBluetoothAudioPortDefault8isRemoteEv"
  },
  {
   "name" : "_ZN4aidl7android8hardware9bluetooth5audio29LeAudioBroadcastConfiguration14readFromParcelEPK7AParcel"
  },
  {
   "name" : "_ZN4aidl7android8hardware9bluetooth5audio29LeAudioBroadcastConfiguration18BroadcastStreamMap14readFromParcelEPK7AParcel"
  },
  {
   "name" : "_ZN4aidl7android8hardware9bluetooth5audio30IBluetoothAudioProviderDefault10endSessionEv"
  },
  {
   "name" : "_ZN4aidl7android8hardware9bluetooth5audio30IBluetoothAudioProviderDefault12startSessionERKNSt3__110shared_ptrINS3_19IBluetoothAudioPortEEERKNS3_18AudioConfigurationERKNS5_6vectorINS3_11LatencyModeENS5_9allocatorISF_EEEEPNS1_6common3fmq12MQDescriptorIaNSM_21SynchronizedReadWriteEEE"
  },
  {
   "name" : "_ZN4aidl7android8hardware9bluetooth5audio30IBluetoothAudioProviderDefault13streamStartedENS3_20BluetoothAudioStatusE"
  },
  {
   "name" : "_ZN4aidl7android8hardware9bluetooth5audio30IBluetoothAudioProviderDefault15streamSuspendedENS3_20BluetoothAudioStatusE"
  },
  {
   "name" : "_ZN4aidl7android8hardware9bluetooth5audio30IBluetoothAudioProviderDefault16getInterfaceHashEPNSt3__112basic_stringIcNS5_11char_traitsIcEENS5_9allocatorIcEEEE"
  },
  {
   "name" : "_ZN4aidl7android8hardware9bluetooth5audio30IBluetoothAudioProviderDefault19getInterfaceVersionEPi"
  },
  {
   "name" : "_ZN4aidl7android8hardware9bluetooth5audio30IBluetoothAudioProviderDefault24setLowLatencyModeAllowedEb"
  },
  {
   "name" : "_ZN4aidl7android8hardware9bluetooth5audio30IBluetoothAudioProviderDefault24updateAudioConfigurationERKNS3_18AudioConfigurationE"
  },
  {
   "name" : "_ZN4aidl7android8hardware9bluetooth5audio30IBluetoothAudioProviderDefault8asBinderEv"
  },
  {
   "name" : "_ZN4aidl7android8hardware9bluetooth5audio30IBluetoothAudioProviderDefault8isRemoteEv"
  },
  {
   "name" : "_ZN4aidl7android8hardware9bluetooth5audio30IBluetoothAudioProviderFactory10fromBinderERKN3ndk10SpAIBinderE"
  },
  {
   "name" : "_ZN4aidl7android8hardware9bluetooth5audio30IBluetoothAudioProviderFactory13writeToParcelEP7AParcelRKNSt3__110shared_ptrIS4_EE"
  },
  {
   "name" : "_ZN4aidl7android8hardware9bluetooth5audio30IBluetoothAudioProviderFactory14getDefaultImplEv"
  },
  {
   "name" : "_ZN4aidl7android8hardware9bluetooth5audio30IBluetoothAudioProviderFactory14readFromParcelEPK7AParcelPNSt3__110shared_ptrIS4_EE"
  },
  {
   "name" : "_ZN4aidl7android8hardware9bluetooth5audio30IBluetoothAudioProviderFactory14setDefaultImplERKNSt3__110shared_ptrIS4_EE"
  },
  {
   "name" : "_ZN4aidl7android8hardware9bluetooth5audio30IBluetoothAudioProviderFactoryC2Ev"
  },
  {
   "name" : "_ZN4aidl7android8hardware9bluetooth5audio30IBluetoothAudioProviderFactoryD0Ev"
  },
  {
   "name" : "_ZN4aidl7android8hardware9bluetooth5audio30IBluetoothAudioProviderFactoryD1Ev"
  },
  {
   "name" : "_ZN4aidl7android8hardware9bluetooth5audio30IBluetoothAudioProviderFactoryD2Ev"
  },
  {
   "name" : "_ZN4aidl7android8hardware9bluetooth5audio31BnBluetoothAudioProviderFactory12createBinderEv"
  },
  {
   "name" : "_ZN4aidl7android8hardware9bluetooth5audio31BnBluetoothAudioProviderFactory16getInterfaceHashEPNSt3__112basic_stringIcNS5_11char_traitsIcEENS5_9allocatorIcEEEE"
  },
  {
   "name" : "_ZN4aidl7android8hardware9bluetooth5audio31BnBluetoothAudioProviderFactory19getInterfaceVersionEPi"
  },
  {
   "name" : "_ZN4aidl7android8hardware9bluetooth5audio31BnBluetoothAudioProviderFactoryC2Ev"
  },
  {
   "name" : "_ZN4aidl7android8hardware9bluetooth5audio31BnBluetoothAudioProviderFactoryD0Ev"
  },
  {
   "name" : "_ZN4aidl7android8hardware9bluetooth5audio31BnBluetoothAudioProviderFactoryD1Ev"
  },
  {
   "name" : "_ZN4aidl7android8hardware9bluetooth5audio31BnBluetoothAudioProviderFactoryD2Ev"
  },
  {
   "name" : "_ZN4aidl7android8hardware9bluetooth5audio31BpBluetoothAudioProviderFactory12openProviderENS3_11SessionTypeEPNSt3__110shared_ptrINS3_23IBluetoothAudioProviderEEE"
  },
  {
   "name" : "_ZN4aidl7android8hardware9bluetooth5audio31BpBluetoothAudioProviderFactory16getInterfaceHashEPNSt3__112basic_stringIcNS5_11char_traitsIcEENS5_9allocatorIcEEEE"
  },
  {
   "name" : "_ZN4aidl7android8hardware9bluetooth5audio31BpBluetoothAudioProviderFactory19getInterfaceVersionEPi"
  },
  {
   "name" : "_ZN4aidl7android8hardware9bluetooth5audio31BpBluetoothAudioProviderFactory23getProviderCapabilitiesENS3_11SessionTypeEPNSt3__16vectorINS3_17AudioCapabilitiesENS6_9allocatorIS8_EEEE"
  },
  {
   "name" : "_ZN4aidl7android8hardware9bluetooth5audio31BpBluetoothAudioProviderFactoryC1ERKN3ndk10SpAIBinderE"
  },
  {
   "name" : "_ZN4aidl7android8hardware9bluetooth5audio31BpBluetoothAudioProviderFactoryC2ERKN3ndk10SpAIBinderE"
  },
  {
   "name" : "_ZN4aidl7android8hardware9bluetooth5audio31BpBluetoothAudioProviderFactoryD0Ev"
  },
  {
   "name" : "_ZN4aidl7android8hardware9bluetooth5audio31BpBluetoothAudioProviderFactoryD1Ev"
  },
  {
   "name" : "_ZN4aidl7android8hardware9bluetooth5audio31BpBluetoothAudioProviderFactoryD2Ev"
  },
  {
   "name" : "_ZN4aidl7android8hardware9bluetooth5audio31LeAudioCodecCapabilitiesSetting14readFromParcelEPK7AParcel"
  },
  {
   "name" : "_ZN4aidl7android8hardware9bluetooth5audio37IBluetoothAudioProviderFactoryDefault12openProviderENS3_11SessionTypeEPNSt3__110shared_ptrINS3_23IBluetoothAudioProviderEEE"
  },
  {
   "name" : "_ZN4aidl7android8hardware9bluetooth5audio37IBluetoothAudioProviderFactoryDefault16getInterfaceHashEPNSt3__112basic_stringIcNS5_11char_traitsIcEENS5_9allocatorIcEEEE"
  },
  {
   "name" : "_ZN4aidl7android8hardware9bluetooth5audio37IBluetoothAudioProviderFactoryDefault19getInterfaceVersionEPi"
  },
  {
   "name" : "_ZN4aidl7android8hardware9bluetooth5audio37IBluetoothAudioProviderFactoryDefault23getProviderCapabilitiesENS3_11SessionTypeEPNSt3__16vectorINS3_17AudioCapabilitiesENS6_9allocatorIS8_EEEE"
  },
  {
   "name" : "_ZN4aidl7android8hardware9bluetooth5audio37IBluetoothAudioProviderFactoryDefault8asBinderEv"
  },
  {
   "name" : "_ZN4aidl7android8hardware9bluetooth5audio37IBluetoothAudioProviderFactoryDefault8isRemoteEv"
  },
  {
   "binding" : "weak",
   "name" : "_ZNK4aidl7android8hardware6common3fmq12MQDescriptorIaNS3_21SynchronizedReadWriteEE13writeToParcelEP7AParcel"
  },
  {
   "name" : "_ZNK4aidl7android8hardware9bluetooth5audio15AacCapabilities13writeToParcelEP7AParcel"
  },
  {
   "name" : "_ZNK4aidl7android8hardware9bluetooth5audio15Lc3Capabilities13writeToParcelEP7AParcel"
  },
  {
   "name" : "_ZNK4aidl7android8hardware9bluetooth5audio15PcmCapabilities13writeToParcelEP7AParcel"
  },
  {
   "name" : "_ZNK4aidl7android8hardware9bluetooth5audio15SbcCapabilities13writeToParcelEP7AParcel"
  },
  {
   "name" : "_ZNK4aidl7android8hardware9bluetooth5audio16AacConfiguration13writeToParcelEP7AParcel"
  },
  {
   "name" : "_ZNK4aidl7android8hardware9bluetooth5audio16AptxCapabilities13writeToParcelEP7AParcel"
  },
  {
   "name" : "_ZNK4aidl7android8hardware9bluetooth5audio16Lc3Configuration13writeToParcelEP7AParcel"
  },
  {
   "name" : "_ZNK4aidl7android8hardware9bluetooth5audio16LdacCapabilities13writeToParcelEP7AParcel"
  },
  {
   "name" : "_ZNK4aidl7android8hardware9bluetooth5audio16OpusCapabilities13writeToParcelEP7AParcel"
  },
  {
   "name" : "_ZNK4aidl7android8hardware9bluetooth5audio16PcmConfiguration13writeToParcelEP7AParcel"
  },
  {
   "name" : "_ZNK4aidl7android8hardware9bluetooth5audio16SbcConfiguration13writeToParcelEP7AParcel"
  },
  {
   "name" : "_ZNK4aidl7android8hardware9bluetooth5audio17AptxConfiguration13writeToParcelEP7AParcel"
  },
  {
   "name" : "_ZNK4aidl7android8hardware9bluetooth5audio17AptxSinkBuffering13writeToParcelEP7AParcel"
  },
  {
   "name" : "_ZNK4aidl7android8hardware9bluetooth5audio17AudioCapabilities13writeToParcelEP7AParcel"
  },
  {
   "name" : "_ZNK4aidl7android8hardware9bluetooth5audio17CodecCapabilities12Capabilities13writeToParcelEP7AParcel"
  },
  {
   "name" : "_ZNK4aidl7android8hardware9bluetooth5audio17CodecCapabilities13writeToParcelEP7AParcel"
  },
  {
   "name" : "_ZNK4aidl7android8hardware9bluetooth5audio17CodecCapabilities18VendorCapabilities13writeToParcelEP7AParcel"
  },
  {
   "name" : "_ZNK4aidl7android8hardware9bluetooth5audio17LdacConfiguration13writeToParcelEP7AParcel"
  },
  {
   "name" : "_ZNK4aidl7android8hardware9bluetooth5audio17OpusConfiguration13writeToParcelEP7AParcel"
  },
  {
   "name" : "_ZNK4aidl7android8hardware9bluetooth5audio17UnicastCapability13writeToParcelEP7AParcel"
  },
  {
   "name" : "_ZNK4aidl7android8hardware9bluetooth5audio17UnicastCapability18VendorCapabilities13writeToParcelEP7AParcel"
  },
  {
   "name" : "_ZNK4aidl7android8hardware9bluetooth5audio17UnicastCapability24LeAudioCodecCapabilities13writeToParcelEP7AParcel"
  },
  {
   "name" : "_ZNK4aidl7android8hardware9bluetooth5audio18AudioConfiguration13writeToParcelEP7AParcel"
  },
  {
   "name" : "_ZNK4aidl7android8hardware9bluetooth5audio18CodecConfiguration13CodecSpecific13writeToParcelEP7AParcel"
  },
  {
   "name" : "_ZNK4aidl7android8hardware9bluetooth5audio18CodecConfiguration13writeToParcelEP7AParcel"
  },
  {
   "name" : "_ZNK4aidl7android8hardware9bluetooth5audio18CodecConfiguration19VendorConfiguration13writeToParcelEP7AParcel"
  },
  {
   "name" : "_ZNK4aidl7android8hardware9bluetooth5audio19BroadcastCapability13writeToParcelEP7AParcel"
  },
  {
   "name" : "_ZNK4aidl7android8hardware9bluetooth5audio19BroadcastCapability18VendorCapabilities13writeToParcelEP7AParcel"
  },
  {
   "name" : "_ZNK4aidl7android8hardware9bluetooth5audio19BroadcastCapability24LeAudioCodecCapabilities13writeToParcelEP7AParcel"
  },
  {
   "name" : "_ZNK4aidl7android8hardware9bluetooth5audio20LeAudioConfiguration13writeToParcelEP7AParcel"
  },
  {
   "name" : "_ZNK4aidl7android8hardware9bluetooth5audio20LeAudioConfiguration9StreamMap13writeToParcelEP7AParcel"
  },
  {
   "name" : "_ZNK4aidl7android8hardware9bluetooth5audio20PresentationPosition13writeToParcelEP7AParcel"
  },
  {
   "name" : "_ZNK4aidl7android8hardware9bluetooth5audio20PresentationPosition8TimeSpec13writeToParcelEP7AParcel"
  },
  {
   "name" : "_ZNK4aidl7android8hardware9bluetooth5audio22AptxAdaptiveTimeToPlay13writeToParcelEP7AParcel"
  },
  {
   "name" : "_ZNK4aidl7android8hardware9bluetooth5audio24AptxAdaptiveCapabilities13writeToParcelEP7AParcel"
  },
  {
   "name" : "_ZNK4aidl7android8hardware9bluetooth5audio25AptxAdaptiveConfiguration13writeToParcelEP7AParcel"
  },
  {
   "name" : "_ZNK4aidl7android8hardware9bluetooth5audio25LeAudioCodecConfiguration13writeToParcelEP7AParcel"
  },
  {
   "name" : "_ZNK4aidl7android8hardware9bluetooth5audio25LeAudioCodecConfiguration19VendorConfiguration13writeToParcelEP7AParcel"
  },
  {
   "name" : "_ZNK4aidl7android8hardware9bluetooth5audio29LeAudioBroadcastConfiguration13writeToParcelEP7AParcel"
  },
  {
   "name" : "_ZNK4aidl7android8hardware9bluetooth5audio29LeAudioBroadcastConfiguration18BroadcastStreamMap13writeToParcelEP7AParcel"
  },
  {
   "name" : "_ZNK4aidl7android8hardware9bluetooth5audio31LeAudioCodecCapabilitiesSetting13writeToParcelEP7AParcel"
  },
  {
   "binding" : "weak",
   "name" : "_ZNSt3__110shared_ptrIN4aidl7android8hardware9bluetooth5audio19IBluetoothAudioPortEED2Ev"
  },
  {
   "binding" : "weak",
   "name" : "_ZNSt3__110shared_ptrIN4aidl7android8hardware9bluetooth5audio23IBluetoothAudioProviderEED2Ev"
  },
  {
   "binding" : "weak",
   "name" : "_ZNSt3__110shared_ptrIN4aidl7android8hardware9bluetooth5audio30IBluetoothAudioProviderFactoryEED2Ev"
  },
  {
   "binding" : "weak",
   "name" : "_ZNSt3__120__shared_ptr_pointerIPN3ndk13SharedRefBaseENS_14default_deleteIS2_EENS_9allocatorIS2_EEE16__on_zero_sharedEv"
  },
  {
   "binding" : "weak",
   "name" : "_ZNSt3__120__shared_ptr_pointerIPN3ndk13SharedRefBaseENS_14default_deleteIS2_EENS_9allocatorIS2_EEE21__on_zero_shared_weakEv"
  },
  {
   "binding" : "weak",
   "name" : "_ZNSt3__16vectorIN4aidl7android8hardware6common3fmq17GrantorDescriptorENS_9allocatorIS6_EEE8__appendEm"
  },
  {
   "binding" : "weak",
   "name" : "_ZNSt3__16vectorIN4aidl7android8hardware9bluetooth5audio17AudioCapabilitiesENS_9allocatorIS6_EEE8__appendEm"
  },
  {
   "binding" : "weak",
   "name" : "_ZNSt3__16vectorIN4aidl7android8hardware9bluetooth5audio20LeAudioConfiguration9StreamMapENS_9allocatorIS7_EEE8__appendEm"
  },
  {
   "binding" : "weak",
   "name" : "_ZNSt3__16vectorIN4aidl7android8hardware9bluetooth5audio29LeAudioBroadcastConfiguration18BroadcastStreamMapENS_9allocatorIS7_EEE8__appendEm"
  },
  {
   "binding" : "weak",
   "name" : "_ZNSt3__16vectorINS_8optionalIN4aidl7android8hardware9bluetooth5audio15Lc3CapabilitiesEEENS_9allocatorIS8_EEE8__appendEm"
  },
  {
   "binding" : "weak",
   "name" : "_ZNSt3__16vectorINS_8optionalIN4aidl7android8hardware9bluetooth5audio19BroadcastCapability18VendorCapabilitiesEEENS_9allocatorIS9_EEE8__appendEm"
  },
  {
   "binding" : "weak",
   "name" : "_ZNSt3__16vectorIaNS_9allocatorIaEEE8__appendEm"
  },
  {
   "binding" : "weak",
   "name" : "_ZNSt3__16vectorIiNS_9allocatorIiEEE8__appendEm"
  }
 ],
 "elf_objects" :
 [
  {
   "binding" : "weak",
   "name" : "_ZGVN4aidl7android8hardware9bluetooth5audio19IBluetoothAudioPort4hashE"
  },
  {
   "binding" : "weak",
   "name" : "_ZGVN4aidl7android8hardware9bluetooth5audio23IBluetoothAudioProvider4hashE"
  },
  {
   "binding" : "weak",
   "name" : "_ZGVN4aidl7android8hardware9bluetooth5audio30IBluetoothAudioProviderFactory4hashE"
  },
  {
   "name" : "_ZN4aidl7android8hardware9bluetooth5audio15AacCapabilities10descriptorE"
  },
  {
   "name" : "_ZN4aidl7android8hardware9bluetooth5audio15Lc3Capabilities10descriptorE"
  },
  {
   "name" : "_ZN4aidl7android8hardware9bluetooth5audio15PcmCapabilities10descriptorE"
  },
  {
   "name" : "_ZN4aidl7android8hardware9bluetooth5audio15SbcCapabilities10descriptorE"
  },
  {
   "name" : "_ZN4aidl7android8hardware9bluetooth5audio16AacConfiguration10descriptorE"
  },
  {
   "name" : "_ZN4aidl7android8hardware9bluetooth5audio16AptxCapabilities10descriptorE"
  },
  {
   "name" : "_ZN4aidl7android8hardware9bluetooth5audio16Lc3Configuration10descriptorE"
  },
  {
   "name" : "_ZN4aidl7android8hardware9bluetooth5audio16LdacCapabilities10descriptorE"
  },
  {
   "name" : "_ZN4aidl7android8hardware9bluetooth5audio16OpusCapabilities10descriptorE"
  },
  {
   "name" : "_ZN4aidl7android8hardware9bluetooth5audio16PcmConfiguration10descriptorE"
  },
  {
   "name" : "_ZN4aidl7android8hardware9bluetooth5audio16SbcConfiguration10descriptorE"
  },
  {
   "name" : "_ZN4aidl7android8hardware9bluetooth5audio17AptxConfiguration10descriptorE"
  },
  {
   "name" : "_ZN4aidl7android8hardware9bluetooth5audio17AptxSinkBuffering10descriptorE"
  },
  {
   "name" : "_ZN4aidl7android8hardware9bluetooth5audio17AudioCapabilities10descriptorE"
  },
  {
   "name" : "_ZN4aidl7android8hardware9bluetooth5audio17CodecCapabilities10descriptorE"
  },
  {
   "name" : "_ZN4aidl7android8hardware9bluetooth5audio17CodecCapabilities12Capabilities10descriptorE"
  },
  {
   "name" : "_ZN4aidl7android8hardware9bluetooth5audio17CodecCapabilities18VendorCapabilities10descriptorE"
  },
  {
   "name" : "_ZN4aidl7android8hardware9bluetooth5audio17LdacConfiguration10descriptorE"
  },
  {
   "name" : "_ZN4aidl7android8hardware9bluetooth5audio17OpusConfiguration10descriptorE"
  },
  {
   "name" : "_ZN4aidl7android8hardware9bluetooth5audio17UnicastCapability10descriptorE"
  },
  {
   "name" : "_ZN4aidl7android8hardware9bluetooth5audio17UnicastCapability18VendorCapabilities10descriptorE"
  },
  {
   "name" : "_ZN4aidl7android8hardware9bluetooth5audio17UnicastCapability24LeAudioCodecCapabilities10descriptorE"
  },
  {
   "name" : "_ZN4aidl7android8hardware9bluetooth5audio18AudioConfiguration10descriptorE"
  },
  {
   "name" : "_ZN4aidl7android8hardware9bluetooth5audio18CodecConfiguration10descriptorE"
  },
  {
   "name" : "_ZN4aidl7android8hardware9bluetooth5audio18CodecConfiguration13CodecSpecific10descriptorE"
  },
  {
   "name" : "_ZN4aidl7android8hardware9bluetooth5audio18CodecConfiguration19VendorConfiguration10descriptorE"
  },
  {
   "name" : "_ZN4aidl7android8hardware9bluetooth5audio19BroadcastCapability10descriptorE"
  },
  {
   "name" : "_ZN4aidl7android8hardware9bluetooth5audio19BroadcastCapability18VendorCapabilities10descriptorE"
  },
  {
   "name" : "_ZN4aidl7android8hardware9bluetooth5audio19BroadcastCapability24LeAudioCodecCapabilities10descriptorE"
  },
  {
   "name" : "_ZN4aidl7android8hardware9bluetooth5audio19IBluetoothAudioPort10descriptorE"
  },
  {
   "name" : "_ZN4aidl7android8hardware9bluetooth5audio19IBluetoothAudioPort12default_implE"
  },
  {
   "binding" : "weak",
   "name" : "_ZN4aidl7android8hardware9bluetooth5audio19IBluetoothAudioPort4hashE"
  },
  {
   "name" : "_ZN4aidl7android8hardware9bluetooth5audio20LeAudioConfiguration10descriptorE"
  },
  {
   "name" : "_ZN4aidl7android8hardware9bluetooth5audio20LeAudioConfiguration9StreamMap10descriptorE"
  },
  {
   "name" : "_ZN4aidl7android8hardware9bluetooth5audio20PresentationPosition10descriptorE"
  },
  {
   "name" : "_ZN4aidl7android8hardware9bluetooth5audio20PresentationPosition8TimeSpec10descriptorE"
  },
  {
   "name" : "_ZN4aidl7android8hardware9bluetooth5audio22AptxAdaptiveTimeToPlay10descriptorE"
  },
  {
   "name" : "_ZN4aidl7android8hardware9bluetooth5audio23IBluetoothAudioProvider10descriptorE"
  },
  {
   "name" : "_ZN4aidl7android8hardware9bluetooth5audio23IBluetoothAudioProvider12default_implE"
  },
  {
   "binding" : "weak",
   "name" : "_ZN4aidl7android8hardware9bluetooth5audio23IBluetoothAudioProvider4hashE"
  },
  {
   "name" : "_ZN4aidl7android8hardware9bluetooth5audio24AptxAdaptiveCapabilities10descriptorE"
  },
  {
   "name" : "_ZN4aidl7android8hardware9bluetooth5audio25AptxAdaptiveConfiguration10descriptorE"
  },
  {
   "name" : "_ZN4aidl7android8hardware9bluetooth5audio25LeAudioCodecConfiguration10descriptorE"
  },
  {
   "name" : "_ZN4aidl7android8hardware9bluetooth5audio25LeAudioCodecConfiguration19VendorConfiguration10descriptorE"
  },
  {
   "name" : "_ZN4aidl7android8hardware9bluetooth5audio29LeAudioBroadcastConfiguration10descriptorE"
  },
  {
   "name" : "_ZN4aidl7android8hardware9bluetooth5audio29LeAudioBroadcastConfiguration18BroadcastStreamMap10descriptorE"
  },
  {
   "name" : "_ZN4aidl7android8hardware9bluetooth5audio30IBluetoothAudioProviderFactory10descriptorE"
  },
  {
   "name" : "_ZN4aidl7android8hardware9bluetooth5audio30IBluetoothAudioProviderFactory12default_implE"
  },
  {
   "binding" : "weak",
   "name" : "_ZN4aidl7android8hardware9bluetooth5audio30IBluetoothAudioProviderFactory4hashE"
  },
  {
   "name" : "_ZN4aidl7android8hardware9bluetooth5audio31LeAudioCodecCapabilitiesSetting10descriptorE"
  },
  {
   "binding" : "weak",
   "name" : "_ZTVN3ndk12BnCInterfaceIN4aidl7android8hardware9bluetooth5audio19IBluetoothAudioPortEEE"
  },
  {
   "binding" : "weak",
   "name" : "_ZTVN3ndk12BnCInterfaceIN4aidl7android8hardware9bluetooth5audio23IBluetoothAudioProviderEEE"
  },
  {
   "binding" : "weak",
   "name" : "_ZTVN3ndk12BnCInterfaceIN4aidl7android8hardware9bluetooth5audio30IBluetoothAudioProviderFactoryEEE"
  },
  {
   "binding" : "weak",
   "name" : "_ZTVN3ndk12BpCInterfaceIN4aidl7android8hardware9bluetooth5audio19IBluetoothAudioPortEEE"
  },
  {
   "binding" : "weak",
   "name" : "_ZTVN3ndk12BpCInterfaceIN4aidl7android8hardware9bluetooth5audio23IBluetoothAudioProviderEEE"
  },
  {
   "binding" : "weak",
   "name" : "_ZTVN3ndk12BpCInterfaceIN4aidl7android8hardware9bluetooth5audio30IBluetoothAudioProviderFactoryEEE"
  },
  {
   "binding" : "weak",
   "name" : "_ZTVN3ndk13SharedRefBaseE"
  },
  {
   "binding" : "weak",
   "name" : "_ZTVN3ndk17AParcelableHolderE"
  },
  {
   "name" : "_ZTVN4aidl7android8hardware9bluetooth5audio19IBluetoothAudioPortE"
  },
  {
   "name" : "_ZTVN4aidl7android8hardware9bluetooth5audio20BnBluetoothAudioPortE"
  },
  {
   "name" : "_ZTVN4aidl7android8hardware9bluetooth5audio20BpBluetoothAudioPortE"
  },
  {
   "name" : "_ZTVN4aidl7android8hardware9bluetooth5audio23IBluetoothAudioProviderE"
  },
  {
   "name" : "_ZTVN4aidl7android8hardware9bluetooth5audio24BnBluetoothAudioProviderE"
  },
  {
   "name" : "_ZTVN4aidl7android8hardware9bluetooth5audio24BpBluetoothAudioProviderE"
  },
  {
   "name" : "_ZTVN4aidl7android8hardware9bluetooth5audio26IBluetoothAudioPortDefaultE"
  },
  {
   "name" : "_ZTVN4aidl7android8hardware9bluetooth5audio30IBluetoothAudioProviderDefaultE"
  },
  {
   "name" : "_ZTVN4aidl7android8hardware9bluetooth5audio30IBluetoothAudioProviderFactoryE"
  },
  {
   "name" : "_ZTVN4aidl7android8hardware9bluetooth5audio31BnBluetoothAudioProviderFactoryE"
  },
  {
   "name" : "_ZTVN4aidl7android8hardware9bluetooth5audio31BpBluetoothAudioProviderFactoryE"
  },
  {
   "name" : "_ZTVN4aidl7android8hardware9bluetooth5audio37IBluetoothAudioProviderFactoryDefaultE"
  },
  {
   "binding" : "weak",
   "name" : "_ZTVNSt3__120__shared_ptr_pointerIPN3ndk13SharedRefBaseENS_14default_deleteIS2_EENS_9allocatorIS2_EEEE"
  }
 ],
 "enum_types" :
 [
  {
   "alignment" : 4,
   "enum_fields" :
   [
    {
     "enum_field_value" : 1,
     "name" : "FLAG_ONEWAY"
    }
   ],
   "linker_set_key" : "_ZTI12$FLAG_ONEWAY",
   "name" : "(unnamed enum at frameworks/native/libs/binder/ndk/include_ndk/android/binder_ibinder.h:43:1)",
   "referenced_type" : "_ZTI12$FLAG_ONEWAY",
   "self_type" : "_ZTI12$FLAG_ONEWAY",
   "size" : 4,
   "source_file" : "frameworks/native/libs/binder/ndk/include_ndk/android/binder_ibinder.h",
   "underlying_type" : "_ZTIj"
  },
  {
   "alignment" : 4,
   "enum_fields" :
   [
    {
     "enum_field_value" : 0,
     "name" : "EX_NONE"
    },
    {
     "enum_field_value" : -1,
     "name" : "EX_SECURITY"
    },
    {
     "enum_field_value" : -2,
     "name" : "EX_BAD_PARCELABLE"
    },
    {
     "enum_field_value" : -3,
     "name" : "EX_ILLEGAL_ARGUMENT"
    },
    {
     "enum_field_value" : -4,
     "name" : "EX_NULL_POINTER"
    },
    {
     "enum_field_value" : -5,
     "name" : "EX_ILLEGAL_STATE"
    },
    {
     "enum_field_value" : -6,
     "name" : "EX_NETWORK_MAIN_THREAD"
    },
    {
     "enum_field_value" : -7,
     "name" : "EX_UNSUPPORTED_OPERATION"
    },
    {
     "enum_field_value" : -8,
     "name" : "EX_SERVICE_SPECIFIC"
    },
    {
     "enum_field_value" : -9,
     "name" : "EX_PARCELABLE"
    },
    {
     "enum_field_value" : -129,
     "name" : "EX_TRANSACTION_FAILED"
    }
   ],
   "linker_set_key" : "_ZTI18$EX_BAD_PARCELABLE",
   "name" : "(unnamed enum at frameworks/native/libs/binder/ndk/include_ndk/android/binder_status.h:94:1)",
   "referenced_type" : "_ZTI18$EX_BAD_PARCELABLE",
   "self_type" : "_ZTI18$EX_BAD_PARCELABLE",
   "size" : 4,
   "source_file" : "frameworks/native/libs/binder/ndk/include_ndk/android/binder_status.h",
   "underlying_type" : "_ZTIi"
  },
  {
   "alignment" : 4,
   "enum_fields" :
   [
    {
     "enum_field_value" : 268435456,
     "name" : "FLAG_PRIVATE_LOCAL"
    }
   ],
   "linker_set_key" : "_ZTI19$FLAG_PRIVATE_LOCAL",
   "name" : "(unnamed enum at frameworks/native/libs/binder/ndk/include_platform/android/binder_stability.h:35:1)",
   "referenced_type" : "_ZTI19$FLAG_PRIVATE_LOCAL",
   "self_type" : "_ZTI19$FLAG_PRIVATE_LOCAL",
   "size" : 4,
   "source_file" : "frameworks/native/libs/binder/ndk/include_platform/android/binder_stability.h",
   "underlying_type" : "_ZTIj"
  },
  {
   "alignment" : 4,
   "enum_fields" :
   [
    {
     "enum_field_value" : 268435456,
     "name" : "FLAG_PRIVATE_VENDOR"
    }
   ],
   "linker_set_key" : "_ZTI20$FLAG_PRIVATE_VENDOR",
   "name" : "(unnamed enum at frameworks/native/libs/binder/ndk/include_platform/android/binder_stability.h:26:1)",
   "referenced_type" : "_ZTI20$FLAG_PRIVATE_VENDOR",
   "self_type" : "_ZTI20$FLAG_PRIVATE_VENDOR",
   "size" : 4,
   "source_file" : "frameworks/native/libs/binder/ndk/include_platform/android/binder_stability.h",
   "underlying_type" : "_ZTIj"
  },
  {
   "alignment" : 4,
   "enum_fields" :
   [
    {
     "enum_field_value" : 0,
     "name" : "STATUS_OK"
    },
    {
     "enum_field_value" : -2147483648,
     "name" : "STATUS_UNKNOWN_ERROR"
    },
    {
     "enum_field_value" : -12,
     "name" : "STATUS_NO_MEMORY"
    },
    {
     "enum_field_value" : -38,
     "name" : "STATUS_INVALID_OPERATION"
    },
    {
     "enum_field_value" : -22,
     "name" : "STATUS_BAD_VALUE"
    },
    {
     "enum_field_value" : -2147483647,
     "name" : "STATUS_BAD_TYPE"
    },
    {
     "enum_field_value" : -2,
     "name" : "STATUS_NAME_NOT_FOUND"
    },
    {
     "enum_field_value" : -1,
     "name" : "STATUS_PERMISSION_DENIED"
    },
    {
     "enum_field_value" : -19,
     "name" : "STATUS_NO_INIT"
    },
    {
     "enum_field_value" : -17,
     "name" : "STATUS_ALREADY_EXISTS"
    },
    {
     "enum_field_value" : -32,
     "name" : "STATUS_DEAD_OBJECT"
    },
    {
     "enum_field_value" : -2147483646,
     "name" : "STATUS_FAILED_TRANSACTION"
    },
    {
     "enum_field_value" : -75,
     "name" : "STATUS_BAD_INDEX"
    },
    {
     "enum_field_value" : -61,
     "name" : "STATUS_NOT_ENOUGH_DATA"
    },
    {
     "enum_field_value" : -11,
     "name" : "STATUS_WOULD_BLOCK"
    },
    {
     "enum_field_value" : -110,
     "name" : "STATUS_TIMED_OUT"
    },
    {
     "enum_field_value" : -74,
     "name" : "STATUS_UNKNOWN_TRANSACTION"
    },
    {
     "enum_field_value" : -2147483641,
     "name" : "STATUS_FDS_NOT_ALLOWED"
    },
    {
     "enum_field_value" : -2147483640,
     "name" : "STATUS_UNEXPECTED_NULL"
    }
   ],
   "linker_set_key" : "_ZTI22$STATUS_ALREADY_EXISTS",
   "name" : "(unnamed enum at frameworks/native/libs/binder/ndk/include_ndk/android/binder_status.h:60:1)",
   "referenced_type" : "_ZTI22$STATUS_ALREADY_EXISTS",
   "self_type" : "_ZTI22$STATUS_ALREADY_EXISTS",
   "size" : 4,
   "source_file" : "frameworks/native/libs/binder/ndk/include_ndk/android/binder_status.h",
   "underlying_type" : "_ZTIi"
  },
  {
   "alignment" : 4,
   "enum_fields" :
   [
    {
     "enum_field_value" : 1,
     "name" : "FIRST_CALL_TRANSACTION"
    },
    {
     "enum_field_value" : 16777215,
     "name" : "LAST_CALL_TRANSACTION"
    }
   ],
   "linker_set_key" : "_ZTI23$FIRST_CALL_TRANSACTION",
   "name" : "(unnamed enum at frameworks/native/libs/binder/ndk/include_ndk/android/binder_ibinder.h:58:1)",
   "referenced_type" : "_ZTI23$FIRST_CALL_TRANSACTION",
   "self_type" : "_ZTI23$FIRST_CALL_TRANSACTION",
   "size" : 4,
   "source_file" : "frameworks/native/libs/binder/ndk/include_ndk/android/binder_ibinder.h",
   "underlying_type" : "_ZTIj"
  },
  {
   "alignment" : 4,
   "enum_fields" :
   [
    {
     "enum_field_value" : 0,
     "name" : "ndk::STABILITY_LOCAL"
    },
    {
     "enum_field_value" : 1,
     "name" : "ndk::STABILITY_VINTF"
    }
   ],
   "linker_set_key" : "_ZTIN3ndk16$STABILITY_LOCALE",
   "name" : "ndk::(unnamed enum at frameworks/native/libs/binder/ndk/include_cpp/android/binder_parcelable_utils.h:34:1)",
   "referenced_type" : "_ZTIN3ndk16$STABILITY_LOCALE",
   "self_type" : "_ZTIN3ndk16$STABILITY_LOCALE",
   "size" : 4,
   "source_file" : "frameworks/native/libs/binder/ndk/include_cpp/android/binder_parcelable_utils.h",
   "underlying_type" : "_ZTIj"
  },
  {
   "alignment" : 4,
   "enum_fields" :
   [
    {
     "enum_field_value" : -1,
     "name" : "aidl::android::media::audio::common::AudioUsage::INVALID"
    },
    {
     "enum_field_value" : 0,
     "name" : "aidl::android::media::audio::common::AudioUsage::UNKNOWN"
    },
    {
     "enum_field_value" : 1,
     "name" : "aidl::android::media::audio::common::AudioUsage::MEDIA"
    },
    {
     "enum_field_value" : 2,
     "name" : "aidl::android::media::audio::common::AudioUsage::VOICE_COMMUNICATION"
    },
    {
     "enum_field_value" : 3,
     "name" : "aidl::android::media::audio::common::AudioUsage::VOICE_COMMUNICATION_SIGNALLING"
    },
    {
     "enum_field_value" : 4,
     "name" : "aidl::android::media::audio::common::AudioUsage::ALARM"
    },
    {
     "enum_field_value" : 5,
     "name" : "aidl::android::media::audio::common::AudioUsage::NOTIFICATION"
    },
    {
     "enum_field_value" : 6,
     "name" : "aidl::android::media::audio::common::AudioUsage::NOTIFICATION_TELEPHONY_RINGTONE"
    },
    {
     "enum_field_value" : 7,
     "name" : "aidl::android::media::audio::common::AudioUsage::SYS_RESERVED_NOTIFICATION_COMMUNICATION_REQUEST"
    },
    {
     "enum_field_value" : 8,
     "name" : "aidl::android::media::audio::common::AudioUsage::SYS_RESERVED_NOTIFICATION_COMMUNICATION_INSTANT"
    },
    {
     "enum_field_value" : 9,
     "name" : "aidl::android::media::audio::common::AudioUsage::SYS_RESERVED_NOTIFICATION_COMMUNICATION_DELAYED"
    },
    {
     "enum_field_value" : 10,
     "name" : "aidl::android::media::audio::common::AudioUsage::NOTIFICATION_EVENT"
    },
    {
     "enum_field_value" : 11,
     "name" : "aidl::android::media::audio::common::AudioUsage::ASSISTANCE_ACCESSIBILITY"
    },
    {
     "enum_field_value" : 12,
     "name" : "aidl::android::media::audio::common::AudioUsage::ASSISTANCE_NAVIGATION_GUIDANCE"
    },
    {
     "enum_field_value" : 13,
     "name" : "aidl::android::media::audio::common::AudioUsage::ASSISTANCE_SONIFICATION"
    },
    {
     "enum_field_value" : 14,
     "name" : "aidl::android::media::audio::common::AudioUsage::GAME"
    },
    {
     "enum_field_value" : 15,
     "name" : "aidl::android::media::audio::common::AudioUsage::VIRTUAL_SOURCE"
    },
    {
     "enum_field_value" : 16,
     "name" : "aidl::android::media::audio::common::AudioUsage::ASSISTANT"
    },
    {
     "enum_field_value" : 17,
     "name" : "aidl::android::media::audio::common::AudioUsage::CALL_ASSISTANT"
    },
    {
     "enum_field_value" : 1000,
     "name" : "aidl::android::media::audio::common::AudioUsage::EMERGENCY"
    },
    {
     "enum_field_value" : 1001,
     "name" : "aidl::android::media::audio::common::AudioUsage::SAFETY"
    },
    {
     "enum_field_value" : 1002,
     "name" : "aidl::android::media::audio::common::AudioUsage::VEHICLE_STATUS"
    },
    {
     "enum_field_value" : 1003,
     "name" : "aidl::android::media::audio::common::AudioUsage::ANNOUNCEMENT"
    }
   ],
   "linker_set_key" : "_ZTIN4aidl7android5media5audio6common10AudioUsageE",
   "name" : "aidl::android::media::audio::common::AudioUsage",
   "referenced_type" : "_ZTIN4aidl7android5media5audio6common10AudioUsageE",
   "self_type" : "_ZTIN4aidl7android5media5audio6common10AudioUsageE",
   "size" : 4,
   "source_file" : "out/soong/.intermediates/frameworks/base/media/android.media.audio.common.types-V1-ndk-source/gen/include/aidl/android/media/audio/common/AudioUsage.h",
   "underlying_type" : "_ZTIi"
  },
  {
   "alignment" : 4,
   "enum_fields" :
   [
    {
     "enum_field_value" : -1,
     "name" : "aidl::android::media::audio::common::AudioSource::SYS_RESERVED_INVALID"
    },
    {
     "enum_field_value" : 0,
     "name" : "aidl::android::media::audio::common::AudioSource::DEFAULT"
    },
    {
     "enum_field_value" : 1,
     "name" : "aidl::android::media::audio::common::AudioSource::MIC"
    },
    {
     "enum_field_value" : 2,
     "name" : "aidl::android::media::audio::common::AudioSource::VOICE_UPLINK"
    },
    {
     "enum_field_value" : 3,
     "name" : "aidl::android::media::audio::common::AudioSource::VOICE_DOWNLINK"
    },
    {
     "enum_field_value" : 4,
     "name" : "aidl::android::media::audio::common::AudioSource::VOICE_CALL"
    },
    {
     "enum_field_value" : 5,
     "name" : "aidl::android::media::audio::common::AudioSource::CAMCORDER"
    },
    {
     "enum_field_value" : 6,
     "name" : "aidl::android::media::audio::common::AudioSource::VOICE_RECOGNITION"
    },
    {
     "enum_field_value" : 7,
     "name" : "aidl::android::media::audio::common::AudioSource::VOICE_COMMUNICATION"
    },
    {
     "enum_field_value" : 8,
     "name" : "aidl::android::media::audio::common::AudioSource::REMOTE_SUBMIX"
    },
    {
     "enum_field_value" : 9,
     "name" : "aidl::android::media::audio::common::AudioSource::UNPROCESSED"
    },
    {
     "enum_field_value" : 10,
     "name" : "aidl::android::media::audio::common::AudioSource::VOICE_PERFORMANCE"
    },
    {
     "enum_field_value" : 1997,
     "name" : "aidl::android::media::audio::common::AudioSource::ECHO_REFERENCE"
    },
    {
     "enum_field_value" : 1998,
     "name" : "aidl::android::media::audio::common::AudioSource::FM_TUNER"
    },
    {
     "enum_field_value" : 1999,
     "name" : "aidl::android::media::audio::common::AudioSource::HOTWORD"
    },
    {
     "enum_field_value" : 2000,
     "name" : "aidl::android::media::audio::common::AudioSource::ULTRASOUND"
    }
   ],
   "linker_set_key" : "_ZTIN4aidl7android5media5audio6common11AudioSourceE",
   "name" : "aidl::android::media::audio::common::AudioSource",
   "referenced_type" : "_ZTIN4aidl7android5media5audio6common11AudioSourceE",
   "self_type" : "_ZTIN4aidl7android5media5audio6common11AudioSourceE",
   "size" : 4,
   "source_file" : "out/soong/.intermediates/frameworks/base/media/android.media.audio.common.types-V1-ndk-source/gen/include/aidl/android/media/audio/common/AudioSource.h",
   "underlying_type" : "_ZTIi"
  },
  {
   "alignment" : 4,
   "enum_fields" :
   [
    {
     "enum_field_value" : 0,
     "name" : "aidl::android::media::audio::common::AudioDeviceType::NONE"
    },
    {
     "enum_field_value" : 1,
     "name" : "aidl::android::media::audio::common::AudioDeviceType::IN_DEFAULT"
    },
    {
     "enum_field_value" : 2,
     "name" : "aidl::android::media::audio::common::AudioDeviceType::IN_ACCESSORY"
    },
    {
     "enum_field_value" : 3,
     "name" : "aidl::android::media::audio::common::AudioDeviceType::IN_AFE_PROXY"
    },
    {
     "enum_field_value" : 4,
     "name" : "aidl::android::media::audio::common::AudioDeviceType::IN_DEVICE"
    },
    {
     "enum_field_value" : 5,
     "name" : "aidl::android::media::audio::common::AudioDeviceType::IN_ECHO_REFERENCE"
    },
    {
     "enum_field_value" : 6,
     "name" : "aidl::android::media::audio::common::AudioDeviceType::IN_FM_TUNER"
    },
    {
     "enum_field_value" : 7,
     "name" : "aidl::android::media::audio::common::AudioDeviceType::IN_HEADSET"
    },
    {
     "enum_field_value" : 8,
     "name" : "aidl::android::media::audio::common::AudioDeviceType::IN_LOOPBACK"
    },
    {
     "enum_field_value" : 9,
     "name" : "aidl::android::media::audio::common::AudioDeviceType::IN_MICROPHONE"
    },
    {
     "enum_field_value" : 10,
     "name" : "aidl::android::media::audio::common::AudioDeviceType::IN_MICROPHONE_BACK"
    },
    {
     "enum_field_value" : 11,
     "name" : "aidl::android::media::audio::common::AudioDeviceType::IN_SUBMIX"
    },
    {
     "enum_field_value" : 12,
     "name" : "aidl::android::media::audio::common::AudioDeviceType::IN_TELEPHONY_RX"
    },
    {
     "enum_field_value" : 13,
     "name" : "aidl::android::media::audio::common::AudioDeviceType::IN_TV_TUNER"
    },
    {
     "enum_field_value" : 14,
     "name" : "aidl::android::media::audio::common::AudioDeviceType::IN_DOCK"
    },
    {
     "enum_field_value" : 129,
     "name" : "aidl::android::media::audio::common::AudioDeviceType::OUT_DEFAULT"
    },
    {
     "enum_field_value" : 130,
     "name" : "aidl::android::media::audio::common::AudioDeviceType::OUT_ACCESSORY"
    },
    {
     "enum_field_value" : 131,
     "name" : "aidl::android::media::audio::common::AudioDeviceType::OUT_AFE_PROXY"
    },
    {
     "enum_field_value" : 132,
     "name" : "aidl::android::media::audio::common::AudioDeviceType::OUT_CARKIT"
    },
    {
     "enum_field_value" : 133,
     "name" : "aidl::android::media::audio::common::AudioDeviceType::OUT_DEVICE"
    },
    {
     "enum_field_value" : 134,
     "name" : "aidl::android::media::audio::common::AudioDeviceType::OUT_ECHO_CANCELLER"
    },
    {
     "enum_field_value" : 135,
     "name" : "aidl::android::media::audio::common::AudioDeviceType::OUT_FM"
    },
    {
     "enum_field_value" : 136,
     "name" : "aidl::android::media::audio::common::AudioDeviceType::OUT_HEADPHONE"
    },
    {
     "enum_field_value" : 137,
     "name" : "aidl::android::media::audio::common::AudioDeviceType::OUT_HEADSET"
    },
    {
     "enum_field_value" : 138,
     "name" : "aidl::android::media::audio::common::AudioDeviceType::OUT_HEARING_AID"
    },
    {
     "enum_field_value" : 139,
     "name" : "aidl::android::media::audio::common::AudioDeviceType::OUT_LINE_AUX"
    },
    {
     "enum_field_value" : 140,
     "name" : "aidl::android::media::audio::common::AudioDeviceType::OUT_SPEAKER"
    },
    {
     "enum_field_value" : 141,
     "name" : "aidl::android::media::audio::common::AudioDeviceType::OUT_SPEAKER_EARPIECE"
    },
    {
     "enum_field_value" : 142,
     "name" : "aidl::android::media::audio::common::AudioDeviceType::OUT_SPEAKER_SAFE"
    },
    {
     "enum_field_value" : 143,
     "name" : "aidl::android::media::audio::common::AudioDeviceType::OUT_SUBMIX"
    },
    {
     "enum_field_value" : 144,
     "name" : "aidl::android::media::audio::common::AudioDeviceType::OUT_TELEPHONY_TX"
    },
    {
     "enum_field_value" : 145,
     "name" : "aidl::android::media::audio::common::AudioDeviceType::OUT_DOCK"
    },
    {
     "enum_field_value" : 146,
     "name" : "aidl::android::media::audio::common::AudioDeviceType::OUT_BROADCAST"
    }
   ],
   "linker_set_key" : "_ZTIN4aidl7android5media5audio6common15AudioDeviceTypeE",
   "name" : "aidl::android::media::audio::common::AudioDeviceType",
   "referenced_type" : "_ZTIN4aidl7android5media5audio6common15AudioDeviceTypeE",
   "self_type" : "_ZTIN4aidl7android5media5audio6common15AudioDeviceTypeE",
   "size" : 4,
   "source_file" : "out/soong/.intermediates/frameworks/base/media/android.media.audio.common.types-V1-ndk-source/gen/include/aidl/android/media/audio/common/AudioDeviceType.h",
   "underlying_type" : "_ZTIi"
  },
  {
   "alignment" : 4,
   "enum_fields" :
   [
    {
     "enum_field_value" : 0,
     "name" : "aidl::android::media::audio::common::AudioContentType::UNKNOWN"
    },
    {
     "enum_field_value" : 1,
     "name" : "aidl::android::media::audio::common::AudioContentType::SPEECH"
    },
    {
     "enum_field_value" : 2,
     "name" : "aidl::android::media::audio::common::AudioContentType::MUSIC"
    },
    {
     "enum_field_value" : 3,
     "name" : "aidl::android::media::audio::common::AudioContentType::MOVIE"
    },
    {
     "enum_field_value" : 4,
     "name" : "aidl::android::media::audio::common::AudioContentType::SONIFICATION"
    },
    {
     "enum_field_value" : 1997,
     "name" : "aidl::android::media::audio::common::AudioContentType::ULTRASOUND"
    }
   ],
   "linker_set_key" : "_ZTIN4aidl7android5media5audio6common16AudioContentTypeE",
   "name" : "aidl::android::media::audio::common::AudioContentType",
   "referenced_type" : "_ZTIN4aidl7android5media5audio6common16AudioContentTypeE",
   "self_type" : "_ZTIN4aidl7android5media5audio6common16AudioContentTypeE",
   "size" : 4,
   "source_file" : "out/soong/.intermediates/frameworks/base/media/android.media.audio.common.types-V1-ndk-source/gen/include/aidl/android/media/audio/common/AudioContentType.h",
   "underlying_type" : "_ZTIi"
  },
  {
   "alignment" : 4,
   "enum_fields" :
   [
    {
     "enum_field_value" : 7,
     "name" : "aidl::android::media::audio::common::AudioChannelLayout::LAYOUT_TRI"
    }
   ],
   "linker_set_key" : "_ZTIN4aidl7android5media5audio6common18AudioChannelLayout11$LAYOUT_TRIE",
   "name" : "aidl::android::media::audio::common::AudioChannelLayout::(unnamed enum at out/soong/.intermediates/frameworks/base/media/android.media.audio.common.types-V1-ndk-source/gen/include/aidl/android/media/audio/common/AudioChannelLayout.h:145:3)",
   "referenced_type" : "_ZTIN4aidl7android5media5audio6common18AudioChannelLayout11$LAYOUT_TRIE",
   "self_type" : "_ZTIN4aidl7android5media5audio6common18AudioChannelLayout11$LAYOUT_TRIE",
   "size" : 4,
   "source_file" : "out/soong/.intermediates/frameworks/base/media/android.media.audio.common.types-V1-ndk-source/gen/include/aidl/android/media/audio/common/AudioChannelLayout.h",
   "underlying_type" : "_ZTIi"
  },
  {
   "alignment" : 4,
   "enum_fields" :
   [
    {
     "enum_field_value" : 1,
     "name" : "aidl::android::media::audio::common::AudioChannelLayout::LAYOUT_MONO"
    }
   ],
   "linker_set_key" : "_ZTIN4aidl7android5media5audio6common18AudioChannelLayout12$LAYOUT_MONOE",
   "name" : "aidl::android::media::audio::common::AudioChannelLayout::(unnamed enum at out/soong/.intermediates/frameworks/base/media/android.media.audio.common.types-V1-ndk-source/gen/include/aidl/android/media/audio/common/AudioChannelLayout.h:142:3)",
   "referenced_type" : "_ZTIN4aidl7android5media5audio6common18AudioChannelLayout12$LAYOUT_MONOE",
   "self_type" : "_ZTIN4aidl7android5media5audio6common18AudioChannelLayout12$LAYOUT_MONOE",
   "size" : 4,
   "source_file" : "out/soong/.intermediates/frameworks/base/media/android.media.audio.common.types-V1-ndk-source/gen/include/aidl/android/media/audio/common/AudioChannelLayout.h",
   "underlying_type" : "_ZTIi"
  },
  {
   "alignment" : 4,
   "enum_fields" :
   [
    {
     "enum_field_value" : 51,
     "name" : "aidl::android::media::audio::common::AudioChannelLayout::LAYOUT_QUAD"
    }
   ],
   "linker_set_key" : "_ZTIN4aidl7android5media5audio6common18AudioChannelLayout12$LAYOUT_QUADE",
   "name" : "aidl::android::media::audio::common::AudioChannelLayout::(unnamed enum at out/soong/.intermediates/frameworks/base/media/android.media.audio.common.types-V1-ndk-source/gen/include/aidl/android/media/audio/common/AudioChannelLayout.h:152:3)",
   "referenced_type" : "_ZTIN4aidl7android5media5audio6common18AudioChannelLayout12$LAYOUT_QUADE",
   "self_type" : "_ZTIN4aidl7android5media5audio6common18AudioChannelLayout12$LAYOUT_QUADE",
   "size" : 4,
   "source_file" : "out/soong/.intermediates/frameworks/base/media/android.media.audio.common.types-V1-ndk-source/gen/include/aidl/android/media/audio/common/AudioChannelLayout.h",
   "underlying_type" : "_ZTIi"
  },
  {
   "alignment" : 4,
   "enum_fields" :
   [
    {
     "enum_field_value" : 1,
     "name" : "aidl::android::media::audio::common::AudioChannelLayout::INDEX_MASK_1"
    }
   ],
   "linker_set_key" : "_ZTIN4aidl7android5media5audio6common18AudioChannelLayout13$INDEX_MASK_1E",
   "name" : "aidl::android::media::audio::common::AudioChannelLayout::(unnamed enum at out/soong/.intermediates/frameworks/base/media/android.media.audio.common.types-V1-ndk-source/gen/include/aidl/android/media/audio/common/AudioChannelLayout.h:118:3)",
   "referenced_type" : "_ZTIN4aidl7android5media5audio6common18AudioChannelLayout13$INDEX_MASK_1E",
   "self_type" : "_ZTIN4aidl7android5media5audio6common18AudioChannelLayout13$INDEX_MASK_1E",
   "size" : 4,
   "source_file" : "out/soong/.intermediates/frameworks/base/media/android.media.audio.common.types-V1-ndk-source/gen/include/aidl/android/media/audio/common/AudioChannelLayout.h",
   "underlying_type" : "_ZTIi"
  },
  {
   "alignment" : 4,
   "enum_fields" :
   [
    {
     "enum_field_value" : 3,
     "name" : "aidl::android::media::audio::common::AudioChannelLayout::INDEX_MASK_2"
    }
   ],
   "linker_set_key" : "_ZTIN4aidl7android5media5audio6common18AudioChannelLayout13$INDEX_MASK_2E",
   "name" : "aidl::android::media::audio::common::AudioChannelLayout::(unnamed enum at out/soong/.intermediates/frameworks/base/media/android.media.audio.common.types-V1-ndk-source/gen/include/aidl/android/media/audio/common/AudioChannelLayout.h:119:3)",
   "referenced_type" : "_ZTIN4aidl7android5media5audio6common18AudioChannelLayout13$INDEX_MASK_2E",
   "self_type" : "_ZTIN4aidl7android5media5audio6common18AudioChannelLayout13$INDEX_MASK_2E",
   "size" : 4,
   "source_file" : "out/soong/.intermediates/frameworks/base/media/android.media.audio.common.types-V1-ndk-source/gen/include/aidl/android/media/audio/common/AudioChannelLayout.h",
   "underlying_type" : "_ZTIi"
  },
  {
   "alignment" : 4,
   "enum_fields" :
   [
    {
     "enum_field_value" : 7,
     "name" : "aidl::android::media::audio::common::AudioChannelLayout::INDEX_MASK_3"
    }
   ],
   "linker_set_key" : "_ZTIN4aidl7android5media5audio6common18AudioChannelLayout13$INDEX_MASK_3E",
   "name" : "aidl::android::media::audio::common::AudioChannelLayout::(unnamed enum at out/soong/.intermediates/frameworks/base/media/android.media.audio.common.types-V1-ndk-source/gen/include/aidl/android/media/audio/common/AudioChannelLayout.h:120:3)",
   "referenced_type" : "_ZTIN4aidl7android5media5audio6common18AudioChannelLayout13$INDEX_MASK_3E",
   "self_type" : "_ZTIN4aidl7android5media5audio6common18AudioChannelLayout13$INDEX_MASK_3E",
   "size" : 4,
   "source_file" : "out/soong/.intermediates/frameworks/base/media/android.media.audio.common.types-V1-ndk-source/gen/include/aidl/android/media/audio/common/AudioChannelLayout.h",
   "underlying_type" : "_ZTIi"
  },
  {
   "alignment" : 4,
   "enum_fields" :
   [
    {
     "enum_field_value" : 15,
     "name" : "aidl::android::media::audio::common::AudioChannelLayout::INDEX_MASK_4"
    }
   ],
   "linker_set_key" : "_ZTIN4aidl7android5media5audio6common18AudioChannelLayout13$INDEX_MASK_4E",
   "name" : "aidl::android::media::audio::common::AudioChannelLayout::(unnamed enum at out/soong/.intermediates/frameworks/base/media/android.media.audio.common.types-V1-ndk-source/gen/include/aidl/android/media/audio/common/AudioChannelLayout.h:121:3)",
   "referenced_type" : "_ZTIN4aidl7android5media5audio6common18AudioChannelLayout13$INDEX_MASK_4E",
   "self_type" : "_ZTIN4aidl7android5media5audio6common18AudioChannelLayout13$INDEX_MASK_4E",
   "size" : 4,
   "source_file" : "out/soong/.intermediates/frameworks/base/media/android.media.audio.common.types-V1-ndk-source/gen/include/aidl/android/media/audio/common/AudioChannelLayout.h",
   "underlying_type" : "_ZTIi"
  },
  {
   "alignment" : 4,
   "enum_fields" :
   [
    {
     "enum_field_value" : 31,
     "name" : "aidl::android::media::audio::common::AudioChannelLayout::INDEX_MASK_5"
    }
   ],
   "linker_set_key" : "_ZTIN4aidl7android5media5audio6common18AudioChannelLayout13$INDEX_MASK_5E",
   "name" : "aidl::android::media::audio::common::AudioChannelLayout::(unnamed enum at out/soong/.intermediates/frameworks/base/media/android.media.audio.common.types-V1-ndk-source/gen/include/aidl/android/media/audio/common/AudioChannelLayout.h:122:3)",
   "referenced_type" : "_ZTIN4aidl7android5media5audio6common18AudioChannelLayout13$INDEX_MASK_5E",
   "self_type" : "_ZTIN4aidl7android5media5audio6common18AudioChannelLayout13$INDEX_MASK_5E",
   "size" : 4,
   "source_file" : "out/soong/.intermediates/frameworks/base/media/android.media.audio.common.types-V1-ndk-source/gen/include/aidl/android/media/audio/common/AudioChannelLayout.h",
   "underlying_type" : "_ZTIi"
  },
  {
   "alignment" : 4,
   "enum_fields" :
   [
    {
     "enum_field_value" : 63,
     "name" : "aidl::android::media::audio::common::AudioChannelLayout::INDEX_MASK_6"
    }
   ],
   "linker_set_key" : "_ZTIN4aidl7android5media5audio6common18AudioChannelLayout13$INDEX_MASK_6E",
   "name" : "aidl::android::media::audio::common::AudioChannelLayout::(unnamed enum at out/soong/.intermediates/frameworks/base/media/android.media.audio.common.types-V1-ndk-source/gen/include/aidl/android/media/audio/common/AudioChannelLayout.h:123:3)",
   "referenced_type" : "_ZTIN4aidl7android5media5audio6common18AudioChannelLayout13$INDEX_MASK_6E",
   "self_type" : "_ZTIN4aidl7android5media5audio6common18AudioChannelLayout13$INDEX_MASK_6E",
   "size" : 4,
   "source_file" : "out/soong/.intermediates/frameworks/base/media/android.media.audio.common.types-V1-ndk-source/gen/include/aidl/android/media/audio/common/AudioChannelLayout.h",
   "underlying_type" : "_ZTIi"
  },
  {
   "alignment" : 4,
   "enum_fields" :
   [
    {
     "enum_field_value" : 127,
     "name" : "aidl::android::media::audio::common::AudioChannelLayout::INDEX_MASK_7"
    }
   ],
   "linker_set_key" : "_ZTIN4aidl7android5media5audio6common18AudioChannelLayout13$INDEX_MASK_7E",
   "name" : "aidl::android::media::audio::common::AudioChannelLayout::(unnamed enum at out/soong/.intermediates/frameworks/base/media/android.media.audio.common.types-V1-ndk-source/gen/include/aidl/android/media/audio/common/AudioChannelLayout.h:124:3)",
   "referenced_type" : "_ZTIN4aidl7android5media5audio6common18AudioChannelLayout13$INDEX_MASK_7E",
   "self_type" : "_ZTIN4aidl7android5media5audio6common18AudioChannelLayout13$INDEX_MASK_7E",
   "size" : 4,
   "source_file" : "out/soong/.intermediates/frameworks/base/media/android.media.audio.common.types-V1-ndk-source/gen/include/aidl/android/media/audio/common/AudioChannelLayout.h",
   "underlying_type" : "_ZTIi"
  },
  {
   "alignment" : 4,
   "enum_fields" :
   [
    {
     "enum_field_value" : 255,
     "name" : "aidl::android::media::audio::common::AudioChannelLayout::INDEX_MASK_8"
    }
   ],
   "linker_set_key" : "_ZTIN4aidl7android5media5audio6common18AudioChannelLayout13$INDEX_MASK_8E",
   "name" : "aidl::android::media::audio::common::AudioChannelLayout::(unnamed enum at out/soong/.intermediates/frameworks/base/media/android.media.audio.common.types-V1-ndk-source/gen/include/aidl/android/media/audio/common/AudioChannelLayout.h:125:3)",
   "referenced_type" : "_ZTIN4aidl7android5media5audio6common18AudioChannelLayout13$INDEX_MASK_8E",
   "self_type" : "_ZTIN4aidl7android5media5audio6common18AudioChannelLayout13$INDEX_MASK_8E",
   "size" : 4,
   "source_file" : "out/soong/.intermediates/frameworks/base/media/android.media.audio.common.types-V1-ndk-source/gen/include/aidl/android/media/audio/common/AudioChannelLayout.h",
   "underlying_type" : "_ZTIi"
  },
  {
   "alignment" : 4,
   "enum_fields" :
   [
    {
     "enum_field_value" : 511,
     "name" : "aidl::android::media::audio::common::AudioChannelLayout::INDEX_MASK_9"
    }
   ],
   "linker_set_key" : "_ZTIN4aidl7android5media5audio6common18AudioChannelLayout13$INDEX_MASK_9E",
   "name" : "aidl::android::media::audio::common::AudioChannelLayout::(unnamed enum at out/soong/.intermediates/frameworks/base/media/android.media.audio.common.types-V1-ndk-source/gen/include/aidl/android/media/audio/common/AudioChannelLayout.h:126:3)",
   "referenced_type" : "_ZTIN4aidl7android5media5audio6common18AudioChannelLayout13$INDEX_MASK_9E",
   "self_type" : "_ZTIN4aidl7android5media5audio6common18AudioChannelLayout13$INDEX_MASK_9E",
   "size" : 4,
   "source_file" : "out/soong/.intermediates/frameworks/base/media/android.media.audio.common.types-V1-ndk-source/gen/include/aidl/android/media/audio/common/AudioChannelLayout.h",
   "underlying_type" : "_ZTIi"
  },
  {
   "alignment" : 4,
   "enum_fields" :
   [
    {
     "enum_field_value" : 55,
     "name" : "aidl::android::media::audio::common::AudioChannelLayout::LAYOUT_PENTA"
    }
   ],
   "linker_set_key" : "_ZTIN4aidl7android5media5audio6common18AudioChannelLayout13$LAYOUT_PENTAE",
   "name" : "aidl::android::media::audio::common::AudioChannelLayout::(unnamed enum at out/soong/.intermediates/frameworks/base/media/android.media.audio.common.types-V1-ndk-source/gen/include/aidl/android/media/audio/common/AudioChannelLayout.h:155:3)",
   "referenced_type" : "_ZTIN4aidl7android5media5audio6common18AudioChannelLayout13$LAYOUT_PENTAE",
   "self_type" : "_ZTIN4aidl7android5media5audio6common18AudioChannelLayout13$LAYOUT_PENTAE",
   "size" : 4,
   "source_file" : "out/soong/.intermediates/frameworks/base/media/android.media.audio.common.types-V1-ndk-source/gen/include/aidl/android/media/audio/common/AudioChannelLayout.h",
   "underlying_type" : "_ZTIi"
  },
  {
   "alignment" : 4,
   "enum_fields" :
   [
    {
     "enum_field_value" : 1023,
     "name" : "aidl::android::media::audio::common::AudioChannelLayout::INDEX_MASK_10"
    }
   ],
   "linker_set_key" : "_ZTIN4aidl7android5media5audio6common18AudioChannelLayout14$INDEX_MASK_10E",
   "name" : "aidl::android::media::audio::common::AudioChannelLayout::(unnamed enum at out/soong/.intermediates/frameworks/base/media/android.media.audio.common.types-V1-ndk-source/gen/include/aidl/android/media/audio/common/AudioChannelLayout.h:127:3)",
   "referenced_type" : "_ZTIN4aidl7android5media5audio6common18AudioChannelLayout14$INDEX_MASK_10E",
   "self_type" : "_ZTIN4aidl7android5media5audio6common18AudioChannelLayout14$INDEX_MASK_10E",
   "size" : 4,
   "source_file" : "out/soong/.intermediates/frameworks/base/media/android.media.audio.common.types-V1-ndk-source/gen/include/aidl/android/media/audio/common/AudioChannelLayout.h",
   "underlying_type" : "_ZTIi"
  },
  {
   "alignment" : 4,
   "enum_fields" :
   [
    {
     "enum_field_value" : 2047,
     "name" : "aidl::android::media::audio::common::AudioChannelLayout::INDEX_MASK_11"
    }
   ],
   "linker_set_key" : "_ZTIN4aidl7android5media5audio6common18AudioChannelLayout14$INDEX_MASK_11E",
   "name" : "aidl::android::media::audio::common::AudioChannelLayout::(unnamed enum at out/soong/.intermediates/frameworks/base/media/android.media.audio.common.types-V1-ndk-source/gen/include/aidl/android/media/audio/common/AudioChannelLayout.h:128:3)",
   "referenced_type" : "_ZTIN4aidl7android5media5audio6common18AudioChannelLayout14$INDEX_MASK_11E",
   "self_type" : "_ZTIN4aidl7android5media5audio6common18AudioChannelLayout14$INDEX_MASK_11E",
   "size" : 4,
   "source_file" : "out/soong/.intermediates/frameworks/base/media/android.media.audio.common.types-V1-ndk-source/gen/include/aidl/android/media/audio/common/AudioChannelLayout.h",
   "underlying_type" : "_ZTIi"
  },
  {
   "alignment" : 4,
   "enum_fields" :
   [
    {
     "enum_field_value" : 4095,
     "name" : "aidl::android::media::audio::common::AudioChannelLayout::INDEX_MASK_12"
    }
   ],
   "linker_set_key" : "_ZTIN4aidl7android5media5audio6common18AudioChannelLayout14$INDEX_MASK_12E",
   "name" : "aidl::android::media::audio::common::AudioChannelLayout::(unnamed enum at out/soong/.intermediates/frameworks/base/media/android.media.audio.common.types-V1-ndk-source/gen/include/aidl/android/media/audio/common/AudioChannelLayout.h:129:3)",
   "referenced_type" : "_ZTIN4aidl7android5media5audio6common18AudioChannelLayout14$INDEX_MASK_12E",
   "self_type" : "_ZTIN4aidl7android5media5audio6common18AudioChannelLayout14$INDEX_MASK_12E",
   "size" : 4,
   "source_file" : "out/soong/.intermediates/frameworks/base/media/android.media.audio.common.types-V1-ndk-source/gen/include/aidl/android/media/audio/common/AudioChannelLayout.h",
   "underlying_type" : "_ZTIi"
  },
  {
   "alignment" : 4,
   "enum_fields" :
   [
    {
     "enum_field_value" : 8191,
     "name" : "aidl::android::media::audio::common::AudioChannelLayout::INDEX_MASK_13"
    }
   ],
   "linker_set_key" : "_ZTIN4aidl7android5media5audio6common18AudioChannelLayout14$INDEX_MASK_13E",
   "name" : "aidl::android::media::audio::common::AudioChannelLayout::(unnamed enum at out/soong/.intermediates/frameworks/base/media/android.media.audio.common.types-V1-ndk-source/gen/include/aidl/android/media/audio/common/AudioChannelLayout.h:130:3)",
   "referenced_type" : "_ZTIN4aidl7android5media5audio6common18AudioChannelLayout14$INDEX_MASK_13E",
   "self_type" : "_ZTIN4aidl7android5media5audio6common18AudioChannelLayout14$INDEX_MASK_13E",
   "size" : 4,
   "source_file" : "out/soong/.intermediates/frameworks/base/media/android.media.audio.common.types-V1-ndk-source/gen/include/aidl/android/media/audio/common/AudioChannelLayout.h",
   "underlying_type" : "_ZTIi"
  },
  {
   "alignment" : 4,
   "enum_fields" :
   [
    {
     "enum_field_value" : 16383,
     "name" : "aidl::android::media::audio::common::AudioChannelLayout::INDEX_MASK_14"
    }
   ],
   "linker_set_key" : "_ZTIN4aidl7android5media5audio6common18AudioChannelLayout14$INDEX_MASK_14E",
   "name" : "aidl::android::media::audio::common::AudioChannelLayout::(unnamed enum at out/soong/.intermediates/frameworks/base/media/android.media.audio.common.types-V1-ndk-source/gen/include/aidl/android/media/audio/common/AudioChannelLayout.h:131:3)",
   "referenced_type" : "_ZTIN4aidl7android5media5audio6common18AudioChannelLayout14$INDEX_MASK_14E",
   "self_type" : "_ZTIN4aidl7android5media5audio6common18AudioChannelLayout14$INDEX_MASK_14E",
   "size" : 4,
   "source_file" : "out/soong/.intermediates/frameworks/base/media/android.media.audio.common.types-V1-ndk-source/gen/include/aidl/android/media/audio/common/AudioChannelLayout.h",
   "underlying_type" : "_ZTIi"
  },
  {
   "alignment" : 4,
   "enum_fields" :
   [
    {
     "enum_field_value" : 32767,
     "name" : "aidl::android::media::audio::common::AudioChannelLayout::INDEX_MASK_15"
    }
   ],
   "linker_set_key" : "_ZTIN4aidl7android5media5audio6common18AudioChannelLayout14$INDEX_MASK_15E",
   "name" : "aidl::android::media::audio::common::AudioChannelLayout::(unnamed enum at out/soong/.intermediates/frameworks/base/media/android.media.audio.common.types-V1-ndk-source/gen/include/aidl/android/media/audio/common/AudioChannelLayout.h:132:3)",
   "referenced_type" : "_ZTIN4aidl7android5media5audio6common18AudioChannelLayout14$INDEX_MASK_15E",
   "self_type" : "_ZTIN4aidl7android5media5audio6common18AudioChannelLayout14$INDEX_MASK_15E",
   "size" : 4,
   "source_file" : "out/soong/.intermediates/frameworks/base/media/android.media.audio.common.types-V1-ndk-source/gen/include/aidl/android/media/audio/common/AudioChannelLayout.h",
   "underlying_type" : "_ZTIi"
  },
  {
   "alignment" : 4,
   "enum_fields" :
   [
    {
     "enum_field_value" : 65535,
     "name" : "aidl::android::media::audio::common::AudioChannelLayout::INDEX_MASK_16"
    }
   ],
   "linker_set_key" : "_ZTIN4aidl7android5media5audio6common18AudioChannelLayout14$INDEX_MASK_16E",
   "name" : "aidl::android::media::audio::common::AudioChannelLayout::(unnamed enum at out/soong/.intermediates/frameworks/base/media/android.media.audio.common.types-V1-ndk-source/gen/include/aidl/android/media/audio/common/AudioChannelLayout.h:133:3)",
   "referenced_type" : "_ZTIN4aidl7android5media5audio6common18AudioChannelLayout14$INDEX_MASK_16E",
   "self_type" : "_ZTIN4aidl7android5media5audio6common18AudioChannelLayout14$INDEX_MASK_16E",
   "size" : 4,
   "source_file" : "out/soong/.intermediates/frameworks/base/media/android.media.audio.common.types-V1-ndk-source/gen/include/aidl/android/media/audio/common/AudioChannelLayout.h",
   "underlying_type" : "_ZTIi"
  },
  {
   "alignment" : 4,
   "enum_fields" :
   [
    {
     "enum_field_value" : 131071,
     "name" : "aidl::android::media::audio::common::AudioChannelLayout::INDEX_MASK_17"
    }
   ],
   "linker_set_key" : "_ZTIN4aidl7android5media5audio6common18AudioChannelLayout14$INDEX_MASK_17E",
   "name" : "aidl::android::media::audio::common::AudioChannelLayout::(unnamed enum at out/soong/.intermediates/frameworks/base/media/android.media.audio.common.types-V1-ndk-source/gen/include/aidl/android/media/audio/common/AudioChannelLayout.h:134:3)",
   "referenced_type" : "_ZTIN4aidl7android5media5audio6common18AudioChannelLayout14$INDEX_MASK_17E",
   "self_type" : "_ZTIN4aidl7android5media5audio6common18AudioChannelLayout14$INDEX_MASK_17E",
   "size" : 4,
   "source_file" : "out/soong/.intermediates/frameworks/base/media/android.media.audio.common.types-V1-ndk-source/gen/include/aidl/android/media/audio/common/AudioChannelLayout.h",
   "underlying_type" : "_ZTIi"
  },
  {
   "alignment" : 4,
   "enum_fields" :
   [
    {
     "enum_field_value" : 262143,
     "name" : "aidl::android::media::audio::common::AudioChannelLayout::INDEX_MASK_18"
    }
   ],
   "linker_set_key" : "_ZTIN4aidl7android5media5audio6common18AudioChannelLayout14$INDEX_MASK_18E",
   "name" : "aidl::android::media::audio::common::AudioChannelLayout::(unnamed enum at out/soong/.intermediates/frameworks/base/media/android.media.audio.common.types-V1-ndk-source/gen/include/aidl/android/media/audio/common/AudioChannelLayout.h:135:3)",
   "referenced_type" : "_ZTIN4aidl7android5media5audio6common18AudioChannelLayout14$INDEX_MASK_18E",
   "self_type" : "_ZTIN4aidl7android5media5audio6common18AudioChannelLayout14$INDEX_MASK_18E",
   "size" : 4,
   "source_file" : "out/soong/.intermediates/frameworks/base/media/android.media.audio.common.types-V1-ndk-source/gen/include/aidl/android/media/audio/common/AudioChannelLayout.h",
   "underlying_type" : "_ZTIi"
  },
  {
   "alignment" : 4,
   "enum_fields" :
   [
    {
     "enum_field_value" : 524287,
     "name" : "aidl::android::media::audio::common::AudioChannelLayout::INDEX_MASK_19"
    }
   ],
   "linker_set_key" : "_ZTIN4aidl7android5media5audio6common18AudioChannelLayout14$INDEX_MASK_19E",
   "name" : "aidl::android::media::audio::common::AudioChannelLayout::(unnamed enum at out/soong/.intermediates/frameworks/base/media/android.media.audio.common.types-V1-ndk-source/gen/include/aidl/android/media/audio/common/AudioChannelLayout.h:136:3)",
   "referenced_type" : "_ZTIN4aidl7android5media5audio6common18AudioChannelLayout14$INDEX_MASK_19E",
   "self_type" : "_ZTIN4aidl7android5media5audio6common18AudioChannelLayout14$INDEX_MASK_19E",
   "size" : 4,
   "source_file" : "out/soong/.intermediates/frameworks/base/media/android.media.audio.common.types-V1-ndk-source/gen/include/aidl/android/media/audio/common/AudioChannelLayout.h",
   "underlying_type" : "_ZTIi"
  },
  {
   "alignment" : 4,
   "enum_fields" :
   [
    {
     "enum_field_value" : 1048575,
     "name" : "aidl::android::media::audio::common::AudioChannelLayout::INDEX_MASK_20"
    }
   ],
   "linker_set_key" : "_ZTIN4aidl7android5media5audio6common18AudioChannelLayout14$INDEX_MASK_20E",
   "name" : "aidl::android::media::audio::common::AudioChannelLayout::(unnamed enum at out/soong/.intermediates/frameworks/base/media/android.media.audio.common.types-V1-ndk-source/gen/include/aidl/android/media/audio/common/AudioChannelLayout.h:137:3)",
   "referenced_type" : "_ZTIN4aidl7android5media5audio6common18AudioChannelLayout14$INDEX_MASK_20E",
   "self_type" : "_ZTIN4aidl7android5media5audio6common18AudioChannelLayout14$INDEX_MASK_20E",
   "size" : 4,
   "source_file" : "out/soong/.intermediates/frameworks/base/media/android.media.audio.common.types-V1-ndk-source/gen/include/aidl/android/media/audio/common/AudioChannelLayout.h",
   "underlying_type" : "_ZTIi"
  },
  {
   "alignment" : 4,
   "enum_fields" :
   [
    {
     "enum_field_value" : 2097151,
     "name" : "aidl::android::media::audio::common::AudioChannelLayout::INDEX_MASK_21"
    }
   ],
   "linker_set_key" : "_ZTIN4aidl7android5media5audio6common18AudioChannelLayout14$INDEX_MASK_21E",
   "name" : "aidl::android::media::audio::common::AudioChannelLayout::(unnamed enum at out/soong/.intermediates/frameworks/base/media/android.media.audio.common.types-V1-ndk-source/gen/include/aidl/android/media/audio/common/AudioChannelLayout.h:138:3)",
   "referenced_type" : "_ZTIN4aidl7android5media5audio6common18AudioChannelLayout14$INDEX_MASK_21E",
   "self_type" : "_ZTIN4aidl7android5media5audio6common18AudioChannelLayout14$INDEX_MASK_21E",
   "size" : 4,
   "source_file" : "out/soong/.intermediates/frameworks/base/media/android.media.audio.common.types-V1-ndk-source/gen/include/aidl/android/media/audio/common/AudioChannelLayout.h",
   "underlying_type" : "_ZTIi"
  },
  {
   "alignment" : 4,
   "enum_fields" :
   [
    {
     "enum_field_value" : 4194303,
     "name" : "aidl::android::media::audio::common::AudioChannelLayout::INDEX_MASK_22"
    }
   ],
   "linker_set_key" : "_ZTIN4aidl7android5media5audio6common18AudioChannelLayout14$INDEX_MASK_22E",
   "name" : "aidl::android::media::audio::common::AudioChannelLayout::(unnamed enum at out/soong/.intermediates/frameworks/base/media/android.media.audio.common.types-V1-ndk-source/gen/include/aidl/android/media/audio/common/AudioChannelLayout.h:139:3)",
   "referenced_type" : "_ZTIN4aidl7android5media5audio6common18AudioChannelLayout14$INDEX_MASK_22E",
   "self_type" : "_ZTIN4aidl7android5media5audio6common18AudioChannelLayout14$INDEX_MASK_22E",
   "size" : 4,
   "source_file" : "out/soong/.intermediates/frameworks/base/media/android.media.audio.common.types-V1-ndk-source/gen/include/aidl/android/media/audio/common/AudioChannelLayout.h",
   "underlying_type" : "_ZTIi"
  },
  {
   "alignment" : 4,
   "enum_fields" :
   [
    {
     "enum_field_value" : 8388607,
     "name" : "aidl::android::media::audio::common::AudioChannelLayout::INDEX_MASK_23"
    }
   ],
   "linker_set_key" : "_ZTIN4aidl7android5media5audio6common18AudioChannelLayout14$INDEX_MASK_23E",
   "name" : "aidl::android::media::audio::common::AudioChannelLayout::(unnamed enum at out/soong/.intermediates/frameworks/base/media/android.media.audio.common.types-V1-ndk-source/gen/include/aidl/android/media/audio/common/AudioChannelLayout.h:140:3)",
   "referenced_type" : "_ZTIN4aidl7android5media5audio6common18AudioChannelLayout14$INDEX_MASK_23E",
   "self_type" : "_ZTIN4aidl7android5media5audio6common18AudioChannelLayout14$INDEX_MASK_23E",
   "size" : 4,
   "source_file" : "out/soong/.intermediates/frameworks/base/media/android.media.audio.common.types-V1-ndk-source/gen/include/aidl/android/media/audio/common/AudioChannelLayout.h",
   "underlying_type" : "_ZTIi"
  },
  {
   "alignment" : 4,
   "enum_fields" :
   [
    {
     "enum_field_value" : 16777215,
     "name" : "aidl::android::media::audio::common::AudioChannelLayout::INDEX_MASK_24"
    }
   ],
   "linker_set_key" : "_ZTIN4aidl7android5media5audio6common18AudioChannelLayout14$INDEX_MASK_24E",
   "name" : "aidl::android::media::audio::common::AudioChannelLayout::(unnamed enum at out/soong/.intermediates/frameworks/base/media/android.media.audio.common.types-V1-ndk-source/gen/include/aidl/android/media/audio/common/AudioChannelLayout.h:141:3)",
   "referenced_type" : "_ZTIN4aidl7android5media5audio6common18AudioChannelLayout14$INDEX_MASK_24E",
   "self_type" : "_ZTIN4aidl7android5media5audio6common18AudioChannelLayout14$INDEX_MASK_24E",
   "size" : 4,
   "source_file" : "out/soong/.intermediates/frameworks/base/media/android.media.audio.common.types-V1-ndk-source/gen/include/aidl/android/media/audio/common/AudioChannelLayout.h",
   "underlying_type" : "_ZTIi"
  },
  {
   "alignment" : 4,
   "enum_fields" :
   [
    {
     "enum_field_value" : 3,
     "name" : "aidl::android::media::audio::common::AudioChannelLayout::LAYOUT_STEREO"
    }
   ],
   "linker_set_key" : "_ZTIN4aidl7android5media5audio6common18AudioChannelLayout14$LAYOUT_STEREOE",
   "name" : "aidl::android::media::audio::common::AudioChannelLayout::(unnamed enum at out/soong/.intermediates/frameworks/base/media/android.media.audio.common.types-V1-ndk-source/gen/include/aidl/android/media/audio/common/AudioChannelLayout.h:143:3)",
   "referenced_type" : "_ZTIN4aidl7android5media5audio6common18AudioChannelLayout14$LAYOUT_STEREOE",
   "self_type" : "_ZTIN4aidl7android5media5audio6common18AudioChannelLayout14$LAYOUT_STEREOE",
   "size" : 4,
   "source_file" : "out/soong/.intermediates/frameworks/base/media/android.media.audio.common.types-V1-ndk-source/gen/include/aidl/android/media/audio/common/AudioChannelLayout.h",
   "underlying_type" : "_ZTIi"
  },
  {
   "alignment" : 4,
   "enum_fields" :
   [
    {
     "enum_field_value" : 11,
     "name" : "aidl::android::media::audio::common::AudioChannelLayout::LAYOUT_2POINT1"
    }
   ],
   "linker_set_key" : "_ZTIN4aidl7android5media5audio6common18AudioChannelLayout15$LAYOUT_2POINT1E",
   "name" : "aidl::android::media::audio::common::AudioChannelLayout::(unnamed enum at out/soong/.intermediates/frameworks/base/media/android.media.audio.common.types-V1-ndk-source/gen/include/aidl/android/media/audio/common/AudioChannelLayout.h:144:3)",
   "referenced_type" : "_ZTIN4aidl7android5media5audio6common18AudioChannelLayout15$LAYOUT_2POINT1E",
   "self_type" : "_ZTIN4aidl7android5media5audio6common18AudioChannelLayout15$LAYOUT_2POINT1E",
   "size" : 4,
   "source_file" : "out/soong/.intermediates/frameworks/base/media/android.media.audio.common.types-V1-ndk-source/gen/include/aidl/android/media/audio/common/AudioChannelLayout.h",
   "underlying_type" : "_ZTIi"
  },
  {
   "alignment" : 4,
   "enum_fields" :
   [
    {
     "enum_field_value" : 15,
     "name" : "aidl::android::media::audio::common::AudioChannelLayout::LAYOUT_3POINT1"
    }
   ],
   "linker_set_key" : "_ZTIN4aidl7android5media5audio6common18AudioChannelLayout15$LAYOUT_3POINT1E",
   "name" : "aidl::android::media::audio::common::AudioChannelLayout::(unnamed enum at out/soong/.intermediates/frameworks/base/media/android.media.audio.common.types-V1-ndk-source/gen/include/aidl/android/media/audio/common/AudioChannelLayout.h:147:3)",
   "referenced_type" : "_ZTIN4aidl7android5media5audio6common18AudioChannelLayout15$LAYOUT_3POINT1E",
   "self_type" : "_ZTIN4aidl7android5media5audio6common18AudioChannelLayout15$LAYOUT_3POINT1E",
   "size" : 4,
   "source_file" : "out/soong/.intermediates/frameworks/base/media/android.media.audio.common.types-V1-ndk-source/gen/include/aidl/android/media/audio/common/AudioChannelLayout.h",
   "underlying_type" : "_ZTIi"
  },
  {
   "alignment" : 4,
   "enum_fields" :
   [
    {
     "enum_field_value" : 63,
     "name" : "aidl::android::media::audio::common::AudioChannelLayout::LAYOUT_5POINT1"
    }
   ],
   "linker_set_key" : "_ZTIN4aidl7android5media5audio6common18AudioChannelLayout15$LAYOUT_5POINT1E",
   "name" : "aidl::android::media::audio::common::AudioChannelLayout::(unnamed enum at out/soong/.intermediates/frameworks/base/media/android.media.audio.common.types-V1-ndk-source/gen/include/aidl/android/media/audio/common/AudioChannelLayout.h:156:3)",
   "referenced_type" : "_ZTIN4aidl7android5media5audio6common18AudioChannelLayout15$LAYOUT_5POINT1E",
   "self_type" : "_ZTIN4aidl7android5media5audio6common18AudioChannelLayout15$LAYOUT_5POINT1E",
   "size" : 4,
   "source_file" : "out/soong/.intermediates/frameworks/base/media/android.media.audio.common.types-V1-ndk-source/gen/include/aidl/android/media/audio/common/AudioChannelLayout.h",
   "underlying_type" : "_ZTIi"
  },
  {
   "alignment" : 4,
   "enum_fields" :
   [
    {
     "enum_field_value" : 319,
     "name" : "aidl::android::media::audio::common::AudioChannelLayout::LAYOUT_6POINT1"
    }
   ],
   "linker_set_key" : "_ZTIN4aidl7android5media5audio6common18AudioChannelLayout15$LAYOUT_6POINT1E",
   "name" : "aidl::android::media::audio::common::AudioChannelLayout::(unnamed enum at out/soong/.intermediates/frameworks/base/media/android.media.audio.common.types-V1-ndk-source/gen/include/aidl/android/media/audio/common/AudioChannelLayout.h:160:3)",
   "referenced_type" : "_ZTIN4aidl7android5media5audio6common18AudioChannelLayout15$LAYOUT_6POINT1E",
   "self_type" : "_ZTIN4aidl7android5media5audio6common18AudioChannelLayout15$LAYOUT_6POINT1E",
   "size" : 4,
   "source_file" : "out/soong/.intermediates/frameworks/base/media/android.media.audio.common.types-V1-ndk-source/gen/include/aidl/android/media/audio/common/AudioChannelLayout.h",
   "underlying_type" : "_ZTIi"
  },
  {
   "alignment" : 4,
   "enum_fields" :
   [
    {
     "enum_field_value" : 1599,
     "name" : "aidl::android::media::audio::common::AudioChannelLayout::LAYOUT_7POINT1"
    }
   ],
   "linker_set_key" : "_ZTIN4aidl7android5media5audio6common18AudioChannelLayout15$LAYOUT_7POINT1E",
   "name" : "aidl::android::media::audio::common::AudioChannelLayout::(unnamed enum at out/soong/.intermediates/frameworks/base/media/android.media.audio.common.types-V1-ndk-source/gen/include/aidl/android/media/audio/common/AudioChannelLayout.h:161:3)",
   "referenced_type" : "_ZTIN4aidl7android5media5audio6common18AudioChannelLayout15$LAYOUT_7POINT1E",
   "self_type" : "_ZTIN4aidl7android5media5audio6common18AudioChannelLayout15$LAYOUT_7POINT1E",
   "size" : 4,
   "source_file" : "out/soong/.intermediates/frameworks/base/media/android.media.audio.common.types-V1-ndk-source/gen/include/aidl/android/media/audio/common/AudioChannelLayout.h",
   "underlying_type" : "_ZTIi"
  },
  {
   "alignment" : 4,
   "enum_fields" :
   [
    {
     "enum_field_value" : 0,
     "name" : "aidl::android::media::audio::common::AudioChannelLayout::INTERLEAVE_LEFT"
    }
   ],
   "linker_set_key" : "_ZTIN4aidl7android5media5audio6common18AudioChannelLayout16$INTERLEAVE_LEFTE",
   "name" : "aidl::android::media::audio::common::AudioChannelLayout::(unnamed enum at out/soong/.intermediates/frameworks/base/media/android.media.audio.common.types-V1-ndk-source/gen/include/aidl/android/media/audio/common/AudioChannelLayout.h:174:3)",
   "referenced_type" : "_ZTIN4aidl7android5media5audio6common18AudioChannelLayout16$INTERLEAVE_LEFTE",
   "self_type" : "_ZTIN4aidl7android5media5audio6common18AudioChannelLayout16$INTERLEAVE_LEFTE",
   "size" : 4,
   "source_file" : "out/soong/.intermediates/frameworks/base/media/android.media.audio.common.types-V1-ndk-source/gen/include/aidl/android/media/audio/common/AudioChannelLayout.h",
   "underlying_type" : "_ZTIi"
  },
  {
   "alignment" : 4,
   "enum_fields" :
   [
    {
     "enum_field_value" : 16777215,
     "name" : "aidl::android::media::audio::common::AudioChannelLayout::LAYOUT_22POINT2"
    }
   ],
   "linker_set_key" : "_ZTIN4aidl7android5media5audio6common18AudioChannelLayout16$LAYOUT_22POINT2E",
   "name" : "aidl::android::media::audio::common::AudioChannelLayout::(unnamed enum at out/soong/.intermediates/frameworks/base/media/android.media.audio.common.types-V1-ndk-source/gen/include/aidl/android/media/audio/common/AudioChannelLayout.h:167:3)",
   "referenced_type" : "_ZTIN4aidl7android5media5audio6common18AudioChannelLayout16$LAYOUT_22POINT2E",
   "self_type" : "_ZTIN4aidl7android5media5audio6common18AudioChannelLayout16$LAYOUT_22POINT2E",
   "size" : 4,
   "source_file" : "out/soong/.intermediates/frameworks/base/media/android.media.audio.common.types-V1-ndk-source/gen/include/aidl/android/media/audio/common/AudioChannelLayout.h",
   "underlying_type" : "_ZTIi"
  },
  {
   "alignment" : 4,
   "enum_fields" :
   [
    {
     "enum_field_value" : 263,
     "name" : "aidl::android::media::audio::common::AudioChannelLayout::LAYOUT_SURROUND"
    }
   ],
   "linker_set_key" : "_ZTIN4aidl7android5media5audio6common18AudioChannelLayout16$LAYOUT_SURROUNDE",
   "name" : "aidl::android::media::audio::common::AudioChannelLayout::(unnamed enum at out/soong/.intermediates/frameworks/base/media/android.media.audio.common.types-V1-ndk-source/gen/include/aidl/android/media/audio/common/AudioChannelLayout.h:154:3)",
   "referenced_type" : "_ZTIN4aidl7android5media5audio6common18AudioChannelLayout16$LAYOUT_SURROUNDE",
   "self_type" : "_ZTIN4aidl7android5media5audio6common18AudioChannelLayout16$LAYOUT_SURROUNDE",
   "size" : 4,
   "source_file" : "out/soong/.intermediates/frameworks/base/media/android.media.audio.common.types-V1-ndk-source/gen/include/aidl/android/media/audio/common/AudioChannelLayout.h",
   "underlying_type" : "_ZTIi"
  },
  {
   "alignment" : 4,
   "enum_fields" :
   [
    {
     "enum_field_value" : 259,
     "name" : "aidl::android::media::audio::common::AudioChannelLayout::LAYOUT_TRI_BACK"
    }
   ],
   "linker_set_key" : "_ZTIN4aidl7android5media5audio6common18AudioChannelLayout16$LAYOUT_TRI_BACKE",
   "name" : "aidl::android::media::audio::common::AudioChannelLayout::(unnamed enum at out/soong/.intermediates/frameworks/base/media/android.media.audio.common.types-V1-ndk-source/gen/include/aidl/android/media/audio/common/AudioChannelLayout.h:146:3)",
   "referenced_type" : "_ZTIN4aidl7android5media5audio6common18AudioChannelLayout16$LAYOUT_TRI_BACKE",
   "self_type" : "_ZTIN4aidl7android5media5audio6common18AudioChannelLayout16$LAYOUT_TRI_BACKE",
   "size" : 4,
   "source_file" : "out/soong/.intermediates/frameworks/base/media/android.media.audio.common.types-V1-ndk-source/gen/include/aidl/android/media/audio/common/AudioChannelLayout.h",
   "underlying_type" : "_ZTIi"
  },
  {
   "alignment" : 4,
   "enum_fields" :
   [
    {
     "enum_field_value" : 49152,
     "name" : "aidl::android::media::audio::common::AudioChannelLayout::VOICE_CALL_MONO"
    }
   ],
   "linker_set_key" : "_ZTIN4aidl7android5media5audio6common18AudioChannelLayout16$VOICE_CALL_MONOE",
   "name" : "aidl::android::media::audio::common::AudioChannelLayout::(unnamed enum at out/soong/.intermediates/frameworks/base/media/android.media.audio.common.types-V1-ndk-source/gen/include/aidl/android/media/audio/common/AudioChannelLayout.h:206:3)",
   "referenced_type" : "_ZTIN4aidl7android5media5audio6common18AudioChannelLayout16$VOICE_CALL_MONOE",
   "self_type" : "_ZTIN4aidl7android5media5audio6common18AudioChannelLayout16$VOICE_CALL_MONOE",
   "size" : 4,
   "source_file" : "out/soong/.intermediates/frameworks/base/media/android.media.audio.common.types-V1-ndk-source/gen/include/aidl/android/media/audio/common/AudioChannelLayout.h",
   "underlying_type" : "_ZTIi"
  },
  {
   "alignment" : 4,
   "enum_fields" :
   [
    {
     "enum_field_value" : 1073741824,
     "name" : "aidl::android::media::audio::common::AudioChannelLayout::CHANNEL_HAPTIC_A"
    }
   ],
   "linker_set_key" : "_ZTIN4aidl7android5media5audio6common18AudioChannelLayout17$CHANNEL_HAPTIC_AE",
   "name" : "aidl::android::media::audio::common::AudioChannelLayout::(unnamed enum at out/soong/.intermediates/frameworks/base/media/android.media.audio.common.types-V1-ndk-source/gen/include/aidl/android/media/audio/common/AudioChannelLayout.h:203:3)",
   "referenced_type" : "_ZTIN4aidl7android5media5audio6common18AudioChannelLayout17$CHANNEL_HAPTIC_AE",
   "self_type" : "_ZTIN4aidl7android5media5audio6common18AudioChannelLayout17$CHANNEL_HAPTIC_AE",
   "size" : 4,
   "source_file" : "out/soong/.intermediates/frameworks/base/media/android.media.audio.common.types-V1-ndk-source/gen/include/aidl/android/media/audio/common/AudioChannelLayout.h",
   "underlying_type" : "_ZTIi"
  },
  {
   "alignment" : 4,
   "enum_fields" :
   [
    {
     "enum_field_value" : 536870912,
     "name" : "aidl::android::media::audio::common::AudioChannelLayout::CHANNEL_HAPTIC_B"
    }
   ],
   "linker_set_key" : "_ZTIN4aidl7android5media5audio6common18AudioChannelLayout17$CHANNEL_HAPTIC_BE",
   "name" : "aidl::android::media::audio::common::AudioChannelLayout::(unnamed enum at out/soong/.intermediates/frameworks/base/media/android.media.audio.common.types-V1-ndk-source/gen/include/aidl/android/media/audio/common/AudioChannelLayout.h:202:3)",
   "referenced_type" : "_ZTIN4aidl7android5media5audio6common18AudioChannelLayout17$CHANNEL_HAPTIC_BE",
   "self_type" : "_ZTIN4aidl7android5media5audio6common18AudioChannelLayout17$CHANNEL_HAPTIC_BE",
   "size" : 4,
   "source_file" : "out/soong/.intermediates/frameworks/base/media/android.media.audio.common.types-V1-ndk-source/gen/include/aidl/android/media/audio/common/AudioChannelLayout.h",
   "underlying_type" : "_ZTIi"
  },
  {
   "alignment" : 4,
   "enum_fields" :
   [
    {
     "enum_field_value" : 1,
     "name" : "aidl::android::media::audio::common::AudioChannelLayout::INTERLEAVE_RIGHT"
    }
   ],
   "linker_set_key" : "_ZTIN4aidl7android5media5audio6common18AudioChannelLayout17$INTERLEAVE_RIGHTE",
   "name" : "aidl::android::media::audio::common::AudioChannelLayout::(unnamed enum at out/soong/.intermediates/frameworks/base/media/android.media.audio.common.types-V1-ndk-source/gen/include/aidl/android/media/audio/common/AudioChannelLayout.h:175:3)",
   "referenced_type" : "_ZTIN4aidl7android5media5audio6common18AudioChannelLayout17$INTERLEAVE_RIGHTE",
   "self_type" : "_ZTIN4aidl7android5media5audio6common18AudioChannelLayout17$INTERLEAVE_RIGHTE",
   "size" : 4,
   "source_file" : "out/soong/.intermediates/frameworks/base/media/android.media.audio.common.types-V1-ndk-source/gen/include/aidl/android/media/audio/common/AudioChannelLayout.h",
   "underlying_type" : "_ZTIi"
  },
  {
   "alignment" : 4,
   "enum_fields" :
   [
    {
     "enum_field_value" : 1610612736,
     "name" : "aidl::android::media::audio::common::AudioChannelLayout::LAYOUT_HAPTIC_AB"
    }
   ],
   "linker_set_key" : "_ZTIN4aidl7android5media5audio6common18AudioChannelLayout17$LAYOUT_HAPTIC_ABE",
   "name" : "aidl::android::media::audio::common::AudioChannelLayout::(unnamed enum at out/soong/.intermediates/frameworks/base/media/android.media.audio.common.types-V1-ndk-source/gen/include/aidl/android/media/audio/common/AudioChannelLayout.h:170:3)",
   "referenced_type" : "_ZTIN4aidl7android5media5audio6common18AudioChannelLayout17$LAYOUT_HAPTIC_ABE",
   "self_type" : "_ZTIN4aidl7android5media5audio6common18AudioChannelLayout17$LAYOUT_HAPTIC_ABE",
   "size" : 4,
   "source_file" : "out/soong/.intermediates/frameworks/base/media/android.media.audio.common.types-V1-ndk-source/gen/include/aidl/android/media/audio/common/AudioChannelLayout.h",
   "underlying_type" : "_ZTIi"
  },
  {
   "alignment" : 4,
   "enum_fields" :
   [
    {
     "enum_field_value" : 1539,
     "name" : "aidl::android::media::audio::common::AudioChannelLayout::LAYOUT_QUAD_SIDE"
    }
   ],
   "linker_set_key" : "_ZTIN4aidl7android5media5audio6common18AudioChannelLayout17$LAYOUT_QUAD_SIDEE",
   "name" : "aidl::android::media::audio::common::AudioChannelLayout::(unnamed enum at out/soong/.intermediates/frameworks/base/media/android.media.audio.common.types-V1-ndk-source/gen/include/aidl/android/media/audio/common/AudioChannelLayout.h:153:3)",
   "referenced_type" : "_ZTIN4aidl7android5media5audio6common18AudioChannelLayout17$LAYOUT_QUAD_SIDEE",
   "self_type" : "_ZTIN4aidl7android5media5audio6common18AudioChannelLayout17$LAYOUT_QUAD_SIDEE",
   "size" : 4,
   "source_file" : "out/soong/.intermediates/frameworks/base/media/android.media.audio.common.types-V1-ndk-source/gen/include/aidl/android/media/audio/common/AudioChannelLayout.h",
   "underlying_type" : "_ZTIi"
  },
  {
   "alignment" : 4,
   "enum_fields" :
   [
    {
     "enum_field_value" : 16,
     "name" : "aidl::android::media::audio::common::AudioChannelLayout::CHANNEL_BACK_LEFT"
    }
   ],
   "linker_set_key" : "_ZTIN4aidl7android5media5audio6common18AudioChannelLayout18$CHANNEL_BACK_LEFTE",
   "name" : "aidl::android::media::audio::common::AudioChannelLayout::(unnamed enum at out/soong/.intermediates/frameworks/base/media/android.media.audio.common.types-V1-ndk-source/gen/include/aidl/android/media/audio/common/AudioChannelLayout.h:180:3)",
   "referenced_type" : "_ZTIN4aidl7android5media5audio6common18AudioChannelLayout18$CHANNEL_BACK_LEFTE",
   "self_type" : "_ZTIN4aidl7android5media5audio6common18AudioChannelLayout18$CHANNEL_BACK_LEFTE",
   "size" : 4,
   "source_file" : "out/soong/.intermediates/frameworks/base/media/android.media.audio.common.types-V1-ndk-source/gen/include/aidl/android/media/audio/common/AudioChannelLayout.h",
   "underlying_type" : "_ZTIi"
  },
  {
   "alignment" : 4,
   "enum_fields" :
   [
    {
     "enum_field_value" : 512,
     "name" : "aidl::android::media::audio::common::AudioChannelLayout::CHANNEL_SIDE_LEFT"
    }
   ],
   "linker_set_key" : "_ZTIN4aidl7android5media5audio6common18AudioChannelLayout18$CHANNEL_SIDE_LEFTE",
   "name" : "aidl::android::media::audio::common::AudioChannelLayout::(unnamed enum at out/soong/.intermediates/frameworks/base/media/android.media.audio.common.types-V1-ndk-source/gen/include/aidl/android/media/audio/common/AudioChannelLayout.h:185:3)",
   "referenced_type" : "_ZTIN4aidl7android5media5audio6common18AudioChannelLayout18$CHANNEL_SIDE_LEFTE",
   "self_type" : "_ZTIN4aidl7android5media5audio6common18AudioChannelLayout18$CHANNEL_SIDE_LEFTE",
   "size" : 4,
   "source_file" : "out/soong/.intermediates/frameworks/base/media/android.media.audio.common.types-V1-ndk-source/gen/include/aidl/android/media/audio/common/AudioChannelLayout.h",
   "underlying_type" : "_ZTIi"
  },
  {
   "alignment" : 4,
   "enum_fields" :
   [
    {
     "enum_field_value" : 260,
     "name" : "aidl::android::media::audio::common::AudioChannelLayout::LAYOUT_FRONT_BACK"
    }
   ],
   "linker_set_key" : "_ZTIN4aidl7android5media5audio6common18AudioChannelLayout18$LAYOUT_FRONT_BACKE",
   "name" : "aidl::android::media::audio::common::AudioChannelLayout::(unnamed enum at out/soong/.intermediates/frameworks/base/media/android.media.audio.common.types-V1-ndk-source/gen/include/aidl/android/media/audio/common/AudioChannelLayout.h:173:3)",
   "referenced_type" : "_ZTIN4aidl7android5media5audio6common18AudioChannelLayout18$LAYOUT_FRONT_BACKE",
   "self_type" : "_ZTIN4aidl7android5media5audio6common18AudioChannelLayout18$LAYOUT_FRONT_BACKE",
   "size" : 4,
   "source_file" : "out/soong/.intermediates/frameworks/base/media/android.media.audio.common.types-V1-ndk-source/gen/include/aidl/android/media/audio/common/AudioChannelLayout.h",
   "underlying_type" : "_ZTIi"
  },
  {
   "alignment" : 4,
   "enum_fields" :
   [
    {
     "enum_field_value" : 32768,
     "name" : "aidl::android::media::audio::common::AudioChannelLayout::VOICE_DNLINK_MONO"
    }
   ],
   "linker_set_key" : "_ZTIN4aidl7android5media5audio6common18AudioChannelLayout18$VOICE_DNLINK_MONOE",
   "name" : "aidl::android::media::audio::common::AudioChannelLayout::(unnamed enum at out/soong/.intermediates/frameworks/base/media/android.media.audio.common.types-V1-ndk-source/gen/include/aidl/android/media/audio/common/AudioChannelLayout.h:205:3)",
   "referenced_type" : "_ZTIN4aidl7android5media5audio6common18AudioChannelLayout18$VOICE_DNLINK_MONOE",
   "self_type" : "_ZTIN4aidl7android5media5audio6common18AudioChannelLayout18$VOICE_DNLINK_MONOE",
   "size" : 4,
   "source_file" : "out/soong/.intermediates/frameworks/base/media/android.media.audio.common.types-V1-ndk-source/gen/include/aidl/android/media/audio/common/AudioChannelLayout.h",
   "underlying_type" : "_ZTIi"
  },
  {
   "alignment" : 4,
   "enum_fields" :
   [
    {
     "enum_field_value" : 16384,
     "name" : "aidl::android::media::audio::common::AudioChannelLayout::VOICE_UPLINK_MONO"
    }
   ],
   "linker_set_key" : "_ZTIN4aidl7android5media5audio6common18AudioChannelLayout18$VOICE_UPLINK_MONOE",
   "name" : "aidl::android::media::audio::common::AudioChannelLayout::(unnamed enum at out/soong/.intermediates/frameworks/base/media/android.media.audio.common.types-V1-ndk-source/gen/include/aidl/android/media/audio/common/AudioChannelLayout.h:204:3)",
   "referenced_type" : "_ZTIN4aidl7android5media5audio6common18AudioChannelLayout18$VOICE_UPLINK_MONOE",
   "self_type" : "_ZTIN4aidl7android5media5audio6common18AudioChannelLayout18$VOICE_UPLINK_MONOE",
   "size" : 4,
   "source_file" : "out/soong/.intermediates/frameworks/base/media/android.media.audio.common.types-V1-ndk-source/gen/include/aidl/android/media/audio/common/AudioChannelLayout.h",
   "underlying_type" : "_ZTIi"
  },
  {
   "alignment" : 4,
   "enum_fields" :
   [
    {
     "enum_field_value" : 32,
     "name" : "aidl::android::media::audio::common::AudioChannelLayout::CHANNEL_BACK_RIGHT"
    }
   ],
   "linker_set_key" : "_ZTIN4aidl7android5media5audio6common18AudioChannelLayout19$CHANNEL_BACK_RIGHTE",
   "name" : "aidl::android::media::audio::common::AudioChannelLayout::(unnamed enum at out/soong/.intermediates/frameworks/base/media/android.media.audio.common.types-V1-ndk-source/gen/include/aidl/android/media/audio/common/AudioChannelLayout.h:181:3)",
   "referenced_type" : "_ZTIN4aidl7android5media5audio6common18AudioChannelLayout19$CHANNEL_BACK_RIGHTE",
   "self_type" : "_ZTIN4aidl7android5media5audio6common18AudioChannelLayout19$CHANNEL_BACK_RIGHTE",
   "size" : 4,
   "source_file" : "out/soong/.intermediates/frameworks/base/media/android.media.audio.common.types-V1-ndk-source/gen/include/aidl/android/media/audio/common/AudioChannelLayout.h",
   "underlying_type" : "_ZTIi"
  },
  {
   "alignment" : 4,
   "enum_fields" :
   [
    {
     "enum_field_value" : 1,
     "name" : "aidl::android::media::audio::common::AudioChannelLayout::CHANNEL_FRONT_LEFT"
    }
   ],
   "linker_set_key" : "_ZTIN4aidl7android5media5audio6common18AudioChannelLayout19$CHANNEL_FRONT_LEFTE",
   "name" : "aidl::android::media::audio::common::AudioChannelLayout::(unnamed enum at out/soong/.intermediates/frameworks/base/media/android.media.audio.common.types-V1-ndk-source/gen/include/aidl/android/media/audio/common/AudioChannelLayout.h:176:3)",
   "referenced_type" : "_ZTIN4aidl7android5media5audio6common18AudioChannelLayout19$CHANNEL_FRONT_LEFTE",
   "self_type" : "_ZTIN4aidl7android5media5audio6common18AudioChannelLayout19$CHANNEL_FRONT_LEFTE",
   "size" : 4,
   "source_file" : "out/soong/.intermediates/frameworks/base/media/android.media.audio.common.types-V1-ndk-source/gen/include/aidl/android/media/audio/common/AudioChannelLayout.h",
   "underlying_type" : "_ZTIi"
  },
  {
   "alignment" : 4,
   "enum_fields" :
   [
    {
     "enum_field_value" : 1024,
     "name" : "aidl::android::media::audio::common::AudioChannelLayout::CHANNEL_SIDE_RIGHT"
    }
   ],
   "linker_set_key" : "_ZTIN4aidl7android5media5audio6common18AudioChannelLayout19$CHANNEL_SIDE_RIGHTE",
   "name" : "aidl::android::media::audio::common::AudioChannelLayout::(unnamed enum at out/soong/.intermediates/frameworks/base/media/android.media.audio.common.types-V1-ndk-source/gen/include/aidl/android/media/audio/common/AudioChannelLayout.h:186:3)",
   "referenced_type" : "_ZTIN4aidl7android5media5audio6common18AudioChannelLayout19$CHANNEL_SIDE_RIGHTE",
   "self_type" : "_ZTIN4aidl7android5media5audio6common18AudioChannelLayout19$CHANNEL_SIDE_RIGHTE",
   "size" : 4,
   "source_file" : "out/soong/.intermediates/frameworks/base/media/android.media.audio.common.types-V1-ndk-source/gen/include/aidl/android/media/audio/common/AudioChannelLayout.h",
   "underlying_type" : "_ZTIi"
  },
  {
   "alignment" : 4,
   "enum_fields" :
   [
    {
     "enum_field_value" : 2048,
     "name" : "aidl::android::media::audio::common::AudioChannelLayout::CHANNEL_TOP_CENTER"
    }
   ],
   "linker_set_key" : "_ZTIN4aidl7android5media5audio6common18AudioChannelLayout19$CHANNEL_TOP_CENTERE",
   "name" : "aidl::android::media::audio::common::AudioChannelLayout::(unnamed enum at out/soong/.intermediates/frameworks/base/media/android.media.audio.common.types-V1-ndk-source/gen/include/aidl/android/media/audio/common/AudioChannelLayout.h:187:3)",
   "referenced_type" : "_ZTIN4aidl7android5media5audio6common18AudioChannelLayout19$CHANNEL_TOP_CENTERE",
   "self_type" : "_ZTIN4aidl7android5media5audio6common18AudioChannelLayout19$CHANNEL_TOP_CENTERE",
   "size" : 4,
   "source_file" : "out/soong/.intermediates/frameworks/base/media/android.media.audio.common.types-V1-ndk-source/gen/include/aidl/android/media/audio/common/AudioChannelLayout.h",
   "underlying_type" : "_ZTIi"
  },
  {
   "alignment" : 4,
   "enum_fields" :
   [
    {
     "enum_field_value" : 256,
     "name" : "aidl::android::media::audio::common::AudioChannelLayout::CHANNEL_BACK_CENTER"
    }
   ],
   "linker_set_key" : "_ZTIN4aidl7android5media5audio6common18AudioChannelLayout20$CHANNEL_BACK_CENTERE",
   "name" : "aidl::android::media::audio::common::AudioChannelLayout::(unnamed enum at out/soong/.intermediates/frameworks/base/media/android.media.audio.common.types-V1-ndk-source/gen/include/aidl/android/media/audio/common/AudioChannelLayout.h:184:3)",
   "referenced_type" : "_ZTIN4aidl7android5media5audio6common18AudioChannelLayout20$CHANNEL_BACK_CENTERE",
   "self_type" : "_ZTIN4aidl7android5media5audio6common18AudioChannelLayout20$CHANNEL_BACK_CENTERE",
   "size" : 4,
   "source_file" : "out/soong/.intermediates/frameworks/base/media/android.media.audio.common.types-V1-ndk-source/gen/include/aidl/android/media/audio/common/AudioChannelLayout.h",
   "underlying_type" : "_ZTIi"
  },
  {
   "alignment" : 4,
   "enum_fields" :
   [
    {
     "enum_field_value" : 2,
     "name" : "aidl::android::media::audio::common::AudioChannelLayout::CHANNEL_FRONT_RIGHT"
    }
   ],
   "linker_set_key" : "_ZTIN4aidl7android5media5audio6common18AudioChannelLayout20$CHANNEL_FRONT_RIGHTE",
   "name" : "aidl::android::media::audio::common::AudioChannelLayout::(unnamed enum at out/soong/.intermediates/frameworks/base/media/android.media.audio.common.types-V1-ndk-source/gen/include/aidl/android/media/audio/common/AudioChannelLayout.h:177:3)",
   "referenced_type" : "_ZTIN4aidl7android5media5audio6common18AudioChannelLayout20$CHANNEL_FRONT_RIGHTE",
   "self_type" : "_ZTIN4aidl7android5media5audio6common18AudioChannelLayout20$CHANNEL_FRONT_RIGHTE",
   "size" : 4,
   "source_file" : "out/soong/.intermediates/frameworks/base/media/android.media.audio.common.types-V1-ndk-source/gen/include/aidl/android/media/audio/common/AudioChannelLayout.h",
   "underlying_type" : "_ZTIi"
  },
  {
   "alignment" : 4,
   "enum_fields" :
   [
    {
     "enum_field_value" : 1551,
     "name" : "aidl::android::media::audio::common::AudioChannelLayout::LAYOUT_5POINT1_SIDE"
    }
   ],
   "linker_set_key" : "_ZTIN4aidl7android5media5audio6common18AudioChannelLayout20$LAYOUT_5POINT1_SIDEE",
   "name" : "aidl::android::media::audio::common::AudioChannelLayout::(unnamed enum at out/soong/.intermediates/frameworks/base/media/android.media.audio.common.types-V1-ndk-source/gen/include/aidl/android/media/audio/common/AudioChannelLayout.h:157:3)",
   "referenced_type" : "_ZTIN4aidl7android5media5audio6common18AudioChannelLayout20$LAYOUT_5POINT1_SIDEE",
   "self_type" : "_ZTIN4aidl7android5media5audio6common18AudioChannelLayout20$LAYOUT_5POINT1_SIDEE",
   "size" : 4,
   "source_file" : "out/soong/.intermediates/frameworks/base/media/android.media.audio.common.types-V1-ndk-source/gen/include/aidl/android/media/audio/common/AudioChannelLayout.h",
   "underlying_type" : "_ZTIi"
  },
  {
   "alignment" : 4,
   "enum_fields" :
   [
    {
     "enum_field_value" : 4,
     "name" : "aidl::android::media::audio::common::AudioChannelLayout::CHANNEL_FRONT_CENTER"
    }
   ],
   "linker_set_key" : "_ZTIN4aidl7android5media5audio6common18AudioChannelLayout21$CHANNEL_FRONT_CENTERE",
   "name" : "aidl::android::media::audio::common::AudioChannelLayout::(unnamed enum at out/soong/.intermediates/frameworks/base/media/android.media.audio.common.types-V1-ndk-source/gen/include/aidl/android/media/audio/common/AudioChannelLayout.h:178:3)",
   "referenced_type" : "_ZTIN4aidl7android5media5audio6common18AudioChannelLayout21$CHANNEL_FRONT_CENTERE",
   "self_type" : "_ZTIN4aidl7android5media5audio6common18AudioChannelLayout21$CHANNEL_FRONT_CENTERE",
   "size" : 4,
   "source_file" : "out/soong/.intermediates/frameworks/base/media/android.media.audio.common.types-V1-ndk-source/gen/include/aidl/android/media/audio/common/AudioChannelLayout.h",
   "underlying_type" : "_ZTIi"
  },
  {
   "alignment" : 4,
   "enum_fields" :
   [
    {
     "enum_field_value" : 32768,
     "name" : "aidl::android::media::audio::common::AudioChannelLayout::CHANNEL_VOICE_DNLINK"
    }
   ],
   "linker_set_key" : "_ZTIN4aidl7android5media5audio6common18AudioChannelLayout21$CHANNEL_VOICE_DNLINKE",
   "name" : "aidl::android::media::audio::common::AudioChannelLayout::(unnamed enum at out/soong/.intermediates/frameworks/base/media/android.media.audio.common.types-V1-ndk-source/gen/include/aidl/android/media/audio/common/AudioChannelLayout.h:208:3)",
   "referenced_type" : "_ZTIN4aidl7android5media5audio6common18AudioChannelLayout21$CHANNEL_VOICE_DNLINKE",
   "self_type" : "_ZTIN4aidl7android5media5audio6common18AudioChannelLayout21$CHANNEL_VOICE_DNLINKE",
   "size" : 4,
   "source_file" : "out/soong/.intermediates/frameworks/base/media/android.media.audio.common.types-V1-ndk-source/gen/include/aidl/android/media/audio/common/AudioChannelLayout.h",
   "underlying_type" : "_ZTIi"
  },
  {
   "alignment" : 4,
   "enum_fields" :
   [
    {
     "enum_field_value" : 16384,
     "name" : "aidl::android::media::audio::common::AudioChannelLayout::CHANNEL_VOICE_UPLINK"
    }
   ],
   "linker_set_key" : "_ZTIN4aidl7android5media5audio6common18AudioChannelLayout21$CHANNEL_VOICE_UPLINKE",
   "name" : "aidl::android::media::audio::common::AudioChannelLayout::(unnamed enum at out/soong/.intermediates/frameworks/base/media/android.media.audio.common.types-V1-ndk-source/gen/include/aidl/android/media/audio/common/AudioChannelLayout.h:207:3)",
   "referenced_type" : "_ZTIN4aidl7android5media5audio6common18AudioChannelLayout21$CHANNEL_VOICE_UPLINKE",
   "self_type" : "_ZTIN4aidl7android5media5audio6common18AudioChannelLayout21$CHANNEL_VOICE_UPLINKE",
   "size" : 4,
   "source_file" : "out/soong/.intermediates/frameworks/base/media/android.media.audio.common.types-V1-ndk-source/gen/include/aidl/android/media/audio/common/AudioChannelLayout.h",
   "underlying_type" : "_ZTIi"
  },
  {
   "alignment" : 4,
   "enum_fields" :
   [
    {
     "enum_field_value" : 7534087,
     "name" : "aidl::android::media::audio::common::AudioChannelLayout::LAYOUT_13POINT_360RA"
    }
   ],
   "linker_set_key" : "_ZTIN4aidl7android5media5audio6common18AudioChannelLayout21$LAYOUT_13POINT_360RAE",
   "name" : "aidl::android::media::audio::common::AudioChannelLayout::(unnamed enum at out/soong/.intermediates/frameworks/base/media/android.media.audio.common.types-V1-ndk-source/gen/include/aidl/android/media/audio/common/AudioChannelLayout.h:166:3)",
   "referenced_type" : "_ZTIN4aidl7android5media5audio6common18AudioChannelLayout21$LAYOUT_13POINT_360RAE",
   "self_type" : "_ZTIN4aidl7android5media5audio6common18AudioChannelLayout21$LAYOUT_13POINT_360RAE",
   "size" : 4,
   "source_file" : "out/soong/.intermediates/frameworks/base/media/android.media.audio.common.types-V1-ndk-source/gen/include/aidl/android/media/audio/common/AudioChannelLayout.h",
   "underlying_type" : "_ZTIi"
  },
  {
   "alignment" : 4,
   "enum_fields" :
   [
    {
     "enum_field_value" : 786435,
     "name" : "aidl::android::media::audio::common::AudioChannelLayout::LAYOUT_2POINT0POINT2"
    }
   ],
   "linker_set_key" : "_ZTIN4aidl7android5media5audio6common18AudioChannelLayout21$LAYOUT_2POINT0POINT2E",
   "name" : "aidl::android::media::audio::common::AudioChannelLayout::(unnamed enum at out/soong/.intermediates/frameworks/base/media/android.media.audio.common.types-V1-ndk-source/gen/include/aidl/android/media/audio/common/AudioChannelLayout.h:148:3)",
   "referenced_type" : "_ZTIN4aidl7android5media5audio6common18AudioChannelLayout21$LAYOUT_2POINT0POINT2E",
   "self_type" : "_ZTIN4aidl7android5media5audio6common18AudioChannelLayout21$LAYOUT_2POINT0POINT2E",
   "size" : 4,
   "source_file" : "out/soong/.intermediates/frameworks/base/media/android.media.audio.common.types-V1-ndk-source/gen/include/aidl/android/media/audio/common/AudioChannelLayout.h",
   "underlying_type" : "_ZTIi"
  },
  {
   "alignment" : 4,
   "enum_fields" :
   [
    {
     "enum_field_value" : 786443,
     "name" : "aidl::android::media::audio::common::AudioChannelLayout::LAYOUT_2POINT1POINT2"
    }
   ],
   "linker_set_key" : "_ZTIN4aidl7android5media5audio6common18AudioChannelLayout21$LAYOUT_2POINT1POINT2E",
   "name" : "aidl::android::media::audio::common::AudioChannelLayout::(unnamed enum at out/soong/.intermediates/frameworks/base/media/android.media.audio.common.types-V1-ndk-source/gen/include/aidl/android/media/audio/common/AudioChannelLayout.h:149:3)",
   "referenced_type" : "_ZTIN4aidl7android5media5audio6common18AudioChannelLayout21$LAYOUT_2POINT1POINT2E",
   "self_type" : "_ZTIN4aidl7android5media5audio6common18AudioChannelLayout21$LAYOUT_2POINT1POINT2E",
   "size" : 4,
   "source_file" : "out/soong/.intermediates/frameworks/base/media/android.media.audio.common.types-V1-ndk-source/gen/include/aidl/android/media/audio/common/AudioChannelLayout.h",
   "underlying_type" : "_ZTIi"
  },
  {
   "alignment" : 4,
   "enum_fields" :
   [
    {
     "enum_field_value" : 786439,
     "name" : "aidl::android::media::audio::common::AudioChannelLayout::LAYOUT_3POINT0POINT2"
    }
   ],
   "linker_set_key" : "_ZTIN4aidl7android5media5audio6common18AudioChannelLayout21$LAYOUT_3POINT0POINT2E",
   "name" : "aidl::android::media::audio::common::AudioChannelLayout::(unnamed enum at out/soong/.intermediates/frameworks/base/media/android.media.audio.common.types-V1-ndk-source/gen/include/aidl/android/media/audio/common/AudioChannelLayout.h:150:3)",
   "referenced_type" : "_ZTIN4aidl7android5media5audio6common18AudioChannelLayout21$LAYOUT_3POINT0POINT2E",
   "self_type" : "_ZTIN4aidl7android5media5audio6common18AudioChannelLayout21$LAYOUT_3POINT0POINT2E",
   "size" : 4,
   "source_file" : "out/soong/.intermediates/frameworks/base/media/android.media.audio.common.types-V1-ndk-source/gen/include/aidl/android/media/audio/common/AudioChannelLayout.h",
   "underlying_type" : "_ZTIi"
  },
  {
   "alignment" : 4,
   "enum_fields" :
   [
    {
     "enum_field_value" : 786447,
     "name" : "aidl::android::media::audio::common::AudioChannelLayout::LAYOUT_3POINT1POINT2"
    }
   ],
   "linker_set_key" : "_ZTIN4aidl7android5media5audio6common18AudioChannelLayout21$LAYOUT_3POINT1POINT2E",
   "name" : "aidl::android::media::audio::common::AudioChannelLayout::(unnamed enum at out/soong/.intermediates/frameworks/base/media/android.media.audio.common.types-V1-ndk-source/gen/include/aidl/android/media/audio/common/AudioChannelLayout.h:151:3)",
   "referenced_type" : "_ZTIN4aidl7android5media5audio6common18AudioChannelLayout21$LAYOUT_3POINT1POINT2E",
   "self_type" : "_ZTIN4aidl7android5media5audio6common18AudioChannelLayout21$LAYOUT_3POINT1POINT2E",
   "size" : 4,
   "source_file" : "out/soong/.intermediates/frameworks/base/media/android.media.audio.common.types-V1-ndk-source/gen/include/aidl/android/media/audio/common/AudioChannelLayout.h",
   "underlying_type" : "_ZTIi"
  },
  {
   "alignment" : 4,
   "enum_fields" :
   [
    {
     "enum_field_value" : 786495,
     "name" : "aidl::android::media::audio::common::AudioChannelLayout::LAYOUT_5POINT1POINT2"
    }
   ],
   "linker_set_key" : "_ZTIN4aidl7android5media5audio6common18AudioChannelLayout21$LAYOUT_5POINT1POINT2E",
   "name" : "aidl::android::media::audio::common::AudioChannelLayout::(unnamed enum at out/soong/.intermediates/frameworks/base/media/android.media.audio.common.types-V1-ndk-source/gen/include/aidl/android/media/audio/common/AudioChannelLayout.h:158:3)",
   "referenced_type" : "_ZTIN4aidl7android5media5audio6common18AudioChannelLayout21$LAYOUT_5POINT1POINT2E",
   "self_type" : "_ZTIN4aidl7android5media5audio6common18AudioChannelLayout21$LAYOUT_5POINT1POINT2E",
   "size" : 4,
   "source_file" : "out/soong/.intermediates/frameworks/base/media/android.media.audio.common.types-V1-ndk-source/gen/include/aidl/android/media/audio/common/AudioChannelLayout.h",
   "underlying_type" : "_ZTIi"
  },
  {
   "alignment" : 4,
   "enum_fields" :
   [
    {
     "enum_field_value" : 184383,
     "name" : "aidl::android::media::audio::common::AudioChannelLayout::LAYOUT_5POINT1POINT4"
    }
   ],
   "linker_set_key" : "_ZTIN4aidl7android5media5audio6common18AudioChannelLayout21$LAYOUT_5POINT1POINT4E",
   "name" : "aidl::android::media::audio::common::AudioChannelLayout::(unnamed enum at out/soong/.intermediates/frameworks/base/media/android.media.audio.common.types-V1-ndk-source/gen/include/aidl/android/media/audio/common/AudioChannelLayout.h:159:3)",
   "referenced_type" : "_ZTIN4aidl7android5media5audio6common18AudioChannelLayout21$LAYOUT_5POINT1POINT4E",
   "self_type" : "_ZTIN4aidl7android5media5audio6common18AudioChannelLayout21$LAYOUT_5POINT1POINT4E",
   "size" : 4,
   "source_file" : "out/soong/.intermediates/frameworks/base/media/android.media.audio.common.types-V1-ndk-source/gen/include/aidl/android/media/audio/common/AudioChannelLayout.h",
   "underlying_type" : "_ZTIi"
  },
  {
   "alignment" : 4,
   "enum_fields" :
   [
    {
     "enum_field_value" : 788031,
     "name" : "aidl::android::media::audio::common::AudioChannelLayout::LAYOUT_7POINT1POINT2"
    }
   ],
   "linker_set_key" : "_ZTIN4aidl7android5media5audio6common18AudioChannelLayout21$LAYOUT_7POINT1POINT2E",
   "name" : "aidl::android::media::audio::common::AudioChannelLayout::(unnamed enum at out/soong/.intermediates/frameworks/base/media/android.media.audio.common.types-V1-ndk-source/gen/include/aidl/android/media/audio/common/AudioChannelLayout.h:162:3)",
   "referenced_type" : "_ZTIN4aidl7android5media5audio6common18AudioChannelLayout21$LAYOUT_7POINT1POINT2E",
   "self_type" : "_ZTIN4aidl7android5media5audio6common18AudioChannelLayout21$LAYOUT_7POINT1POINT2E",
   "size" : 4,
   "source_file" : "out/soong/.intermediates/frameworks/base/media/android.media.audio.common.types-V1-ndk-source/gen/include/aidl/android/media/audio/common/AudioChannelLayout.h",
   "underlying_type" : "_ZTIi"
  },
  {
   "alignment" : 4,
   "enum_fields" :
   [
    {
     "enum_field_value" : 185919,
     "name" : "aidl::android::media::audio::common::AudioChannelLayout::LAYOUT_7POINT1POINT4"
    }
   ],
   "linker_set_key" : "_ZTIN4aidl7android5media5audio6common18AudioChannelLayout21$LAYOUT_7POINT1POINT4E",
   "name" : "aidl::android::media::audio::common::AudioChannelLayout::(unnamed enum at out/soong/.intermediates/frameworks/base/media/android.media.audio.common.types-V1-ndk-source/gen/include/aidl/android/media/audio/common/AudioChannelLayout.h:163:3)",
   "referenced_type" : "_ZTIN4aidl7android5media5audio6common18AudioChannelLayout21$LAYOUT_7POINT1POINT4E",
   "self_type" : "_ZTIN4aidl7android5media5audio6common18AudioChannelLayout21$LAYOUT_7POINT1POINT4E",
   "size" : 4,
   "source_file" : "out/soong/.intermediates/frameworks/base/media/android.media.audio.common.types-V1-ndk-source/gen/include/aidl/android/media/audio/common/AudioChannelLayout.h",
   "underlying_type" : "_ZTIi"
  },
  {
   "alignment" : 4,
   "enum_fields" :
   [
    {
     "enum_field_value" : 50517567,
     "name" : "aidl::android::media::audio::common::AudioChannelLayout::LAYOUT_9POINT1POINT4"
    }
   ],
   "linker_set_key" : "_ZTIN4aidl7android5media5audio6common18AudioChannelLayout21$LAYOUT_9POINT1POINT4E",
   "name" : "aidl::android::media::audio::common::AudioChannelLayout::(unnamed enum at out/soong/.intermediates/frameworks/base/media/android.media.audio.common.types-V1-ndk-source/gen/include/aidl/android/media/audio/common/AudioChannelLayout.h:164:3)",
   "referenced_type" : "_ZTIN4aidl7android5media5audio6common18AudioChannelLayout21$LAYOUT_9POINT1POINT4E",
   "self_type" : "_ZTIN4aidl7android5media5audio6common18AudioChannelLayout21$LAYOUT_9POINT1POINT4E",
   "size" : 4,
   "source_file" : "out/soong/.intermediates/frameworks/base/media/android.media.audio.common.types-V1-ndk-source/gen/include/aidl/android/media/audio/common/AudioChannelLayout.h",
   "underlying_type" : "_ZTIi"
  },
  {
   "alignment" : 4,
   "enum_fields" :
   [
    {
     "enum_field_value" : 51303999,
     "name" : "aidl::android::media::audio::common::AudioChannelLayout::LAYOUT_9POINT1POINT6"
    }
   ],
   "linker_set_key" : "_ZTIN4aidl7android5media5audio6common18AudioChannelLayout21$LAYOUT_9POINT1POINT6E",
   "name" : "aidl::android::media::audio::common::AudioChannelLayout::(unnamed enum at out/soong/.intermediates/frameworks/base/media/android.media.audio.common.types-V1-ndk-source/gen/include/aidl/android/media/audio/common/AudioChannelLayout.h:165:3)",
   "referenced_type" : "_ZTIN4aidl7android5media5audio6common18AudioChannelLayout21$LAYOUT_9POINT1POINT6E",
   "self_type" : "_ZTIN4aidl7android5media5audio6common18AudioChannelLayout21$LAYOUT_9POINT1POINT6E",
   "size" : 4,
   "source_file" : "out/soong/.intermediates/frameworks/base/media/android.media.audio.common.types-V1-ndk-source/gen/include/aidl/android/media/audio/common/AudioChannelLayout.h",
   "underlying_type" : "_ZTIi"
  },
  {
   "alignment" : 4,
   "enum_fields" :
   [
    {
     "enum_field_value" : 1073741825,
     "name" : "aidl::android::media::audio::common::AudioChannelLayout::LAYOUT_MONO_HAPTIC_A"
    }
   ],
   "linker_set_key" : "_ZTIN4aidl7android5media5audio6common18AudioChannelLayout21$LAYOUT_MONO_HAPTIC_AE",
   "name" : "aidl::android::media::audio::common::AudioChannelLayout::(unnamed enum at out/soong/.intermediates/frameworks/base/media/android.media.audio.common.types-V1-ndk-source/gen/include/aidl/android/media/audio/common/AudioChannelLayout.h:168:3)",
   "referenced_type" : "_ZTIN4aidl7android5media5audio6common18AudioChannelLayout21$LAYOUT_MONO_HAPTIC_AE",
   "self_type" : "_ZTIN4aidl7android5media5audio6common18AudioChannelLayout21$LAYOUT_MONO_HAPTIC_AE",
   "size" : 4,
   "source_file" : "out/soong/.intermediates/frameworks/base/media/android.media.audio.common.types-V1-ndk-source/gen/include/aidl/android/media/audio/common/AudioChannelLayout.h",
   "underlying_type" : "_ZTIi"
  },
  {
   "alignment" : 4,
   "enum_fields" :
   [
    {
     "enum_field_value" : 8,
     "name" : "aidl::android::media::audio::common::AudioChannelLayout::CHANNEL_LOW_FREQUENCY"
    }
   ],
   "linker_set_key" : "_ZTIN4aidl7android5media5audio6common18AudioChannelLayout22$CHANNEL_LOW_FREQUENCYE",
   "name" : "aidl::android::media::audio::common::AudioChannelLayout::(unnamed enum at out/soong/.intermediates/frameworks/base/media/android.media.audio.common.types-V1-ndk-source/gen/include/aidl/android/media/audio/common/AudioChannelLayout.h:179:3)",
   "referenced_type" : "_ZTIN4aidl7android5media5audio6common18AudioChannelLayout22$CHANNEL_LOW_FREQUENCYE",
   "self_type" : "_ZTIN4aidl7android5media5audio6common18AudioChannelLayout22$CHANNEL_LOW_FREQUENCYE",
   "size" : 4,
   "source_file" : "out/soong/.intermediates/frameworks/base/media/android.media.audio.common.types-V1-ndk-source/gen/include/aidl/android/media/audio/common/AudioChannelLayout.h",
   "underlying_type" : "_ZTIi"
  },
  {
   "alignment" : 4,
   "enum_fields" :
   [
    {
     "enum_field_value" : 32768,
     "name" : "aidl::android::media::audio::common::AudioChannelLayout::CHANNEL_TOP_BACK_LEFT"
    }
   ],
   "linker_set_key" : "_ZTIN4aidl7android5media5audio6common18AudioChannelLayout22$CHANNEL_TOP_BACK_LEFTE",
   "name" : "aidl::android::media::audio::common::AudioChannelLayout::(unnamed enum at out/soong/.intermediates/frameworks/base/media/android.media.audio.common.types-V1-ndk-source/gen/include/aidl/android/media/audio/common/AudioChannelLayout.h:191:3)",
   "referenced_type" : "_ZTIN4aidl7android5media5audio6common18AudioChannelLayout22$CHANNEL_TOP_BACK_LEFTE",
   "self_type" : "_ZTIN4aidl7android5media5audio6common18AudioChannelLayout22$CHANNEL_TOP_BACK_LEFTE",
   "size" : 4,
   "source_file" : "out/soong/.intermediates/frameworks/base/media/android.media.audio.common.types-V1-ndk-source/gen/include/aidl/android/media/audio/common/AudioChannelLayout.h",
   "underlying_type" : "_ZTIi"
  },
  {
   "alignment" : 4,
   "enum_fields" :
   [
    {
     "enum_field_value" : 262144,
     "name" : "aidl::android::media::audio::common::AudioChannelLayout::CHANNEL_TOP_SIDE_LEFT"
    }
   ],
   "linker_set_key" : "_ZTIN4aidl7android5media5audio6common18AudioChannelLayout22$CHANNEL_TOP_SIDE_LEFTE",
   "name" : "aidl::android::media::audio::common::AudioChannelLayout::(unnamed enum at out/soong/.intermediates/frameworks/base/media/android.media.audio.common.types-V1-ndk-source/gen/include/aidl/android/media/audio/common/AudioChannelLayout.h:194:3)",
   "referenced_type" : "_ZTIN4aidl7android5media5audio6common18AudioChannelLayout22$CHANNEL_TOP_SIDE_LEFTE",
   "self_type" : "_ZTIN4aidl7android5media5audio6common18AudioChannelLayout22$CHANNEL_TOP_SIDE_LEFTE",
   "size" : 4,
   "source_file" : "out/soong/.intermediates/frameworks/base/media/android.media.audio.common.types-V1-ndk-source/gen/include/aidl/android/media/audio/common/AudioChannelLayout.h",
   "underlying_type" : "_ZTIi"
  },
  {
   "alignment" : 4,
   "enum_fields" :
   [
    {
     "enum_field_value" : 1610612737,
     "name" : "aidl::android::media::audio::common::AudioChannelLayout::LAYOUT_MONO_HAPTIC_AB"
    }
   ],
   "linker_set_key" : "_ZTIN4aidl7android5media5audio6common18AudioChannelLayout22$LAYOUT_MONO_HAPTIC_ABE",
   "name" : "aidl::android::media::audio::common::AudioChannelLayout::(unnamed enum at out/soong/.intermediates/frameworks/base/media/android.media.audio.common.types-V1-ndk-source/gen/include/aidl/android/media/audio/common/AudioChannelLayout.h:171:3)",
   "referenced_type" : "_ZTIN4aidl7android5media5audio6common18AudioChannelLayout22$LAYOUT_MONO_HAPTIC_ABE",
   "self_type" : "_ZTIN4aidl7android5media5audio6common18AudioChannelLayout22$LAYOUT_MONO_HAPTIC_ABE",
   "size" : 4,
   "source_file" : "out/soong/.intermediates/frameworks/base/media/android.media.audio.common.types-V1-ndk-source/gen/include/aidl/android/media/audio/common/AudioChannelLayout.h",
   "underlying_type" : "_ZTIi"
  },
  {
   "alignment" : 4,
   "enum_fields" :
   [
    {
     "enum_field_value" : 131072,
     "name" : "aidl::android::media::audio::common::AudioChannelLayout::CHANNEL_TOP_BACK_RIGHT"
    }
   ],
   "linker_set_key" : "_ZTIN4aidl7android5media5audio6common18AudioChannelLayout23$CHANNEL_TOP_BACK_RIGHTE",
   "name" : "aidl::android::media::audio::common::AudioChannelLayout::(unnamed enum at out/soong/.intermediates/frameworks/base/media/android.media.audio.common.types-V1-ndk-source/gen/include/aidl/android/media/audio/common/AudioChannelLayout.h:193:3)",
   "referenced_type" : "_ZTIN4aidl7android5media5audio6common18AudioChannelLayout23$CHANNEL_TOP_BACK_RIGHTE",
   "self_type" : "_ZTIN4aidl7android5media5audio6common18AudioChannelLayout23$CHANNEL_TOP_BACK_RIGHTE",
   "size" : 4,
   "source_file" : "out/soong/.intermediates/frameworks/base/media/android.media.audio.common.types-V1-ndk-source/gen/include/aidl/android/media/audio/common/AudioChannelLayout.h",
   "underlying_type" : "_ZTIi"
  },
  {
   "alignment" : 4,
   "enum_fields" :
   [
    {
     "enum_field_value" : 4096,
     "name" : "aidl::android::media::audio::common::AudioChannelLayout::CHANNEL_TOP_FRONT_LEFT"
    }
   ],
   "linker_set_key" : "_ZTIN4aidl7android5media5audio6common18AudioChannelLayout23$CHANNEL_TOP_FRONT_LEFTE",
   "name" : "aidl::android::media::audio::common::AudioChannelLayout::(unnamed enum at out/soong/.intermediates/frameworks/base/media/android.media.audio.common.types-V1-ndk-source/gen/include/aidl/android/media/audio/common/AudioChannelLayout.h:188:3)",
   "referenced_type" : "_ZTIN4aidl7android5media5audio6common18AudioChannelLayout23$CHANNEL_TOP_FRONT_LEFTE",
   "self_type" : "_ZTIN4aidl7android5media5audio6common18AudioChannelLayout23$CHANNEL_TOP_FRONT_LEFTE",
   "size" : 4,
   "source_file" : "out/soong/.intermediates/frameworks/base/media/android.media.audio.common.types-V1-ndk-source/gen/include/aidl/android/media/audio/common/AudioChannelLayout.h",
   "underlying_type" : "_ZTIi"
  },
  {
   "alignment" : 4,
   "enum_fields" :
   [
    {
     "enum_field_value" : 524288,
     "name" : "aidl::android::media::audio::common::AudioChannelLayout::CHANNEL_TOP_SIDE_RIGHT"
    }
   ],
   "linker_set_key" : "_ZTIN4aidl7android5media5audio6common18AudioChannelLayout23$CHANNEL_TOP_SIDE_RIGHTE",
   "name" : "aidl::android::media::audio::common::AudioChannelLayout::(unnamed enum at out/soong/.intermediates/frameworks/base/media/android.media.audio.common.types-V1-ndk-source/gen/include/aidl/android/media/audio/common/AudioChannelLayout.h:195:3)",
   "referenced_type" : "_ZTIN4aidl7android5media5audio6common18AudioChannelLayout23$CHANNEL_TOP_SIDE_RIGHTE",
   "self_type" : "_ZTIN4aidl7android5media5audio6common18AudioChannelLayout23$CHANNEL_TOP_SIDE_RIGHTE",
   "size" : 4,
   "source_file" : "out/soong/.intermediates/frameworks/base/media/android.media.audio.common.types-V1-ndk-source/gen/include/aidl/android/media/audio/common/AudioChannelLayout.h",
   "underlying_type" : "_ZTIi"
  },
  {
   "alignment" : 4,
   "enum_fields" :
   [
    {
     "enum_field_value" : 1073741827,
     "name" : "aidl::android::media::audio::common::AudioChannelLayout::LAYOUT_STEREO_HAPTIC_A"
    }
   ],
   "linker_set_key" : "_ZTIN4aidl7android5media5audio6common18AudioChannelLayout23$LAYOUT_STEREO_HAPTIC_AE",
   "name" : "aidl::android::media::audio::common::AudioChannelLayout::(unnamed enum at out/soong/.intermediates/frameworks/base/media/android.media.audio.common.types-V1-ndk-source/gen/include/aidl/android/media/audio/common/AudioChannelLayout.h:169:3)",
   "referenced_type" : "_ZTIN4aidl7android5media5audio6common18AudioChannelLayout23$LAYOUT_STEREO_HAPTIC_AE",
   "self_type" : "_ZTIN4aidl7android5media5audio6common18AudioChannelLayout23$LAYOUT_STEREO_HAPTIC_AE",
   "size" : 4,
   "source_file" : "out/soong/.intermediates/frameworks/base/media/android.media.audio.common.types-V1-ndk-source/gen/include/aidl/android/media/audio/common/AudioChannelLayout.h",
   "underlying_type" : "_ZTIi"
  },
  {
   "alignment" : 4,
   "enum_fields" :
   [
    {
     "enum_field_value" : 16777216,
     "name" : "aidl::android::media::audio::common::AudioChannelLayout::CHANNEL_FRONT_WIDE_LEFT"
    }
   ],
   "linker_set_key" : "_ZTIN4aidl7android5media5audio6common18AudioChannelLayout24$CHANNEL_FRONT_WIDE_LEFTE",
   "name" : "aidl::android::media::audio::common::AudioChannelLayout::(unnamed enum at out/soong/.intermediates/frameworks/base/media/android.media.audio.common.types-V1-ndk-source/gen/include/aidl/android/media/audio/common/AudioChannelLayout.h:200:3)",
   "referenced_type" : "_ZTIN4aidl7android5media5audio6common18AudioChannelLayout24$CHANNEL_FRONT_WIDE_LEFTE",
   "self_type" : "_ZTIN4aidl7android5media5audio6common18AudioChannelLayout24$CHANNEL_FRONT_WIDE_LEFTE",
   "size" : 4,
   "source_file" : "out/soong/.intermediates/frameworks/base/media/android.media.audio.common.types-V1-ndk-source/gen/include/aidl/android/media/audio/common/AudioChannelLayout.h",
   "underlying_type" : "_ZTIi"
  },
  {
   "alignment" : 4,
   "enum_fields" :
   [
    {
     "enum_field_value" : 8388608,
     "name" : "aidl::android::media::audio::common::AudioChannelLayout::CHANNEL_LOW_FREQUENCY_2"
    }
   ],
   "linker_set_key" : "_ZTIN4aidl7android5media5audio6common18AudioChannelLayout24$CHANNEL_LOW_FREQUENCY_2E",
   "name" : "aidl::android::media::audio::common::AudioChannelLayout::(unnamed enum at out/soong/.intermediates/frameworks/base/media/android.media.audio.common.types-V1-ndk-source/gen/include/aidl/android/media/audio/common/AudioChannelLayout.h:199:3)",
   "referenced_type" : "_ZTIN4aidl7android5media5audio6common18AudioChannelLayout24$CHANNEL_LOW_FREQUENCY_2E",
   "self_type" : "_ZTIN4aidl7android5media5audio6common18AudioChannelLayout24$CHANNEL_LOW_FREQUENCY_2E",
   "size" : 4,
   "source_file" : "out/soong/.intermediates/frameworks/base/media/android.media.audio.common.types-V1-ndk-source/gen/include/aidl/android/media/audio/common/AudioChannelLayout.h",
   "underlying_type" : "_ZTIi"
  },
  {
   "alignment" : 4,
   "enum_fields" :
   [
    {
     "enum_field_value" : 65536,
     "name" : "aidl::android::media::audio::common::AudioChannelLayout::CHANNEL_TOP_BACK_CENTER"
    }
   ],
   "linker_set_key" : "_ZTIN4aidl7android5media5audio6common18AudioChannelLayout24$CHANNEL_TOP_BACK_CENTERE",
   "name" : "aidl::android::media::audio::common::AudioChannelLayout::(unnamed enum at out/soong/.intermediates/frameworks/base/media/android.media.audio.common.types-V1-ndk-source/gen/include/aidl/android/media/audio/common/AudioChannelLayout.h:192:3)",
   "referenced_type" : "_ZTIN4aidl7android5media5audio6common18AudioChannelLayout24$CHANNEL_TOP_BACK_CENTERE",
   "self_type" : "_ZTIN4aidl7android5media5audio6common18AudioChannelLayout24$CHANNEL_TOP_BACK_CENTERE",
   "size" : 4,
   "source_file" : "out/soong/.intermediates/frameworks/base/media/android.media.audio.common.types-V1-ndk-source/gen/include/aidl/android/media/audio/common/AudioChannelLayout.h",
   "underlying_type" : "_ZTIi"
  },
  {
   "alignment" : 4,
   "enum_fields" :
   [
    {
     "enum_field_value" : 16384,
     "name" : "aidl::android::media::audio::common::AudioChannelLayout::CHANNEL_TOP_FRONT_RIGHT"
    }
   ],
   "linker_set_key" : "_ZTIN4aidl7android5media5audio6common18AudioChannelLayout24$CHANNEL_TOP_FRONT_RIGHTE",
   "name" : "aidl::android::media::audio::common::AudioChannelLayout::(unnamed enum at out/soong/.intermediates/frameworks/base/media/android.media.audio.common.types-V1-ndk-source/gen/include/aidl/android/media/audio/common/AudioChannelLayout.h:190:3)",
   "referenced_type" : "_ZTIN4aidl7android5media5audio6common18AudioChannelLayout24$CHANNEL_TOP_FRONT_RIGHTE",
   "self_type" : "_ZTIN4aidl7android5media5audio6common18AudioChannelLayout24$CHANNEL_TOP_FRONT_RIGHTE",
   "size" : 4,
   "source_file" : "out/soong/.intermediates/frameworks/base/media/android.media.audio.common.types-V1-ndk-source/gen/include/aidl/android/media/audio/common/AudioChannelLayout.h",
   "underlying_type" : "_ZTIi"
  },
  {
   "alignment" : 4,
   "enum_fields" :
   [
    {
     "enum_field_value" : 1610612739,
     "name" : "aidl::android::media::audio::common::AudioChannelLayout::LAYOUT_STEREO_HAPTIC_AB"
    }
   ],
   "linker_set_key" : "_ZTIN4aidl7android5media5audio6common18AudioChannelLayout24$LAYOUT_STEREO_HAPTIC_ABE",
   "name" : "aidl::android::media::audio::common::AudioChannelLayout::(unnamed enum at out/soong/.intermediates/frameworks/base/media/android.media.audio.common.types-V1-ndk-source/gen/include/aidl/android/media/audio/common/AudioChannelLayout.h:172:3)",
   "referenced_type" : "_ZTIN4aidl7android5media5audio6common18AudioChannelLayout24$LAYOUT_STEREO_HAPTIC_ABE",
   "self_type" : "_ZTIN4aidl7android5media5audio6common18AudioChannelLayout24$LAYOUT_STEREO_HAPTIC_ABE",
   "size" : 4,
   "source_file" : "out/soong/.intermediates/frameworks/base/media/android.media.audio.common.types-V1-ndk-source/gen/include/aidl/android/media/audio/common/AudioChannelLayout.h",
   "underlying_type" : "_ZTIi"
  },
  {
   "alignment" : 4,
   "enum_fields" :
   [
    {
     "enum_field_value" : 33554432,
     "name" : "aidl::android::media::audio::common::AudioChannelLayout::CHANNEL_FRONT_WIDE_RIGHT"
    }
   ],
   "linker_set_key" : "_ZTIN4aidl7android5media5audio6common18AudioChannelLayout25$CHANNEL_FRONT_WIDE_RIGHTE",
   "name" : "aidl::android::media::audio::common::AudioChannelLayout::(unnamed enum at out/soong/.intermediates/frameworks/base/media/android.media.audio.common.types-V1-ndk-source/gen/include/aidl/android/media/audio/common/AudioChannelLayout.h:201:3)",
   "referenced_type" : "_ZTIN4aidl7android5media5audio6common18AudioChannelLayout25$CHANNEL_FRONT_WIDE_RIGHTE",
   "self_type" : "_ZTIN4aidl7android5media5audio6common18AudioChannelLayout25$CHANNEL_FRONT_WIDE_RIGHTE",
   "size" : 4,
   "source_file" : "out/soong/.intermediates/frameworks/base/media/android.media.audio.common.types-V1-ndk-source/gen/include/aidl/android/media/audio/common/AudioChannelLayout.h",
   "underlying_type" : "_ZTIi"
  },
  {
   "alignment" : 4,
   "enum_fields" :
   [
    {
     "enum_field_value" : 8192,
     "name" : "aidl::android::media::audio::common::AudioChannelLayout::CHANNEL_TOP_FRONT_CENTER"
    }
   ],
   "linker_set_key" : "_ZTIN4aidl7android5media5audio6common18AudioChannelLayout25$CHANNEL_TOP_FRONT_CENTERE",
   "name" : "aidl::android::media::audio::common::AudioChannelLayout::(unnamed enum at out/soong/.intermediates/frameworks/base/media/android.media.audio.common.types-V1-ndk-source/gen/include/aidl/android/media/audio/common/AudioChannelLayout.h:189:3)",
   "referenced_type" : "_ZTIN4aidl7android5media5audio6common18AudioChannelLayout25$CHANNEL_TOP_FRONT_CENTERE",
   "self_type" : "_ZTIN4aidl7android5media5audio6common18AudioChannelLayout25$CHANNEL_TOP_FRONT_CENTERE",
   "size" : 4,
   "source_file" : "out/soong/.intermediates/frameworks/base/media/android.media.audio.common.types-V1-ndk-source/gen/include/aidl/android/media/audio/common/AudioChannelLayout.h",
   "underlying_type" : "_ZTIi"
  },
  {
   "alignment" : 4,
   "enum_fields" :
   [
    {
     "enum_field_value" : 1048576,
     "name" : "aidl::android::media::audio::common::AudioChannelLayout::CHANNEL_BOTTOM_FRONT_LEFT"
    }
   ],
   "linker_set_key" : "_ZTIN4aidl7android5media5audio6common18AudioChannelLayout26$CHANNEL_BOTTOM_FRONT_LEFTE",
   "name" : "aidl::android::media::audio::common::AudioChannelLayout::(unnamed enum at out/soong/.intermediates/frameworks/base/media/android.media.audio.common.types-V1-ndk-source/gen/include/aidl/android/media/audio/common/AudioChannelLayout.h:196:3)",
   "referenced_type" : "_ZTIN4aidl7android5media5audio6common18AudioChannelLayout26$CHANNEL_BOTTOM_FRONT_LEFTE",
   "self_type" : "_ZTIN4aidl7android5media5audio6common18AudioChannelLayout26$CHANNEL_BOTTOM_FRONT_LEFTE",
   "size" : 4,
   "source_file" : "out/soong/.intermediates/frameworks/base/media/android.media.audio.common.types-V1-ndk-source/gen/include/aidl/android/media/audio/common/AudioChannelLayout.h",
   "underlying_type" : "_ZTIi"
  },
  {
   "alignment" : 4,
   "enum_fields" :
   [
    {
     "enum_field_value" : 4194304,
     "name" : "aidl::android::media::audio::common::AudioChannelLayout::CHANNEL_BOTTOM_FRONT_RIGHT"
    }
   ],
   "linker_set_key" : "_ZTIN4aidl7android5media5audio6common18AudioChannelLayout27$CHANNEL_BOTTOM_FRONT_RIGHTE",
   "name" : "aidl::android::media::audio::common::AudioChannelLayout::(unnamed enum at out/soong/.intermediates/frameworks/base/media/android.media.audio.common.types-V1-ndk-source/gen/include/aidl/android/media/audio/common/AudioChannelLayout.h:198:3)",
   "referenced_type" : "_ZTIN4aidl7android5media5audio6common18AudioChannelLayout27$CHANNEL_BOTTOM_FRONT_RIGHTE",
   "self_type" : "_ZTIN4aidl7android5media5audio6common18AudioChannelLayout27$CHANNEL_BOTTOM_FRONT_RIGHTE",
   "size" : 4,
   "source_file" : "out/soong/.intermediates/frameworks/base/media/android.media.audio.common.types-V1-ndk-source/gen/include/aidl/android/media/audio/common/AudioChannelLayout.h",
   "underlying_type" : "_ZTIi"
  },
  {
   "alignment" : 4,
   "enum_fields" :
   [
    {
     "enum_field_value" : 2097152,
     "name" : "aidl::android::media::audio::common::AudioChannelLayout::CHANNEL_BOTTOM_FRONT_CENTER"
    }
   ],
   "linker_set_key" : "_ZTIN4aidl7android5media5audio6common18AudioChannelLayout28$CHANNEL_BOTTOM_FRONT_CENTERE",
   "name" : "aidl::android::media::audio::common::AudioChannelLayout::(unnamed enum at out/soong/.intermediates/frameworks/base/media/android.media.audio.common.types-V1-ndk-source/gen/include/aidl/android/media/audio/common/AudioChannelLayout.h:197:3)",
   "referenced_type" : "_ZTIN4aidl7android5media5audio6common18AudioChannelLayout28$CHANNEL_BOTTOM_FRONT_CENTERE",
   "self_type" : "_ZTIN4aidl7android5media5audio6common18AudioChannelLayout28$CHANNEL_BOTTOM_FRONT_CENTERE",
   "size" : 4,
   "source_file" : "out/soong/.intermediates/frameworks/base/media/android.media.audio.common.types-V1-ndk-source/gen/include/aidl/android/media/audio/common/AudioChannelLayout.h",
   "underlying_type" : "_ZTIi"
  },
  {
   "alignment" : 4,
   "enum_fields" :
   [
    {
     "enum_field_value" : 64,
     "name" : "aidl::android::media::audio::common::AudioChannelLayout::CHANNEL_FRONT_LEFT_OF_CENTER"
    }
   ],
   "linker_set_key" : "_ZTIN4aidl7android5media5audio6common18AudioChannelLayout29$CHANNEL_FRONT_LEFT_OF_CENTERE",
   "name" : "aidl::android::media::audio::common::AudioChannelLayout::(unnamed enum at out/soong/.intermediates/frameworks/base/media/android.media.audio.common.types-V1-ndk-source/gen/include/aidl/android/media/audio/common/AudioChannelLayout.h:182:3)",
   "referenced_type" : "_ZTIN4aidl7android5media5audio6common18AudioChannelLayout29$CHANNEL_FRONT_LEFT_OF_CENTERE",
   "self_type" : "_ZTIN4aidl7android5media5audio6common18AudioChannelLayout29$CHANNEL_FRONT_LEFT_OF_CENTERE",
   "size" : 4,
   "source_file" : "out/soong/.intermediates/frameworks/base/media/android.media.audio.common.types-V1-ndk-source/gen/include/aidl/android/media/audio/common/AudioChannelLayout.h",
   "underlying_type" : "_ZTIi"
  },
  {
   "alignment" : 4,
   "enum_fields" :
   [
    {
     "enum_field_value" : 128,
     "name" : "aidl::android::media::audio::common::AudioChannelLayout::CHANNEL_FRONT_RIGHT_OF_CENTER"
    }
   ],
   "linker_set_key" : "_ZTIN4aidl7android5media5audio6common18AudioChannelLayout30$CHANNEL_FRONT_RIGHT_OF_CENTERE",
   "name" : "aidl::android::media::audio::common::AudioChannelLayout::(unnamed enum at out/soong/.intermediates/frameworks/base/media/android.media.audio.common.types-V1-ndk-source/gen/include/aidl/android/media/audio/common/AudioChannelLayout.h:183:3)",
   "referenced_type" : "_ZTIN4aidl7android5media5audio6common18AudioChannelLayout30$CHANNEL_FRONT_RIGHT_OF_CENTERE",
   "self_type" : "_ZTIN4aidl7android5media5audio6common18AudioChannelLayout30$CHANNEL_FRONT_RIGHT_OF_CENTERE",
   "size" : 4,
   "source_file" : "out/soong/.intermediates/frameworks/base/media/android.media.audio.common.types-V1-ndk-source/gen/include/aidl/android/media/audio/common/AudioChannelLayout.h",
   "underlying_type" : "_ZTIi"
  },
  {
   "alignment" : 4,
   "enum_fields" :
   [
    {
     "enum_field_value" : 0,
     "name" : "aidl::android::media::audio::common::AudioChannelLayout::Tag::none"
    },
    {
     "enum_field_value" : 1,
     "name" : "aidl::android::media::audio::common::AudioChannelLayout::Tag::invalid"
    },
    {
     "enum_field_value" : 2,
     "name" : "aidl::android::media::audio::common::AudioChannelLayout::Tag::indexMask"
    },
    {
     "enum_field_value" : 3,
     "name" : "aidl::android::media::audio::common::AudioChannelLayout::Tag::layoutMask"
    },
    {
     "enum_field_value" : 4,
     "name" : "aidl::android::media::audio::common::AudioChannelLayout::Tag::voiceMask"
    }
   ],
   "linker_set_key" : "_ZTIN4aidl7android5media5audio6common18AudioChannelLayout3TagE",
   "name" : "aidl::android::media::audio::common::AudioChannelLayout::Tag",
   "referenced_type" : "_ZTIN4aidl7android5media5audio6common18AudioChannelLayout3TagE",
   "self_type" : "_ZTIN4aidl7android5media5audio6common18AudioChannelLayout3TagE",
   "size" : 4,
   "source_file" : "out/soong/.intermediates/frameworks/base/media/android.media.audio.common.types-V1-ndk-source/gen/include/aidl/android/media/audio/common/AudioChannelLayout.h",
   "underlying_type" : "_ZTIi"
  },
  {
   "alignment" : 4,
   "enum_fields" :
   [
    {
     "enum_field_value" : 0,
     "name" : "aidl::android::media::audio::common::AudioDeviceAddress::Tag::id"
    },
    {
     "enum_field_value" : 1,
     "name" : "aidl::android::media::audio::common::AudioDeviceAddress::Tag::mac"
    },
    {
     "enum_field_value" : 2,
     "name" : "aidl::android::media::audio::common::AudioDeviceAddress::Tag::ipv4"
    },
    {
     "enum_field_value" : 3,
     "name" : "aidl::android::media::audio::common::AudioDeviceAddress::Tag::ipv6"
    },
    {
     "enum_field_value" : 4,
     "name" : "aidl::android::media::audio::common::AudioDeviceAddress::Tag::alsa"
    }
   ],
   "linker_set_key" : "_ZTIN4aidl7android5media5audio6common18AudioDeviceAddress3TagE",
   "name" : "aidl::android::media::audio::common::AudioDeviceAddress::Tag",
   "referenced_type" : "_ZTIN4aidl7android5media5audio6common18AudioDeviceAddress3TagE",
   "self_type" : "_ZTIN4aidl7android5media5audio6common18AudioDeviceAddress3TagE",
   "size" : 4,
   "source_file" : "out/soong/.intermediates/frameworks/base/media/android.media.audio.common.types-V1-ndk-source/gen/include/aidl/android/media/audio/common/AudioDeviceAddress.h",
   "underlying_type" : "_ZTIi"
  },
  {
   "alignment" : 1,
   "enum_fields" :
   [
    {
     "enum_field_value" : 0,
     "name" : "aidl::android::hardware::common::fmq::SynchronizedReadWrite::EMPTY"
    }
   ],
   "linker_set_key" : "_ZTIN4aidl7android8hardware6common3fmq21SynchronizedReadWriteE",
   "name" : "aidl::android::hardware::common::fmq::SynchronizedReadWrite",
   "referenced_type" : "_ZTIN4aidl7android8hardware6common3fmq21SynchronizedReadWriteE",
   "self_type" : "_ZTIN4aidl7android8hardware6common3fmq21SynchronizedReadWriteE",
   "size" : 1,
   "source_file" : "out/soong/.intermediates/hardware/interfaces/common/fmq/aidl/android.hardware.common.fmq-V1-ndk-source/gen/include/aidl/android/hardware/common/fmq/SynchronizedReadWrite.h",
   "underlying_type" : "_ZTIa"
  },
  {
   "alignment" : 1,
   "enum_fields" :
   [
    {
     "enum_field_value" : 0,
     "name" : "aidl::android::hardware::bluetooth::audio::ChannelMode::UNKNOWN"
    },
    {
     "enum_field_value" : 1,
     "name" : "aidl::android::hardware::bluetooth::audio::ChannelMode::MONO"
    },
    {
     "enum_field_value" : 2,
     "name" : "aidl::android::hardware::bluetooth::audio::ChannelMode::STEREO"
    },
    {
     "enum_field_value" : 3,
     "name" : "aidl::android::hardware::bluetooth::audio::ChannelMode::DUALMONO"
    }
   ],
   "linker_set_key" : "_ZTIN4aidl7android8hardware9bluetooth5audio11ChannelModeE",
   "name" : "aidl::android::hardware::bluetooth::audio::ChannelMode",
   "referenced_type" : "_ZTIN4aidl7android8hardware9bluetooth5audio11ChannelModeE",
   "self_type" : "_ZTIN4aidl7android8hardware9bluetooth5audio11ChannelModeE",
   "size" : 1,
   "source_file" : "out/soong/.intermediates/hardware/interfaces/bluetooth/audio/aidl/android.hardware.bluetooth.audio-V2-ndk-source/gen/include/aidl/android/hardware/bluetooth/audio/ChannelMode.h",
   "underlying_type" : "_ZTIa"
  },
  {
   "alignment" : 4,
   "enum_fields" :
   [
    {
     "enum_field_value" : 0,
     "name" : "aidl::android::hardware::bluetooth::audio::LatencyMode::UNKNOWN"
    },
    {
     "enum_field_value" : 1,
     "name" : "aidl::android::hardware::bluetooth::audio::LatencyMode::LOW_LATENCY"
    },
    {
     "enum_field_value" : 2,
     "name" : "aidl::android::hardware::bluetooth::audio::LatencyMode::FREE"
    }
   ],
   "linker_set_key" : "_ZTIN4aidl7android8hardware9bluetooth5audio11LatencyModeE",
   "name" : "aidl::android::hardware::bluetooth::audio::LatencyMode",
   "referenced_type" : "_ZTIN4aidl7android8hardware9bluetooth5audio11LatencyModeE",
   "self_type" : "_ZTIN4aidl7android8hardware9bluetooth5audio11LatencyModeE",
   "size" : 4,
   "source_file" : "out/soong/.intermediates/hardware/interfaces/bluetooth/audio/aidl/android.hardware.bluetooth.audio-V2-ndk-source/gen/include/aidl/android/hardware/bluetooth/audio/LatencyMode.h",
   "underlying_type" : "_ZTIi"
  },
  {
   "alignment" : 1,
   "enum_fields" :
   [
    {
     "enum_field_value" : 0,
     "name" : "aidl::android::hardware::bluetooth::audio::SessionType::UNKNOWN"
    },
    {
     "enum_field_value" : 1,
     "name" : "aidl::android::hardware::bluetooth::audio::SessionType::A2DP_SOFTWARE_ENCODING_DATAPATH"
    },
    {
     "enum_field_value" : 2,
     "name" : "aidl::android::hardware::bluetooth::audio::SessionType::A2DP_HARDWARE_OFFLOAD_ENCODING_DATAPATH"
    },
    {
     "enum_field_value" : 3,
     "name" : "aidl::android::hardware::bluetooth::audio::SessionType::HEARING_AID_SOFTWARE_ENCODING_DATAPATH"
    },
    {
     "enum_field_value" : 4,
     "name" : "aidl::android::hardware::bluetooth::audio::SessionType::LE_AUDIO_SOFTWARE_ENCODING_DATAPATH"
    },
    {
     "enum_field_value" : 5,
     "name" : "aidl::android::hardware::bluetooth::audio::SessionType::LE_AUDIO_SOFTWARE_DECODING_DATAPATH"
    },
    {
     "enum_field_value" : 6,
     "name" : "aidl::android::hardware::bluetooth::audio::SessionType::LE_AUDIO_HARDWARE_OFFLOAD_ENCODING_DATAPATH"
    },
    {
     "enum_field_value" : 7,
     "name" : "aidl::android::hardware::bluetooth::audio::SessionType::LE_AUDIO_HARDWARE_OFFLOAD_DECODING_DATAPATH"
    },
    {
     "enum_field_value" : 8,
     "name" : "aidl::android::hardware::bluetooth::audio::SessionType::LE_AUDIO_BROADCAST_SOFTWARE_ENCODING_DATAPATH"
    },
    {
     "enum_field_value" : 9,
     "name" : "aidl::android::hardware::bluetooth::audio::SessionType::LE_AUDIO_BROADCAST_HARDWARE_OFFLOAD_ENCODING_DATAPATH"
    },
    {
     "enum_field_value" : 10,
     "name" : "aidl::android::hardware::bluetooth::audio::SessionType::A2DP_SOFTWARE_DECODING_DATAPATH"
    },
    {
     "enum_field_value" : 11,
     "name" : "aidl::android::hardware::bluetooth::audio::SessionType::A2DP_HARDWARE_OFFLOAD_DECODING_DATAPATH"
    }
   ],
   "linker_set_key" : "_ZTIN4aidl7android8hardware9bluetooth5audio11SessionTypeE",
   "name" : "aidl::android::hardware::bluetooth::audio::SessionType",
   "referenced_type" : "_ZTIN4aidl7android8hardware9bluetooth5audio11SessionTypeE",
   "self_type" : "_ZTIN4aidl7android8hardware9bluetooth5audio11SessionTypeE",
   "size" : 1,
   "source_file" : "out/soong/.intermediates/hardware/interfaces/bluetooth/audio/aidl/android.hardware.bluetooth.audio-V2-ndk-source/gen/include/aidl/android/hardware/bluetooth/audio/SessionType.h",
   "underlying_type" : "_ZTIa"
  },
  {
   "alignment" : 1,
   "enum_fields" :
   [
    {
     "enum_field_value" : 0,
     "name" : "aidl::android::hardware::bluetooth::audio::AacObjectType::MPEG2_LC"
    },
    {
     "enum_field_value" : 1,
     "name" : "aidl::android::hardware::bluetooth::audio::AacObjectType::MPEG4_LC"
    },
    {
     "enum_field_value" : 2,
     "name" : "aidl::android::hardware::bluetooth::audio::AacObjectType::MPEG4_LTP"
    },
    {
     "enum_field_value" : 3,
     "name" : "aidl::android::hardware::bluetooth::audio::AacObjectType::MPEG4_SCALABLE"
    }
   ],
   "linker_set_key" : "_ZTIN4aidl7android8hardware9bluetooth5audio13AacObjectTypeE",
   "name" : "aidl::android::hardware::bluetooth::audio::AacObjectType",
   "referenced_type" : "_ZTIN4aidl7android8hardware9bluetooth5audio13AacObjectTypeE",
   "self_type" : "_ZTIN4aidl7android8hardware9bluetooth5audio13AacObjectTypeE",
   "size" : 1,
   "source_file" : "out/soong/.intermediates/hardware/interfaces/bluetooth/audio/aidl/android.hardware.bluetooth.audio-V2-ndk-source/gen/include/aidl/android/hardware/bluetooth/audio/AacObjectType.h",
   "underlying_type" : "_ZTIa"
  },
  {
   "alignment" : 4,
   "enum_fields" :
   [
    {
     "enum_field_value" : 1,
     "name" : "aidl::android::hardware::bluetooth::audio::AudioLocation::UNKNOWN"
    },
    {
     "enum_field_value" : 2,
     "name" : "aidl::android::hardware::bluetooth::audio::AudioLocation::FRONT_LEFT"
    },
    {
     "enum_field_value" : 4,
     "name" : "aidl::android::hardware::bluetooth::audio::AudioLocation::FRONT_RIGHT"
    }
   ],
   "linker_set_key" : "_ZTIN4aidl7android8hardware9bluetooth5audio13AudioLocationE",
   "name" : "aidl::android::hardware::bluetooth::audio::AudioLocation",
   "referenced_type" : "_ZTIN4aidl7android8hardware9bluetooth5audio13AudioLocationE",
   "self_type" : "_ZTIN4aidl7android8hardware9bluetooth5audio13AudioLocationE",
   "size" : 4,
   "source_file" : "out/soong/.intermediates/hardware/interfaces/bluetooth/audio/aidl/android.hardware.bluetooth.audio-V2-ndk-source/gen/include/aidl/android/hardware/bluetooth/audio/AudioLocation.h",
   "underlying_type" : "_ZTIi"
  },
  {
   "alignment" : 1,
   "enum_fields" :
   [
    {
     "enum_field_value" : 0,
     "name" : "aidl::android::hardware::bluetooth::audio::SbcAllocMethod::ALLOC_MD_S"
    },
    {
     "enum_field_value" : 1,
     "name" : "aidl::android::hardware::bluetooth::audio::SbcAllocMethod::ALLOC_MD_L"
    }
   ],
   "linker_set_key" : "_ZTIN4aidl7android8hardware9bluetooth5audio14SbcAllocMethodE",
   "name" : "aidl::android::hardware::bluetooth::audio::SbcAllocMethod",
   "referenced_type" : "_ZTIN4aidl7android8hardware9bluetooth5audio14SbcAllocMethodE",
   "self_type" : "_ZTIN4aidl7android8hardware9bluetooth5audio14SbcAllocMethodE",
   "size" : 1,
   "source_file" : "out/soong/.intermediates/hardware/interfaces/bluetooth/audio/aidl/android.hardware.bluetooth.audio-V2-ndk-source/gen/include/aidl/android/hardware/bluetooth/audio/SbcAllocMethod.h",
   "underlying_type" : "_ZTIa"
  },
  {
   "alignment" : 1,
   "enum_fields" :
   [
    {
     "enum_field_value" : 0,
     "name" : "aidl::android::hardware::bluetooth::audio::SbcChannelMode::UNKNOWN"
    },
    {
     "enum_field_value" : 1,
     "name" : "aidl::android::hardware::bluetooth::audio::SbcChannelMode::JOINT_STEREO"
    },
    {
     "enum_field_value" : 2,
     "name" : "aidl::android::hardware::bluetooth::audio::SbcChannelMode::STEREO"
    },
    {
     "enum_field_value" : 3,
     "name" : "aidl::android::hardware::bluetooth::audio::SbcChannelMode::DUAL"
    },
    {
     "enum_field_value" : 4,
     "name" : "aidl::android::hardware::bluetooth::audio::SbcChannelMode::MONO"
    }
   ],
   "linker_set_key" : "_ZTIN4aidl7android8hardware9bluetooth5audio14SbcChannelModeE",
   "name" : "aidl::android::hardware::bluetooth::audio::SbcChannelMode",
   "referenced_type" : "_ZTIN4aidl7android8hardware9bluetooth5audio14SbcChannelModeE",
   "self_type" : "_ZTIN4aidl7android8hardware9bluetooth5audio14SbcChannelModeE",
   "size" : 1,
   "source_file" : "out/soong/.intermediates/hardware/interfaces/bluetooth/audio/aidl/android.hardware.bluetooth.audio-V2-ndk-source/gen/include/aidl/android/hardware/bluetooth/audio/SbcChannelMode.h",
   "underlying_type" : "_ZTIa"
  },
  {
   "alignment" : 1,
   "enum_fields" :
   [
    {
     "enum_field_value" : 0,
     "name" : "aidl::android::hardware::bluetooth::audio::LdacChannelMode::UNKNOWN"
    },
    {
     "enum_field_value" : 1,
     "name" : "aidl::android::hardware::bluetooth::audio::LdacChannelMode::STEREO"
    },
    {
     "enum_field_value" : 2,
     "name" : "aidl::android::hardware::bluetooth::audio::LdacChannelMode::DUAL"
    },
    {
     "enum_field_value" : 3,
     "name" : "aidl::android::hardware::bluetooth::audio::LdacChannelMode::MONO"
    }
   ],
   "linker_set_key" : "_ZTIN4aidl7android8hardware9bluetooth5audio15LdacChannelModeE",
   "name" : "aidl::android::hardware::bluetooth::audio::LdacChannelMode",
   "referenced_type" : "_ZTIN4aidl7android8hardware9bluetooth5audio15LdacChannelModeE",
   "self_type" : "_ZTIN4aidl7android8hardware9bluetooth5audio15LdacChannelModeE",
   "size" : 1,
   "source_file" : "out/soong/.intermediates/hardware/interfaces/bluetooth/audio/aidl/android.hardware.bluetooth.audio-V2-ndk-source/gen/include/aidl/android/hardware/bluetooth/audio/LdacChannelMode.h",
   "underlying_type" : "_ZTIa"
  },
  {
   "alignment" : 1,
   "enum_fields" :
   [
    {
     "enum_field_value" : 0,
     "name" : "aidl::android::hardware::bluetooth::audio::LdacQualityIndex::HIGH"
    },
    {
     "enum_field_value" : 1,
     "name" : "aidl::android::hardware::bluetooth::audio::LdacQualityIndex::MID"
    },
    {
     "enum_field_value" : 2,
     "name" : "aidl::android::hardware::bluetooth::audio::LdacQualityIndex::LOW"
    },
    {
     "enum_field_value" : 3,
     "name" : "aidl::android::hardware::bluetooth::audio::LdacQualityIndex::ABR"
    }
   ],
   "linker_set_key" : "_ZTIN4aidl7android8hardware9bluetooth5audio16LdacQualityIndexE",
   "name" : "aidl::android::hardware::bluetooth::audio::LdacQualityIndex",
   "referenced_type" : "_ZTIN4aidl7android8hardware9bluetooth5audio16LdacQualityIndexE",
   "self_type" : "_ZTIN4aidl7android8hardware9bluetooth5audio16LdacQualityIndexE",
   "size" : 1,
   "source_file" : "out/soong/.intermediates/hardware/interfaces/bluetooth/audio/aidl/android.hardware.bluetooth.audio-V2-ndk-source/gen/include/aidl/android/hardware/bluetooth/audio/LdacQualityIndex.h",
   "underlying_type" : "_ZTIa"
  },
  {
   "alignment" : 4,
   "enum_fields" :
   [
    {
     "enum_field_value" : 0,
     "name" : "aidl::android::hardware::bluetooth::audio::AudioCapabilities::Tag::pcmCapabilities"
    },
    {
     "enum_field_value" : 1,
     "name" : "aidl::android::hardware::bluetooth::audio::AudioCapabilities::Tag::a2dpCapabilities"
    },
    {
     "enum_field_value" : 2,
     "name" : "aidl::android::hardware::bluetooth::audio::AudioCapabilities::Tag::leAudioCapabilities"
    }
   ],
   "linker_set_key" : "_ZTIN4aidl7android8hardware9bluetooth5audio17AudioCapabilities3TagE",
   "name" : "aidl::android::hardware::bluetooth::audio::AudioCapabilities::Tag",
   "referenced_type" : "_ZTIN4aidl7android8hardware9bluetooth5audio17AudioCapabilities3TagE",
   "self_type" : "_ZTIN4aidl7android8hardware9bluetooth5audio17AudioCapabilities3TagE",
   "size" : 4,
   "source_file" : "out/soong/.intermediates/hardware/interfaces/bluetooth/audio/aidl/android.hardware.bluetooth.audio-V2-ndk-source/gen/include/aidl/android/hardware/bluetooth/audio/AudioCapabilities.h",
   "underlying_type" : "_ZTIi"
  },
  {
   "alignment" : 4,
   "enum_fields" :
   [
    {
     "enum_field_value" : 0,
     "name" : "aidl::android::hardware::bluetooth::audio::CodecCapabilities::Capabilities::Tag::sbcCapabilities"
    },
    {
     "enum_field_value" : 1,
     "name" : "aidl::android::hardware::bluetooth::audio::CodecCapabilities::Capabilities::Tag::aacCapabilities"
    },
    {
     "enum_field_value" : 2,
     "name" : "aidl::android::hardware::bluetooth::audio::CodecCapabilities::Capabilities::Tag::ldacCapabilities"
    },
    {
     "enum_field_value" : 3,
     "name" : "aidl::android::hardware::bluetooth::audio::CodecCapabilities::Capabilities::Tag::aptxCapabilities"
    },
    {
     "enum_field_value" : 4,
     "name" : "aidl::android::hardware::bluetooth::audio::CodecCapabilities::Capabilities::Tag::aptxAdaptiveCapabilities"
    },
    {
     "enum_field_value" : 5,
     "name" : "aidl::android::hardware::bluetooth::audio::CodecCapabilities::Capabilities::Tag::lc3Capabilities"
    },
    {
     "enum_field_value" : 6,
     "name" : "aidl::android::hardware::bluetooth::audio::CodecCapabilities::Capabilities::Tag::vendorCapabilities"
    },
    {
     "enum_field_value" : 7,
     "name" : "aidl::android::hardware::bluetooth::audio::CodecCapabilities::Capabilities::Tag::opusCapabilities"
    }
   ],
   "linker_set_key" : "_ZTIN4aidl7android8hardware9bluetooth5audio17CodecCapabilities12Capabilities3TagE",
   "name" : "aidl::android::hardware::bluetooth::audio::CodecCapabilities::Capabilities::Tag",
   "referenced_type" : "_ZTIN4aidl7android8hardware9bluetooth5audio17CodecCapabilities12Capabilities3TagE",
   "self_type" : "_ZTIN4aidl7android8hardware9bluetooth5audio17CodecCapabilities12Capabilities3TagE",
   "size" : 4,
   "source_file" : "out/soong/.intermediates/hardware/interfaces/bluetooth/audio/aidl/android.hardware.bluetooth.audio-V2-ndk-source/gen/include/aidl/android/hardware/bluetooth/audio/CodecCapabilities.h",
   "underlying_type" : "_ZTIi"
  },
  {
   "alignment" : 4,
   "enum_fields" :
   [
    {
     "enum_field_value" : 0,
     "name" : "aidl::android::hardware::bluetooth::audio::UnicastCapability::LeAudioCodecCapabilities::Tag::lc3Capabilities"
    },
    {
     "enum_field_value" : 1,
     "name" : "aidl::android::hardware::bluetooth::audio::UnicastCapability::LeAudioCodecCapabilities::Tag::vendorCapabillities"
    }
   ],
   "linker_set_key" : "_ZTIN4aidl7android8hardware9bluetooth5audio17UnicastCapability24LeAudioCodecCapabilities3TagE",
   "name" : "aidl::android::hardware::bluetooth::audio::UnicastCapability::LeAudioCodecCapabilities::Tag",
   "referenced_type" : "_ZTIN4aidl7android8hardware9bluetooth5audio17UnicastCapability24LeAudioCodecCapabilities3TagE",
   "self_type" : "_ZTIN4aidl7android8hardware9bluetooth5audio17UnicastCapability24LeAudioCodecCapabilities3TagE",
   "size" : 4,
   "source_file" : "out/soong/.intermediates/hardware/interfaces/bluetooth/audio/aidl/android.hardware.bluetooth.audio-V2-ndk-source/gen/include/aidl/android/hardware/bluetooth/audio/UnicastCapability.h",
   "underlying_type" : "_ZTIi"
  },
  {
   "alignment" : 4,
   "enum_fields" :
   [
    {
     "enum_field_value" : 0,
     "name" : "aidl::android::hardware::bluetooth::audio::AudioConfiguration::Tag::pcmConfig"
    },
    {
     "enum_field_value" : 1,
     "name" : "aidl::android::hardware::bluetooth::audio::AudioConfiguration::Tag::a2dpConfig"
    },
    {
     "enum_field_value" : 2,
     "name" : "aidl::android::hardware::bluetooth::audio::AudioConfiguration::Tag::leAudioConfig"
    },
    {
     "enum_field_value" : 3,
     "name" : "aidl::android::hardware::bluetooth::audio::AudioConfiguration::Tag::leAudioBroadcastConfig"
    }
   ],
   "linker_set_key" : "_ZTIN4aidl7android8hardware9bluetooth5audio18AudioConfiguration3TagE",
   "name" : "aidl::android::hardware::bluetooth::audio::AudioConfiguration::Tag",
   "referenced_type" : "_ZTIN4aidl7android8hardware9bluetooth5audio18AudioConfiguration3TagE",
   "self_type" : "_ZTIN4aidl7android8hardware9bluetooth5audio18AudioConfiguration3TagE",
   "size" : 4,
   "source_file" : "out/soong/.intermediates/hardware/interfaces/bluetooth/audio/aidl/android.hardware.bluetooth.audio-V2-ndk-source/gen/include/aidl/android/hardware/bluetooth/audio/AudioConfiguration.h",
   "underlying_type" : "_ZTIi"
  },
  {
   "alignment" : 4,
   "enum_fields" :
   [
    {
     "enum_field_value" : 0,
     "name" : "aidl::android::hardware::bluetooth::audio::CodecConfiguration::CodecSpecific::Tag::sbcConfig"
    },
    {
     "enum_field_value" : 1,
     "name" : "aidl::android::hardware::bluetooth::audio::CodecConfiguration::CodecSpecific::Tag::aacConfig"
    },
    {
     "enum_field_value" : 2,
     "name" : "aidl::android::hardware::bluetooth::audio::CodecConfiguration::CodecSpecific::Tag::ldacConfig"
    },
    {
     "enum_field_value" : 3,
     "name" : "aidl::android::hardware::bluetooth::audio::CodecConfiguration::CodecSpecific::Tag::aptxConfig"
    },
    {
     "enum_field_value" : 4,
     "name" : "aidl::android::hardware::bluetooth::audio::CodecConfiguration::CodecSpecific::Tag::aptxAdaptiveConfig"
    },
    {
     "enum_field_value" : 5,
     "name" : "aidl::android::hardware::bluetooth::audio::CodecConfiguration::CodecSpecific::Tag::lc3Config"
    },
    {
     "enum_field_value" : 6,
     "name" : "aidl::android::hardware::bluetooth::audio::CodecConfiguration::CodecSpecific::Tag::vendorConfig"
    },
    {
     "enum_field_value" : 7,
     "name" : "aidl::android::hardware::bluetooth::audio::CodecConfiguration::CodecSpecific::Tag::opusConfig"
    }
   ],
   "linker_set_key" : "_ZTIN4aidl7android8hardware9bluetooth5audio18CodecConfiguration13CodecSpecific3TagE",
   "name" : "aidl::android::hardware::bluetooth::audio::CodecConfiguration::CodecSpecific::Tag",
   "referenced_type" : "_ZTIN4aidl7android8hardware9bluetooth5audio18CodecConfiguration13CodecSpecific3TagE",
   "self_type" : "_ZTIN4aidl7android8hardware9bluetooth5audio18CodecConfiguration13CodecSpecific3TagE",
   "size" : 4,
   "source_file" : "out/soong/.intermediates/hardware/interfaces/bluetooth/audio/aidl/android.hardware.bluetooth.audio-V2-ndk-source/gen/include/aidl/android/hardware/bluetooth/audio/CodecConfiguration.h",
   "underlying_type" : "_ZTIi"
  },
  {
   "alignment" : 4,
   "enum_fields" :
   [
    {
     "enum_field_value" : 0,
     "name" : "aidl::android::hardware::bluetooth::audio::BroadcastCapability::LeAudioCodecCapabilities::Tag::lc3Capabilities"
    },
    {
     "enum_field_value" : 1,
     "name" : "aidl::android::hardware::bluetooth::audio::BroadcastCapability::LeAudioCodecCapabilities::Tag::vendorCapabillities"
    }
   ],
   "linker_set_key" : "_ZTIN4aidl7android8hardware9bluetooth5audio19BroadcastCapability24LeAudioCodecCapabilities3TagE",
   "name" : "aidl::android::hardware::bluetooth::audio::BroadcastCapability::LeAudioCodecCapabilities::Tag",
   "referenced_type" : "_ZTIN4aidl7android8hardware9bluetooth5audio19BroadcastCapability24LeAudioCodecCapabilities3TagE",
   "self_type" : "_ZTIN4aidl7android8hardware9bluetooth5audio19BroadcastCapability24LeAudioCodecCapabilities3TagE",
   "size" : 4,
   "source_file" : "out/soong/.intermediates/hardware/interfaces/bluetooth/audio/aidl/android.hardware.bluetooth.audio-V2-ndk-source/gen/include/aidl/android/hardware/bluetooth/audio/BroadcastCapability.h",
   "underlying_type" : "_ZTIi"
  },
  {
   "alignment" : 4,
   "enum_fields" :
   [
    {
     "enum_field_value" : 0,
     "name" : "aidl::android::hardware::bluetooth::audio::BluetoothAudioStatus::UNKNOWN"
    },
    {
     "enum_field_value" : 1,
     "name" : "aidl::android::hardware::bluetooth::audio::BluetoothAudioStatus::SUCCESS"
    },
    {
     "enum_field_value" : 2,
     "name" : "aidl::android::hardware::bluetooth::audio::BluetoothAudioStatus::UNSUPPORTED_CODEC_CONFIGURATION"
    },
    {
     "enum_field_value" : 3,
     "name" : "aidl::android::hardware::bluetooth::audio::BluetoothAudioStatus::FAILURE"
    },
    {
     "enum_field_value" : 4,
     "name" : "aidl::android::hardware::bluetooth::audio::BluetoothAudioStatus::RECONFIGURATION"
    }
   ],
   "linker_set_key" : "_ZTIN4aidl7android8hardware9bluetooth5audio20BluetoothAudioStatusE",
   "name" : "aidl::android::hardware::bluetooth::audio::BluetoothAudioStatus",
   "referenced_type" : "_ZTIN4aidl7android8hardware9bluetooth5audio20BluetoothAudioStatusE",
   "self_type" : "_ZTIN4aidl7android8hardware9bluetooth5audio20BluetoothAudioStatusE",
   "size" : 4,
   "source_file" : "out/soong/.intermediates/hardware/interfaces/bluetooth/audio/aidl/android.hardware.bluetooth.audio-V2-ndk-source/gen/include/aidl/android/hardware/bluetooth/audio/BluetoothAudioStatus.h",
   "underlying_type" : "_ZTIi"
  },
  {
   "alignment" : 4,
   "enum_fields" :
   [
    {
     "enum_field_value" : 0,
     "name" : "aidl::android::hardware::bluetooth::audio::AptxAdaptiveInputMode::STEREO"
    },
    {
     "enum_field_value" : 1,
     "name" : "aidl::android::hardware::bluetooth::audio::AptxAdaptiveInputMode::DUAL_MONO"
    }
   ],
   "linker_set_key" : "_ZTIN4aidl7android8hardware9bluetooth5audio21AptxAdaptiveInputModeE",
   "name" : "aidl::android::hardware::bluetooth::audio::AptxAdaptiveInputMode",
   "referenced_type" : "_ZTIN4aidl7android8hardware9bluetooth5audio21AptxAdaptiveInputModeE",
   "self_type" : "_ZTIN4aidl7android8hardware9bluetooth5audio21AptxAdaptiveInputModeE",
   "size" : 4,
   "source_file" : "out/soong/.intermediates/hardware/interfaces/bluetooth/audio/aidl/android.hardware.bluetooth.audio-V2-ndk-source/gen/include/aidl/android/hardware/bluetooth/audio/AptxAdaptiveInputMode.h",
   "underlying_type" : "_ZTIi"
  },
  {
   "alignment" : 4,
   "enum_fields" :
   [
    {
     "enum_field_value" : 0,
     "name" : "aidl::android::hardware::bluetooth::audio::AptxAdaptiveChannelMode::JOINT_STEREO"
    },
    {
     "enum_field_value" : 1,
     "name" : "aidl::android::hardware::bluetooth::audio::AptxAdaptiveChannelMode::MONO"
    },
    {
     "enum_field_value" : 2,
     "name" : "aidl::android::hardware::bluetooth::audio::AptxAdaptiveChannelMode::DUAL_MONO"
    },
    {
     "enum_field_value" : 4,
     "name" : "aidl::android::hardware::bluetooth::audio::AptxAdaptiveChannelMode::TWS_STEREO"
    },
    {
     "enum_field_value" : 255,
     "name" : "aidl::android::hardware::bluetooth::audio::AptxAdaptiveChannelMode::UNKNOWN"
    }
   ],
   "linker_set_key" : "_ZTIN4aidl7android8hardware9bluetooth5audio23AptxAdaptiveChannelModeE",
   "name" : "aidl::android::hardware::bluetooth::audio::AptxAdaptiveChannelMode",
   "referenced_type" : "_ZTIN4aidl7android8hardware9bluetooth5audio23AptxAdaptiveChannelModeE",
   "self_type" : "_ZTIN4aidl7android8hardware9bluetooth5audio23AptxAdaptiveChannelModeE",
   "size" : 4,
   "source_file" : "out/soong/.intermediates/hardware/interfaces/bluetooth/audio/aidl/android.hardware.bluetooth.audio-V2-ndk-source/gen/include/aidl/android/hardware/bluetooth/audio/AptxAdaptiveChannelMode.h",
   "underlying_type" : "_ZTIi"
  },
  {
   "alignment" : 4,
   "enum_fields" :
   [
    {
     "enum_field_value" : 0,
     "name" : "aidl::android::hardware::bluetooth::audio::LeAudioCodecConfiguration::Tag::lc3Config"
    },
    {
     "enum_field_value" : 1,
     "name" : "aidl::android::hardware::bluetooth::audio::LeAudioCodecConfiguration::Tag::vendorConfig"
    }
   ],
   "linker_set_key" : "_ZTIN4aidl7android8hardware9bluetooth5audio25LeAudioCodecConfiguration3TagE",
   "name" : "aidl::android::hardware::bluetooth::audio::LeAudioCodecConfiguration::Tag",
   "referenced_type" : "_ZTIN4aidl7android8hardware9bluetooth5audio25LeAudioCodecConfiguration3TagE",
   "self_type" : "_ZTIN4aidl7android8hardware9bluetooth5audio25LeAudioCodecConfiguration3TagE",
   "size" : 4,
   "source_file" : "out/soong/.intermediates/hardware/interfaces/bluetooth/audio/aidl/android.hardware.bluetooth.audio-V2-ndk-source/gen/include/aidl/android/hardware/bluetooth/audio/LeAudioCodecConfiguration.h",
   "underlying_type" : "_ZTIi"
  },
  {
   "alignment" : 4,
   "enum_fields" :
   [
    {
     "enum_field_value" : 0,
     "name" : "aidl::android::hardware::bluetooth::audio::AptxMode::UNKNOWN"
    },
    {
     "enum_field_value" : 4096,
     "name" : "aidl::android::hardware::bluetooth::audio::AptxMode::HIGH_QUALITY"
    },
    {
     "enum_field_value" : 8192,
     "name" : "aidl::android::hardware::bluetooth::audio::AptxMode::LOW_LATENCY"
    },
    {
     "enum_field_value" : 16384,
     "name" : "aidl::android::hardware::bluetooth::audio::AptxMode::ULTRA_LOW_LATENCY"
    }
   ],
   "linker_set_key" : "_ZTIN4aidl7android8hardware9bluetooth5audio8AptxModeE",
   "name" : "aidl::android::hardware::bluetooth::audio::AptxMode",
   "referenced_type" : "_ZTIN4aidl7android8hardware9bluetooth5audio8AptxModeE",
   "self_type" : "_ZTIN4aidl7android8hardware9bluetooth5audio8AptxModeE",
   "size" : 4,
   "source_file" : "out/soong/.intermediates/hardware/interfaces/bluetooth/audio/aidl/android.hardware.bluetooth.audio-V2-ndk-source/gen/include/aidl/android/hardware/bluetooth/audio/AptxMode.h",
   "underlying_type" : "_ZTIi"
  },
  {
   "alignment" : 4,
   "enum_fields" :
   [
    {
     "enum_field_value" : 0,
     "name" : "aidl::android::hardware::bluetooth::audio::CodecType::UNKNOWN"
    },
    {
     "enum_field_value" : 1,
     "name" : "aidl::android::hardware::bluetooth::audio::CodecType::SBC"
    },
    {
     "enum_field_value" : 2,
     "name" : "aidl::android::hardware::bluetooth::audio::CodecType::AAC"
    },
    {
     "enum_field_value" : 3,
     "name" : "aidl::android::hardware::bluetooth::audio::CodecType::APTX"
    },
    {
     "enum_field_value" : 4,
     "name" : "aidl::android::hardware::bluetooth::audio::CodecType::APTX_HD"
    },
    {
     "enum_field_value" : 5,
     "name" : "aidl::android::hardware::bluetooth::audio::CodecType::LDAC"
    },
    {
     "enum_field_value" : 6,
     "name" : "aidl::android::hardware::bluetooth::audio::CodecType::LC3"
    },
    {
     "enum_field_value" : 7,
     "name" : "aidl::android::hardware::bluetooth::audio::CodecType::VENDOR"
    },
    {
     "enum_field_value" : 8,
     "name" : "aidl::android::hardware::bluetooth::audio::CodecType::APTX_ADAPTIVE"
    },
    {
     "enum_field_value" : 9,
     "name" : "aidl::android::hardware::bluetooth::audio::CodecType::OPUS"
    }
   ],
   "linker_set_key" : "_ZTIN4aidl7android8hardware9bluetooth5audio9CodecTypeE",
   "name" : "aidl::android::hardware::bluetooth::audio::CodecType",
   "referenced_type" : "_ZTIN4aidl7android8hardware9bluetooth5audio9CodecTypeE",
   "self_type" : "_ZTIN4aidl7android8hardware9bluetooth5audio9CodecTypeE",
   "size" : 4,
   "source_file" : "out/soong/.intermediates/hardware/interfaces/bluetooth/audio/aidl/android.hardware.bluetooth.audio-V2-ndk-source/gen/include/aidl/android/hardware/bluetooth/audio/CodecType.h",
   "underlying_type" : "_ZTIi"
  },
  {
   "alignment" : 4,
   "enum_fields" :
   [
    {
     "enum_field_value" : 1,
     "name" : "android::internal::details::IsIterable<std::vector<ndk::ScopedFileDescriptor>>::value"
    }
   ],
   "linker_set_key" : "_ZTIN7android8internal7details10IsIterableINSt3__16vectorIN3ndk20ScopedFileDescriptorENS3_9allocatorIS6_EEEEE6$valueE",
   "name" : "android::internal::details::IsIterable<std::vector<ndk::ScopedFileDescriptor, std::allocator<ndk::ScopedFileDescriptor>>>::(unnamed enum at frameworks/native/libs/binder/ndk/include_cpp/android/binder_to_string.h:131:5)",
   "referenced_type" : "_ZTIN7android8internal7details10IsIterableINSt3__16vectorIN3ndk20ScopedFileDescriptorENS3_9allocatorIS6_EEEEE6$valueE",
   "self_type" : "_ZTIN7android8internal7details10IsIterableINSt3__16vectorIN3ndk20ScopedFileDescriptorENS3_9allocatorIS6_EEEEE6$valueE",
   "size" : 4,
   "source_file" : "frameworks/native/libs/binder/ndk/include_cpp/android/binder_to_string.h",
   "underlying_type" : "_ZTIj"
  },
  {
   "alignment" : 4,
   "enum_fields" :
   [
    {
     "enum_field_value" : 1,
     "name" : "android::internal::details::IsIterable<std::vector<aidl::android::hardware::audio::common::RecordTrackMetadata>>::value"
    }
   ],
   "linker_set_key" : "_ZTIN7android8internal7details10IsIterableINSt3__16vectorIN4aidl7android8hardware5audio6common19RecordTrackMetadataENS3_9allocatorISA_EEEEE6$valueE",
   "name" : "android::internal::details::IsIterable<std::vector<aidl::android::hardware::audio::common::RecordTrackMetadata, std::allocator<aidl::android::hardware::audio::common::RecordTrackMetadata>>>::(unnamed enum at frameworks/native/libs/binder/ndk/include_cpp/android/binder_to_string.h:131:5)",
   "referenced_type" : "_ZTIN7android8internal7details10IsIterableINSt3__16vectorIN4aidl7android8hardware5audio6common19RecordTrackMetadataENS3_9allocatorISA_EEEEE6$valueE",
   "self_type" : "_ZTIN7android8internal7details10IsIterableINSt3__16vectorIN4aidl7android8hardware5audio6common19RecordTrackMetadataENS3_9allocatorISA_EEEEE6$valueE",
   "size" : 4,
   "source_file" : "frameworks/native/libs/binder/ndk/include_cpp/android/binder_to_string.h",
   "underlying_type" : "_ZTIj"
  },
  {
   "alignment" : 4,
   "enum_fields" :
   [
    {
     "enum_field_value" : 1,
     "name" : "android::internal::details::IsIterable<std::vector<aidl::android::hardware::audio::common::PlaybackTrackMetadata>>::value"
    }
   ],
   "linker_set_key" : "_ZTIN7android8internal7details10IsIterableINSt3__16vectorIN4aidl7android8hardware5audio6common21PlaybackTrackMetadataENS3_9allocatorISA_EEEEE6$valueE",
   "name" : "android::internal::details::IsIterable<std::vector<aidl::android::hardware::audio::common::PlaybackTrackMetadata, std::allocator<aidl::android::hardware::audio::common::PlaybackTrackMetadata>>>::(unnamed enum at frameworks/native/libs/binder/ndk/include_cpp/android/binder_to_string.h:131:5)",
   "referenced_type" : "_ZTIN7android8internal7details10IsIterableINSt3__16vectorIN4aidl7android8hardware5audio6common21PlaybackTrackMetadataENS3_9allocatorISA_EEEEE6$valueE",
   "self_type" : "_ZTIN7android8internal7details10IsIterableINSt3__16vectorIN4aidl7android8hardware5audio6common21PlaybackTrackMetadataENS3_9allocatorISA_EEEEE6$valueE",
   "size" : 4,
   "source_file" : "frameworks/native/libs/binder/ndk/include_cpp/android/binder_to_string.h",
   "underlying_type" : "_ZTIj"
  },
  {
   "alignment" : 4,
   "enum_fields" :
   [
    {
     "enum_field_value" : 1,
     "name" : "android::internal::details::IsIterable<std::vector<aidl::android::hardware::bluetooth::audio::ChannelMode>>::value"
    }
   ],
   "linker_set_key" : "_ZTIN7android8internal7details10IsIterableINSt3__16vectorIN4aidl7android8hardware9bluetooth5audio11ChannelModeENS3_9allocatorISA_EEEEE6$valueE",
   "name" : "android::internal::details::IsIterable<std::vector<aidl::android::hardware::bluetooth::audio::ChannelMode, std::allocator<aidl::android::hardware::bluetooth::audio::ChannelMode>>>::(unnamed enum at frameworks/native/libs/binder/ndk/include_cpp/android/binder_to_string.h:131:5)",
   "referenced_type" : "_ZTIN7android8internal7details10IsIterableINSt3__16vectorIN4aidl7android8hardware9bluetooth5audio11ChannelModeENS3_9allocatorISA_EEEEE6$valueE",
   "self_type" : "_ZTIN7android8internal7details10IsIterableINSt3__16vectorIN4aidl7android8hardware9bluetooth5audio11ChannelModeENS3_9allocatorISA_EEEEE6$valueE",
   "size" : 4,
   "source_file" : "frameworks/native/libs/binder/ndk/include_cpp/android/binder_to_string.h",
   "underlying_type" : "_ZTIj"
  },
  {
   "alignment" : 4,
   "enum_fields" :
   [
    {
     "enum_field_value" : 1,
     "name" : "android::internal::details::IsIterable<std::vector<aidl::android::hardware::bluetooth::audio::AacObjectType>>::value"
    }
   ],
   "linker_set_key" : "_ZTIN7android8internal7details10IsIterableINSt3__16vectorIN4aidl7android8hardware9bluetooth5audio13AacObjectTypeENS3_9allocatorISA_EEEEE6$valueE",
   "name" : "android::internal::details::IsIterable<std::vector<aidl::android::hardware::bluetooth::audio::AacObjectType, std::allocator<aidl::android::hardware::bluetooth::audio::AacObjectType>>>::(unnamed enum at frameworks/native/libs/binder/ndk/include_cpp/android/binder_to_string.h:131:5)",
   "referenced_type" : "_ZTIN7android8internal7details10IsIterableINSt3__16vectorIN4aidl7android8hardware9bluetooth5audio13AacObjectTypeENS3_9allocatorISA_EEEEE6$valueE",
   "self_type" : "_ZTIN7android8internal7details10IsIterableINSt3__16vectorIN4aidl7android8hardware9bluetooth5audio13AacObjectTypeENS3_9allocatorISA_EEEEE6$valueE",
   "size" : 4,
   "source_file" : "frameworks/native/libs/binder/ndk/include_cpp/android/binder_to_string.h",
   "underlying_type" : "_ZTIj"
  },
  {
   "alignment" : 4,
   "enum_fields" :
   [
    {
     "enum_field_value" : 1,
     "name" : "android::internal::details::IsIterable<std::vector<aidl::android::hardware::bluetooth::audio::SbcAllocMethod>>::value"
    }
   ],
   "linker_set_key" : "_ZTIN7android8internal7details10IsIterableINSt3__16vectorIN4aidl7android8hardware9bluetooth5audio14SbcAllocMethodENS3_9allocatorISA_EEEEE6$valueE",
   "name" : "android::internal::details::IsIterable<std::vector<aidl::android::hardware::bluetooth::audio::SbcAllocMethod, std::allocator<aidl::android::hardware::bluetooth::audio::SbcAllocMethod>>>::(unnamed enum at frameworks/native/libs/binder/ndk/include_cpp/android/binder_to_string.h:131:5)",
   "referenced_type" : "_ZTIN7android8internal7details10IsIterableINSt3__16vectorIN4aidl7android8hardware9bluetooth5audio14SbcAllocMethodENS3_9allocatorISA_EEEEE6$valueE",
   "self_type" : "_ZTIN7android8internal7details10IsIterableINSt3__16vectorIN4aidl7android8hardware9bluetooth5audio14SbcAllocMethodENS3_9allocatorISA_EEEEE6$valueE",
   "size" : 4,
   "source_file" : "frameworks/native/libs/binder/ndk/include_cpp/android/binder_to_string.h",
   "underlying_type" : "_ZTIj"
  },
  {
   "alignment" : 4,
   "enum_fields" :
   [
    {
     "enum_field_value" : 1,
     "name" : "android::internal::details::IsIterable<std::vector<aidl::android::hardware::bluetooth::audio::SbcChannelMode>>::value"
    }
   ],
   "linker_set_key" : "_ZTIN7android8internal7details10IsIterableINSt3__16vectorIN4aidl7android8hardware9bluetooth5audio14SbcChannelModeENS3_9allocatorISA_EEEEE6$valueE",
   "name" : "android::internal::details::IsIterable<std::vector<aidl::android::hardware::bluetooth::audio::SbcChannelMode, std::allocator<aidl::android::hardware::bluetooth::audio::SbcChannelMode>>>::(unnamed enum at frameworks/native/libs/binder/ndk/include_cpp/android/binder_to_string.h:131:5)",
   "referenced_type" : "_ZTIN7android8internal7details10IsIterableINSt3__16vectorIN4aidl7android8hardware9bluetooth5audio14SbcChannelModeENS3_9allocatorISA_EEEEE6$valueE",
   "self_type" : "_ZTIN7android8internal7details10IsIterableINSt3__16vectorIN4aidl7android8hardware9bluetooth5audio14SbcChannelModeENS3_9allocatorISA_EEEEE6$valueE",
   "size" : 4,
   "source_file" : "frameworks/native/libs/binder/ndk/include_cpp/android/binder_to_string.h",
   "underlying_type" : "_ZTIj"
  },
  {
   "alignment" : 4,
   "enum_fields" :
   [
    {
     "enum_field_value" : 1,
     "name" : "android::internal::details::IsIterable<std::vector<aidl::android::hardware::bluetooth::audio::LdacChannelMode>>::value"
    }
   ],
   "linker_set_key" : "_ZTIN7android8internal7details10IsIterableINSt3__16vectorIN4aidl7android8hardware9bluetooth5audio15LdacChannelModeENS3_9allocatorISA_EEEEE6$valueE",
   "name" : "android::internal::details::IsIterable<std::vector<aidl::android::hardware::bluetooth::audio::LdacChannelMode, std::allocator<aidl::android::hardware::bluetooth::audio::LdacChannelMode>>>::(unnamed enum at frameworks/native/libs/binder/ndk/include_cpp/android/binder_to_string.h:131:5)",
   "referenced_type" : "_ZTIN7android8internal7details10IsIterableINSt3__16vectorIN4aidl7android8hardware9bluetooth5audio15LdacChannelModeENS3_9allocatorISA_EEEEE6$valueE",
   "self_type" : "_ZTIN7android8internal7details10IsIterableINSt3__16vectorIN4aidl7android8hardware9bluetooth5audio15LdacChannelModeENS3_9allocatorISA_EEEEE6$valueE",
   "size" : 4,
   "source_file" : "frameworks/native/libs/binder/ndk/include_cpp/android/binder_to_string.h",
   "underlying_type" : "_ZTIj"
  },
  {
   "alignment" : 4,
   "enum_fields" :
   [
    {
     "enum_field_value" : 1,
     "name" : "android::internal::details::IsIterable<std::vector<aidl::android::hardware::bluetooth::audio::LdacQualityIndex>>::value"
    }
   ],
   "linker_set_key" : "_ZTIN7android8internal7details10IsIterableINSt3__16vectorIN4aidl7android8hardware9bluetooth5audio16LdacQualityIndexENS3_9allocatorISA_EEEEE6$valueE",
   "name" : "android::internal::details::IsIterable<std::vector<aidl::android::hardware::bluetooth::audio::LdacQualityIndex, std::allocator<aidl::android::hardware::bluetooth::audio::LdacQualityIndex>>>::(unnamed enum at frameworks/native/libs/binder/ndk/include_cpp/android/binder_to_string.h:131:5)",
   "referenced_type" : "_ZTIN7android8internal7details10IsIterableINSt3__16vectorIN4aidl7android8hardware9bluetooth5audio16LdacQualityIndexENS3_9allocatorISA_EEEEE6$valueE",
   "self_type" : "_ZTIN7android8internal7details10IsIterableINSt3__16vectorIN4aidl7android8hardware9bluetooth5audio16LdacQualityIndexENS3_9allocatorISA_EEEEE6$valueE",
   "size" : 4,
   "source_file" : "frameworks/native/libs/binder/ndk/include_cpp/android/binder_to_string.h",
   "underlying_type" : "_ZTIj"
  },
  {
   "alignment" : 4,
   "enum_fields" :
   [
    {
     "enum_field_value" : 1,
     "name" : "android::internal::details::IsIterable<std::vector<aidl::android::hardware::bluetooth::audio::LeAudioConfiguration::StreamMap>>::value"
    }
   ],
   "linker_set_key" : "_ZTIN7android8internal7details10IsIterableINSt3__16vectorIN4aidl7android8hardware9bluetooth5audio20LeAudioConfiguration9StreamMapENS3_9allocatorISB_EEEEE6$valueE",
   "name" : "android::internal::details::IsIterable<std::vector<aidl::android::hardware::bluetooth::audio::LeAudioConfiguration::StreamMap, std::allocator<aidl::android::hardware::bluetooth::audio::LeAudioConfiguration::StreamMap>>>::(unnamed enum at frameworks/native/libs/binder/ndk/include_cpp/android/binder_to_string.h:131:5)",
   "referenced_type" : "_ZTIN7android8internal7details10IsIterableINSt3__16vectorIN4aidl7android8hardware9bluetooth5audio20LeAudioConfiguration9StreamMapENS3_9allocatorISB_EEEEE6$valueE",
   "self_type" : "_ZTIN7android8internal7details10IsIterableINSt3__16vectorIN4aidl7android8hardware9bluetooth5audio20LeAudioConfiguration9StreamMapENS3_9allocatorISB_EEEEE6$valueE",
   "size" : 4,
   "source_file" : "frameworks/native/libs/binder/ndk/include_cpp/android/binder_to_string.h",
   "underlying_type" : "_ZTIj"
  },
  {
   "alignment" : 4,
   "enum_fields" :
   [
    {
     "enum_field_value" : 1,
     "name" : "android::internal::details::IsIterable<std::vector<aidl::android::hardware::bluetooth::audio::AptxAdaptiveChannelMode>>::value"
    }
   ],
   "linker_set_key" : "_ZTIN7android8internal7details10IsIterableINSt3__16vectorIN4aidl7android8hardware9bluetooth5audio23AptxAdaptiveChannelModeENS3_9allocatorISA_EEEEE6$valueE",
   "name" : "android::internal::details::IsIterable<std::vector<aidl::android::hardware::bluetooth::audio::AptxAdaptiveChannelMode, std::allocator<aidl::android::hardware::bluetooth::audio::AptxAdaptiveChannelMode>>>::(unnamed enum at frameworks/native/libs/binder/ndk/include_cpp/android/binder_to_string.h:131:5)",
   "referenced_type" : "_ZTIN7android8internal7details10IsIterableINSt3__16vectorIN4aidl7android8hardware9bluetooth5audio23AptxAdaptiveChannelModeENS3_9allocatorISA_EEEEE6$valueE",
   "self_type" : "_ZTIN7android8internal7details10IsIterableINSt3__16vectorIN4aidl7android8hardware9bluetooth5audio23AptxAdaptiveChannelModeENS3_9allocatorISA_EEEEE6$valueE",
   "size" : 4,
   "source_file" : "frameworks/native/libs/binder/ndk/include_cpp/android/binder_to_string.h",
   "underlying_type" : "_ZTIj"
  },
  {
   "alignment" : 4,
   "enum_fields" :
   [
    {
     "enum_field_value" : 1,
     "name" : "android::internal::details::IsIterable<std::vector<aidl::android::hardware::bluetooth::audio::LeAudioBroadcastConfiguration::BroadcastStreamMap>>::value"
    }
   ],
   "linker_set_key" : "_ZTIN7android8internal7details10IsIterableINSt3__16vectorIN4aidl7android8hardware9bluetooth5audio29LeAudioBroadcastConfiguration18BroadcastStreamMapENS3_9allocatorISB_EEEEE6$valueE",
   "name" : "android::internal::details::IsIterable<std::vector<aidl::android::hardware::bluetooth::audio::LeAudioBroadcastConfiguration::BroadcastStreamMap, std::allocator<aidl::android::hardware::bluetooth::audio::LeAudioBroadcastConfiguration::BroadcastStreamMap>>>::(unnamed enum at frameworks/native/libs/binder/ndk/include_cpp/android/binder_to_string.h:131:5)",
   "referenced_type" : "_ZTIN7android8internal7details10IsIterableINSt3__16vectorIN4aidl7android8hardware9bluetooth5audio29LeAudioBroadcastConfiguration18BroadcastStreamMapENS3_9allocatorISB_EEEEE6$valueE",
   "self_type" : "_ZTIN7android8internal7details10IsIterableINSt3__16vectorIN4aidl7android8hardware9bluetooth5audio29LeAudioBroadcastConfiguration18BroadcastStreamMapENS3_9allocatorISB_EEEEE6$valueE",
   "size" : 4,
   "source_file" : "frameworks/native/libs/binder/ndk/include_cpp/android/binder_to_string.h",
   "underlying_type" : "_ZTIj"
  },
  {
   "alignment" : 4,
   "enum_fields" :
   [
    {
     "enum_field_value" : 1,
     "name" : "android::internal::details::IsIterable<std::vector<aidl::android::hardware::bluetooth::audio::AptxMode>>::value"
    }
   ],
   "linker_set_key" : "_ZTIN7android8internal7details10IsIterableINSt3__16vectorIN4aidl7android8hardware9bluetooth5audio8AptxModeENS3_9allocatorISA_EEEEE6$valueE",
   "name" : "android::internal::details::IsIterable<std::vector<aidl::android::hardware::bluetooth::audio::AptxMode, std::allocator<aidl::android::hardware::bluetooth::audio::AptxMode>>>::(unnamed enum at frameworks/native/libs/binder/ndk/include_cpp/android/binder_to_string.h:131:5)",
   "referenced_type" : "_ZTIN7android8internal7details10IsIterableINSt3__16vectorIN4aidl7android8hardware9bluetooth5audio8AptxModeENS3_9allocatorISA_EEEEE6$valueE",
   "self_type" : "_ZTIN7android8internal7details10IsIterableINSt3__16vectorIN4aidl7android8hardware9bluetooth5audio8AptxModeENS3_9allocatorISA_EEEEE6$valueE",
   "size" : 4,
   "source_file" : "frameworks/native/libs/binder/ndk/include_cpp/android/binder_to_string.h",
   "underlying_type" : "_ZTIj"
  },
  {
   "alignment" : 4,
   "enum_fields" :
   [
    {
     "enum_field_value" : 1,
     "name" : "android::internal::details::IsIterable<std::vector<std::basic_string<char>>>::value"
    }
   ],
   "linker_set_key" : "_ZTIN7android8internal7details10IsIterableINSt3__16vectorINS3_12basic_stringIcNS3_11char_traitsIcEENS3_9allocatorIcEEEENS8_ISA_EEEEE6$valueE",
   "name" : "android::internal::details::IsIterable<std::vector<std::basic_string<char, std::char_traits<char>, std::allocator<char>>, std::allocator<std::basic_string<char, std::char_traits<char>, std::allocator<char>>>>>::(unnamed enum at frameworks/native/libs/binder/ndk/include_cpp/android/binder_to_string.h:131:5)",
   "referenced_type" : "_ZTIN7android8internal7details10IsIterableINSt3__16vectorINS3_12basic_stringIcNS3_11char_traitsIcEENS3_9allocatorIcEEEENS8_ISA_EEEEE6$valueE",
   "self_type" : "_ZTIN7android8internal7details10IsIterableINSt3__16vectorINS3_12basic_stringIcNS3_11char_traitsIcEENS3_9allocatorIcEEEENS8_ISA_EEEEE6$valueE",
   "size" : 4,
   "source_file" : "frameworks/native/libs/binder/ndk/include_cpp/android/binder_to_string.h",
   "underlying_type" : "_ZTIj"
  },
  {
   "alignment" : 4,
   "enum_fields" :
   [
    {
     "enum_field_value" : 1,
     "name" : "android::internal::details::IsIterable<std::vector<std::optional<aidl::android::hardware::bluetooth::audio::Lc3Capabilities>>>::value"
    }
   ],
   "linker_set_key" : "_ZTIN7android8internal7details10IsIterableINSt3__16vectorINS3_8optionalIN4aidl7android8hardware9bluetooth5audio15Lc3CapabilitiesEEENS3_9allocatorISC_EEEEE6$valueE",
   "name" : "android::internal::details::IsIterable<std::vector<std::optional<aidl::android::hardware::bluetooth::audio::Lc3Capabilities>, std::allocator<std::optional<aidl::android::hardware::bluetooth::audio::Lc3Capabilities>>>>::(unnamed enum at frameworks/native/libs/binder/ndk/include_cpp/android/binder_to_string.h:131:5)",
   "referenced_type" : "_ZTIN7android8internal7details10IsIterableINSt3__16vectorINS3_8optionalIN4aidl7android8hardware9bluetooth5audio15Lc3CapabilitiesEEENS3_9allocatorISC_EEEEE6$valueE",
   "self_type" : "_ZTIN7android8internal7details10IsIterableINSt3__16vectorINS3_8optionalIN4aidl7android8hardware9bluetooth5audio15Lc3CapabilitiesEEENS3_9allocatorISC_EEEEE6$valueE",
   "size" : 4,
   "source_file" : "frameworks/native/libs/binder/ndk/include_cpp/android/binder_to_string.h",
   "underlying_type" : "_ZTIj"
  },
  {
   "alignment" : 4,
   "enum_fields" :
   [
    {
     "enum_field_value" : 1,
     "name" : "android::internal::details::IsIterable<std::vector<std::optional<aidl::android::hardware::bluetooth::audio::BroadcastCapability::VendorCapabilities>>>::value"
    }
   ],
   "linker_set_key" : "_ZTIN7android8internal7details10IsIterableINSt3__16vectorINS3_8optionalIN4aidl7android8hardware9bluetooth5audio19BroadcastCapability18VendorCapabilitiesEEENS3_9allocatorISD_EEEEE6$valueE",
   "name" : "android::internal::details::IsIterable<std::vector<std::optional<aidl::android::hardware::bluetooth::audio::BroadcastCapability::VendorCapabilities>, std::allocator<std::optional<aidl::android::hardware::bluetooth::audio::BroadcastCapability::VendorCapabilities>>>>::(unnamed enum at frameworks/native/libs/binder/ndk/include_cpp/android/binder_to_string.h:131:5)",
   "referenced_type" : "_ZTIN7android8internal7details10IsIterableINSt3__16vectorINS3_8optionalIN4aidl7android8hardware9bluetooth5audio19BroadcastCapability18VendorCapabilitiesEEENS3_9allocatorISD_EEEEE6$valueE",
   "self_type" : "_ZTIN7android8internal7details10IsIterableINSt3__16vectorINS3_8optionalIN4aidl7android8hardware9bluetooth5audio19BroadcastCapability18VendorCapabilitiesEEENS3_9allocatorISD_EEEEE6$valueE",
   "size" : 4,
   "source_file" : "frameworks/native/libs/binder/ndk/include_cpp/android/binder_to_string.h",
   "underlying_type" : "_ZTIj"
  },
  {
   "alignment" : 4,
   "enum_fields" :
   [
    {
     "enum_field_value" : 1,
     "name" : "android::internal::details::IsIterable<std::vector<unsigned char>>::value"
    }
   ],
   "linker_set_key" : "_ZTIN7android8internal7details10IsIterableINSt3__16vectorIhNS3_9allocatorIhEEEEE6$valueE",
   "name" : "android::internal::details::IsIterable<std::vector<unsigned char, std::allocator<unsigned char>>>::(unnamed enum at frameworks/native/libs/binder/ndk/include_cpp/android/binder_to_string.h:131:5)",
   "referenced_type" : "_ZTIN7android8internal7details10IsIterableINSt3__16vectorIhNS3_9allocatorIhEEEEE6$valueE",
   "self_type" : "_ZTIN7android8internal7details10IsIterableINSt3__16vectorIhNS3_9allocatorIhEEEEE6$valueE",
   "size" : 4,
   "source_file" : "frameworks/native/libs/binder/ndk/include_cpp/android/binder_to_string.h",
   "underlying_type" : "_ZTIj"
  },
  {
   "alignment" : 4,
   "enum_fields" :
   [
    {
     "enum_field_value" : 1,
     "name" : "android::internal::details::IsIterable<std::vector<int>>::value"
    }
   ],
   "linker_set_key" : "_ZTIN7android8internal7details10IsIterableINSt3__16vectorIiNS3_9allocatorIiEEEEE6$valueE",
   "name" : "android::internal::details::IsIterable<std::vector<int, std::allocator<int>>>::(unnamed enum at frameworks/native/libs/binder/ndk/include_cpp/android/binder_to_string.h:131:5)",
   "referenced_type" : "_ZTIN7android8internal7details10IsIterableINSt3__16vectorIiNS3_9allocatorIiEEEEE6$valueE",
   "self_type" : "_ZTIN7android8internal7details10IsIterableINSt3__16vectorIiNS3_9allocatorIiEEEEE6$valueE",
   "size" : 4,
   "source_file" : "frameworks/native/libs/binder/ndk/include_cpp/android/binder_to_string.h",
   "underlying_type" : "_ZTIj"
  },
  {
   "alignment" : 4,
   "enum_fields" :
   [
    {
     "enum_field_value" : 0,
     "name" : "android::internal::details::IsPointerLike<aidl::android::media::audio::common::AudioUsage>::value"
    }
   ],
   "linker_set_key" : "_ZTIN7android8internal7details13IsPointerLikeIN4aidl7android5media5audio6common10AudioUsageEE6$valueE",
   "name" : "android::internal::details::IsPointerLike<aidl::android::media::audio::common::AudioUsage>::(unnamed enum at frameworks/native/libs/binder/ndk/include_cpp/android/binder_to_string.h:118:5)",
   "referenced_type" : "_ZTIN7android8internal7details13IsPointerLikeIN4aidl7android5media5audio6common10AudioUsageEE6$valueE",
   "self_type" : "_ZTIN7android8internal7details13IsPointerLikeIN4aidl7android5media5audio6common10AudioUsageEE6$valueE",
   "size" : 4,
   "source_file" : "frameworks/native/libs/binder/ndk/include_cpp/android/binder_to_string.h",
   "underlying_type" : "_ZTIj"
  },
  {
   "alignment" : 4,
   "enum_fields" :
   [
    {
     "enum_field_value" : 0,
     "name" : "android::internal::details::IsPointerLike<aidl::android::media::audio::common::AudioDevice>::value"
    }
   ],
   "linker_set_key" : "_ZTIN7android8internal7details13IsPointerLikeIN4aidl7android5media5audio6common11AudioDeviceEE6$valueE",
   "name" : "android::internal::details::IsPointerLike<aidl::android::media::audio::common::AudioDevice>::(unnamed enum at frameworks/native/libs/binder/ndk/include_cpp/android/binder_to_string.h:118:5)",
   "referenced_type" : "_ZTIN7android8internal7details13IsPointerLikeIN4aidl7android5media5audio6common11AudioDeviceEE6$valueE",
   "self_type" : "_ZTIN7android8internal7details13IsPointerLikeIN4aidl7android5media5audio6common11AudioDeviceEE6$valueE",
   "size" : 4,
   "source_file" : "frameworks/native/libs/binder/ndk/include_cpp/android/binder_to_string.h",
   "underlying_type" : "_ZTIj"
  },
  {
   "alignment" : 4,
   "enum_fields" :
   [
    {
     "enum_field_value" : 0,
     "name" : "android::internal::details::IsPointerLike<aidl::android::media::audio::common::AudioSource>::value"
    }
   ],
   "linker_set_key" : "_ZTIN7android8internal7details13IsPointerLikeIN4aidl7android5media5audio6common11AudioSourceEE6$valueE",
   "name" : "android::internal::details::IsPointerLike<aidl::android::media::audio::common::AudioSource>::(unnamed enum at frameworks/native/libs/binder/ndk/include_cpp/android/binder_to_string.h:118:5)",
   "referenced_type" : "_ZTIN7android8internal7details13IsPointerLikeIN4aidl7android5media5audio6common11AudioSourceEE6$valueE",
   "self_type" : "_ZTIN7android8internal7details13IsPointerLikeIN4aidl7android5media5audio6common11AudioSourceEE6$valueE",
   "size" : 4,
   "source_file" : "frameworks/native/libs/binder/ndk/include_cpp/android/binder_to_string.h",
   "underlying_type" : "_ZTIj"
  },
  {
   "alignment" : 4,
   "enum_fields" :
   [
    {
     "enum_field_value" : 0,
     "name" : "android::internal::details::IsPointerLike<aidl::android::media::audio::common::AudioDeviceType>::value"
    }
   ],
   "linker_set_key" : "_ZTIN7android8internal7details13IsPointerLikeIN4aidl7android5media5audio6common15AudioDeviceTypeEE6$valueE",
   "name" : "android::internal::details::IsPointerLike<aidl::android::media::audio::common::AudioDeviceType>::(unnamed enum at frameworks/native/libs/binder/ndk/include_cpp/android/binder_to_string.h:118:5)",
   "referenced_type" : "_ZTIN7android8internal7details13IsPointerLikeIN4aidl7android5media5audio6common15AudioDeviceTypeEE6$valueE",
   "self_type" : "_ZTIN7android8internal7details13IsPointerLikeIN4aidl7android5media5audio6common15AudioDeviceTypeEE6$valueE",
   "size" : 4,
   "source_file" : "frameworks/native/libs/binder/ndk/include_cpp/android/binder_to_string.h",
   "underlying_type" : "_ZTIj"
  },
  {
   "alignment" : 4,
   "enum_fields" :
   [
    {
     "enum_field_value" : 0,
     "name" : "android::internal::details::IsPointerLike<aidl::android::media::audio::common::AudioContentType>::value"
    }
   ],
   "linker_set_key" : "_ZTIN7android8internal7details13IsPointerLikeIN4aidl7android5media5audio6common16AudioContentTypeEE6$valueE",
   "name" : "android::internal::details::IsPointerLike<aidl::android::media::audio::common::AudioContentType>::(unnamed enum at frameworks/native/libs/binder/ndk/include_cpp/android/binder_to_string.h:118:5)",
   "referenced_type" : "_ZTIN7android8internal7details13IsPointerLikeIN4aidl7android5media5audio6common16AudioContentTypeEE6$valueE",
   "self_type" : "_ZTIN7android8internal7details13IsPointerLikeIN4aidl7android5media5audio6common16AudioContentTypeEE6$valueE",
   "size" : 4,
   "source_file" : "frameworks/native/libs/binder/ndk/include_cpp/android/binder_to_string.h",
   "underlying_type" : "_ZTIj"
  },
  {
   "alignment" : 4,
   "enum_fields" :
   [
    {
     "enum_field_value" : 0,
     "name" : "android::internal::details::IsPointerLike<aidl::android::media::audio::common::AudioChannelLayout>::value"
    }
   ],
   "linker_set_key" : "_ZTIN7android8internal7details13IsPointerLikeIN4aidl7android5media5audio6common18AudioChannelLayoutEE6$valueE",
   "name" : "android::internal::details::IsPointerLike<aidl::android::media::audio::common::AudioChannelLayout>::(unnamed enum at frameworks/native/libs/binder/ndk/include_cpp/android/binder_to_string.h:118:5)",
   "referenced_type" : "_ZTIN7android8internal7details13IsPointerLikeIN4aidl7android5media5audio6common18AudioChannelLayoutEE6$valueE",
   "self_type" : "_ZTIN7android8internal7details13IsPointerLikeIN4aidl7android5media5audio6common18AudioChannelLayoutEE6$valueE",
   "size" : 4,
   "source_file" : "frameworks/native/libs/binder/ndk/include_cpp/android/binder_to_string.h",
   "underlying_type" : "_ZTIj"
  },
  {
   "alignment" : 4,
   "enum_fields" :
   [
    {
     "enum_field_value" : 0,
     "name" : "android::internal::details::IsPointerLike<aidl::android::media::audio::common::AudioDeviceAddress>::value"
    }
   ],
   "linker_set_key" : "_ZTIN7android8internal7details13IsPointerLikeIN4aidl7android5media5audio6common18AudioDeviceAddressEE6$valueE",
   "name" : "android::internal::details::IsPointerLike<aidl::android::media::audio::common::AudioDeviceAddress>::(unnamed enum at frameworks/native/libs/binder/ndk/include_cpp/android/binder_to_string.h:118:5)",
   "referenced_type" : "_ZTIN7android8internal7details13IsPointerLikeIN4aidl7android5media5audio6common18AudioDeviceAddressEE6$valueE",
   "self_type" : "_ZTIN7android8internal7details13IsPointerLikeIN4aidl7android5media5audio6common18AudioDeviceAddressEE6$valueE",
   "size" : 4,
   "source_file" : "frameworks/native/libs/binder/ndk/include_cpp/android/binder_to_string.h",
   "underlying_type" : "_ZTIj"
  },
  {
   "alignment" : 4,
   "enum_fields" :
   [
    {
     "enum_field_value" : 0,
     "name" : "android::internal::details::IsPointerLike<aidl::android::media::audio::common::AudioDeviceDescription>::value"
    }
   ],
   "linker_set_key" : "_ZTIN7android8internal7details13IsPointerLikeIN4aidl7android5media5audio6common22AudioDeviceDescriptionEE6$valueE",
   "name" : "android::internal::details::IsPointerLike<aidl::android::media::audio::common::AudioDeviceDescription>::(unnamed enum at frameworks/native/libs/binder/ndk/include_cpp/android/binder_to_string.h:118:5)",
   "referenced_type" : "_ZTIN7android8internal7details13IsPointerLikeIN4aidl7android5media5audio6common22AudioDeviceDescriptionEE6$valueE",
   "self_type" : "_ZTIN7android8internal7details13IsPointerLikeIN4aidl7android5media5audio6common22AudioDeviceDescriptionEE6$valueE",
   "size" : 4,
   "source_file" : "frameworks/native/libs/binder/ndk/include_cpp/android/binder_to_string.h",
   "underlying_type" : "_ZTIj"
  },
  {
   "alignment" : 4,
   "enum_fields" :
   [
    {
     "enum_field_value" : 0,
     "name" : "android::internal::details::IsPointerLike<aidl::android::hardware::audio::common::RecordTrackMetadata>::value"
    }
   ],
   "linker_set_key" : "_ZTIN7android8internal7details13IsPointerLikeIN4aidl7android8hardware5audio6common19RecordTrackMetadataEE6$valueE",
   "name" : "android::internal::details::IsPointerLike<aidl::android::hardware::audio::common::RecordTrackMetadata>::(unnamed enum at frameworks/native/libs/binder/ndk/include_cpp/android/binder_to_string.h:118:5)",
   "referenced_type" : "_ZTIN7android8internal7details13IsPointerLikeIN4aidl7android8hardware5audio6common19RecordTrackMetadataEE6$valueE",
   "self_type" : "_ZTIN7android8internal7details13IsPointerLikeIN4aidl7android8hardware5audio6common19RecordTrackMetadataEE6$valueE",
   "size" : 4,
   "source_file" : "frameworks/native/libs/binder/ndk/include_cpp/android/binder_to_string.h",
   "underlying_type" : "_ZTIj"
  },
  {
   "alignment" : 4,
   "enum_fields" :
   [
    {
     "enum_field_value" : 0,
     "name" : "android::internal::details::IsPointerLike<aidl::android::hardware::audio::common::PlaybackTrackMetadata>::value"
    }
   ],
   "linker_set_key" : "_ZTIN7android8internal7details13IsPointerLikeIN4aidl7android8hardware5audio6common21PlaybackTrackMetadataEE6$valueE",
   "name" : "android::internal::details::IsPointerLike<aidl::android::hardware::audio::common::PlaybackTrackMetadata>::(unnamed enum at frameworks/native/libs/binder/ndk/include_cpp/android/binder_to_string.h:118:5)",
   "referenced_type" : "_ZTIN7android8internal7details13IsPointerLikeIN4aidl7android8hardware5audio6common21PlaybackTrackMetadataEE6$valueE",
   "self_type" : "_ZTIN7android8internal7details13IsPointerLikeIN4aidl7android8hardware5audio6common21PlaybackTrackMetadataEE6$valueE",
   "size" : 4,
   "source_file" : "frameworks/native/libs/binder/ndk/include_cpp/android/binder_to_string.h",
   "underlying_type" : "_ZTIj"
  },
  {
   "alignment" : 4,
   "enum_fields" :
   [
    {
     "enum_field_value" : 0,
     "name" : "android::internal::details::IsPointerLike<aidl::android::hardware::bluetooth::audio::ChannelMode>::value"
    }
   ],
   "linker_set_key" : "_ZTIN7android8internal7details13IsPointerLikeIN4aidl7android8hardware9bluetooth5audio11ChannelModeEE6$valueE",
   "name" : "android::internal::details::IsPointerLike<aidl::android::hardware::bluetooth::audio::ChannelMode>::(unnamed enum at frameworks/native/libs/binder/ndk/include_cpp/android/binder_to_string.h:118:5)",
   "referenced_type" : "_ZTIN7android8internal7details13IsPointerLikeIN4aidl7android8hardware9bluetooth5audio11ChannelModeEE6$valueE",
   "self_type" : "_ZTIN7android8internal7details13IsPointerLikeIN4aidl7android8hardware9bluetooth5audio11ChannelModeEE6$valueE",
   "size" : 4,
   "source_file" : "frameworks/native/libs/binder/ndk/include_cpp/android/binder_to_string.h",
   "underlying_type" : "_ZTIj"
  },
  {
   "alignment" : 4,
   "enum_fields" :
   [
    {
     "enum_field_value" : 0,
     "name" : "android::internal::details::IsPointerLike<aidl::android::hardware::bluetooth::audio::AacObjectType>::value"
    }
   ],
   "linker_set_key" : "_ZTIN7android8internal7details13IsPointerLikeIN4aidl7android8hardware9bluetooth5audio13AacObjectTypeEE6$valueE",
   "name" : "android::internal::details::IsPointerLike<aidl::android::hardware::bluetooth::audio::AacObjectType>::(unnamed enum at frameworks/native/libs/binder/ndk/include_cpp/android/binder_to_string.h:118:5)",
   "referenced_type" : "_ZTIN7android8internal7details13IsPointerLikeIN4aidl7android8hardware9bluetooth5audio13AacObjectTypeEE6$valueE",
   "self_type" : "_ZTIN7android8internal7details13IsPointerLikeIN4aidl7android8hardware9bluetooth5audio13AacObjectTypeEE6$valueE",
   "size" : 4,
   "source_file" : "frameworks/native/libs/binder/ndk/include_cpp/android/binder_to_string.h",
   "underlying_type" : "_ZTIj"
  },
  {
   "alignment" : 4,
   "enum_fields" :
   [
    {
     "enum_field_value" : 0,
     "name" : "android::internal::details::IsPointerLike<aidl::android::hardware::bluetooth::audio::AudioLocation>::value"
    }
   ],
   "linker_set_key" : "_ZTIN7android8internal7details13IsPointerLikeIN4aidl7android8hardware9bluetooth5audio13AudioLocationEE6$valueE",
   "name" : "android::internal::details::IsPointerLike<aidl::android::hardware::bluetooth::audio::AudioLocation>::(unnamed enum at frameworks/native/libs/binder/ndk/include_cpp/android/binder_to_string.h:118:5)",
   "referenced_type" : "_ZTIN7android8internal7details13IsPointerLikeIN4aidl7android8hardware9bluetooth5audio13AudioLocationEE6$valueE",
   "self_type" : "_ZTIN7android8internal7details13IsPointerLikeIN4aidl7android8hardware9bluetooth5audio13AudioLocationEE6$valueE",
   "size" : 4,
   "source_file" : "frameworks/native/libs/binder/ndk/include_cpp/android/binder_to_string.h",
   "underlying_type" : "_ZTIj"
  },
  {
   "alignment" : 4,
   "enum_fields" :
   [
    {
     "enum_field_value" : 0,
     "name" : "android::internal::details::IsPointerLike<aidl::android::hardware::bluetooth::audio::SbcAllocMethod>::value"
    }
   ],
   "linker_set_key" : "_ZTIN7android8internal7details13IsPointerLikeIN4aidl7android8hardware9bluetooth5audio14SbcAllocMethodEE6$valueE",
   "name" : "android::internal::details::IsPointerLike<aidl::android::hardware::bluetooth::audio::SbcAllocMethod>::(unnamed enum at frameworks/native/libs/binder/ndk/include_cpp/android/binder_to_string.h:118:5)",
   "referenced_type" : "_ZTIN7android8internal7details13IsPointerLikeIN4aidl7android8hardware9bluetooth5audio14SbcAllocMethodEE6$valueE",
   "self_type" : "_ZTIN7android8internal7details13IsPointerLikeIN4aidl7android8hardware9bluetooth5audio14SbcAllocMethodEE6$valueE",
   "size" : 4,
   "source_file" : "frameworks/native/libs/binder/ndk/include_cpp/android/binder_to_string.h",
   "underlying_type" : "_ZTIj"
  },
  {
   "alignment" : 4,
   "enum_fields" :
   [
    {
     "enum_field_value" : 0,
     "name" : "android::internal::details::IsPointerLike<aidl::android::hardware::bluetooth::audio::SbcChannelMode>::value"
    }
   ],
   "linker_set_key" : "_ZTIN7android8internal7details13IsPointerLikeIN4aidl7android8hardware9bluetooth5audio14SbcChannelModeEE6$valueE",
   "name" : "android::internal::details::IsPointerLike<aidl::android::hardware::bluetooth::audio::SbcChannelMode>::(unnamed enum at frameworks/native/libs/binder/ndk/include_cpp/android/binder_to_string.h:118:5)",
   "referenced_type" : "_ZTIN7android8internal7details13IsPointerLikeIN4aidl7android8hardware9bluetooth5audio14SbcChannelModeEE6$valueE",
   "self_type" : "_ZTIN7android8internal7details13IsPointerLikeIN4aidl7android8hardware9bluetooth5audio14SbcChannelModeEE6$valueE",
   "size" : 4,
   "source_file" : "frameworks/native/libs/binder/ndk/include_cpp/android/binder_to_string.h",
   "underlying_type" : "_ZTIj"
  },
  {
   "alignment" : 4,
   "enum_fields" :
   [
    {
     "enum_field_value" : 0,
     "name" : "android::internal::details::IsPointerLike<aidl::android::hardware::bluetooth::audio::AacCapabilities>::value"
    }
   ],
   "linker_set_key" : "_ZTIN7android8internal7details13IsPointerLikeIN4aidl7android8hardware9bluetooth5audio15AacCapabilitiesEE6$valueE",
   "name" : "android::internal::details::IsPointerLike<aidl::android::hardware::bluetooth::audio::AacCapabilities>::(unnamed enum at frameworks/native/libs/binder/ndk/include_cpp/android/binder_to_string.h:118:5)",
   "referenced_type" : "_ZTIN7android8internal7details13IsPointerLikeIN4aidl7android8hardware9bluetooth5audio15AacCapabilitiesEE6$valueE",
   "self_type" : "_ZTIN7android8internal7details13IsPointerLikeIN4aidl7android8hardware9bluetooth5audio15AacCapabilitiesEE6$valueE",
   "size" : 4,
   "source_file" : "frameworks/native/libs/binder/ndk/include_cpp/android/binder_to_string.h",
   "underlying_type" : "_ZTIj"
  },
  {
   "alignment" : 4,
   "enum_fields" :
   [
    {
     "enum_field_value" : 0,
     "name" : "android::internal::details::IsPointerLike<aidl::android::hardware::bluetooth::audio::Lc3Capabilities>::value"
    }
   ],
   "linker_set_key" : "_ZTIN7android8internal7details13IsPointerLikeIN4aidl7android8hardware9bluetooth5audio15Lc3CapabilitiesEE6$valueE",
   "name" : "android::internal::details::IsPointerLike<aidl::android::hardware::bluetooth::audio::Lc3Capabilities>::(unnamed enum at frameworks/native/libs/binder/ndk/include_cpp/android/binder_to_string.h:118:5)",
   "referenced_type" : "_ZTIN7android8internal7details13IsPointerLikeIN4aidl7android8hardware9bluetooth5audio15Lc3CapabilitiesEE6$valueE",
   "self_type" : "_ZTIN7android8internal7details13IsPointerLikeIN4aidl7android8hardware9bluetooth5audio15Lc3CapabilitiesEE6$valueE",
   "size" : 4,
   "source_file" : "frameworks/native/libs/binder/ndk/include_cpp/android/binder_to_string.h",
   "underlying_type" : "_ZTIj"
  },
  {
   "alignment" : 4,
   "enum_fields" :
   [
    {
     "enum_field_value" : 0,
     "name" : "android::internal::details::IsPointerLike<aidl::android::hardware::bluetooth::audio::LdacChannelMode>::value"
    }
   ],
   "linker_set_key" : "_ZTIN7android8internal7details13IsPointerLikeIN4aidl7android8hardware9bluetooth5audio15LdacChannelModeEE6$valueE",
   "name" : "android::internal::details::IsPointerLike<aidl::android::hardware::bluetooth::audio::LdacChannelMode>::(unnamed enum at frameworks/native/libs/binder/ndk/include_cpp/android/binder_to_string.h:118:5)",
   "referenced_type" : "_ZTIN7android8internal7details13IsPointerLikeIN4aidl7android8hardware9bluetooth5audio15LdacChannelModeEE6$valueE",
   "self_type" : "_ZTIN7android8internal7details13IsPointerLikeIN4aidl7android8hardware9bluetooth5audio15LdacChannelModeEE6$valueE",
   "size" : 4,
   "source_file" : "frameworks/native/libs/binder/ndk/include_cpp/android/binder_to_string.h",
   "underlying_type" : "_ZTIj"
  },
  {
   "alignment" : 4,
   "enum_fields" :
   [
    {
     "enum_field_value" : 0,
     "name" : "android::internal::details::IsPointerLike<aidl::android::hardware::bluetooth::audio::PcmCapabilities>::value"
    }
   ],
   "linker_set_key" : "_ZTIN7android8internal7details13IsPointerLikeIN4aidl7android8hardware9bluetooth5audio15PcmCapabilitiesEE6$valueE",
   "name" : "android::internal::details::IsPointerLike<aidl::android::hardware::bluetooth::audio::PcmCapabilities>::(unnamed enum at frameworks/native/libs/binder/ndk/include_cpp/android/binder_to_string.h:118:5)",
   "referenced_type" : "_ZTIN7android8internal7details13IsPointerLikeIN4aidl7android8hardware9bluetooth5audio15PcmCapabilitiesEE6$valueE",
   "self_type" : "_ZTIN7android8internal7details13IsPointerLikeIN4aidl7android8hardware9bluetooth5audio15PcmCapabilitiesEE6$valueE",
   "size" : 4,
   "source_file" : "frameworks/native/libs/binder/ndk/include_cpp/android/binder_to_string.h",
   "underlying_type" : "_ZTIj"
  },
  {
   "alignment" : 4,
   "enum_fields" :
   [
    {
     "enum_field_value" : 0,
     "name" : "android::internal::details::IsPointerLike<aidl::android::hardware::bluetooth::audio::SbcCapabilities>::value"
    }
   ],
   "linker_set_key" : "_ZTIN7android8internal7details13IsPointerLikeIN4aidl7android8hardware9bluetooth5audio15SbcCapabilitiesEE6$valueE",
   "name" : "android::internal::details::IsPointerLike<aidl::android::hardware::bluetooth::audio::SbcCapabilities>::(unnamed enum at frameworks/native/libs/binder/ndk/include_cpp/android/binder_to_string.h:118:5)",
   "referenced_type" : "_ZTIN7android8internal7details13IsPointerLikeIN4aidl7android8hardware9bluetooth5audio15SbcCapabilitiesEE6$valueE",
   "self_type" : "_ZTIN7android8internal7details13IsPointerLikeIN4aidl7android8hardware9bluetooth5audio15SbcCapabilitiesEE6$valueE",
   "size" : 4,
   "source_file" : "frameworks/native/libs/binder/ndk/include_cpp/android/binder_to_string.h",
   "underlying_type" : "_ZTIj"
  },
  {
   "alignment" : 4,
   "enum_fields" :
   [
    {
     "enum_field_value" : 0,
     "name" : "android::internal::details::IsPointerLike<aidl::android::hardware::bluetooth::audio::AacConfiguration>::value"
    }
   ],
   "linker_set_key" : "_ZTIN7android8internal7details13IsPointerLikeIN4aidl7android8hardware9bluetooth5audio16AacConfigurationEE6$valueE",
   "name" : "android::internal::details::IsPointerLike<aidl::android::hardware::bluetooth::audio::AacConfiguration>::(unnamed enum at frameworks/native/libs/binder/ndk/include_cpp/android/binder_to_string.h:118:5)",
   "referenced_type" : "_ZTIN7android8internal7details13IsPointerLikeIN4aidl7android8hardware9bluetooth5audio16AacConfigurationEE6$valueE",
   "self_type" : "_ZTIN7android8internal7details13IsPointerLikeIN4aidl7android8hardware9bluetooth5audio16AacConfigurationEE6$valueE",
   "size" : 4,
   "source_file" : "frameworks/native/libs/binder/ndk/include_cpp/android/binder_to_string.h",
   "underlying_type" : "_ZTIj"
  },
  {
   "alignment" : 4,
   "enum_fields" :
   [
    {
     "enum_field_value" : 0,
     "name" : "android::internal::details::IsPointerLike<aidl::android::hardware::bluetooth::audio::AptxCapabilities>::value"
    }
   ],
   "linker_set_key" : "_ZTIN7android8internal7details13IsPointerLikeIN4aidl7android8hardware9bluetooth5audio16AptxCapabilitiesEE6$valueE",
   "name" : "android::internal::details::IsPointerLike<aidl::android::hardware::bluetooth::audio::AptxCapabilities>::(unnamed enum at frameworks/native/libs/binder/ndk/include_cpp/android/binder_to_string.h:118:5)",
   "referenced_type" : "_ZTIN7android8internal7details13IsPointerLikeIN4aidl7android8hardware9bluetooth5audio16AptxCapabilitiesEE6$valueE",
   "self_type" : "_ZTIN7android8internal7details13IsPointerLikeIN4aidl7android8hardware9bluetooth5audio16AptxCapabilitiesEE6$valueE",
   "size" : 4,
   "source_file" : "frameworks/native/libs/binder/ndk/include_cpp/android/binder_to_string.h",
   "underlying_type" : "_ZTIj"
  },
  {
   "alignment" : 4,
   "enum_fields" :
   [
    {
     "enum_field_value" : 0,
     "name" : "android::internal::details::IsPointerLike<aidl::android::hardware::bluetooth::audio::Lc3Configuration>::value"
    }
   ],
   "linker_set_key" : "_ZTIN7android8internal7details13IsPointerLikeIN4aidl7android8hardware9bluetooth5audio16Lc3ConfigurationEE6$valueE",
   "name" : "android::internal::details::IsPointerLike<aidl::android::hardware::bluetooth::audio::Lc3Configuration>::(unnamed enum at frameworks/native/libs/binder/ndk/include_cpp/android/binder_to_string.h:118:5)",
   "referenced_type" : "_ZTIN7android8internal7details13IsPointerLikeIN4aidl7android8hardware9bluetooth5audio16Lc3ConfigurationEE6$valueE",
   "self_type" : "_ZTIN7android8internal7details13IsPointerLikeIN4aidl7android8hardware9bluetooth5audio16Lc3ConfigurationEE6$valueE",
   "size" : 4,
   "source_file" : "frameworks/native/libs/binder/ndk/include_cpp/android/binder_to_string.h",
   "underlying_type" : "_ZTIj"
  },
  {
   "alignment" : 4,
   "enum_fields" :
   [
    {
     "enum_field_value" : 0,
     "name" : "android::internal::details::IsPointerLike<aidl::android::hardware::bluetooth::audio::LdacCapabilities>::value"
    }
   ],
   "linker_set_key" : "_ZTIN7android8internal7details13IsPointerLikeIN4aidl7android8hardware9bluetooth5audio16LdacCapabilitiesEE6$valueE",
   "name" : "android::internal::details::IsPointerLike<aidl::android::hardware::bluetooth::audio::LdacCapabilities>::(unnamed enum at frameworks/native/libs/binder/ndk/include_cpp/android/binder_to_string.h:118:5)",
   "referenced_type" : "_ZTIN7android8internal7details13IsPointerLikeIN4aidl7android8hardware9bluetooth5audio16LdacCapabilitiesEE6$valueE",
   "self_type" : "_ZTIN7android8internal7details13IsPointerLikeIN4aidl7android8hardware9bluetooth5audio16LdacCapabilitiesEE6$valueE",
   "size" : 4,
   "source_file" : "frameworks/native/libs/binder/ndk/include_cpp/android/binder_to_string.h",
   "underlying_type" : "_ZTIj"
  },
  {
   "alignment" : 4,
   "enum_fields" :
   [
    {
     "enum_field_value" : 0,
     "name" : "android::internal::details::IsPointerLike<aidl::android::hardware::bluetooth::audio::LdacQualityIndex>::value"
    }
   ],
   "linker_set_key" : "_ZTIN7android8internal7details13IsPointerLikeIN4aidl7android8hardware9bluetooth5audio16LdacQualityIndexEE6$valueE",
   "name" : "android::internal::details::IsPointerLike<aidl::android::hardware::bluetooth::audio::LdacQualityIndex>::(unnamed enum at frameworks/native/libs/binder/ndk/include_cpp/android/binder_to_string.h:118:5)",
   "referenced_type" : "_ZTIN7android8internal7details13IsPointerLikeIN4aidl7android8hardware9bluetooth5audio16LdacQualityIndexEE6$valueE",
   "self_type" : "_ZTIN7android8internal7details13IsPointerLikeIN4aidl7android8hardware9bluetooth5audio16LdacQualityIndexEE6$valueE",
   "size" : 4,
   "source_file" : "frameworks/native/libs/binder/ndk/include_cpp/android/binder_to_string.h",
   "underlying_type" : "_ZTIj"
  },
  {
   "alignment" : 4,
   "enum_fields" :
   [
    {
     "enum_field_value" : 0,
     "name" : "android::internal::details::IsPointerLike<aidl::android::hardware::bluetooth::audio::OpusCapabilities>::value"
    }
   ],
   "linker_set_key" : "_ZTIN7android8internal7details13IsPointerLikeIN4aidl7android8hardware9bluetooth5audio16OpusCapabilitiesEE6$valueE",
   "name" : "android::internal::details::IsPointerLike<aidl::android::hardware::bluetooth::audio::OpusCapabilities>::(unnamed enum at frameworks/native/libs/binder/ndk/include_cpp/android/binder_to_string.h:118:5)",
   "referenced_type" : "_ZTIN7android8internal7details13IsPointerLikeIN4aidl7android8hardware9bluetooth5audio16OpusCapabilitiesEE6$valueE",
   "self_type" : "_ZTIN7android8internal7details13IsPointerLikeIN4aidl7android8hardware9bluetooth5audio16OpusCapabilitiesEE6$valueE",
   "size" : 4,
   "source_file" : "frameworks/native/libs/binder/ndk/include_cpp/android/binder_to_string.h",
   "underlying_type" : "_ZTIj"
  },
  {
   "alignment" : 4,
   "enum_fields" :
   [
    {
     "enum_field_value" : 0,
     "name" : "android::internal::details::IsPointerLike<aidl::android::hardware::bluetooth::audio::PcmConfiguration>::value"
    }
   ],
   "linker_set_key" : "_ZTIN7android8internal7details13IsPointerLikeIN4aidl7android8hardware9bluetooth5audio16PcmConfigurationEE6$valueE",
   "name" : "android::internal::details::IsPointerLike<aidl::android::hardware::bluetooth::audio::PcmConfiguration>::(unnamed enum at frameworks/native/libs/binder/ndk/include_cpp/android/binder_to_string.h:118:5)",
   "referenced_type" : "_ZTIN7android8internal7details13IsPointerLikeIN4aidl7android8hardware9bluetooth5audio16PcmConfigurationEE6$valueE",
   "self_type" : "_ZTIN7android8internal7details13IsPointerLikeIN4aidl7android8hardware9bluetooth5audio16PcmConfigurationEE6$valueE",
   "size" : 4,
   "source_file" : "frameworks/native/libs/binder/ndk/include_cpp/android/binder_to_string.h",
   "underlying_type" : "_ZTIj"
  },
  {
   "alignment" : 4,
   "enum_fields" :
   [
    {
     "enum_field_value" : 0,
     "name" : "android::internal::details::IsPointerLike<aidl::android::hardware::bluetooth::audio::SbcConfiguration>::value"
    }
   ],
   "linker_set_key" : "_ZTIN7android8internal7details13IsPointerLikeIN4aidl7android8hardware9bluetooth5audio16SbcConfigurationEE6$valueE",
   "name" : "android::internal::details::IsPointerLike<aidl::android::hardware::bluetooth::audio::SbcConfiguration>::(unnamed enum at frameworks/native/libs/binder/ndk/include_cpp/android/binder_to_string.h:118:5)",
   "referenced_type" : "_ZTIN7android8internal7details13IsPointerLikeIN4aidl7android8hardware9bluetooth5audio16SbcConfigurationEE6$valueE",
   "self_type" : "_ZTIN7android8internal7details13IsPointerLikeIN4aidl7android8hardware9bluetooth5audio16SbcConfigurationEE6$valueE",
   "size" : 4,
   "source_file" : "frameworks/native/libs/binder/ndk/include_cpp/android/binder_to_string.h",
   "underlying_type" : "_ZTIj"
  },
  {
   "alignment" : 4,
   "enum_fields" :
   [
    {
     "enum_field_value" : 0,
     "name" : "android::internal::details::IsPointerLike<aidl::android::hardware::bluetooth::audio::AptxConfiguration>::value"
    }
   ],
   "linker_set_key" : "_ZTIN7android8internal7details13IsPointerLikeIN4aidl7android8hardware9bluetooth5audio17AptxConfigurationEE6$valueE",
   "name" : "android::internal::details::IsPointerLike<aidl::android::hardware::bluetooth::audio::AptxConfiguration>::(unnamed enum at frameworks/native/libs/binder/ndk/include_cpp/android/binder_to_string.h:118:5)",
   "referenced_type" : "_ZTIN7android8internal7details13IsPointerLikeIN4aidl7android8hardware9bluetooth5audio17AptxConfigurationEE6$valueE",
   "self_type" : "_ZTIN7android8internal7details13IsPointerLikeIN4aidl7android8hardware9bluetooth5audio17AptxConfigurationEE6$valueE",
   "size" : 4,
   "source_file" : "frameworks/native/libs/binder/ndk/include_cpp/android/binder_to_string.h",
   "underlying_type" : "_ZTIj"
  },
  {
   "alignment" : 4,
   "enum_fields" :
   [
    {
     "enum_field_value" : 0,
     "name" : "android::internal::details::IsPointerLike<aidl::android::hardware::bluetooth::audio::AptxSinkBuffering>::value"
    }
   ],
   "linker_set_key" : "_ZTIN7android8internal7details13IsPointerLikeIN4aidl7android8hardware9bluetooth5audio17AptxSinkBufferingEE6$valueE",
   "name" : "android::internal::details::IsPointerLike<aidl::android::hardware::bluetooth::audio::AptxSinkBuffering>::(unnamed enum at frameworks/native/libs/binder/ndk/include_cpp/android/binder_to_string.h:118:5)",
   "referenced_type" : "_ZTIN7android8internal7details13IsPointerLikeIN4aidl7android8hardware9bluetooth5audio17AptxSinkBufferingEE6$valueE",
   "self_type" : "_ZTIN7android8internal7details13IsPointerLikeIN4aidl7android8hardware9bluetooth5audio17AptxSinkBufferingEE6$valueE",
   "size" : 4,
   "source_file" : "frameworks/native/libs/binder/ndk/include_cpp/android/binder_to_string.h",
   "underlying_type" : "_ZTIj"
  },
  {
   "alignment" : 4,
   "enum_fields" :
   [
    {
     "enum_field_value" : 0,
     "name" : "android::internal::details::IsPointerLike<aidl::android::hardware::bluetooth::audio::CodecCapabilities::Capabilities>::value"
    }
   ],
   "linker_set_key" : "_ZTIN7android8internal7details13IsPointerLikeIN4aidl7android8hardware9bluetooth5audio17CodecCapabilities12CapabilitiesEE6$valueE",
   "name" : "android::internal::details::IsPointerLike<aidl::android::hardware::bluetooth::audio::CodecCapabilities::Capabilities>::(unnamed enum at frameworks/native/libs/binder/ndk/include_cpp/android/binder_to_string.h:118:5)",
   "referenced_type" : "_ZTIN7android8internal7details13IsPointerLikeIN4aidl7android8hardware9bluetooth5audio17CodecCapabilities12CapabilitiesEE6$valueE",
   "self_type" : "_ZTIN7android8internal7details13IsPointerLikeIN4aidl7android8hardware9bluetooth5audio17CodecCapabilities12CapabilitiesEE6$valueE",
   "size" : 4,
   "source_file" : "frameworks/native/libs/binder/ndk/include_cpp/android/binder_to_string.h",
   "underlying_type" : "_ZTIj"
  },
  {
   "alignment" : 4,
   "enum_fields" :
   [
    {
     "enum_field_value" : 0,
     "name" : "android::internal::details::IsPointerLike<aidl::android::hardware::bluetooth::audio::CodecCapabilities::VendorCapabilities>::value"
    }
   ],
   "linker_set_key" : "_ZTIN7android8internal7details13IsPointerLikeIN4aidl7android8hardware9bluetooth5audio17CodecCapabilities18VendorCapabilitiesEE6$valueE",
   "name" : "android::internal::details::IsPointerLike<aidl::android::hardware::bluetooth::audio::CodecCapabilities::VendorCapabilities>::(unnamed enum at frameworks/native/libs/binder/ndk/include_cpp/android/binder_to_string.h:118:5)",
   "referenced_type" : "_ZTIN7android8internal7details13IsPointerLikeIN4aidl7android8hardware9bluetooth5audio17CodecCapabilities18VendorCapabilitiesEE6$valueE",
   "self_type" : "_ZTIN7android8internal7details13IsPointerLikeIN4aidl7android8hardware9bluetooth5audio17CodecCapabilities18VendorCapabilitiesEE6$valueE",
   "size" : 4,
   "source_file" : "frameworks/native/libs/binder/ndk/include_cpp/android/binder_to_string.h",
   "underlying_type" : "_ZTIj"
  },
  {
   "alignment" : 4,
   "enum_fields" :
   [
    {
     "enum_field_value" : 0,
     "name" : "android::internal::details::IsPointerLike<aidl::android::hardware::bluetooth::audio::CodecCapabilities>::value"
    }
   ],
   "linker_set_key" : "_ZTIN7android8internal7details13IsPointerLikeIN4aidl7android8hardware9bluetooth5audio17CodecCapabilitiesEE6$valueE",
   "name" : "android::internal::details::IsPointerLike<aidl::android::hardware::bluetooth::audio::CodecCapabilities>::(unnamed enum at frameworks/native/libs/binder/ndk/include_cpp/android/binder_to_string.h:118:5)",
   "referenced_type" : "_ZTIN7android8internal7details13IsPointerLikeIN4aidl7android8hardware9bluetooth5audio17CodecCapabilitiesEE6$valueE",
   "self_type" : "_ZTIN7android8internal7details13IsPointerLikeIN4aidl7android8hardware9bluetooth5audio17CodecCapabilitiesEE6$valueE",
   "size" : 4,
   "source_file" : "frameworks/native/libs/binder/ndk/include_cpp/android/binder_to_string.h",
   "underlying_type" : "_ZTIj"
  },
  {
   "alignment" : 4,
   "enum_fields" :
   [
    {
     "enum_field_value" : 0,
     "name" : "android::internal::details::IsPointerLike<aidl::android::hardware::bluetooth::audio::LdacConfiguration>::value"
    }
   ],
   "linker_set_key" : "_ZTIN7android8internal7details13IsPointerLikeIN4aidl7android8hardware9bluetooth5audio17LdacConfigurationEE6$valueE",
   "name" : "android::internal::details::IsPointerLike<aidl::android::hardware::bluetooth::audio::LdacConfiguration>::(unnamed enum at frameworks/native/libs/binder/ndk/include_cpp/android/binder_to_string.h:118:5)",
   "referenced_type" : "_ZTIN7android8internal7details13IsPointerLikeIN4aidl7android8hardware9bluetooth5audio17LdacConfigurationEE6$valueE",
   "self_type" : "_ZTIN7android8internal7details13IsPointerLikeIN4aidl7android8hardware9bluetooth5audio17LdacConfigurationEE6$valueE",
   "size" : 4,
   "source_file" : "frameworks/native/libs/binder/ndk/include_cpp/android/binder_to_string.h",
   "underlying_type" : "_ZTIj"
  },
  {
   "alignment" : 4,
   "enum_fields" :
   [
    {
     "enum_field_value" : 0,
     "name" : "android::internal::details::IsPointerLike<aidl::android::hardware::bluetooth::audio::OpusConfiguration>::value"
    }
   ],
   "linker_set_key" : "_ZTIN7android8internal7details13IsPointerLikeIN4aidl7android8hardware9bluetooth5audio17OpusConfigurationEE6$valueE",
   "name" : "android::internal::details::IsPointerLike<aidl::android::hardware::bluetooth::audio::OpusConfiguration>::(unnamed enum at frameworks/native/libs/binder/ndk/include_cpp/android/binder_to_string.h:118:5)",
   "referenced_type" : "_ZTIN7android8internal7details13IsPointerLikeIN4aidl7android8hardware9bluetooth5audio17OpusConfigurationEE6$valueE",
   "self_type" : "_ZTIN7android8internal7details13IsPointerLikeIN4aidl7android8hardware9bluetooth5audio17OpusConfigurationEE6$valueE",
   "size" : 4,
   "source_file" : "frameworks/native/libs/binder/ndk/include_cpp/android/binder_to_string.h",
   "underlying_type" : "_ZTIj"
  },
  {
   "alignment" : 4,
   "enum_fields" :
   [
    {
     "enum_field_value" : 0,
     "name" : "android::internal::details::IsPointerLike<aidl::android::hardware::bluetooth::audio::UnicastCapability::VendorCapabilities>::value"
    }
   ],
   "linker_set_key" : "_ZTIN7android8internal7details13IsPointerLikeIN4aidl7android8hardware9bluetooth5audio17UnicastCapability18VendorCapabilitiesEE6$valueE",
   "name" : "android::internal::details::IsPointerLike<aidl::android::hardware::bluetooth::audio::UnicastCapability::VendorCapabilities>::(unnamed enum at frameworks/native/libs/binder/ndk/include_cpp/android/binder_to_string.h:118:5)",
   "referenced_type" : "_ZTIN7android8internal7details13IsPointerLikeIN4aidl7android8hardware9bluetooth5audio17UnicastCapability18VendorCapabilitiesEE6$valueE",
   "self_type" : "_ZTIN7android8internal7details13IsPointerLikeIN4aidl7android8hardware9bluetooth5audio17UnicastCapability18VendorCapabilitiesEE6$valueE",
   "size" : 4,
   "source_file" : "frameworks/native/libs/binder/ndk/include_cpp/android/binder_to_string.h",
   "underlying_type" : "_ZTIj"
  },
  {
   "alignment" : 4,
   "enum_fields" :
   [
    {
     "enum_field_value" : 0,
     "name" : "android::internal::details::IsPointerLike<aidl::android::hardware::bluetooth::audio::UnicastCapability::LeAudioCodecCapabilities>::value"
    }
   ],
   "linker_set_key" : "_ZTIN7android8internal7details13IsPointerLikeIN4aidl7android8hardware9bluetooth5audio17UnicastCapability24LeAudioCodecCapabilitiesEE6$valueE",
   "name" : "android::internal::details::IsPointerLike<aidl::android::hardware::bluetooth::audio::UnicastCapability::LeAudioCodecCapabilities>::(unnamed enum at frameworks/native/libs/binder/ndk/include_cpp/android/binder_to_string.h:118:5)",
   "referenced_type" : "_ZTIN7android8internal7details13IsPointerLikeIN4aidl7android8hardware9bluetooth5audio17UnicastCapability24LeAudioCodecCapabilitiesEE6$valueE",
   "self_type" : "_ZTIN7android8internal7details13IsPointerLikeIN4aidl7android8hardware9bluetooth5audio17UnicastCapability24LeAudioCodecCapabilitiesEE6$valueE",
   "size" : 4,
   "source_file" : "frameworks/native/libs/binder/ndk/include_cpp/android/binder_to_string.h",
   "underlying_type" : "_ZTIj"
  },
  {
   "alignment" : 4,
   "enum_fields" :
   [
    {
     "enum_field_value" : 0,
     "name" : "android::internal::details::IsPointerLike<aidl::android::hardware::bluetooth::audio::UnicastCapability>::value"
    }
   ],
   "linker_set_key" : "_ZTIN7android8internal7details13IsPointerLikeIN4aidl7android8hardware9bluetooth5audio17UnicastCapabilityEE6$valueE",
   "name" : "android::internal::details::IsPointerLike<aidl::android::hardware::bluetooth::audio::UnicastCapability>::(unnamed enum at frameworks/native/libs/binder/ndk/include_cpp/android/binder_to_string.h:118:5)",
   "referenced_type" : "_ZTIN7android8internal7details13IsPointerLikeIN4aidl7android8hardware9bluetooth5audio17UnicastCapabilityEE6$valueE",
   "self_type" : "_ZTIN7android8internal7details13IsPointerLikeIN4aidl7android8hardware9bluetooth5audio17UnicastCapabilityEE6$valueE",
   "size" : 4,
   "source_file" : "frameworks/native/libs/binder/ndk/include_cpp/android/binder_to_string.h",
   "underlying_type" : "_ZTIj"
  },
  {
   "alignment" : 4,
   "enum_fields" :
   [
    {
     "enum_field_value" : 0,
     "name" : "android::internal::details::IsPointerLike<aidl::android::hardware::bluetooth::audio::CodecConfiguration::CodecSpecific>::value"
    }
   ],
   "linker_set_key" : "_ZTIN7android8internal7details13IsPointerLikeIN4aidl7android8hardware9bluetooth5audio18CodecConfiguration13CodecSpecificEE6$valueE",
   "name" : "android::internal::details::IsPointerLike<aidl::android::hardware::bluetooth::audio::CodecConfiguration::CodecSpecific>::(unnamed enum at frameworks/native/libs/binder/ndk/include_cpp/android/binder_to_string.h:118:5)",
   "referenced_type" : "_ZTIN7android8internal7details13IsPointerLikeIN4aidl7android8hardware9bluetooth5audio18CodecConfiguration13CodecSpecificEE6$valueE",
   "self_type" : "_ZTIN7android8internal7details13IsPointerLikeIN4aidl7android8hardware9bluetooth5audio18CodecConfiguration13CodecSpecificEE6$valueE",
   "size" : 4,
   "source_file" : "frameworks/native/libs/binder/ndk/include_cpp/android/binder_to_string.h",
   "underlying_type" : "_ZTIj"
  },
  {
   "alignment" : 4,
   "enum_fields" :
   [
    {
     "enum_field_value" : 0,
     "name" : "android::internal::details::IsPointerLike<aidl::android::hardware::bluetooth::audio::CodecConfiguration::VendorConfiguration>::value"
    }
   ],
   "linker_set_key" : "_ZTIN7android8internal7details13IsPointerLikeIN4aidl7android8hardware9bluetooth5audio18CodecConfiguration19VendorConfigurationEE6$valueE",
   "name" : "android::internal::details::IsPointerLike<aidl::android::hardware::bluetooth::audio::CodecConfiguration::VendorConfiguration>::(unnamed enum at frameworks/native/libs/binder/ndk/include_cpp/android/binder_to_string.h:118:5)",
   "referenced_type" : "_ZTIN7android8internal7details13IsPointerLikeIN4aidl7android8hardware9bluetooth5audio18CodecConfiguration19VendorConfigurationEE6$valueE",
   "self_type" : "_ZTIN7android8internal7details13IsPointerLikeIN4aidl7android8hardware9bluetooth5audio18CodecConfiguration19VendorConfigurationEE6$valueE",
   "size" : 4,
   "source_file" : "frameworks/native/libs/binder/ndk/include_cpp/android/binder_to_string.h",
   "underlying_type" : "_ZTIj"
  },
  {
   "alignment" : 4,
   "enum_fields" :
   [
    {
     "enum_field_value" : 0,
     "name" : "android::internal::details::IsPointerLike<aidl::android::hardware::bluetooth::audio::CodecConfiguration>::value"
    }
   ],
   "linker_set_key" : "_ZTIN7android8internal7details13IsPointerLikeIN4aidl7android8hardware9bluetooth5audio18CodecConfigurationEE6$valueE",
   "name" : "android::internal::details::IsPointerLike<aidl::android::hardware::bluetooth::audio::CodecConfiguration>::(unnamed enum at frameworks/native/libs/binder/ndk/include_cpp/android/binder_to_string.h:118:5)",
   "referenced_type" : "_ZTIN7android8internal7details13IsPointerLikeIN4aidl7android8hardware9bluetooth5audio18CodecConfigurationEE6$valueE",
   "self_type" : "_ZTIN7android8internal7details13IsPointerLikeIN4aidl7android8hardware9bluetooth5audio18CodecConfigurationEE6$valueE",
   "size" : 4,
   "source_file" : "frameworks/native/libs/binder/ndk/include_cpp/android/binder_to_string.h",
   "underlying_type" : "_ZTIj"
  },
  {
   "alignment" : 4,
   "enum_fields" :
   [
    {
     "enum_field_value" : 0,
     "name" : "android::internal::details::IsPointerLike<aidl::android::hardware::bluetooth::audio::BroadcastCapability::VendorCapabilities>::value"
    }
   ],
   "linker_set_key" : "_ZTIN7android8internal7details13IsPointerLikeIN4aidl7android8hardware9bluetooth5audio19BroadcastCapability18VendorCapabilitiesEE6$valueE",
   "name" : "android::internal::details::IsPointerLike<aidl::android::hardware::bluetooth::audio::BroadcastCapability::VendorCapabilities>::(unnamed enum at frameworks/native/libs/binder/ndk/include_cpp/android/binder_to_string.h:118:5)",
   "referenced_type" : "_ZTIN7android8internal7details13IsPointerLikeIN4aidl7android8hardware9bluetooth5audio19BroadcastCapability18VendorCapabilitiesEE6$valueE",
   "self_type" : "_ZTIN7android8internal7details13IsPointerLikeIN4aidl7android8hardware9bluetooth5audio19BroadcastCapability18VendorCapabilitiesEE6$valueE",
   "size" : 4,
   "source_file" : "frameworks/native/libs/binder/ndk/include_cpp/android/binder_to_string.h",
   "underlying_type" : "_ZTIj"
  },
  {
   "alignment" : 4,
   "enum_fields" :
   [
    {
     "enum_field_value" : 0,
     "name" : "android::internal::details::IsPointerLike<aidl::android::hardware::bluetooth::audio::BroadcastCapability::LeAudioCodecCapabilities>::value"
    }
   ],
   "linker_set_key" : "_ZTIN7android8internal7details13IsPointerLikeIN4aidl7android8hardware9bluetooth5audio19BroadcastCapability24LeAudioCodecCapabilitiesEE6$valueE",
   "name" : "android::internal::details::IsPointerLike<aidl::android::hardware::bluetooth::audio::BroadcastCapability::LeAudioCodecCapabilities>::(unnamed enum at frameworks/native/libs/binder/ndk/include_cpp/android/binder_to_string.h:118:5)",
   "referenced_type" : "_ZTIN7android8internal7details13IsPointerLikeIN4aidl7android8hardware9bluetooth5audio19BroadcastCapability24LeAudioCodecCapabilitiesEE6$valueE",
   "self_type" : "_ZTIN7android8internal7details13IsPointerLikeIN4aidl7android8hardware9bluetooth5audio19BroadcastCapability24LeAudioCodecCapabilitiesEE6$valueE",
   "size" : 4,
   "source_file" : "frameworks/native/libs/binder/ndk/include_cpp/android/binder_to_string.h",
   "underlying_type" : "_ZTIj"
  },
  {
   "alignment" : 4,
   "enum_fields" :
   [
    {
     "enum_field_value" : 0,
     "name" : "android::internal::details::IsPointerLike<aidl::android::hardware::bluetooth::audio::BroadcastCapability>::value"
    }
   ],
   "linker_set_key" : "_ZTIN7android8internal7details13IsPointerLikeIN4aidl7android8hardware9bluetooth5audio19BroadcastCapabilityEE6$valueE",
   "name" : "android::internal::details::IsPointerLike<aidl::android::hardware::bluetooth::audio::BroadcastCapability>::(unnamed enum at frameworks/native/libs/binder/ndk/include_cpp/android/binder_to_string.h:118:5)",
   "referenced_type" : "_ZTIN7android8internal7details13IsPointerLikeIN4aidl7android8hardware9bluetooth5audio19BroadcastCapabilityEE6$valueE",
   "self_type" : "_ZTIN7android8internal7details13IsPointerLikeIN4aidl7android8hardware9bluetooth5audio19BroadcastCapabilityEE6$valueE",
   "size" : 4,
   "source_file" : "frameworks/native/libs/binder/ndk/include_cpp/android/binder_to_string.h",
   "underlying_type" : "_ZTIj"
  },
  {
   "alignment" : 4,
   "enum_fields" :
   [
    {
     "enum_field_value" : 0,
     "name" : "android::internal::details::IsPointerLike<aidl::android::hardware::bluetooth::audio::LeAudioConfiguration::StreamMap>::value"
    }
   ],
   "linker_set_key" : "_ZTIN7android8internal7details13IsPointerLikeIN4aidl7android8hardware9bluetooth5audio20LeAudioConfiguration9StreamMapEE6$valueE",
   "name" : "android::internal::details::IsPointerLike<aidl::android::hardware::bluetooth::audio::LeAudioConfiguration::StreamMap>::(unnamed enum at frameworks/native/libs/binder/ndk/include_cpp/android/binder_to_string.h:118:5)",
   "referenced_type" : "_ZTIN7android8internal7details13IsPointerLikeIN4aidl7android8hardware9bluetooth5audio20LeAudioConfiguration9StreamMapEE6$valueE",
   "self_type" : "_ZTIN7android8internal7details13IsPointerLikeIN4aidl7android8hardware9bluetooth5audio20LeAudioConfiguration9StreamMapEE6$valueE",
   "size" : 4,
   "source_file" : "frameworks/native/libs/binder/ndk/include_cpp/android/binder_to_string.h",
   "underlying_type" : "_ZTIj"
  },
  {
   "alignment" : 4,
   "enum_fields" :
   [
    {
     "enum_field_value" : 0,
     "name" : "android::internal::details::IsPointerLike<aidl::android::hardware::bluetooth::audio::LeAudioConfiguration>::value"
    }
   ],
   "linker_set_key" : "_ZTIN7android8internal7details13IsPointerLikeIN4aidl7android8hardware9bluetooth5audio20LeAudioConfigurationEE6$valueE",
   "name" : "android::internal::details::IsPointerLike<aidl::android::hardware::bluetooth::audio::LeAudioConfiguration>::(unnamed enum at frameworks/native/libs/binder/ndk/include_cpp/android/binder_to_string.h:118:5)",
   "referenced_type" : "_ZTIN7android8internal7details13IsPointerLikeIN4aidl7android8hardware9bluetooth5audio20LeAudioConfigurationEE6$valueE",
   "self_type" : "_ZTIN7android8internal7details13IsPointerLikeIN4aidl7android8hardware9bluetooth5audio20LeAudioConfigurationEE6$valueE",
   "size" : 4,
   "source_file" : "frameworks/native/libs/binder/ndk/include_cpp/android/binder_to_string.h",
   "underlying_type" : "_ZTIj"
  },
  {
   "alignment" : 4,
   "enum_fields" :
   [
    {
     "enum_field_value" : 0,
     "name" : "android::internal::details::IsPointerLike<aidl::android::hardware::bluetooth::audio::PresentationPosition::TimeSpec>::value"
    }
   ],
   "linker_set_key" : "_ZTIN7android8internal7details13IsPointerLikeIN4aidl7android8hardware9bluetooth5audio20PresentationPosition8TimeSpecEE6$valueE",
   "name" : "android::internal::details::IsPointerLike<aidl::android::hardware::bluetooth::audio::PresentationPosition::TimeSpec>::(unnamed enum at frameworks/native/libs/binder/ndk/include_cpp/android/binder_to_string.h:118:5)",
   "referenced_type" : "_ZTIN7android8internal7details13IsPointerLikeIN4aidl7android8hardware9bluetooth5audio20PresentationPosition8TimeSpecEE6$valueE",
   "self_type" : "_ZTIN7android8internal7details13IsPointerLikeIN4aidl7android8hardware9bluetooth5audio20PresentationPosition8TimeSpecEE6$valueE",
   "size" : 4,
   "source_file" : "frameworks/native/libs/binder/ndk/include_cpp/android/binder_to_string.h",
   "underlying_type" : "_ZTIj"
  },
  {
   "alignment" : 4,
   "enum_fields" :
   [
    {
     "enum_field_value" : 0,
     "name" : "android::internal::details::IsPointerLike<aidl::android::hardware::bluetooth::audio::AptxAdaptiveInputMode>::value"
    }
   ],
   "linker_set_key" : "_ZTIN7android8internal7details13IsPointerLikeIN4aidl7android8hardware9bluetooth5audio21AptxAdaptiveInputModeEE6$valueE",
   "name" : "android::internal::details::IsPointerLike<aidl::android::hardware::bluetooth::audio::AptxAdaptiveInputMode>::(unnamed enum at frameworks/native/libs/binder/ndk/include_cpp/android/binder_to_string.h:118:5)",
   "referenced_type" : "_ZTIN7android8internal7details13IsPointerLikeIN4aidl7android8hardware9bluetooth5audio21AptxAdaptiveInputModeEE6$valueE",
   "self_type" : "_ZTIN7android8internal7details13IsPointerLikeIN4aidl7android8hardware9bluetooth5audio21AptxAdaptiveInputModeEE6$valueE",
   "size" : 4,
   "source_file" : "frameworks/native/libs/binder/ndk/include_cpp/android/binder_to_string.h",
   "underlying_type" : "_ZTIj"
  },
  {
   "alignment" : 4,
   "enum_fields" :
   [
    {
     "enum_field_value" : 0,
     "name" : "android::internal::details::IsPointerLike<aidl::android::hardware::bluetooth::audio::AptxAdaptiveTimeToPlay>::value"
    }
   ],
   "linker_set_key" : "_ZTIN7android8internal7details13IsPointerLikeIN4aidl7android8hardware9bluetooth5audio22AptxAdaptiveTimeToPlayEE6$valueE",
   "name" : "android::internal::details::IsPointerLike<aidl::android::hardware::bluetooth::audio::AptxAdaptiveTimeToPlay>::(unnamed enum at frameworks/native/libs/binder/ndk/include_cpp/android/binder_to_string.h:118:5)",
   "referenced_type" : "_ZTIN7android8internal7details13IsPointerLikeIN4aidl7android8hardware9bluetooth5audio22AptxAdaptiveTimeToPlayEE6$valueE",
   "self_type" : "_ZTIN7android8internal7details13IsPointerLikeIN4aidl7android8hardware9bluetooth5audio22AptxAdaptiveTimeToPlayEE6$valueE",
   "size" : 4,
   "source_file" : "frameworks/native/libs/binder/ndk/include_cpp/android/binder_to_string.h",
   "underlying_type" : "_ZTIj"
  },
  {
   "alignment" : 4,
   "enum_fields" :
   [
    {
     "enum_field_value" : 0,
     "name" : "android::internal::details::IsPointerLike<aidl::android::hardware::bluetooth::audio::AptxAdaptiveChannelMode>::value"
    }
   ],
   "linker_set_key" : "_ZTIN7android8internal7details13IsPointerLikeIN4aidl7android8hardware9bluetooth5audio23AptxAdaptiveChannelModeEE6$valueE",
   "name" : "android::internal::details::IsPointerLike<aidl::android::hardware::bluetooth::audio::AptxAdaptiveChannelMode>::(unnamed enum at frameworks/native/libs/binder/ndk/include_cpp/android/binder_to_string.h:118:5)",
   "referenced_type" : "_ZTIN7android8internal7details13IsPointerLikeIN4aidl7android8hardware9bluetooth5audio23AptxAdaptiveChannelModeEE6$valueE",
   "self_type" : "_ZTIN7android8internal7details13IsPointerLikeIN4aidl7android8hardware9bluetooth5audio23AptxAdaptiveChannelModeEE6$valueE",
   "size" : 4,
   "source_file" : "frameworks/native/libs/binder/ndk/include_cpp/android/binder_to_string.h",
   "underlying_type" : "_ZTIj"
  },
  {
   "alignment" : 4,
   "enum_fields" :
   [
    {
     "enum_field_value" : 0,
     "name" : "android::internal::details::IsPointerLike<aidl::android::hardware::bluetooth::audio::AptxAdaptiveCapabilities>::value"
    }
   ],
   "linker_set_key" : "_ZTIN7android8internal7details13IsPointerLikeIN4aidl7android8hardware9bluetooth5audio24AptxAdaptiveCapabilitiesEE6$valueE",
   "name" : "android::internal::details::IsPointerLike<aidl::android::hardware::bluetooth::audio::AptxAdaptiveCapabilities>::(unnamed enum at frameworks/native/libs/binder/ndk/include_cpp/android/binder_to_string.h:118:5)",
   "referenced_type" : "_ZTIN7android8internal7details13IsPointerLikeIN4aidl7android8hardware9bluetooth5audio24AptxAdaptiveCapabilitiesEE6$valueE",
   "self_type" : "_ZTIN7android8internal7details13IsPointerLikeIN4aidl7android8hardware9bluetooth5audio24AptxAdaptiveCapabilitiesEE6$valueE",
   "size" : 4,
   "source_file" : "frameworks/native/libs/binder/ndk/include_cpp/android/binder_to_string.h",
   "underlying_type" : "_ZTIj"
  },
  {
   "alignment" : 4,
   "enum_fields" :
   [
    {
     "enum_field_value" : 0,
     "name" : "android::internal::details::IsPointerLike<aidl::android::hardware::bluetooth::audio::AptxAdaptiveConfiguration>::value"
    }
   ],
   "linker_set_key" : "_ZTIN7android8internal7details13IsPointerLikeIN4aidl7android8hardware9bluetooth5audio25AptxAdaptiveConfigurationEE6$valueE",
   "name" : "android::internal::details::IsPointerLike<aidl::android::hardware::bluetooth::audio::AptxAdaptiveConfiguration>::(unnamed enum at frameworks/native/libs/binder/ndk/include_cpp/android/binder_to_string.h:118:5)",
   "referenced_type" : "_ZTIN7android8internal7details13IsPointerLikeIN4aidl7android8hardware9bluetooth5audio25AptxAdaptiveConfigurationEE6$valueE",
   "self_type" : "_ZTIN7android8internal7details13IsPointerLikeIN4aidl7android8hardware9bluetooth5audio25AptxAdaptiveConfigurationEE6$valueE",
   "size" : 4,
   "source_file" : "frameworks/native/libs/binder/ndk/include_cpp/android/binder_to_string.h",
   "underlying_type" : "_ZTIj"
  },
  {
   "alignment" : 4,
   "enum_fields" :
   [
    {
     "enum_field_value" : 0,
     "name" : "android::internal::details::IsPointerLike<aidl::android::hardware::bluetooth::audio::LeAudioCodecConfiguration::VendorConfiguration>::value"
    }
   ],
   "linker_set_key" : "_ZTIN7android8internal7details13IsPointerLikeIN4aidl7android8hardware9bluetooth5audio25LeAudioCodecConfiguration19VendorConfigurationEE6$valueE",
   "name" : "android::internal::details::IsPointerLike<aidl::android::hardware::bluetooth::audio::LeAudioCodecConfiguration::VendorConfiguration>::(unnamed enum at frameworks/native/libs/binder/ndk/include_cpp/android/binder_to_string.h:118:5)",
   "referenced_type" : "_ZTIN7android8internal7details13IsPointerLikeIN4aidl7android8hardware9bluetooth5audio25LeAudioCodecConfiguration19VendorConfigurationEE6$valueE",
   "self_type" : "_ZTIN7android8internal7details13IsPointerLikeIN4aidl7android8hardware9bluetooth5audio25LeAudioCodecConfiguration19VendorConfigurationEE6$valueE",
   "size" : 4,
   "source_file" : "frameworks/native/libs/binder/ndk/include_cpp/android/binder_to_string.h",
   "underlying_type" : "_ZTIj"
  },
  {
   "alignment" : 4,
   "enum_fields" :
   [
    {
     "enum_field_value" : 0,
     "name" : "android::internal::details::IsPointerLike<aidl::android::hardware::bluetooth::audio::LeAudioCodecConfiguration>::value"
    }
   ],
   "linker_set_key" : "_ZTIN7android8internal7details13IsPointerLikeIN4aidl7android8hardware9bluetooth5audio25LeAudioCodecConfigurationEE6$valueE",
   "name" : "android::internal::details::IsPointerLike<aidl::android::hardware::bluetooth::audio::LeAudioCodecConfiguration>::(unnamed enum at frameworks/native/libs/binder/ndk/include_cpp/android/binder_to_string.h:118:5)",
   "referenced_type" : "_ZTIN7android8internal7details13IsPointerLikeIN4aidl7android8hardware9bluetooth5audio25LeAudioCodecConfigurationEE6$valueE",
   "self_type" : "_ZTIN7android8internal7details13IsPointerLikeIN4aidl7android8hardware9bluetooth5audio25LeAudioCodecConfigurationEE6$valueE",
   "size" : 4,
   "source_file" : "frameworks/native/libs/binder/ndk/include_cpp/android/binder_to_string.h",
   "underlying_type" : "_ZTIj"
  },
  {
   "alignment" : 4,
   "enum_fields" :
   [
    {
     "enum_field_value" : 0,
     "name" : "android::internal::details::IsPointerLike<aidl::android::hardware::bluetooth::audio::LeAudioBroadcastConfiguration::BroadcastStreamMap>::value"
    }
   ],
   "linker_set_key" : "_ZTIN7android8internal7details13IsPointerLikeIN4aidl7android8hardware9bluetooth5audio29LeAudioBroadcastConfiguration18BroadcastStreamMapEE6$valueE",
   "name" : "android::internal::details::IsPointerLike<aidl::android::hardware::bluetooth::audio::LeAudioBroadcastConfiguration::BroadcastStreamMap>::(unnamed enum at frameworks/native/libs/binder/ndk/include_cpp/android/binder_to_string.h:118:5)",
   "referenced_type" : "_ZTIN7android8internal7details13IsPointerLikeIN4aidl7android8hardware9bluetooth5audio29LeAudioBroadcastConfiguration18BroadcastStreamMapEE6$valueE",
   "self_type" : "_ZTIN7android8internal7details13IsPointerLikeIN4aidl7android8hardware9bluetooth5audio29LeAudioBroadcastConfiguration18BroadcastStreamMapEE6$valueE",
   "size" : 4,
   "source_file" : "frameworks/native/libs/binder/ndk/include_cpp/android/binder_to_string.h",
   "underlying_type" : "_ZTIj"
  },
  {
   "alignment" : 4,
   "enum_fields" :
   [
    {
     "enum_field_value" : 0,
     "name" : "android::internal::details::IsPointerLike<aidl::android::hardware::bluetooth::audio::LeAudioBroadcastConfiguration>::value"
    }
   ],
   "linker_set_key" : "_ZTIN7android8internal7details13IsPointerLikeIN4aidl7android8hardware9bluetooth5audio29LeAudioBroadcastConfigurationEE6$valueE",
   "name" : "android::internal::details::IsPointerLike<aidl::android::hardware::bluetooth::audio::LeAudioBroadcastConfiguration>::(unnamed enum at frameworks/native/libs/binder/ndk/include_cpp/android/binder_to_string.h:118:5)",
   "referenced_type" : "_ZTIN7android8internal7details13IsPointerLikeIN4aidl7android8hardware9bluetooth5audio29LeAudioBroadcastConfigurationEE6$valueE",
   "self_type" : "_ZTIN7android8internal7details13IsPointerLikeIN4aidl7android8hardware9bluetooth5audio29LeAudioBroadcastConfigurationEE6$valueE",
   "size" : 4,
   "source_file" : "frameworks/native/libs/binder/ndk/include_cpp/android/binder_to_string.h",
   "underlying_type" : "_ZTIj"
  },
  {
   "alignment" : 4,
   "enum_fields" :
   [
    {
     "enum_field_value" : 0,
     "name" : "android::internal::details::IsPointerLike<aidl::android::hardware::bluetooth::audio::LeAudioCodecCapabilitiesSetting>::value"
    }
   ],
   "linker_set_key" : "_ZTIN7android8internal7details13IsPointerLikeIN4aidl7android8hardware9bluetooth5audio31LeAudioCodecCapabilitiesSettingEE6$valueE",
   "name" : "android::internal::details::IsPointerLike<aidl::android::hardware::bluetooth::audio::LeAudioCodecCapabilitiesSetting>::(unnamed enum at frameworks/native/libs/binder/ndk/include_cpp/android/binder_to_string.h:118:5)",
   "referenced_type" : "_ZTIN7android8internal7details13IsPointerLikeIN4aidl7android8hardware9bluetooth5audio31LeAudioCodecCapabilitiesSettingEE6$valueE",
   "self_type" : "_ZTIN7android8internal7details13IsPointerLikeIN4aidl7android8hardware9bluetooth5audio31LeAudioCodecCapabilitiesSettingEE6$valueE",
   "size" : 4,
   "source_file" : "frameworks/native/libs/binder/ndk/include_cpp/android/binder_to_string.h",
   "underlying_type" : "_ZTIj"
  },
  {
   "alignment" : 4,
   "enum_fields" :
   [
    {
     "enum_field_value" : 0,
     "name" : "android::internal::details::IsPointerLike<aidl::android::hardware::bluetooth::audio::AptxMode>::value"
    }
   ],
   "linker_set_key" : "_ZTIN7android8internal7details13IsPointerLikeIN4aidl7android8hardware9bluetooth5audio8AptxModeEE6$valueE",
   "name" : "android::internal::details::IsPointerLike<aidl::android::hardware::bluetooth::audio::AptxMode>::(unnamed enum at frameworks/native/libs/binder/ndk/include_cpp/android/binder_to_string.h:118:5)",
   "referenced_type" : "_ZTIN7android8internal7details13IsPointerLikeIN4aidl7android8hardware9bluetooth5audio8AptxModeEE6$valueE",
   "self_type" : "_ZTIN7android8internal7details13IsPointerLikeIN4aidl7android8hardware9bluetooth5audio8AptxModeEE6$valueE",
   "size" : 4,
   "source_file" : "frameworks/native/libs/binder/ndk/include_cpp/android/binder_to_string.h",
   "underlying_type" : "_ZTIj"
  },
  {
   "alignment" : 4,
   "enum_fields" :
   [
    {
     "enum_field_value" : 0,
     "name" : "android::internal::details::IsPointerLike<aidl::android::hardware::bluetooth::audio::CodecType>::value"
    }
   ],
   "linker_set_key" : "_ZTIN7android8internal7details13IsPointerLikeIN4aidl7android8hardware9bluetooth5audio9CodecTypeEE6$valueE",
   "name" : "android::internal::details::IsPointerLike<aidl::android::hardware::bluetooth::audio::CodecType>::(unnamed enum at frameworks/native/libs/binder/ndk/include_cpp/android/binder_to_string.h:118:5)",
   "referenced_type" : "_ZTIN7android8internal7details13IsPointerLikeIN4aidl7android8hardware9bluetooth5audio9CodecTypeEE6$valueE",
   "self_type" : "_ZTIN7android8internal7details13IsPointerLikeIN4aidl7android8hardware9bluetooth5audio9CodecTypeEE6$valueE",
   "size" : 4,
   "source_file" : "frameworks/native/libs/binder/ndk/include_cpp/android/binder_to_string.h",
   "underlying_type" : "_ZTIj"
  },
  {
   "alignment" : 4,
   "enum_fields" :
   [
    {
     "enum_field_value" : 0,
     "name" : "android::internal::details::IsPointerLike<std::vector<ndk::ScopedFileDescriptor>>::value"
    }
   ],
   "linker_set_key" : "_ZTIN7android8internal7details13IsPointerLikeINSt3__16vectorIN3ndk20ScopedFileDescriptorENS3_9allocatorIS6_EEEEE6$valueE",
   "name" : "android::internal::details::IsPointerLike<std::vector<ndk::ScopedFileDescriptor, std::allocator<ndk::ScopedFileDescriptor>>>::(unnamed enum at frameworks/native/libs/binder/ndk/include_cpp/android/binder_to_string.h:118:5)",
   "referenced_type" : "_ZTIN7android8internal7details13IsPointerLikeINSt3__16vectorIN3ndk20ScopedFileDescriptorENS3_9allocatorIS6_EEEEE6$valueE",
   "self_type" : "_ZTIN7android8internal7details13IsPointerLikeINSt3__16vectorIN3ndk20ScopedFileDescriptorENS3_9allocatorIS6_EEEEE6$valueE",
   "size" : 4,
   "source_file" : "frameworks/native/libs/binder/ndk/include_cpp/android/binder_to_string.h",
   "underlying_type" : "_ZTIj"
  },
  {
   "alignment" : 4,
   "enum_fields" :
   [
    {
     "enum_field_value" : 0,
     "name" : "android::internal::details::IsPointerLike<std::vector<aidl::android::hardware::audio::common::RecordTrackMetadata>>::value"
    }
   ],
   "linker_set_key" : "_ZTIN7android8internal7details13IsPointerLikeINSt3__16vectorIN4aidl7android8hardware5audio6common19RecordTrackMetadataENS3_9allocatorISA_EEEEE6$valueE",
   "name" : "android::internal::details::IsPointerLike<std::vector<aidl::android::hardware::audio::common::RecordTrackMetadata, std::allocator<aidl::android::hardware::audio::common::RecordTrackMetadata>>>::(unnamed enum at frameworks/native/libs/binder/ndk/include_cpp/android/binder_to_string.h:118:5)",
   "referenced_type" : "_ZTIN7android8internal7details13IsPointerLikeINSt3__16vectorIN4aidl7android8hardware5audio6common19RecordTrackMetadataENS3_9allocatorISA_EEEEE6$valueE",
   "self_type" : "_ZTIN7android8internal7details13IsPointerLikeINSt3__16vectorIN4aidl7android8hardware5audio6common19RecordTrackMetadataENS3_9allocatorISA_EEEEE6$valueE",
   "size" : 4,
   "source_file" : "frameworks/native/libs/binder/ndk/include_cpp/android/binder_to_string.h",
   "underlying_type" : "_ZTIj"
  },
  {
   "alignment" : 4,
   "enum_fields" :
   [
    {
     "enum_field_value" : 0,
     "name" : "android::internal::details::IsPointerLike<std::vector<aidl::android::hardware::audio::common::PlaybackTrackMetadata>>::value"
    }
   ],
   "linker_set_key" : "_ZTIN7android8internal7details13IsPointerLikeINSt3__16vectorIN4aidl7android8hardware5audio6common21PlaybackTrackMetadataENS3_9allocatorISA_EEEEE6$valueE",
   "name" : "android::internal::details::IsPointerLike<std::vector<aidl::android::hardware::audio::common::PlaybackTrackMetadata, std::allocator<aidl::android::hardware::audio::common::PlaybackTrackMetadata>>>::(unnamed enum at frameworks/native/libs/binder/ndk/include_cpp/android/binder_to_string.h:118:5)",
   "referenced_type" : "_ZTIN7android8internal7details13IsPointerLikeINSt3__16vectorIN4aidl7android8hardware5audio6common21PlaybackTrackMetadataENS3_9allocatorISA_EEEEE6$valueE",
   "self_type" : "_ZTIN7android8internal7details13IsPointerLikeINSt3__16vectorIN4aidl7android8hardware5audio6common21PlaybackTrackMetadataENS3_9allocatorISA_EEEEE6$valueE",
   "size" : 4,
   "source_file" : "frameworks/native/libs/binder/ndk/include_cpp/android/binder_to_string.h",
   "underlying_type" : "_ZTIj"
  },
  {
   "alignment" : 4,
   "enum_fields" :
   [
    {
     "enum_field_value" : 0,
     "name" : "android::internal::details::IsPointerLike<std::vector<aidl::android::hardware::bluetooth::audio::ChannelMode>>::value"
    }
   ],
   "linker_set_key" : "_ZTIN7android8internal7details13IsPointerLikeINSt3__16vectorIN4aidl7android8hardware9bluetooth5audio11ChannelModeENS3_9allocatorISA_EEEEE6$valueE",
   "name" : "android::internal::details::IsPointerLike<std::vector<aidl::android::hardware::bluetooth::audio::ChannelMode, std::allocator<aidl::android::hardware::bluetooth::audio::ChannelMode>>>::(unnamed enum at frameworks/native/libs/binder/ndk/include_cpp/android/binder_to_string.h:118:5)",
   "referenced_type" : "_ZTIN7android8internal7details13IsPointerLikeINSt3__16vectorIN4aidl7android8hardware9bluetooth5audio11ChannelModeENS3_9allocatorISA_EEEEE6$valueE",
   "self_type" : "_ZTIN7android8internal7details13IsPointerLikeINSt3__16vectorIN4aidl7android8hardware9bluetooth5audio11ChannelModeENS3_9allocatorISA_EEEEE6$valueE",
   "size" : 4,
   "source_file" : "frameworks/native/libs/binder/ndk/include_cpp/android/binder_to_string.h",
   "underlying_type" : "_ZTIj"
  },
  {
   "alignment" : 4,
   "enum_fields" :
   [
    {
     "enum_field_value" : 0,
     "name" : "android::internal::details::IsPointerLike<std::vector<aidl::android::hardware::bluetooth::audio::AacObjectType>>::value"
    }
   ],
   "linker_set_key" : "_ZTIN7android8internal7details13IsPointerLikeINSt3__16vectorIN4aidl7android8hardware9bluetooth5audio13AacObjectTypeENS3_9allocatorISA_EEEEE6$valueE",
   "name" : "android::internal::details::IsPointerLike<std::vector<aidl::android::hardware::bluetooth::audio::AacObjectType, std::allocator<aidl::android::hardware::bluetooth::audio::AacObjectType>>>::(unnamed enum at frameworks/native/libs/binder/ndk/include_cpp/android/binder_to_string.h:118:5)",
   "referenced_type" : "_ZTIN7android8internal7details13IsPointerLikeINSt3__16vectorIN4aidl7android8hardware9bluetooth5audio13AacObjectTypeENS3_9allocatorISA_EEEEE6$valueE",
   "self_type" : "_ZTIN7android8internal7details13IsPointerLikeINSt3__16vectorIN4aidl7android8hardware9bluetooth5audio13AacObjectTypeENS3_9allocatorISA_EEEEE6$valueE",
   "size" : 4,
   "source_file" : "frameworks/native/libs/binder/ndk/include_cpp/android/binder_to_string.h",
   "underlying_type" : "_ZTIj"
  },
  {
   "alignment" : 4,
   "enum_fields" :
   [
    {
     "enum_field_value" : 0,
     "name" : "android::internal::details::IsPointerLike<std::vector<aidl::android::hardware::bluetooth::audio::SbcAllocMethod>>::value"
    }
   ],
   "linker_set_key" : "_ZTIN7android8internal7details13IsPointerLikeINSt3__16vectorIN4aidl7android8hardware9bluetooth5audio14SbcAllocMethodENS3_9allocatorISA_EEEEE6$valueE",
   "name" : "android::internal::details::IsPointerLike<std::vector<aidl::android::hardware::bluetooth::audio::SbcAllocMethod, std::allocator<aidl::android::hardware::bluetooth::audio::SbcAllocMethod>>>::(unnamed enum at frameworks/native/libs/binder/ndk/include_cpp/android/binder_to_string.h:118:5)",
   "referenced_type" : "_ZTIN7android8internal7details13IsPointerLikeINSt3__16vectorIN4aidl7android8hardware9bluetooth5audio14SbcAllocMethodENS3_9allocatorISA_EEEEE6$valueE",
   "self_type" : "_ZTIN7android8internal7details13IsPointerLikeINSt3__16vectorIN4aidl7android8hardware9bluetooth5audio14SbcAllocMethodENS3_9allocatorISA_EEEEE6$valueE",
   "size" : 4,
   "source_file" : "frameworks/native/libs/binder/ndk/include_cpp/android/binder_to_string.h",
   "underlying_type" : "_ZTIj"
  },
  {
   "alignment" : 4,
   "enum_fields" :
   [
    {
     "enum_field_value" : 0,
     "name" : "android::internal::details::IsPointerLike<std::vector<aidl::android::hardware::bluetooth::audio::SbcChannelMode>>::value"
    }
   ],
   "linker_set_key" : "_ZTIN7android8internal7details13IsPointerLikeINSt3__16vectorIN4aidl7android8hardware9bluetooth5audio14SbcChannelModeENS3_9allocatorISA_EEEEE6$valueE",
   "name" : "android::internal::details::IsPointerLike<std::vector<aidl::android::hardware::bluetooth::audio::SbcChannelMode, std::allocator<aidl::android::hardware::bluetooth::audio::SbcChannelMode>>>::(unnamed enum at frameworks/native/libs/binder/ndk/include_cpp/android/binder_to_string.h:118:5)",
   "referenced_type" : "_ZTIN7android8internal7details13IsPointerLikeINSt3__16vectorIN4aidl7android8hardware9bluetooth5audio14SbcChannelModeENS3_9allocatorISA_EEEEE6$valueE",
   "self_type" : "_ZTIN7android8internal7details13IsPointerLikeINSt3__16vectorIN4aidl7android8hardware9bluetooth5audio14SbcChannelModeENS3_9allocatorISA_EEEEE6$valueE",
   "size" : 4,
   "source_file" : "frameworks/native/libs/binder/ndk/include_cpp/android/binder_to_string.h",
   "underlying_type" : "_ZTIj"
  },
  {
   "alignment" : 4,
   "enum_fields" :
   [
    {
     "enum_field_value" : 0,
     "name" : "android::internal::details::IsPointerLike<std::vector<aidl::android::hardware::bluetooth::audio::LdacChannelMode>>::value"
    }
   ],
   "linker_set_key" : "_ZTIN7android8internal7details13IsPointerLikeINSt3__16vectorIN4aidl7android8hardware9bluetooth5audio15LdacChannelModeENS3_9allocatorISA_EEEEE6$valueE",
   "name" : "android::internal::details::IsPointerLike<std::vector<aidl::android::hardware::bluetooth::audio::LdacChannelMode, std::allocator<aidl::android::hardware::bluetooth::audio::LdacChannelMode>>>::(unnamed enum at frameworks/native/libs/binder/ndk/include_cpp/android/binder_to_string.h:118:5)",
   "referenced_type" : "_ZTIN7android8internal7details13IsPointerLikeINSt3__16vectorIN4aidl7android8hardware9bluetooth5audio15LdacChannelModeENS3_9allocatorISA_EEEEE6$valueE",
   "self_type" : "_ZTIN7android8internal7details13IsPointerLikeINSt3__16vectorIN4aidl7android8hardware9bluetooth5audio15LdacChannelModeENS3_9allocatorISA_EEEEE6$valueE",
   "size" : 4,
   "source_file" : "frameworks/native/libs/binder/ndk/include_cpp/android/binder_to_string.h",
   "underlying_type" : "_ZTIj"
  },
  {
   "alignment" : 4,
   "enum_fields" :
   [
    {
     "enum_field_value" : 0,
     "name" : "android::internal::details::IsPointerLike<std::vector<aidl::android::hardware::bluetooth::audio::LdacQualityIndex>>::value"
    }
   ],
   "linker_set_key" : "_ZTIN7android8internal7details13IsPointerLikeINSt3__16vectorIN4aidl7android8hardware9bluetooth5audio16LdacQualityIndexENS3_9allocatorISA_EEEEE6$valueE",
   "name" : "android::internal::details::IsPointerLike<std::vector<aidl::android::hardware::bluetooth::audio::LdacQualityIndex, std::allocator<aidl::android::hardware::bluetooth::audio::LdacQualityIndex>>>::(unnamed enum at frameworks/native/libs/binder/ndk/include_cpp/android/binder_to_string.h:118:5)",
   "referenced_type" : "_ZTIN7android8internal7details13IsPointerLikeINSt3__16vectorIN4aidl7android8hardware9bluetooth5audio16LdacQualityIndexENS3_9allocatorISA_EEEEE6$valueE",
   "self_type" : "_ZTIN7android8internal7details13IsPointerLikeINSt3__16vectorIN4aidl7android8hardware9bluetooth5audio16LdacQualityIndexENS3_9allocatorISA_EEEEE6$valueE",
   "size" : 4,
   "source_file" : "frameworks/native/libs/binder/ndk/include_cpp/android/binder_to_string.h",
   "underlying_type" : "_ZTIj"
  },
  {
   "alignment" : 4,
   "enum_fields" :
   [
    {
     "enum_field_value" : 0,
     "name" : "android::internal::details::IsPointerLike<std::vector<aidl::android::hardware::bluetooth::audio::LeAudioConfiguration::StreamMap>>::value"
    }
   ],
   "linker_set_key" : "_ZTIN7android8internal7details13IsPointerLikeINSt3__16vectorIN4aidl7android8hardware9bluetooth5audio20LeAudioConfiguration9StreamMapENS3_9allocatorISB_EEEEE6$valueE",
   "name" : "android::internal::details::IsPointerLike<std::vector<aidl::android::hardware::bluetooth::audio::LeAudioConfiguration::StreamMap, std::allocator<aidl::android::hardware::bluetooth::audio::LeAudioConfiguration::StreamMap>>>::(unnamed enum at frameworks/native/libs/binder/ndk/include_cpp/android/binder_to_string.h:118:5)",
   "referenced_type" : "_ZTIN7android8internal7details13IsPointerLikeINSt3__16vectorIN4aidl7android8hardware9bluetooth5audio20LeAudioConfiguration9StreamMapENS3_9allocatorISB_EEEEE6$valueE",
   "self_type" : "_ZTIN7android8internal7details13IsPointerLikeINSt3__16vectorIN4aidl7android8hardware9bluetooth5audio20LeAudioConfiguration9StreamMapENS3_9allocatorISB_EEEEE6$valueE",
   "size" : 4,
   "source_file" : "frameworks/native/libs/binder/ndk/include_cpp/android/binder_to_string.h",
   "underlying_type" : "_ZTIj"
  },
  {
   "alignment" : 4,
   "enum_fields" :
   [
    {
     "enum_field_value" : 0,
     "name" : "android::internal::details::IsPointerLike<std::vector<aidl::android::hardware::bluetooth::audio::AptxAdaptiveChannelMode>>::value"
    }
   ],
   "linker_set_key" : "_ZTIN7android8internal7details13IsPointerLikeINSt3__16vectorIN4aidl7android8hardware9bluetooth5audio23AptxAdaptiveChannelModeENS3_9allocatorISA_EEEEE6$valueE",
   "name" : "android::internal::details::IsPointerLike<std::vector<aidl::android::hardware::bluetooth::audio::AptxAdaptiveChannelMode, std::allocator<aidl::android::hardware::bluetooth::audio::AptxAdaptiveChannelMode>>>::(unnamed enum at frameworks/native/libs/binder/ndk/include_cpp/android/binder_to_string.h:118:5)",
   "referenced_type" : "_ZTIN7android8internal7details13IsPointerLikeINSt3__16vectorIN4aidl7android8hardware9bluetooth5audio23AptxAdaptiveChannelModeENS3_9allocatorISA_EEEEE6$valueE",
   "self_type" : "_ZTIN7android8internal7details13IsPointerLikeINSt3__16vectorIN4aidl7android8hardware9bluetooth5audio23AptxAdaptiveChannelModeENS3_9allocatorISA_EEEEE6$valueE",
   "size" : 4,
   "source_file" : "frameworks/native/libs/binder/ndk/include_cpp/android/binder_to_string.h",
   "underlying_type" : "_ZTIj"
  },
  {
   "alignment" : 4,
   "enum_fields" :
   [
    {
     "enum_field_value" : 0,
     "name" : "android::internal::details::IsPointerLike<std::vector<aidl::android::hardware::bluetooth::audio::LeAudioBroadcastConfiguration::BroadcastStreamMap>>::value"
    }
   ],
   "linker_set_key" : "_ZTIN7android8internal7details13IsPointerLikeINSt3__16vectorIN4aidl7android8hardware9bluetooth5audio29LeAudioBroadcastConfiguration18BroadcastStreamMapENS3_9allocatorISB_EEEEE6$valueE",
   "name" : "android::internal::details::IsPointerLike<std::vector<aidl::android::hardware::bluetooth::audio::LeAudioBroadcastConfiguration::BroadcastStreamMap, std::allocator<aidl::android::hardware::bluetooth::audio::LeAudioBroadcastConfiguration::BroadcastStreamMap>>>::(unnamed enum at frameworks/native/libs/binder/ndk/include_cpp/android/binder_to_string.h:118:5)",
   "referenced_type" : "_ZTIN7android8internal7details13IsPointerLikeINSt3__16vectorIN4aidl7android8hardware9bluetooth5audio29LeAudioBroadcastConfiguration18BroadcastStreamMapENS3_9allocatorISB_EEEEE6$valueE",
   "self_type" : "_ZTIN7android8internal7details13IsPointerLikeINSt3__16vectorIN4aidl7android8hardware9bluetooth5audio29LeAudioBroadcastConfiguration18BroadcastStreamMapENS3_9allocatorISB_EEEEE6$valueE",
   "size" : 4,
   "source_file" : "frameworks/native/libs/binder/ndk/include_cpp/android/binder_to_string.h",
   "underlying_type" : "_ZTIj"
  },
  {
   "alignment" : 4,
   "enum_fields" :
   [
    {
     "enum_field_value" : 0,
     "name" : "android::internal::details::IsPointerLike<std::vector<aidl::android::hardware::bluetooth::audio::AptxMode>>::value"
    }
   ],
   "linker_set_key" : "_ZTIN7android8internal7details13IsPointerLikeINSt3__16vectorIN4aidl7android8hardware9bluetooth5audio8AptxModeENS3_9allocatorISA_EEEEE6$valueE",
   "name" : "android::internal::details::IsPointerLike<std::vector<aidl::android::hardware::bluetooth::audio::AptxMode, std::allocator<aidl::android::hardware::bluetooth::audio::AptxMode>>>::(unnamed enum at frameworks/native/libs/binder/ndk/include_cpp/android/binder_to_string.h:118:5)",
   "referenced_type" : "_ZTIN7android8internal7details13IsPointerLikeINSt3__16vectorIN4aidl7android8hardware9bluetooth5audio8AptxModeENS3_9allocatorISA_EEEEE6$valueE",
   "self_type" : "_ZTIN7android8internal7details13IsPointerLikeINSt3__16vectorIN4aidl7android8hardware9bluetooth5audio8AptxModeENS3_9allocatorISA_EEEEE6$valueE",
   "size" : 4,
   "source_file" : "frameworks/native/libs/binder/ndk/include_cpp/android/binder_to_string.h",
   "underlying_type" : "_ZTIj"
  },
  {
   "alignment" : 4,
   "enum_fields" :
   [
    {
     "enum_field_value" : 0,
     "name" : "android::internal::details::IsPointerLike<std::vector<std::basic_string<char>>>::value"
    }
   ],
   "linker_set_key" : "_ZTIN7android8internal7details13IsPointerLikeINSt3__16vectorINS3_12basic_stringIcNS3_11char_traitsIcEENS3_9allocatorIcEEEENS8_ISA_EEEEE6$valueE",
   "name" : "android::internal::details::IsPointerLike<std::vector<std::basic_string<char, std::char_traits<char>, std::allocator<char>>, std::allocator<std::basic_string<char, std::char_traits<char>, std::allocator<char>>>>>::(unnamed enum at frameworks/native/libs/binder/ndk/include_cpp/android/binder_to_string.h:118:5)",
   "referenced_type" : "_ZTIN7android8internal7details13IsPointerLikeINSt3__16vectorINS3_12basic_stringIcNS3_11char_traitsIcEENS3_9allocatorIcEEEENS8_ISA_EEEEE6$valueE",
   "self_type" : "_ZTIN7android8internal7details13IsPointerLikeINSt3__16vectorINS3_12basic_stringIcNS3_11char_traitsIcEENS3_9allocatorIcEEEENS8_ISA_EEEEE6$valueE",
   "size" : 4,
   "source_file" : "frameworks/native/libs/binder/ndk/include_cpp/android/binder_to_string.h",
   "underlying_type" : "_ZTIj"
  },
  {
   "alignment" : 4,
   "enum_fields" :
   [
    {
     "enum_field_value" : 0,
     "name" : "android::internal::details::IsPointerLike<std::vector<std::optional<aidl::android::hardware::bluetooth::audio::Lc3Capabilities>>>::value"
    }
   ],
   "linker_set_key" : "_ZTIN7android8internal7details13IsPointerLikeINSt3__16vectorINS3_8optionalIN4aidl7android8hardware9bluetooth5audio15Lc3CapabilitiesEEENS3_9allocatorISC_EEEEE6$valueE",
   "name" : "android::internal::details::IsPointerLike<std::vector<std::optional<aidl::android::hardware::bluetooth::audio::Lc3Capabilities>, std::allocator<std::optional<aidl::android::hardware::bluetooth::audio::Lc3Capabilities>>>>::(unnamed enum at frameworks/native/libs/binder/ndk/include_cpp/android/binder_to_string.h:118:5)",
   "referenced_type" : "_ZTIN7android8internal7details13IsPointerLikeINSt3__16vectorINS3_8optionalIN4aidl7android8hardware9bluetooth5audio15Lc3CapabilitiesEEENS3_9allocatorISC_EEEEE6$valueE",
   "self_type" : "_ZTIN7android8internal7details13IsPointerLikeINSt3__16vectorINS3_8optionalIN4aidl7android8hardware9bluetooth5audio15Lc3CapabilitiesEEENS3_9allocatorISC_EEEEE6$valueE",
   "size" : 4,
   "source_file" : "frameworks/native/libs/binder/ndk/include_cpp/android/binder_to_string.h",
   "underlying_type" : "_ZTIj"
  },
  {
   "alignment" : 4,
   "enum_fields" :
   [
    {
     "enum_field_value" : 0,
     "name" : "android::internal::details::IsPointerLike<std::vector<std::optional<aidl::android::hardware::bluetooth::audio::BroadcastCapability::VendorCapabilities>>>::value"
    }
   ],
   "linker_set_key" : "_ZTIN7android8internal7details13IsPointerLikeINSt3__16vectorINS3_8optionalIN4aidl7android8hardware9bluetooth5audio19BroadcastCapability18VendorCapabilitiesEEENS3_9allocatorISD_EEEEE6$valueE",
   "name" : "android::internal::details::IsPointerLike<std::vector<std::optional<aidl::android::hardware::bluetooth::audio::BroadcastCapability::VendorCapabilities>, std::allocator<std::optional<aidl::android::hardware::bluetooth::audio::BroadcastCapability::VendorCapabilities>>>>::(unnamed enum at frameworks/native/libs/binder/ndk/include_cpp/android/binder_to_string.h:118:5)",
   "referenced_type" : "_ZTIN7android8internal7details13IsPointerLikeINSt3__16vectorINS3_8optionalIN4aidl7android8hardware9bluetooth5audio19BroadcastCapability18VendorCapabilitiesEEENS3_9allocatorISD_EEEEE6$valueE",
   "self_type" : "_ZTIN7android8internal7details13IsPointerLikeINSt3__16vectorINS3_8optionalIN4aidl7android8hardware9bluetooth5audio19BroadcastCapability18VendorCapabilitiesEEENS3_9allocatorISD_EEEEE6$valueE",
   "size" : 4,
   "source_file" : "frameworks/native/libs/binder/ndk/include_cpp/android/binder_to_string.h",
   "underlying_type" : "_ZTIj"
  },
  {
   "alignment" : 4,
   "enum_fields" :
   [
    {
     "enum_field_value" : 0,
     "name" : "android::internal::details::IsPointerLike<std::vector<unsigned char>>::value"
    }
   ],
   "linker_set_key" : "_ZTIN7android8internal7details13IsPointerLikeINSt3__16vectorIhNS3_9allocatorIhEEEEE6$valueE",
   "name" : "android::internal::details::IsPointerLike<std::vector<unsigned char, std::allocator<unsigned char>>>::(unnamed enum at frameworks/native/libs/binder/ndk/include_cpp/android/binder_to_string.h:118:5)",
   "referenced_type" : "_ZTIN7android8internal7details13IsPointerLikeINSt3__16vectorIhNS3_9allocatorIhEEEEE6$valueE",
   "self_type" : "_ZTIN7android8internal7details13IsPointerLikeINSt3__16vectorIhNS3_9allocatorIhEEEEE6$valueE",
   "size" : 4,
   "source_file" : "frameworks/native/libs/binder/ndk/include_cpp/android/binder_to_string.h",
   "underlying_type" : "_ZTIj"
  },
  {
   "alignment" : 4,
   "enum_fields" :
   [
    {
     "enum_field_value" : 0,
     "name" : "android::internal::details::IsPointerLike<std::vector<int>>::value"
    }
   ],
   "linker_set_key" : "_ZTIN7android8internal7details13IsPointerLikeINSt3__16vectorIiNS3_9allocatorIiEEEEE6$valueE",
   "name" : "android::internal::details::IsPointerLike<std::vector<int, std::allocator<int>>>::(unnamed enum at frameworks/native/libs/binder/ndk/include_cpp/android/binder_to_string.h:118:5)",
   "referenced_type" : "_ZTIN7android8internal7details13IsPointerLikeINSt3__16vectorIiNS3_9allocatorIiEEEEE6$valueE",
   "self_type" : "_ZTIN7android8internal7details13IsPointerLikeINSt3__16vectorIiNS3_9allocatorIiEEEEE6$valueE",
   "size" : 4,
   "source_file" : "frameworks/native/libs/binder/ndk/include_cpp/android/binder_to_string.h",
   "underlying_type" : "_ZTIj"
  },
  {
   "alignment" : 4,
   "enum_fields" :
   [
    {
     "enum_field_value" : 1,
     "name" : "android::internal::details::IsPointerLike<std::optional<aidl::android::media::audio::common::AudioDevice>>::value"
    }
   ],
   "linker_set_key" : "_ZTIN7android8internal7details13IsPointerLikeINSt3__18optionalIN4aidl7android5media5audio6common11AudioDeviceEEEE6$valueE",
   "name" : "android::internal::details::IsPointerLike<std::optional<aidl::android::media::audio::common::AudioDevice>>::(unnamed enum at frameworks/native/libs/binder/ndk/include_cpp/android/binder_to_string.h:118:5)",
   "referenced_type" : "_ZTIN7android8internal7details13IsPointerLikeINSt3__18optionalIN4aidl7android5media5audio6common11AudioDeviceEEEE6$valueE",
   "self_type" : "_ZTIN7android8internal7details13IsPointerLikeINSt3__18optionalIN4aidl7android5media5audio6common11AudioDeviceEEEE6$valueE",
   "size" : 4,
   "source_file" : "frameworks/native/libs/binder/ndk/include_cpp/android/binder_to_string.h",
   "underlying_type" : "_ZTIj"
  },
  {
   "alignment" : 4,
   "enum_fields" :
   [
    {
     "enum_field_value" : 1,
     "name" : "android::internal::details::IsPointerLike<std::optional<aidl::android::hardware::bluetooth::audio::Lc3Capabilities>>::value"
    }
   ],
   "linker_set_key" : "_ZTIN7android8internal7details13IsPointerLikeINSt3__18optionalIN4aidl7android8hardware9bluetooth5audio15Lc3CapabilitiesEEEE6$valueE",
   "name" : "android::internal::details::IsPointerLike<std::optional<aidl::android::hardware::bluetooth::audio::Lc3Capabilities>>::(unnamed enum at frameworks/native/libs/binder/ndk/include_cpp/android/binder_to_string.h:118:5)",
   "referenced_type" : "_ZTIN7android8internal7details13IsPointerLikeINSt3__18optionalIN4aidl7android8hardware9bluetooth5audio15Lc3CapabilitiesEEEE6$valueE",
   "self_type" : "_ZTIN7android8internal7details13IsPointerLikeINSt3__18optionalIN4aidl7android8hardware9bluetooth5audio15Lc3CapabilitiesEEEE6$valueE",
   "size" : 4,
   "source_file" : "frameworks/native/libs/binder/ndk/include_cpp/android/binder_to_string.h",
   "underlying_type" : "_ZTIj"
  },
  {
   "alignment" : 4,
   "enum_fields" :
   [
    {
     "enum_field_value" : 1,
     "name" : "android::internal::details::IsPointerLike<std::optional<aidl::android::hardware::bluetooth::audio::OpusCapabilities>>::value"
    }
   ],
   "linker_set_key" : "_ZTIN7android8internal7details13IsPointerLikeINSt3__18optionalIN4aidl7android8hardware9bluetooth5audio16OpusCapabilitiesEEEE6$valueE",
   "name" : "android::internal::details::IsPointerLike<std::optional<aidl::android::hardware::bluetooth::audio::OpusCapabilities>>::(unnamed enum at frameworks/native/libs/binder/ndk/include_cpp/android/binder_to_string.h:118:5)",
   "referenced_type" : "_ZTIN7android8internal7details13IsPointerLikeINSt3__18optionalIN4aidl7android8hardware9bluetooth5audio16OpusCapabilitiesEEEE6$valueE",
   "self_type" : "_ZTIN7android8internal7details13IsPointerLikeINSt3__18optionalIN4aidl7android8hardware9bluetooth5audio16OpusCapabilitiesEEEE6$valueE",
   "size" : 4,
   "source_file" : "frameworks/native/libs/binder/ndk/include_cpp/android/binder_to_string.h",
   "underlying_type" : "_ZTIj"
  },
  {
   "alignment" : 4,
   "enum_fields" :
   [
    {
     "enum_field_value" : 1,
     "name" : "android::internal::details::IsPointerLike<std::optional<aidl::android::hardware::bluetooth::audio::OpusConfiguration>>::value"
    }
   ],
   "linker_set_key" : "_ZTIN7android8internal7details13IsPointerLikeINSt3__18optionalIN4aidl7android8hardware9bluetooth5audio17OpusConfigurationEEEE6$valueE",
   "name" : "android::internal::details::IsPointerLike<std::optional<aidl::android::hardware::bluetooth::audio::OpusConfiguration>>::(unnamed enum at frameworks/native/libs/binder/ndk/include_cpp/android/binder_to_string.h:118:5)",
   "referenced_type" : "_ZTIN7android8internal7details13IsPointerLikeINSt3__18optionalIN4aidl7android8hardware9bluetooth5audio17OpusConfigurationEEEE6$valueE",
   "self_type" : "_ZTIN7android8internal7details13IsPointerLikeINSt3__18optionalIN4aidl7android8hardware9bluetooth5audio17OpusConfigurationEEEE6$valueE",
   "size" : 4,
   "source_file" : "frameworks/native/libs/binder/ndk/include_cpp/android/binder_to_string.h",
   "underlying_type" : "_ZTIj"
  },
  {
   "alignment" : 4,
   "enum_fields" :
   [
    {
     "enum_field_value" : 1,
     "name" : "android::internal::details::IsPointerLike<std::optional<aidl::android::hardware::bluetooth::audio::BroadcastCapability::VendorCapabilities>>::value"
    }
   ],
   "linker_set_key" : "_ZTIN7android8internal7details13IsPointerLikeINSt3__18optionalIN4aidl7android8hardware9bluetooth5audio19BroadcastCapability18VendorCapabilitiesEEEE6$valueE",
   "name" : "android::internal::details::IsPointerLike<std::optional<aidl::android::hardware::bluetooth::audio::BroadcastCapability::VendorCapabilities>>::(unnamed enum at frameworks/native/libs/binder/ndk/include_cpp/android/binder_to_string.h:118:5)",
   "referenced_type" : "_ZTIN7android8internal7details13IsPointerLikeINSt3__18optionalIN4aidl7android8hardware9bluetooth5audio19BroadcastCapability18VendorCapabilitiesEEEE6$valueE",
   "self_type" : "_ZTIN7android8internal7details13IsPointerLikeINSt3__18optionalIN4aidl7android8hardware9bluetooth5audio19BroadcastCapability18VendorCapabilitiesEEEE6$valueE",
   "size" : 4,
   "source_file" : "frameworks/native/libs/binder/ndk/include_cpp/android/binder_to_string.h",
   "underlying_type" : "_ZTIj"
  },
  {
   "alignment" : 4,
   "enum_fields" :
   [
    {
     "enum_field_value" : 1,
     "name" : "android::internal::details::IsPointerLike<std::optional<std::vector<std::optional<aidl::android::hardware::bluetooth::audio::Lc3Capabilities>>>>::value"
    }
   ],
   "linker_set_key" : "_ZTIN7android8internal7details13IsPointerLikeINSt3__18optionalINS3_6vectorINS4_IN4aidl7android8hardware9bluetooth5audio15Lc3CapabilitiesEEENS3_9allocatorISC_EEEEEEE6$valueE",
   "name" : "android::internal::details::IsPointerLike<std::optional<std::vector<std::optional<aidl::android::hardware::bluetooth::audio::Lc3Capabilities>, std::allocator<std::optional<aidl::android::hardware::bluetooth::audio::Lc3Capabilities>>>>>::(unnamed enum at frameworks/native/libs/binder/ndk/include_cpp/android/binder_to_string.h:118:5)",
   "referenced_type" : "_ZTIN7android8internal7details13IsPointerLikeINSt3__18optionalINS3_6vectorINS4_IN4aidl7android8hardware9bluetooth5audio15Lc3CapabilitiesEEENS3_9allocatorISC_EEEEEEE6$valueE",
   "self_type" : "_ZTIN7android8internal7details13IsPointerLikeINSt3__18optionalINS3_6vectorINS4_IN4aidl7android8hardware9bluetooth5audio15Lc3CapabilitiesEEENS3_9allocatorISC_EEEEEEE6$valueE",
   "size" : 4,
   "source_file" : "frameworks/native/libs/binder/ndk/include_cpp/android/binder_to_string.h",
   "underlying_type" : "_ZTIj"
  },
  {
   "alignment" : 4,
   "enum_fields" :
   [
    {
     "enum_field_value" : 1,
     "name" : "android::internal::details::IsPointerLike<std::optional<std::vector<std::optional<aidl::android::hardware::bluetooth::audio::BroadcastCapability::VendorCapabilities>>>>::value"
    }
   ],
   "linker_set_key" : "_ZTIN7android8internal7details13IsPointerLikeINSt3__18optionalINS3_6vectorINS4_IN4aidl7android8hardware9bluetooth5audio19BroadcastCapability18VendorCapabilitiesEEENS3_9allocatorISD_EEEEEEE6$valueE",
   "name" : "android::internal::details::IsPointerLike<std::optional<std::vector<std::optional<aidl::android::hardware::bluetooth::audio::BroadcastCapability::VendorCapabilities>, std::allocator<std::optional<aidl::android::hardware::bluetooth::audio::BroadcastCapability::VendorCapabilities>>>>>::(unnamed enum at frameworks/native/libs/binder/ndk/include_cpp/android/binder_to_string.h:118:5)",
   "referenced_type" : "_ZTIN7android8internal7details13IsPointerLikeINSt3__18optionalINS3_6vectorINS4_IN4aidl7android8hardware9bluetooth5audio19BroadcastCapability18VendorCapabilitiesEEENS3_9allocatorISD_EEEEEEE6$valueE",
   "self_type" : "_ZTIN7android8internal7details13IsPointerLikeINSt3__18optionalINS3_6vectorINS4_IN4aidl7android8hardware9bluetooth5audio19BroadcastCapability18VendorCapabilitiesEEENS3_9allocatorISD_EEEEEEE6$valueE",
   "size" : 4,
   "source_file" : "frameworks/native/libs/binder/ndk/include_cpp/android/binder_to_string.h",
   "underlying_type" : "_ZTIj"
  },
  {
   "alignment" : 4,
   "enum_fields" :
   [
    {
     "enum_field_value" : 0,
     "name" : "android::internal::details::ToEmptyString<char16_t>::value"
    }
   ],
   "linker_set_key" : "_ZTIN7android8internal7details13ToEmptyStringIDsE6$valueE",
   "name" : "android::internal::details::ToEmptyString<char16_t>::(unnamed enum at frameworks/native/libs/binder/ndk/include_cpp/android/binder_to_string.h:153:5)",
   "referenced_type" : "_ZTIN7android8internal7details13ToEmptyStringIDsE6$valueE",
   "self_type" : "_ZTIN7android8internal7details13ToEmptyStringIDsE6$valueE",
   "size" : 4,
   "source_file" : "frameworks/native/libs/binder/ndk/include_cpp/android/binder_to_string.h",
   "underlying_type" : "_ZTIj"
  },
  {
   "alignment" : 4,
   "enum_fields" :
   [
    {
     "enum_field_value" : 1,
     "name" : "android::internal::details::ToEmptyString<ndk::AParcelableHolder>::value"
    }
   ],
   "linker_set_key" : "_ZTIN7android8internal7details13ToEmptyStringIN3ndk17AParcelableHolderEE6$valueE",
   "name" : "android::internal::details::ToEmptyString<ndk::AParcelableHolder>::(unnamed enum at frameworks/native/libs/binder/ndk/include_cpp/android/binder_to_string.h:153:5)",
   "referenced_type" : "_ZTIN7android8internal7details13ToEmptyStringIN3ndk17AParcelableHolderEE6$valueE",
   "self_type" : "_ZTIN7android8internal7details13ToEmptyStringIN3ndk17AParcelableHolderEE6$valueE",
   "size" : 4,
   "source_file" : "frameworks/native/libs/binder/ndk/include_cpp/android/binder_to_string.h",
   "underlying_type" : "_ZTIj"
  },
  {
   "alignment" : 4,
   "enum_fields" :
   [
    {
     "enum_field_value" : 0,
     "name" : "android::internal::details::ToEmptyString<ndk::ScopedFileDescriptor>::value"
    }
   ],
   "linker_set_key" : "_ZTIN7android8internal7details13ToEmptyStringIN3ndk20ScopedFileDescriptorEE6$valueE",
   "name" : "android::internal::details::ToEmptyString<ndk::ScopedFileDescriptor>::(unnamed enum at frameworks/native/libs/binder/ndk/include_cpp/android/binder_to_string.h:153:5)",
   "referenced_type" : "_ZTIN7android8internal7details13ToEmptyStringIN3ndk20ScopedFileDescriptorEE6$valueE",
   "self_type" : "_ZTIN7android8internal7details13ToEmptyStringIN3ndk20ScopedFileDescriptorEE6$valueE",
   "size" : 4,
   "source_file" : "frameworks/native/libs/binder/ndk/include_cpp/android/binder_to_string.h",
   "underlying_type" : "_ZTIj"
  },
  {
   "alignment" : 4,
   "enum_fields" :
   [
    {
     "enum_field_value" : 0,
     "name" : "android::internal::details::ToEmptyString<aidl::android::media::audio::common::AudioUsage>::value"
    }
   ],
   "linker_set_key" : "_ZTIN7android8internal7details13ToEmptyStringIN4aidl7android5media5audio6common10AudioUsageEE6$valueE",
   "name" : "android::internal::details::ToEmptyString<aidl::android::media::audio::common::AudioUsage>::(unnamed enum at frameworks/native/libs/binder/ndk/include_cpp/android/binder_to_string.h:153:5)",
   "referenced_type" : "_ZTIN7android8internal7details13ToEmptyStringIN4aidl7android5media5audio6common10AudioUsageEE6$valueE",
   "self_type" : "_ZTIN7android8internal7details13ToEmptyStringIN4aidl7android5media5audio6common10AudioUsageEE6$valueE",
   "size" : 4,
   "source_file" : "frameworks/native/libs/binder/ndk/include_cpp/android/binder_to_string.h",
   "underlying_type" : "_ZTIj"
  },
  {
   "alignment" : 4,
   "enum_fields" :
   [
    {
     "enum_field_value" : 0,
     "name" : "android::internal::details::ToEmptyString<aidl::android::media::audio::common::AudioDevice>::value"
    }
   ],
   "linker_set_key" : "_ZTIN7android8internal7details13ToEmptyStringIN4aidl7android5media5audio6common11AudioDeviceEE6$valueE",
   "name" : "android::internal::details::ToEmptyString<aidl::android::media::audio::common::AudioDevice>::(unnamed enum at frameworks/native/libs/binder/ndk/include_cpp/android/binder_to_string.h:153:5)",
   "referenced_type" : "_ZTIN7android8internal7details13ToEmptyStringIN4aidl7android5media5audio6common11AudioDeviceEE6$valueE",
   "self_type" : "_ZTIN7android8internal7details13ToEmptyStringIN4aidl7android5media5audio6common11AudioDeviceEE6$valueE",
   "size" : 4,
   "source_file" : "frameworks/native/libs/binder/ndk/include_cpp/android/binder_to_string.h",
   "underlying_type" : "_ZTIj"
  },
  {
   "alignment" : 4,
   "enum_fields" :
   [
    {
     "enum_field_value" : 0,
     "name" : "android::internal::details::ToEmptyString<aidl::android::media::audio::common::AudioSource>::value"
    }
   ],
   "linker_set_key" : "_ZTIN7android8internal7details13ToEmptyStringIN4aidl7android5media5audio6common11AudioSourceEE6$valueE",
   "name" : "android::internal::details::ToEmptyString<aidl::android::media::audio::common::AudioSource>::(unnamed enum at frameworks/native/libs/binder/ndk/include_cpp/android/binder_to_string.h:153:5)",
   "referenced_type" : "_ZTIN7android8internal7details13ToEmptyStringIN4aidl7android5media5audio6common11AudioSourceEE6$valueE",
   "self_type" : "_ZTIN7android8internal7details13ToEmptyStringIN4aidl7android5media5audio6common11AudioSourceEE6$valueE",
   "size" : 4,
   "source_file" : "frameworks/native/libs/binder/ndk/include_cpp/android/binder_to_string.h",
   "underlying_type" : "_ZTIj"
  },
  {
   "alignment" : 4,
   "enum_fields" :
   [
    {
     "enum_field_value" : 0,
     "name" : "android::internal::details::ToEmptyString<aidl::android::media::audio::common::AudioDeviceType>::value"
    }
   ],
   "linker_set_key" : "_ZTIN7android8internal7details13ToEmptyStringIN4aidl7android5media5audio6common15AudioDeviceTypeEE6$valueE",
   "name" : "android::internal::details::ToEmptyString<aidl::android::media::audio::common::AudioDeviceType>::(unnamed enum at frameworks/native/libs/binder/ndk/include_cpp/android/binder_to_string.h:153:5)",
   "referenced_type" : "_ZTIN7android8internal7details13ToEmptyStringIN4aidl7android5media5audio6common15AudioDeviceTypeEE6$valueE",
   "self_type" : "_ZTIN7android8internal7details13ToEmptyStringIN4aidl7android5media5audio6common15AudioDeviceTypeEE6$valueE",
   "size" : 4,
   "source_file" : "frameworks/native/libs/binder/ndk/include_cpp/android/binder_to_string.h",
   "underlying_type" : "_ZTIj"
  },
  {
   "alignment" : 4,
   "enum_fields" :
   [
    {
     "enum_field_value" : 0,
     "name" : "android::internal::details::ToEmptyString<aidl::android::media::audio::common::AudioContentType>::value"
    }
   ],
   "linker_set_key" : "_ZTIN7android8internal7details13ToEmptyStringIN4aidl7android5media5audio6common16AudioContentTypeEE6$valueE",
   "name" : "android::internal::details::ToEmptyString<aidl::android::media::audio::common::AudioContentType>::(unnamed enum at frameworks/native/libs/binder/ndk/include_cpp/android/binder_to_string.h:153:5)",
   "referenced_type" : "_ZTIN7android8internal7details13ToEmptyStringIN4aidl7android5media5audio6common16AudioContentTypeEE6$valueE",
   "self_type" : "_ZTIN7android8internal7details13ToEmptyStringIN4aidl7android5media5audio6common16AudioContentTypeEE6$valueE",
   "size" : 4,
   "source_file" : "frameworks/native/libs/binder/ndk/include_cpp/android/binder_to_string.h",
   "underlying_type" : "_ZTIj"
  },
  {
   "alignment" : 4,
   "enum_fields" :
   [
    {
     "enum_field_value" : 0,
     "name" : "android::internal::details::ToEmptyString<aidl::android::media::audio::common::AudioChannelLayout>::value"
    }
   ],
   "linker_set_key" : "_ZTIN7android8internal7details13ToEmptyStringIN4aidl7android5media5audio6common18AudioChannelLayoutEE6$valueE",
   "name" : "android::internal::details::ToEmptyString<aidl::android::media::audio::common::AudioChannelLayout>::(unnamed enum at frameworks/native/libs/binder/ndk/include_cpp/android/binder_to_string.h:153:5)",
   "referenced_type" : "_ZTIN7android8internal7details13ToEmptyStringIN4aidl7android5media5audio6common18AudioChannelLayoutEE6$valueE",
   "self_type" : "_ZTIN7android8internal7details13ToEmptyStringIN4aidl7android5media5audio6common18AudioChannelLayoutEE6$valueE",
   "size" : 4,
   "source_file" : "frameworks/native/libs/binder/ndk/include_cpp/android/binder_to_string.h",
   "underlying_type" : "_ZTIj"
  },
  {
   "alignment" : 4,
   "enum_fields" :
   [
    {
     "enum_field_value" : 0,
     "name" : "android::internal::details::ToEmptyString<aidl::android::media::audio::common::AudioDeviceAddress>::value"
    }
   ],
   "linker_set_key" : "_ZTIN7android8internal7details13ToEmptyStringIN4aidl7android5media5audio6common18AudioDeviceAddressEE6$valueE",
   "name" : "android::internal::details::ToEmptyString<aidl::android::media::audio::common::AudioDeviceAddress>::(unnamed enum at frameworks/native/libs/binder/ndk/include_cpp/android/binder_to_string.h:153:5)",
   "referenced_type" : "_ZTIN7android8internal7details13ToEmptyStringIN4aidl7android5media5audio6common18AudioDeviceAddressEE6$valueE",
   "self_type" : "_ZTIN7android8internal7details13ToEmptyStringIN4aidl7android5media5audio6common18AudioDeviceAddressEE6$valueE",
   "size" : 4,
   "source_file" : "frameworks/native/libs/binder/ndk/include_cpp/android/binder_to_string.h",
   "underlying_type" : "_ZTIj"
  },
  {
   "alignment" : 4,
   "enum_fields" :
   [
    {
     "enum_field_value" : 0,
     "name" : "android::internal::details::ToEmptyString<aidl::android::media::audio::common::AudioDeviceDescription>::value"
    }
   ],
   "linker_set_key" : "_ZTIN7android8internal7details13ToEmptyStringIN4aidl7android5media5audio6common22AudioDeviceDescriptionEE6$valueE",
   "name" : "android::internal::details::ToEmptyString<aidl::android::media::audio::common::AudioDeviceDescription>::(unnamed enum at frameworks/native/libs/binder/ndk/include_cpp/android/binder_to_string.h:153:5)",
   "referenced_type" : "_ZTIN7android8internal7details13ToEmptyStringIN4aidl7android5media5audio6common22AudioDeviceDescriptionEE6$valueE",
   "self_type" : "_ZTIN7android8internal7details13ToEmptyStringIN4aidl7android5media5audio6common22AudioDeviceDescriptionEE6$valueE",
   "size" : 4,
   "source_file" : "frameworks/native/libs/binder/ndk/include_cpp/android/binder_to_string.h",
   "underlying_type" : "_ZTIj"
  },
  {
   "alignment" : 4,
   "enum_fields" :
   [
    {
     "enum_field_value" : 0,
     "name" : "android::internal::details::ToEmptyString<aidl::android::hardware::audio::common::RecordTrackMetadata>::value"
    }
   ],
   "linker_set_key" : "_ZTIN7android8internal7details13ToEmptyStringIN4aidl7android8hardware5audio6common19RecordTrackMetadataEE6$valueE",
   "name" : "android::internal::details::ToEmptyString<aidl::android::hardware::audio::common::RecordTrackMetadata>::(unnamed enum at frameworks/native/libs/binder/ndk/include_cpp/android/binder_to_string.h:153:5)",
   "referenced_type" : "_ZTIN7android8internal7details13ToEmptyStringIN4aidl7android8hardware5audio6common19RecordTrackMetadataEE6$valueE",
   "self_type" : "_ZTIN7android8internal7details13ToEmptyStringIN4aidl7android8hardware5audio6common19RecordTrackMetadataEE6$valueE",
   "size" : 4,
   "source_file" : "frameworks/native/libs/binder/ndk/include_cpp/android/binder_to_string.h",
   "underlying_type" : "_ZTIj"
  },
  {
   "alignment" : 4,
   "enum_fields" :
   [
    {
     "enum_field_value" : 0,
     "name" : "android::internal::details::ToEmptyString<aidl::android::hardware::audio::common::PlaybackTrackMetadata>::value"
    }
   ],
   "linker_set_key" : "_ZTIN7android8internal7details13ToEmptyStringIN4aidl7android8hardware5audio6common21PlaybackTrackMetadataEE6$valueE",
   "name" : "android::internal::details::ToEmptyString<aidl::android::hardware::audio::common::PlaybackTrackMetadata>::(unnamed enum at frameworks/native/libs/binder/ndk/include_cpp/android/binder_to_string.h:153:5)",
   "referenced_type" : "_ZTIN7android8internal7details13ToEmptyStringIN4aidl7android8hardware5audio6common21PlaybackTrackMetadataEE6$valueE",
   "self_type" : "_ZTIN7android8internal7details13ToEmptyStringIN4aidl7android8hardware5audio6common21PlaybackTrackMetadataEE6$valueE",
   "size" : 4,
   "source_file" : "frameworks/native/libs/binder/ndk/include_cpp/android/binder_to_string.h",
   "underlying_type" : "_ZTIj"
  },
  {
   "alignment" : 4,
   "enum_fields" :
   [
    {
     "enum_field_value" : 0,
     "name" : "android::internal::details::ToEmptyString<aidl::android::hardware::bluetooth::audio::ChannelMode>::value"
    }
   ],
   "linker_set_key" : "_ZTIN7android8internal7details13ToEmptyStringIN4aidl7android8hardware9bluetooth5audio11ChannelModeEE6$valueE",
   "name" : "android::internal::details::ToEmptyString<aidl::android::hardware::bluetooth::audio::ChannelMode>::(unnamed enum at frameworks/native/libs/binder/ndk/include_cpp/android/binder_to_string.h:153:5)",
   "referenced_type" : "_ZTIN7android8internal7details13ToEmptyStringIN4aidl7android8hardware9bluetooth5audio11ChannelModeEE6$valueE",
   "self_type" : "_ZTIN7android8internal7details13ToEmptyStringIN4aidl7android8hardware9bluetooth5audio11ChannelModeEE6$valueE",
   "size" : 4,
   "source_file" : "frameworks/native/libs/binder/ndk/include_cpp/android/binder_to_string.h",
   "underlying_type" : "_ZTIj"
  },
  {
   "alignment" : 4,
   "enum_fields" :
   [
    {
     "enum_field_value" : 0,
     "name" : "android::internal::details::ToEmptyString<aidl::android::hardware::bluetooth::audio::AacObjectType>::value"
    }
   ],
   "linker_set_key" : "_ZTIN7android8internal7details13ToEmptyStringIN4aidl7android8hardware9bluetooth5audio13AacObjectTypeEE6$valueE",
   "name" : "android::internal::details::ToEmptyString<aidl::android::hardware::bluetooth::audio::AacObjectType>::(unnamed enum at frameworks/native/libs/binder/ndk/include_cpp/android/binder_to_string.h:153:5)",
   "referenced_type" : "_ZTIN7android8internal7details13ToEmptyStringIN4aidl7android8hardware9bluetooth5audio13AacObjectTypeEE6$valueE",
   "self_type" : "_ZTIN7android8internal7details13ToEmptyStringIN4aidl7android8hardware9bluetooth5audio13AacObjectTypeEE6$valueE",
   "size" : 4,
   "source_file" : "frameworks/native/libs/binder/ndk/include_cpp/android/binder_to_string.h",
   "underlying_type" : "_ZTIj"
  },
  {
   "alignment" : 4,
   "enum_fields" :
   [
    {
     "enum_field_value" : 0,
     "name" : "android::internal::details::ToEmptyString<aidl::android::hardware::bluetooth::audio::AudioLocation>::value"
    }
   ],
   "linker_set_key" : "_ZTIN7android8internal7details13ToEmptyStringIN4aidl7android8hardware9bluetooth5audio13AudioLocationEE6$valueE",
   "name" : "android::internal::details::ToEmptyString<aidl::android::hardware::bluetooth::audio::AudioLocation>::(unnamed enum at frameworks/native/libs/binder/ndk/include_cpp/android/binder_to_string.h:153:5)",
   "referenced_type" : "_ZTIN7android8internal7details13ToEmptyStringIN4aidl7android8hardware9bluetooth5audio13AudioLocationEE6$valueE",
   "self_type" : "_ZTIN7android8internal7details13ToEmptyStringIN4aidl7android8hardware9bluetooth5audio13AudioLocationEE6$valueE",
   "size" : 4,
   "source_file" : "frameworks/native/libs/binder/ndk/include_cpp/android/binder_to_string.h",
   "underlying_type" : "_ZTIj"
  },
  {
   "alignment" : 4,
   "enum_fields" :
   [
    {
     "enum_field_value" : 0,
     "name" : "android::internal::details::ToEmptyString<aidl::android::hardware::bluetooth::audio::SbcAllocMethod>::value"
    }
   ],
   "linker_set_key" : "_ZTIN7android8internal7details13ToEmptyStringIN4aidl7android8hardware9bluetooth5audio14SbcAllocMethodEE6$valueE",
   "name" : "android::internal::details::ToEmptyString<aidl::android::hardware::bluetooth::audio::SbcAllocMethod>::(unnamed enum at frameworks/native/libs/binder/ndk/include_cpp/android/binder_to_string.h:153:5)",
   "referenced_type" : "_ZTIN7android8internal7details13ToEmptyStringIN4aidl7android8hardware9bluetooth5audio14SbcAllocMethodEE6$valueE",
   "self_type" : "_ZTIN7android8internal7details13ToEmptyStringIN4aidl7android8hardware9bluetooth5audio14SbcAllocMethodEE6$valueE",
   "size" : 4,
   "source_file" : "frameworks/native/libs/binder/ndk/include_cpp/android/binder_to_string.h",
   "underlying_type" : "_ZTIj"
  },
  {
   "alignment" : 4,
   "enum_fields" :
   [
    {
     "enum_field_value" : 0,
     "name" : "android::internal::details::ToEmptyString<aidl::android::hardware::bluetooth::audio::SbcChannelMode>::value"
    }
   ],
   "linker_set_key" : "_ZTIN7android8internal7details13ToEmptyStringIN4aidl7android8hardware9bluetooth5audio14SbcChannelModeEE6$valueE",
   "name" : "android::internal::details::ToEmptyString<aidl::android::hardware::bluetooth::audio::SbcChannelMode>::(unnamed enum at frameworks/native/libs/binder/ndk/include_cpp/android/binder_to_string.h:153:5)",
   "referenced_type" : "_ZTIN7android8internal7details13ToEmptyStringIN4aidl7android8hardware9bluetooth5audio14SbcChannelModeEE6$valueE",
   "self_type" : "_ZTIN7android8internal7details13ToEmptyStringIN4aidl7android8hardware9bluetooth5audio14SbcChannelModeEE6$valueE",
   "size" : 4,
   "source_file" : "frameworks/native/libs/binder/ndk/include_cpp/android/binder_to_string.h",
   "underlying_type" : "_ZTIj"
  },
  {
   "alignment" : 4,
   "enum_fields" :
   [
    {
     "enum_field_value" : 0,
     "name" : "android::internal::details::ToEmptyString<aidl::android::hardware::bluetooth::audio::AacCapabilities>::value"
    }
   ],
   "linker_set_key" : "_ZTIN7android8internal7details13ToEmptyStringIN4aidl7android8hardware9bluetooth5audio15AacCapabilitiesEE6$valueE",
   "name" : "android::internal::details::ToEmptyString<aidl::android::hardware::bluetooth::audio::AacCapabilities>::(unnamed enum at frameworks/native/libs/binder/ndk/include_cpp/android/binder_to_string.h:153:5)",
   "referenced_type" : "_ZTIN7android8internal7details13ToEmptyStringIN4aidl7android8hardware9bluetooth5audio15AacCapabilitiesEE6$valueE",
   "self_type" : "_ZTIN7android8internal7details13ToEmptyStringIN4aidl7android8hardware9bluetooth5audio15AacCapabilitiesEE6$valueE",
   "size" : 4,
   "source_file" : "frameworks/native/libs/binder/ndk/include_cpp/android/binder_to_string.h",
   "underlying_type" : "_ZTIj"
  },
  {
   "alignment" : 4,
   "enum_fields" :
   [
    {
     "enum_field_value" : 0,
     "name" : "android::internal::details::ToEmptyString<aidl::android::hardware::bluetooth::audio::Lc3Capabilities>::value"
    }
   ],
   "linker_set_key" : "_ZTIN7android8internal7details13ToEmptyStringIN4aidl7android8hardware9bluetooth5audio15Lc3CapabilitiesEE6$valueE",
   "name" : "android::internal::details::ToEmptyString<aidl::android::hardware::bluetooth::audio::Lc3Capabilities>::(unnamed enum at frameworks/native/libs/binder/ndk/include_cpp/android/binder_to_string.h:153:5)",
   "referenced_type" : "_ZTIN7android8internal7details13ToEmptyStringIN4aidl7android8hardware9bluetooth5audio15Lc3CapabilitiesEE6$valueE",
   "self_type" : "_ZTIN7android8internal7details13ToEmptyStringIN4aidl7android8hardware9bluetooth5audio15Lc3CapabilitiesEE6$valueE",
   "size" : 4,
   "source_file" : "frameworks/native/libs/binder/ndk/include_cpp/android/binder_to_string.h",
   "underlying_type" : "_ZTIj"
  },
  {
   "alignment" : 4,
   "enum_fields" :
   [
    {
     "enum_field_value" : 0,
     "name" : "android::internal::details::ToEmptyString<aidl::android::hardware::bluetooth::audio::LdacChannelMode>::value"
    }
   ],
   "linker_set_key" : "_ZTIN7android8internal7details13ToEmptyStringIN4aidl7android8hardware9bluetooth5audio15LdacChannelModeEE6$valueE",
   "name" : "android::internal::details::ToEmptyString<aidl::android::hardware::bluetooth::audio::LdacChannelMode>::(unnamed enum at frameworks/native/libs/binder/ndk/include_cpp/android/binder_to_string.h:153:5)",
   "referenced_type" : "_ZTIN7android8internal7details13ToEmptyStringIN4aidl7android8hardware9bluetooth5audio15LdacChannelModeEE6$valueE",
   "self_type" : "_ZTIN7android8internal7details13ToEmptyStringIN4aidl7android8hardware9bluetooth5audio15LdacChannelModeEE6$valueE",
   "size" : 4,
   "source_file" : "frameworks/native/libs/binder/ndk/include_cpp/android/binder_to_string.h",
   "underlying_type" : "_ZTIj"
  },
  {
   "alignment" : 4,
   "enum_fields" :
   [
    {
     "enum_field_value" : 0,
     "name" : "android::internal::details::ToEmptyString<aidl::android::hardware::bluetooth::audio::PcmCapabilities>::value"
    }
   ],
   "linker_set_key" : "_ZTIN7android8internal7details13ToEmptyStringIN4aidl7android8hardware9bluetooth5audio15PcmCapabilitiesEE6$valueE",
   "name" : "android::internal::details::ToEmptyString<aidl::android::hardware::bluetooth::audio::PcmCapabilities>::(unnamed enum at frameworks/native/libs/binder/ndk/include_cpp/android/binder_to_string.h:153:5)",
   "referenced_type" : "_ZTIN7android8internal7details13ToEmptyStringIN4aidl7android8hardware9bluetooth5audio15PcmCapabilitiesEE6$valueE",
   "self_type" : "_ZTIN7android8internal7details13ToEmptyStringIN4aidl7android8hardware9bluetooth5audio15PcmCapabilitiesEE6$valueE",
   "size" : 4,
   "source_file" : "frameworks/native/libs/binder/ndk/include_cpp/android/binder_to_string.h",
   "underlying_type" : "_ZTIj"
  },
  {
   "alignment" : 4,
   "enum_fields" :
   [
    {
     "enum_field_value" : 0,
     "name" : "android::internal::details::ToEmptyString<aidl::android::hardware::bluetooth::audio::SbcCapabilities>::value"
    }
   ],
   "linker_set_key" : "_ZTIN7android8internal7details13ToEmptyStringIN4aidl7android8hardware9bluetooth5audio15SbcCapabilitiesEE6$valueE",
   "name" : "android::internal::details::ToEmptyString<aidl::android::hardware::bluetooth::audio::SbcCapabilities>::(unnamed enum at frameworks/native/libs/binder/ndk/include_cpp/android/binder_to_string.h:153:5)",
   "referenced_type" : "_ZTIN7android8internal7details13ToEmptyStringIN4aidl7android8hardware9bluetooth5audio15SbcCapabilitiesEE6$valueE",
   "self_type" : "_ZTIN7android8internal7details13ToEmptyStringIN4aidl7android8hardware9bluetooth5audio15SbcCapabilitiesEE6$valueE",
   "size" : 4,
   "source_file" : "frameworks/native/libs/binder/ndk/include_cpp/android/binder_to_string.h",
   "underlying_type" : "_ZTIj"
  },
  {
   "alignment" : 4,
   "enum_fields" :
   [
    {
     "enum_field_value" : 0,
     "name" : "android::internal::details::ToEmptyString<aidl::android::hardware::bluetooth::audio::AacConfiguration>::value"
    }
   ],
   "linker_set_key" : "_ZTIN7android8internal7details13ToEmptyStringIN4aidl7android8hardware9bluetooth5audio16AacConfigurationEE6$valueE",
   "name" : "android::internal::details::ToEmptyString<aidl::android::hardware::bluetooth::audio::AacConfiguration>::(unnamed enum at frameworks/native/libs/binder/ndk/include_cpp/android/binder_to_string.h:153:5)",
   "referenced_type" : "_ZTIN7android8internal7details13ToEmptyStringIN4aidl7android8hardware9bluetooth5audio16AacConfigurationEE6$valueE",
   "self_type" : "_ZTIN7android8internal7details13ToEmptyStringIN4aidl7android8hardware9bluetooth5audio16AacConfigurationEE6$valueE",
   "size" : 4,
   "source_file" : "frameworks/native/libs/binder/ndk/include_cpp/android/binder_to_string.h",
   "underlying_type" : "_ZTIj"
  },
  {
   "alignment" : 4,
   "enum_fields" :
   [
    {
     "enum_field_value" : 0,
     "name" : "android::internal::details::ToEmptyString<aidl::android::hardware::bluetooth::audio::AptxCapabilities>::value"
    }
   ],
   "linker_set_key" : "_ZTIN7android8internal7details13ToEmptyStringIN4aidl7android8hardware9bluetooth5audio16AptxCapabilitiesEE6$valueE",
   "name" : "android::internal::details::ToEmptyString<aidl::android::hardware::bluetooth::audio::AptxCapabilities>::(unnamed enum at frameworks/native/libs/binder/ndk/include_cpp/android/binder_to_string.h:153:5)",
   "referenced_type" : "_ZTIN7android8internal7details13ToEmptyStringIN4aidl7android8hardware9bluetooth5audio16AptxCapabilitiesEE6$valueE",
   "self_type" : "_ZTIN7android8internal7details13ToEmptyStringIN4aidl7android8hardware9bluetooth5audio16AptxCapabilitiesEE6$valueE",
   "size" : 4,
   "source_file" : "frameworks/native/libs/binder/ndk/include_cpp/android/binder_to_string.h",
   "underlying_type" : "_ZTIj"
  },
  {
   "alignment" : 4,
   "enum_fields" :
   [
    {
     "enum_field_value" : 0,
     "name" : "android::internal::details::ToEmptyString<aidl::android::hardware::bluetooth::audio::Lc3Configuration>::value"
    }
   ],
   "linker_set_key" : "_ZTIN7android8internal7details13ToEmptyStringIN4aidl7android8hardware9bluetooth5audio16Lc3ConfigurationEE6$valueE",
   "name" : "android::internal::details::ToEmptyString<aidl::android::hardware::bluetooth::audio::Lc3Configuration>::(unnamed enum at frameworks/native/libs/binder/ndk/include_cpp/android/binder_to_string.h:153:5)",
   "referenced_type" : "_ZTIN7android8internal7details13ToEmptyStringIN4aidl7android8hardware9bluetooth5audio16Lc3ConfigurationEE6$valueE",
   "self_type" : "_ZTIN7android8internal7details13ToEmptyStringIN4aidl7android8hardware9bluetooth5audio16Lc3ConfigurationEE6$valueE",
   "size" : 4,
   "source_file" : "frameworks/native/libs/binder/ndk/include_cpp/android/binder_to_string.h",
   "underlying_type" : "_ZTIj"
  },
  {
   "alignment" : 4,
   "enum_fields" :
   [
    {
     "enum_field_value" : 0,
     "name" : "android::internal::details::ToEmptyString<aidl::android::hardware::bluetooth::audio::LdacCapabilities>::value"
    }
   ],
   "linker_set_key" : "_ZTIN7android8internal7details13ToEmptyStringIN4aidl7android8hardware9bluetooth5audio16LdacCapabilitiesEE6$valueE",
   "name" : "android::internal::details::ToEmptyString<aidl::android::hardware::bluetooth::audio::LdacCapabilities>::(unnamed enum at frameworks/native/libs/binder/ndk/include_cpp/android/binder_to_string.h:153:5)",
   "referenced_type" : "_ZTIN7android8internal7details13ToEmptyStringIN4aidl7android8hardware9bluetooth5audio16LdacCapabilitiesEE6$valueE",
   "self_type" : "_ZTIN7android8internal7details13ToEmptyStringIN4aidl7android8hardware9bluetooth5audio16LdacCapabilitiesEE6$valueE",
   "size" : 4,
   "source_file" : "frameworks/native/libs/binder/ndk/include_cpp/android/binder_to_string.h",
   "underlying_type" : "_ZTIj"
  },
  {
   "alignment" : 4,
   "enum_fields" :
   [
    {
     "enum_field_value" : 0,
     "name" : "android::internal::details::ToEmptyString<aidl::android::hardware::bluetooth::audio::LdacQualityIndex>::value"
    }
   ],
   "linker_set_key" : "_ZTIN7android8internal7details13ToEmptyStringIN4aidl7android8hardware9bluetooth5audio16LdacQualityIndexEE6$valueE",
   "name" : "android::internal::details::ToEmptyString<aidl::android::hardware::bluetooth::audio::LdacQualityIndex>::(unnamed enum at frameworks/native/libs/binder/ndk/include_cpp/android/binder_to_string.h:153:5)",
   "referenced_type" : "_ZTIN7android8internal7details13ToEmptyStringIN4aidl7android8hardware9bluetooth5audio16LdacQualityIndexEE6$valueE",
   "self_type" : "_ZTIN7android8internal7details13ToEmptyStringIN4aidl7android8hardware9bluetooth5audio16LdacQualityIndexEE6$valueE",
   "size" : 4,
   "source_file" : "frameworks/native/libs/binder/ndk/include_cpp/android/binder_to_string.h",
   "underlying_type" : "_ZTIj"
  },
  {
   "alignment" : 4,
   "enum_fields" :
   [
    {
     "enum_field_value" : 0,
     "name" : "android::internal::details::ToEmptyString<aidl::android::hardware::bluetooth::audio::OpusCapabilities>::value"
    }
   ],
   "linker_set_key" : "_ZTIN7android8internal7details13ToEmptyStringIN4aidl7android8hardware9bluetooth5audio16OpusCapabilitiesEE6$valueE",
   "name" : "android::internal::details::ToEmptyString<aidl::android::hardware::bluetooth::audio::OpusCapabilities>::(unnamed enum at frameworks/native/libs/binder/ndk/include_cpp/android/binder_to_string.h:153:5)",
   "referenced_type" : "_ZTIN7android8internal7details13ToEmptyStringIN4aidl7android8hardware9bluetooth5audio16OpusCapabilitiesEE6$valueE",
   "self_type" : "_ZTIN7android8internal7details13ToEmptyStringIN4aidl7android8hardware9bluetooth5audio16OpusCapabilitiesEE6$valueE",
   "size" : 4,
   "source_file" : "frameworks/native/libs/binder/ndk/include_cpp/android/binder_to_string.h",
   "underlying_type" : "_ZTIj"
  },
  {
   "alignment" : 4,
   "enum_fields" :
   [
    {
     "enum_field_value" : 0,
     "name" : "android::internal::details::ToEmptyString<aidl::android::hardware::bluetooth::audio::PcmConfiguration>::value"
    }
   ],
   "linker_set_key" : "_ZTIN7android8internal7details13ToEmptyStringIN4aidl7android8hardware9bluetooth5audio16PcmConfigurationEE6$valueE",
   "name" : "android::internal::details::ToEmptyString<aidl::android::hardware::bluetooth::audio::PcmConfiguration>::(unnamed enum at frameworks/native/libs/binder/ndk/include_cpp/android/binder_to_string.h:153:5)",
   "referenced_type" : "_ZTIN7android8internal7details13ToEmptyStringIN4aidl7android8hardware9bluetooth5audio16PcmConfigurationEE6$valueE",
   "self_type" : "_ZTIN7android8internal7details13ToEmptyStringIN4aidl7android8hardware9bluetooth5audio16PcmConfigurationEE6$valueE",
   "size" : 4,
   "source_file" : "frameworks/native/libs/binder/ndk/include_cpp/android/binder_to_string.h",
   "underlying_type" : "_ZTIj"
  },
  {
   "alignment" : 4,
   "enum_fields" :
   [
    {
     "enum_field_value" : 0,
     "name" : "android::internal::details::ToEmptyString<aidl::android::hardware::bluetooth::audio::SbcConfiguration>::value"
    }
   ],
   "linker_set_key" : "_ZTIN7android8internal7details13ToEmptyStringIN4aidl7android8hardware9bluetooth5audio16SbcConfigurationEE6$valueE",
   "name" : "android::internal::details::ToEmptyString<aidl::android::hardware::bluetooth::audio::SbcConfiguration>::(unnamed enum at frameworks/native/libs/binder/ndk/include_cpp/android/binder_to_string.h:153:5)",
   "referenced_type" : "_ZTIN7android8internal7details13ToEmptyStringIN4aidl7android8hardware9bluetooth5audio16SbcConfigurationEE6$valueE",
   "self_type" : "_ZTIN7android8internal7details13ToEmptyStringIN4aidl7android8hardware9bluetooth5audio16SbcConfigurationEE6$valueE",
   "size" : 4,
   "source_file" : "frameworks/native/libs/binder/ndk/include_cpp/android/binder_to_string.h",
   "underlying_type" : "_ZTIj"
  },
  {
   "alignment" : 4,
   "enum_fields" :
   [
    {
     "enum_field_value" : 0,
     "name" : "android::internal::details::ToEmptyString<aidl::android::hardware::bluetooth::audio::AptxConfiguration>::value"
    }
   ],
   "linker_set_key" : "_ZTIN7android8internal7details13ToEmptyStringIN4aidl7android8hardware9bluetooth5audio17AptxConfigurationEE6$valueE",
   "name" : "android::internal::details::ToEmptyString<aidl::android::hardware::bluetooth::audio::AptxConfiguration>::(unnamed enum at frameworks/native/libs/binder/ndk/include_cpp/android/binder_to_string.h:153:5)",
   "referenced_type" : "_ZTIN7android8internal7details13ToEmptyStringIN4aidl7android8hardware9bluetooth5audio17AptxConfigurationEE6$valueE",
   "self_type" : "_ZTIN7android8internal7details13ToEmptyStringIN4aidl7android8hardware9bluetooth5audio17AptxConfigurationEE6$valueE",
   "size" : 4,
   "source_file" : "frameworks/native/libs/binder/ndk/include_cpp/android/binder_to_string.h",
   "underlying_type" : "_ZTIj"
  },
  {
   "alignment" : 4,
   "enum_fields" :
   [
    {
     "enum_field_value" : 0,
     "name" : "android::internal::details::ToEmptyString<aidl::android::hardware::bluetooth::audio::AptxSinkBuffering>::value"
    }
   ],
   "linker_set_key" : "_ZTIN7android8internal7details13ToEmptyStringIN4aidl7android8hardware9bluetooth5audio17AptxSinkBufferingEE6$valueE",
   "name" : "android::internal::details::ToEmptyString<aidl::android::hardware::bluetooth::audio::AptxSinkBuffering>::(unnamed enum at frameworks/native/libs/binder/ndk/include_cpp/android/binder_to_string.h:153:5)",
   "referenced_type" : "_ZTIN7android8internal7details13ToEmptyStringIN4aidl7android8hardware9bluetooth5audio17AptxSinkBufferingEE6$valueE",
   "self_type" : "_ZTIN7android8internal7details13ToEmptyStringIN4aidl7android8hardware9bluetooth5audio17AptxSinkBufferingEE6$valueE",
   "size" : 4,
   "source_file" : "frameworks/native/libs/binder/ndk/include_cpp/android/binder_to_string.h",
   "underlying_type" : "_ZTIj"
  },
  {
   "alignment" : 4,
   "enum_fields" :
   [
    {
     "enum_field_value" : 0,
     "name" : "android::internal::details::ToEmptyString<aidl::android::hardware::bluetooth::audio::CodecCapabilities::Capabilities>::value"
    }
   ],
   "linker_set_key" : "_ZTIN7android8internal7details13ToEmptyStringIN4aidl7android8hardware9bluetooth5audio17CodecCapabilities12CapabilitiesEE6$valueE",
   "name" : "android::internal::details::ToEmptyString<aidl::android::hardware::bluetooth::audio::CodecCapabilities::Capabilities>::(unnamed enum at frameworks/native/libs/binder/ndk/include_cpp/android/binder_to_string.h:153:5)",
   "referenced_type" : "_ZTIN7android8internal7details13ToEmptyStringIN4aidl7android8hardware9bluetooth5audio17CodecCapabilities12CapabilitiesEE6$valueE",
   "self_type" : "_ZTIN7android8internal7details13ToEmptyStringIN4aidl7android8hardware9bluetooth5audio17CodecCapabilities12CapabilitiesEE6$valueE",
   "size" : 4,
   "source_file" : "frameworks/native/libs/binder/ndk/include_cpp/android/binder_to_string.h",
   "underlying_type" : "_ZTIj"
  },
  {
   "alignment" : 4,
   "enum_fields" :
   [
    {
     "enum_field_value" : 0,
     "name" : "android::internal::details::ToEmptyString<aidl::android::hardware::bluetooth::audio::CodecCapabilities::VendorCapabilities>::value"
    }
   ],
   "linker_set_key" : "_ZTIN7android8internal7details13ToEmptyStringIN4aidl7android8hardware9bluetooth5audio17CodecCapabilities18VendorCapabilitiesEE6$valueE",
   "name" : "android::internal::details::ToEmptyString<aidl::android::hardware::bluetooth::audio::CodecCapabilities::VendorCapabilities>::(unnamed enum at frameworks/native/libs/binder/ndk/include_cpp/android/binder_to_string.h:153:5)",
   "referenced_type" : "_ZTIN7android8internal7details13ToEmptyStringIN4aidl7android8hardware9bluetooth5audio17CodecCapabilities18VendorCapabilitiesEE6$valueE",
   "self_type" : "_ZTIN7android8internal7details13ToEmptyStringIN4aidl7android8hardware9bluetooth5audio17CodecCapabilities18VendorCapabilitiesEE6$valueE",
   "size" : 4,
   "source_file" : "frameworks/native/libs/binder/ndk/include_cpp/android/binder_to_string.h",
   "underlying_type" : "_ZTIj"
  },
  {
   "alignment" : 4,
   "enum_fields" :
   [
    {
     "enum_field_value" : 0,
     "name" : "android::internal::details::ToEmptyString<aidl::android::hardware::bluetooth::audio::CodecCapabilities>::value"
    }
   ],
   "linker_set_key" : "_ZTIN7android8internal7details13ToEmptyStringIN4aidl7android8hardware9bluetooth5audio17CodecCapabilitiesEE6$valueE",
   "name" : "android::internal::details::ToEmptyString<aidl::android::hardware::bluetooth::audio::CodecCapabilities>::(unnamed enum at frameworks/native/libs/binder/ndk/include_cpp/android/binder_to_string.h:153:5)",
   "referenced_type" : "_ZTIN7android8internal7details13ToEmptyStringIN4aidl7android8hardware9bluetooth5audio17CodecCapabilitiesEE6$valueE",
   "self_type" : "_ZTIN7android8internal7details13ToEmptyStringIN4aidl7android8hardware9bluetooth5audio17CodecCapabilitiesEE6$valueE",
   "size" : 4,
   "source_file" : "frameworks/native/libs/binder/ndk/include_cpp/android/binder_to_string.h",
   "underlying_type" : "_ZTIj"
  },
  {
   "alignment" : 4,
   "enum_fields" :
   [
    {
     "enum_field_value" : 0,
     "name" : "android::internal::details::ToEmptyString<aidl::android::hardware::bluetooth::audio::LdacConfiguration>::value"
    }
   ],
   "linker_set_key" : "_ZTIN7android8internal7details13ToEmptyStringIN4aidl7android8hardware9bluetooth5audio17LdacConfigurationEE6$valueE",
   "name" : "android::internal::details::ToEmptyString<aidl::android::hardware::bluetooth::audio::LdacConfiguration>::(unnamed enum at frameworks/native/libs/binder/ndk/include_cpp/android/binder_to_string.h:153:5)",
   "referenced_type" : "_ZTIN7android8internal7details13ToEmptyStringIN4aidl7android8hardware9bluetooth5audio17LdacConfigurationEE6$valueE",
   "self_type" : "_ZTIN7android8internal7details13ToEmptyStringIN4aidl7android8hardware9bluetooth5audio17LdacConfigurationEE6$valueE",
   "size" : 4,
   "source_file" : "frameworks/native/libs/binder/ndk/include_cpp/android/binder_to_string.h",
   "underlying_type" : "_ZTIj"
  },
  {
   "alignment" : 4,
   "enum_fields" :
   [
    {
     "enum_field_value" : 0,
     "name" : "android::internal::details::ToEmptyString<aidl::android::hardware::bluetooth::audio::OpusConfiguration>::value"
    }
   ],
   "linker_set_key" : "_ZTIN7android8internal7details13ToEmptyStringIN4aidl7android8hardware9bluetooth5audio17OpusConfigurationEE6$valueE",
   "name" : "android::internal::details::ToEmptyString<aidl::android::hardware::bluetooth::audio::OpusConfiguration>::(unnamed enum at frameworks/native/libs/binder/ndk/include_cpp/android/binder_to_string.h:153:5)",
   "referenced_type" : "_ZTIN7android8internal7details13ToEmptyStringIN4aidl7android8hardware9bluetooth5audio17OpusConfigurationEE6$valueE",
   "self_type" : "_ZTIN7android8internal7details13ToEmptyStringIN4aidl7android8hardware9bluetooth5audio17OpusConfigurationEE6$valueE",
   "size" : 4,
   "source_file" : "frameworks/native/libs/binder/ndk/include_cpp/android/binder_to_string.h",
   "underlying_type" : "_ZTIj"
  },
  {
   "alignment" : 4,
   "enum_fields" :
   [
    {
     "enum_field_value" : 0,
     "name" : "android::internal::details::ToEmptyString<aidl::android::hardware::bluetooth::audio::UnicastCapability::VendorCapabilities>::value"
    }
   ],
   "linker_set_key" : "_ZTIN7android8internal7details13ToEmptyStringIN4aidl7android8hardware9bluetooth5audio17UnicastCapability18VendorCapabilitiesEE6$valueE",
   "name" : "android::internal::details::ToEmptyString<aidl::android::hardware::bluetooth::audio::UnicastCapability::VendorCapabilities>::(unnamed enum at frameworks/native/libs/binder/ndk/include_cpp/android/binder_to_string.h:153:5)",
   "referenced_type" : "_ZTIN7android8internal7details13ToEmptyStringIN4aidl7android8hardware9bluetooth5audio17UnicastCapability18VendorCapabilitiesEE6$valueE",
   "self_type" : "_ZTIN7android8internal7details13ToEmptyStringIN4aidl7android8hardware9bluetooth5audio17UnicastCapability18VendorCapabilitiesEE6$valueE",
   "size" : 4,
   "source_file" : "frameworks/native/libs/binder/ndk/include_cpp/android/binder_to_string.h",
   "underlying_type" : "_ZTIj"
  },
  {
   "alignment" : 4,
   "enum_fields" :
   [
    {
     "enum_field_value" : 0,
     "name" : "android::internal::details::ToEmptyString<aidl::android::hardware::bluetooth::audio::UnicastCapability::LeAudioCodecCapabilities>::value"
    }
   ],
   "linker_set_key" : "_ZTIN7android8internal7details13ToEmptyStringIN4aidl7android8hardware9bluetooth5audio17UnicastCapability24LeAudioCodecCapabilitiesEE6$valueE",
   "name" : "android::internal::details::ToEmptyString<aidl::android::hardware::bluetooth::audio::UnicastCapability::LeAudioCodecCapabilities>::(unnamed enum at frameworks/native/libs/binder/ndk/include_cpp/android/binder_to_string.h:153:5)",
   "referenced_type" : "_ZTIN7android8internal7details13ToEmptyStringIN4aidl7android8hardware9bluetooth5audio17UnicastCapability24LeAudioCodecCapabilitiesEE6$valueE",
   "self_type" : "_ZTIN7android8internal7details13ToEmptyStringIN4aidl7android8hardware9bluetooth5audio17UnicastCapability24LeAudioCodecCapabilitiesEE6$valueE",
   "size" : 4,
   "source_file" : "frameworks/native/libs/binder/ndk/include_cpp/android/binder_to_string.h",
   "underlying_type" : "_ZTIj"
  },
  {
   "alignment" : 4,
   "enum_fields" :
   [
    {
     "enum_field_value" : 0,
     "name" : "android::internal::details::ToEmptyString<aidl::android::hardware::bluetooth::audio::UnicastCapability>::value"
    }
   ],
   "linker_set_key" : "_ZTIN7android8internal7details13ToEmptyStringIN4aidl7android8hardware9bluetooth5audio17UnicastCapabilityEE6$valueE",
   "name" : "android::internal::details::ToEmptyString<aidl::android::hardware::bluetooth::audio::UnicastCapability>::(unnamed enum at frameworks/native/libs/binder/ndk/include_cpp/android/binder_to_string.h:153:5)",
   "referenced_type" : "_ZTIN7android8internal7details13ToEmptyStringIN4aidl7android8hardware9bluetooth5audio17UnicastCapabilityEE6$valueE",
   "self_type" : "_ZTIN7android8internal7details13ToEmptyStringIN4aidl7android8hardware9bluetooth5audio17UnicastCapabilityEE6$valueE",
   "size" : 4,
   "source_file" : "frameworks/native/libs/binder/ndk/include_cpp/android/binder_to_string.h",
   "underlying_type" : "_ZTIj"
  },
  {
   "alignment" : 4,
   "enum_fields" :
   [
    {
     "enum_field_value" : 0,
     "name" : "android::internal::details::ToEmptyString<aidl::android::hardware::bluetooth::audio::CodecConfiguration::CodecSpecific>::value"
    }
   ],
   "linker_set_key" : "_ZTIN7android8internal7details13ToEmptyStringIN4aidl7android8hardware9bluetooth5audio18CodecConfiguration13CodecSpecificEE6$valueE",
   "name" : "android::internal::details::ToEmptyString<aidl::android::hardware::bluetooth::audio::CodecConfiguration::CodecSpecific>::(unnamed enum at frameworks/native/libs/binder/ndk/include_cpp/android/binder_to_string.h:153:5)",
   "referenced_type" : "_ZTIN7android8internal7details13ToEmptyStringIN4aidl7android8hardware9bluetooth5audio18CodecConfiguration13CodecSpecificEE6$valueE",
   "self_type" : "_ZTIN7android8internal7details13ToEmptyStringIN4aidl7android8hardware9bluetooth5audio18CodecConfiguration13CodecSpecificEE6$valueE",
   "size" : 4,
   "source_file" : "frameworks/native/libs/binder/ndk/include_cpp/android/binder_to_string.h",
   "underlying_type" : "_ZTIj"
  },
  {
   "alignment" : 4,
   "enum_fields" :
   [
    {
     "enum_field_value" : 0,
     "name" : "android::internal::details::ToEmptyString<aidl::android::hardware::bluetooth::audio::CodecConfiguration::VendorConfiguration>::value"
    }
   ],
   "linker_set_key" : "_ZTIN7android8internal7details13ToEmptyStringIN4aidl7android8hardware9bluetooth5audio18CodecConfiguration19VendorConfigurationEE6$valueE",
   "name" : "android::internal::details::ToEmptyString<aidl::android::hardware::bluetooth::audio::CodecConfiguration::VendorConfiguration>::(unnamed enum at frameworks/native/libs/binder/ndk/include_cpp/android/binder_to_string.h:153:5)",
   "referenced_type" : "_ZTIN7android8internal7details13ToEmptyStringIN4aidl7android8hardware9bluetooth5audio18CodecConfiguration19VendorConfigurationEE6$valueE",
   "self_type" : "_ZTIN7android8internal7details13ToEmptyStringIN4aidl7android8hardware9bluetooth5audio18CodecConfiguration19VendorConfigurationEE6$valueE",
   "size" : 4,
   "source_file" : "frameworks/native/libs/binder/ndk/include_cpp/android/binder_to_string.h",
   "underlying_type" : "_ZTIj"
  },
  {
   "alignment" : 4,
   "enum_fields" :
   [
    {
     "enum_field_value" : 0,
     "name" : "android::internal::details::ToEmptyString<aidl::android::hardware::bluetooth::audio::CodecConfiguration>::value"
    }
   ],
   "linker_set_key" : "_ZTIN7android8internal7details13ToEmptyStringIN4aidl7android8hardware9bluetooth5audio18CodecConfigurationEE6$valueE",
   "name" : "android::internal::details::ToEmptyString<aidl::android::hardware::bluetooth::audio::CodecConfiguration>::(unnamed enum at frameworks/native/libs/binder/ndk/include_cpp/android/binder_to_string.h:153:5)",
   "referenced_type" : "_ZTIN7android8internal7details13ToEmptyStringIN4aidl7android8hardware9bluetooth5audio18CodecConfigurationEE6$valueE",
   "self_type" : "_ZTIN7android8internal7details13ToEmptyStringIN4aidl7android8hardware9bluetooth5audio18CodecConfigurationEE6$valueE",
   "size" : 4,
   "source_file" : "frameworks/native/libs/binder/ndk/include_cpp/android/binder_to_string.h",
   "underlying_type" : "_ZTIj"
  },
  {
   "alignment" : 4,
   "enum_fields" :
   [
    {
     "enum_field_value" : 0,
     "name" : "android::internal::details::ToEmptyString<aidl::android::hardware::bluetooth::audio::BroadcastCapability::VendorCapabilities>::value"
    }
   ],
   "linker_set_key" : "_ZTIN7android8internal7details13ToEmptyStringIN4aidl7android8hardware9bluetooth5audio19BroadcastCapability18VendorCapabilitiesEE6$valueE",
   "name" : "android::internal::details::ToEmptyString<aidl::android::hardware::bluetooth::audio::BroadcastCapability::VendorCapabilities>::(unnamed enum at frameworks/native/libs/binder/ndk/include_cpp/android/binder_to_string.h:153:5)",
   "referenced_type" : "_ZTIN7android8internal7details13ToEmptyStringIN4aidl7android8hardware9bluetooth5audio19BroadcastCapability18VendorCapabilitiesEE6$valueE",
   "self_type" : "_ZTIN7android8internal7details13ToEmptyStringIN4aidl7android8hardware9bluetooth5audio19BroadcastCapability18VendorCapabilitiesEE6$valueE",
   "size" : 4,
   "source_file" : "frameworks/native/libs/binder/ndk/include_cpp/android/binder_to_string.h",
   "underlying_type" : "_ZTIj"
  },
  {
   "alignment" : 4,
   "enum_fields" :
   [
    {
     "enum_field_value" : 0,
     "name" : "android::internal::details::ToEmptyString<aidl::android::hardware::bluetooth::audio::BroadcastCapability::LeAudioCodecCapabilities>::value"
    }
   ],
   "linker_set_key" : "_ZTIN7android8internal7details13ToEmptyStringIN4aidl7android8hardware9bluetooth5audio19BroadcastCapability24LeAudioCodecCapabilitiesEE6$valueE",
   "name" : "android::internal::details::ToEmptyString<aidl::android::hardware::bluetooth::audio::BroadcastCapability::LeAudioCodecCapabilities>::(unnamed enum at frameworks/native/libs/binder/ndk/include_cpp/android/binder_to_string.h:153:5)",
   "referenced_type" : "_ZTIN7android8internal7details13ToEmptyStringIN4aidl7android8hardware9bluetooth5audio19BroadcastCapability24LeAudioCodecCapabilitiesEE6$valueE",
   "self_type" : "_ZTIN7android8internal7details13ToEmptyStringIN4aidl7android8hardware9bluetooth5audio19BroadcastCapability24LeAudioCodecCapabilitiesEE6$valueE",
   "size" : 4,
   "source_file" : "frameworks/native/libs/binder/ndk/include_cpp/android/binder_to_string.h",
   "underlying_type" : "_ZTIj"
  },
  {
   "alignment" : 4,
   "enum_fields" :
   [
    {
     "enum_field_value" : 0,
     "name" : "android::internal::details::ToEmptyString<aidl::android::hardware::bluetooth::audio::BroadcastCapability>::value"
    }
   ],
   "linker_set_key" : "_ZTIN7android8internal7details13ToEmptyStringIN4aidl7android8hardware9bluetooth5audio19BroadcastCapabilityEE6$valueE",
   "name" : "android::internal::details::ToEmptyString<aidl::android::hardware::bluetooth::audio::BroadcastCapability>::(unnamed enum at frameworks/native/libs/binder/ndk/include_cpp/android/binder_to_string.h:153:5)",
   "referenced_type" : "_ZTIN7android8internal7details13ToEmptyStringIN4aidl7android8hardware9bluetooth5audio19BroadcastCapabilityEE6$valueE",
   "self_type" : "_ZTIN7android8internal7details13ToEmptyStringIN4aidl7android8hardware9bluetooth5audio19BroadcastCapabilityEE6$valueE",
   "size" : 4,
   "source_file" : "frameworks/native/libs/binder/ndk/include_cpp/android/binder_to_string.h",
   "underlying_type" : "_ZTIj"
  },
  {
   "alignment" : 4,
   "enum_fields" :
   [
    {
     "enum_field_value" : 0,
     "name" : "android::internal::details::ToEmptyString<aidl::android::hardware::bluetooth::audio::LeAudioConfiguration::StreamMap>::value"
    }
   ],
   "linker_set_key" : "_ZTIN7android8internal7details13ToEmptyStringIN4aidl7android8hardware9bluetooth5audio20LeAudioConfiguration9StreamMapEE6$valueE",
   "name" : "android::internal::details::ToEmptyString<aidl::android::hardware::bluetooth::audio::LeAudioConfiguration::StreamMap>::(unnamed enum at frameworks/native/libs/binder/ndk/include_cpp/android/binder_to_string.h:153:5)",
   "referenced_type" : "_ZTIN7android8internal7details13ToEmptyStringIN4aidl7android8hardware9bluetooth5audio20LeAudioConfiguration9StreamMapEE6$valueE",
   "self_type" : "_ZTIN7android8internal7details13ToEmptyStringIN4aidl7android8hardware9bluetooth5audio20LeAudioConfiguration9StreamMapEE6$valueE",
   "size" : 4,
   "source_file" : "frameworks/native/libs/binder/ndk/include_cpp/android/binder_to_string.h",
   "underlying_type" : "_ZTIj"
  },
  {
   "alignment" : 4,
   "enum_fields" :
   [
    {
     "enum_field_value" : 0,
     "name" : "android::internal::details::ToEmptyString<aidl::android::hardware::bluetooth::audio::LeAudioConfiguration>::value"
    }
   ],
   "linker_set_key" : "_ZTIN7android8internal7details13ToEmptyStringIN4aidl7android8hardware9bluetooth5audio20LeAudioConfigurationEE6$valueE",
   "name" : "android::internal::details::ToEmptyString<aidl::android::hardware::bluetooth::audio::LeAudioConfiguration>::(unnamed enum at frameworks/native/libs/binder/ndk/include_cpp/android/binder_to_string.h:153:5)",
   "referenced_type" : "_ZTIN7android8internal7details13ToEmptyStringIN4aidl7android8hardware9bluetooth5audio20LeAudioConfigurationEE6$valueE",
   "self_type" : "_ZTIN7android8internal7details13ToEmptyStringIN4aidl7android8hardware9bluetooth5audio20LeAudioConfigurationEE6$valueE",
   "size" : 4,
   "source_file" : "frameworks/native/libs/binder/ndk/include_cpp/android/binder_to_string.h",
   "underlying_type" : "_ZTIj"
  },
  {
   "alignment" : 4,
   "enum_fields" :
   [
    {
     "enum_field_value" : 0,
     "name" : "android::internal::details::ToEmptyString<aidl::android::hardware::bluetooth::audio::PresentationPosition::TimeSpec>::value"
    }
   ],
   "linker_set_key" : "_ZTIN7android8internal7details13ToEmptyStringIN4aidl7android8hardware9bluetooth5audio20PresentationPosition8TimeSpecEE6$valueE",
   "name" : "android::internal::details::ToEmptyString<aidl::android::hardware::bluetooth::audio::PresentationPosition::TimeSpec>::(unnamed enum at frameworks/native/libs/binder/ndk/include_cpp/android/binder_to_string.h:153:5)",
   "referenced_type" : "_ZTIN7android8internal7details13ToEmptyStringIN4aidl7android8hardware9bluetooth5audio20PresentationPosition8TimeSpecEE6$valueE",
   "self_type" : "_ZTIN7android8internal7details13ToEmptyStringIN4aidl7android8hardware9bluetooth5audio20PresentationPosition8TimeSpecEE6$valueE",
   "size" : 4,
   "source_file" : "frameworks/native/libs/binder/ndk/include_cpp/android/binder_to_string.h",
   "underlying_type" : "_ZTIj"
  },
  {
   "alignment" : 4,
   "enum_fields" :
   [
    {
     "enum_field_value" : 0,
     "name" : "android::internal::details::ToEmptyString<aidl::android::hardware::bluetooth::audio::AptxAdaptiveInputMode>::value"
    }
   ],
   "linker_set_key" : "_ZTIN7android8internal7details13ToEmptyStringIN4aidl7android8hardware9bluetooth5audio21AptxAdaptiveInputModeEE6$valueE",
   "name" : "android::internal::details::ToEmptyString<aidl::android::hardware::bluetooth::audio::AptxAdaptiveInputMode>::(unnamed enum at frameworks/native/libs/binder/ndk/include_cpp/android/binder_to_string.h:153:5)",
   "referenced_type" : "_ZTIN7android8internal7details13ToEmptyStringIN4aidl7android8hardware9bluetooth5audio21AptxAdaptiveInputModeEE6$valueE",
   "self_type" : "_ZTIN7android8internal7details13ToEmptyStringIN4aidl7android8hardware9bluetooth5audio21AptxAdaptiveInputModeEE6$valueE",
   "size" : 4,
   "source_file" : "frameworks/native/libs/binder/ndk/include_cpp/android/binder_to_string.h",
   "underlying_type" : "_ZTIj"
  },
  {
   "alignment" : 4,
   "enum_fields" :
   [
    {
     "enum_field_value" : 0,
     "name" : "android::internal::details::ToEmptyString<aidl::android::hardware::bluetooth::audio::AptxAdaptiveTimeToPlay>::value"
    }
   ],
   "linker_set_key" : "_ZTIN7android8internal7details13ToEmptyStringIN4aidl7android8hardware9bluetooth5audio22AptxAdaptiveTimeToPlayEE6$valueE",
   "name" : "android::internal::details::ToEmptyString<aidl::android::hardware::bluetooth::audio::AptxAdaptiveTimeToPlay>::(unnamed enum at frameworks/native/libs/binder/ndk/include_cpp/android/binder_to_string.h:153:5)",
   "referenced_type" : "_ZTIN7android8internal7details13ToEmptyStringIN4aidl7android8hardware9bluetooth5audio22AptxAdaptiveTimeToPlayEE6$valueE",
   "self_type" : "_ZTIN7android8internal7details13ToEmptyStringIN4aidl7android8hardware9bluetooth5audio22AptxAdaptiveTimeToPlayEE6$valueE",
   "size" : 4,
   "source_file" : "frameworks/native/libs/binder/ndk/include_cpp/android/binder_to_string.h",
   "underlying_type" : "_ZTIj"
  },
  {
   "alignment" : 4,
   "enum_fields" :
   [
    {
     "enum_field_value" : 0,
     "name" : "android::internal::details::ToEmptyString<aidl::android::hardware::bluetooth::audio::AptxAdaptiveChannelMode>::value"
    }
   ],
   "linker_set_key" : "_ZTIN7android8internal7details13ToEmptyStringIN4aidl7android8hardware9bluetooth5audio23AptxAdaptiveChannelModeEE6$valueE",
   "name" : "android::internal::details::ToEmptyString<aidl::android::hardware::bluetooth::audio::AptxAdaptiveChannelMode>::(unnamed enum at frameworks/native/libs/binder/ndk/include_cpp/android/binder_to_string.h:153:5)",
   "referenced_type" : "_ZTIN7android8internal7details13ToEmptyStringIN4aidl7android8hardware9bluetooth5audio23AptxAdaptiveChannelModeEE6$valueE",
   "self_type" : "_ZTIN7android8internal7details13ToEmptyStringIN4aidl7android8hardware9bluetooth5audio23AptxAdaptiveChannelModeEE6$valueE",
   "size" : 4,
   "source_file" : "frameworks/native/libs/binder/ndk/include_cpp/android/binder_to_string.h",
   "underlying_type" : "_ZTIj"
  },
  {
   "alignment" : 4,
   "enum_fields" :
   [
    {
     "enum_field_value" : 0,
     "name" : "android::internal::details::ToEmptyString<aidl::android::hardware::bluetooth::audio::AptxAdaptiveCapabilities>::value"
    }
   ],
   "linker_set_key" : "_ZTIN7android8internal7details13ToEmptyStringIN4aidl7android8hardware9bluetooth5audio24AptxAdaptiveCapabilitiesEE6$valueE",
   "name" : "android::internal::details::ToEmptyString<aidl::android::hardware::bluetooth::audio::AptxAdaptiveCapabilities>::(unnamed enum at frameworks/native/libs/binder/ndk/include_cpp/android/binder_to_string.h:153:5)",
   "referenced_type" : "_ZTIN7android8internal7details13ToEmptyStringIN4aidl7android8hardware9bluetooth5audio24AptxAdaptiveCapabilitiesEE6$valueE",
   "self_type" : "_ZTIN7android8internal7details13ToEmptyStringIN4aidl7android8hardware9bluetooth5audio24AptxAdaptiveCapabilitiesEE6$valueE",
   "size" : 4,
   "source_file" : "frameworks/native/libs/binder/ndk/include_cpp/android/binder_to_string.h",
   "underlying_type" : "_ZTIj"
  },
  {
   "alignment" : 4,
   "enum_fields" :
   [
    {
     "enum_field_value" : 0,
     "name" : "android::internal::details::ToEmptyString<aidl::android::hardware::bluetooth::audio::AptxAdaptiveConfiguration>::value"
    }
   ],
   "linker_set_key" : "_ZTIN7android8internal7details13ToEmptyStringIN4aidl7android8hardware9bluetooth5audio25AptxAdaptiveConfigurationEE6$valueE",
   "name" : "android::internal::details::ToEmptyString<aidl::android::hardware::bluetooth::audio::AptxAdaptiveConfiguration>::(unnamed enum at frameworks/native/libs/binder/ndk/include_cpp/android/binder_to_string.h:153:5)",
   "referenced_type" : "_ZTIN7android8internal7details13ToEmptyStringIN4aidl7android8hardware9bluetooth5audio25AptxAdaptiveConfigurationEE6$valueE",
   "self_type" : "_ZTIN7android8internal7details13ToEmptyStringIN4aidl7android8hardware9bluetooth5audio25AptxAdaptiveConfigurationEE6$valueE",
   "size" : 4,
   "source_file" : "frameworks/native/libs/binder/ndk/include_cpp/android/binder_to_string.h",
   "underlying_type" : "_ZTIj"
  },
  {
   "alignment" : 4,
   "enum_fields" :
   [
    {
     "enum_field_value" : 0,
     "name" : "android::internal::details::ToEmptyString<aidl::android::hardware::bluetooth::audio::LeAudioCodecConfiguration::VendorConfiguration>::value"
    }
   ],
   "linker_set_key" : "_ZTIN7android8internal7details13ToEmptyStringIN4aidl7android8hardware9bluetooth5audio25LeAudioCodecConfiguration19VendorConfigurationEE6$valueE",
   "name" : "android::internal::details::ToEmptyString<aidl::android::hardware::bluetooth::audio::LeAudioCodecConfiguration::VendorConfiguration>::(unnamed enum at frameworks/native/libs/binder/ndk/include_cpp/android/binder_to_string.h:153:5)",
   "referenced_type" : "_ZTIN7android8internal7details13ToEmptyStringIN4aidl7android8hardware9bluetooth5audio25LeAudioCodecConfiguration19VendorConfigurationEE6$valueE",
   "self_type" : "_ZTIN7android8internal7details13ToEmptyStringIN4aidl7android8hardware9bluetooth5audio25LeAudioCodecConfiguration19VendorConfigurationEE6$valueE",
   "size" : 4,
   "source_file" : "frameworks/native/libs/binder/ndk/include_cpp/android/binder_to_string.h",
   "underlying_type" : "_ZTIj"
  },
  {
   "alignment" : 4,
   "enum_fields" :
   [
    {
     "enum_field_value" : 0,
     "name" : "android::internal::details::ToEmptyString<aidl::android::hardware::bluetooth::audio::LeAudioCodecConfiguration>::value"
    }
   ],
   "linker_set_key" : "_ZTIN7android8internal7details13ToEmptyStringIN4aidl7android8hardware9bluetooth5audio25LeAudioCodecConfigurationEE6$valueE",
   "name" : "android::internal::details::ToEmptyString<aidl::android::hardware::bluetooth::audio::LeAudioCodecConfiguration>::(unnamed enum at frameworks/native/libs/binder/ndk/include_cpp/android/binder_to_string.h:153:5)",
   "referenced_type" : "_ZTIN7android8internal7details13ToEmptyStringIN4aidl7android8hardware9bluetooth5audio25LeAudioCodecConfigurationEE6$valueE",
   "self_type" : "_ZTIN7android8internal7details13ToEmptyStringIN4aidl7android8hardware9bluetooth5audio25LeAudioCodecConfigurationEE6$valueE",
   "size" : 4,
   "source_file" : "frameworks/native/libs/binder/ndk/include_cpp/android/binder_to_string.h",
   "underlying_type" : "_ZTIj"
  },
  {
   "alignment" : 4,
   "enum_fields" :
   [
    {
     "enum_field_value" : 0,
     "name" : "android::internal::details::ToEmptyString<aidl::android::hardware::bluetooth::audio::LeAudioBroadcastConfiguration::BroadcastStreamMap>::value"
    }
   ],
   "linker_set_key" : "_ZTIN7android8internal7details13ToEmptyStringIN4aidl7android8hardware9bluetooth5audio29LeAudioBroadcastConfiguration18BroadcastStreamMapEE6$valueE",
   "name" : "android::internal::details::ToEmptyString<aidl::android::hardware::bluetooth::audio::LeAudioBroadcastConfiguration::BroadcastStreamMap>::(unnamed enum at frameworks/native/libs/binder/ndk/include_cpp/android/binder_to_string.h:153:5)",
   "referenced_type" : "_ZTIN7android8internal7details13ToEmptyStringIN4aidl7android8hardware9bluetooth5audio29LeAudioBroadcastConfiguration18BroadcastStreamMapEE6$valueE",
   "self_type" : "_ZTIN7android8internal7details13ToEmptyStringIN4aidl7android8hardware9bluetooth5audio29LeAudioBroadcastConfiguration18BroadcastStreamMapEE6$valueE",
   "size" : 4,
   "source_file" : "frameworks/native/libs/binder/ndk/include_cpp/android/binder_to_string.h",
   "underlying_type" : "_ZTIj"
  },
  {
   "alignment" : 4,
   "enum_fields" :
   [
    {
     "enum_field_value" : 0,
     "name" : "android::internal::details::ToEmptyString<aidl::android::hardware::bluetooth::audio::LeAudioBroadcastConfiguration>::value"
    }
   ],
   "linker_set_key" : "_ZTIN7android8internal7details13ToEmptyStringIN4aidl7android8hardware9bluetooth5audio29LeAudioBroadcastConfigurationEE6$valueE",
   "name" : "android::internal::details::ToEmptyString<aidl::android::hardware::bluetooth::audio::LeAudioBroadcastConfiguration>::(unnamed enum at frameworks/native/libs/binder/ndk/include_cpp/android/binder_to_string.h:153:5)",
   "referenced_type" : "_ZTIN7android8internal7details13ToEmptyStringIN4aidl7android8hardware9bluetooth5audio29LeAudioBroadcastConfigurationEE6$valueE",
   "self_type" : "_ZTIN7android8internal7details13ToEmptyStringIN4aidl7android8hardware9bluetooth5audio29LeAudioBroadcastConfigurationEE6$valueE",
   "size" : 4,
   "source_file" : "frameworks/native/libs/binder/ndk/include_cpp/android/binder_to_string.h",
   "underlying_type" : "_ZTIj"
  },
  {
   "alignment" : 4,
   "enum_fields" :
   [
    {
     "enum_field_value" : 0,
     "name" : "android::internal::details::ToEmptyString<aidl::android::hardware::bluetooth::audio::LeAudioCodecCapabilitiesSetting>::value"
    }
   ],
   "linker_set_key" : "_ZTIN7android8internal7details13ToEmptyStringIN4aidl7android8hardware9bluetooth5audio31LeAudioCodecCapabilitiesSettingEE6$valueE",
   "name" : "android::internal::details::ToEmptyString<aidl::android::hardware::bluetooth::audio::LeAudioCodecCapabilitiesSetting>::(unnamed enum at frameworks/native/libs/binder/ndk/include_cpp/android/binder_to_string.h:153:5)",
   "referenced_type" : "_ZTIN7android8internal7details13ToEmptyStringIN4aidl7android8hardware9bluetooth5audio31LeAudioCodecCapabilitiesSettingEE6$valueE",
   "self_type" : "_ZTIN7android8internal7details13ToEmptyStringIN4aidl7android8hardware9bluetooth5audio31LeAudioCodecCapabilitiesSettingEE6$valueE",
   "size" : 4,
   "source_file" : "frameworks/native/libs/binder/ndk/include_cpp/android/binder_to_string.h",
   "underlying_type" : "_ZTIj"
  },
  {
   "alignment" : 4,
   "enum_fields" :
   [
    {
     "enum_field_value" : 0,
     "name" : "android::internal::details::ToEmptyString<aidl::android::hardware::bluetooth::audio::AptxMode>::value"
    }
   ],
   "linker_set_key" : "_ZTIN7android8internal7details13ToEmptyStringIN4aidl7android8hardware9bluetooth5audio8AptxModeEE6$valueE",
   "name" : "android::internal::details::ToEmptyString<aidl::android::hardware::bluetooth::audio::AptxMode>::(unnamed enum at frameworks/native/libs/binder/ndk/include_cpp/android/binder_to_string.h:153:5)",
   "referenced_type" : "_ZTIN7android8internal7details13ToEmptyStringIN4aidl7android8hardware9bluetooth5audio8AptxModeEE6$valueE",
   "self_type" : "_ZTIN7android8internal7details13ToEmptyStringIN4aidl7android8hardware9bluetooth5audio8AptxModeEE6$valueE",
   "size" : 4,
   "source_file" : "frameworks/native/libs/binder/ndk/include_cpp/android/binder_to_string.h",
   "underlying_type" : "_ZTIj"
  },
  {
   "alignment" : 4,
   "enum_fields" :
   [
    {
     "enum_field_value" : 0,
     "name" : "android::internal::details::ToEmptyString<aidl::android::hardware::bluetooth::audio::CodecType>::value"
    }
   ],
   "linker_set_key" : "_ZTIN7android8internal7details13ToEmptyStringIN4aidl7android8hardware9bluetooth5audio9CodecTypeEE6$valueE",
   "name" : "android::internal::details::ToEmptyString<aidl::android::hardware::bluetooth::audio::CodecType>::(unnamed enum at frameworks/native/libs/binder/ndk/include_cpp/android/binder_to_string.h:153:5)",
   "referenced_type" : "_ZTIN7android8internal7details13ToEmptyStringIN4aidl7android8hardware9bluetooth5audio9CodecTypeEE6$valueE",
   "self_type" : "_ZTIN7android8internal7details13ToEmptyStringIN4aidl7android8hardware9bluetooth5audio9CodecTypeEE6$valueE",
   "size" : 4,
   "source_file" : "frameworks/native/libs/binder/ndk/include_cpp/android/binder_to_string.h",
   "underlying_type" : "_ZTIj"
  },
  {
   "alignment" : 4,
   "enum_fields" :
   [
    {
     "enum_field_value" : 0,
     "name" : "android::internal::details::ToEmptyString<std::basic_string<char>>::value"
    }
   ],
   "linker_set_key" : "_ZTIN7android8internal7details13ToEmptyStringINSt3__112basic_stringIcNS3_11char_traitsIcEENS3_9allocatorIcEEEEE6$valueE",
   "name" : "android::internal::details::ToEmptyString<std::basic_string<char, std::char_traits<char>, std::allocator<char>>>::(unnamed enum at frameworks/native/libs/binder/ndk/include_cpp/android/binder_to_string.h:153:5)",
   "referenced_type" : "_ZTIN7android8internal7details13ToEmptyStringINSt3__112basic_stringIcNS3_11char_traitsIcEENS3_9allocatorIcEEEEE6$valueE",
   "self_type" : "_ZTIN7android8internal7details13ToEmptyStringINSt3__112basic_stringIcNS3_11char_traitsIcEENS3_9allocatorIcEEEEE6$valueE",
   "size" : 4,
   "source_file" : "frameworks/native/libs/binder/ndk/include_cpp/android/binder_to_string.h",
   "underlying_type" : "_ZTIj"
  },
  {
   "alignment" : 4,
   "enum_fields" :
   [
    {
     "enum_field_value" : 0,
     "name" : "android::internal::details::ToEmptyString<std::vector<ndk::ScopedFileDescriptor>>::value"
    }
   ],
   "linker_set_key" : "_ZTIN7android8internal7details13ToEmptyStringINSt3__16vectorIN3ndk20ScopedFileDescriptorENS3_9allocatorIS6_EEEEE6$valueE",
   "name" : "android::internal::details::ToEmptyString<std::vector<ndk::ScopedFileDescriptor, std::allocator<ndk::ScopedFileDescriptor>>>::(unnamed enum at frameworks/native/libs/binder/ndk/include_cpp/android/binder_to_string.h:153:5)",
   "referenced_type" : "_ZTIN7android8internal7details13ToEmptyStringINSt3__16vectorIN3ndk20ScopedFileDescriptorENS3_9allocatorIS6_EEEEE6$valueE",
   "self_type" : "_ZTIN7android8internal7details13ToEmptyStringINSt3__16vectorIN3ndk20ScopedFileDescriptorENS3_9allocatorIS6_EEEEE6$valueE",
   "size" : 4,
   "source_file" : "frameworks/native/libs/binder/ndk/include_cpp/android/binder_to_string.h",
   "underlying_type" : "_ZTIj"
  },
  {
   "alignment" : 4,
   "enum_fields" :
   [
    {
     "enum_field_value" : 0,
     "name" : "android::internal::details::ToEmptyString<std::vector<aidl::android::hardware::audio::common::RecordTrackMetadata>>::value"
    }
   ],
   "linker_set_key" : "_ZTIN7android8internal7details13ToEmptyStringINSt3__16vectorIN4aidl7android8hardware5audio6common19RecordTrackMetadataENS3_9allocatorISA_EEEEE6$valueE",
   "name" : "android::internal::details::ToEmptyString<std::vector<aidl::android::hardware::audio::common::RecordTrackMetadata, std::allocator<aidl::android::hardware::audio::common::RecordTrackMetadata>>>::(unnamed enum at frameworks/native/libs/binder/ndk/include_cpp/android/binder_to_string.h:153:5)",
   "referenced_type" : "_ZTIN7android8internal7details13ToEmptyStringINSt3__16vectorIN4aidl7android8hardware5audio6common19RecordTrackMetadataENS3_9allocatorISA_EEEEE6$valueE",
   "self_type" : "_ZTIN7android8internal7details13ToEmptyStringINSt3__16vectorIN4aidl7android8hardware5audio6common19RecordTrackMetadataENS3_9allocatorISA_EEEEE6$valueE",
   "size" : 4,
   "source_file" : "frameworks/native/libs/binder/ndk/include_cpp/android/binder_to_string.h",
   "underlying_type" : "_ZTIj"
  },
  {
   "alignment" : 4,
   "enum_fields" :
   [
    {
     "enum_field_value" : 0,
     "name" : "android::internal::details::ToEmptyString<std::vector<aidl::android::hardware::audio::common::PlaybackTrackMetadata>>::value"
    }
   ],
   "linker_set_key" : "_ZTIN7android8internal7details13ToEmptyStringINSt3__16vectorIN4aidl7android8hardware5audio6common21PlaybackTrackMetadataENS3_9allocatorISA_EEEEE6$valueE",
   "name" : "android::internal::details::ToEmptyString<std::vector<aidl::android::hardware::audio::common::PlaybackTrackMetadata, std::allocator<aidl::android::hardware::audio::common::PlaybackTrackMetadata>>>::(unnamed enum at frameworks/native/libs/binder/ndk/include_cpp/android/binder_to_string.h:153:5)",
   "referenced_type" : "_ZTIN7android8internal7details13ToEmptyStringINSt3__16vectorIN4aidl7android8hardware5audio6common21PlaybackTrackMetadataENS3_9allocatorISA_EEEEE6$valueE",
   "self_type" : "_ZTIN7android8internal7details13ToEmptyStringINSt3__16vectorIN4aidl7android8hardware5audio6common21PlaybackTrackMetadataENS3_9allocatorISA_EEEEE6$valueE",
   "size" : 4,
   "source_file" : "frameworks/native/libs/binder/ndk/include_cpp/android/binder_to_string.h",
   "underlying_type" : "_ZTIj"
  },
  {
   "alignment" : 4,
   "enum_fields" :
   [
    {
     "enum_field_value" : 0,
     "name" : "android::internal::details::ToEmptyString<std::vector<aidl::android::hardware::bluetooth::audio::ChannelMode>>::value"
    }
   ],
   "linker_set_key" : "_ZTIN7android8internal7details13ToEmptyStringINSt3__16vectorIN4aidl7android8hardware9bluetooth5audio11ChannelModeENS3_9allocatorISA_EEEEE6$valueE",
   "name" : "android::internal::details::ToEmptyString<std::vector<aidl::android::hardware::bluetooth::audio::ChannelMode, std::allocator<aidl::android::hardware::bluetooth::audio::ChannelMode>>>::(unnamed enum at frameworks/native/libs/binder/ndk/include_cpp/android/binder_to_string.h:153:5)",
   "referenced_type" : "_ZTIN7android8internal7details13ToEmptyStringINSt3__16vectorIN4aidl7android8hardware9bluetooth5audio11ChannelModeENS3_9allocatorISA_EEEEE6$valueE",
   "self_type" : "_ZTIN7android8internal7details13ToEmptyStringINSt3__16vectorIN4aidl7android8hardware9bluetooth5audio11ChannelModeENS3_9allocatorISA_EEEEE6$valueE",
   "size" : 4,
   "source_file" : "frameworks/native/libs/binder/ndk/include_cpp/android/binder_to_string.h",
   "underlying_type" : "_ZTIj"
  },
  {
   "alignment" : 4,
   "enum_fields" :
   [
    {
     "enum_field_value" : 0,
     "name" : "android::internal::details::ToEmptyString<std::vector<aidl::android::hardware::bluetooth::audio::AacObjectType>>::value"
    }
   ],
   "linker_set_key" : "_ZTIN7android8internal7details13ToEmptyStringINSt3__16vectorIN4aidl7android8hardware9bluetooth5audio13AacObjectTypeENS3_9allocatorISA_EEEEE6$valueE",
   "name" : "android::internal::details::ToEmptyString<std::vector<aidl::android::hardware::bluetooth::audio::AacObjectType, std::allocator<aidl::android::hardware::bluetooth::audio::AacObjectType>>>::(unnamed enum at frameworks/native/libs/binder/ndk/include_cpp/android/binder_to_string.h:153:5)",
   "referenced_type" : "_ZTIN7android8internal7details13ToEmptyStringINSt3__16vectorIN4aidl7android8hardware9bluetooth5audio13AacObjectTypeENS3_9allocatorISA_EEEEE6$valueE",
   "self_type" : "_ZTIN7android8internal7details13ToEmptyStringINSt3__16vectorIN4aidl7android8hardware9bluetooth5audio13AacObjectTypeENS3_9allocatorISA_EEEEE6$valueE",
   "size" : 4,
   "source_file" : "frameworks/native/libs/binder/ndk/include_cpp/android/binder_to_string.h",
   "underlying_type" : "_ZTIj"
  },
  {
   "alignment" : 4,
   "enum_fields" :
   [
    {
     "enum_field_value" : 0,
     "name" : "android::internal::details::ToEmptyString<std::vector<aidl::android::hardware::bluetooth::audio::SbcAllocMethod>>::value"
    }
   ],
   "linker_set_key" : "_ZTIN7android8internal7details13ToEmptyStringINSt3__16vectorIN4aidl7android8hardware9bluetooth5audio14SbcAllocMethodENS3_9allocatorISA_EEEEE6$valueE",
   "name" : "android::internal::details::ToEmptyString<std::vector<aidl::android::hardware::bluetooth::audio::SbcAllocMethod, std::allocator<aidl::android::hardware::bluetooth::audio::SbcAllocMethod>>>::(unnamed enum at frameworks/native/libs/binder/ndk/include_cpp/android/binder_to_string.h:153:5)",
   "referenced_type" : "_ZTIN7android8internal7details13ToEmptyStringINSt3__16vectorIN4aidl7android8hardware9bluetooth5audio14SbcAllocMethodENS3_9allocatorISA_EEEEE6$valueE",
   "self_type" : "_ZTIN7android8internal7details13ToEmptyStringINSt3__16vectorIN4aidl7android8hardware9bluetooth5audio14SbcAllocMethodENS3_9allocatorISA_EEEEE6$valueE",
   "size" : 4,
   "source_file" : "frameworks/native/libs/binder/ndk/include_cpp/android/binder_to_string.h",
   "underlying_type" : "_ZTIj"
  },
  {
   "alignment" : 4,
   "enum_fields" :
   [
    {
     "enum_field_value" : 0,
     "name" : "android::internal::details::ToEmptyString<std::vector<aidl::android::hardware::bluetooth::audio::SbcChannelMode>>::value"
    }
   ],
   "linker_set_key" : "_ZTIN7android8internal7details13ToEmptyStringINSt3__16vectorIN4aidl7android8hardware9bluetooth5audio14SbcChannelModeENS3_9allocatorISA_EEEEE6$valueE",
   "name" : "android::internal::details::ToEmptyString<std::vector<aidl::android::hardware::bluetooth::audio::SbcChannelMode, std::allocator<aidl::android::hardware::bluetooth::audio::SbcChannelMode>>>::(unnamed enum at frameworks/native/libs/binder/ndk/include_cpp/android/binder_to_string.h:153:5)",
   "referenced_type" : "_ZTIN7android8internal7details13ToEmptyStringINSt3__16vectorIN4aidl7android8hardware9bluetooth5audio14SbcChannelModeENS3_9allocatorISA_EEEEE6$valueE",
   "self_type" : "_ZTIN7android8internal7details13ToEmptyStringINSt3__16vectorIN4aidl7android8hardware9bluetooth5audio14SbcChannelModeENS3_9allocatorISA_EEEEE6$valueE",
   "size" : 4,
   "source_file" : "frameworks/native/libs/binder/ndk/include_cpp/android/binder_to_string.h",
   "underlying_type" : "_ZTIj"
  },
  {
   "alignment" : 4,
   "enum_fields" :
   [
    {
     "enum_field_value" : 0,
     "name" : "android::internal::details::ToEmptyString<std::vector<aidl::android::hardware::bluetooth::audio::LdacChannelMode>>::value"
    }
   ],
   "linker_set_key" : "_ZTIN7android8internal7details13ToEmptyStringINSt3__16vectorIN4aidl7android8hardware9bluetooth5audio15LdacChannelModeENS3_9allocatorISA_EEEEE6$valueE",
   "name" : "android::internal::details::ToEmptyString<std::vector<aidl::android::hardware::bluetooth::audio::LdacChannelMode, std::allocator<aidl::android::hardware::bluetooth::audio::LdacChannelMode>>>::(unnamed enum at frameworks/native/libs/binder/ndk/include_cpp/android/binder_to_string.h:153:5)",
   "referenced_type" : "_ZTIN7android8internal7details13ToEmptyStringINSt3__16vectorIN4aidl7android8hardware9bluetooth5audio15LdacChannelModeENS3_9allocatorISA_EEEEE6$valueE",
   "self_type" : "_ZTIN7android8internal7details13ToEmptyStringINSt3__16vectorIN4aidl7android8hardware9bluetooth5audio15LdacChannelModeENS3_9allocatorISA_EEEEE6$valueE",
   "size" : 4,
   "source_file" : "frameworks/native/libs/binder/ndk/include_cpp/android/binder_to_string.h",
   "underlying_type" : "_ZTIj"
  },
  {
   "alignment" : 4,
   "enum_fields" :
   [
    {
     "enum_field_value" : 0,
     "name" : "android::internal::details::ToEmptyString<std::vector<aidl::android::hardware::bluetooth::audio::LdacQualityIndex>>::value"
    }
   ],
   "linker_set_key" : "_ZTIN7android8internal7details13ToEmptyStringINSt3__16vectorIN4aidl7android8hardware9bluetooth5audio16LdacQualityIndexENS3_9allocatorISA_EEEEE6$valueE",
   "name" : "android::internal::details::ToEmptyString<std::vector<aidl::android::hardware::bluetooth::audio::LdacQualityIndex, std::allocator<aidl::android::hardware::bluetooth::audio::LdacQualityIndex>>>::(unnamed enum at frameworks/native/libs/binder/ndk/include_cpp/android/binder_to_string.h:153:5)",
   "referenced_type" : "_ZTIN7android8internal7details13ToEmptyStringINSt3__16vectorIN4aidl7android8hardware9bluetooth5audio16LdacQualityIndexENS3_9allocatorISA_EEEEE6$valueE",
   "self_type" : "_ZTIN7android8internal7details13ToEmptyStringINSt3__16vectorIN4aidl7android8hardware9bluetooth5audio16LdacQualityIndexENS3_9allocatorISA_EEEEE6$valueE",
   "size" : 4,
   "source_file" : "frameworks/native/libs/binder/ndk/include_cpp/android/binder_to_string.h",
   "underlying_type" : "_ZTIj"
  },
  {
   "alignment" : 4,
   "enum_fields" :
   [
    {
     "enum_field_value" : 0,
     "name" : "android::internal::details::ToEmptyString<std::vector<aidl::android::hardware::bluetooth::audio::LeAudioConfiguration::StreamMap>>::value"
    }
   ],
   "linker_set_key" : "_ZTIN7android8internal7details13ToEmptyStringINSt3__16vectorIN4aidl7android8hardware9bluetooth5audio20LeAudioConfiguration9StreamMapENS3_9allocatorISB_EEEEE6$valueE",
   "name" : "android::internal::details::ToEmptyString<std::vector<aidl::android::hardware::bluetooth::audio::LeAudioConfiguration::StreamMap, std::allocator<aidl::android::hardware::bluetooth::audio::LeAudioConfiguration::StreamMap>>>::(unnamed enum at frameworks/native/libs/binder/ndk/include_cpp/android/binder_to_string.h:153:5)",
   "referenced_type" : "_ZTIN7android8internal7details13ToEmptyStringINSt3__16vectorIN4aidl7android8hardware9bluetooth5audio20LeAudioConfiguration9StreamMapENS3_9allocatorISB_EEEEE6$valueE",
   "self_type" : "_ZTIN7android8internal7details13ToEmptyStringINSt3__16vectorIN4aidl7android8hardware9bluetooth5audio20LeAudioConfiguration9StreamMapENS3_9allocatorISB_EEEEE6$valueE",
   "size" : 4,
   "source_file" : "frameworks/native/libs/binder/ndk/include_cpp/android/binder_to_string.h",
   "underlying_type" : "_ZTIj"
  },
  {
   "alignment" : 4,
   "enum_fields" :
   [
    {
     "enum_field_value" : 0,
     "name" : "android::internal::details::ToEmptyString<std::vector<aidl::android::hardware::bluetooth::audio::AptxAdaptiveChannelMode>>::value"
    }
   ],
   "linker_set_key" : "_ZTIN7android8internal7details13ToEmptyStringINSt3__16vectorIN4aidl7android8hardware9bluetooth5audio23AptxAdaptiveChannelModeENS3_9allocatorISA_EEEEE6$valueE",
   "name" : "android::internal::details::ToEmptyString<std::vector<aidl::android::hardware::bluetooth::audio::AptxAdaptiveChannelMode, std::allocator<aidl::android::hardware::bluetooth::audio::AptxAdaptiveChannelMode>>>::(unnamed enum at frameworks/native/libs/binder/ndk/include_cpp/android/binder_to_string.h:153:5)",
   "referenced_type" : "_ZTIN7android8internal7details13ToEmptyStringINSt3__16vectorIN4aidl7android8hardware9bluetooth5audio23AptxAdaptiveChannelModeENS3_9allocatorISA_EEEEE6$valueE",
   "self_type" : "_ZTIN7android8internal7details13ToEmptyStringINSt3__16vectorIN4aidl7android8hardware9bluetooth5audio23AptxAdaptiveChannelModeENS3_9allocatorISA_EEEEE6$valueE",
   "size" : 4,
   "source_file" : "frameworks/native/libs/binder/ndk/include_cpp/android/binder_to_string.h",
   "underlying_type" : "_ZTIj"
  },
  {
   "alignment" : 4,
   "enum_fields" :
   [
    {
     "enum_field_value" : 0,
     "name" : "android::internal::details::ToEmptyString<std::vector<aidl::android::hardware::bluetooth::audio::LeAudioBroadcastConfiguration::BroadcastStreamMap>>::value"
    }
   ],
   "linker_set_key" : "_ZTIN7android8internal7details13ToEmptyStringINSt3__16vectorIN4aidl7android8hardware9bluetooth5audio29LeAudioBroadcastConfiguration18BroadcastStreamMapENS3_9allocatorISB_EEEEE6$valueE",
   "name" : "android::internal::details::ToEmptyString<std::vector<aidl::android::hardware::bluetooth::audio::LeAudioBroadcastConfiguration::BroadcastStreamMap, std::allocator<aidl::android::hardware::bluetooth::audio::LeAudioBroadcastConfiguration::BroadcastStreamMap>>>::(unnamed enum at frameworks/native/libs/binder/ndk/include_cpp/android/binder_to_string.h:153:5)",
   "referenced_type" : "_ZTIN7android8internal7details13ToEmptyStringINSt3__16vectorIN4aidl7android8hardware9bluetooth5audio29LeAudioBroadcastConfiguration18BroadcastStreamMapENS3_9allocatorISB_EEEEE6$valueE",
   "self_type" : "_ZTIN7android8internal7details13ToEmptyStringINSt3__16vectorIN4aidl7android8hardware9bluetooth5audio29LeAudioBroadcastConfiguration18BroadcastStreamMapENS3_9allocatorISB_EEEEE6$valueE",
   "size" : 4,
   "source_file" : "frameworks/native/libs/binder/ndk/include_cpp/android/binder_to_string.h",
   "underlying_type" : "_ZTIj"
  },
  {
   "alignment" : 4,
   "enum_fields" :
   [
    {
     "enum_field_value" : 0,
     "name" : "android::internal::details::ToEmptyString<std::vector<aidl::android::hardware::bluetooth::audio::AptxMode>>::value"
    }
   ],
   "linker_set_key" : "_ZTIN7android8internal7details13ToEmptyStringINSt3__16vectorIN4aidl7android8hardware9bluetooth5audio8AptxModeENS3_9allocatorISA_EEEEE6$valueE",
   "name" : "android::internal::details::ToEmptyString<std::vector<aidl::android::hardware::bluetooth::audio::AptxMode, std::allocator<aidl::android::hardware::bluetooth::audio::AptxMode>>>::(unnamed enum at frameworks/native/libs/binder/ndk/include_cpp/android/binder_to_string.h:153:5)",
   "referenced_type" : "_ZTIN7android8internal7details13ToEmptyStringINSt3__16vectorIN4aidl7android8hardware9bluetooth5audio8AptxModeENS3_9allocatorISA_EEEEE6$valueE",
   "self_type" : "_ZTIN7android8internal7details13ToEmptyStringINSt3__16vectorIN4aidl7android8hardware9bluetooth5audio8AptxModeENS3_9allocatorISA_EEEEE6$valueE",
   "size" : 4,
   "source_file" : "frameworks/native/libs/binder/ndk/include_cpp/android/binder_to_string.h",
   "underlying_type" : "_ZTIj"
  },
  {
   "alignment" : 4,
   "enum_fields" :
   [
    {
     "enum_field_value" : 0,
     "name" : "android::internal::details::ToEmptyString<std::vector<std::basic_string<char>>>::value"
    }
   ],
   "linker_set_key" : "_ZTIN7android8internal7details13ToEmptyStringINSt3__16vectorINS3_12basic_stringIcNS3_11char_traitsIcEENS3_9allocatorIcEEEENS8_ISA_EEEEE6$valueE",
   "name" : "android::internal::details::ToEmptyString<std::vector<std::basic_string<char, std::char_traits<char>, std::allocator<char>>, std::allocator<std::basic_string<char, std::char_traits<char>, std::allocator<char>>>>>::(unnamed enum at frameworks/native/libs/binder/ndk/include_cpp/android/binder_to_string.h:153:5)",
   "referenced_type" : "_ZTIN7android8internal7details13ToEmptyStringINSt3__16vectorINS3_12basic_stringIcNS3_11char_traitsIcEENS3_9allocatorIcEEEENS8_ISA_EEEEE6$valueE",
   "self_type" : "_ZTIN7android8internal7details13ToEmptyStringINSt3__16vectorINS3_12basic_stringIcNS3_11char_traitsIcEENS3_9allocatorIcEEEENS8_ISA_EEEEE6$valueE",
   "size" : 4,
   "source_file" : "frameworks/native/libs/binder/ndk/include_cpp/android/binder_to_string.h",
   "underlying_type" : "_ZTIj"
  },
  {
   "alignment" : 4,
   "enum_fields" :
   [
    {
     "enum_field_value" : 0,
     "name" : "android::internal::details::ToEmptyString<std::vector<std::optional<aidl::android::hardware::bluetooth::audio::Lc3Capabilities>>>::value"
    }
   ],
   "linker_set_key" : "_ZTIN7android8internal7details13ToEmptyStringINSt3__16vectorINS3_8optionalIN4aidl7android8hardware9bluetooth5audio15Lc3CapabilitiesEEENS3_9allocatorISC_EEEEE6$valueE",
   "name" : "android::internal::details::ToEmptyString<std::vector<std::optional<aidl::android::hardware::bluetooth::audio::Lc3Capabilities>, std::allocator<std::optional<aidl::android::hardware::bluetooth::audio::Lc3Capabilities>>>>::(unnamed enum at frameworks/native/libs/binder/ndk/include_cpp/android/binder_to_string.h:153:5)",
   "referenced_type" : "_ZTIN7android8internal7details13ToEmptyStringINSt3__16vectorINS3_8optionalIN4aidl7android8hardware9bluetooth5audio15Lc3CapabilitiesEEENS3_9allocatorISC_EEEEE6$valueE",
   "self_type" : "_ZTIN7android8internal7details13ToEmptyStringINSt3__16vectorINS3_8optionalIN4aidl7android8hardware9bluetooth5audio15Lc3CapabilitiesEEENS3_9allocatorISC_EEEEE6$valueE",
   "size" : 4,
   "source_file" : "frameworks/native/libs/binder/ndk/include_cpp/android/binder_to_string.h",
   "underlying_type" : "_ZTIj"
  },
  {
   "alignment" : 4,
   "enum_fields" :
   [
    {
     "enum_field_value" : 0,
     "name" : "android::internal::details::ToEmptyString<std::vector<std::optional<aidl::android::hardware::bluetooth::audio::BroadcastCapability::VendorCapabilities>>>::value"
    }
   ],
   "linker_set_key" : "_ZTIN7android8internal7details13ToEmptyStringINSt3__16vectorINS3_8optionalIN4aidl7android8hardware9bluetooth5audio19BroadcastCapability18VendorCapabilitiesEEENS3_9allocatorISD_EEEEE6$valueE",
   "name" : "android::internal::details::ToEmptyString<std::vector<std::optional<aidl::android::hardware::bluetooth::audio::BroadcastCapability::VendorCapabilities>, std::allocator<std::optional<aidl::android::hardware::bluetooth::audio::BroadcastCapability::VendorCapabilities>>>>::(unnamed enum at frameworks/native/libs/binder/ndk/include_cpp/android/binder_to_string.h:153:5)",
   "referenced_type" : "_ZTIN7android8internal7details13ToEmptyStringINSt3__16vectorINS3_8optionalIN4aidl7android8hardware9bluetooth5audio19BroadcastCapability18VendorCapabilitiesEEENS3_9allocatorISD_EEEEE6$valueE",
   "self_type" : "_ZTIN7android8internal7details13ToEmptyStringINSt3__16vectorINS3_8optionalIN4aidl7android8hardware9bluetooth5audio19BroadcastCapability18VendorCapabilitiesEEENS3_9allocatorISD_EEEEE6$valueE",
   "size" : 4,
   "source_file" : "frameworks/native/libs/binder/ndk/include_cpp/android/binder_to_string.h",
   "underlying_type" : "_ZTIj"
  },
  {
   "alignment" : 4,
   "enum_fields" :
   [
    {
     "enum_field_value" : 0,
     "name" : "android::internal::details::ToEmptyString<std::vector<unsigned char>>::value"
    }
   ],
   "linker_set_key" : "_ZTIN7android8internal7details13ToEmptyStringINSt3__16vectorIhNS3_9allocatorIhEEEEE6$valueE",
   "name" : "android::internal::details::ToEmptyString<std::vector<unsigned char, std::allocator<unsigned char>>>::(unnamed enum at frameworks/native/libs/binder/ndk/include_cpp/android/binder_to_string.h:153:5)",
   "referenced_type" : "_ZTIN7android8internal7details13ToEmptyStringINSt3__16vectorIhNS3_9allocatorIhEEEEE6$valueE",
   "self_type" : "_ZTIN7android8internal7details13ToEmptyStringINSt3__16vectorIhNS3_9allocatorIhEEEEE6$valueE",
   "size" : 4,
   "source_file" : "frameworks/native/libs/binder/ndk/include_cpp/android/binder_to_string.h",
   "underlying_type" : "_ZTIj"
  },
  {
   "alignment" : 4,
   "enum_fields" :
   [
    {
     "enum_field_value" : 0,
     "name" : "android::internal::details::ToEmptyString<std::vector<int>>::value"
    }
   ],
   "linker_set_key" : "_ZTIN7android8internal7details13ToEmptyStringINSt3__16vectorIiNS3_9allocatorIiEEEEE6$valueE",
   "name" : "android::internal::details::ToEmptyString<std::vector<int, std::allocator<int>>>::(unnamed enum at frameworks/native/libs/binder/ndk/include_cpp/android/binder_to_string.h:153:5)",
   "referenced_type" : "_ZTIN7android8internal7details13ToEmptyStringINSt3__16vectorIiNS3_9allocatorIiEEEEE6$valueE",
   "self_type" : "_ZTIN7android8internal7details13ToEmptyStringINSt3__16vectorIiNS3_9allocatorIiEEEEE6$valueE",
   "size" : 4,
   "source_file" : "frameworks/native/libs/binder/ndk/include_cpp/android/binder_to_string.h",
   "underlying_type" : "_ZTIj"
  },
  {
   "alignment" : 4,
   "enum_fields" :
   [
    {
     "enum_field_value" : 0,
     "name" : "android::internal::details::ToEmptyString<std::optional<aidl::android::media::audio::common::AudioDevice>>::value"
    }
   ],
   "linker_set_key" : "_ZTIN7android8internal7details13ToEmptyStringINSt3__18optionalIN4aidl7android5media5audio6common11AudioDeviceEEEE6$valueE",
   "name" : "android::internal::details::ToEmptyString<std::optional<aidl::android::media::audio::common::AudioDevice>>::(unnamed enum at frameworks/native/libs/binder/ndk/include_cpp/android/binder_to_string.h:153:5)",
   "referenced_type" : "_ZTIN7android8internal7details13ToEmptyStringINSt3__18optionalIN4aidl7android5media5audio6common11AudioDeviceEEEE6$valueE",
   "self_type" : "_ZTIN7android8internal7details13ToEmptyStringINSt3__18optionalIN4aidl7android5media5audio6common11AudioDeviceEEEE6$valueE",
   "size" : 4,
   "source_file" : "frameworks/native/libs/binder/ndk/include_cpp/android/binder_to_string.h",
   "underlying_type" : "_ZTIj"
  },
  {
   "alignment" : 4,
   "enum_fields" :
   [
    {
     "enum_field_value" : 0,
     "name" : "android::internal::details::ToEmptyString<std::optional<aidl::android::hardware::bluetooth::audio::Lc3Capabilities>>::value"
    }
   ],
   "linker_set_key" : "_ZTIN7android8internal7details13ToEmptyStringINSt3__18optionalIN4aidl7android8hardware9bluetooth5audio15Lc3CapabilitiesEEEE6$valueE",
   "name" : "android::internal::details::ToEmptyString<std::optional<aidl::android::hardware::bluetooth::audio::Lc3Capabilities>>::(unnamed enum at frameworks/native/libs/binder/ndk/include_cpp/android/binder_to_string.h:153:5)",
   "referenced_type" : "_ZTIN7android8internal7details13ToEmptyStringINSt3__18optionalIN4aidl7android8hardware9bluetooth5audio15Lc3CapabilitiesEEEE6$valueE",
   "self_type" : "_ZTIN7android8internal7details13ToEmptyStringINSt3__18optionalIN4aidl7android8hardware9bluetooth5audio15Lc3CapabilitiesEEEE6$valueE",
   "size" : 4,
   "source_file" : "frameworks/native/libs/binder/ndk/include_cpp/android/binder_to_string.h",
   "underlying_type" : "_ZTIj"
  },
  {
   "alignment" : 4,
   "enum_fields" :
   [
    {
     "enum_field_value" : 0,
     "name" : "android::internal::details::ToEmptyString<std::optional<aidl::android::hardware::bluetooth::audio::OpusCapabilities>>::value"
    }
   ],
   "linker_set_key" : "_ZTIN7android8internal7details13ToEmptyStringINSt3__18optionalIN4aidl7android8hardware9bluetooth5audio16OpusCapabilitiesEEEE6$valueE",
   "name" : "android::internal::details::ToEmptyString<std::optional<aidl::android::hardware::bluetooth::audio::OpusCapabilities>>::(unnamed enum at frameworks/native/libs/binder/ndk/include_cpp/android/binder_to_string.h:153:5)",
   "referenced_type" : "_ZTIN7android8internal7details13ToEmptyStringINSt3__18optionalIN4aidl7android8hardware9bluetooth5audio16OpusCapabilitiesEEEE6$valueE",
   "self_type" : "_ZTIN7android8internal7details13ToEmptyStringINSt3__18optionalIN4aidl7android8hardware9bluetooth5audio16OpusCapabilitiesEEEE6$valueE",
   "size" : 4,
   "source_file" : "frameworks/native/libs/binder/ndk/include_cpp/android/binder_to_string.h",
   "underlying_type" : "_ZTIj"
  },
  {
   "alignment" : 4,
   "enum_fields" :
   [
    {
     "enum_field_value" : 0,
     "name" : "android::internal::details::ToEmptyString<std::optional<aidl::android::hardware::bluetooth::audio::OpusConfiguration>>::value"
    }
   ],
   "linker_set_key" : "_ZTIN7android8internal7details13ToEmptyStringINSt3__18optionalIN4aidl7android8hardware9bluetooth5audio17OpusConfigurationEEEE6$valueE",
   "name" : "android::internal::details::ToEmptyString<std::optional<aidl::android::hardware::bluetooth::audio::OpusConfiguration>>::(unnamed enum at frameworks/native/libs/binder/ndk/include_cpp/android/binder_to_string.h:153:5)",
   "referenced_type" : "_ZTIN7android8internal7details13ToEmptyStringINSt3__18optionalIN4aidl7android8hardware9bluetooth5audio17OpusConfigurationEEEE6$valueE",
   "self_type" : "_ZTIN7android8internal7details13ToEmptyStringINSt3__18optionalIN4aidl7android8hardware9bluetooth5audio17OpusConfigurationEEEE6$valueE",
   "size" : 4,
   "source_file" : "frameworks/native/libs/binder/ndk/include_cpp/android/binder_to_string.h",
   "underlying_type" : "_ZTIj"
  },
  {
   "alignment" : 4,
   "enum_fields" :
   [
    {
     "enum_field_value" : 0,
     "name" : "android::internal::details::ToEmptyString<std::optional<aidl::android::hardware::bluetooth::audio::BroadcastCapability::VendorCapabilities>>::value"
    }
   ],
   "linker_set_key" : "_ZTIN7android8internal7details13ToEmptyStringINSt3__18optionalIN4aidl7android8hardware9bluetooth5audio19BroadcastCapability18VendorCapabilitiesEEEE6$valueE",
   "name" : "android::internal::details::ToEmptyString<std::optional<aidl::android::hardware::bluetooth::audio::BroadcastCapability::VendorCapabilities>>::(unnamed enum at frameworks/native/libs/binder/ndk/include_cpp/android/binder_to_string.h:153:5)",
   "referenced_type" : "_ZTIN7android8internal7details13ToEmptyStringINSt3__18optionalIN4aidl7android8hardware9bluetooth5audio19BroadcastCapability18VendorCapabilitiesEEEE6$valueE",
   "self_type" : "_ZTIN7android8internal7details13ToEmptyStringINSt3__18optionalIN4aidl7android8hardware9bluetooth5audio19BroadcastCapability18VendorCapabilitiesEEEE6$valueE",
   "size" : 4,
   "source_file" : "frameworks/native/libs/binder/ndk/include_cpp/android/binder_to_string.h",
   "underlying_type" : "_ZTIj"
  },
  {
   "alignment" : 4,
   "enum_fields" :
   [
    {
     "enum_field_value" : 0,
     "name" : "android::internal::details::ToEmptyString<std::optional<std::vector<std::optional<aidl::android::hardware::bluetooth::audio::Lc3Capabilities>>>>::value"
    }
   ],
   "linker_set_key" : "_ZTIN7android8internal7details13ToEmptyStringINSt3__18optionalINS3_6vectorINS4_IN4aidl7android8hardware9bluetooth5audio15Lc3CapabilitiesEEENS3_9allocatorISC_EEEEEEE6$valueE",
   "name" : "android::internal::details::ToEmptyString<std::optional<std::vector<std::optional<aidl::android::hardware::bluetooth::audio::Lc3Capabilities>, std::allocator<std::optional<aidl::android::hardware::bluetooth::audio::Lc3Capabilities>>>>>::(unnamed enum at frameworks/native/libs/binder/ndk/include_cpp/android/binder_to_string.h:153:5)",
   "referenced_type" : "_ZTIN7android8internal7details13ToEmptyStringINSt3__18optionalINS3_6vectorINS4_IN4aidl7android8hardware9bluetooth5audio15Lc3CapabilitiesEEENS3_9allocatorISC_EEEEEEE6$valueE",
   "self_type" : "_ZTIN7android8internal7details13ToEmptyStringINSt3__18optionalINS3_6vectorINS4_IN4aidl7android8hardware9bluetooth5audio15Lc3CapabilitiesEEENS3_9allocatorISC_EEEEEEE6$valueE",
   "size" : 4,
   "source_file" : "frameworks/native/libs/binder/ndk/include_cpp/android/binder_to_string.h",
   "underlying_type" : "_ZTIj"
  },
  {
   "alignment" : 4,
   "enum_fields" :
   [
    {
     "enum_field_value" : 0,
     "name" : "android::internal::details::ToEmptyString<std::optional<std::vector<std::optional<aidl::android::hardware::bluetooth::audio::BroadcastCapability::VendorCapabilities>>>>::value"
    }
   ],
   "linker_set_key" : "_ZTIN7android8internal7details13ToEmptyStringINSt3__18optionalINS3_6vectorINS4_IN4aidl7android8hardware9bluetooth5audio19BroadcastCapability18VendorCapabilitiesEEENS3_9allocatorISD_EEEEEEE6$valueE",
   "name" : "android::internal::details::ToEmptyString<std::optional<std::vector<std::optional<aidl::android::hardware::bluetooth::audio::BroadcastCapability::VendorCapabilities>, std::allocator<std::optional<aidl::android::hardware::bluetooth::audio::BroadcastCapability::VendorCapabilities>>>>>::(unnamed enum at frameworks/native/libs/binder/ndk/include_cpp/android/binder_to_string.h:153:5)",
   "referenced_type" : "_ZTIN7android8internal7details13ToEmptyStringINSt3__18optionalINS3_6vectorINS4_IN4aidl7android8hardware9bluetooth5audio19BroadcastCapability18VendorCapabilitiesEEENS3_9allocatorISD_EEEEEEE6$valueE",
   "self_type" : "_ZTIN7android8internal7details13ToEmptyStringINSt3__18optionalINS3_6vectorINS4_IN4aidl7android8hardware9bluetooth5audio19BroadcastCapability18VendorCapabilitiesEEENS3_9allocatorISD_EEEEEEE6$valueE",
   "size" : 4,
   "source_file" : "frameworks/native/libs/binder/ndk/include_cpp/android/binder_to_string.h",
   "underlying_type" : "_ZTIj"
  },
  {
   "alignment" : 4,
   "enum_fields" :
   [
    {
     "enum_field_value" : 0,
     "name" : "android::internal::details::ToEmptyString<signed char>::value"
    }
   ],
   "linker_set_key" : "_ZTIN7android8internal7details13ToEmptyStringIaE6$valueE",
   "name" : "android::internal::details::ToEmptyString<signed char>::(unnamed enum at frameworks/native/libs/binder/ndk/include_cpp/android/binder_to_string.h:153:5)",
   "referenced_type" : "_ZTIN7android8internal7details13ToEmptyStringIaE6$valueE",
   "self_type" : "_ZTIN7android8internal7details13ToEmptyStringIaE6$valueE",
   "size" : 4,
   "source_file" : "frameworks/native/libs/binder/ndk/include_cpp/android/binder_to_string.h",
   "underlying_type" : "_ZTIj"
  },
  {
   "alignment" : 4,
   "enum_fields" :
   [
    {
     "enum_field_value" : 0,
     "name" : "android::internal::details::ToEmptyString<bool>::value"
    }
   ],
   "linker_set_key" : "_ZTIN7android8internal7details13ToEmptyStringIbE6$valueE",
   "name" : "android::internal::details::ToEmptyString<bool>::(unnamed enum at frameworks/native/libs/binder/ndk/include_cpp/android/binder_to_string.h:153:5)",
   "referenced_type" : "_ZTIN7android8internal7details13ToEmptyStringIbE6$valueE",
   "self_type" : "_ZTIN7android8internal7details13ToEmptyStringIbE6$valueE",
   "size" : 4,
   "source_file" : "frameworks/native/libs/binder/ndk/include_cpp/android/binder_to_string.h",
   "underlying_type" : "_ZTIj"
  },
  {
   "alignment" : 4,
   "enum_fields" :
   [
    {
     "enum_field_value" : 0,
     "name" : "android::internal::details::ToEmptyString<float>::value"
    }
   ],
   "linker_set_key" : "_ZTIN7android8internal7details13ToEmptyStringIfE6$valueE",
   "name" : "android::internal::details::ToEmptyString<float>::(unnamed enum at frameworks/native/libs/binder/ndk/include_cpp/android/binder_to_string.h:153:5)",
   "referenced_type" : "_ZTIN7android8internal7details13ToEmptyStringIfE6$valueE",
   "self_type" : "_ZTIN7android8internal7details13ToEmptyStringIfE6$valueE",
   "size" : 4,
   "source_file" : "frameworks/native/libs/binder/ndk/include_cpp/android/binder_to_string.h",
   "underlying_type" : "_ZTIj"
  },
  {
   "alignment" : 4,
   "enum_fields" :
   [
    {
     "enum_field_value" : 0,
     "name" : "android::internal::details::ToEmptyString<unsigned char>::value"
    }
   ],
   "linker_set_key" : "_ZTIN7android8internal7details13ToEmptyStringIhE6$valueE",
   "name" : "android::internal::details::ToEmptyString<unsigned char>::(unnamed enum at frameworks/native/libs/binder/ndk/include_cpp/android/binder_to_string.h:153:5)",
   "referenced_type" : "_ZTIN7android8internal7details13ToEmptyStringIhE6$valueE",
   "self_type" : "_ZTIN7android8internal7details13ToEmptyStringIhE6$valueE",
   "size" : 4,
   "source_file" : "frameworks/native/libs/binder/ndk/include_cpp/android/binder_to_string.h",
   "underlying_type" : "_ZTIj"
  },
  {
   "alignment" : 4,
   "enum_fields" :
   [
    {
     "enum_field_value" : 0,
     "name" : "android::internal::details::ToEmptyString<int>::value"
    }
   ],
   "linker_set_key" : "_ZTIN7android8internal7details13ToEmptyStringIiE6$valueE",
   "name" : "android::internal::details::ToEmptyString<int>::(unnamed enum at frameworks/native/libs/binder/ndk/include_cpp/android/binder_to_string.h:153:5)",
   "referenced_type" : "_ZTIN7android8internal7details13ToEmptyStringIiE6$valueE",
   "self_type" : "_ZTIN7android8internal7details13ToEmptyStringIiE6$valueE",
   "size" : 4,
   "source_file" : "frameworks/native/libs/binder/ndk/include_cpp/android/binder_to_string.h",
   "underlying_type" : "_ZTIj"
  },
  {
   "alignment" : 4,
   "enum_fields" :
   [
    {
     "enum_field_value" : 0,
     "name" : "android::internal::details::ToEmptyString<long>::value"
    }
   ],
   "linker_set_key" : "_ZTIN7android8internal7details13ToEmptyStringIlE6$valueE",
   "name" : "android::internal::details::ToEmptyString<long>::(unnamed enum at frameworks/native/libs/binder/ndk/include_cpp/android/binder_to_string.h:153:5)",
   "referenced_type" : "_ZTIN7android8internal7details13ToEmptyStringIlE6$valueE",
   "self_type" : "_ZTIN7android8internal7details13ToEmptyStringIlE6$valueE",
   "size" : 4,
   "source_file" : "frameworks/native/libs/binder/ndk/include_cpp/android/binder_to_string.h",
   "underlying_type" : "_ZTIj"
  },
  {
   "alignment" : 4,
   "enum_fields" :
   [
    {
     "enum_field_value" : 0,
     "name" : "android::internal::details::HasToStringMethod<aidl::android::media::audio::common::AudioUsage>::value"
    }
   ],
   "linker_set_key" : "_ZTIN7android8internal7details17HasToStringMethodIN4aidl7android5media5audio6common10AudioUsageEE6$valueE",
   "name" : "android::internal::details::HasToStringMethod<aidl::android::media::audio::common::AudioUsage>::(unnamed enum at frameworks/native/libs/binder/ndk/include_cpp/android/binder_to_string.h:77:5)",
   "referenced_type" : "_ZTIN7android8internal7details17HasToStringMethodIN4aidl7android5media5audio6common10AudioUsageEE6$valueE",
   "self_type" : "_ZTIN7android8internal7details17HasToStringMethodIN4aidl7android5media5audio6common10AudioUsageEE6$valueE",
   "size" : 4,
   "source_file" : "frameworks/native/libs/binder/ndk/include_cpp/android/binder_to_string.h",
   "underlying_type" : "_ZTIj"
  },
  {
   "alignment" : 4,
   "enum_fields" :
   [
    {
     "enum_field_value" : 1,
     "name" : "android::internal::details::HasToStringMethod<aidl::android::media::audio::common::AudioDevice>::value"
    }
   ],
   "linker_set_key" : "_ZTIN7android8internal7details17HasToStringMethodIN4aidl7android5media5audio6common11AudioDeviceEE6$valueE",
   "name" : "android::internal::details::HasToStringMethod<aidl::android::media::audio::common::AudioDevice>::(unnamed enum at frameworks/native/libs/binder/ndk/include_cpp/android/binder_to_string.h:77:5)",
   "referenced_type" : "_ZTIN7android8internal7details17HasToStringMethodIN4aidl7android5media5audio6common11AudioDeviceEE6$valueE",
   "self_type" : "_ZTIN7android8internal7details17HasToStringMethodIN4aidl7android5media5audio6common11AudioDeviceEE6$valueE",
   "size" : 4,
   "source_file" : "frameworks/native/libs/binder/ndk/include_cpp/android/binder_to_string.h",
   "underlying_type" : "_ZTIj"
  },
  {
   "alignment" : 4,
   "enum_fields" :
   [
    {
     "enum_field_value" : 0,
     "name" : "android::internal::details::HasToStringMethod<aidl::android::media::audio::common::AudioSource>::value"
    }
   ],
   "linker_set_key" : "_ZTIN7android8internal7details17HasToStringMethodIN4aidl7android5media5audio6common11AudioSourceEE6$valueE",
   "name" : "android::internal::details::HasToStringMethod<aidl::android::media::audio::common::AudioSource>::(unnamed enum at frameworks/native/libs/binder/ndk/include_cpp/android/binder_to_string.h:77:5)",
   "referenced_type" : "_ZTIN7android8internal7details17HasToStringMethodIN4aidl7android5media5audio6common11AudioSourceEE6$valueE",
   "self_type" : "_ZTIN7android8internal7details17HasToStringMethodIN4aidl7android5media5audio6common11AudioSourceEE6$valueE",
   "size" : 4,
   "source_file" : "frameworks/native/libs/binder/ndk/include_cpp/android/binder_to_string.h",
   "underlying_type" : "_ZTIj"
  },
  {
   "alignment" : 4,
   "enum_fields" :
   [
    {
     "enum_field_value" : 0,
     "name" : "android::internal::details::HasToStringMethod<aidl::android::media::audio::common::AudioDeviceType>::value"
    }
   ],
   "linker_set_key" : "_ZTIN7android8internal7details17HasToStringMethodIN4aidl7android5media5audio6common15AudioDeviceTypeEE6$valueE",
   "name" : "android::internal::details::HasToStringMethod<aidl::android::media::audio::common::AudioDeviceType>::(unnamed enum at frameworks/native/libs/binder/ndk/include_cpp/android/binder_to_string.h:77:5)",
   "referenced_type" : "_ZTIN7android8internal7details17HasToStringMethodIN4aidl7android5media5audio6common15AudioDeviceTypeEE6$valueE",
   "self_type" : "_ZTIN7android8internal7details17HasToStringMethodIN4aidl7android5media5audio6common15AudioDeviceTypeEE6$valueE",
   "size" : 4,
   "source_file" : "frameworks/native/libs/binder/ndk/include_cpp/android/binder_to_string.h",
   "underlying_type" : "_ZTIj"
  },
  {
   "alignment" : 4,
   "enum_fields" :
   [
    {
     "enum_field_value" : 0,
     "name" : "android::internal::details::HasToStringMethod<aidl::android::media::audio::common::AudioContentType>::value"
    }
   ],
   "linker_set_key" : "_ZTIN7android8internal7details17HasToStringMethodIN4aidl7android5media5audio6common16AudioContentTypeEE6$valueE",
   "name" : "android::internal::details::HasToStringMethod<aidl::android::media::audio::common::AudioContentType>::(unnamed enum at frameworks/native/libs/binder/ndk/include_cpp/android/binder_to_string.h:77:5)",
   "referenced_type" : "_ZTIN7android8internal7details17HasToStringMethodIN4aidl7android5media5audio6common16AudioContentTypeEE6$valueE",
   "self_type" : "_ZTIN7android8internal7details17HasToStringMethodIN4aidl7android5media5audio6common16AudioContentTypeEE6$valueE",
   "size" : 4,
   "source_file" : "frameworks/native/libs/binder/ndk/include_cpp/android/binder_to_string.h",
   "underlying_type" : "_ZTIj"
  },
  {
   "alignment" : 4,
   "enum_fields" :
   [
    {
     "enum_field_value" : 1,
     "name" : "android::internal::details::HasToStringMethod<aidl::android::media::audio::common::AudioChannelLayout>::value"
    }
   ],
   "linker_set_key" : "_ZTIN7android8internal7details17HasToStringMethodIN4aidl7android5media5audio6common18AudioChannelLayoutEE6$valueE",
   "name" : "android::internal::details::HasToStringMethod<aidl::android::media::audio::common::AudioChannelLayout>::(unnamed enum at frameworks/native/libs/binder/ndk/include_cpp/android/binder_to_string.h:77:5)",
   "referenced_type" : "_ZTIN7android8internal7details17HasToStringMethodIN4aidl7android5media5audio6common18AudioChannelLayoutEE6$valueE",
   "self_type" : "_ZTIN7android8internal7details17HasToStringMethodIN4aidl7android5media5audio6common18AudioChannelLayoutEE6$valueE",
   "size" : 4,
   "source_file" : "frameworks/native/libs/binder/ndk/include_cpp/android/binder_to_string.h",
   "underlying_type" : "_ZTIj"
  },
  {
   "alignment" : 4,
   "enum_fields" :
   [
    {
     "enum_field_value" : 1,
     "name" : "android::internal::details::HasToStringMethod<aidl::android::media::audio::common::AudioDeviceAddress>::value"
    }
   ],
   "linker_set_key" : "_ZTIN7android8internal7details17HasToStringMethodIN4aidl7android5media5audio6common18AudioDeviceAddressEE6$valueE",
   "name" : "android::internal::details::HasToStringMethod<aidl::android::media::audio::common::AudioDeviceAddress>::(unnamed enum at frameworks/native/libs/binder/ndk/include_cpp/android/binder_to_string.h:77:5)",
   "referenced_type" : "_ZTIN7android8internal7details17HasToStringMethodIN4aidl7android5media5audio6common18AudioDeviceAddressEE6$valueE",
   "self_type" : "_ZTIN7android8internal7details17HasToStringMethodIN4aidl7android5media5audio6common18AudioDeviceAddressEE6$valueE",
   "size" : 4,
   "source_file" : "frameworks/native/libs/binder/ndk/include_cpp/android/binder_to_string.h",
   "underlying_type" : "_ZTIj"
  },
  {
   "alignment" : 4,
   "enum_fields" :
   [
    {
     "enum_field_value" : 1,
     "name" : "android::internal::details::HasToStringMethod<aidl::android::media::audio::common::AudioDeviceDescription>::value"
    }
   ],
   "linker_set_key" : "_ZTIN7android8internal7details17HasToStringMethodIN4aidl7android5media5audio6common22AudioDeviceDescriptionEE6$valueE",
   "name" : "android::internal::details::HasToStringMethod<aidl::android::media::audio::common::AudioDeviceDescription>::(unnamed enum at frameworks/native/libs/binder/ndk/include_cpp/android/binder_to_string.h:77:5)",
   "referenced_type" : "_ZTIN7android8internal7details17HasToStringMethodIN4aidl7android5media5audio6common22AudioDeviceDescriptionEE6$valueE",
   "self_type" : "_ZTIN7android8internal7details17HasToStringMethodIN4aidl7android5media5audio6common22AudioDeviceDescriptionEE6$valueE",
   "size" : 4,
   "source_file" : "frameworks/native/libs/binder/ndk/include_cpp/android/binder_to_string.h",
   "underlying_type" : "_ZTIj"
  },
  {
   "alignment" : 4,
   "enum_fields" :
   [
    {
     "enum_field_value" : 1,
     "name" : "android::internal::details::HasToStringMethod<aidl::android::hardware::audio::common::RecordTrackMetadata>::value"
    }
   ],
   "linker_set_key" : "_ZTIN7android8internal7details17HasToStringMethodIN4aidl7android8hardware5audio6common19RecordTrackMetadataEE6$valueE",
   "name" : "android::internal::details::HasToStringMethod<aidl::android::hardware::audio::common::RecordTrackMetadata>::(unnamed enum at frameworks/native/libs/binder/ndk/include_cpp/android/binder_to_string.h:77:5)",
   "referenced_type" : "_ZTIN7android8internal7details17HasToStringMethodIN4aidl7android8hardware5audio6common19RecordTrackMetadataEE6$valueE",
   "self_type" : "_ZTIN7android8internal7details17HasToStringMethodIN4aidl7android8hardware5audio6common19RecordTrackMetadataEE6$valueE",
   "size" : 4,
   "source_file" : "frameworks/native/libs/binder/ndk/include_cpp/android/binder_to_string.h",
   "underlying_type" : "_ZTIj"
  },
  {
   "alignment" : 4,
   "enum_fields" :
   [
    {
     "enum_field_value" : 1,
     "name" : "android::internal::details::HasToStringMethod<aidl::android::hardware::audio::common::PlaybackTrackMetadata>::value"
    }
   ],
   "linker_set_key" : "_ZTIN7android8internal7details17HasToStringMethodIN4aidl7android8hardware5audio6common21PlaybackTrackMetadataEE6$valueE",
   "name" : "android::internal::details::HasToStringMethod<aidl::android::hardware::audio::common::PlaybackTrackMetadata>::(unnamed enum at frameworks/native/libs/binder/ndk/include_cpp/android/binder_to_string.h:77:5)",
   "referenced_type" : "_ZTIN7android8internal7details17HasToStringMethodIN4aidl7android8hardware5audio6common21PlaybackTrackMetadataEE6$valueE",
   "self_type" : "_ZTIN7android8internal7details17HasToStringMethodIN4aidl7android8hardware5audio6common21PlaybackTrackMetadataEE6$valueE",
   "size" : 4,
   "source_file" : "frameworks/native/libs/binder/ndk/include_cpp/android/binder_to_string.h",
   "underlying_type" : "_ZTIj"
  },
  {
   "alignment" : 4,
   "enum_fields" :
   [
    {
     "enum_field_value" : 0,
     "name" : "android::internal::details::HasToStringMethod<aidl::android::hardware::bluetooth::audio::ChannelMode>::value"
    }
   ],
   "linker_set_key" : "_ZTIN7android8internal7details17HasToStringMethodIN4aidl7android8hardware9bluetooth5audio11ChannelModeEE6$valueE",
   "name" : "android::internal::details::HasToStringMethod<aidl::android::hardware::bluetooth::audio::ChannelMode>::(unnamed enum at frameworks/native/libs/binder/ndk/include_cpp/android/binder_to_string.h:77:5)",
   "referenced_type" : "_ZTIN7android8internal7details17HasToStringMethodIN4aidl7android8hardware9bluetooth5audio11ChannelModeEE6$valueE",
   "self_type" : "_ZTIN7android8internal7details17HasToStringMethodIN4aidl7android8hardware9bluetooth5audio11ChannelModeEE6$valueE",
   "size" : 4,
   "source_file" : "frameworks/native/libs/binder/ndk/include_cpp/android/binder_to_string.h",
   "underlying_type" : "_ZTIj"
  },
  {
   "alignment" : 4,
   "enum_fields" :
   [
    {
     "enum_field_value" : 0,
     "name" : "android::internal::details::HasToStringMethod<aidl::android::hardware::bluetooth::audio::AacObjectType>::value"
    }
   ],
   "linker_set_key" : "_ZTIN7android8internal7details17HasToStringMethodIN4aidl7android8hardware9bluetooth5audio13AacObjectTypeEE6$valueE",
   "name" : "android::internal::details::HasToStringMethod<aidl::android::hardware::bluetooth::audio::AacObjectType>::(unnamed enum at frameworks/native/libs/binder/ndk/include_cpp/android/binder_to_string.h:77:5)",
   "referenced_type" : "_ZTIN7android8internal7details17HasToStringMethodIN4aidl7android8hardware9bluetooth5audio13AacObjectTypeEE6$valueE",
   "self_type" : "_ZTIN7android8internal7details17HasToStringMethodIN4aidl7android8hardware9bluetooth5audio13AacObjectTypeEE6$valueE",
   "size" : 4,
   "source_file" : "frameworks/native/libs/binder/ndk/include_cpp/android/binder_to_string.h",
   "underlying_type" : "_ZTIj"
  },
  {
   "alignment" : 4,
   "enum_fields" :
   [
    {
     "enum_field_value" : 0,
     "name" : "android::internal::details::HasToStringMethod<aidl::android::hardware::bluetooth::audio::AudioLocation>::value"
    }
   ],
   "linker_set_key" : "_ZTIN7android8internal7details17HasToStringMethodIN4aidl7android8hardware9bluetooth5audio13AudioLocationEE6$valueE",
   "name" : "android::internal::details::HasToStringMethod<aidl::android::hardware::bluetooth::audio::AudioLocation>::(unnamed enum at frameworks/native/libs/binder/ndk/include_cpp/android/binder_to_string.h:77:5)",
   "referenced_type" : "_ZTIN7android8internal7details17HasToStringMethodIN4aidl7android8hardware9bluetooth5audio13AudioLocationEE6$valueE",
   "self_type" : "_ZTIN7android8internal7details17HasToStringMethodIN4aidl7android8hardware9bluetooth5audio13AudioLocationEE6$valueE",
   "size" : 4,
   "source_file" : "frameworks/native/libs/binder/ndk/include_cpp/android/binder_to_string.h",
   "underlying_type" : "_ZTIj"
  },
  {
   "alignment" : 4,
   "enum_fields" :
   [
    {
     "enum_field_value" : 0,
     "name" : "android::internal::details::HasToStringMethod<aidl::android::hardware::bluetooth::audio::SbcAllocMethod>::value"
    }
   ],
   "linker_set_key" : "_ZTIN7android8internal7details17HasToStringMethodIN4aidl7android8hardware9bluetooth5audio14SbcAllocMethodEE6$valueE",
   "name" : "android::internal::details::HasToStringMethod<aidl::android::hardware::bluetooth::audio::SbcAllocMethod>::(unnamed enum at frameworks/native/libs/binder/ndk/include_cpp/android/binder_to_string.h:77:5)",
   "referenced_type" : "_ZTIN7android8internal7details17HasToStringMethodIN4aidl7android8hardware9bluetooth5audio14SbcAllocMethodEE6$valueE",
   "self_type" : "_ZTIN7android8internal7details17HasToStringMethodIN4aidl7android8hardware9bluetooth5audio14SbcAllocMethodEE6$valueE",
   "size" : 4,
   "source_file" : "frameworks/native/libs/binder/ndk/include_cpp/android/binder_to_string.h",
   "underlying_type" : "_ZTIj"
  },
  {
   "alignment" : 4,
   "enum_fields" :
   [
    {
     "enum_field_value" : 0,
     "name" : "android::internal::details::HasToStringMethod<aidl::android::hardware::bluetooth::audio::SbcChannelMode>::value"
    }
   ],
   "linker_set_key" : "_ZTIN7android8internal7details17HasToStringMethodIN4aidl7android8hardware9bluetooth5audio14SbcChannelModeEE6$valueE",
   "name" : "android::internal::details::HasToStringMethod<aidl::android::hardware::bluetooth::audio::SbcChannelMode>::(unnamed enum at frameworks/native/libs/binder/ndk/include_cpp/android/binder_to_string.h:77:5)",
   "referenced_type" : "_ZTIN7android8internal7details17HasToStringMethodIN4aidl7android8hardware9bluetooth5audio14SbcChannelModeEE6$valueE",
   "self_type" : "_ZTIN7android8internal7details17HasToStringMethodIN4aidl7android8hardware9bluetooth5audio14SbcChannelModeEE6$valueE",
   "size" : 4,
   "source_file" : "frameworks/native/libs/binder/ndk/include_cpp/android/binder_to_string.h",
   "underlying_type" : "_ZTIj"
  },
  {
   "alignment" : 4,
   "enum_fields" :
   [
    {
     "enum_field_value" : 1,
     "name" : "android::internal::details::HasToStringMethod<aidl::android::hardware::bluetooth::audio::AacCapabilities>::value"
    }
   ],
   "linker_set_key" : "_ZTIN7android8internal7details17HasToStringMethodIN4aidl7android8hardware9bluetooth5audio15AacCapabilitiesEE6$valueE",
   "name" : "android::internal::details::HasToStringMethod<aidl::android::hardware::bluetooth::audio::AacCapabilities>::(unnamed enum at frameworks/native/libs/binder/ndk/include_cpp/android/binder_to_string.h:77:5)",
   "referenced_type" : "_ZTIN7android8internal7details17HasToStringMethodIN4aidl7android8hardware9bluetooth5audio15AacCapabilitiesEE6$valueE",
   "self_type" : "_ZTIN7android8internal7details17HasToStringMethodIN4aidl7android8hardware9bluetooth5audio15AacCapabilitiesEE6$valueE",
   "size" : 4,
   "source_file" : "frameworks/native/libs/binder/ndk/include_cpp/android/binder_to_string.h",
   "underlying_type" : "_ZTIj"
  },
  {
   "alignment" : 4,
   "enum_fields" :
   [
    {
     "enum_field_value" : 1,
     "name" : "android::internal::details::HasToStringMethod<aidl::android::hardware::bluetooth::audio::Lc3Capabilities>::value"
    }
   ],
   "linker_set_key" : "_ZTIN7android8internal7details17HasToStringMethodIN4aidl7android8hardware9bluetooth5audio15Lc3CapabilitiesEE6$valueE",
   "name" : "android::internal::details::HasToStringMethod<aidl::android::hardware::bluetooth::audio::Lc3Capabilities>::(unnamed enum at frameworks/native/libs/binder/ndk/include_cpp/android/binder_to_string.h:77:5)",
   "referenced_type" : "_ZTIN7android8internal7details17HasToStringMethodIN4aidl7android8hardware9bluetooth5audio15Lc3CapabilitiesEE6$valueE",
   "self_type" : "_ZTIN7android8internal7details17HasToStringMethodIN4aidl7android8hardware9bluetooth5audio15Lc3CapabilitiesEE6$valueE",
   "size" : 4,
   "source_file" : "frameworks/native/libs/binder/ndk/include_cpp/android/binder_to_string.h",
   "underlying_type" : "_ZTIj"
  },
  {
   "alignment" : 4,
   "enum_fields" :
   [
    {
     "enum_field_value" : 0,
     "name" : "android::internal::details::HasToStringMethod<aidl::android::hardware::bluetooth::audio::LdacChannelMode>::value"
    }
   ],
   "linker_set_key" : "_ZTIN7android8internal7details17HasToStringMethodIN4aidl7android8hardware9bluetooth5audio15LdacChannelModeEE6$valueE",
   "name" : "android::internal::details::HasToStringMethod<aidl::android::hardware::bluetooth::audio::LdacChannelMode>::(unnamed enum at frameworks/native/libs/binder/ndk/include_cpp/android/binder_to_string.h:77:5)",
   "referenced_type" : "_ZTIN7android8internal7details17HasToStringMethodIN4aidl7android8hardware9bluetooth5audio15LdacChannelModeEE6$valueE",
   "self_type" : "_ZTIN7android8internal7details17HasToStringMethodIN4aidl7android8hardware9bluetooth5audio15LdacChannelModeEE6$valueE",
   "size" : 4,
   "source_file" : "frameworks/native/libs/binder/ndk/include_cpp/android/binder_to_string.h",
   "underlying_type" : "_ZTIj"
  },
  {
   "alignment" : 4,
   "enum_fields" :
   [
    {
     "enum_field_value" : 1,
     "name" : "android::internal::details::HasToStringMethod<aidl::android::hardware::bluetooth::audio::PcmCapabilities>::value"
    }
   ],
   "linker_set_key" : "_ZTIN7android8internal7details17HasToStringMethodIN4aidl7android8hardware9bluetooth5audio15PcmCapabilitiesEE6$valueE",
   "name" : "android::internal::details::HasToStringMethod<aidl::android::hardware::bluetooth::audio::PcmCapabilities>::(unnamed enum at frameworks/native/libs/binder/ndk/include_cpp/android/binder_to_string.h:77:5)",
   "referenced_type" : "_ZTIN7android8internal7details17HasToStringMethodIN4aidl7android8hardware9bluetooth5audio15PcmCapabilitiesEE6$valueE",
   "self_type" : "_ZTIN7android8internal7details17HasToStringMethodIN4aidl7android8hardware9bluetooth5audio15PcmCapabilitiesEE6$valueE",
   "size" : 4,
   "source_file" : "frameworks/native/libs/binder/ndk/include_cpp/android/binder_to_string.h",
   "underlying_type" : "_ZTIj"
  },
  {
   "alignment" : 4,
   "enum_fields" :
   [
    {
     "enum_field_value" : 1,
     "name" : "android::internal::details::HasToStringMethod<aidl::android::hardware::bluetooth::audio::SbcCapabilities>::value"
    }
   ],
   "linker_set_key" : "_ZTIN7android8internal7details17HasToStringMethodIN4aidl7android8hardware9bluetooth5audio15SbcCapabilitiesEE6$valueE",
   "name" : "android::internal::details::HasToStringMethod<aidl::android::hardware::bluetooth::audio::SbcCapabilities>::(unnamed enum at frameworks/native/libs/binder/ndk/include_cpp/android/binder_to_string.h:77:5)",
   "referenced_type" : "_ZTIN7android8internal7details17HasToStringMethodIN4aidl7android8hardware9bluetooth5audio15SbcCapabilitiesEE6$valueE",
   "self_type" : "_ZTIN7android8internal7details17HasToStringMethodIN4aidl7android8hardware9bluetooth5audio15SbcCapabilitiesEE6$valueE",
   "size" : 4,
   "source_file" : "frameworks/native/libs/binder/ndk/include_cpp/android/binder_to_string.h",
   "underlying_type" : "_ZTIj"
  },
  {
   "alignment" : 4,
   "enum_fields" :
   [
    {
     "enum_field_value" : 1,
     "name" : "android::internal::details::HasToStringMethod<aidl::android::hardware::bluetooth::audio::AacConfiguration>::value"
    }
   ],
   "linker_set_key" : "_ZTIN7android8internal7details17HasToStringMethodIN4aidl7android8hardware9bluetooth5audio16AacConfigurationEE6$valueE",
   "name" : "android::internal::details::HasToStringMethod<aidl::android::hardware::bluetooth::audio::AacConfiguration>::(unnamed enum at frameworks/native/libs/binder/ndk/include_cpp/android/binder_to_string.h:77:5)",
   "referenced_type" : "_ZTIN7android8internal7details17HasToStringMethodIN4aidl7android8hardware9bluetooth5audio16AacConfigurationEE6$valueE",
   "self_type" : "_ZTIN7android8internal7details17HasToStringMethodIN4aidl7android8hardware9bluetooth5audio16AacConfigurationEE6$valueE",
   "size" : 4,
   "source_file" : "frameworks/native/libs/binder/ndk/include_cpp/android/binder_to_string.h",
   "underlying_type" : "_ZTIj"
  },
  {
   "alignment" : 4,
   "enum_fields" :
   [
    {
     "enum_field_value" : 1,
     "name" : "android::internal::details::HasToStringMethod<aidl::android::hardware::bluetooth::audio::AptxCapabilities>::value"
    }
   ],
   "linker_set_key" : "_ZTIN7android8internal7details17HasToStringMethodIN4aidl7android8hardware9bluetooth5audio16AptxCapabilitiesEE6$valueE",
   "name" : "android::internal::details::HasToStringMethod<aidl::android::hardware::bluetooth::audio::AptxCapabilities>::(unnamed enum at frameworks/native/libs/binder/ndk/include_cpp/android/binder_to_string.h:77:5)",
   "referenced_type" : "_ZTIN7android8internal7details17HasToStringMethodIN4aidl7android8hardware9bluetooth5audio16AptxCapabilitiesEE6$valueE",
   "self_type" : "_ZTIN7android8internal7details17HasToStringMethodIN4aidl7android8hardware9bluetooth5audio16AptxCapabilitiesEE6$valueE",
   "size" : 4,
   "source_file" : "frameworks/native/libs/binder/ndk/include_cpp/android/binder_to_string.h",
   "underlying_type" : "_ZTIj"
  },
  {
   "alignment" : 4,
   "enum_fields" :
   [
    {
     "enum_field_value" : 1,
     "name" : "android::internal::details::HasToStringMethod<aidl::android::hardware::bluetooth::audio::Lc3Configuration>::value"
    }
   ],
   "linker_set_key" : "_ZTIN7android8internal7details17HasToStringMethodIN4aidl7android8hardware9bluetooth5audio16Lc3ConfigurationEE6$valueE",
   "name" : "android::internal::details::HasToStringMethod<aidl::android::hardware::bluetooth::audio::Lc3Configuration>::(unnamed enum at frameworks/native/libs/binder/ndk/include_cpp/android/binder_to_string.h:77:5)",
   "referenced_type" : "_ZTIN7android8internal7details17HasToStringMethodIN4aidl7android8hardware9bluetooth5audio16Lc3ConfigurationEE6$valueE",
   "self_type" : "_ZTIN7android8internal7details17HasToStringMethodIN4aidl7android8hardware9bluetooth5audio16Lc3ConfigurationEE6$valueE",
   "size" : 4,
   "source_file" : "frameworks/native/libs/binder/ndk/include_cpp/android/binder_to_string.h",
   "underlying_type" : "_ZTIj"
  },
  {
   "alignment" : 4,
   "enum_fields" :
   [
    {
     "enum_field_value" : 1,
     "name" : "android::internal::details::HasToStringMethod<aidl::android::hardware::bluetooth::audio::LdacCapabilities>::value"
    }
   ],
   "linker_set_key" : "_ZTIN7android8internal7details17HasToStringMethodIN4aidl7android8hardware9bluetooth5audio16LdacCapabilitiesEE6$valueE",
   "name" : "android::internal::details::HasToStringMethod<aidl::android::hardware::bluetooth::audio::LdacCapabilities>::(unnamed enum at frameworks/native/libs/binder/ndk/include_cpp/android/binder_to_string.h:77:5)",
   "referenced_type" : "_ZTIN7android8internal7details17HasToStringMethodIN4aidl7android8hardware9bluetooth5audio16LdacCapabilitiesEE6$valueE",
   "self_type" : "_ZTIN7android8internal7details17HasToStringMethodIN4aidl7android8hardware9bluetooth5audio16LdacCapabilitiesEE6$valueE",
   "size" : 4,
   "source_file" : "frameworks/native/libs/binder/ndk/include_cpp/android/binder_to_string.h",
   "underlying_type" : "_ZTIj"
  },
  {
   "alignment" : 4,
   "enum_fields" :
   [
    {
     "enum_field_value" : 0,
     "name" : "android::internal::details::HasToStringMethod<aidl::android::hardware::bluetooth::audio::LdacQualityIndex>::value"
    }
   ],
   "linker_set_key" : "_ZTIN7android8internal7details17HasToStringMethodIN4aidl7android8hardware9bluetooth5audio16LdacQualityIndexEE6$valueE",
   "name" : "android::internal::details::HasToStringMethod<aidl::android::hardware::bluetooth::audio::LdacQualityIndex>::(unnamed enum at frameworks/native/libs/binder/ndk/include_cpp/android/binder_to_string.h:77:5)",
   "referenced_type" : "_ZTIN7android8internal7details17HasToStringMethodIN4aidl7android8hardware9bluetooth5audio16LdacQualityIndexEE6$valueE",
   "self_type" : "_ZTIN7android8internal7details17HasToStringMethodIN4aidl7android8hardware9bluetooth5audio16LdacQualityIndexEE6$valueE",
   "size" : 4,
   "source_file" : "frameworks/native/libs/binder/ndk/include_cpp/android/binder_to_string.h",
   "underlying_type" : "_ZTIj"
  },
  {
   "alignment" : 4,
   "enum_fields" :
   [
    {
     "enum_field_value" : 1,
     "name" : "android::internal::details::HasToStringMethod<aidl::android::hardware::bluetooth::audio::OpusCapabilities>::value"
    }
   ],
   "linker_set_key" : "_ZTIN7android8internal7details17HasToStringMethodIN4aidl7android8hardware9bluetooth5audio16OpusCapabilitiesEE6$valueE",
   "name" : "android::internal::details::HasToStringMethod<aidl::android::hardware::bluetooth::audio::OpusCapabilities>::(unnamed enum at frameworks/native/libs/binder/ndk/include_cpp/android/binder_to_string.h:77:5)",
   "referenced_type" : "_ZTIN7android8internal7details17HasToStringMethodIN4aidl7android8hardware9bluetooth5audio16OpusCapabilitiesEE6$valueE",
   "self_type" : "_ZTIN7android8internal7details17HasToStringMethodIN4aidl7android8hardware9bluetooth5audio16OpusCapabilitiesEE6$valueE",
   "size" : 4,
   "source_file" : "frameworks/native/libs/binder/ndk/include_cpp/android/binder_to_string.h",
   "underlying_type" : "_ZTIj"
  },
  {
   "alignment" : 4,
   "enum_fields" :
   [
    {
     "enum_field_value" : 1,
     "name" : "android::internal::details::HasToStringMethod<aidl::android::hardware::bluetooth::audio::PcmConfiguration>::value"
    }
   ],
   "linker_set_key" : "_ZTIN7android8internal7details17HasToStringMethodIN4aidl7android8hardware9bluetooth5audio16PcmConfigurationEE6$valueE",
   "name" : "android::internal::details::HasToStringMethod<aidl::android::hardware::bluetooth::audio::PcmConfiguration>::(unnamed enum at frameworks/native/libs/binder/ndk/include_cpp/android/binder_to_string.h:77:5)",
   "referenced_type" : "_ZTIN7android8internal7details17HasToStringMethodIN4aidl7android8hardware9bluetooth5audio16PcmConfigurationEE6$valueE",
   "self_type" : "_ZTIN7android8internal7details17HasToStringMethodIN4aidl7android8hardware9bluetooth5audio16PcmConfigurationEE6$valueE",
   "size" : 4,
   "source_file" : "frameworks/native/libs/binder/ndk/include_cpp/android/binder_to_string.h",
   "underlying_type" : "_ZTIj"
  },
  {
   "alignment" : 4,
   "enum_fields" :
   [
    {
     "enum_field_value" : 1,
     "name" : "android::internal::details::HasToStringMethod<aidl::android::hardware::bluetooth::audio::SbcConfiguration>::value"
    }
   ],
   "linker_set_key" : "_ZTIN7android8internal7details17HasToStringMethodIN4aidl7android8hardware9bluetooth5audio16SbcConfigurationEE6$valueE",
   "name" : "android::internal::details::HasToStringMethod<aidl::android::hardware::bluetooth::audio::SbcConfiguration>::(unnamed enum at frameworks/native/libs/binder/ndk/include_cpp/android/binder_to_string.h:77:5)",
   "referenced_type" : "_ZTIN7android8internal7details17HasToStringMethodIN4aidl7android8hardware9bluetooth5audio16SbcConfigurationEE6$valueE",
   "self_type" : "_ZTIN7android8internal7details17HasToStringMethodIN4aidl7android8hardware9bluetooth5audio16SbcConfigurationEE6$valueE",
   "size" : 4,
   "source_file" : "frameworks/native/libs/binder/ndk/include_cpp/android/binder_to_string.h",
   "underlying_type" : "_ZTIj"
  },
  {
   "alignment" : 4,
   "enum_fields" :
   [
    {
     "enum_field_value" : 1,
     "name" : "android::internal::details::HasToStringMethod<aidl::android::hardware::bluetooth::audio::AptxConfiguration>::value"
    }
   ],
   "linker_set_key" : "_ZTIN7android8internal7details17HasToStringMethodIN4aidl7android8hardware9bluetooth5audio17AptxConfigurationEE6$valueE",
   "name" : "android::internal::details::HasToStringMethod<aidl::android::hardware::bluetooth::audio::AptxConfiguration>::(unnamed enum at frameworks/native/libs/binder/ndk/include_cpp/android/binder_to_string.h:77:5)",
   "referenced_type" : "_ZTIN7android8internal7details17HasToStringMethodIN4aidl7android8hardware9bluetooth5audio17AptxConfigurationEE6$valueE",
   "self_type" : "_ZTIN7android8internal7details17HasToStringMethodIN4aidl7android8hardware9bluetooth5audio17AptxConfigurationEE6$valueE",
   "size" : 4,
   "source_file" : "frameworks/native/libs/binder/ndk/include_cpp/android/binder_to_string.h",
   "underlying_type" : "_ZTIj"
  },
  {
   "alignment" : 4,
   "enum_fields" :
   [
    {
     "enum_field_value" : 1,
     "name" : "android::internal::details::HasToStringMethod<aidl::android::hardware::bluetooth::audio::AptxSinkBuffering>::value"
    }
   ],
   "linker_set_key" : "_ZTIN7android8internal7details17HasToStringMethodIN4aidl7android8hardware9bluetooth5audio17AptxSinkBufferingEE6$valueE",
   "name" : "android::internal::details::HasToStringMethod<aidl::android::hardware::bluetooth::audio::AptxSinkBuffering>::(unnamed enum at frameworks/native/libs/binder/ndk/include_cpp/android/binder_to_string.h:77:5)",
   "referenced_type" : "_ZTIN7android8internal7details17HasToStringMethodIN4aidl7android8hardware9bluetooth5audio17AptxSinkBufferingEE6$valueE",
   "self_type" : "_ZTIN7android8internal7details17HasToStringMethodIN4aidl7android8hardware9bluetooth5audio17AptxSinkBufferingEE6$valueE",
   "size" : 4,
   "source_file" : "frameworks/native/libs/binder/ndk/include_cpp/android/binder_to_string.h",
   "underlying_type" : "_ZTIj"
  },
  {
   "alignment" : 4,
   "enum_fields" :
   [
    {
     "enum_field_value" : 1,
     "name" : "android::internal::details::HasToStringMethod<aidl::android::hardware::bluetooth::audio::CodecCapabilities::Capabilities>::value"
    }
   ],
   "linker_set_key" : "_ZTIN7android8internal7details17HasToStringMethodIN4aidl7android8hardware9bluetooth5audio17CodecCapabilities12CapabilitiesEE6$valueE",
   "name" : "android::internal::details::HasToStringMethod<aidl::android::hardware::bluetooth::audio::CodecCapabilities::Capabilities>::(unnamed enum at frameworks/native/libs/binder/ndk/include_cpp/android/binder_to_string.h:77:5)",
   "referenced_type" : "_ZTIN7android8internal7details17HasToStringMethodIN4aidl7android8hardware9bluetooth5audio17CodecCapabilities12CapabilitiesEE6$valueE",
   "self_type" : "_ZTIN7android8internal7details17HasToStringMethodIN4aidl7android8hardware9bluetooth5audio17CodecCapabilities12CapabilitiesEE6$valueE",
   "size" : 4,
   "source_file" : "frameworks/native/libs/binder/ndk/include_cpp/android/binder_to_string.h",
   "underlying_type" : "_ZTIj"
  },
  {
   "alignment" : 4,
   "enum_fields" :
   [
    {
     "enum_field_value" : 1,
     "name" : "android::internal::details::HasToStringMethod<aidl::android::hardware::bluetooth::audio::CodecCapabilities::VendorCapabilities>::value"
    }
   ],
   "linker_set_key" : "_ZTIN7android8internal7details17HasToStringMethodIN4aidl7android8hardware9bluetooth5audio17CodecCapabilities18VendorCapabilitiesEE6$valueE",
   "name" : "android::internal::details::HasToStringMethod<aidl::android::hardware::bluetooth::audio::CodecCapabilities::VendorCapabilities>::(unnamed enum at frameworks/native/libs/binder/ndk/include_cpp/android/binder_to_string.h:77:5)",
   "referenced_type" : "_ZTIN7android8internal7details17HasToStringMethodIN4aidl7android8hardware9bluetooth5audio17CodecCapabilities18VendorCapabilitiesEE6$valueE",
   "self_type" : "_ZTIN7android8internal7details17HasToStringMethodIN4aidl7android8hardware9bluetooth5audio17CodecCapabilities18VendorCapabilitiesEE6$valueE",
   "size" : 4,
   "source_file" : "frameworks/native/libs/binder/ndk/include_cpp/android/binder_to_string.h",
   "underlying_type" : "_ZTIj"
  },
  {
   "alignment" : 4,
   "enum_fields" :
   [
    {
     "enum_field_value" : 1,
     "name" : "android::internal::details::HasToStringMethod<aidl::android::hardware::bluetooth::audio::CodecCapabilities>::value"
    }
   ],
   "linker_set_key" : "_ZTIN7android8internal7details17HasToStringMethodIN4aidl7android8hardware9bluetooth5audio17CodecCapabilitiesEE6$valueE",
   "name" : "android::internal::details::HasToStringMethod<aidl::android::hardware::bluetooth::audio::CodecCapabilities>::(unnamed enum at frameworks/native/libs/binder/ndk/include_cpp/android/binder_to_string.h:77:5)",
   "referenced_type" : "_ZTIN7android8internal7details17HasToStringMethodIN4aidl7android8hardware9bluetooth5audio17CodecCapabilitiesEE6$valueE",
   "self_type" : "_ZTIN7android8internal7details17HasToStringMethodIN4aidl7android8hardware9bluetooth5audio17CodecCapabilitiesEE6$valueE",
   "size" : 4,
   "source_file" : "frameworks/native/libs/binder/ndk/include_cpp/android/binder_to_string.h",
   "underlying_type" : "_ZTIj"
  },
  {
   "alignment" : 4,
   "enum_fields" :
   [
    {
     "enum_field_value" : 1,
     "name" : "android::internal::details::HasToStringMethod<aidl::android::hardware::bluetooth::audio::LdacConfiguration>::value"
    }
   ],
   "linker_set_key" : "_ZTIN7android8internal7details17HasToStringMethodIN4aidl7android8hardware9bluetooth5audio17LdacConfigurationEE6$valueE",
   "name" : "android::internal::details::HasToStringMethod<aidl::android::hardware::bluetooth::audio::LdacConfiguration>::(unnamed enum at frameworks/native/libs/binder/ndk/include_cpp/android/binder_to_string.h:77:5)",
   "referenced_type" : "_ZTIN7android8internal7details17HasToStringMethodIN4aidl7android8hardware9bluetooth5audio17LdacConfigurationEE6$valueE",
   "self_type" : "_ZTIN7android8internal7details17HasToStringMethodIN4aidl7android8hardware9bluetooth5audio17LdacConfigurationEE6$valueE",
   "size" : 4,
   "source_file" : "frameworks/native/libs/binder/ndk/include_cpp/android/binder_to_string.h",
   "underlying_type" : "_ZTIj"
  },
  {
   "alignment" : 4,
   "enum_fields" :
   [
    {
     "enum_field_value" : 1,
     "name" : "android::internal::details::HasToStringMethod<aidl::android::hardware::bluetooth::audio::OpusConfiguration>::value"
    }
   ],
   "linker_set_key" : "_ZTIN7android8internal7details17HasToStringMethodIN4aidl7android8hardware9bluetooth5audio17OpusConfigurationEE6$valueE",
   "name" : "android::internal::details::HasToStringMethod<aidl::android::hardware::bluetooth::audio::OpusConfiguration>::(unnamed enum at frameworks/native/libs/binder/ndk/include_cpp/android/binder_to_string.h:77:5)",
   "referenced_type" : "_ZTIN7android8internal7details17HasToStringMethodIN4aidl7android8hardware9bluetooth5audio17OpusConfigurationEE6$valueE",
   "self_type" : "_ZTIN7android8internal7details17HasToStringMethodIN4aidl7android8hardware9bluetooth5audio17OpusConfigurationEE6$valueE",
   "size" : 4,
   "source_file" : "frameworks/native/libs/binder/ndk/include_cpp/android/binder_to_string.h",
   "underlying_type" : "_ZTIj"
  },
  {
   "alignment" : 4,
   "enum_fields" :
   [
    {
     "enum_field_value" : 1,
     "name" : "android::internal::details::HasToStringMethod<aidl::android::hardware::bluetooth::audio::UnicastCapability::VendorCapabilities>::value"
    }
   ],
   "linker_set_key" : "_ZTIN7android8internal7details17HasToStringMethodIN4aidl7android8hardware9bluetooth5audio17UnicastCapability18VendorCapabilitiesEE6$valueE",
   "name" : "android::internal::details::HasToStringMethod<aidl::android::hardware::bluetooth::audio::UnicastCapability::VendorCapabilities>::(unnamed enum at frameworks/native/libs/binder/ndk/include_cpp/android/binder_to_string.h:77:5)",
   "referenced_type" : "_ZTIN7android8internal7details17HasToStringMethodIN4aidl7android8hardware9bluetooth5audio17UnicastCapability18VendorCapabilitiesEE6$valueE",
   "self_type" : "_ZTIN7android8internal7details17HasToStringMethodIN4aidl7android8hardware9bluetooth5audio17UnicastCapability18VendorCapabilitiesEE6$valueE",
   "size" : 4,
   "source_file" : "frameworks/native/libs/binder/ndk/include_cpp/android/binder_to_string.h",
   "underlying_type" : "_ZTIj"
  },
  {
   "alignment" : 4,
   "enum_fields" :
   [
    {
     "enum_field_value" : 1,
     "name" : "android::internal::details::HasToStringMethod<aidl::android::hardware::bluetooth::audio::UnicastCapability::LeAudioCodecCapabilities>::value"
    }
   ],
   "linker_set_key" : "_ZTIN7android8internal7details17HasToStringMethodIN4aidl7android8hardware9bluetooth5audio17UnicastCapability24LeAudioCodecCapabilitiesEE6$valueE",
   "name" : "android::internal::details::HasToStringMethod<aidl::android::hardware::bluetooth::audio::UnicastCapability::LeAudioCodecCapabilities>::(unnamed enum at frameworks/native/libs/binder/ndk/include_cpp/android/binder_to_string.h:77:5)",
   "referenced_type" : "_ZTIN7android8internal7details17HasToStringMethodIN4aidl7android8hardware9bluetooth5audio17UnicastCapability24LeAudioCodecCapabilitiesEE6$valueE",
   "self_type" : "_ZTIN7android8internal7details17HasToStringMethodIN4aidl7android8hardware9bluetooth5audio17UnicastCapability24LeAudioCodecCapabilitiesEE6$valueE",
   "size" : 4,
   "source_file" : "frameworks/native/libs/binder/ndk/include_cpp/android/binder_to_string.h",
   "underlying_type" : "_ZTIj"
  },
  {
   "alignment" : 4,
   "enum_fields" :
   [
    {
     "enum_field_value" : 1,
     "name" : "android::internal::details::HasToStringMethod<aidl::android::hardware::bluetooth::audio::UnicastCapability>::value"
    }
   ],
   "linker_set_key" : "_ZTIN7android8internal7details17HasToStringMethodIN4aidl7android8hardware9bluetooth5audio17UnicastCapabilityEE6$valueE",
   "name" : "android::internal::details::HasToStringMethod<aidl::android::hardware::bluetooth::audio::UnicastCapability>::(unnamed enum at frameworks/native/libs/binder/ndk/include_cpp/android/binder_to_string.h:77:5)",
   "referenced_type" : "_ZTIN7android8internal7details17HasToStringMethodIN4aidl7android8hardware9bluetooth5audio17UnicastCapabilityEE6$valueE",
   "self_type" : "_ZTIN7android8internal7details17HasToStringMethodIN4aidl7android8hardware9bluetooth5audio17UnicastCapabilityEE6$valueE",
   "size" : 4,
   "source_file" : "frameworks/native/libs/binder/ndk/include_cpp/android/binder_to_string.h",
   "underlying_type" : "_ZTIj"
  },
  {
   "alignment" : 4,
   "enum_fields" :
   [
    {
     "enum_field_value" : 1,
     "name" : "android::internal::details::HasToStringMethod<aidl::android::hardware::bluetooth::audio::CodecConfiguration::CodecSpecific>::value"
    }
   ],
   "linker_set_key" : "_ZTIN7android8internal7details17HasToStringMethodIN4aidl7android8hardware9bluetooth5audio18CodecConfiguration13CodecSpecificEE6$valueE",
   "name" : "android::internal::details::HasToStringMethod<aidl::android::hardware::bluetooth::audio::CodecConfiguration::CodecSpecific>::(unnamed enum at frameworks/native/libs/binder/ndk/include_cpp/android/binder_to_string.h:77:5)",
   "referenced_type" : "_ZTIN7android8internal7details17HasToStringMethodIN4aidl7android8hardware9bluetooth5audio18CodecConfiguration13CodecSpecificEE6$valueE",
   "self_type" : "_ZTIN7android8internal7details17HasToStringMethodIN4aidl7android8hardware9bluetooth5audio18CodecConfiguration13CodecSpecificEE6$valueE",
   "size" : 4,
   "source_file" : "frameworks/native/libs/binder/ndk/include_cpp/android/binder_to_string.h",
   "underlying_type" : "_ZTIj"
  },
  {
   "alignment" : 4,
   "enum_fields" :
   [
    {
     "enum_field_value" : 1,
     "name" : "android::internal::details::HasToStringMethod<aidl::android::hardware::bluetooth::audio::CodecConfiguration::VendorConfiguration>::value"
    }
   ],
   "linker_set_key" : "_ZTIN7android8internal7details17HasToStringMethodIN4aidl7android8hardware9bluetooth5audio18CodecConfiguration19VendorConfigurationEE6$valueE",
   "name" : "android::internal::details::HasToStringMethod<aidl::android::hardware::bluetooth::audio::CodecConfiguration::VendorConfiguration>::(unnamed enum at frameworks/native/libs/binder/ndk/include_cpp/android/binder_to_string.h:77:5)",
   "referenced_type" : "_ZTIN7android8internal7details17HasToStringMethodIN4aidl7android8hardware9bluetooth5audio18CodecConfiguration19VendorConfigurationEE6$valueE",
   "self_type" : "_ZTIN7android8internal7details17HasToStringMethodIN4aidl7android8hardware9bluetooth5audio18CodecConfiguration19VendorConfigurationEE6$valueE",
   "size" : 4,
   "source_file" : "frameworks/native/libs/binder/ndk/include_cpp/android/binder_to_string.h",
   "underlying_type" : "_ZTIj"
  },
  {
   "alignment" : 4,
   "enum_fields" :
   [
    {
     "enum_field_value" : 1,
     "name" : "android::internal::details::HasToStringMethod<aidl::android::hardware::bluetooth::audio::CodecConfiguration>::value"
    }
   ],
   "linker_set_key" : "_ZTIN7android8internal7details17HasToStringMethodIN4aidl7android8hardware9bluetooth5audio18CodecConfigurationEE6$valueE",
   "name" : "android::internal::details::HasToStringMethod<aidl::android::hardware::bluetooth::audio::CodecConfiguration>::(unnamed enum at frameworks/native/libs/binder/ndk/include_cpp/android/binder_to_string.h:77:5)",
   "referenced_type" : "_ZTIN7android8internal7details17HasToStringMethodIN4aidl7android8hardware9bluetooth5audio18CodecConfigurationEE6$valueE",
   "self_type" : "_ZTIN7android8internal7details17HasToStringMethodIN4aidl7android8hardware9bluetooth5audio18CodecConfigurationEE6$valueE",
   "size" : 4,
   "source_file" : "frameworks/native/libs/binder/ndk/include_cpp/android/binder_to_string.h",
   "underlying_type" : "_ZTIj"
  },
  {
   "alignment" : 4,
   "enum_fields" :
   [
    {
     "enum_field_value" : 1,
     "name" : "android::internal::details::HasToStringMethod<aidl::android::hardware::bluetooth::audio::BroadcastCapability::VendorCapabilities>::value"
    }
   ],
   "linker_set_key" : "_ZTIN7android8internal7details17HasToStringMethodIN4aidl7android8hardware9bluetooth5audio19BroadcastCapability18VendorCapabilitiesEE6$valueE",
   "name" : "android::internal::details::HasToStringMethod<aidl::android::hardware::bluetooth::audio::BroadcastCapability::VendorCapabilities>::(unnamed enum at frameworks/native/libs/binder/ndk/include_cpp/android/binder_to_string.h:77:5)",
   "referenced_type" : "_ZTIN7android8internal7details17HasToStringMethodIN4aidl7android8hardware9bluetooth5audio19BroadcastCapability18VendorCapabilitiesEE6$valueE",
   "self_type" : "_ZTIN7android8internal7details17HasToStringMethodIN4aidl7android8hardware9bluetooth5audio19BroadcastCapability18VendorCapabilitiesEE6$valueE",
   "size" : 4,
   "source_file" : "frameworks/native/libs/binder/ndk/include_cpp/android/binder_to_string.h",
   "underlying_type" : "_ZTIj"
  },
  {
   "alignment" : 4,
   "enum_fields" :
   [
    {
     "enum_field_value" : 1,
     "name" : "android::internal::details::HasToStringMethod<aidl::android::hardware::bluetooth::audio::BroadcastCapability::LeAudioCodecCapabilities>::value"
    }
   ],
   "linker_set_key" : "_ZTIN7android8internal7details17HasToStringMethodIN4aidl7android8hardware9bluetooth5audio19BroadcastCapability24LeAudioCodecCapabilitiesEE6$valueE",
   "name" : "android::internal::details::HasToStringMethod<aidl::android::hardware::bluetooth::audio::BroadcastCapability::LeAudioCodecCapabilities>::(unnamed enum at frameworks/native/libs/binder/ndk/include_cpp/android/binder_to_string.h:77:5)",
   "referenced_type" : "_ZTIN7android8internal7details17HasToStringMethodIN4aidl7android8hardware9bluetooth5audio19BroadcastCapability24LeAudioCodecCapabilitiesEE6$valueE",
   "self_type" : "_ZTIN7android8internal7details17HasToStringMethodIN4aidl7android8hardware9bluetooth5audio19BroadcastCapability24LeAudioCodecCapabilitiesEE6$valueE",
   "size" : 4,
   "source_file" : "frameworks/native/libs/binder/ndk/include_cpp/android/binder_to_string.h",
   "underlying_type" : "_ZTIj"
  },
  {
   "alignment" : 4,
   "enum_fields" :
   [
    {
     "enum_field_value" : 1,
     "name" : "android::internal::details::HasToStringMethod<aidl::android::hardware::bluetooth::audio::BroadcastCapability>::value"
    }
   ],
   "linker_set_key" : "_ZTIN7android8internal7details17HasToStringMethodIN4aidl7android8hardware9bluetooth5audio19BroadcastCapabilityEE6$valueE",
   "name" : "android::internal::details::HasToStringMethod<aidl::android::hardware::bluetooth::audio::BroadcastCapability>::(unnamed enum at frameworks/native/libs/binder/ndk/include_cpp/android/binder_to_string.h:77:5)",
   "referenced_type" : "_ZTIN7android8internal7details17HasToStringMethodIN4aidl7android8hardware9bluetooth5audio19BroadcastCapabilityEE6$valueE",
   "self_type" : "_ZTIN7android8internal7details17HasToStringMethodIN4aidl7android8hardware9bluetooth5audio19BroadcastCapabilityEE6$valueE",
   "size" : 4,
   "source_file" : "frameworks/native/libs/binder/ndk/include_cpp/android/binder_to_string.h",
   "underlying_type" : "_ZTIj"
  },
  {
   "alignment" : 4,
   "enum_fields" :
   [
    {
     "enum_field_value" : 1,
     "name" : "android::internal::details::HasToStringMethod<aidl::android::hardware::bluetooth::audio::LeAudioConfiguration::StreamMap>::value"
    }
   ],
   "linker_set_key" : "_ZTIN7android8internal7details17HasToStringMethodIN4aidl7android8hardware9bluetooth5audio20LeAudioConfiguration9StreamMapEE6$valueE",
   "name" : "android::internal::details::HasToStringMethod<aidl::android::hardware::bluetooth::audio::LeAudioConfiguration::StreamMap>::(unnamed enum at frameworks/native/libs/binder/ndk/include_cpp/android/binder_to_string.h:77:5)",
   "referenced_type" : "_ZTIN7android8internal7details17HasToStringMethodIN4aidl7android8hardware9bluetooth5audio20LeAudioConfiguration9StreamMapEE6$valueE",
   "self_type" : "_ZTIN7android8internal7details17HasToStringMethodIN4aidl7android8hardware9bluetooth5audio20LeAudioConfiguration9StreamMapEE6$valueE",
   "size" : 4,
   "source_file" : "frameworks/native/libs/binder/ndk/include_cpp/android/binder_to_string.h",
   "underlying_type" : "_ZTIj"
  },
  {
   "alignment" : 4,
   "enum_fields" :
   [
    {
     "enum_field_value" : 1,
     "name" : "android::internal::details::HasToStringMethod<aidl::android::hardware::bluetooth::audio::LeAudioConfiguration>::value"
    }
   ],
   "linker_set_key" : "_ZTIN7android8internal7details17HasToStringMethodIN4aidl7android8hardware9bluetooth5audio20LeAudioConfigurationEE6$valueE",
   "name" : "android::internal::details::HasToStringMethod<aidl::android::hardware::bluetooth::audio::LeAudioConfiguration>::(unnamed enum at frameworks/native/libs/binder/ndk/include_cpp/android/binder_to_string.h:77:5)",
   "referenced_type" : "_ZTIN7android8internal7details17HasToStringMethodIN4aidl7android8hardware9bluetooth5audio20LeAudioConfigurationEE6$valueE",
   "self_type" : "_ZTIN7android8internal7details17HasToStringMethodIN4aidl7android8hardware9bluetooth5audio20LeAudioConfigurationEE6$valueE",
   "size" : 4,
   "source_file" : "frameworks/native/libs/binder/ndk/include_cpp/android/binder_to_string.h",
   "underlying_type" : "_ZTIj"
  },
  {
   "alignment" : 4,
   "enum_fields" :
   [
    {
     "enum_field_value" : 1,
     "name" : "android::internal::details::HasToStringMethod<aidl::android::hardware::bluetooth::audio::PresentationPosition::TimeSpec>::value"
    }
   ],
   "linker_set_key" : "_ZTIN7android8internal7details17HasToStringMethodIN4aidl7android8hardware9bluetooth5audio20PresentationPosition8TimeSpecEE6$valueE",
   "name" : "android::internal::details::HasToStringMethod<aidl::android::hardware::bluetooth::audio::PresentationPosition::TimeSpec>::(unnamed enum at frameworks/native/libs/binder/ndk/include_cpp/android/binder_to_string.h:77:5)",
   "referenced_type" : "_ZTIN7android8internal7details17HasToStringMethodIN4aidl7android8hardware9bluetooth5audio20PresentationPosition8TimeSpecEE6$valueE",
   "self_type" : "_ZTIN7android8internal7details17HasToStringMethodIN4aidl7android8hardware9bluetooth5audio20PresentationPosition8TimeSpecEE6$valueE",
   "size" : 4,
   "source_file" : "frameworks/native/libs/binder/ndk/include_cpp/android/binder_to_string.h",
   "underlying_type" : "_ZTIj"
  },
  {
   "alignment" : 4,
   "enum_fields" :
   [
    {
     "enum_field_value" : 0,
     "name" : "android::internal::details::HasToStringMethod<aidl::android::hardware::bluetooth::audio::AptxAdaptiveInputMode>::value"
    }
   ],
   "linker_set_key" : "_ZTIN7android8internal7details17HasToStringMethodIN4aidl7android8hardware9bluetooth5audio21AptxAdaptiveInputModeEE6$valueE",
   "name" : "android::internal::details::HasToStringMethod<aidl::android::hardware::bluetooth::audio::AptxAdaptiveInputMode>::(unnamed enum at frameworks/native/libs/binder/ndk/include_cpp/android/binder_to_string.h:77:5)",
   "referenced_type" : "_ZTIN7android8internal7details17HasToStringMethodIN4aidl7android8hardware9bluetooth5audio21AptxAdaptiveInputModeEE6$valueE",
   "self_type" : "_ZTIN7android8internal7details17HasToStringMethodIN4aidl7android8hardware9bluetooth5audio21AptxAdaptiveInputModeEE6$valueE",
   "size" : 4,
   "source_file" : "frameworks/native/libs/binder/ndk/include_cpp/android/binder_to_string.h",
   "underlying_type" : "_ZTIj"
  },
  {
   "alignment" : 4,
   "enum_fields" :
   [
    {
     "enum_field_value" : 1,
     "name" : "android::internal::details::HasToStringMethod<aidl::android::hardware::bluetooth::audio::AptxAdaptiveTimeToPlay>::value"
    }
   ],
   "linker_set_key" : "_ZTIN7android8internal7details17HasToStringMethodIN4aidl7android8hardware9bluetooth5audio22AptxAdaptiveTimeToPlayEE6$valueE",
   "name" : "android::internal::details::HasToStringMethod<aidl::android::hardware::bluetooth::audio::AptxAdaptiveTimeToPlay>::(unnamed enum at frameworks/native/libs/binder/ndk/include_cpp/android/binder_to_string.h:77:5)",
   "referenced_type" : "_ZTIN7android8internal7details17HasToStringMethodIN4aidl7android8hardware9bluetooth5audio22AptxAdaptiveTimeToPlayEE6$valueE",
   "self_type" : "_ZTIN7android8internal7details17HasToStringMethodIN4aidl7android8hardware9bluetooth5audio22AptxAdaptiveTimeToPlayEE6$valueE",
   "size" : 4,
   "source_file" : "frameworks/native/libs/binder/ndk/include_cpp/android/binder_to_string.h",
   "underlying_type" : "_ZTIj"
  },
  {
   "alignment" : 4,
   "enum_fields" :
   [
    {
     "enum_field_value" : 0,
     "name" : "android::internal::details::HasToStringMethod<aidl::android::hardware::bluetooth::audio::AptxAdaptiveChannelMode>::value"
    }
   ],
   "linker_set_key" : "_ZTIN7android8internal7details17HasToStringMethodIN4aidl7android8hardware9bluetooth5audio23AptxAdaptiveChannelModeEE6$valueE",
   "name" : "android::internal::details::HasToStringMethod<aidl::android::hardware::bluetooth::audio::AptxAdaptiveChannelMode>::(unnamed enum at frameworks/native/libs/binder/ndk/include_cpp/android/binder_to_string.h:77:5)",
   "referenced_type" : "_ZTIN7android8internal7details17HasToStringMethodIN4aidl7android8hardware9bluetooth5audio23AptxAdaptiveChannelModeEE6$valueE",
   "self_type" : "_ZTIN7android8internal7details17HasToStringMethodIN4aidl7android8hardware9bluetooth5audio23AptxAdaptiveChannelModeEE6$valueE",
   "size" : 4,
   "source_file" : "frameworks/native/libs/binder/ndk/include_cpp/android/binder_to_string.h",
   "underlying_type" : "_ZTIj"
  },
  {
   "alignment" : 4,
   "enum_fields" :
   [
    {
     "enum_field_value" : 1,
     "name" : "android::internal::details::HasToStringMethod<aidl::android::hardware::bluetooth::audio::AptxAdaptiveCapabilities>::value"
    }
   ],
   "linker_set_key" : "_ZTIN7android8internal7details17HasToStringMethodIN4aidl7android8hardware9bluetooth5audio24AptxAdaptiveCapabilitiesEE6$valueE",
   "name" : "android::internal::details::HasToStringMethod<aidl::android::hardware::bluetooth::audio::AptxAdaptiveCapabilities>::(unnamed enum at frameworks/native/libs/binder/ndk/include_cpp/android/binder_to_string.h:77:5)",
   "referenced_type" : "_ZTIN7android8internal7details17HasToStringMethodIN4aidl7android8hardware9bluetooth5audio24AptxAdaptiveCapabilitiesEE6$valueE",
   "self_type" : "_ZTIN7android8internal7details17HasToStringMethodIN4aidl7android8hardware9bluetooth5audio24AptxAdaptiveCapabilitiesEE6$valueE",
   "size" : 4,
   "source_file" : "frameworks/native/libs/binder/ndk/include_cpp/android/binder_to_string.h",
   "underlying_type" : "_ZTIj"
  },
  {
   "alignment" : 4,
   "enum_fields" :
   [
    {
     "enum_field_value" : 1,
     "name" : "android::internal::details::HasToStringMethod<aidl::android::hardware::bluetooth::audio::AptxAdaptiveConfiguration>::value"
    }
   ],
   "linker_set_key" : "_ZTIN7android8internal7details17HasToStringMethodIN4aidl7android8hardware9bluetooth5audio25AptxAdaptiveConfigurationEE6$valueE",
   "name" : "android::internal::details::HasToStringMethod<aidl::android::hardware::bluetooth::audio::AptxAdaptiveConfiguration>::(unnamed enum at frameworks/native/libs/binder/ndk/include_cpp/android/binder_to_string.h:77:5)",
   "referenced_type" : "_ZTIN7android8internal7details17HasToStringMethodIN4aidl7android8hardware9bluetooth5audio25AptxAdaptiveConfigurationEE6$valueE",
   "self_type" : "_ZTIN7android8internal7details17HasToStringMethodIN4aidl7android8hardware9bluetooth5audio25AptxAdaptiveConfigurationEE6$valueE",
   "size" : 4,
   "source_file" : "frameworks/native/libs/binder/ndk/include_cpp/android/binder_to_string.h",
   "underlying_type" : "_ZTIj"
  },
  {
   "alignment" : 4,
   "enum_fields" :
   [
    {
     "enum_field_value" : 1,
     "name" : "android::internal::details::HasToStringMethod<aidl::android::hardware::bluetooth::audio::LeAudioCodecConfiguration::VendorConfiguration>::value"
    }
   ],
   "linker_set_key" : "_ZTIN7android8internal7details17HasToStringMethodIN4aidl7android8hardware9bluetooth5audio25LeAudioCodecConfiguration19VendorConfigurationEE6$valueE",
   "name" : "android::internal::details::HasToStringMethod<aidl::android::hardware::bluetooth::audio::LeAudioCodecConfiguration::VendorConfiguration>::(unnamed enum at frameworks/native/libs/binder/ndk/include_cpp/android/binder_to_string.h:77:5)",
   "referenced_type" : "_ZTIN7android8internal7details17HasToStringMethodIN4aidl7android8hardware9bluetooth5audio25LeAudioCodecConfiguration19VendorConfigurationEE6$valueE",
   "self_type" : "_ZTIN7android8internal7details17HasToStringMethodIN4aidl7android8hardware9bluetooth5audio25LeAudioCodecConfiguration19VendorConfigurationEE6$valueE",
   "size" : 4,
   "source_file" : "frameworks/native/libs/binder/ndk/include_cpp/android/binder_to_string.h",
   "underlying_type" : "_ZTIj"
  },
  {
   "alignment" : 4,
   "enum_fields" :
   [
    {
     "enum_field_value" : 1,
     "name" : "android::internal::details::HasToStringMethod<aidl::android::hardware::bluetooth::audio::LeAudioCodecConfiguration>::value"
    }
   ],
   "linker_set_key" : "_ZTIN7android8internal7details17HasToStringMethodIN4aidl7android8hardware9bluetooth5audio25LeAudioCodecConfigurationEE6$valueE",
   "name" : "android::internal::details::HasToStringMethod<aidl::android::hardware::bluetooth::audio::LeAudioCodecConfiguration>::(unnamed enum at frameworks/native/libs/binder/ndk/include_cpp/android/binder_to_string.h:77:5)",
   "referenced_type" : "_ZTIN7android8internal7details17HasToStringMethodIN4aidl7android8hardware9bluetooth5audio25LeAudioCodecConfigurationEE6$valueE",
   "self_type" : "_ZTIN7android8internal7details17HasToStringMethodIN4aidl7android8hardware9bluetooth5audio25LeAudioCodecConfigurationEE6$valueE",
   "size" : 4,
   "source_file" : "frameworks/native/libs/binder/ndk/include_cpp/android/binder_to_string.h",
   "underlying_type" : "_ZTIj"
  },
  {
   "alignment" : 4,
   "enum_fields" :
   [
    {
     "enum_field_value" : 1,
     "name" : "android::internal::details::HasToStringMethod<aidl::android::hardware::bluetooth::audio::LeAudioBroadcastConfiguration::BroadcastStreamMap>::value"
    }
   ],
   "linker_set_key" : "_ZTIN7android8internal7details17HasToStringMethodIN4aidl7android8hardware9bluetooth5audio29LeAudioBroadcastConfiguration18BroadcastStreamMapEE6$valueE",
   "name" : "android::internal::details::HasToStringMethod<aidl::android::hardware::bluetooth::audio::LeAudioBroadcastConfiguration::BroadcastStreamMap>::(unnamed enum at frameworks/native/libs/binder/ndk/include_cpp/android/binder_to_string.h:77:5)",
   "referenced_type" : "_ZTIN7android8internal7details17HasToStringMethodIN4aidl7android8hardware9bluetooth5audio29LeAudioBroadcastConfiguration18BroadcastStreamMapEE6$valueE",
   "self_type" : "_ZTIN7android8internal7details17HasToStringMethodIN4aidl7android8hardware9bluetooth5audio29LeAudioBroadcastConfiguration18BroadcastStreamMapEE6$valueE",
   "size" : 4,
   "source_file" : "frameworks/native/libs/binder/ndk/include_cpp/android/binder_to_string.h",
   "underlying_type" : "_ZTIj"
  },
  {
   "alignment" : 4,
   "enum_fields" :
   [
    {
     "enum_field_value" : 1,
     "name" : "android::internal::details::HasToStringMethod<aidl::android::hardware::bluetooth::audio::LeAudioBroadcastConfiguration>::value"
    }
   ],
   "linker_set_key" : "_ZTIN7android8internal7details17HasToStringMethodIN4aidl7android8hardware9bluetooth5audio29LeAudioBroadcastConfigurationEE6$valueE",
   "name" : "android::internal::details::HasToStringMethod<aidl::android::hardware::bluetooth::audio::LeAudioBroadcastConfiguration>::(unnamed enum at frameworks/native/libs/binder/ndk/include_cpp/android/binder_to_string.h:77:5)",
   "referenced_type" : "_ZTIN7android8internal7details17HasToStringMethodIN4aidl7android8hardware9bluetooth5audio29LeAudioBroadcastConfigurationEE6$valueE",
   "self_type" : "_ZTIN7android8internal7details17HasToStringMethodIN4aidl7android8hardware9bluetooth5audio29LeAudioBroadcastConfigurationEE6$valueE",
   "size" : 4,
   "source_file" : "frameworks/native/libs/binder/ndk/include_cpp/android/binder_to_string.h",
   "underlying_type" : "_ZTIj"
  },
  {
   "alignment" : 4,
   "enum_fields" :
   [
    {
     "enum_field_value" : 1,
     "name" : "android::internal::details::HasToStringMethod<aidl::android::hardware::bluetooth::audio::LeAudioCodecCapabilitiesSetting>::value"
    }
   ],
   "linker_set_key" : "_ZTIN7android8internal7details17HasToStringMethodIN4aidl7android8hardware9bluetooth5audio31LeAudioCodecCapabilitiesSettingEE6$valueE",
   "name" : "android::internal::details::HasToStringMethod<aidl::android::hardware::bluetooth::audio::LeAudioCodecCapabilitiesSetting>::(unnamed enum at frameworks/native/libs/binder/ndk/include_cpp/android/binder_to_string.h:77:5)",
   "referenced_type" : "_ZTIN7android8internal7details17HasToStringMethodIN4aidl7android8hardware9bluetooth5audio31LeAudioCodecCapabilitiesSettingEE6$valueE",
   "self_type" : "_ZTIN7android8internal7details17HasToStringMethodIN4aidl7android8hardware9bluetooth5audio31LeAudioCodecCapabilitiesSettingEE6$valueE",
   "size" : 4,
   "source_file" : "frameworks/native/libs/binder/ndk/include_cpp/android/binder_to_string.h",
   "underlying_type" : "_ZTIj"
  },
  {
   "alignment" : 4,
   "enum_fields" :
   [
    {
     "enum_field_value" : 0,
     "name" : "android::internal::details::HasToStringMethod<aidl::android::hardware::bluetooth::audio::AptxMode>::value"
    }
   ],
   "linker_set_key" : "_ZTIN7android8internal7details17HasToStringMethodIN4aidl7android8hardware9bluetooth5audio8AptxModeEE6$valueE",
   "name" : "android::internal::details::HasToStringMethod<aidl::android::hardware::bluetooth::audio::AptxMode>::(unnamed enum at frameworks/native/libs/binder/ndk/include_cpp/android/binder_to_string.h:77:5)",
   "referenced_type" : "_ZTIN7android8internal7details17HasToStringMethodIN4aidl7android8hardware9bluetooth5audio8AptxModeEE6$valueE",
   "self_type" : "_ZTIN7android8internal7details17HasToStringMethodIN4aidl7android8hardware9bluetooth5audio8AptxModeEE6$valueE",
   "size" : 4,
   "source_file" : "frameworks/native/libs/binder/ndk/include_cpp/android/binder_to_string.h",
   "underlying_type" : "_ZTIj"
  },
  {
   "alignment" : 4,
   "enum_fields" :
   [
    {
     "enum_field_value" : 0,
     "name" : "android::internal::details::HasToStringMethod<aidl::android::hardware::bluetooth::audio::CodecType>::value"
    }
   ],
   "linker_set_key" : "_ZTIN7android8internal7details17HasToStringMethodIN4aidl7android8hardware9bluetooth5audio9CodecTypeEE6$valueE",
   "name" : "android::internal::details::HasToStringMethod<aidl::android::hardware::bluetooth::audio::CodecType>::(unnamed enum at frameworks/native/libs/binder/ndk/include_cpp/android/binder_to_string.h:77:5)",
   "referenced_type" : "_ZTIN7android8internal7details17HasToStringMethodIN4aidl7android8hardware9bluetooth5audio9CodecTypeEE6$valueE",
   "self_type" : "_ZTIN7android8internal7details17HasToStringMethodIN4aidl7android8hardware9bluetooth5audio9CodecTypeEE6$valueE",
   "size" : 4,
   "source_file" : "frameworks/native/libs/binder/ndk/include_cpp/android/binder_to_string.h",
   "underlying_type" : "_ZTIj"
  },
  {
   "alignment" : 4,
   "enum_fields" :
   [
    {
     "enum_field_value" : 0,
     "name" : "android::internal::details::HasToStringMethod<std::vector<ndk::ScopedFileDescriptor>>::value"
    }
   ],
   "linker_set_key" : "_ZTIN7android8internal7details17HasToStringMethodINSt3__16vectorIN3ndk20ScopedFileDescriptorENS3_9allocatorIS6_EEEEE6$valueE",
   "name" : "android::internal::details::HasToStringMethod<std::vector<ndk::ScopedFileDescriptor, std::allocator<ndk::ScopedFileDescriptor>>>::(unnamed enum at frameworks/native/libs/binder/ndk/include_cpp/android/binder_to_string.h:77:5)",
   "referenced_type" : "_ZTIN7android8internal7details17HasToStringMethodINSt3__16vectorIN3ndk20ScopedFileDescriptorENS3_9allocatorIS6_EEEEE6$valueE",
   "self_type" : "_ZTIN7android8internal7details17HasToStringMethodINSt3__16vectorIN3ndk20ScopedFileDescriptorENS3_9allocatorIS6_EEEEE6$valueE",
   "size" : 4,
   "source_file" : "frameworks/native/libs/binder/ndk/include_cpp/android/binder_to_string.h",
   "underlying_type" : "_ZTIj"
  },
  {
   "alignment" : 4,
   "enum_fields" :
   [
    {
     "enum_field_value" : 0,
     "name" : "android::internal::details::HasToStringMethod<std::vector<aidl::android::hardware::audio::common::RecordTrackMetadata>>::value"
    }
   ],
   "linker_set_key" : "_ZTIN7android8internal7details17HasToStringMethodINSt3__16vectorIN4aidl7android8hardware5audio6common19RecordTrackMetadataENS3_9allocatorISA_EEEEE6$valueE",
   "name" : "android::internal::details::HasToStringMethod<std::vector<aidl::android::hardware::audio::common::RecordTrackMetadata, std::allocator<aidl::android::hardware::audio::common::RecordTrackMetadata>>>::(unnamed enum at frameworks/native/libs/binder/ndk/include_cpp/android/binder_to_string.h:77:5)",
   "referenced_type" : "_ZTIN7android8internal7details17HasToStringMethodINSt3__16vectorIN4aidl7android8hardware5audio6common19RecordTrackMetadataENS3_9allocatorISA_EEEEE6$valueE",
   "self_type" : "_ZTIN7android8internal7details17HasToStringMethodINSt3__16vectorIN4aidl7android8hardware5audio6common19RecordTrackMetadataENS3_9allocatorISA_EEEEE6$valueE",
   "size" : 4,
   "source_file" : "frameworks/native/libs/binder/ndk/include_cpp/android/binder_to_string.h",
   "underlying_type" : "_ZTIj"
  },
  {
   "alignment" : 4,
   "enum_fields" :
   [
    {
     "enum_field_value" : 0,
     "name" : "android::internal::details::HasToStringMethod<std::vector<aidl::android::hardware::audio::common::PlaybackTrackMetadata>>::value"
    }
   ],
   "linker_set_key" : "_ZTIN7android8internal7details17HasToStringMethodINSt3__16vectorIN4aidl7android8hardware5audio6common21PlaybackTrackMetadataENS3_9allocatorISA_EEEEE6$valueE",
   "name" : "android::internal::details::HasToStringMethod<std::vector<aidl::android::hardware::audio::common::PlaybackTrackMetadata, std::allocator<aidl::android::hardware::audio::common::PlaybackTrackMetadata>>>::(unnamed enum at frameworks/native/libs/binder/ndk/include_cpp/android/binder_to_string.h:77:5)",
   "referenced_type" : "_ZTIN7android8internal7details17HasToStringMethodINSt3__16vectorIN4aidl7android8hardware5audio6common21PlaybackTrackMetadataENS3_9allocatorISA_EEEEE6$valueE",
   "self_type" : "_ZTIN7android8internal7details17HasToStringMethodINSt3__16vectorIN4aidl7android8hardware5audio6common21PlaybackTrackMetadataENS3_9allocatorISA_EEEEE6$valueE",
   "size" : 4,
   "source_file" : "frameworks/native/libs/binder/ndk/include_cpp/android/binder_to_string.h",
   "underlying_type" : "_ZTIj"
  },
  {
   "alignment" : 4,
   "enum_fields" :
   [
    {
     "enum_field_value" : 0,
     "name" : "android::internal::details::HasToStringMethod<std::vector<aidl::android::hardware::bluetooth::audio::ChannelMode>>::value"
    }
   ],
   "linker_set_key" : "_ZTIN7android8internal7details17HasToStringMethodINSt3__16vectorIN4aidl7android8hardware9bluetooth5audio11ChannelModeENS3_9allocatorISA_EEEEE6$valueE",
   "name" : "android::internal::details::HasToStringMethod<std::vector<aidl::android::hardware::bluetooth::audio::ChannelMode, std::allocator<aidl::android::hardware::bluetooth::audio::ChannelMode>>>::(unnamed enum at frameworks/native/libs/binder/ndk/include_cpp/android/binder_to_string.h:77:5)",
   "referenced_type" : "_ZTIN7android8internal7details17HasToStringMethodINSt3__16vectorIN4aidl7android8hardware9bluetooth5audio11ChannelModeENS3_9allocatorISA_EEEEE6$valueE",
   "self_type" : "_ZTIN7android8internal7details17HasToStringMethodINSt3__16vectorIN4aidl7android8hardware9bluetooth5audio11ChannelModeENS3_9allocatorISA_EEEEE6$valueE",
   "size" : 4,
   "source_file" : "frameworks/native/libs/binder/ndk/include_cpp/android/binder_to_string.h",
   "underlying_type" : "_ZTIj"
  },
  {
   "alignment" : 4,
   "enum_fields" :
   [
    {
     "enum_field_value" : 0,
     "name" : "android::internal::details::HasToStringMethod<std::vector<aidl::android::hardware::bluetooth::audio::AacObjectType>>::value"
    }
   ],
   "linker_set_key" : "_ZTIN7android8internal7details17HasToStringMethodINSt3__16vectorIN4aidl7android8hardware9bluetooth5audio13AacObjectTypeENS3_9allocatorISA_EEEEE6$valueE",
   "name" : "android::internal::details::HasToStringMethod<std::vector<aidl::android::hardware::bluetooth::audio::AacObjectType, std::allocator<aidl::android::hardware::bluetooth::audio::AacObjectType>>>::(unnamed enum at frameworks/native/libs/binder/ndk/include_cpp/android/binder_to_string.h:77:5)",
   "referenced_type" : "_ZTIN7android8internal7details17HasToStringMethodINSt3__16vectorIN4aidl7android8hardware9bluetooth5audio13AacObjectTypeENS3_9allocatorISA_EEEEE6$valueE",
   "self_type" : "_ZTIN7android8internal7details17HasToStringMethodINSt3__16vectorIN4aidl7android8hardware9bluetooth5audio13AacObjectTypeENS3_9allocatorISA_EEEEE6$valueE",
   "size" : 4,
   "source_file" : "frameworks/native/libs/binder/ndk/include_cpp/android/binder_to_string.h",
   "underlying_type" : "_ZTIj"
  },
  {
   "alignment" : 4,
   "enum_fields" :
   [
    {
     "enum_field_value" : 0,
     "name" : "android::internal::details::HasToStringMethod<std::vector<aidl::android::hardware::bluetooth::audio::SbcAllocMethod>>::value"
    }
   ],
   "linker_set_key" : "_ZTIN7android8internal7details17HasToStringMethodINSt3__16vectorIN4aidl7android8hardware9bluetooth5audio14SbcAllocMethodENS3_9allocatorISA_EEEEE6$valueE",
   "name" : "android::internal::details::HasToStringMethod<std::vector<aidl::android::hardware::bluetooth::audio::SbcAllocMethod, std::allocator<aidl::android::hardware::bluetooth::audio::SbcAllocMethod>>>::(unnamed enum at frameworks/native/libs/binder/ndk/include_cpp/android/binder_to_string.h:77:5)",
   "referenced_type" : "_ZTIN7android8internal7details17HasToStringMethodINSt3__16vectorIN4aidl7android8hardware9bluetooth5audio14SbcAllocMethodENS3_9allocatorISA_EEEEE6$valueE",
   "self_type" : "_ZTIN7android8internal7details17HasToStringMethodINSt3__16vectorIN4aidl7android8hardware9bluetooth5audio14SbcAllocMethodENS3_9allocatorISA_EEEEE6$valueE",
   "size" : 4,
   "source_file" : "frameworks/native/libs/binder/ndk/include_cpp/android/binder_to_string.h",
   "underlying_type" : "_ZTIj"
  },
  {
   "alignment" : 4,
   "enum_fields" :
   [
    {
     "enum_field_value" : 0,
     "name" : "android::internal::details::HasToStringMethod<std::vector<aidl::android::hardware::bluetooth::audio::SbcChannelMode>>::value"
    }
   ],
   "linker_set_key" : "_ZTIN7android8internal7details17HasToStringMethodINSt3__16vectorIN4aidl7android8hardware9bluetooth5audio14SbcChannelModeENS3_9allocatorISA_EEEEE6$valueE",
   "name" : "android::internal::details::HasToStringMethod<std::vector<aidl::android::hardware::bluetooth::audio::SbcChannelMode, std::allocator<aidl::android::hardware::bluetooth::audio::SbcChannelMode>>>::(unnamed enum at frameworks/native/libs/binder/ndk/include_cpp/android/binder_to_string.h:77:5)",
   "referenced_type" : "_ZTIN7android8internal7details17HasToStringMethodINSt3__16vectorIN4aidl7android8hardware9bluetooth5audio14SbcChannelModeENS3_9allocatorISA_EEEEE6$valueE",
   "self_type" : "_ZTIN7android8internal7details17HasToStringMethodINSt3__16vectorIN4aidl7android8hardware9bluetooth5audio14SbcChannelModeENS3_9allocatorISA_EEEEE6$valueE",
   "size" : 4,
   "source_file" : "frameworks/native/libs/binder/ndk/include_cpp/android/binder_to_string.h",
   "underlying_type" : "_ZTIj"
  },
  {
   "alignment" : 4,
   "enum_fields" :
   [
    {
     "enum_field_value" : 0,
     "name" : "android::internal::details::HasToStringMethod<std::vector<aidl::android::hardware::bluetooth::audio::LdacChannelMode>>::value"
    }
   ],
   "linker_set_key" : "_ZTIN7android8internal7details17HasToStringMethodINSt3__16vectorIN4aidl7android8hardware9bluetooth5audio15LdacChannelModeENS3_9allocatorISA_EEEEE6$valueE",
   "name" : "android::internal::details::HasToStringMethod<std::vector<aidl::android::hardware::bluetooth::audio::LdacChannelMode, std::allocator<aidl::android::hardware::bluetooth::audio::LdacChannelMode>>>::(unnamed enum at frameworks/native/libs/binder/ndk/include_cpp/android/binder_to_string.h:77:5)",
   "referenced_type" : "_ZTIN7android8internal7details17HasToStringMethodINSt3__16vectorIN4aidl7android8hardware9bluetooth5audio15LdacChannelModeENS3_9allocatorISA_EEEEE6$valueE",
   "self_type" : "_ZTIN7android8internal7details17HasToStringMethodINSt3__16vectorIN4aidl7android8hardware9bluetooth5audio15LdacChannelModeENS3_9allocatorISA_EEEEE6$valueE",
   "size" : 4,
   "source_file" : "frameworks/native/libs/binder/ndk/include_cpp/android/binder_to_string.h",
   "underlying_type" : "_ZTIj"
  },
  {
   "alignment" : 4,
   "enum_fields" :
   [
    {
     "enum_field_value" : 0,
     "name" : "android::internal::details::HasToStringMethod<std::vector<aidl::android::hardware::bluetooth::audio::LdacQualityIndex>>::value"
    }
   ],
   "linker_set_key" : "_ZTIN7android8internal7details17HasToStringMethodINSt3__16vectorIN4aidl7android8hardware9bluetooth5audio16LdacQualityIndexENS3_9allocatorISA_EEEEE6$valueE",
   "name" : "android::internal::details::HasToStringMethod<std::vector<aidl::android::hardware::bluetooth::audio::LdacQualityIndex, std::allocator<aidl::android::hardware::bluetooth::audio::LdacQualityIndex>>>::(unnamed enum at frameworks/native/libs/binder/ndk/include_cpp/android/binder_to_string.h:77:5)",
   "referenced_type" : "_ZTIN7android8internal7details17HasToStringMethodINSt3__16vectorIN4aidl7android8hardware9bluetooth5audio16LdacQualityIndexENS3_9allocatorISA_EEEEE6$valueE",
   "self_type" : "_ZTIN7android8internal7details17HasToStringMethodINSt3__16vectorIN4aidl7android8hardware9bluetooth5audio16LdacQualityIndexENS3_9allocatorISA_EEEEE6$valueE",
   "size" : 4,
   "source_file" : "frameworks/native/libs/binder/ndk/include_cpp/android/binder_to_string.h",
   "underlying_type" : "_ZTIj"
  },
  {
   "alignment" : 4,
   "enum_fields" :
   [
    {
     "enum_field_value" : 0,
     "name" : "android::internal::details::HasToStringMethod<std::vector<aidl::android::hardware::bluetooth::audio::LeAudioConfiguration::StreamMap>>::value"
    }
   ],
   "linker_set_key" : "_ZTIN7android8internal7details17HasToStringMethodINSt3__16vectorIN4aidl7android8hardware9bluetooth5audio20LeAudioConfiguration9StreamMapENS3_9allocatorISB_EEEEE6$valueE",
   "name" : "android::internal::details::HasToStringMethod<std::vector<aidl::android::hardware::bluetooth::audio::LeAudioConfiguration::StreamMap, std::allocator<aidl::android::hardware::bluetooth::audio::LeAudioConfiguration::StreamMap>>>::(unnamed enum at frameworks/native/libs/binder/ndk/include_cpp/android/binder_to_string.h:77:5)",
   "referenced_type" : "_ZTIN7android8internal7details17HasToStringMethodINSt3__16vectorIN4aidl7android8hardware9bluetooth5audio20LeAudioConfiguration9StreamMapENS3_9allocatorISB_EEEEE6$valueE",
   "self_type" : "_ZTIN7android8internal7details17HasToStringMethodINSt3__16vectorIN4aidl7android8hardware9bluetooth5audio20LeAudioConfiguration9StreamMapENS3_9allocatorISB_EEEEE6$valueE",
   "size" : 4,
   "source_file" : "frameworks/native/libs/binder/ndk/include_cpp/android/binder_to_string.h",
   "underlying_type" : "_ZTIj"
  },
  {
   "alignment" : 4,
   "enum_fields" :
   [
    {
     "enum_field_value" : 0,
     "name" : "android::internal::details::HasToStringMethod<std::vector<aidl::android::hardware::bluetooth::audio::AptxAdaptiveChannelMode>>::value"
    }
   ],
   "linker_set_key" : "_ZTIN7android8internal7details17HasToStringMethodINSt3__16vectorIN4aidl7android8hardware9bluetooth5audio23AptxAdaptiveChannelModeENS3_9allocatorISA_EEEEE6$valueE",
   "name" : "android::internal::details::HasToStringMethod<std::vector<aidl::android::hardware::bluetooth::audio::AptxAdaptiveChannelMode, std::allocator<aidl::android::hardware::bluetooth::audio::AptxAdaptiveChannelMode>>>::(unnamed enum at frameworks/native/libs/binder/ndk/include_cpp/android/binder_to_string.h:77:5)",
   "referenced_type" : "_ZTIN7android8internal7details17HasToStringMethodINSt3__16vectorIN4aidl7android8hardware9bluetooth5audio23AptxAdaptiveChannelModeENS3_9allocatorISA_EEEEE6$valueE",
   "self_type" : "_ZTIN7android8internal7details17HasToStringMethodINSt3__16vectorIN4aidl7android8hardware9bluetooth5audio23AptxAdaptiveChannelModeENS3_9allocatorISA_EEEEE6$valueE",
   "size" : 4,
   "source_file" : "frameworks/native/libs/binder/ndk/include_cpp/android/binder_to_string.h",
   "underlying_type" : "_ZTIj"
  },
  {
   "alignment" : 4,
   "enum_fields" :
   [
    {
     "enum_field_value" : 0,
     "name" : "android::internal::details::HasToStringMethod<std::vector<aidl::android::hardware::bluetooth::audio::LeAudioBroadcastConfiguration::BroadcastStreamMap>>::value"
    }
   ],
   "linker_set_key" : "_ZTIN7android8internal7details17HasToStringMethodINSt3__16vectorIN4aidl7android8hardware9bluetooth5audio29LeAudioBroadcastConfiguration18BroadcastStreamMapENS3_9allocatorISB_EEEEE6$valueE",
   "name" : "android::internal::details::HasToStringMethod<std::vector<aidl::android::hardware::bluetooth::audio::LeAudioBroadcastConfiguration::BroadcastStreamMap, std::allocator<aidl::android::hardware::bluetooth::audio::LeAudioBroadcastConfiguration::BroadcastStreamMap>>>::(unnamed enum at frameworks/native/libs/binder/ndk/include_cpp/android/binder_to_string.h:77:5)",
   "referenced_type" : "_ZTIN7android8internal7details17HasToStringMethodINSt3__16vectorIN4aidl7android8hardware9bluetooth5audio29LeAudioBroadcastConfiguration18BroadcastStreamMapENS3_9allocatorISB_EEEEE6$valueE",
   "self_type" : "_ZTIN7android8internal7details17HasToStringMethodINSt3__16vectorIN4aidl7android8hardware9bluetooth5audio29LeAudioBroadcastConfiguration18BroadcastStreamMapENS3_9allocatorISB_EEEEE6$valueE",
   "size" : 4,
   "source_file" : "frameworks/native/libs/binder/ndk/include_cpp/android/binder_to_string.h",
   "underlying_type" : "_ZTIj"
  },
  {
   "alignment" : 4,
   "enum_fields" :
   [
    {
     "enum_field_value" : 0,
     "name" : "android::internal::details::HasToStringMethod<std::vector<aidl::android::hardware::bluetooth::audio::AptxMode>>::value"
    }
   ],
   "linker_set_key" : "_ZTIN7android8internal7details17HasToStringMethodINSt3__16vectorIN4aidl7android8hardware9bluetooth5audio8AptxModeENS3_9allocatorISA_EEEEE6$valueE",
   "name" : "android::internal::details::HasToStringMethod<std::vector<aidl::android::hardware::bluetooth::audio::AptxMode, std::allocator<aidl::android::hardware::bluetooth::audio::AptxMode>>>::(unnamed enum at frameworks/native/libs/binder/ndk/include_cpp/android/binder_to_string.h:77:5)",
   "referenced_type" : "_ZTIN7android8internal7details17HasToStringMethodINSt3__16vectorIN4aidl7android8hardware9bluetooth5audio8AptxModeENS3_9allocatorISA_EEEEE6$valueE",
   "self_type" : "_ZTIN7android8internal7details17HasToStringMethodINSt3__16vectorIN4aidl7android8hardware9bluetooth5audio8AptxModeENS3_9allocatorISA_EEEEE6$valueE",
   "size" : 4,
   "source_file" : "frameworks/native/libs/binder/ndk/include_cpp/android/binder_to_string.h",
   "underlying_type" : "_ZTIj"
  },
  {
   "alignment" : 4,
   "enum_fields" :
   [
    {
     "enum_field_value" : 0,
     "name" : "android::internal::details::HasToStringMethod<std::vector<std::basic_string<char>>>::value"
    }
   ],
   "linker_set_key" : "_ZTIN7android8internal7details17HasToStringMethodINSt3__16vectorINS3_12basic_stringIcNS3_11char_traitsIcEENS3_9allocatorIcEEEENS8_ISA_EEEEE6$valueE",
   "name" : "android::internal::details::HasToStringMethod<std::vector<std::basic_string<char, std::char_traits<char>, std::allocator<char>>, std::allocator<std::basic_string<char, std::char_traits<char>, std::allocator<char>>>>>::(unnamed enum at frameworks/native/libs/binder/ndk/include_cpp/android/binder_to_string.h:77:5)",
   "referenced_type" : "_ZTIN7android8internal7details17HasToStringMethodINSt3__16vectorINS3_12basic_stringIcNS3_11char_traitsIcEENS3_9allocatorIcEEEENS8_ISA_EEEEE6$valueE",
   "self_type" : "_ZTIN7android8internal7details17HasToStringMethodINSt3__16vectorINS3_12basic_stringIcNS3_11char_traitsIcEENS3_9allocatorIcEEEENS8_ISA_EEEEE6$valueE",
   "size" : 4,
   "source_file" : "frameworks/native/libs/binder/ndk/include_cpp/android/binder_to_string.h",
   "underlying_type" : "_ZTIj"
  },
  {
   "alignment" : 4,
   "enum_fields" :
   [
    {
     "enum_field_value" : 0,
     "name" : "android::internal::details::HasToStringMethod<std::vector<std::optional<aidl::android::hardware::bluetooth::audio::Lc3Capabilities>>>::value"
    }
   ],
   "linker_set_key" : "_ZTIN7android8internal7details17HasToStringMethodINSt3__16vectorINS3_8optionalIN4aidl7android8hardware9bluetooth5audio15Lc3CapabilitiesEEENS3_9allocatorISC_EEEEE6$valueE",
   "name" : "android::internal::details::HasToStringMethod<std::vector<std::optional<aidl::android::hardware::bluetooth::audio::Lc3Capabilities>, std::allocator<std::optional<aidl::android::hardware::bluetooth::audio::Lc3Capabilities>>>>::(unnamed enum at frameworks/native/libs/binder/ndk/include_cpp/android/binder_to_string.h:77:5)",
   "referenced_type" : "_ZTIN7android8internal7details17HasToStringMethodINSt3__16vectorINS3_8optionalIN4aidl7android8hardware9bluetooth5audio15Lc3CapabilitiesEEENS3_9allocatorISC_EEEEE6$valueE",
   "self_type" : "_ZTIN7android8internal7details17HasToStringMethodINSt3__16vectorINS3_8optionalIN4aidl7android8hardware9bluetooth5audio15Lc3CapabilitiesEEENS3_9allocatorISC_EEEEE6$valueE",
   "size" : 4,
   "source_file" : "frameworks/native/libs/binder/ndk/include_cpp/android/binder_to_string.h",
   "underlying_type" : "_ZTIj"
  },
  {
   "alignment" : 4,
   "enum_fields" :
   [
    {
     "enum_field_value" : 0,
     "name" : "android::internal::details::HasToStringMethod<std::vector<std::optional<aidl::android::hardware::bluetooth::audio::BroadcastCapability::VendorCapabilities>>>::value"
    }
   ],
   "linker_set_key" : "_ZTIN7android8internal7details17HasToStringMethodINSt3__16vectorINS3_8optionalIN4aidl7android8hardware9bluetooth5audio19BroadcastCapability18VendorCapabilitiesEEENS3_9allocatorISD_EEEEE6$valueE",
   "name" : "android::internal::details::HasToStringMethod<std::vector<std::optional<aidl::android::hardware::bluetooth::audio::BroadcastCapability::VendorCapabilities>, std::allocator<std::optional<aidl::android::hardware::bluetooth::audio::BroadcastCapability::VendorCapabilities>>>>::(unnamed enum at frameworks/native/libs/binder/ndk/include_cpp/android/binder_to_string.h:77:5)",
   "referenced_type" : "_ZTIN7android8internal7details17HasToStringMethodINSt3__16vectorINS3_8optionalIN4aidl7android8hardware9bluetooth5audio19BroadcastCapability18VendorCapabilitiesEEENS3_9allocatorISD_EEEEE6$valueE",
   "self_type" : "_ZTIN7android8internal7details17HasToStringMethodINSt3__16vectorINS3_8optionalIN4aidl7android8hardware9bluetooth5audio19BroadcastCapability18VendorCapabilitiesEEENS3_9allocatorISD_EEEEE6$valueE",
   "size" : 4,
   "source_file" : "frameworks/native/libs/binder/ndk/include_cpp/android/binder_to_string.h",
   "underlying_type" : "_ZTIj"
  },
  {
   "alignment" : 4,
   "enum_fields" :
   [
    {
     "enum_field_value" : 0,
     "name" : "android::internal::details::HasToStringMethod<std::vector<unsigned char>>::value"
    }
   ],
   "linker_set_key" : "_ZTIN7android8internal7details17HasToStringMethodINSt3__16vectorIhNS3_9allocatorIhEEEEE6$valueE",
   "name" : "android::internal::details::HasToStringMethod<std::vector<unsigned char, std::allocator<unsigned char>>>::(unnamed enum at frameworks/native/libs/binder/ndk/include_cpp/android/binder_to_string.h:77:5)",
   "referenced_type" : "_ZTIN7android8internal7details17HasToStringMethodINSt3__16vectorIhNS3_9allocatorIhEEEEE6$valueE",
   "self_type" : "_ZTIN7android8internal7details17HasToStringMethodINSt3__16vectorIhNS3_9allocatorIhEEEEE6$valueE",
   "size" : 4,
   "source_file" : "frameworks/native/libs/binder/ndk/include_cpp/android/binder_to_string.h",
   "underlying_type" : "_ZTIj"
  },
  {
   "alignment" : 4,
   "enum_fields" :
   [
    {
     "enum_field_value" : 0,
     "name" : "android::internal::details::HasToStringMethod<std::vector<int>>::value"
    }
   ],
   "linker_set_key" : "_ZTIN7android8internal7details17HasToStringMethodINSt3__16vectorIiNS3_9allocatorIiEEEEE6$valueE",
   "name" : "android::internal::details::HasToStringMethod<std::vector<int, std::allocator<int>>>::(unnamed enum at frameworks/native/libs/binder/ndk/include_cpp/android/binder_to_string.h:77:5)",
   "referenced_type" : "_ZTIN7android8internal7details17HasToStringMethodINSt3__16vectorIiNS3_9allocatorIiEEEEE6$valueE",
   "self_type" : "_ZTIN7android8internal7details17HasToStringMethodINSt3__16vectorIiNS3_9allocatorIiEEEEE6$valueE",
   "size" : 4,
   "source_file" : "frameworks/native/libs/binder/ndk/include_cpp/android/binder_to_string.h",
   "underlying_type" : "_ZTIj"
  },
  {
   "alignment" : 4,
   "enum_fields" :
   [
    {
     "enum_field_value" : 1,
     "name" : "android::internal::details::HasToStringFunction<aidl::android::media::audio::common::AudioUsage>::value"
    }
   ],
   "linker_set_key" : "_ZTIN7android8internal7details19HasToStringFunctionIN4aidl7android5media5audio6common10AudioUsageEE6$valueE",
   "name" : "android::internal::details::HasToStringFunction<aidl::android::media::audio::common::AudioUsage>::(unnamed enum at frameworks/native/libs/binder/ndk/include_cpp/android/binder_to_string.h:89:5)",
   "referenced_type" : "_ZTIN7android8internal7details19HasToStringFunctionIN4aidl7android5media5audio6common10AudioUsageEE6$valueE",
   "self_type" : "_ZTIN7android8internal7details19HasToStringFunctionIN4aidl7android5media5audio6common10AudioUsageEE6$valueE",
   "size" : 4,
   "source_file" : "frameworks/native/libs/binder/ndk/include_cpp/android/binder_to_string.h",
   "underlying_type" : "_ZTIj"
  },
  {
   "alignment" : 4,
   "enum_fields" :
   [
    {
     "enum_field_value" : 1,
     "name" : "android::internal::details::HasToStringFunction<aidl::android::media::audio::common::AudioSource>::value"
    }
   ],
   "linker_set_key" : "_ZTIN7android8internal7details19HasToStringFunctionIN4aidl7android5media5audio6common11AudioSourceEE6$valueE",
   "name" : "android::internal::details::HasToStringFunction<aidl::android::media::audio::common::AudioSource>::(unnamed enum at frameworks/native/libs/binder/ndk/include_cpp/android/binder_to_string.h:89:5)",
   "referenced_type" : "_ZTIN7android8internal7details19HasToStringFunctionIN4aidl7android5media5audio6common11AudioSourceEE6$valueE",
   "self_type" : "_ZTIN7android8internal7details19HasToStringFunctionIN4aidl7android5media5audio6common11AudioSourceEE6$valueE",
   "size" : 4,
   "source_file" : "frameworks/native/libs/binder/ndk/include_cpp/android/binder_to_string.h",
   "underlying_type" : "_ZTIj"
  },
  {
   "alignment" : 4,
   "enum_fields" :
   [
    {
     "enum_field_value" : 1,
     "name" : "android::internal::details::HasToStringFunction<aidl::android::media::audio::common::AudioDeviceType>::value"
    }
   ],
   "linker_set_key" : "_ZTIN7android8internal7details19HasToStringFunctionIN4aidl7android5media5audio6common15AudioDeviceTypeEE6$valueE",
   "name" : "android::internal::details::HasToStringFunction<aidl::android::media::audio::common::AudioDeviceType>::(unnamed enum at frameworks/native/libs/binder/ndk/include_cpp/android/binder_to_string.h:89:5)",
   "referenced_type" : "_ZTIN7android8internal7details19HasToStringFunctionIN4aidl7android5media5audio6common15AudioDeviceTypeEE6$valueE",
   "self_type" : "_ZTIN7android8internal7details19HasToStringFunctionIN4aidl7android5media5audio6common15AudioDeviceTypeEE6$valueE",
   "size" : 4,
   "source_file" : "frameworks/native/libs/binder/ndk/include_cpp/android/binder_to_string.h",
   "underlying_type" : "_ZTIj"
  },
  {
   "alignment" : 4,
   "enum_fields" :
   [
    {
     "enum_field_value" : 1,
     "name" : "android::internal::details::HasToStringFunction<aidl::android::media::audio::common::AudioContentType>::value"
    }
   ],
   "linker_set_key" : "_ZTIN7android8internal7details19HasToStringFunctionIN4aidl7android5media5audio6common16AudioContentTypeEE6$valueE",
   "name" : "android::internal::details::HasToStringFunction<aidl::android::media::audio::common::AudioContentType>::(unnamed enum at frameworks/native/libs/binder/ndk/include_cpp/android/binder_to_string.h:89:5)",
   "referenced_type" : "_ZTIN7android8internal7details19HasToStringFunctionIN4aidl7android5media5audio6common16AudioContentTypeEE6$valueE",
   "self_type" : "_ZTIN7android8internal7details19HasToStringFunctionIN4aidl7android5media5audio6common16AudioContentTypeEE6$valueE",
   "size" : 4,
   "source_file" : "frameworks/native/libs/binder/ndk/include_cpp/android/binder_to_string.h",
   "underlying_type" : "_ZTIj"
  },
  {
   "alignment" : 4,
   "enum_fields" :
   [
    {
     "enum_field_value" : 1,
     "name" : "android::internal::details::HasToStringFunction<aidl::android::hardware::bluetooth::audio::ChannelMode>::value"
    }
   ],
   "linker_set_key" : "_ZTIN7android8internal7details19HasToStringFunctionIN4aidl7android8hardware9bluetooth5audio11ChannelModeEE6$valueE",
   "name" : "android::internal::details::HasToStringFunction<aidl::android::hardware::bluetooth::audio::ChannelMode>::(unnamed enum at frameworks/native/libs/binder/ndk/include_cpp/android/binder_to_string.h:89:5)",
   "referenced_type" : "_ZTIN7android8internal7details19HasToStringFunctionIN4aidl7android8hardware9bluetooth5audio11ChannelModeEE6$valueE",
   "self_type" : "_ZTIN7android8internal7details19HasToStringFunctionIN4aidl7android8hardware9bluetooth5audio11ChannelModeEE6$valueE",
   "size" : 4,
   "source_file" : "frameworks/native/libs/binder/ndk/include_cpp/android/binder_to_string.h",
   "underlying_type" : "_ZTIj"
  },
  {
   "alignment" : 4,
   "enum_fields" :
   [
    {
     "enum_field_value" : 1,
     "name" : "android::internal::details::HasToStringFunction<aidl::android::hardware::bluetooth::audio::AacObjectType>::value"
    }
   ],
   "linker_set_key" : "_ZTIN7android8internal7details19HasToStringFunctionIN4aidl7android8hardware9bluetooth5audio13AacObjectTypeEE6$valueE",
   "name" : "android::internal::details::HasToStringFunction<aidl::android::hardware::bluetooth::audio::AacObjectType>::(unnamed enum at frameworks/native/libs/binder/ndk/include_cpp/android/binder_to_string.h:89:5)",
   "referenced_type" : "_ZTIN7android8internal7details19HasToStringFunctionIN4aidl7android8hardware9bluetooth5audio13AacObjectTypeEE6$valueE",
   "self_type" : "_ZTIN7android8internal7details19HasToStringFunctionIN4aidl7android8hardware9bluetooth5audio13AacObjectTypeEE6$valueE",
   "size" : 4,
   "source_file" : "frameworks/native/libs/binder/ndk/include_cpp/android/binder_to_string.h",
   "underlying_type" : "_ZTIj"
  },
  {
   "alignment" : 4,
   "enum_fields" :
   [
    {
     "enum_field_value" : 1,
     "name" : "android::internal::details::HasToStringFunction<aidl::android::hardware::bluetooth::audio::AudioLocation>::value"
    }
   ],
   "linker_set_key" : "_ZTIN7android8internal7details19HasToStringFunctionIN4aidl7android8hardware9bluetooth5audio13AudioLocationEE6$valueE",
   "name" : "android::internal::details::HasToStringFunction<aidl::android::hardware::bluetooth::audio::AudioLocation>::(unnamed enum at frameworks/native/libs/binder/ndk/include_cpp/android/binder_to_string.h:89:5)",
   "referenced_type" : "_ZTIN7android8internal7details19HasToStringFunctionIN4aidl7android8hardware9bluetooth5audio13AudioLocationEE6$valueE",
   "self_type" : "_ZTIN7android8internal7details19HasToStringFunctionIN4aidl7android8hardware9bluetooth5audio13AudioLocationEE6$valueE",
   "size" : 4,
   "source_file" : "frameworks/native/libs/binder/ndk/include_cpp/android/binder_to_string.h",
   "underlying_type" : "_ZTIj"
  },
  {
   "alignment" : 4,
   "enum_fields" :
   [
    {
     "enum_field_value" : 1,
     "name" : "android::internal::details::HasToStringFunction<aidl::android::hardware::bluetooth::audio::SbcAllocMethod>::value"
    }
   ],
   "linker_set_key" : "_ZTIN7android8internal7details19HasToStringFunctionIN4aidl7android8hardware9bluetooth5audio14SbcAllocMethodEE6$valueE",
   "name" : "android::internal::details::HasToStringFunction<aidl::android::hardware::bluetooth::audio::SbcAllocMethod>::(unnamed enum at frameworks/native/libs/binder/ndk/include_cpp/android/binder_to_string.h:89:5)",
   "referenced_type" : "_ZTIN7android8internal7details19HasToStringFunctionIN4aidl7android8hardware9bluetooth5audio14SbcAllocMethodEE6$valueE",
   "self_type" : "_ZTIN7android8internal7details19HasToStringFunctionIN4aidl7android8hardware9bluetooth5audio14SbcAllocMethodEE6$valueE",
   "size" : 4,
   "source_file" : "frameworks/native/libs/binder/ndk/include_cpp/android/binder_to_string.h",
   "underlying_type" : "_ZTIj"
  },
  {
   "alignment" : 4,
   "enum_fields" :
   [
    {
     "enum_field_value" : 1,
     "name" : "android::internal::details::HasToStringFunction<aidl::android::hardware::bluetooth::audio::SbcChannelMode>::value"
    }
   ],
   "linker_set_key" : "_ZTIN7android8internal7details19HasToStringFunctionIN4aidl7android8hardware9bluetooth5audio14SbcChannelModeEE6$valueE",
   "name" : "android::internal::details::HasToStringFunction<aidl::android::hardware::bluetooth::audio::SbcChannelMode>::(unnamed enum at frameworks/native/libs/binder/ndk/include_cpp/android/binder_to_string.h:89:5)",
   "referenced_type" : "_ZTIN7android8internal7details19HasToStringFunctionIN4aidl7android8hardware9bluetooth5audio14SbcChannelModeEE6$valueE",
   "self_type" : "_ZTIN7android8internal7details19HasToStringFunctionIN4aidl7android8hardware9bluetooth5audio14SbcChannelModeEE6$valueE",
   "size" : 4,
   "source_file" : "frameworks/native/libs/binder/ndk/include_cpp/android/binder_to_string.h",
   "underlying_type" : "_ZTIj"
  },
  {
   "alignment" : 4,
   "enum_fields" :
   [
    {
     "enum_field_value" : 1,
     "name" : "android::internal::details::HasToStringFunction<aidl::android::hardware::bluetooth::audio::LdacChannelMode>::value"
    }
   ],
   "linker_set_key" : "_ZTIN7android8internal7details19HasToStringFunctionIN4aidl7android8hardware9bluetooth5audio15LdacChannelModeEE6$valueE",
   "name" : "android::internal::details::HasToStringFunction<aidl::android::hardware::bluetooth::audio::LdacChannelMode>::(unnamed enum at frameworks/native/libs/binder/ndk/include_cpp/android/binder_to_string.h:89:5)",
   "referenced_type" : "_ZTIN7android8internal7details19HasToStringFunctionIN4aidl7android8hardware9bluetooth5audio15LdacChannelModeEE6$valueE",
   "self_type" : "_ZTIN7android8internal7details19HasToStringFunctionIN4aidl7android8hardware9bluetooth5audio15LdacChannelModeEE6$valueE",
   "size" : 4,
   "source_file" : "frameworks/native/libs/binder/ndk/include_cpp/android/binder_to_string.h",
   "underlying_type" : "_ZTIj"
  },
  {
   "alignment" : 4,
   "enum_fields" :
   [
    {
     "enum_field_value" : 1,
     "name" : "android::internal::details::HasToStringFunction<aidl::android::hardware::bluetooth::audio::LdacQualityIndex>::value"
    }
   ],
   "linker_set_key" : "_ZTIN7android8internal7details19HasToStringFunctionIN4aidl7android8hardware9bluetooth5audio16LdacQualityIndexEE6$valueE",
   "name" : "android::internal::details::HasToStringFunction<aidl::android::hardware::bluetooth::audio::LdacQualityIndex>::(unnamed enum at frameworks/native/libs/binder/ndk/include_cpp/android/binder_to_string.h:89:5)",
   "referenced_type" : "_ZTIN7android8internal7details19HasToStringFunctionIN4aidl7android8hardware9bluetooth5audio16LdacQualityIndexEE6$valueE",
   "self_type" : "_ZTIN7android8internal7details19HasToStringFunctionIN4aidl7android8hardware9bluetooth5audio16LdacQualityIndexEE6$valueE",
   "size" : 4,
   "source_file" : "frameworks/native/libs/binder/ndk/include_cpp/android/binder_to_string.h",
   "underlying_type" : "_ZTIj"
  },
  {
   "alignment" : 4,
   "enum_fields" :
   [
    {
     "enum_field_value" : 1,
     "name" : "android::internal::details::HasToStringFunction<aidl::android::hardware::bluetooth::audio::AptxAdaptiveInputMode>::value"
    }
   ],
   "linker_set_key" : "_ZTIN7android8internal7details19HasToStringFunctionIN4aidl7android8hardware9bluetooth5audio21AptxAdaptiveInputModeEE6$valueE",
   "name" : "android::internal::details::HasToStringFunction<aidl::android::hardware::bluetooth::audio::AptxAdaptiveInputMode>::(unnamed enum at frameworks/native/libs/binder/ndk/include_cpp/android/binder_to_string.h:89:5)",
   "referenced_type" : "_ZTIN7android8internal7details19HasToStringFunctionIN4aidl7android8hardware9bluetooth5audio21AptxAdaptiveInputModeEE6$valueE",
   "self_type" : "_ZTIN7android8internal7details19HasToStringFunctionIN4aidl7android8hardware9bluetooth5audio21AptxAdaptiveInputModeEE6$valueE",
   "size" : 4,
   "source_file" : "frameworks/native/libs/binder/ndk/include_cpp/android/binder_to_string.h",
   "underlying_type" : "_ZTIj"
  },
  {
   "alignment" : 4,
   "enum_fields" :
   [
    {
     "enum_field_value" : 1,
     "name" : "android::internal::details::HasToStringFunction<aidl::android::hardware::bluetooth::audio::AptxAdaptiveChannelMode>::value"
    }
   ],
   "linker_set_key" : "_ZTIN7android8internal7details19HasToStringFunctionIN4aidl7android8hardware9bluetooth5audio23AptxAdaptiveChannelModeEE6$valueE",
   "name" : "android::internal::details::HasToStringFunction<aidl::android::hardware::bluetooth::audio::AptxAdaptiveChannelMode>::(unnamed enum at frameworks/native/libs/binder/ndk/include_cpp/android/binder_to_string.h:89:5)",
   "referenced_type" : "_ZTIN7android8internal7details19HasToStringFunctionIN4aidl7android8hardware9bluetooth5audio23AptxAdaptiveChannelModeEE6$valueE",
   "self_type" : "_ZTIN7android8internal7details19HasToStringFunctionIN4aidl7android8hardware9bluetooth5audio23AptxAdaptiveChannelModeEE6$valueE",
   "size" : 4,
   "source_file" : "frameworks/native/libs/binder/ndk/include_cpp/android/binder_to_string.h",
   "underlying_type" : "_ZTIj"
  },
  {
   "alignment" : 4,
   "enum_fields" :
   [
    {
     "enum_field_value" : 1,
     "name" : "android::internal::details::HasToStringFunction<aidl::android::hardware::bluetooth::audio::AptxMode>::value"
    }
   ],
   "linker_set_key" : "_ZTIN7android8internal7details19HasToStringFunctionIN4aidl7android8hardware9bluetooth5audio8AptxModeEE6$valueE",
   "name" : "android::internal::details::HasToStringFunction<aidl::android::hardware::bluetooth::audio::AptxMode>::(unnamed enum at frameworks/native/libs/binder/ndk/include_cpp/android/binder_to_string.h:89:5)",
   "referenced_type" : "_ZTIN7android8internal7details19HasToStringFunctionIN4aidl7android8hardware9bluetooth5audio8AptxModeEE6$valueE",
   "self_type" : "_ZTIN7android8internal7details19HasToStringFunctionIN4aidl7android8hardware9bluetooth5audio8AptxModeEE6$valueE",
   "size" : 4,
   "source_file" : "frameworks/native/libs/binder/ndk/include_cpp/android/binder_to_string.h",
   "underlying_type" : "_ZTIj"
  },
  {
   "alignment" : 4,
   "enum_fields" :
   [
    {
     "enum_field_value" : 1,
     "name" : "android::internal::details::HasToStringFunction<aidl::android::hardware::bluetooth::audio::CodecType>::value"
    }
   ],
   "linker_set_key" : "_ZTIN7android8internal7details19HasToStringFunctionIN4aidl7android8hardware9bluetooth5audio9CodecTypeEE6$valueE",
   "name" : "android::internal::details::HasToStringFunction<aidl::android::hardware::bluetooth::audio::CodecType>::(unnamed enum at frameworks/native/libs/binder/ndk/include_cpp/android/binder_to_string.h:89:5)",
   "referenced_type" : "_ZTIN7android8internal7details19HasToStringFunctionIN4aidl7android8hardware9bluetooth5audio9CodecTypeEE6$valueE",
   "self_type" : "_ZTIN7android8internal7details19HasToStringFunctionIN4aidl7android8hardware9bluetooth5audio9CodecTypeEE6$valueE",
   "size" : 4,
   "source_file" : "frameworks/native/libs/binder/ndk/include_cpp/android/binder_to_string.h",
   "underlying_type" : "_ZTIj"
  },
  {
   "alignment" : 4,
   "enum_fields" :
   [
    {
     "enum_field_value" : 0,
     "name" : "android::internal::details::HasToStringFunction<std::vector<ndk::ScopedFileDescriptor>>::value"
    }
   ],
   "linker_set_key" : "_ZTIN7android8internal7details19HasToStringFunctionINSt3__16vectorIN3ndk20ScopedFileDescriptorENS3_9allocatorIS6_EEEEE6$valueE",
   "name" : "android::internal::details::HasToStringFunction<std::vector<ndk::ScopedFileDescriptor, std::allocator<ndk::ScopedFileDescriptor>>>::(unnamed enum at frameworks/native/libs/binder/ndk/include_cpp/android/binder_to_string.h:89:5)",
   "referenced_type" : "_ZTIN7android8internal7details19HasToStringFunctionINSt3__16vectorIN3ndk20ScopedFileDescriptorENS3_9allocatorIS6_EEEEE6$valueE",
   "self_type" : "_ZTIN7android8internal7details19HasToStringFunctionINSt3__16vectorIN3ndk20ScopedFileDescriptorENS3_9allocatorIS6_EEEEE6$valueE",
   "size" : 4,
   "source_file" : "frameworks/native/libs/binder/ndk/include_cpp/android/binder_to_string.h",
   "underlying_type" : "_ZTIj"
  },
  {
   "alignment" : 4,
   "enum_fields" :
   [
    {
     "enum_field_value" : 0,
     "name" : "android::internal::details::HasToStringFunction<std::vector<aidl::android::hardware::audio::common::RecordTrackMetadata>>::value"
    }
   ],
   "linker_set_key" : "_ZTIN7android8internal7details19HasToStringFunctionINSt3__16vectorIN4aidl7android8hardware5audio6common19RecordTrackMetadataENS3_9allocatorISA_EEEEE6$valueE",
   "name" : "android::internal::details::HasToStringFunction<std::vector<aidl::android::hardware::audio::common::RecordTrackMetadata, std::allocator<aidl::android::hardware::audio::common::RecordTrackMetadata>>>::(unnamed enum at frameworks/native/libs/binder/ndk/include_cpp/android/binder_to_string.h:89:5)",
   "referenced_type" : "_ZTIN7android8internal7details19HasToStringFunctionINSt3__16vectorIN4aidl7android8hardware5audio6common19RecordTrackMetadataENS3_9allocatorISA_EEEEE6$valueE",
   "self_type" : "_ZTIN7android8internal7details19HasToStringFunctionINSt3__16vectorIN4aidl7android8hardware5audio6common19RecordTrackMetadataENS3_9allocatorISA_EEEEE6$valueE",
   "size" : 4,
   "source_file" : "frameworks/native/libs/binder/ndk/include_cpp/android/binder_to_string.h",
   "underlying_type" : "_ZTIj"
  },
  {
   "alignment" : 4,
   "enum_fields" :
   [
    {
     "enum_field_value" : 0,
     "name" : "android::internal::details::HasToStringFunction<std::vector<aidl::android::hardware::audio::common::PlaybackTrackMetadata>>::value"
    }
   ],
   "linker_set_key" : "_ZTIN7android8internal7details19HasToStringFunctionINSt3__16vectorIN4aidl7android8hardware5audio6common21PlaybackTrackMetadataENS3_9allocatorISA_EEEEE6$valueE",
   "name" : "android::internal::details::HasToStringFunction<std::vector<aidl::android::hardware::audio::common::PlaybackTrackMetadata, std::allocator<aidl::android::hardware::audio::common::PlaybackTrackMetadata>>>::(unnamed enum at frameworks/native/libs/binder/ndk/include_cpp/android/binder_to_string.h:89:5)",
   "referenced_type" : "_ZTIN7android8internal7details19HasToStringFunctionINSt3__16vectorIN4aidl7android8hardware5audio6common21PlaybackTrackMetadataENS3_9allocatorISA_EEEEE6$valueE",
   "self_type" : "_ZTIN7android8internal7details19HasToStringFunctionINSt3__16vectorIN4aidl7android8hardware5audio6common21PlaybackTrackMetadataENS3_9allocatorISA_EEEEE6$valueE",
   "size" : 4,
   "source_file" : "frameworks/native/libs/binder/ndk/include_cpp/android/binder_to_string.h",
   "underlying_type" : "_ZTIj"
  },
  {
   "alignment" : 4,
   "enum_fields" :
   [
    {
     "enum_field_value" : 0,
     "name" : "android::internal::details::HasToStringFunction<std::vector<aidl::android::hardware::bluetooth::audio::ChannelMode>>::value"
    }
   ],
   "linker_set_key" : "_ZTIN7android8internal7details19HasToStringFunctionINSt3__16vectorIN4aidl7android8hardware9bluetooth5audio11ChannelModeENS3_9allocatorISA_EEEEE6$valueE",
   "name" : "android::internal::details::HasToStringFunction<std::vector<aidl::android::hardware::bluetooth::audio::ChannelMode, std::allocator<aidl::android::hardware::bluetooth::audio::ChannelMode>>>::(unnamed enum at frameworks/native/libs/binder/ndk/include_cpp/android/binder_to_string.h:89:5)",
   "referenced_type" : "_ZTIN7android8internal7details19HasToStringFunctionINSt3__16vectorIN4aidl7android8hardware9bluetooth5audio11ChannelModeENS3_9allocatorISA_EEEEE6$valueE",
   "self_type" : "_ZTIN7android8internal7details19HasToStringFunctionINSt3__16vectorIN4aidl7android8hardware9bluetooth5audio11ChannelModeENS3_9allocatorISA_EEEEE6$valueE",
   "size" : 4,
   "source_file" : "frameworks/native/libs/binder/ndk/include_cpp/android/binder_to_string.h",
   "underlying_type" : "_ZTIj"
  },
  {
   "alignment" : 4,
   "enum_fields" :
   [
    {
     "enum_field_value" : 0,
     "name" : "android::internal::details::HasToStringFunction<std::vector<aidl::android::hardware::bluetooth::audio::AacObjectType>>::value"
    }
   ],
   "linker_set_key" : "_ZTIN7android8internal7details19HasToStringFunctionINSt3__16vectorIN4aidl7android8hardware9bluetooth5audio13AacObjectTypeENS3_9allocatorISA_EEEEE6$valueE",
   "name" : "android::internal::details::HasToStringFunction<std::vector<aidl::android::hardware::bluetooth::audio::AacObjectType, std::allocator<aidl::android::hardware::bluetooth::audio::AacObjectType>>>::(unnamed enum at frameworks/native/libs/binder/ndk/include_cpp/android/binder_to_string.h:89:5)",
   "referenced_type" : "_ZTIN7android8internal7details19HasToStringFunctionINSt3__16vectorIN4aidl7android8hardware9bluetooth5audio13AacObjectTypeENS3_9allocatorISA_EEEEE6$valueE",
   "self_type" : "_ZTIN7android8internal7details19HasToStringFunctionINSt3__16vectorIN4aidl7android8hardware9bluetooth5audio13AacObjectTypeENS3_9allocatorISA_EEEEE6$valueE",
   "size" : 4,
   "source_file" : "frameworks/native/libs/binder/ndk/include_cpp/android/binder_to_string.h",
   "underlying_type" : "_ZTIj"
  },
  {
   "alignment" : 4,
   "enum_fields" :
   [
    {
     "enum_field_value" : 0,
     "name" : "android::internal::details::HasToStringFunction<std::vector<aidl::android::hardware::bluetooth::audio::SbcAllocMethod>>::value"
    }
   ],
   "linker_set_key" : "_ZTIN7android8internal7details19HasToStringFunctionINSt3__16vectorIN4aidl7android8hardware9bluetooth5audio14SbcAllocMethodENS3_9allocatorISA_EEEEE6$valueE",
   "name" : "android::internal::details::HasToStringFunction<std::vector<aidl::android::hardware::bluetooth::audio::SbcAllocMethod, std::allocator<aidl::android::hardware::bluetooth::audio::SbcAllocMethod>>>::(unnamed enum at frameworks/native/libs/binder/ndk/include_cpp/android/binder_to_string.h:89:5)",
   "referenced_type" : "_ZTIN7android8internal7details19HasToStringFunctionINSt3__16vectorIN4aidl7android8hardware9bluetooth5audio14SbcAllocMethodENS3_9allocatorISA_EEEEE6$valueE",
   "self_type" : "_ZTIN7android8internal7details19HasToStringFunctionINSt3__16vectorIN4aidl7android8hardware9bluetooth5audio14SbcAllocMethodENS3_9allocatorISA_EEEEE6$valueE",
   "size" : 4,
   "source_file" : "frameworks/native/libs/binder/ndk/include_cpp/android/binder_to_string.h",
   "underlying_type" : "_ZTIj"
  },
  {
   "alignment" : 4,
   "enum_fields" :
   [
    {
     "enum_field_value" : 0,
     "name" : "android::internal::details::HasToStringFunction<std::vector<aidl::android::hardware::bluetooth::audio::SbcChannelMode>>::value"
    }
   ],
   "linker_set_key" : "_ZTIN7android8internal7details19HasToStringFunctionINSt3__16vectorIN4aidl7android8hardware9bluetooth5audio14SbcChannelModeENS3_9allocatorISA_EEEEE6$valueE",
   "name" : "android::internal::details::HasToStringFunction<std::vector<aidl::android::hardware::bluetooth::audio::SbcChannelMode, std::allocator<aidl::android::hardware::bluetooth::audio::SbcChannelMode>>>::(unnamed enum at frameworks/native/libs/binder/ndk/include_cpp/android/binder_to_string.h:89:5)",
   "referenced_type" : "_ZTIN7android8internal7details19HasToStringFunctionINSt3__16vectorIN4aidl7android8hardware9bluetooth5audio14SbcChannelModeENS3_9allocatorISA_EEEEE6$valueE",
   "self_type" : "_ZTIN7android8internal7details19HasToStringFunctionINSt3__16vectorIN4aidl7android8hardware9bluetooth5audio14SbcChannelModeENS3_9allocatorISA_EEEEE6$valueE",
   "size" : 4,
   "source_file" : "frameworks/native/libs/binder/ndk/include_cpp/android/binder_to_string.h",
   "underlying_type" : "_ZTIj"
  },
  {
   "alignment" : 4,
   "enum_fields" :
   [
    {
     "enum_field_value" : 0,
     "name" : "android::internal::details::HasToStringFunction<std::vector<aidl::android::hardware::bluetooth::audio::LdacChannelMode>>::value"
    }
   ],
   "linker_set_key" : "_ZTIN7android8internal7details19HasToStringFunctionINSt3__16vectorIN4aidl7android8hardware9bluetooth5audio15LdacChannelModeENS3_9allocatorISA_EEEEE6$valueE",
   "name" : "android::internal::details::HasToStringFunction<std::vector<aidl::android::hardware::bluetooth::audio::LdacChannelMode, std::allocator<aidl::android::hardware::bluetooth::audio::LdacChannelMode>>>::(unnamed enum at frameworks/native/libs/binder/ndk/include_cpp/android/binder_to_string.h:89:5)",
   "referenced_type" : "_ZTIN7android8internal7details19HasToStringFunctionINSt3__16vectorIN4aidl7android8hardware9bluetooth5audio15LdacChannelModeENS3_9allocatorISA_EEEEE6$valueE",
   "self_type" : "_ZTIN7android8internal7details19HasToStringFunctionINSt3__16vectorIN4aidl7android8hardware9bluetooth5audio15LdacChannelModeENS3_9allocatorISA_EEEEE6$valueE",
   "size" : 4,
   "source_file" : "frameworks/native/libs/binder/ndk/include_cpp/android/binder_to_string.h",
   "underlying_type" : "_ZTIj"
  },
  {
   "alignment" : 4,
   "enum_fields" :
   [
    {
     "enum_field_value" : 0,
     "name" : "android::internal::details::HasToStringFunction<std::vector<aidl::android::hardware::bluetooth::audio::LdacQualityIndex>>::value"
    }
   ],
   "linker_set_key" : "_ZTIN7android8internal7details19HasToStringFunctionINSt3__16vectorIN4aidl7android8hardware9bluetooth5audio16LdacQualityIndexENS3_9allocatorISA_EEEEE6$valueE",
   "name" : "android::internal::details::HasToStringFunction<std::vector<aidl::android::hardware::bluetooth::audio::LdacQualityIndex, std::allocator<aidl::android::hardware::bluetooth::audio::LdacQualityIndex>>>::(unnamed enum at frameworks/native/libs/binder/ndk/include_cpp/android/binder_to_string.h:89:5)",
   "referenced_type" : "_ZTIN7android8internal7details19HasToStringFunctionINSt3__16vectorIN4aidl7android8hardware9bluetooth5audio16LdacQualityIndexENS3_9allocatorISA_EEEEE6$valueE",
   "self_type" : "_ZTIN7android8internal7details19HasToStringFunctionINSt3__16vectorIN4aidl7android8hardware9bluetooth5audio16LdacQualityIndexENS3_9allocatorISA_EEEEE6$valueE",
   "size" : 4,
   "source_file" : "frameworks/native/libs/binder/ndk/include_cpp/android/binder_to_string.h",
   "underlying_type" : "_ZTIj"
  },
  {
   "alignment" : 4,
   "enum_fields" :
   [
    {
     "enum_field_value" : 0,
     "name" : "android::internal::details::HasToStringFunction<std::vector<aidl::android::hardware::bluetooth::audio::LeAudioConfiguration::StreamMap>>::value"
    }
   ],
   "linker_set_key" : "_ZTIN7android8internal7details19HasToStringFunctionINSt3__16vectorIN4aidl7android8hardware9bluetooth5audio20LeAudioConfiguration9StreamMapENS3_9allocatorISB_EEEEE6$valueE",
   "name" : "android::internal::details::HasToStringFunction<std::vector<aidl::android::hardware::bluetooth::audio::LeAudioConfiguration::StreamMap, std::allocator<aidl::android::hardware::bluetooth::audio::LeAudioConfiguration::StreamMap>>>::(unnamed enum at frameworks/native/libs/binder/ndk/include_cpp/android/binder_to_string.h:89:5)",
   "referenced_type" : "_ZTIN7android8internal7details19HasToStringFunctionINSt3__16vectorIN4aidl7android8hardware9bluetooth5audio20LeAudioConfiguration9StreamMapENS3_9allocatorISB_EEEEE6$valueE",
   "self_type" : "_ZTIN7android8internal7details19HasToStringFunctionINSt3__16vectorIN4aidl7android8hardware9bluetooth5audio20LeAudioConfiguration9StreamMapENS3_9allocatorISB_EEEEE6$valueE",
   "size" : 4,
   "source_file" : "frameworks/native/libs/binder/ndk/include_cpp/android/binder_to_string.h",
   "underlying_type" : "_ZTIj"
  },
  {
   "alignment" : 4,
   "enum_fields" :
   [
    {
     "enum_field_value" : 0,
     "name" : "android::internal::details::HasToStringFunction<std::vector<aidl::android::hardware::bluetooth::audio::AptxAdaptiveChannelMode>>::value"
    }
   ],
   "linker_set_key" : "_ZTIN7android8internal7details19HasToStringFunctionINSt3__16vectorIN4aidl7android8hardware9bluetooth5audio23AptxAdaptiveChannelModeENS3_9allocatorISA_EEEEE6$valueE",
   "name" : "android::internal::details::HasToStringFunction<std::vector<aidl::android::hardware::bluetooth::audio::AptxAdaptiveChannelMode, std::allocator<aidl::android::hardware::bluetooth::audio::AptxAdaptiveChannelMode>>>::(unnamed enum at frameworks/native/libs/binder/ndk/include_cpp/android/binder_to_string.h:89:5)",
   "referenced_type" : "_ZTIN7android8internal7details19HasToStringFunctionINSt3__16vectorIN4aidl7android8hardware9bluetooth5audio23AptxAdaptiveChannelModeENS3_9allocatorISA_EEEEE6$valueE",
   "self_type" : "_ZTIN7android8internal7details19HasToStringFunctionINSt3__16vectorIN4aidl7android8hardware9bluetooth5audio23AptxAdaptiveChannelModeENS3_9allocatorISA_EEEEE6$valueE",
   "size" : 4,
   "source_file" : "frameworks/native/libs/binder/ndk/include_cpp/android/binder_to_string.h",
   "underlying_type" : "_ZTIj"
  },
  {
   "alignment" : 4,
   "enum_fields" :
   [
    {
     "enum_field_value" : 0,
     "name" : "android::internal::details::HasToStringFunction<std::vector<aidl::android::hardware::bluetooth::audio::LeAudioBroadcastConfiguration::BroadcastStreamMap>>::value"
    }
   ],
   "linker_set_key" : "_ZTIN7android8internal7details19HasToStringFunctionINSt3__16vectorIN4aidl7android8hardware9bluetooth5audio29LeAudioBroadcastConfiguration18BroadcastStreamMapENS3_9allocatorISB_EEEEE6$valueE",
   "name" : "android::internal::details::HasToStringFunction<std::vector<aidl::android::hardware::bluetooth::audio::LeAudioBroadcastConfiguration::BroadcastStreamMap, std::allocator<aidl::android::hardware::bluetooth::audio::LeAudioBroadcastConfiguration::BroadcastStreamMap>>>::(unnamed enum at frameworks/native/libs/binder/ndk/include_cpp/android/binder_to_string.h:89:5)",
   "referenced_type" : "_ZTIN7android8internal7details19HasToStringFunctionINSt3__16vectorIN4aidl7android8hardware9bluetooth5audio29LeAudioBroadcastConfiguration18BroadcastStreamMapENS3_9allocatorISB_EEEEE6$valueE",
   "self_type" : "_ZTIN7android8internal7details19HasToStringFunctionINSt3__16vectorIN4aidl7android8hardware9bluetooth5audio29LeAudioBroadcastConfiguration18BroadcastStreamMapENS3_9allocatorISB_EEEEE6$valueE",
   "size" : 4,
   "source_file" : "frameworks/native/libs/binder/ndk/include_cpp/android/binder_to_string.h",
   "underlying_type" : "_ZTIj"
  },
  {
   "alignment" : 4,
   "enum_fields" :
   [
    {
     "enum_field_value" : 0,
     "name" : "android::internal::details::HasToStringFunction<std::vector<aidl::android::hardware::bluetooth::audio::AptxMode>>::value"
    }
   ],
   "linker_set_key" : "_ZTIN7android8internal7details19HasToStringFunctionINSt3__16vectorIN4aidl7android8hardware9bluetooth5audio8AptxModeENS3_9allocatorISA_EEEEE6$valueE",
   "name" : "android::internal::details::HasToStringFunction<std::vector<aidl::android::hardware::bluetooth::audio::AptxMode, std::allocator<aidl::android::hardware::bluetooth::audio::AptxMode>>>::(unnamed enum at frameworks/native/libs/binder/ndk/include_cpp/android/binder_to_string.h:89:5)",
   "referenced_type" : "_ZTIN7android8internal7details19HasToStringFunctionINSt3__16vectorIN4aidl7android8hardware9bluetooth5audio8AptxModeENS3_9allocatorISA_EEEEE6$valueE",
