{
 "array_types" : [],
 "builtin_types" :
 [
  {
   "alignment" : 8,
   "linker_set_key" : "_ZTIDn",
   "name" : "std::nullptr_t",
   "referenced_type" : "_ZTIDn",
   "self_type" : "_ZTIDn",
   "size" : 8
  },
  {
   "alignment" : 1,
   "is_integral" : true,
   "linker_set_key" : "_ZTIa",
   "name" : "signed char",
   "referenced_type" : "_ZTIa",
   "self_type" : "_ZTIa",
   "size" : 1
  },
  {
   "alignment" : 1,
   "is_integral" : true,
   "is_unsigned" : true,
   "linker_set_key" : "_ZTIb",
   "name" : "bool",
   "referenced_type" : "_ZTIb",
   "self_type" : "_ZTIb",
   "size" : 1
  },
  {
   "alignment" : 1,
   "is_integral" : true,
   "is_unsigned" : true,
   "linker_set_key" : "_ZTIc",
   "name" : "char",
   "referenced_type" : "_ZTIc",
   "self_type" : "_ZTIc",
   "size" : 1
  },
  {
   "alignment" : 1,
   "is_integral" : true,
   "is_unsigned" : true,
   "linker_set_key" : "_ZTIh",
   "name" : "unsigned char",
   "referenced_type" : "_ZTIh",
   "self_type" : "_ZTIh",
   "size" : 1
  },
  {
   "alignment" : 4,
   "is_integral" : true,
   "linker_set_key" : "_ZTIi",
   "name" : "int",
   "referenced_type" : "_ZTIi",
   "self_type" : "_ZTIi",
   "size" : 4
  },
  {
   "alignment" : 4,
   "is_integral" : true,
   "is_unsigned" : true,
   "linker_set_key" : "_ZTIj",
   "name" : "unsigned int",
   "referenced_type" : "_ZTIj",
   "self_type" : "_ZTIj",
   "size" : 4
  },
  {
   "alignment" : 8,
   "is_integral" : true,
   "linker_set_key" : "_ZTIl",
   "name" : "long",
   "referenced_type" : "_ZTIl",
   "self_type" : "_ZTIl",
   "size" : 8
  },
  {
   "alignment" : 8,
   "is_integral" : true,
   "is_unsigned" : true,
   "linker_set_key" : "_ZTIm",
   "name" : "unsigned long",
   "referenced_type" : "_ZTIm",
   "self_type" : "_ZTIm",
   "size" : 8
  },
  {
   "linker_set_key" : "_ZTIv",
   "name" : "void",
   "referenced_type" : "_ZTIv",
   "self_type" : "_ZTIv"
  }
 ],
 "elf_functions" :
 [
  {
   "binding" : "weak",
   "name" : "_ZN3ndk12BnCInterfaceIN4aidl7android8hardware13soundtrigger315ISoundTriggerHwEE8asBinderEv"
  },
  {
   "binding" : "weak",
   "name" : "_ZN3ndk12BnCInterfaceIN4aidl7android8hardware13soundtrigger323ISoundTriggerHwCallbackEE8asBinderEv"
  },
  {
   "binding" : "weak",
   "name" : "_ZN3ndk12BnCInterfaceIN4aidl7android8hardware13soundtrigger329ISoundTriggerHwGlobalCallbackEE8asBinderEv"
  },
  {
   "binding" : "weak",
   "name" : "_ZN3ndk12BpCInterfaceIN4aidl7android8hardware13soundtrigger315ISoundTriggerHwEE8asBinderEv"
  },
  {
   "binding" : "weak",
   "name" : "_ZN3ndk12BpCInterfaceIN4aidl7android8hardware13soundtrigger323ISoundTriggerHwCallbackEE8asBinderEv"
  },
  {
   "binding" : "weak",
   "name" : "_ZN3ndk12BpCInterfaceIN4aidl7android8hardware13soundtrigger329ISoundTriggerHwGlobalCallbackEE8asBinderEv"
  },
  {
   "name" : "_ZN4aidl7android8hardware13soundtrigger315ISoundTriggerHw10fromBinderERKN3ndk10SpAIBinderE"
  },
  {
   "name" : "_ZN4aidl7android8hardware13soundtrigger315ISoundTriggerHw13writeToParcelEP7AParcelRKNSt3__110shared_ptrIS3_EE"
  },
  {
   "name" : "_ZN4aidl7android8hardware13soundtrigger315ISoundTriggerHw14getDefaultImplEv"
  },
  {
   "name" : "_ZN4aidl7android8hardware13soundtrigger315ISoundTriggerHw14readFromParcelEPK7AParcelPNSt3__110shared_ptrIS3_EE"
  },
  {
   "name" : "_ZN4aidl7android8hardware13soundtrigger315ISoundTriggerHw14setDefaultImplERKNSt3__110shared_ptrIS3_EE"
  },
  {
   "name" : "_ZN4aidl7android8hardware13soundtrigger315ISoundTriggerHwC2Ev"
  },
  {
   "name" : "_ZN4aidl7android8hardware13soundtrigger315ISoundTriggerHwD0Ev"
  },
  {
   "name" : "_ZN4aidl7android8hardware13soundtrigger315ISoundTriggerHwD1Ev"
  },
  {
   "name" : "_ZN4aidl7android8hardware13soundtrigger315ISoundTriggerHwD2Ev"
  },
  {
   "name" : "_ZN4aidl7android8hardware13soundtrigger316BnSoundTriggerHw12createBinderEv"
  },
  {
   "name" : "_ZN4aidl7android8hardware13soundtrigger316BnSoundTriggerHw16getInterfaceHashEPNSt3__112basic_stringIcNS4_11char_traitsIcEENS4_9allocatorIcEEEE"
  },
  {
   "name" : "_ZN4aidl7android8hardware13soundtrigger316BnSoundTriggerHw19getInterfaceVersionEPi"
  },
  {
   "name" : "_ZN4aidl7android8hardware13soundtrigger316BnSoundTriggerHwC2Ev"
  },
  {
   "name" : "_ZN4aidl7android8hardware13soundtrigger316BnSoundTriggerHwD0Ev"
  },
  {
   "name" : "_ZN4aidl7android8hardware13soundtrigger316BnSoundTriggerHwD1Ev"
  },
  {
   "name" : "_ZN4aidl7android8hardware13soundtrigger316BnSoundTriggerHwD2Ev"
  },
  {
   "name" : "_ZN4aidl7android8hardware13soundtrigger316BpSoundTriggerHw12getParameterEiNS0_5media12soundtrigger14ModelParameterEPi"
  },
  {
   "name" : "_ZN4aidl7android8hardware13soundtrigger316BpSoundTriggerHw12setParameterEiNS0_5media12soundtrigger14ModelParameterEi"
  },
  {
   "name" : "_ZN4aidl7android8hardware13soundtrigger316BpSoundTriggerHw13getPropertiesEPNS0_5media12soundtrigger10PropertiesE"
  },
  {
   "name" : "_ZN4aidl7android8hardware13soundtrigger316BpSoundTriggerHw14loadSoundModelERKNS0_5media12soundtrigger10SoundModelERKNSt3__110shared_ptrINS2_23ISoundTriggerHwCallbackEEEPi"
  },
  {
   "name" : "_ZN4aidl7android8hardware13soundtrigger316BpSoundTriggerHw14queryParameterEiNS0_5media12soundtrigger14ModelParameterEPNSt3__18optionalINS5_19ModelParameterRangeEEE"
  },
  {
   "name" : "_ZN4aidl7android8hardware13soundtrigger316BpSoundTriggerHw15stopRecognitionEi"
  },
  {
   "name" : "_ZN4aidl7android8hardware13soundtrigger316BpSoundTriggerHw16getInterfaceHashEPNSt3__112basic_stringIcNS4_11char_traitsIcEENS4_9allocatorIcEEEE"
  },
  {
   "name" : "_ZN4aidl7android8hardware13soundtrigger316BpSoundTriggerHw16startRecognitionEiiiRKNS0_5media12soundtrigger17RecognitionConfigE"
  },
  {
   "name" : "_ZN4aidl7android8hardware13soundtrigger316BpSoundTriggerHw16unloadSoundModelEi"
  },
  {
   "name" : "_ZN4aidl7android8hardware13soundtrigger316BpSoundTriggerHw19getInterfaceVersionEPi"
  },
  {
   "name" : "_ZN4aidl7android8hardware13soundtrigger316BpSoundTriggerHw20loadPhraseSoundModelERKNS0_5media12soundtrigger16PhraseSoundModelERKNSt3__110shared_ptrINS2_23ISoundTriggerHwCallbackEEEPi"
  },
  {
   "name" : "_ZN4aidl7android8hardware13soundtrigger316BpSoundTriggerHw21forceRecognitionEventEi"
  },
  {
   "name" : "_ZN4aidl7android8hardware13soundtrigger316BpSoundTriggerHw22registerGlobalCallbackERKNSt3__110shared_ptrINS2_29ISoundTriggerHwGlobalCallbackEEE"
  },
  {
   "name" : "_ZN4aidl7android8hardware13soundtrigger316BpSoundTriggerHwC1ERKN3ndk10SpAIBinderE"
  },
  {
   "name" : "_ZN4aidl7android8hardware13soundtrigger316BpSoundTriggerHwC2ERKN3ndk10SpAIBinderE"
  },
  {
   "name" : "_ZN4aidl7android8hardware13soundtrigger316BpSoundTriggerHwD0Ev"
  },
  {
   "name" : "_ZN4aidl7android8hardware13soundtrigger316BpSoundTriggerHwD1Ev"
  },
  {
   "name" : "_ZN4aidl7android8hardware13soundtrigger316BpSoundTriggerHwD2Ev"
  },
  {
   "name" : "_ZN4aidl7android8hardware13soundtrigger322ISoundTriggerHwDefault12getParameterEiNS0_5media12soundtrigger14ModelParameterEPi"
  },
  {
   "name" : "_ZN4aidl7android8hardware13soundtrigger322ISoundTriggerHwDefault12setParameterEiNS0_5media12soundtrigger14ModelParameterEi"
  },
  {
   "name" : "_ZN4aidl7android8hardware13soundtrigger322ISoundTriggerHwDefault13getPropertiesEPNS0_5media12soundtrigger10PropertiesE"
  },
  {
   "name" : "_ZN4aidl7android8hardware13soundtrigger322ISoundTriggerHwDefault14loadSoundModelERKNS0_5media12soundtrigger10SoundModelERKNSt3__110shared_ptrINS2_23ISoundTriggerHwCallbackEEEPi"
  },
  {
   "name" : "_ZN4aidl7android8hardware13soundtrigger322ISoundTriggerHwDefault14queryParameterEiNS0_5media12soundtrigger14ModelParameterEPNSt3__18optionalINS5_19ModelParameterRangeEEE"
  },
  {
   "name" : "_ZN4aidl7android8hardware13soundtrigger322ISoundTriggerHwDefault15stopRecognitionEi"
  },
  {
   "name" : "_ZN4aidl7android8hardware13soundtrigger322ISoundTriggerHwDefault16getInterfaceHashEPNSt3__112basic_stringIcNS4_11char_traitsIcEENS4_9allocatorIcEEEE"
  },
  {
   "name" : "_ZN4aidl7android8hardware13soundtrigger322ISoundTriggerHwDefault16startRecognitionEiiiRKNS0_5media12soundtrigger17RecognitionConfigE"
  },
  {
   "name" : "_ZN4aidl7android8hardware13soundtrigger322ISoundTriggerHwDefault16unloadSoundModelEi"
  },
  {
   "name" : "_ZN4aidl7android8hardware13soundtrigger322ISoundTriggerHwDefault19getInterfaceVersionEPi"
  },
  {
   "name" : "_ZN4aidl7android8hardware13soundtrigger322ISoundTriggerHwDefault20loadPhraseSoundModelERKNS0_5media12soundtrigger16PhraseSoundModelERKNSt3__110shared_ptrINS2_23ISoundTriggerHwCallbackEEEPi"
  },
  {
   "name" : "_ZN4aidl7android8hardware13soundtrigger322ISoundTriggerHwDefault21forceRecognitionEventEi"
  },
  {
   "name" : "_ZN4aidl7android8hardware13soundtrigger322ISoundTriggerHwDefault22registerGlobalCallbackERKNSt3__110shared_ptrINS2_29ISoundTriggerHwGlobalCallbackEEE"
  },
  {
   "name" : "_ZN4aidl7android8hardware13soundtrigger322ISoundTriggerHwDefault8asBinderEv"
  },
  {
   "name" : "_ZN4aidl7android8hardware13soundtrigger322ISoundTriggerHwDefault8isRemoteEv"
  },
  {
   "name" : "_ZN4aidl7android8hardware13soundtrigger323ISoundTriggerHwCallback10fromBinderERKN3ndk10SpAIBinderE"
  },
  {
   "name" : "_ZN4aidl7android8hardware13soundtrigger323ISoundTriggerHwCallback13writeToParcelEP7AParcelRKNSt3__110shared_ptrIS3_EE"
  },
  {
   "name" : "_ZN4aidl7android8hardware13soundtrigger323ISoundTriggerHwCallback14getDefaultImplEv"
  },
  {
   "name" : "_ZN4aidl7android8hardware13soundtrigger323ISoundTriggerHwCallback14readFromParcelEPK7AParcelPNSt3__110shared_ptrIS3_EE"
  },
  {
   "name" : "_ZN4aidl7android8hardware13soundtrigger323ISoundTriggerHwCallback14setDefaultImplERKNSt3__110shared_ptrIS3_EE"
  },
  {
   "name" : "_ZN4aidl7android8hardware13soundtrigger323ISoundTriggerHwCallbackC2Ev"
  },
  {
   "name" : "_ZN4aidl7android8hardware13soundtrigger323ISoundTriggerHwCallbackD0Ev"
  },
  {
   "name" : "_ZN4aidl7android8hardware13soundtrigger323ISoundTriggerHwCallbackD1Ev"
  },
  {
   "name" : "_ZN4aidl7android8hardware13soundtrigger323ISoundTriggerHwCallbackD2Ev"
  },
  {
   "name" : "_ZN4aidl7android8hardware13soundtrigger324BnSoundTriggerHwCallback12createBinderEv"
  },
  {
   "name" : "_ZN4aidl7android8hardware13soundtrigger324BnSoundTriggerHwCallback16getInterfaceHashEPNSt3__112basic_stringIcNS4_11char_traitsIcEENS4_9allocatorIcEEEE"
  },
  {
   "name" : "_ZN4aidl7android8hardware13soundtrigger324BnSoundTriggerHwCallback19getInterfaceVersionEPi"
  },
  {
   "name" : "_ZN4aidl7android8hardware13soundtrigger324BnSoundTriggerHwCallbackC2Ev"
  },
  {
   "name" : "_ZN4aidl7android8hardware13soundtrigger324BnSoundTriggerHwCallbackD0Ev"
  },
  {
   "name" : "_ZN4aidl7android8hardware13soundtrigger324BnSoundTriggerHwCallbackD1Ev"
  },
  {
   "name" : "_ZN4aidl7android8hardware13soundtrigger324BnSoundTriggerHwCallbackD2Ev"
  },
  {
   "name" : "_ZN4aidl7android8hardware13soundtrigger324BpSoundTriggerHwCallback13modelUnloadedEi"
  },
  {
   "name" : "_ZN4aidl7android8hardware13soundtrigger324BpSoundTriggerHwCallback16getInterfaceHashEPNSt3__112basic_stringIcNS4_11char_traitsIcEENS4_9allocatorIcEEEE"
  },
  {
   "name" : "_ZN4aidl7android8hardware13soundtrigger324BpSoundTriggerHwCallback19getInterfaceVersionEPi"
  },
  {
   "name" : "_ZN4aidl7android8hardware13soundtrigger324BpSoundTriggerHwCallback19recognitionCallbackEiRKNS0_5media12soundtrigger16RecognitionEventE"
  },
  {
   "name" : "_ZN4aidl7android8hardware13soundtrigger324BpSoundTriggerHwCallback25phraseRecognitionCallbackEiRKNS0_5media12soundtrigger22PhraseRecognitionEventE"
  },
  {
   "name" : "_ZN4aidl7android8hardware13soundtrigger324BpSoundTriggerHwCallbackC1ERKN3ndk10SpAIBinderE"
  },
  {
   "name" : "_ZN4aidl7android8hardware13soundtrigger324BpSoundTriggerHwCallbackC2ERKN3ndk10SpAIBinderE"
  },
  {
   "name" : "_ZN4aidl7android8hardware13soundtrigger324BpSoundTriggerHwCallbackD0Ev"
  },
  {
   "name" : "_ZN4aidl7android8hardware13soundtrigger324BpSoundTriggerHwCallbackD1Ev"
  },
  {
   "name" : "_ZN4aidl7android8hardware13soundtrigger324BpSoundTriggerHwCallbackD2Ev"
  },
  {
   "name" : "_ZN4aidl7android8hardware13soundtrigger329ISoundTriggerHwGlobalCallback10fromBinderERKN3ndk10SpAIBinderE"
  },
  {
   "name" : "_ZN4aidl7android8hardware13soundtrigger329ISoundTriggerHwGlobalCallback13writeToParcelEP7AParcelRKNSt3__110shared_ptrIS3_EE"
  },
  {
   "name" : "_ZN4aidl7android8hardware13soundtrigger329ISoundTriggerHwGlobalCallback14getDefaultImplEv"
  },
  {
   "name" : "_ZN4aidl7android8hardware13soundtrigger329ISoundTriggerHwGlobalCallback14readFromParcelEPK7AParcelPNSt3__110shared_ptrIS3_EE"
  },
  {
   "name" : "_ZN4aidl7android8hardware13soundtrigger329ISoundTriggerHwGlobalCallback14setDefaultImplERKNSt3__110shared_ptrIS3_EE"
  },
  {
   "name" : "_ZN4aidl7android8hardware13soundtrigger329ISoundTriggerHwGlobalCallbackC2Ev"
  },
  {
   "name" : "_ZN4aidl7android8hardware13soundtrigger329ISoundTriggerHwGlobalCallbackD0Ev"
  },
  {
   "name" : "_ZN4aidl7android8hardware13soundtrigger329ISoundTriggerHwGlobalCallbackD1Ev"
  },
  {
   "name" : "_ZN4aidl7android8hardware13soundtrigger329ISoundTriggerHwGlobalCallbackD2Ev"
  },
  {
   "name" : "_ZN4aidl7android8hardware13soundtrigger330BnSoundTriggerHwGlobalCallback12createBinderEv"
  },
  {
   "name" : "_ZN4aidl7android8hardware13soundtrigger330BnSoundTriggerHwGlobalCallback16getInterfaceHashEPNSt3__112basic_stringIcNS4_11char_traitsIcEENS4_9allocatorIcEEEE"
  },
  {
   "name" : "_ZN4aidl7android8hardware13soundtrigger330BnSoundTriggerHwGlobalCallback19getInterfaceVersionEPi"
  },
  {
   "name" : "_ZN4aidl7android8hardware13soundtrigger330BnSoundTriggerHwGlobalCallbackC2Ev"
  },
  {
   "name" : "_ZN4aidl7android8hardware13soundtrigger330BnSoundTriggerHwGlobalCallbackD0Ev"
  },
  {
   "name" : "_ZN4aidl7android8hardware13soundtrigger330BnSoundTriggerHwGlobalCallbackD1Ev"
  },
  {
   "name" : "_ZN4aidl7android8hardware13soundtrigger330BnSoundTriggerHwGlobalCallbackD2Ev"
  },
  {
   "name" : "_ZN4aidl7android8hardware13soundtrigger330BpSoundTriggerHwGlobalCallback16getInterfaceHashEPNSt3__112basic_stringIcNS4_11char_traitsIcEENS4_9allocatorIcEEEE"
  },
  {
   "name" : "_ZN4aidl7android8hardware13soundtrigger330BpSoundTriggerHwGlobalCallback19getInterfaceVersionEPi"
  },
  {
   "name" : "_ZN4aidl7android8hardware13soundtrigger330BpSoundTriggerHwGlobalCallback20onResourcesAvailableEv"
  },
  {
   "name" : "_ZN4aidl7android8hardware13soundtrigger330BpSoundTriggerHwGlobalCallbackC1ERKN3ndk10SpAIBinderE"
  },
  {
   "name" : "_ZN4aidl7android8hardware13soundtrigger330BpSoundTriggerHwGlobalCallbackC2ERKN3ndk10SpAIBinderE"
  },
  {
   "name" : "_ZN4aidl7android8hardware13soundtrigger330BpSoundTriggerHwGlobalCallbackD0Ev"
  },
  {
   "name" : "_ZN4aidl7android8hardware13soundtrigger330BpSoundTriggerHwGlobalCallbackD1Ev"
  },
  {
   "name" : "_ZN4aidl7android8hardware13soundtrigger330BpSoundTriggerHwGlobalCallbackD2Ev"
  },
  {
   "name" : "_ZN4aidl7android8hardware13soundtrigger330ISoundTriggerHwCallbackDefault13modelUnloadedEi"
  },
  {
   "name" : "_ZN4aidl7android8hardware13soundtrigger330ISoundTriggerHwCallbackDefault16getInterfaceHashEPNSt3__112basic_stringIcNS4_11char_traitsIcEENS4_9allocatorIcEEEE"
  },
  {
   "name" : "_ZN4aidl7android8hardware13soundtrigger330ISoundTriggerHwCallbackDefault19getInterfaceVersionEPi"
  },
  {
   "name" : "_ZN4aidl7android8hardware13soundtrigger330ISoundTriggerHwCallbackDefault19recognitionCallbackEiRKNS0_5media12soundtrigger16RecognitionEventE"
  },
  {
   "name" : "_ZN4aidl7android8hardware13soundtrigger330ISoundTriggerHwCallbackDefault25phraseRecognitionCallbackEiRKNS0_5media12soundtrigger22PhraseRecognitionEventE"
  },
  {
   "name" : "_ZN4aidl7android8hardware13soundtrigger330ISoundTriggerHwCallbackDefault8asBinderEv"
  },
  {
   "name" : "_ZN4aidl7android8hardware13soundtrigger330ISoundTriggerHwCallbackDefault8isRemoteEv"
  },
  {
   "name" : "_ZN4aidl7android8hardware13soundtrigger336ISoundTriggerHwGlobalCallbackDefault16getInterfaceHashEPNSt3__112basic_stringIcNS4_11char_traitsIcEENS4_9allocatorIcEEEE"
  },
  {
   "name" : "_ZN4aidl7android8hardware13soundtrigger336ISoundTriggerHwGlobalCallbackDefault19getInterfaceVersionEPi"
  },
  {
   "name" : "_ZN4aidl7android8hardware13soundtrigger336ISoundTriggerHwGlobalCallbackDefault20onResourcesAvailableEv"
  },
  {
   "name" : "_ZN4aidl7android8hardware13soundtrigger336ISoundTriggerHwGlobalCallbackDefault8asBinderEv"
  },
  {
   "name" : "_ZN4aidl7android8hardware13soundtrigger336ISoundTriggerHwGlobalCallbackDefault8isRemoteEv"
  },
  {
   "binding" : "weak",
   "name" : "_ZNSt3__110shared_ptrIN4aidl7android8hardware13soundtrigger315ISoundTriggerHwEED2Ev"
  },
  {
   "binding" : "weak",
   "name" : "_ZNSt3__110shared_ptrIN4aidl7android8hardware13soundtrigger323ISoundTriggerHwCallbackEED2Ev"
  },
  {
   "binding" : "weak",
   "name" : "_ZNSt3__110shared_ptrIN4aidl7android8hardware13soundtrigger329ISoundTriggerHwGlobalCallbackEED2Ev"
  },
  {
   "binding" : "weak",
   "name" : "_ZNSt3__120__shared_ptr_pointerIPN3ndk13SharedRefBaseENS_14default_deleteIS2_EENS_9allocatorIS2_EEE16__on_zero_sharedEv"
  },
  {
   "binding" : "weak",
   "name" : "_ZNSt3__120__shared_ptr_pointerIPN3ndk13SharedRefBaseENS_14default_deleteIS2_EENS_9allocatorIS2_EEE21__on_zero_shared_weakEv"
  }
 ],
 "elf_objects" :
 [
  {
   "binding" : "weak",
   "name" : "_ZGVN4aidl7android8hardware13soundtrigger315ISoundTriggerHw4hashE"
  },
  {
   "binding" : "weak",
   "name" : "_ZGVN4aidl7android8hardware13soundtrigger323ISoundTriggerHwCallback4hashE"
  },
  {
   "binding" : "weak",
   "name" : "_ZGVN4aidl7android8hardware13soundtrigger329ISoundTriggerHwGlobalCallback4hashE"
  },
  {
   "name" : "_ZN4aidl7android8hardware13soundtrigger315ISoundTriggerHw10descriptorE"
  },
  {
   "name" : "_ZN4aidl7android8hardware13soundtrigger315ISoundTriggerHw12default_implE"
  },
  {
   "binding" : "weak",
   "name" : "_ZN4aidl7android8hardware13soundtrigger315ISoundTriggerHw4hashE"
  },
  {
   "name" : "_ZN4aidl7android8hardware13soundtrigger323ISoundTriggerHwCallback10descriptorE"
  },
  {
   "name" : "_ZN4aidl7android8hardware13soundtrigger323ISoundTriggerHwCallback12default_implE"
  },
  {
   "binding" : "weak",
   "name" : "_ZN4aidl7android8hardware13soundtrigger323ISoundTriggerHwCallback4hashE"
  },
  {
   "name" : "_ZN4aidl7android8hardware13soundtrigger329ISoundTriggerHwGlobalCallback10descriptorE"
  },
  {
   "name" : "_ZN4aidl7android8hardware13soundtrigger329ISoundTriggerHwGlobalCallback12default_implE"
  },
  {
   "binding" : "weak",
   "name" : "_ZN4aidl7android8hardware13soundtrigger329ISoundTriggerHwGlobalCallback4hashE"
  },
  {
   "binding" : "weak",
   "name" : "_ZTVN3ndk12BnCInterfaceIN4aidl7android8hardware13soundtrigger315ISoundTriggerHwEEE"
  },
  {
   "binding" : "weak",
   "name" : "_ZTVN3ndk12BnCInterfaceIN4aidl7android8hardware13soundtrigger323ISoundTriggerHwCallbackEEE"
  },
  {
   "binding" : "weak",
   "name" : "_ZTVN3ndk12BnCInterfaceIN4aidl7android8hardware13soundtrigger329ISoundTriggerHwGlobalCallbackEEE"
  },
  {
   "binding" : "weak",
   "name" : "_ZTVN3ndk12BpCInterfaceIN4aidl7android8hardware13soundtrigger315ISoundTriggerHwEEE"
  },
  {
   "binding" : "weak",
   "name" : "_ZTVN3ndk12BpCInterfaceIN4aidl7android8hardware13soundtrigger323ISoundTriggerHwCallbackEEE"
  },
  {
   "binding" : "weak",
   "name" : "_ZTVN3ndk12BpCInterfaceIN4aidl7android8hardware13soundtrigger329ISoundTriggerHwGlobalCallbackEEE"
  },
  {
   "binding" : "weak",
   "name" : "_ZTVN3ndk13SharedRefBaseE"
  },
  {
   "name" : "_ZTVN4aidl7android8hardware13soundtrigger315ISoundTriggerHwE"
  },
  {
   "name" : "_ZTVN4aidl7android8hardware13soundtrigger316BnSoundTriggerHwE"
  },
  {
   "name" : "_ZTVN4aidl7android8hardware13soundtrigger316BpSoundTriggerHwE"
  },
  {
   "name" : "_ZTVN4aidl7android8hardware13soundtrigger322ISoundTriggerHwDefaultE"
  },
  {
   "name" : "_ZTVN4aidl7android8hardware13soundtrigger323ISoundTriggerHwCallbackE"
  },
  {
   "name" : "_ZTVN4aidl7android8hardware13soundtrigger324BnSoundTriggerHwCallbackE"
  },
  {
   "name" : "_ZTVN4aidl7android8hardware13soundtrigger324BpSoundTriggerHwCallbackE"
  },
  {
   "name" : "_ZTVN4aidl7android8hardware13soundtrigger329ISoundTriggerHwGlobalCallbackE"
  },
  {
   "name" : "_ZTVN4aidl7android8hardware13soundtrigger330BnSoundTriggerHwGlobalCallbackE"
  },
  {
   "name" : "_ZTVN4aidl7android8hardware13soundtrigger330BpSoundTriggerHwGlobalCallbackE"
  },
  {
   "name" : "_ZTVN4aidl7android8hardware13soundtrigger330ISoundTriggerHwCallbackDefaultE"
  },
  {
   "name" : "_ZTVN4aidl7android8hardware13soundtrigger336ISoundTriggerHwGlobalCallbackDefaultE"
  },
  {
   "binding" : "weak",
   "name" : "_ZTVNSt3__120__shared_ptr_pointerIPN3ndk13SharedRefBaseENS_14default_deleteIS2_EENS_9allocatorIS2_EEEE"
  }
 ],
 "enum_types" :
 [
  {
   "alignment" : 4,
   "enum_fields" :
   [
    {
     "enum_field_value" : 1,
     "name" : "FLAG_ONEWAY"
    }
   ],
   "linker_set_key" : "_ZTI12$FLAG_ONEWAY",
   "name" : "(unnamed enum at frameworks/native/libs/binder/ndk/include_ndk/android/binder_ibinder.h:43:1)",
   "referenced_type" : "_ZTI12$FLAG_ONEWAY",
   "self_type" : "_ZTI12$FLAG_ONEWAY",
   "size" : 4,
   "source_file" : "frameworks/native/libs/binder/ndk/include_ndk/android/binder_ibinder.h",
   "underlying_type" : "_ZTIj"
  },
  {
   "alignment" : 4,
   "enum_fields" :
   [
    {
     "enum_field_value" : 0,
     "name" : "EX_NONE"
    },
    {
     "enum_field_value" : -1,
     "name" : "EX_SECURITY"
    },
    {
     "enum_field_value" : -2,
     "name" : "EX_BAD_PARCELABLE"
    },
    {
     "enum_field_value" : -3,
     "name" : "EX_ILLEGAL_ARGUMENT"
    },
    {
     "enum_field_value" : -4,
     "name" : "EX_NULL_POINTER"
    },
    {
     "enum_field_value" : -5,
     "name" : "EX_ILLEGAL_STATE"
    },
    {
     "enum_field_value" : -6,
     "name" : "EX_NETWORK_MAIN_THREAD"
    },
    {
     "enum_field_value" : -7,
     "name" : "EX_UNSUPPORTED_OPERATION"
    },
    {
     "enum_field_value" : -8,
     "name" : "EX_SERVICE_SPECIFIC"
    },
    {
     "enum_field_value" : -9,
     "name" : "EX_PARCELABLE"
    },
    {
     "enum_field_value" : -129,
     "name" : "EX_TRANSACTION_FAILED"
    }
   ],
   "linker_set_key" : "_ZTI18$EX_BAD_PARCELABLE",
   "name" : "(unnamed enum at frameworks/native/libs/binder/ndk/include_ndk/android/binder_status.h:94:1)",
   "referenced_type" : "_ZTI18$EX_BAD_PARCELABLE",
   "self_type" : "_ZTI18$EX_BAD_PARCELABLE",
   "size" : 4,
   "source_file" : "frameworks/native/libs/binder/ndk/include_ndk/android/binder_status.h",
   "underlying_type" : "_ZTIi"
  },
  {
   "alignment" : 4,
   "enum_fields" :
   [
    {
     "enum_field_value" : 268435456,
     "name" : "FLAG_PRIVATE_LOCAL"
    }
   ],
   "linker_set_key" : "_ZTI19$FLAG_PRIVATE_LOCAL",
   "name" : "(unnamed enum at frameworks/native/libs/binder/ndk/include_platform/android/binder_stability.h:35:1)",
   "referenced_type" : "_ZTI19$FLAG_PRIVATE_LOCAL",
   "self_type" : "_ZTI19$FLAG_PRIVATE_LOCAL",
   "size" : 4,
   "source_file" : "frameworks/native/libs/binder/ndk/include_platform/android/binder_stability.h",
   "underlying_type" : "_ZTIj"
  },
  {
   "alignment" : 4,
   "enum_fields" :
   [
    {
     "enum_field_value" : 268435456,
     "name" : "FLAG_PRIVATE_VENDOR"
    }
   ],
   "linker_set_key" : "_ZTI20$FLAG_PRIVATE_VENDOR",
   "name" : "(unnamed enum at frameworks/native/libs/binder/ndk/include_platform/android/binder_stability.h:26:1)",
   "referenced_type" : "_ZTI20$FLAG_PRIVATE_VENDOR",
   "self_type" : "_ZTI20$FLAG_PRIVATE_VENDOR",
   "size" : 4,
   "source_file" : "frameworks/native/libs/binder/ndk/include_platform/android/binder_stability.h",
   "underlying_type" : "_ZTIj"
  },
  {
   "alignment" : 4,
   "enum_fields" :
   [
    {
     "enum_field_value" : 0,
     "name" : "STATUS_OK"
    },
    {
     "enum_field_value" : -2147483648,
     "name" : "STATUS_UNKNOWN_ERROR"
    },
    {
     "enum_field_value" : -12,
     "name" : "STATUS_NO_MEMORY"
    },
    {
     "enum_field_value" : -38,
     "name" : "STATUS_INVALID_OPERATION"
    },
    {
     "enum_field_value" : -22,
     "name" : "STATUS_BAD_VALUE"
    },
    {
     "enum_field_value" : -2147483647,
     "name" : "STATUS_BAD_TYPE"
    },
    {
     "enum_field_value" : -2,
     "name" : "STATUS_NAME_NOT_FOUND"
    },
    {
     "enum_field_value" : -1,
     "name" : "STATUS_PERMISSION_DENIED"
    },
    {
     "enum_field_value" : -19,
     "name" : "STATUS_NO_INIT"
    },
    {
     "enum_field_value" : -17,
     "name" : "STATUS_ALREADY_EXISTS"
    },
    {
     "enum_field_value" : -32,
     "name" : "STATUS_DEAD_OBJECT"
    },
    {
     "enum_field_value" : -2147483646,
     "name" : "STATUS_FAILED_TRANSACTION"
    },
    {
     "enum_field_value" : -75,
     "name" : "STATUS_BAD_INDEX"
    },
    {
     "enum_field_value" : -61,
     "name" : "STATUS_NOT_ENOUGH_DATA"
    },
    {
     "enum_field_value" : -11,
     "name" : "STATUS_WOULD_BLOCK"
    },
    {
     "enum_field_value" : -110,
     "name" : "STATUS_TIMED_OUT"
    },
    {
     "enum_field_value" : -74,
     "name" : "STATUS_UNKNOWN_TRANSACTION"
    },
    {
     "enum_field_value" : -2147483641,
     "name" : "STATUS_FDS_NOT_ALLOWED"
    },
    {
     "enum_field_value" : -2147483640,
     "name" : "STATUS_UNEXPECTED_NULL"
    }
   ],
   "linker_set_key" : "_ZTI22$STATUS_ALREADY_EXISTS",
   "name" : "(unnamed enum at frameworks/native/libs/binder/ndk/include_ndk/android/binder_status.h:60:1)",
   "referenced_type" : "_ZTI22$STATUS_ALREADY_EXISTS",
   "self_type" : "_ZTI22$STATUS_ALREADY_EXISTS",
   "size" : 4,
   "source_file" : "frameworks/native/libs/binder/ndk/include_ndk/android/binder_status.h",
   "underlying_type" : "_ZTIi"
  },
  {
   "alignment" : 4,
   "enum_fields" :
   [
    {
     "enum_field_value" : 1,
     "name" : "FIRST_CALL_TRANSACTION"
    },
    {
     "enum_field_value" : 16777215,
     "name" : "LAST_CALL_TRANSACTION"
    }
   ],
   "linker_set_key" : "_ZTI23$FIRST_CALL_TRANSACTION",
   "name" : "(unnamed enum at frameworks/native/libs/binder/ndk/include_ndk/android/binder_ibinder.h:58:1)",
   "referenced_type" : "_ZTI23$FIRST_CALL_TRANSACTION",
   "self_type" : "_ZTI23$FIRST_CALL_TRANSACTION",
   "size" : 4,
   "source_file" : "frameworks/native/libs/binder/ndk/include_ndk/android/binder_ibinder.h",
   "underlying_type" : "_ZTIj"
  },
  {
   "alignment" : 4,
   "enum_fields" :
   [
    {
     "enum_field_value" : 0,
     "name" : "ndk::STABILITY_LOCAL"
    },
    {
     "enum_field_value" : 1,
     "name" : "ndk::STABILITY_VINTF"
    }
   ],
   "linker_set_key" : "_ZTIN3ndk16$STABILITY_LOCALE",
   "name" : "ndk::(unnamed enum at frameworks/native/libs/binder/ndk/include_cpp/android/binder_parcelable_utils.h:34:1)",
   "referenced_type" : "_ZTIN3ndk16$STABILITY_LOCALE",
   "self_type" : "_ZTIN3ndk16$STABILITY_LOCALE",
   "size" : 4,
   "source_file" : "frameworks/native/libs/binder/ndk/include_cpp/android/binder_parcelable_utils.h",
   "underlying_type" : "_ZTIj"
  },
  {
   "alignment" : 4,
   "enum_fields" :
   [
    {
     "enum_field_value" : -1,
     "name" : "aidl::android::media::soundtrigger::ModelParameter::INVALID"
    },
    {
     "enum_field_value" : 0,
     "name" : "aidl::android::media::soundtrigger::ModelParameter::THRESHOLD_FACTOR"
    }
   ],
   "linker_set_key" : "_ZTIN4aidl7android5media12soundtrigger14ModelParameterE",
   "name" : "aidl::android::media::soundtrigger::ModelParameter",
   "referenced_type" : "_ZTIN4aidl7android5media12soundtrigger14ModelParameterE",
   "self_type" : "_ZTIN4aidl7android5media12soundtrigger14ModelParameterE",
   "size" : 4,
   "source_file" : "out/soong/.intermediates/frameworks/base/media/android.media.soundtrigger.types-V1-ndk-source/gen/include/aidl/android/media/soundtrigger/ModelParameter.h",
   "underlying_type" : "_ZTIi"
  },
  {
   "alignment" : 4,
   "enum_fields" :
   [
    {
     "enum_field_value" : -1,
     "name" : "aidl::android::media::soundtrigger::SoundModelType::INVALID"
    },
    {
     "enum_field_value" : 0,
     "name" : "aidl::android::media::soundtrigger::SoundModelType::KEYPHRASE"
    },
    {
     "enum_field_value" : 1,
     "name" : "aidl::android::media::soundtrigger::SoundModelType::GENERIC"
    }
   ],
   "linker_set_key" : "_ZTIN4aidl7android5media12soundtrigger14SoundModelTypeE",
   "name" : "aidl::android::media::soundtrigger::SoundModelType",
   "referenced_type" : "_ZTIN4aidl7android5media12soundtrigger14SoundModelTypeE",
   "self_type" : "_ZTIN4aidl7android5media12soundtrigger14SoundModelTypeE",
   "size" : 4,
   "source_file" : "out/soong/.intermediates/frameworks/base/media/android.media.soundtrigger.types-V1-ndk-source/gen/include/aidl/android/media/soundtrigger/SoundModelType.h",
   "underlying_type" : "_ZTIi"
  },
  {
   "alignment" : 4,
   "enum_fields" :
   [
    {
     "enum_field_value" : -1,
     "name" : "aidl::android::media::soundtrigger::RecognitionStatus::INVALID"
    },
    {
     "enum_field_value" : 0,
     "name" : "aidl::android::media::soundtrigger::RecognitionStatus::SUCCESS"
    },
    {
     "enum_field_value" : 1,
     "name" : "aidl::android::media::soundtrigger::RecognitionStatus::ABORTED"
    },
    {
     "enum_field_value" : 2,
     "name" : "aidl::android::media::soundtrigger::RecognitionStatus::FAILURE"
    },
    {
     "enum_field_value" : 3,
     "name" : "aidl::android::media::soundtrigger::RecognitionStatus::FORCED"
    }
   ],
   "linker_set_key" : "_ZTIN4aidl7android5media12soundtrigger17RecognitionStatusE",
   "name" : "aidl::android::media::soundtrigger::RecognitionStatus",
   "referenced_type" : "_ZTIN4aidl7android5media12soundtrigger17RecognitionStatusE",
   "self_type" : "_ZTIN4aidl7android5media12soundtrigger17RecognitionStatusE",
   "size" : 4,
   "source_file" : "out/soong/.intermediates/frameworks/base/media/android.media.soundtrigger.types-V1-ndk-source/gen/include/aidl/android/media/soundtrigger/RecognitionStatus.h",
   "underlying_type" : "_ZTIi"
  },
  {
   "alignment" : 4,
   "enum_fields" :
   [
    {
     "enum_field_value" : -1,
     "name" : "aidl::android::media::audio::common::AudioUsage::INVALID"
    },
    {
     "enum_field_value" : 0,
     "name" : "aidl::android::media::audio::common::AudioUsage::UNKNOWN"
    },
    {
     "enum_field_value" : 1,
     "name" : "aidl::android::media::audio::common::AudioUsage::MEDIA"
    },
    {
     "enum_field_value" : 2,
     "name" : "aidl::android::media::audio::common::AudioUsage::VOICE_COMMUNICATION"
    },
    {
     "enum_field_value" : 3,
     "name" : "aidl::android::media::audio::common::AudioUsage::VOICE_COMMUNICATION_SIGNALLING"
    },
    {
     "enum_field_value" : 4,
     "name" : "aidl::android::media::audio::common::AudioUsage::ALARM"
    },
    {
     "enum_field_value" : 5,
     "name" : "aidl::android::media::audio::common::AudioUsage::NOTIFICATION"
    },
    {
     "enum_field_value" : 6,
     "name" : "aidl::android::media::audio::common::AudioUsage::NOTIFICATION_TELEPHONY_RINGTONE"
    },
    {
     "enum_field_value" : 7,
     "name" : "aidl::android::media::audio::common::AudioUsage::SYS_RESERVED_NOTIFICATION_COMMUNICATION_REQUEST"
    },
    {
     "enum_field_value" : 8,
     "name" : "aidl::android::media::audio::common::AudioUsage::SYS_RESERVED_NOTIFICATION_COMMUNICATION_INSTANT"
    },
    {
     "enum_field_value" : 9,
     "name" : "aidl::android::media::audio::common::AudioUsage::SYS_RESERVED_NOTIFICATION_COMMUNICATION_DELAYED"
    },
    {
     "enum_field_value" : 10,
     "name" : "aidl::android::media::audio::common::AudioUsage::NOTIFICATION_EVENT"
    },
    {
     "enum_field_value" : 11,
     "name" : "aidl::android::media::audio::common::AudioUsage::ASSISTANCE_ACCESSIBILITY"
    },
    {
     "enum_field_value" : 12,
     "name" : "aidl::android::media::audio::common::AudioUsage::ASSISTANCE_NAVIGATION_GUIDANCE"
    },
    {
     "enum_field_value" : 13,
     "name" : "aidl::android::media::audio::common::AudioUsage::ASSISTANCE_SONIFICATION"
    },
    {
     "enum_field_value" : 14,
     "name" : "aidl::android::media::audio::common::AudioUsage::GAME"
    },
    {
     "enum_field_value" : 15,
     "name" : "aidl::android::media::audio::common::AudioUsage::VIRTUAL_SOURCE"
    },
    {
     "enum_field_value" : 16,
     "name" : "aidl::android::media::audio::common::AudioUsage::ASSISTANT"
    },
    {
     "enum_field_value" : 17,
     "name" : "aidl::android::media::audio::common::AudioUsage::CALL_ASSISTANT"
    },
    {
     "enum_field_value" : 1000,
     "name" : "aidl::android::media::audio::common::AudioUsage::EMERGENCY"
    },
    {
     "enum_field_value" : 1001,
     "name" : "aidl::android::media::audio::common::AudioUsage::SAFETY"
    },
    {
     "enum_field_value" : 1002,
     "name" : "aidl::android::media::audio::common::AudioUsage::VEHICLE_STATUS"
    },
    {
     "enum_field_value" : 1003,
     "name" : "aidl::android::media::audio::common::AudioUsage::ANNOUNCEMENT"
    }
   ],
   "linker_set_key" : "_ZTIN4aidl7android5media5audio6common10AudioUsageE",
   "name" : "aidl::android::media::audio::common::AudioUsage",
   "referenced_type" : "_ZTIN4aidl7android5media5audio6common10AudioUsageE",
   "self_type" : "_ZTIN4aidl7android5media5audio6common10AudioUsageE",
   "size" : 4,
   "source_file" : "out/soong/.intermediates/frameworks/base/media/android.media.audio.common.types-V1-ndk-source/gen/include/aidl/android/media/audio/common/AudioUsage.h",
   "underlying_type" : "_ZTIi"
  },
  {
   "alignment" : 1,
   "enum_fields" :
   [
    {
     "enum_field_value" : 0,
     "name" : "aidl::android::media::audio::common::AudioFormatType::DEFAULT"
    },
    {
     "enum_field_value" : 0,
     "name" : "aidl::android::media::audio::common::AudioFormatType::NON_PCM"
    },
    {
     "enum_field_value" : 1,
     "name" : "aidl::android::media::audio::common::AudioFormatType::PCM"
    },
    {
     "enum_field_value" : -1,
     "name" : "aidl::android::media::audio::common::AudioFormatType::SYS_RESERVED_INVALID"
    }
   ],
   "linker_set_key" : "_ZTIN4aidl7android5media5audio6common15AudioFormatTypeE",
   "name" : "aidl::android::media::audio::common::AudioFormatType",
   "referenced_type" : "_ZTIN4aidl7android5media5audio6common15AudioFormatTypeE",
   "self_type" : "_ZTIN4aidl7android5media5audio6common15AudioFormatTypeE",
   "size" : 1,
   "source_file" : "out/soong/.intermediates/frameworks/base/media/android.media.audio.common.types-V1-ndk-source/gen/include/aidl/android/media/audio/common/AudioFormatType.h",
   "underlying_type" : "_ZTIa"
  },
  {
   "alignment" : 4,
   "enum_fields" :
   [
    {
     "enum_field_value" : -2,
     "name" : "aidl::android::media::audio::common::AudioStreamType::INVALID"
    },
    {
     "enum_field_value" : -1,
     "name" : "aidl::android::media::audio::common::AudioStreamType::SYS_RESERVED_DEFAULT"
    },
    {
     "enum_field_value" : 0,
     "name" : "aidl::android::media::audio::common::AudioStreamType::VOICE_CALL"
    },
    {
     "enum_field_value" : 1,
     "name" : "aidl::android::media::audio::common::AudioStreamType::SYSTEM"
    },
    {
     "enum_field_value" : 2,
     "name" : "aidl::android::media::audio::common::AudioStreamType::RING"
    },
    {
     "enum_field_value" : 3,
     "name" : "aidl::android::media::audio::common::AudioStreamType::MUSIC"
    },
    {
     "enum_field_value" : 4,
     "name" : "aidl::android::media::audio::common::AudioStreamType::ALARM"
    },
    {
     "enum_field_value" : 5,
     "name" : "aidl::android::media::audio::common::AudioStreamType::NOTIFICATION"
    },
    {
     "enum_field_value" : 6,
     "name" : "aidl::android::media::audio::common::AudioStreamType::BLUETOOTH_SCO"
    },
    {
     "enum_field_value" : 7,
     "name" : "aidl::android::media::audio::common::AudioStreamType::ENFORCED_AUDIBLE"
    },
    {
     "enum_field_value" : 8,
     "name" : "aidl::android::media::audio::common::AudioStreamType::DTMF"
    },
    {
     "enum_field_value" : 9,
     "name" : "aidl::android::media::audio::common::AudioStreamType::TTS"
    },
    {
     "enum_field_value" : 10,
     "name" : "aidl::android::media::audio::common::AudioStreamType::ACCESSIBILITY"
    },
    {
     "enum_field_value" : 11,
     "name" : "aidl::android::media::audio::common::AudioStreamType::ASSISTANT"
    },
    {
     "enum_field_value" : 12,
     "name" : "aidl::android::media::audio::common::AudioStreamType::SYS_RESERVED_REROUTING"
    },
    {
     "enum_field_value" : 13,
     "name" : "aidl::android::media::audio::common::AudioStreamType::SYS_RESERVED_PATCH"
    },
    {
     "enum_field_value" : 14,
     "name" : "aidl::android::media::audio::common::AudioStreamType::CALL_ASSISTANT"
    }
   ],
   "linker_set_key" : "_ZTIN4aidl7android5media5audio6common15AudioStreamTypeE",
   "name" : "aidl::android::media::audio::common::AudioStreamType",
   "referenced_type" : "_ZTIN4aidl7android5media5audio6common15AudioStreamTypeE",
   "self_type" : "_ZTIN4aidl7android5media5audio6common15AudioStreamTypeE",
   "size" : 4,
   "source_file" : "out/soong/.intermediates/frameworks/base/media/android.media.audio.common.types-V1-ndk-source/gen/include/aidl/android/media/audio/common/AudioStreamType.h",
   "underlying_type" : "_ZTIi"
  },
  {
   "alignment" : 4,
   "enum_fields" :
   [
    {
     "enum_field_value" : 7,
     "name" : "aidl::android::media::audio::common::AudioChannelLayout::LAYOUT_TRI"
    }
   ],
   "linker_set_key" : "_ZTIN4aidl7android5media5audio6common18AudioChannelLayout11$LAYOUT_TRIE",
   "name" : "aidl::android::media::audio::common::AudioChannelLayout::(unnamed enum at out/soong/.intermediates/frameworks/base/media/android.media.audio.common.types-V1-ndk-source/gen/include/aidl/android/media/audio/common/AudioChannelLayout.h:145:3)",
   "referenced_type" : "_ZTIN4aidl7android5media5audio6common18AudioChannelLayout11$LAYOUT_TRIE",
   "self_type" : "_ZTIN4aidl7android5media5audio6common18AudioChannelLayout11$LAYOUT_TRIE",
   "size" : 4,
   "source_file" : "out/soong/.intermediates/frameworks/base/media/android.media.audio.common.types-V1-ndk-source/gen/include/aidl/android/media/audio/common/AudioChannelLayout.h",
   "underlying_type" : "_ZTIi"
  },
  {
   "alignment" : 4,
   "enum_fields" :
   [
    {
     "enum_field_value" : 1,
     "name" : "aidl::android::media::audio::common::AudioChannelLayout::LAYOUT_MONO"
    }
   ],
   "linker_set_key" : "_ZTIN4aidl7android5media5audio6common18AudioChannelLayout12$LAYOUT_MONOE",
   "name" : "aidl::android::media::audio::common::AudioChannelLayout::(unnamed enum at out/soong/.intermediates/frameworks/base/media/android.media.audio.common.types-V1-ndk-source/gen/include/aidl/android/media/audio/common/AudioChannelLayout.h:142:3)",
   "referenced_type" : "_ZTIN4aidl7android5media5audio6common18AudioChannelLayout12$LAYOUT_MONOE",
   "self_type" : "_ZTIN4aidl7android5media5audio6common18AudioChannelLayout12$LAYOUT_MONOE",
   "size" : 4,
   "source_file" : "out/soong/.intermediates/frameworks/base/media/android.media.audio.common.types-V1-ndk-source/gen/include/aidl/android/media/audio/common/AudioChannelLayout.h",
   "underlying_type" : "_ZTIi"
  },
  {
   "alignment" : 4,
   "enum_fields" :
   [
    {
     "enum_field_value" : 51,
     "name" : "aidl::android::media::audio::common::AudioChannelLayout::LAYOUT_QUAD"
    }
   ],
   "linker_set_key" : "_ZTIN4aidl7android5media5audio6common18AudioChannelLayout12$LAYOUT_QUADE",
   "name" : "aidl::android::media::audio::common::AudioChannelLayout::(unnamed enum at out/soong/.intermediates/frameworks/base/media/android.media.audio.common.types-V1-ndk-source/gen/include/aidl/android/media/audio/common/AudioChannelLayout.h:152:3)",
   "referenced_type" : "_ZTIN4aidl7android5media5audio6common18AudioChannelLayout12$LAYOUT_QUADE",
   "self_type" : "_ZTIN4aidl7android5media5audio6common18AudioChannelLayout12$LAYOUT_QUADE",
   "size" : 4,
   "source_file" : "out/soong/.intermediates/frameworks/base/media/android.media.audio.common.types-V1-ndk-source/gen/include/aidl/android/media/audio/common/AudioChannelLayout.h",
   "underlying_type" : "_ZTIi"
  },
  {
   "alignment" : 4,
   "enum_fields" :
   [
    {
     "enum_field_value" : 1,
     "name" : "aidl::android::media::audio::common::AudioChannelLayout::INDEX_MASK_1"
    }
   ],
   "linker_set_key" : "_ZTIN4aidl7android5media5audio6common18AudioChannelLayout13$INDEX_MASK_1E",
   "name" : "aidl::android::media::audio::common::AudioChannelLayout::(unnamed enum at out/soong/.intermediates/frameworks/base/media/android.media.audio.common.types-V1-ndk-source/gen/include/aidl/android/media/audio/common/AudioChannelLayout.h:118:3)",
   "referenced_type" : "_ZTIN4aidl7android5media5audio6common18AudioChannelLayout13$INDEX_MASK_1E",
   "self_type" : "_ZTIN4aidl7android5media5audio6common18AudioChannelLayout13$INDEX_MASK_1E",
   "size" : 4,
   "source_file" : "out/soong/.intermediates/frameworks/base/media/android.media.audio.common.types-V1-ndk-source/gen/include/aidl/android/media/audio/common/AudioChannelLayout.h",
   "underlying_type" : "_ZTIi"
  },
  {
   "alignment" : 4,
   "enum_fields" :
   [
    {
     "enum_field_value" : 3,
     "name" : "aidl::android::media::audio::common::AudioChannelLayout::INDEX_MASK_2"
    }
   ],
   "linker_set_key" : "_ZTIN4aidl7android5media5audio6common18AudioChannelLayout13$INDEX_MASK_2E",
   "name" : "aidl::android::media::audio::common::AudioChannelLayout::(unnamed enum at out/soong/.intermediates/frameworks/base/media/android.media.audio.common.types-V1-ndk-source/gen/include/aidl/android/media/audio/common/AudioChannelLayout.h:119:3)",
   "referenced_type" : "_ZTIN4aidl7android5media5audio6common18AudioChannelLayout13$INDEX_MASK_2E",
   "self_type" : "_ZTIN4aidl7android5media5audio6common18AudioChannelLayout13$INDEX_MASK_2E",
   "size" : 4,
   "source_file" : "out/soong/.intermediates/frameworks/base/media/android.media.audio.common.types-V1-ndk-source/gen/include/aidl/android/media/audio/common/AudioChannelLayout.h",
   "underlying_type" : "_ZTIi"
  },
  {
   "alignment" : 4,
   "enum_fields" :
   [
    {
     "enum_field_value" : 7,
     "name" : "aidl::android::media::audio::common::AudioChannelLayout::INDEX_MASK_3"
    }
   ],
   "linker_set_key" : "_ZTIN4aidl7android5media5audio6common18AudioChannelLayout13$INDEX_MASK_3E",
   "name" : "aidl::android::media::audio::common::AudioChannelLayout::(unnamed enum at out/soong/.intermediates/frameworks/base/media/android.media.audio.common.types-V1-ndk-source/gen/include/aidl/android/media/audio/common/AudioChannelLayout.h:120:3)",
   "referenced_type" : "_ZTIN4aidl7android5media5audio6common18AudioChannelLayout13$INDEX_MASK_3E",
   "self_type" : "_ZTIN4aidl7android5media5audio6common18AudioChannelLayout13$INDEX_MASK_3E",
   "size" : 4,
   "source_file" : "out/soong/.intermediates/frameworks/base/media/android.media.audio.common.types-V1-ndk-source/gen/include/aidl/android/media/audio/common/AudioChannelLayout.h",
   "underlying_type" : "_ZTIi"
  },
  {
   "alignment" : 4,
   "enum_fields" :
   [
    {
     "enum_field_value" : 15,
     "name" : "aidl::android::media::audio::common::AudioChannelLayout::INDEX_MASK_4"
    }
   ],
   "linker_set_key" : "_ZTIN4aidl7android5media5audio6common18AudioChannelLayout13$INDEX_MASK_4E",
   "name" : "aidl::android::media::audio::common::AudioChannelLayout::(unnamed enum at out/soong/.intermediates/frameworks/base/media/android.media.audio.common.types-V1-ndk-source/gen/include/aidl/android/media/audio/common/AudioChannelLayout.h:121:3)",
   "referenced_type" : "_ZTIN4aidl7android5media5audio6common18AudioChannelLayout13$INDEX_MASK_4E",
   "self_type" : "_ZTIN4aidl7android5media5audio6common18AudioChannelLayout13$INDEX_MASK_4E",
   "size" : 4,
   "source_file" : "out/soong/.intermediates/frameworks/base/media/android.media.audio.common.types-V1-ndk-source/gen/include/aidl/android/media/audio/common/AudioChannelLayout.h",
   "underlying_type" : "_ZTIi"
  },
  {
   "alignment" : 4,
   "enum_fields" :
   [
    {
     "enum_field_value" : 31,
     "name" : "aidl::android::media::audio::common::AudioChannelLayout::INDEX_MASK_5"
    }
   ],
   "linker_set_key" : "_ZTIN4aidl7android5media5audio6common18AudioChannelLayout13$INDEX_MASK_5E",
   "name" : "aidl::android::media::audio::common::AudioChannelLayout::(unnamed enum at out/soong/.intermediates/frameworks/base/media/android.media.audio.common.types-V1-ndk-source/gen/include/aidl/android/media/audio/common/AudioChannelLayout.h:122:3)",
   "referenced_type" : "_ZTIN4aidl7android5media5audio6common18AudioChannelLayout13$INDEX_MASK_5E",
   "self_type" : "_ZTIN4aidl7android5media5audio6common18AudioChannelLayout13$INDEX_MASK_5E",
   "size" : 4,
   "source_file" : "out/soong/.intermediates/frameworks/base/media/android.media.audio.common.types-V1-ndk-source/gen/include/aidl/android/media/audio/common/AudioChannelLayout.h",
   "underlying_type" : "_ZTIi"
  },
  {
   "alignment" : 4,
   "enum_fields" :
   [
    {
     "enum_field_value" : 63,
     "name" : "aidl::android::media::audio::common::AudioChannelLayout::INDEX_MASK_6"
    }
   ],
   "linker_set_key" : "_ZTIN4aidl7android5media5audio6common18AudioChannelLayout13$INDEX_MASK_6E",
   "name" : "aidl::android::media::audio::common::AudioChannelLayout::(unnamed enum at out/soong/.intermediates/frameworks/base/media/android.media.audio.common.types-V1-ndk-source/gen/include/aidl/android/media/audio/common/AudioChannelLayout.h:123:3)",
   "referenced_type" : "_ZTIN4aidl7android5media5audio6common18AudioChannelLayout13$INDEX_MASK_6E",
   "self_type" : "_ZTIN4aidl7android5media5audio6common18AudioChannelLayout13$INDEX_MASK_6E",
   "size" : 4,
   "source_file" : "out/soong/.intermediates/frameworks/base/media/android.media.audio.common.types-V1-ndk-source/gen/include/aidl/android/media/audio/common/AudioChannelLayout.h",
   "underlying_type" : "_ZTIi"
  },
  {
   "alignment" : 4,
   "enum_fields" :
   [
    {
     "enum_field_value" : 127,
     "name" : "aidl::android::media::audio::common::AudioChannelLayout::INDEX_MASK_7"
    }
   ],
   "linker_set_key" : "_ZTIN4aidl7android5media5audio6common18AudioChannelLayout13$INDEX_MASK_7E",
   "name" : "aidl::android::media::audio::common::AudioChannelLayout::(unnamed enum at out/soong/.intermediates/frameworks/base/media/android.media.audio.common.types-V1-ndk-source/gen/include/aidl/android/media/audio/common/AudioChannelLayout.h:124:3)",
   "referenced_type" : "_ZTIN4aidl7android5media5audio6common18AudioChannelLayout13$INDEX_MASK_7E",
   "self_type" : "_ZTIN4aidl7android5media5audio6common18AudioChannelLayout13$INDEX_MASK_7E",
   "size" : 4,
   "source_file" : "out/soong/.intermediates/frameworks/base/media/android.media.audio.common.types-V1-ndk-source/gen/include/aidl/android/media/audio/common/AudioChannelLayout.h",
   "underlying_type" : "_ZTIi"
  },
  {
   "alignment" : 4,
   "enum_fields" :
   [
    {
     "enum_field_value" : 255,
     "name" : "aidl::android::media::audio::common::AudioChannelLayout::INDEX_MASK_8"
    }
   ],
   "linker_set_key" : "_ZTIN4aidl7android5media5audio6common18AudioChannelLayout13$INDEX_MASK_8E",
   "name" : "aidl::android::media::audio::common::AudioChannelLayout::(unnamed enum at out/soong/.intermediates/frameworks/base/media/android.media.audio.common.types-V1-ndk-source/gen/include/aidl/android/media/audio/common/AudioChannelLayout.h:125:3)",
   "referenced_type" : "_ZTIN4aidl7android5media5audio6common18AudioChannelLayout13$INDEX_MASK_8E",
   "self_type" : "_ZTIN4aidl7android5media5audio6common18AudioChannelLayout13$INDEX_MASK_8E",
   "size" : 4,
   "source_file" : "out/soong/.intermediates/frameworks/base/media/android.media.audio.common.types-V1-ndk-source/gen/include/aidl/android/media/audio/common/AudioChannelLayout.h",
   "underlying_type" : "_ZTIi"
  },
  {
   "alignment" : 4,
   "enum_fields" :
   [
    {
     "enum_field_value" : 511,
     "name" : "aidl::android::media::audio::common::AudioChannelLayout::INDEX_MASK_9"
    }
   ],
   "linker_set_key" : "_ZTIN4aidl7android5media5audio6common18AudioChannelLayout13$INDEX_MASK_9E",
   "name" : "aidl::android::media::audio::common::AudioChannelLayout::(unnamed enum at out/soong/.intermediates/frameworks/base/media/android.media.audio.common.types-V1-ndk-source/gen/include/aidl/android/media/audio/common/AudioChannelLayout.h:126:3)",
   "referenced_type" : "_ZTIN4aidl7android5media5audio6common18AudioChannelLayout13$INDEX_MASK_9E",
   "self_type" : "_ZTIN4aidl7android5media5audio6common18AudioChannelLayout13$INDEX_MASK_9E",
   "size" : 4,
   "source_file" : "out/soong/.intermediates/frameworks/base/media/android.media.audio.common.types-V1-ndk-source/gen/include/aidl/android/media/audio/common/AudioChannelLayout.h",
   "underlying_type" : "_ZTIi"
  },
  {
   "alignment" : 4,
   "enum_fields" :
   [
    {
     "enum_field_value" : 55,
     "name" : "aidl::android::media::audio::common::AudioChannelLayout::LAYOUT_PENTA"
    }
   ],
   "linker_set_key" : "_ZTIN4aidl7android5media5audio6common18AudioChannelLayout13$LAYOUT_PENTAE",
   "name" : "aidl::android::media::audio::common::AudioChannelLayout::(unnamed enum at out/soong/.intermediates/frameworks/base/media/android.media.audio.common.types-V1-ndk-source/gen/include/aidl/android/media/audio/common/AudioChannelLayout.h:155:3)",
   "referenced_type" : "_ZTIN4aidl7android5media5audio6common18AudioChannelLayout13$LAYOUT_PENTAE",
   "self_type" : "_ZTIN4aidl7android5media5audio6common18AudioChannelLayout13$LAYOUT_PENTAE",
   "size" : 4,
   "source_file" : "out/soong/.intermediates/frameworks/base/media/android.media.audio.common.types-V1-ndk-source/gen/include/aidl/android/media/audio/common/AudioChannelLayout.h",
   "underlying_type" : "_ZTIi"
  },
  {
   "alignment" : 4,
   "enum_fields" :
   [
    {
     "enum_field_value" : 1023,
     "name" : "aidl::android::media::audio::common::AudioChannelLayout::INDEX_MASK_10"
    }
   ],
   "linker_set_key" : "_ZTIN4aidl7android5media5audio6common18AudioChannelLayout14$INDEX_MASK_10E",
   "name" : "aidl::android::media::audio::common::AudioChannelLayout::(unnamed enum at out/soong/.intermediates/frameworks/base/media/android.media.audio.common.types-V1-ndk-source/gen/include/aidl/android/media/audio/common/AudioChannelLayout.h:127:3)",
   "referenced_type" : "_ZTIN4aidl7android5media5audio6common18AudioChannelLayout14$INDEX_MASK_10E",
   "self_type" : "_ZTIN4aidl7android5media5audio6common18AudioChannelLayout14$INDEX_MASK_10E",
   "size" : 4,
   "source_file" : "out/soong/.intermediates/frameworks/base/media/android.media.audio.common.types-V1-ndk-source/gen/include/aidl/android/media/audio/common/AudioChannelLayout.h",
   "underlying_type" : "_ZTIi"
  },
  {
   "alignment" : 4,
   "enum_fields" :
   [
    {
     "enum_field_value" : 2047,
     "name" : "aidl::android::media::audio::common::AudioChannelLayout::INDEX_MASK_11"
    }
   ],
   "linker_set_key" : "_ZTIN4aidl7android5media5audio6common18AudioChannelLayout14$INDEX_MASK_11E",
   "name" : "aidl::android::media::audio::common::AudioChannelLayout::(unnamed enum at out/soong/.intermediates/frameworks/base/media/android.media.audio.common.types-V1-ndk-source/gen/include/aidl/android/media/audio/common/AudioChannelLayout.h:128:3)",
   "referenced_type" : "_ZTIN4aidl7android5media5audio6common18AudioChannelLayout14$INDEX_MASK_11E",
   "self_type" : "_ZTIN4aidl7android5media5audio6common18AudioChannelLayout14$INDEX_MASK_11E",
   "size" : 4,
   "source_file" : "out/soong/.intermediates/frameworks/base/media/android.media.audio.common.types-V1-ndk-source/gen/include/aidl/android/media/audio/common/AudioChannelLayout.h",
   "underlying_type" : "_ZTIi"
  },
  {
   "alignment" : 4,
   "enum_fields" :
   [
    {
     "enum_field_value" : 4095,
     "name" : "aidl::android::media::audio::common::AudioChannelLayout::INDEX_MASK_12"
    }
   ],
   "linker_set_key" : "_ZTIN4aidl7android5media5audio6common18AudioChannelLayout14$INDEX_MASK_12E",
   "name" : "aidl::android::media::audio::common::AudioChannelLayout::(unnamed enum at out/soong/.intermediates/frameworks/base/media/android.media.audio.common.types-V1-ndk-source/gen/include/aidl/android/media/audio/common/AudioChannelLayout.h:129:3)",
   "referenced_type" : "_ZTIN4aidl7android5media5audio6common18AudioChannelLayout14$INDEX_MASK_12E",
   "self_type" : "_ZTIN4aidl7android5media5audio6common18AudioChannelLayout14$INDEX_MASK_12E",
   "size" : 4,
   "source_file" : "out/soong/.intermediates/frameworks/base/media/android.media.audio.common.types-V1-ndk-source/gen/include/aidl/android/media/audio/common/AudioChannelLayout.h",
   "underlying_type" : "_ZTIi"
  },
  {
   "alignment" : 4,
   "enum_fields" :
   [
    {
     "enum_field_value" : 8191,
     "name" : "aidl::android::media::audio::common::AudioChannelLayout::INDEX_MASK_13"
    }
   ],
   "linker_set_key" : "_ZTIN4aidl7android5media5audio6common18AudioChannelLayout14$INDEX_MASK_13E",
   "name" : "aidl::android::media::audio::common::AudioChannelLayout::(unnamed enum at out/soong/.intermediates/frameworks/base/media/android.media.audio.common.types-V1-ndk-source/gen/include/aidl/android/media/audio/common/AudioChannelLayout.h:130:3)",
   "referenced_type" : "_ZTIN4aidl7android5media5audio6common18AudioChannelLayout14$INDEX_MASK_13E",
   "self_type" : "_ZTIN4aidl7android5media5audio6common18AudioChannelLayout14$INDEX_MASK_13E",
   "size" : 4,
   "source_file" : "out/soong/.intermediates/frameworks/base/media/android.media.audio.common.types-V1-ndk-source/gen/include/aidl/android/media/audio/common/AudioChannelLayout.h",
   "underlying_type" : "_ZTIi"
  },
  {
   "alignment" : 4,
   "enum_fields" :
   [
    {
     "enum_field_value" : 16383,
     "name" : "aidl::android::media::audio::common::AudioChannelLayout::INDEX_MASK_14"
    }
   ],
   "linker_set_key" : "_ZTIN4aidl7android5media5audio6common18AudioChannelLayout14$INDEX_MASK_14E",
   "name" : "aidl::android::media::audio::common::AudioChannelLayout::(unnamed enum at out/soong/.intermediates/frameworks/base/media/android.media.audio.common.types-V1-ndk-source/gen/include/aidl/android/media/audio/common/AudioChannelLayout.h:131:3)",
   "referenced_type" : "_ZTIN4aidl7android5media5audio6common18AudioChannelLayout14$INDEX_MASK_14E",
   "self_type" : "_ZTIN4aidl7android5media5audio6common18AudioChannelLayout14$INDEX_MASK_14E",
   "size" : 4,
   "source_file" : "out/soong/.intermediates/frameworks/base/media/android.media.audio.common.types-V1-ndk-source/gen/include/aidl/android/media/audio/common/AudioChannelLayout.h",
   "underlying_type" : "_ZTIi"
  },
  {
   "alignment" : 4,
   "enum_fields" :
   [
    {
     "enum_field_value" : 32767,
     "name" : "aidl::android::media::audio::common::AudioChannelLayout::INDEX_MASK_15"
    }
   ],
   "linker_set_key" : "_ZTIN4aidl7android5media5audio6common18AudioChannelLayout14$INDEX_MASK_15E",
   "name" : "aidl::android::media::audio::common::AudioChannelLayout::(unnamed enum at out/soong/.intermediates/frameworks/base/media/android.media.audio.common.types-V1-ndk-source/gen/include/aidl/android/media/audio/common/AudioChannelLayout.h:132:3)",
   "referenced_type" : "_ZTIN4aidl7android5media5audio6common18AudioChannelLayout14$INDEX_MASK_15E",
   "self_type" : "_ZTIN4aidl7android5media5audio6common18AudioChannelLayout14$INDEX_MASK_15E",
   "size" : 4,
   "source_file" : "out/soong/.intermediates/frameworks/base/media/android.media.audio.common.types-V1-ndk-source/gen/include/aidl/android/media/audio/common/AudioChannelLayout.h",
   "underlying_type" : "_ZTIi"
  },
  {
   "alignment" : 4,
   "enum_fields" :
   [
    {
     "enum_field_value" : 65535,
     "name" : "aidl::android::media::audio::common::AudioChannelLayout::INDEX_MASK_16"
    }
   ],
   "linker_set_key" : "_ZTIN4aidl7android5media5audio6common18AudioChannelLayout14$INDEX_MASK_16E",
   "name" : "aidl::android::media::audio::common::AudioChannelLayout::(unnamed enum at out/soong/.intermediates/frameworks/base/media/android.media.audio.common.types-V1-ndk-source/gen/include/aidl/android/media/audio/common/AudioChannelLayout.h:133:3)",
   "referenced_type" : "_ZTIN4aidl7android5media5audio6common18AudioChannelLayout14$INDEX_MASK_16E",
   "self_type" : "_ZTIN4aidl7android5media5audio6common18AudioChannelLayout14$INDEX_MASK_16E",
   "size" : 4,
   "source_file" : "out/soong/.intermediates/frameworks/base/media/android.media.audio.common.types-V1-ndk-source/gen/include/aidl/android/media/audio/common/AudioChannelLayout.h",
   "underlying_type" : "_ZTIi"
  },
  {
   "alignment" : 4,
   "enum_fields" :
   [
    {
     "enum_field_value" : 131071,
     "name" : "aidl::android::media::audio::common::AudioChannelLayout::INDEX_MASK_17"
    }
   ],
   "linker_set_key" : "_ZTIN4aidl7android5media5audio6common18AudioChannelLayout14$INDEX_MASK_17E",
   "name" : "aidl::android::media::audio::common::AudioChannelLayout::(unnamed enum at out/soong/.intermediates/frameworks/base/media/android.media.audio.common.types-V1-ndk-source/gen/include/aidl/android/media/audio/common/AudioChannelLayout.h:134:3)",
   "referenced_type" : "_ZTIN4aidl7android5media5audio6common18AudioChannelLayout14$INDEX_MASK_17E",
   "self_type" : "_ZTIN4aidl7android5media5audio6common18AudioChannelLayout14$INDEX_MASK_17E",
   "size" : 4,
   "source_file" : "out/soong/.intermediates/frameworks/base/media/android.media.audio.common.types-V1-ndk-source/gen/include/aidl/android/media/audio/common/AudioChannelLayout.h",
   "underlying_type" : "_ZTIi"
  },
  {
   "alignment" : 4,
   "enum_fields" :
   [
    {
     "enum_field_value" : 262143,
     "name" : "aidl::android::media::audio::common::AudioChannelLayout::INDEX_MASK_18"
    }
   ],
   "linker_set_key" : "_ZTIN4aidl7android5media5audio6common18AudioChannelLayout14$INDEX_MASK_18E",
   "name" : "aidl::android::media::audio::common::AudioChannelLayout::(unnamed enum at out/soong/.intermediates/frameworks/base/media/android.media.audio.common.types-V1-ndk-source/gen/include/aidl/android/media/audio/common/AudioChannelLayout.h:135:3)",
   "referenced_type" : "_ZTIN4aidl7android5media5audio6common18AudioChannelLayout14$INDEX_MASK_18E",
   "self_type" : "_ZTIN4aidl7android5media5audio6common18AudioChannelLayout14$INDEX_MASK_18E",
   "size" : 4,
   "source_file" : "out/soong/.intermediates/frameworks/base/media/android.media.audio.common.types-V1-ndk-source/gen/include/aidl/android/media/audio/common/AudioChannelLayout.h",
   "underlying_type" : "_ZTIi"
  },
  {
   "alignment" : 4,
   "enum_fields" :
   [
    {
     "enum_field_value" : 524287,
     "name" : "aidl::android::media::audio::common::AudioChannelLayout::INDEX_MASK_19"
    }
   ],
   "linker_set_key" : "_ZTIN4aidl7android5media5audio6common18AudioChannelLayout14$INDEX_MASK_19E",
   "name" : "aidl::android::media::audio::common::AudioChannelLayout::(unnamed enum at out/soong/.intermediates/frameworks/base/media/android.media.audio.common.types-V1-ndk-source/gen/include/aidl/android/media/audio/common/AudioChannelLayout.h:136:3)",
   "referenced_type" : "_ZTIN4aidl7android5media5audio6common18AudioChannelLayout14$INDEX_MASK_19E",
   "self_type" : "_ZTIN4aidl7android5media5audio6common18AudioChannelLayout14$INDEX_MASK_19E",
   "size" : 4,
   "source_file" : "out/soong/.intermediates/frameworks/base/media/android.media.audio.common.types-V1-ndk-source/gen/include/aidl/android/media/audio/common/AudioChannelLayout.h",
   "underlying_type" : "_ZTIi"
  },
  {
   "alignment" : 4,
   "enum_fields" :
   [
    {
     "enum_field_value" : 1048575,
     "name" : "aidl::android::media::audio::common::AudioChannelLayout::INDEX_MASK_20"
    }
   ],
   "linker_set_key" : "_ZTIN4aidl7android5media5audio6common18AudioChannelLayout14$INDEX_MASK_20E",
   "name" : "aidl::android::media::audio::common::AudioChannelLayout::(unnamed enum at out/soong/.intermediates/frameworks/base/media/android.media.audio.common.types-V1-ndk-source/gen/include/aidl/android/media/audio/common/AudioChannelLayout.h:137:3)",
   "referenced_type" : "_ZTIN4aidl7android5media5audio6common18AudioChannelLayout14$INDEX_MASK_20E",
   "self_type" : "_ZTIN4aidl7android5media5audio6common18AudioChannelLayout14$INDEX_MASK_20E",
   "size" : 4,
   "source_file" : "out/soong/.intermediates/frameworks/base/media/android.media.audio.common.types-V1-ndk-source/gen/include/aidl/android/media/audio/common/AudioChannelLayout.h",
   "underlying_type" : "_ZTIi"
  },
  {
   "alignment" : 4,
   "enum_fields" :
   [
    {
     "enum_field_value" : 2097151,
     "name" : "aidl::android::media::audio::common::AudioChannelLayout::INDEX_MASK_21"
    }
   ],
   "linker_set_key" : "_ZTIN4aidl7android5media5audio6common18AudioChannelLayout14$INDEX_MASK_21E",
   "name" : "aidl::android::media::audio::common::AudioChannelLayout::(unnamed enum at out/soong/.intermediates/frameworks/base/media/android.media.audio.common.types-V1-ndk-source/gen/include/aidl/android/media/audio/common/AudioChannelLayout.h:138:3)",
   "referenced_type" : "_ZTIN4aidl7android5media5audio6common18AudioChannelLayout14$INDEX_MASK_21E",
   "self_type" : "_ZTIN4aidl7android5media5audio6common18AudioChannelLayout14$INDEX_MASK_21E",
   "size" : 4,
   "source_file" : "out/soong/.intermediates/frameworks/base/media/android.media.audio.common.types-V1-ndk-source/gen/include/aidl/android/media/audio/common/AudioChannelLayout.h",
   "underlying_type" : "_ZTIi"
  },
  {
   "alignment" : 4,
   "enum_fields" :
   [
    {
     "enum_field_value" : 4194303,
     "name" : "aidl::android::media::audio::common::AudioChannelLayout::INDEX_MASK_22"
    }
   ],
   "linker_set_key" : "_ZTIN4aidl7android5media5audio6common18AudioChannelLayout14$INDEX_MASK_22E",
   "name" : "aidl::android::media::audio::common::AudioChannelLayout::(unnamed enum at out/soong/.intermediates/frameworks/base/media/android.media.audio.common.types-V1-ndk-source/gen/include/aidl/android/media/audio/common/AudioChannelLayout.h:139:3)",
   "referenced_type" : "_ZTIN4aidl7android5media5audio6common18AudioChannelLayout14$INDEX_MASK_22E",
   "self_type" : "_ZTIN4aidl7android5media5audio6common18AudioChannelLayout14$INDEX_MASK_22E",
   "size" : 4,
   "source_file" : "out/soong/.intermediates/frameworks/base/media/android.media.audio.common.types-V1-ndk-source/gen/include/aidl/android/media/audio/common/AudioChannelLayout.h",
   "underlying_type" : "_ZTIi"
  },
  {
   "alignment" : 4,
   "enum_fields" :
   [
    {
     "enum_field_value" : 8388607,
     "name" : "aidl::android::media::audio::common::AudioChannelLayout::INDEX_MASK_23"
    }
   ],
   "linker_set_key" : "_ZTIN4aidl7android5media5audio6common18AudioChannelLayout14$INDEX_MASK_23E",
   "name" : "aidl::android::media::audio::common::AudioChannelLayout::(unnamed enum at out/soong/.intermediates/frameworks/base/media/android.media.audio.common.types-V1-ndk-source/gen/include/aidl/android/media/audio/common/AudioChannelLayout.h:140:3)",
   "referenced_type" : "_ZTIN4aidl7android5media5audio6common18AudioChannelLayout14$INDEX_MASK_23E",
   "self_type" : "_ZTIN4aidl7android5media5audio6common18AudioChannelLayout14$INDEX_MASK_23E",
   "size" : 4,
   "source_file" : "out/soong/.intermediates/frameworks/base/media/android.media.audio.common.types-V1-ndk-source/gen/include/aidl/android/media/audio/common/AudioChannelLayout.h",
   "underlying_type" : "_ZTIi"
  },
  {
   "alignment" : 4,
   "enum_fields" :
   [
    {
     "enum_field_value" : 16777215,
     "name" : "aidl::android::media::audio::common::AudioChannelLayout::INDEX_MASK_24"
    }
   ],
   "linker_set_key" : "_ZTIN4aidl7android5media5audio6common18AudioChannelLayout14$INDEX_MASK_24E",
   "name" : "aidl::android::media::audio::common::AudioChannelLayout::(unnamed enum at out/soong/.intermediates/frameworks/base/media/android.media.audio.common.types-V1-ndk-source/gen/include/aidl/android/media/audio/common/AudioChannelLayout.h:141:3)",
   "referenced_type" : "_ZTIN4aidl7android5media5audio6common18AudioChannelLayout14$INDEX_MASK_24E",
   "self_type" : "_ZTIN4aidl7android5media5audio6common18AudioChannelLayout14$INDEX_MASK_24E",
   "size" : 4,
   "source_file" : "out/soong/.intermediates/frameworks/base/media/android.media.audio.common.types-V1-ndk-source/gen/include/aidl/android/media/audio/common/AudioChannelLayout.h",
   "underlying_type" : "_ZTIi"
  },
  {
   "alignment" : 4,
   "enum_fields" :
   [
    {
     "enum_field_value" : 3,
     "name" : "aidl::android::media::audio::common::AudioChannelLayout::LAYOUT_STEREO"
    }
   ],
   "linker_set_key" : "_ZTIN4aidl7android5media5audio6common18AudioChannelLayout14$LAYOUT_STEREOE",
   "name" : "aidl::android::media::audio::common::AudioChannelLayout::(unnamed enum at out/soong/.intermediates/frameworks/base/media/android.media.audio.common.types-V1-ndk-source/gen/include/aidl/android/media/audio/common/AudioChannelLayout.h:143:3)",
   "referenced_type" : "_ZTIN4aidl7android5media5audio6common18AudioChannelLayout14$LAYOUT_STEREOE",
   "self_type" : "_ZTIN4aidl7android5media5audio6common18AudioChannelLayout14$LAYOUT_STEREOE",
   "size" : 4,
   "source_file" : "out/soong/.intermediates/frameworks/base/media/android.media.audio.common.types-V1-ndk-source/gen/include/aidl/android/media/audio/common/AudioChannelLayout.h",
   "underlying_type" : "_ZTIi"
  },
  {
   "alignment" : 4,
   "enum_fields" :
   [
    {
     "enum_field_value" : 11,
     "name" : "aidl::android::media::audio::common::AudioChannelLayout::LAYOUT_2POINT1"
    }
   ],
   "linker_set_key" : "_ZTIN4aidl7android5media5audio6common18AudioChannelLayout15$LAYOUT_2POINT1E",
   "name" : "aidl::android::media::audio::common::AudioChannelLayout::(unnamed enum at out/soong/.intermediates/frameworks/base/media/android.media.audio.common.types-V1-ndk-source/gen/include/aidl/android/media/audio/common/AudioChannelLayout.h:144:3)",
   "referenced_type" : "_ZTIN4aidl7android5media5audio6common18AudioChannelLayout15$LAYOUT_2POINT1E",
   "self_type" : "_ZTIN4aidl7android5media5audio6common18AudioChannelLayout15$LAYOUT_2POINT1E",
   "size" : 4,
   "source_file" : "out/soong/.intermediates/frameworks/base/media/android.media.audio.common.types-V1-ndk-source/gen/include/aidl/android/media/audio/common/AudioChannelLayout.h",
   "underlying_type" : "_ZTIi"
  },
  {
   "alignment" : 4,
   "enum_fields" :
   [
    {
     "enum_field_value" : 15,
     "name" : "aidl::android::media::audio::common::AudioChannelLayout::LAYOUT_3POINT1"
    }
   ],
   "linker_set_key" : "_ZTIN4aidl7android5media5audio6common18AudioChannelLayout15$LAYOUT_3POINT1E",
   "name" : "aidl::android::media::audio::common::AudioChannelLayout::(unnamed enum at out/soong/.intermediates/frameworks/base/media/android.media.audio.common.types-V1-ndk-source/gen/include/aidl/android/media/audio/common/AudioChannelLayout.h:147:3)",
   "referenced_type" : "_ZTIN4aidl7android5media5audio6common18AudioChannelLayout15$LAYOUT_3POINT1E",
   "self_type" : "_ZTIN4aidl7android5media5audio6common18AudioChannelLayout15$LAYOUT_3POINT1E",
   "size" : 4,
   "source_file" : "out/soong/.intermediates/frameworks/base/media/android.media.audio.common.types-V1-ndk-source/gen/include/aidl/android/media/audio/common/AudioChannelLayout.h",
   "underlying_type" : "_ZTIi"
  },
  {
   "alignment" : 4,
   "enum_fields" :
   [
    {
     "enum_field_value" : 63,
     "name" : "aidl::android::media::audio::common::AudioChannelLayout::LAYOUT_5POINT1"
    }
   ],
   "linker_set_key" : "_ZTIN4aidl7android5media5audio6common18AudioChannelLayout15$LAYOUT_5POINT1E",
   "name" : "aidl::android::media::audio::common::AudioChannelLayout::(unnamed enum at out/soong/.intermediates/frameworks/base/media/android.media.audio.common.types-V1-ndk-source/gen/include/aidl/android/media/audio/common/AudioChannelLayout.h:156:3)",
   "referenced_type" : "_ZTIN4aidl7android5media5audio6common18AudioChannelLayout15$LAYOUT_5POINT1E",
   "self_type" : "_ZTIN4aidl7android5media5audio6common18AudioChannelLayout15$LAYOUT_5POINT1E",
   "size" : 4,
   "source_file" : "out/soong/.intermediates/frameworks/base/media/android.media.audio.common.types-V1-ndk-source/gen/include/aidl/android/media/audio/common/AudioChannelLayout.h",
   "underlying_type" : "_ZTIi"
  },
  {
   "alignment" : 4,
   "enum_fields" :
   [
    {
     "enum_field_value" : 319,
     "name" : "aidl::android::media::audio::common::AudioChannelLayout::LAYOUT_6POINT1"
    }
   ],
   "linker_set_key" : "_ZTIN4aidl7android5media5audio6common18AudioChannelLayout15$LAYOUT_6POINT1E",
   "name" : "aidl::android::media::audio::common::AudioChannelLayout::(unnamed enum at out/soong/.intermediates/frameworks/base/media/android.media.audio.common.types-V1-ndk-source/gen/include/aidl/android/media/audio/common/AudioChannelLayout.h:160:3)",
   "referenced_type" : "_ZTIN4aidl7android5media5audio6common18AudioChannelLayout15$LAYOUT_6POINT1E",
   "self_type" : "_ZTIN4aidl7android5media5audio6common18AudioChannelLayout15$LAYOUT_6POINT1E",
   "size" : 4,
   "source_file" : "out/soong/.intermediates/frameworks/base/media/android.media.audio.common.types-V1-ndk-source/gen/include/aidl/android/media/audio/common/AudioChannelLayout.h",
   "underlying_type" : "_ZTIi"
  },
  {
   "alignment" : 4,
   "enum_fields" :
   [
    {
     "enum_field_value" : 1599,
     "name" : "aidl::android::media::audio::common::AudioChannelLayout::LAYOUT_7POINT1"
    }
   ],
   "linker_set_key" : "_ZTIN4aidl7android5media5audio6common18AudioChannelLayout15$LAYOUT_7POINT1E",
   "name" : "aidl::android::media::audio::common::AudioChannelLayout::(unnamed enum at out/soong/.intermediates/frameworks/base/media/android.media.audio.common.types-V1-ndk-source/gen/include/aidl/android/media/audio/common/AudioChannelLayout.h:161:3)",
   "referenced_type" : "_ZTIN4aidl7android5media5audio6common18AudioChannelLayout15$LAYOUT_7POINT1E",
   "self_type" : "_ZTIN4aidl7android5media5audio6common18AudioChannelLayout15$LAYOUT_7POINT1E",
   "size" : 4,
   "source_file" : "out/soong/.intermediates/frameworks/base/media/android.media.audio.common.types-V1-ndk-source/gen/include/aidl/android/media/audio/common/AudioChannelLayout.h",
   "underlying_type" : "_ZTIi"
  },
  {
   "alignment" : 4,
   "enum_fields" :
   [
    {
     "enum_field_value" : 0,
     "name" : "aidl::android::media::audio::common::AudioChannelLayout::INTERLEAVE_LEFT"
    }
   ],
   "linker_set_key" : "_ZTIN4aidl7android5media5audio6common18AudioChannelLayout16$INTERLEAVE_LEFTE",
   "name" : "aidl::android::media::audio::common::AudioChannelLayout::(unnamed enum at out/soong/.intermediates/frameworks/base/media/android.media.audio.common.types-V1-ndk-source/gen/include/aidl/android/media/audio/common/AudioChannelLayout.h:174:3)",
   "referenced_type" : "_ZTIN4aidl7android5media5audio6common18AudioChannelLayout16$INTERLEAVE_LEFTE",
   "self_type" : "_ZTIN4aidl7android5media5audio6common18AudioChannelLayout16$INTERLEAVE_LEFTE",
   "size" : 4,
   "source_file" : "out/soong/.intermediates/frameworks/base/media/android.media.audio.common.types-V1-ndk-source/gen/include/aidl/android/media/audio/common/AudioChannelLayout.h",
   "underlying_type" : "_ZTIi"
  },
  {
   "alignment" : 4,
   "enum_fields" :
   [
    {
     "enum_field_value" : 16777215,
     "name" : "aidl::android::media::audio::common::AudioChannelLayout::LAYOUT_22POINT2"
    }
   ],
   "linker_set_key" : "_ZTIN4aidl7android5media5audio6common18AudioChannelLayout16$LAYOUT_22POINT2E",
   "name" : "aidl::android::media::audio::common::AudioChannelLayout::(unnamed enum at out/soong/.intermediates/frameworks/base/media/android.media.audio.common.types-V1-ndk-source/gen/include/aidl/android/media/audio/common/AudioChannelLayout.h:167:3)",
   "referenced_type" : "_ZTIN4aidl7android5media5audio6common18AudioChannelLayout16$LAYOUT_22POINT2E",
   "self_type" : "_ZTIN4aidl7android5media5audio6common18AudioChannelLayout16$LAYOUT_22POINT2E",
   "size" : 4,
   "source_file" : "out/soong/.intermediates/frameworks/base/media/android.media.audio.common.types-V1-ndk-source/gen/include/aidl/android/media/audio/common/AudioChannelLayout.h",
   "underlying_type" : "_ZTIi"
  },
  {
   "alignment" : 4,
   "enum_fields" :
   [
    {
     "enum_field_value" : 263,
     "name" : "aidl::android::media::audio::common::AudioChannelLayout::LAYOUT_SURROUND"
    }
   ],
   "linker_set_key" : "_ZTIN4aidl7android5media5audio6common18AudioChannelLayout16$LAYOUT_SURROUNDE",
   "name" : "aidl::android::media::audio::common::AudioChannelLayout::(unnamed enum at out/soong/.intermediates/frameworks/base/media/android.media.audio.common.types-V1-ndk-source/gen/include/aidl/android/media/audio/common/AudioChannelLayout.h:154:3)",
   "referenced_type" : "_ZTIN4aidl7android5media5audio6common18AudioChannelLayout16$LAYOUT_SURROUNDE",
   "self_type" : "_ZTIN4aidl7android5media5audio6common18AudioChannelLayout16$LAYOUT_SURROUNDE",
   "size" : 4,
   "source_file" : "out/soong/.intermediates/frameworks/base/media/android.media.audio.common.types-V1-ndk-source/gen/include/aidl/android/media/audio/common/AudioChannelLayout.h",
   "underlying_type" : "_ZTIi"
  },
  {
   "alignment" : 4,
   "enum_fields" :
   [
    {
     "enum_field_value" : 259,
     "name" : "aidl::android::media::audio::common::AudioChannelLayout::LAYOUT_TRI_BACK"
    }
   ],
   "linker_set_key" : "_ZTIN4aidl7android5media5audio6common18AudioChannelLayout16$LAYOUT_TRI_BACKE",
   "name" : "aidl::android::media::audio::common::AudioChannelLayout::(unnamed enum at out/soong/.intermediates/frameworks/base/media/android.media.audio.common.types-V1-ndk-source/gen/include/aidl/android/media/audio/common/AudioChannelLayout.h:146:3)",
   "referenced_type" : "_ZTIN4aidl7android5media5audio6common18AudioChannelLayout16$LAYOUT_TRI_BACKE",
   "self_type" : "_ZTIN4aidl7android5media5audio6common18AudioChannelLayout16$LAYOUT_TRI_BACKE",
   "size" : 4,
   "source_file" : "out/soong/.intermediates/frameworks/base/media/android.media.audio.common.types-V1-ndk-source/gen/include/aidl/android/media/audio/common/AudioChannelLayout.h",
   "underlying_type" : "_ZTIi"
  },
  {
   "alignment" : 4,
   "enum_fields" :
   [
    {
     "enum_field_value" : 49152,
     "name" : "aidl::android::media::audio::common::AudioChannelLayout::VOICE_CALL_MONO"
    }
   ],
   "linker_set_key" : "_ZTIN4aidl7android5media5audio6common18AudioChannelLayout16$VOICE_CALL_MONOE",
   "name" : "aidl::android::media::audio::common::AudioChannelLayout::(unnamed enum at out/soong/.intermediates/frameworks/base/media/android.media.audio.common.types-V1-ndk-source/gen/include/aidl/android/media/audio/common/AudioChannelLayout.h:206:3)",
   "referenced_type" : "_ZTIN4aidl7android5media5audio6common18AudioChannelLayout16$VOICE_CALL_MONOE",
   "self_type" : "_ZTIN4aidl7android5media5audio6common18AudioChannelLayout16$VOICE_CALL_MONOE",
   "size" : 4,
   "source_file" : "out/soong/.intermediates/frameworks/base/media/android.media.audio.common.types-V1-ndk-source/gen/include/aidl/android/media/audio/common/AudioChannelLayout.h",
   "underlying_type" : "_ZTIi"
  },
  {
   "alignment" : 4,
   "enum_fields" :
   [
    {
     "enum_field_value" : 1073741824,
     "name" : "aidl::android::media::audio::common::AudioChannelLayout::CHANNEL_HAPTIC_A"
    }
   ],
   "linker_set_key" : "_ZTIN4aidl7android5media5audio6common18AudioChannelLayout17$CHANNEL_HAPTIC_AE",
   "name" : "aidl::android::media::audio::common::AudioChannelLayout::(unnamed enum at out/soong/.intermediates/frameworks/base/media/android.media.audio.common.types-V1-ndk-source/gen/include/aidl/android/media/audio/common/AudioChannelLayout.h:203:3)",
   "referenced_type" : "_ZTIN4aidl7android5media5audio6common18AudioChannelLayout17$CHANNEL_HAPTIC_AE",
   "self_type" : "_ZTIN4aidl7android5media5audio6common18AudioChannelLayout17$CHANNEL_HAPTIC_AE",
   "size" : 4,
   "source_file" : "out/soong/.intermediates/frameworks/base/media/android.media.audio.common.types-V1-ndk-source/gen/include/aidl/android/media/audio/common/AudioChannelLayout.h",
   "underlying_type" : "_ZTIi"
  },
  {
   "alignment" : 4,
   "enum_fields" :
   [
    {
     "enum_field_value" : 536870912,
     "name" : "aidl::android::media::audio::common::AudioChannelLayout::CHANNEL_HAPTIC_B"
    }
   ],
   "linker_set_key" : "_ZTIN4aidl7android5media5audio6common18AudioChannelLayout17$CHANNEL_HAPTIC_BE",
   "name" : "aidl::android::media::audio::common::AudioChannelLayout::(unnamed enum at out/soong/.intermediates/frameworks/base/media/android.media.audio.common.types-V1-ndk-source/gen/include/aidl/android/media/audio/common/AudioChannelLayout.h:202:3)",
   "referenced_type" : "_ZTIN4aidl7android5media5audio6common18AudioChannelLayout17$CHANNEL_HAPTIC_BE",
   "self_type" : "_ZTIN4aidl7android5media5audio6common18AudioChannelLayout17$CHANNEL_HAPTIC_BE",
   "size" : 4,
   "source_file" : "out/soong/.intermediates/frameworks/base/media/android.media.audio.common.types-V1-ndk-source/gen/include/aidl/android/media/audio/common/AudioChannelLayout.h",
   "underlying_type" : "_ZTIi"
  },
  {
   "alignment" : 4,
   "enum_fields" :
   [
    {
     "enum_field_value" : 1,
     "name" : "aidl::android::media::audio::common::AudioChannelLayout::INTERLEAVE_RIGHT"
    }
   ],
   "linker_set_key" : "_ZTIN4aidl7android5media5audio6common18AudioChannelLayout17$INTERLEAVE_RIGHTE",
   "name" : "aidl::android::media::audio::common::AudioChannelLayout::(unnamed enum at out/soong/.intermediates/frameworks/base/media/android.media.audio.common.types-V1-ndk-source/gen/include/aidl/android/media/audio/common/AudioChannelLayout.h:175:3)",
   "referenced_type" : "_ZTIN4aidl7android5media5audio6common18AudioChannelLayout17$INTERLEAVE_RIGHTE",
   "self_type" : "_ZTIN4aidl7android5media5audio6common18AudioChannelLayout17$INTERLEAVE_RIGHTE",
   "size" : 4,
   "source_file" : "out/soong/.intermediates/frameworks/base/media/android.media.audio.common.types-V1-ndk-source/gen/include/aidl/android/media/audio/common/AudioChannelLayout.h",
   "underlying_type" : "_ZTIi"
  },
  {
   "alignment" : 4,
   "enum_fields" :
   [
    {
     "enum_field_value" : 1610612736,
     "name" : "aidl::android::media::audio::common::AudioChannelLayout::LAYOUT_HAPTIC_AB"
    }
   ],
   "linker_set_key" : "_ZTIN4aidl7android5media5audio6common18AudioChannelLayout17$LAYOUT_HAPTIC_ABE",
   "name" : "aidl::android::media::audio::common::AudioChannelLayout::(unnamed enum at out/soong/.intermediates/frameworks/base/media/android.media.audio.common.types-V1-ndk-source/gen/include/aidl/android/media/audio/common/AudioChannelLayout.h:170:3)",
   "referenced_type" : "_ZTIN4aidl7android5media5audio6common18AudioChannelLayout17$LAYOUT_HAPTIC_ABE",
   "self_type" : "_ZTIN4aidl7android5media5audio6common18AudioChannelLayout17$LAYOUT_HAPTIC_ABE",
   "size" : 4,
   "source_file" : "out/soong/.intermediates/frameworks/base/media/android.media.audio.common.types-V1-ndk-source/gen/include/aidl/android/media/audio/common/AudioChannelLayout.h",
   "underlying_type" : "_ZTIi"
  },
  {
   "alignment" : 4,
   "enum_fields" :
   [
    {
     "enum_field_value" : 1539,
     "name" : "aidl::android::media::audio::common::AudioChannelLayout::LAYOUT_QUAD_SIDE"
    }
   ],
   "linker_set_key" : "_ZTIN4aidl7android5media5audio6common18AudioChannelLayout17$LAYOUT_QUAD_SIDEE",
   "name" : "aidl::android::media::audio::common::AudioChannelLayout::(unnamed enum at out/soong/.intermediates/frameworks/base/media/android.media.audio.common.types-V1-ndk-source/gen/include/aidl/android/media/audio/common/AudioChannelLayout.h:153:3)",
   "referenced_type" : "_ZTIN4aidl7android5media5audio6common18AudioChannelLayout17$LAYOUT_QUAD_SIDEE",
   "self_type" : "_ZTIN4aidl7android5media5audio6common18AudioChannelLayout17$LAYOUT_QUAD_SIDEE",
   "size" : 4,
   "source_file" : "out/soong/.intermediates/frameworks/base/media/android.media.audio.common.types-V1-ndk-source/gen/include/aidl/android/media/audio/common/AudioChannelLayout.h",
   "underlying_type" : "_ZTIi"
  },
  {
   "alignment" : 4,
   "enum_fields" :
   [
    {
     "enum_field_value" : 16,
     "name" : "aidl::android::media::audio::common::AudioChannelLayout::CHANNEL_BACK_LEFT"
    }
   ],
   "linker_set_key" : "_ZTIN4aidl7android5media5audio6common18AudioChannelLayout18$CHANNEL_BACK_LEFTE",
   "name" : "aidl::android::media::audio::common::AudioChannelLayout::(unnamed enum at out/soong/.intermediates/frameworks/base/media/android.media.audio.common.types-V1-ndk-source/gen/include/aidl/android/media/audio/common/AudioChannelLayout.h:180:3)",
   "referenced_type" : "_ZTIN4aidl7android5media5audio6common18AudioChannelLayout18$CHANNEL_BACK_LEFTE",
   "self_type" : "_ZTIN4aidl7android5media5audio6common18AudioChannelLayout18$CHANNEL_BACK_LEFTE",
   "size" : 4,
   "source_file" : "out/soong/.intermediates/frameworks/base/media/android.media.audio.common.types-V1-ndk-source/gen/include/aidl/android/media/audio/common/AudioChannelLayout.h",
   "underlying_type" : "_ZTIi"
  },
  {
   "alignment" : 4,
   "enum_fields" :
   [
    {
     "enum_field_value" : 512,
     "name" : "aidl::android::media::audio::common::AudioChannelLayout::CHANNEL_SIDE_LEFT"
    }
   ],
   "linker_set_key" : "_ZTIN4aidl7android5media5audio6common18AudioChannelLayout18$CHANNEL_SIDE_LEFTE",
   "name" : "aidl::android::media::audio::common::AudioChannelLayout::(unnamed enum at out/soong/.intermediates/frameworks/base/media/android.media.audio.common.types-V1-ndk-source/gen/include/aidl/android/media/audio/common/AudioChannelLayout.h:185:3)",
   "referenced_type" : "_ZTIN4aidl7android5media5audio6common18AudioChannelLayout18$CHANNEL_SIDE_LEFTE",
   "self_type" : "_ZTIN4aidl7android5media5audio6common18AudioChannelLayout18$CHANNEL_SIDE_LEFTE",
   "size" : 4,
   "source_file" : "out/soong/.intermediates/frameworks/base/media/android.media.audio.common.types-V1-ndk-source/gen/include/aidl/android/media/audio/common/AudioChannelLayout.h",
   "underlying_type" : "_ZTIi"
  },
  {
   "alignment" : 4,
   "enum_fields" :
   [
    {
     "enum_field_value" : 260,
     "name" : "aidl::android::media::audio::common::AudioChannelLayout::LAYOUT_FRONT_BACK"
    }
   ],
   "linker_set_key" : "_ZTIN4aidl7android5media5audio6common18AudioChannelLayout18$LAYOUT_FRONT_BACKE",
   "name" : "aidl::android::media::audio::common::AudioChannelLayout::(unnamed enum at out/soong/.intermediates/frameworks/base/media/android.media.audio.common.types-V1-ndk-source/gen/include/aidl/android/media/audio/common/AudioChannelLayout.h:173:3)",
   "referenced_type" : "_ZTIN4aidl7android5media5audio6common18AudioChannelLayout18$LAYOUT_FRONT_BACKE",
   "self_type" : "_ZTIN4aidl7android5media5audio6common18AudioChannelLayout18$LAYOUT_FRONT_BACKE",
   "size" : 4,
   "source_file" : "out/soong/.intermediates/frameworks/base/media/android.media.audio.common.types-V1-ndk-source/gen/include/aidl/android/media/audio/common/AudioChannelLayout.h",
   "underlying_type" : "_ZTIi"
  },
  {
   "alignment" : 4,
   "enum_fields" :
   [
    {
     "enum_field_value" : 32768,
     "name" : "aidl::android::media::audio::common::AudioChannelLayout::VOICE_DNLINK_MONO"
    }
   ],
   "linker_set_key" : "_ZTIN4aidl7android5media5audio6common18AudioChannelLayout18$VOICE_DNLINK_MONOE",
   "name" : "aidl::android::media::audio::common::AudioChannelLayout::(unnamed enum at out/soong/.intermediates/frameworks/base/media/android.media.audio.common.types-V1-ndk-source/gen/include/aidl/android/media/audio/common/AudioChannelLayout.h:205:3)",
   "referenced_type" : "_ZTIN4aidl7android5media5audio6common18AudioChannelLayout18$VOICE_DNLINK_MONOE",
   "self_type" : "_ZTIN4aidl7android5media5audio6common18AudioChannelLayout18$VOICE_DNLINK_MONOE",
   "size" : 4,
   "source_file" : "out/soong/.intermediates/frameworks/base/media/android.media.audio.common.types-V1-ndk-source/gen/include/aidl/android/media/audio/common/AudioChannelLayout.h",
   "underlying_type" : "_ZTIi"
  },
  {
   "alignment" : 4,
   "enum_fields" :
   [
    {
     "enum_field_value" : 16384,
     "name" : "aidl::android::media::audio::common::AudioChannelLayout::VOICE_UPLINK_MONO"
    }
   ],
   "linker_set_key" : "_ZTIN4aidl7android5media5audio6common18AudioChannelLayout18$VOICE_UPLINK_MONOE",
   "name" : "aidl::android::media::audio::common::AudioChannelLayout::(unnamed enum at out/soong/.intermediates/frameworks/base/media/android.media.audio.common.types-V1-ndk-source/gen/include/aidl/android/media/audio/common/AudioChannelLayout.h:204:3)",
   "referenced_type" : "_ZTIN4aidl7android5media5audio6common18AudioChannelLayout18$VOICE_UPLINK_MONOE",
   "self_type" : "_ZTIN4aidl7android5media5audio6common18AudioChannelLayout18$VOICE_UPLINK_MONOE",
   "size" : 4,
   "source_file" : "out/soong/.intermediates/frameworks/base/media/android.media.audio.common.types-V1-ndk-source/gen/include/aidl/android/media/audio/common/AudioChannelLayout.h",
   "underlying_type" : "_ZTIi"
  },
  {
   "alignment" : 4,
   "enum_fields" :
   [
    {
     "enum_field_value" : 32,
     "name" : "aidl::android::media::audio::common::AudioChannelLayout::CHANNEL_BACK_RIGHT"
    }
   ],
   "linker_set_key" : "_ZTIN4aidl7android5media5audio6common18AudioChannelLayout19$CHANNEL_BACK_RIGHTE",
   "name" : "aidl::android::media::audio::common::AudioChannelLayout::(unnamed enum at out/soong/.intermediates/frameworks/base/media/android.media.audio.common.types-V1-ndk-source/gen/include/aidl/android/media/audio/common/AudioChannelLayout.h:181:3)",
   "referenced_type" : "_ZTIN4aidl7android5media5audio6common18AudioChannelLayout19$CHANNEL_BACK_RIGHTE",
   "self_type" : "_ZTIN4aidl7android5media5audio6common18AudioChannelLayout19$CHANNEL_BACK_RIGHTE",
   "size" : 4,
   "source_file" : "out/soong/.intermediates/frameworks/base/media/android.media.audio.common.types-V1-ndk-source/gen/include/aidl/android/media/audio/common/AudioChannelLayout.h",
   "underlying_type" : "_ZTIi"
  },
  {
   "alignment" : 4,
   "enum_fields" :
   [
    {
     "enum_field_value" : 1,
     "name" : "aidl::android::media::audio::common::AudioChannelLayout::CHANNEL_FRONT_LEFT"
    }
   ],
   "linker_set_key" : "_ZTIN4aidl7android5media5audio6common18AudioChannelLayout19$CHANNEL_FRONT_LEFTE",
   "name" : "aidl::android::media::audio::common::AudioChannelLayout::(unnamed enum at out/soong/.intermediates/frameworks/base/media/android.media.audio.common.types-V1-ndk-source/gen/include/aidl/android/media/audio/common/AudioChannelLayout.h:176:3)",
   "referenced_type" : "_ZTIN4aidl7android5media5audio6common18AudioChannelLayout19$CHANNEL_FRONT_LEFTE",
   "self_type" : "_ZTIN4aidl7android5media5audio6common18AudioChannelLayout19$CHANNEL_FRONT_LEFTE",
   "size" : 4,
   "source_file" : "out/soong/.intermediates/frameworks/base/media/android.media.audio.common.types-V1-ndk-source/gen/include/aidl/android/media/audio/common/AudioChannelLayout.h",
   "underlying_type" : "_ZTIi"
  },
  {
   "alignment" : 4,
   "enum_fields" :
   [
    {
     "enum_field_value" : 1024,
     "name" : "aidl::android::media::audio::common::AudioChannelLayout::CHANNEL_SIDE_RIGHT"
    }
   ],
   "linker_set_key" : "_ZTIN4aidl7android5media5audio6common18AudioChannelLayout19$CHANNEL_SIDE_RIGHTE",
   "name" : "aidl::android::media::audio::common::AudioChannelLayout::(unnamed enum at out/soong/.intermediates/frameworks/base/media/android.media.audio.common.types-V1-ndk-source/gen/include/aidl/android/media/audio/common/AudioChannelLayout.h:186:3)",
   "referenced_type" : "_ZTIN4aidl7android5media5audio6common18AudioChannelLayout19$CHANNEL_SIDE_RIGHTE",
   "self_type" : "_ZTIN4aidl7android5media5audio6common18AudioChannelLayout19$CHANNEL_SIDE_RIGHTE",
   "size" : 4,
   "source_file" : "out/soong/.intermediates/frameworks/base/media/android.media.audio.common.types-V1-ndk-source/gen/include/aidl/android/media/audio/common/AudioChannelLayout.h",
   "underlying_type" : "_ZTIi"
  },
  {
   "alignment" : 4,
   "enum_fields" :
   [
    {
     "enum_field_value" : 2048,
     "name" : "aidl::android::media::audio::common::AudioChannelLayout::CHANNEL_TOP_CENTER"
    }
   ],
   "linker_set_key" : "_ZTIN4aidl7android5media5audio6common18AudioChannelLayout19$CHANNEL_TOP_CENTERE",
   "name" : "aidl::android::media::audio::common::AudioChannelLayout::(unnamed enum at out/soong/.intermediates/frameworks/base/media/android.media.audio.common.types-V1-ndk-source/gen/include/aidl/android/media/audio/common/AudioChannelLayout.h:187:3)",
   "referenced_type" : "_ZTIN4aidl7android5media5audio6common18AudioChannelLayout19$CHANNEL_TOP_CENTERE",
   "self_type" : "_ZTIN4aidl7android5media5audio6common18AudioChannelLayout19$CHANNEL_TOP_CENTERE",
   "size" : 4,
   "source_file" : "out/soong/.intermediates/frameworks/base/media/android.media.audio.common.types-V1-ndk-source/gen/include/aidl/android/media/audio/common/AudioChannelLayout.h",
   "underlying_type" : "_ZTIi"
  },
  {
   "alignment" : 4,
   "enum_fields" :
   [
    {
     "enum_field_value" : 256,
     "name" : "aidl::android::media::audio::common::AudioChannelLayout::CHANNEL_BACK_CENTER"
    }
   ],
   "linker_set_key" : "_ZTIN4aidl7android5media5audio6common18AudioChannelLayout20$CHANNEL_BACK_CENTERE",
   "name" : "aidl::android::media::audio::common::AudioChannelLayout::(unnamed enum at out/soong/.intermediates/frameworks/base/media/android.media.audio.common.types-V1-ndk-source/gen/include/aidl/android/media/audio/common/AudioChannelLayout.h:184:3)",
   "referenced_type" : "_ZTIN4aidl7android5media5audio6common18AudioChannelLayout20$CHANNEL_BACK_CENTERE",
   "self_type" : "_ZTIN4aidl7android5media5audio6common18AudioChannelLayout20$CHANNEL_BACK_CENTERE",
   "size" : 4,
   "source_file" : "out/soong/.intermediates/frameworks/base/media/android.media.audio.common.types-V1-ndk-source/gen/include/aidl/android/media/audio/common/AudioChannelLayout.h",
   "underlying_type" : "_ZTIi"
  },
  {
   "alignment" : 4,
   "enum_fields" :
   [
    {
     "enum_field_value" : 2,
     "name" : "aidl::android::media::audio::common::AudioChannelLayout::CHANNEL_FRONT_RIGHT"
    }
   ],
   "linker_set_key" : "_ZTIN4aidl7android5media5audio6common18AudioChannelLayout20$CHANNEL_FRONT_RIGHTE",
   "name" : "aidl::android::media::audio::common::AudioChannelLayout::(unnamed enum at out/soong/.intermediates/frameworks/base/media/android.media.audio.common.types-V1-ndk-source/gen/include/aidl/android/media/audio/common/AudioChannelLayout.h:177:3)",
   "referenced_type" : "_ZTIN4aidl7android5media5audio6common18AudioChannelLayout20$CHANNEL_FRONT_RIGHTE",
   "self_type" : "_ZTIN4aidl7android5media5audio6common18AudioChannelLayout20$CHANNEL_FRONT_RIGHTE",
   "size" : 4,
   "source_file" : "out/soong/.intermediates/frameworks/base/media/android.media.audio.common.types-V1-ndk-source/gen/include/aidl/android/media/audio/common/AudioChannelLayout.h",
   "underlying_type" : "_ZTIi"
  },
  {
   "alignment" : 4,
   "enum_fields" :
   [
    {
     "enum_field_value" : 1551,
     "name" : "aidl::android::media::audio::common::AudioChannelLayout::LAYOUT_5POINT1_SIDE"
    }
   ],
   "linker_set_key" : "_ZTIN4aidl7android5media5audio6common18AudioChannelLayout20$LAYOUT_5POINT1_SIDEE",
   "name" : "aidl::android::media::audio::common::AudioChannelLayout::(unnamed enum at out/soong/.intermediates/frameworks/base/media/android.media.audio.common.types-V1-ndk-source/gen/include/aidl/android/media/audio/common/AudioChannelLayout.h:157:3)",
   "referenced_type" : "_ZTIN4aidl7android5media5audio6common18AudioChannelLayout20$LAYOUT_5POINT1_SIDEE",
   "self_type" : "_ZTIN4aidl7android5media5audio6common18AudioChannelLayout20$LAYOUT_5POINT1_SIDEE",
   "size" : 4,
   "source_file" : "out/soong/.intermediates/frameworks/base/media/android.media.audio.common.types-V1-ndk-source/gen/include/aidl/android/media/audio/common/AudioChannelLayout.h",
   "underlying_type" : "_ZTIi"
  },
  {
   "alignment" : 4,
   "enum_fields" :
   [
    {
     "enum_field_value" : 4,
     "name" : "aidl::android::media::audio::common::AudioChannelLayout::CHANNEL_FRONT_CENTER"
    }
   ],
   "linker_set_key" : "_ZTIN4aidl7android5media5audio6common18AudioChannelLayout21$CHANNEL_FRONT_CENTERE",
   "name" : "aidl::android::media::audio::common::AudioChannelLayout::(unnamed enum at out/soong/.intermediates/frameworks/base/media/android.media.audio.common.types-V1-ndk-source/gen/include/aidl/android/media/audio/common/AudioChannelLayout.h:178:3)",
   "referenced_type" : "_ZTIN4aidl7android5media5audio6common18AudioChannelLayout21$CHANNEL_FRONT_CENTERE",
   "self_type" : "_ZTIN4aidl7android5media5audio6common18AudioChannelLayout21$CHANNEL_FRONT_CENTERE",
   "size" : 4,
   "source_file" : "out/soong/.intermediates/frameworks/base/media/android.media.audio.common.types-V1-ndk-source/gen/include/aidl/android/media/audio/common/AudioChannelLayout.h",
   "underlying_type" : "_ZTIi"
  },
  {
   "alignment" : 4,
   "enum_fields" :
   [
    {
     "enum_field_value" : 32768,
     "name" : "aidl::android::media::audio::common::AudioChannelLayout::CHANNEL_VOICE_DNLINK"
    }
   ],
   "linker_set_key" : "_ZTIN4aidl7android5media5audio6common18AudioChannelLayout21$CHANNEL_VOICE_DNLINKE",
   "name" : "aidl::android::media::audio::common::AudioChannelLayout::(unnamed enum at out/soong/.intermediates/frameworks/base/media/android.media.audio.common.types-V1-ndk-source/gen/include/aidl/android/media/audio/common/AudioChannelLayout.h:208:3)",
   "referenced_type" : "_ZTIN4aidl7android5media5audio6common18AudioChannelLayout21$CHANNEL_VOICE_DNLINKE",
   "self_type" : "_ZTIN4aidl7android5media5audio6common18AudioChannelLayout21$CHANNEL_VOICE_DNLINKE",
   "size" : 4,
   "source_file" : "out/soong/.intermediates/frameworks/base/media/android.media.audio.common.types-V1-ndk-source/gen/include/aidl/android/media/audio/common/AudioChannelLayout.h",
   "underlying_type" : "_ZTIi"
  },
  {
   "alignment" : 4,
   "enum_fields" :
   [
    {
     "enum_field_value" : 16384,
     "name" : "aidl::android::media::audio::common::AudioChannelLayout::CHANNEL_VOICE_UPLINK"
    }
   ],
   "linker_set_key" : "_ZTIN4aidl7android5media5audio6common18AudioChannelLayout21$CHANNEL_VOICE_UPLINKE",
   "name" : "aidl::android::media::audio::common::AudioChannelLayout::(unnamed enum at out/soong/.intermediates/frameworks/base/media/android.media.audio.common.types-V1-ndk-source/gen/include/aidl/android/media/audio/common/AudioChannelLayout.h:207:3)",
   "referenced_type" : "_ZTIN4aidl7android5media5audio6common18AudioChannelLayout21$CHANNEL_VOICE_UPLINKE",
   "self_type" : "_ZTIN4aidl7android5media5audio6common18AudioChannelLayout21$CHANNEL_VOICE_UPLINKE",
   "size" : 4,
   "source_file" : "out/soong/.intermediates/frameworks/base/media/android.media.audio.common.types-V1-ndk-source/gen/include/aidl/android/media/audio/common/AudioChannelLayout.h",
   "underlying_type" : "_ZTIi"
  },
  {
   "alignment" : 4,
   "enum_fields" :
   [
    {
     "enum_field_value" : 7534087,
     "name" : "aidl::android::media::audio::common::AudioChannelLayout::LAYOUT_13POINT_360RA"
    }
   ],
   "linker_set_key" : "_ZTIN4aidl7android5media5audio6common18AudioChannelLayout21$LAYOUT_13POINT_360RAE",
   "name" : "aidl::android::media::audio::common::AudioChannelLayout::(unnamed enum at out/soong/.intermediates/frameworks/base/media/android.media.audio.common.types-V1-ndk-source/gen/include/aidl/android/media/audio/common/AudioChannelLayout.h:166:3)",
   "referenced_type" : "_ZTIN4aidl7android5media5audio6common18AudioChannelLayout21$LAYOUT_13POINT_360RAE",
   "self_type" : "_ZTIN4aidl7android5media5audio6common18AudioChannelLayout21$LAYOUT_13POINT_360RAE",
   "size" : 4,
   "source_file" : "out/soong/.intermediates/frameworks/base/media/android.media.audio.common.types-V1-ndk-source/gen/include/aidl/android/media/audio/common/AudioChannelLayout.h",
   "underlying_type" : "_ZTIi"
  },
  {
   "alignment" : 4,
   "enum_fields" :
   [
    {
     "enum_field_value" : 786435,
     "name" : "aidl::android::media::audio::common::AudioChannelLayout::LAYOUT_2POINT0POINT2"
    }
   ],
   "linker_set_key" : "_ZTIN4aidl7android5media5audio6common18AudioChannelLayout21$LAYOUT_2POINT0POINT2E",
   "name" : "aidl::android::media::audio::common::AudioChannelLayout::(unnamed enum at out/soong/.intermediates/frameworks/base/media/android.media.audio.common.types-V1-ndk-source/gen/include/aidl/android/media/audio/common/AudioChannelLayout.h:148:3)",
   "referenced_type" : "_ZTIN4aidl7android5media5audio6common18AudioChannelLayout21$LAYOUT_2POINT0POINT2E",
   "self_type" : "_ZTIN4aidl7android5media5audio6common18AudioChannelLayout21$LAYOUT_2POINT0POINT2E",
   "size" : 4,
   "source_file" : "out/soong/.intermediates/frameworks/base/media/android.media.audio.common.types-V1-ndk-source/gen/include/aidl/android/media/audio/common/AudioChannelLayout.h",
   "underlying_type" : "_ZTIi"
  },
  {
   "alignment" : 4,
   "enum_fields" :
   [
    {
     "enum_field_value" : 786443,
     "name" : "aidl::android::media::audio::common::AudioChannelLayout::LAYOUT_2POINT1POINT2"
    }
   ],
   "linker_set_key" : "_ZTIN4aidl7android5media5audio6common18AudioChannelLayout21$LAYOUT_2POINT1POINT2E",
   "name" : "aidl::android::media::audio::common::AudioChannelLayout::(unnamed enum at out/soong/.intermediates/frameworks/base/media/android.media.audio.common.types-V1-ndk-source/gen/include/aidl/android/media/audio/common/AudioChannelLayout.h:149:3)",
   "referenced_type" : "_ZTIN4aidl7android5media5audio6common18AudioChannelLayout21$LAYOUT_2POINT1POINT2E",
   "self_type" : "_ZTIN4aidl7android5media5audio6common18AudioChannelLayout21$LAYOUT_2POINT1POINT2E",
   "size" : 4,
   "source_file" : "out/soong/.intermediates/frameworks/base/media/android.media.audio.common.types-V1-ndk-source/gen/include/aidl/android/media/audio/common/AudioChannelLayout.h",
   "underlying_type" : "_ZTIi"
  },
  {
   "alignment" : 4,
   "enum_fields" :
   [
    {
     "enum_field_value" : 786439,
     "name" : "aidl::android::media::audio::common::AudioChannelLayout::LAYOUT_3POINT0POINT2"
    }
   ],
   "linker_set_key" : "_ZTIN4aidl7android5media5audio6common18AudioChannelLayout21$LAYOUT_3POINT0POINT2E",
   "name" : "aidl::android::media::audio::common::AudioChannelLayout::(unnamed enum at out/soong/.intermediates/frameworks/base/media/android.media.audio.common.types-V1-ndk-source/gen/include/aidl/android/media/audio/common/AudioChannelLayout.h:150:3)",
   "referenced_type" : "_ZTIN4aidl7android5media5audio6common18AudioChannelLayout21$LAYOUT_3POINT0POINT2E",
   "self_type" : "_ZTIN4aidl7android5media5audio6common18AudioChannelLayout21$LAYOUT_3POINT0POINT2E",
   "size" : 4,
   "source_file" : "out/soong/.intermediates/frameworks/base/media/android.media.audio.common.types-V1-ndk-source/gen/include/aidl/android/media/audio/common/AudioChannelLayout.h",
   "underlying_type" : "_ZTIi"
  },
  {
   "alignment" : 4,
   "enum_fields" :
   [
    {
     "enum_field_value" : 786447,
     "name" : "aidl::android::media::audio::common::AudioChannelLayout::LAYOUT_3POINT1POINT2"
    }
   ],
   "linker_set_key" : "_ZTIN4aidl7android5media5audio6common18AudioChannelLayout21$LAYOUT_3POINT1POINT2E",
   "name" : "aidl::android::media::audio::common::AudioChannelLayout::(unnamed enum at out/soong/.intermediates/frameworks/base/media/android.media.audio.common.types-V1-ndk-source/gen/include/aidl/android/media/audio/common/AudioChannelLayout.h:151:3)",
   "referenced_type" : "_ZTIN4aidl7android5media5audio6common18AudioChannelLayout21$LAYOUT_3POINT1POINT2E",
   "self_type" : "_ZTIN4aidl7android5media5audio6common18AudioChannelLayout21$LAYOUT_3POINT1POINT2E",
   "size" : 4,
   "source_file" : "out/soong/.intermediates/frameworks/base/media/android.media.audio.common.types-V1-ndk-source/gen/include/aidl/android/media/audio/common/AudioChannelLayout.h",
   "underlying_type" : "_ZTIi"
  },
  {
   "alignment" : 4,
   "enum_fields" :
   [
    {
     "enum_field_value" : 786495,
     "name" : "aidl::android::media::audio::common::AudioChannelLayout::LAYOUT_5POINT1POINT2"
    }
   ],
   "linker_set_key" : "_ZTIN4aidl7android5media5audio6common18AudioChannelLayout21$LAYOUT_5POINT1POINT2E",
   "name" : "aidl::android::media::audio::common::AudioChannelLayout::(unnamed enum at out/soong/.intermediates/frameworks/base/media/android.media.audio.common.types-V1-ndk-source/gen/include/aidl/android/media/audio/common/AudioChannelLayout.h:158:3)",
   "referenced_type" : "_ZTIN4aidl7android5media5audio6common18AudioChannelLayout21$LAYOUT_5POINT1POINT2E",
   "self_type" : "_ZTIN4aidl7android5media5audio6common18AudioChannelLayout21$LAYOUT_5POINT1POINT2E",
   "size" : 4,
   "source_file" : "out/soong/.intermediates/frameworks/base/media/android.media.audio.common.types-V1-ndk-source/gen/include/aidl/android/media/audio/common/AudioChannelLayout.h",
   "underlying_type" : "_ZTIi"
  },
  {
   "alignment" : 4,
   "enum_fields" :
   [
    {
     "enum_field_value" : 184383,
     "name" : "aidl::android::media::audio::common::AudioChannelLayout::LAYOUT_5POINT1POINT4"
    }
   ],
   "linker_set_key" : "_ZTIN4aidl7android5media5audio6common18AudioChannelLayout21$LAYOUT_5POINT1POINT4E",
   "name" : "aidl::android::media::audio::common::AudioChannelLayout::(unnamed enum at out/soong/.intermediates/frameworks/base/media/android.media.audio.common.types-V1-ndk-source/gen/include/aidl/android/media/audio/common/AudioChannelLayout.h:159:3)",
   "referenced_type" : "_ZTIN4aidl7android5media5audio6common18AudioChannelLayout21$LAYOUT_5POINT1POINT4E",
   "self_type" : "_ZTIN4aidl7android5media5audio6common18AudioChannelLayout21$LAYOUT_5POINT1POINT4E",
   "size" : 4,
   "source_file" : "out/soong/.intermediates/frameworks/base/media/android.media.audio.common.types-V1-ndk-source/gen/include/aidl/android/media/audio/common/AudioChannelLayout.h",
   "underlying_type" : "_ZTIi"
  },
  {
   "alignment" : 4,
   "enum_fields" :
   [
    {
     "enum_field_value" : 788031,
     "name" : "aidl::android::media::audio::common::AudioChannelLayout::LAYOUT_7POINT1POINT2"
    }
   ],
   "linker_set_key" : "_ZTIN4aidl7android5media5audio6common18AudioChannelLayout21$LAYOUT_7POINT1POINT2E",
   "name" : "aidl::android::media::audio::common::AudioChannelLayout::(unnamed enum at out/soong/.intermediates/frameworks/base/media/android.media.audio.common.types-V1-ndk-source/gen/include/aidl/android/media/audio/common/AudioChannelLayout.h:162:3)",
   "referenced_type" : "_ZTIN4aidl7android5media5audio6common18AudioChannelLayout21$LAYOUT_7POINT1POINT2E",
   "self_type" : "_ZTIN4aidl7android5media5audio6common18AudioChannelLayout21$LAYOUT_7POINT1POINT2E",
   "size" : 4,
   "source_file" : "out/soong/.intermediates/frameworks/base/media/android.media.audio.common.types-V1-ndk-source/gen/include/aidl/android/media/audio/common/AudioChannelLayout.h",
   "underlying_type" : "_ZTIi"
  },
  {
   "alignment" : 4,
   "enum_fields" :
   [
    {
     "enum_field_value" : 185919,
     "name" : "aidl::android::media::audio::common::AudioChannelLayout::LAYOUT_7POINT1POINT4"
    }
   ],
   "linker_set_key" : "_ZTIN4aidl7android5media5audio6common18AudioChannelLayout21$LAYOUT_7POINT1POINT4E",
   "name" : "aidl::android::media::audio::common::AudioChannelLayout::(unnamed enum at out/soong/.intermediates/frameworks/base/media/android.media.audio.common.types-V1-ndk-source/gen/include/aidl/android/media/audio/common/AudioChannelLayout.h:163:3)",
   "referenced_type" : "_ZTIN4aidl7android5media5audio6common18AudioChannelLayout21$LAYOUT_7POINT1POINT4E",
   "self_type" : "_ZTIN4aidl7android5media5audio6common18AudioChannelLayout21$LAYOUT_7POINT1POINT4E",
   "size" : 4,
   "source_file" : "out/soong/.intermediates/frameworks/base/media/android.media.audio.common.types-V1-ndk-source/gen/include/aidl/android/media/audio/common/AudioChannelLayout.h",
   "underlying_type" : "_ZTIi"
  },
  {
   "alignment" : 4,
   "enum_fields" :
   [
    {
     "enum_field_value" : 50517567,
     "name" : "aidl::android::media::audio::common::AudioChannelLayout::LAYOUT_9POINT1POINT4"
    }
   ],
   "linker_set_key" : "_ZTIN4aidl7android5media5audio6common18AudioChannelLayout21$LAYOUT_9POINT1POINT4E",
   "name" : "aidl::android::media::audio::common::AudioChannelLayout::(unnamed enum at out/soong/.intermediates/frameworks/base/media/android.media.audio.common.types-V1-ndk-source/gen/include/aidl/android/media/audio/common/AudioChannelLayout.h:164:3)",
   "referenced_type" : "_ZTIN4aidl7android5media5audio6common18AudioChannelLayout21$LAYOUT_9POINT1POINT4E",
   "self_type" : "_ZTIN4aidl7android5media5audio6common18AudioChannelLayout21$LAYOUT_9POINT1POINT4E",
   "size" : 4,
   "source_file" : "out/soong/.intermediates/frameworks/base/media/android.media.audio.common.types-V1-ndk-source/gen/include/aidl/android/media/audio/common/AudioChannelLayout.h",
   "underlying_type" : "_ZTIi"
  },
  {
   "alignment" : 4,
   "enum_fields" :
   [
    {
     "enum_field_value" : 51303999,
     "name" : "aidl::android::media::audio::common::AudioChannelLayout::LAYOUT_9POINT1POINT6"
    }
   ],
   "linker_set_key" : "_ZTIN4aidl7android5media5audio6common18AudioChannelLayout21$LAYOUT_9POINT1POINT6E",
   "name" : "aidl::android::media::audio::common::AudioChannelLayout::(unnamed enum at out/soong/.intermediates/frameworks/base/media/android.media.audio.common.types-V1-ndk-source/gen/include/aidl/android/media/audio/common/AudioChannelLayout.h:165:3)",
   "referenced_type" : "_ZTIN4aidl7android5media5audio6common18AudioChannelLayout21$LAYOUT_9POINT1POINT6E",
   "self_type" : "_ZTIN4aidl7android5media5audio6common18AudioChannelLayout21$LAYOUT_9POINT1POINT6E",
   "size" : 4,
   "source_file" : "out/soong/.intermediates/frameworks/base/media/android.media.audio.common.types-V1-ndk-source/gen/include/aidl/android/media/audio/common/AudioChannelLayout.h",
   "underlying_type" : "_ZTIi"
  },
  {
   "alignment" : 4,
   "enum_fields" :
   [
    {
     "enum_field_value" : 1073741825,
     "name" : "aidl::android::media::audio::common::AudioChannelLayout::LAYOUT_MONO_HAPTIC_A"
    }
   ],
   "linker_set_key" : "_ZTIN4aidl7android5media5audio6common18AudioChannelLayout21$LAYOUT_MONO_HAPTIC_AE",
   "name" : "aidl::android::media::audio::common::AudioChannelLayout::(unnamed enum at out/soong/.intermediates/frameworks/base/media/android.media.audio.common.types-V1-ndk-source/gen/include/aidl/android/media/audio/common/AudioChannelLayout.h:168:3)",
   "referenced_type" : "_ZTIN4aidl7android5media5audio6common18AudioChannelLayout21$LAYOUT_MONO_HAPTIC_AE",
   "self_type" : "_ZTIN4aidl7android5media5audio6common18AudioChannelLayout21$LAYOUT_MONO_HAPTIC_AE",
   "size" : 4,
   "source_file" : "out/soong/.intermediates/frameworks/base/media/android.media.audio.common.types-V1-ndk-source/gen/include/aidl/android/media/audio/common/AudioChannelLayout.h",
   "underlying_type" : "_ZTIi"
  },
  {
   "alignment" : 4,
   "enum_fields" :
   [
    {
     "enum_field_value" : 8,
     "name" : "aidl::android::media::audio::common::AudioChannelLayout::CHANNEL_LOW_FREQUENCY"
    }
   ],
   "linker_set_key" : "_ZTIN4aidl7android5media5audio6common18AudioChannelLayout22$CHANNEL_LOW_FREQUENCYE",
   "name" : "aidl::android::media::audio::common::AudioChannelLayout::(unnamed enum at out/soong/.intermediates/frameworks/base/media/android.media.audio.common.types-V1-ndk-source/gen/include/aidl/android/media/audio/common/AudioChannelLayout.h:179:3)",
   "referenced_type" : "_ZTIN4aidl7android5media5audio6common18AudioChannelLayout22$CHANNEL_LOW_FREQUENCYE",
   "self_type" : "_ZTIN4aidl7android5media5audio6common18AudioChannelLayout22$CHANNEL_LOW_FREQUENCYE",
   "size" : 4,
   "source_file" : "out/soong/.intermediates/frameworks/base/media/android.media.audio.common.types-V1-ndk-source/gen/include/aidl/android/media/audio/common/AudioChannelLayout.h",
   "underlying_type" : "_ZTIi"
  },
  {
   "alignment" : 4,
   "enum_fields" :
   [
    {
     "enum_field_value" : 32768,
     "name" : "aidl::android::media::audio::common::AudioChannelLayout::CHANNEL_TOP_BACK_LEFT"
    }
   ],
   "linker_set_key" : "_ZTIN4aidl7android5media5audio6common18AudioChannelLayout22$CHANNEL_TOP_BACK_LEFTE",
   "name" : "aidl::android::media::audio::common::AudioChannelLayout::(unnamed enum at out/soong/.intermediates/frameworks/base/media/android.media.audio.common.types-V1-ndk-source/gen/include/aidl/android/media/audio/common/AudioChannelLayout.h:191:3)",
   "referenced_type" : "_ZTIN4aidl7android5media5audio6common18AudioChannelLayout22$CHANNEL_TOP_BACK_LEFTE",
   "self_type" : "_ZTIN4aidl7android5media5audio6common18AudioChannelLayout22$CHANNEL_TOP_BACK_LEFTE",
   "size" : 4,
   "source_file" : "out/soong/.intermediates/frameworks/base/media/android.media.audio.common.types-V1-ndk-source/gen/include/aidl/android/media/audio/common/AudioChannelLayout.h",
   "underlying_type" : "_ZTIi"
  },
  {
   "alignment" : 4,
   "enum_fields" :
   [
    {
     "enum_field_value" : 262144,
     "name" : "aidl::android::media::audio::common::AudioChannelLayout::CHANNEL_TOP_SIDE_LEFT"
    }
   ],
   "linker_set_key" : "_ZTIN4aidl7android5media5audio6common18AudioChannelLayout22$CHANNEL_TOP_SIDE_LEFTE",
   "name" : "aidl::android::media::audio::common::AudioChannelLayout::(unnamed enum at out/soong/.intermediates/frameworks/base/media/android.media.audio.common.types-V1-ndk-source/gen/include/aidl/android/media/audio/common/AudioChannelLayout.h:194:3)",
   "referenced_type" : "_ZTIN4aidl7android5media5audio6common18AudioChannelLayout22$CHANNEL_TOP_SIDE_LEFTE",
   "self_type" : "_ZTIN4aidl7android5media5audio6common18AudioChannelLayout22$CHANNEL_TOP_SIDE_LEFTE",
   "size" : 4,
   "source_file" : "out/soong/.intermediates/frameworks/base/media/android.media.audio.common.types-V1-ndk-source/gen/include/aidl/android/media/audio/common/AudioChannelLayout.h",
   "underlying_type" : "_ZTIi"
  },
  {
   "alignment" : 4,
   "enum_fields" :
   [
    {
     "enum_field_value" : 1610612737,
     "name" : "aidl::android::media::audio::common::AudioChannelLayout::LAYOUT_MONO_HAPTIC_AB"
    }
   ],
   "linker_set_key" : "_ZTIN4aidl7android5media5audio6common18AudioChannelLayout22$LAYOUT_MONO_HAPTIC_ABE",
   "name" : "aidl::android::media::audio::common::AudioChannelLayout::(unnamed enum at out/soong/.intermediates/frameworks/base/media/android.media.audio.common.types-V1-ndk-source/gen/include/aidl/android/media/audio/common/AudioChannelLayout.h:171:3)",
   "referenced_type" : "_ZTIN4aidl7android5media5audio6common18AudioChannelLayout22$LAYOUT_MONO_HAPTIC_ABE",
   "self_type" : "_ZTIN4aidl7android5media5audio6common18AudioChannelLayout22$LAYOUT_MONO_HAPTIC_ABE",
   "size" : 4,
   "source_file" : "out/soong/.intermediates/frameworks/base/media/android.media.audio.common.types-V1-ndk-source/gen/include/aidl/android/media/audio/common/AudioChannelLayout.h",
   "underlying_type" : "_ZTIi"
  },
  {
   "alignment" : 4,
   "enum_fields" :
   [
    {
     "enum_field_value" : 131072,
     "name" : "aidl::android::media::audio::common::AudioChannelLayout::CHANNEL_TOP_BACK_RIGHT"
    }
   ],
   "linker_set_key" : "_ZTIN4aidl7android5media5audio6common18AudioChannelLayout23$CHANNEL_TOP_BACK_RIGHTE",
   "name" : "aidl::android::media::audio::common::AudioChannelLayout::(unnamed enum at out/soong/.intermediates/frameworks/base/media/android.media.audio.common.types-V1-ndk-source/gen/include/aidl/android/media/audio/common/AudioChannelLayout.h:193:3)",
   "referenced_type" : "_ZTIN4aidl7android5media5audio6common18AudioChannelLayout23$CHANNEL_TOP_BACK_RIGHTE",
   "self_type" : "_ZTIN4aidl7android5media5audio6common18AudioChannelLayout23$CHANNEL_TOP_BACK_RIGHTE",
   "size" : 4,
   "source_file" : "out/soong/.intermediates/frameworks/base/media/android.media.audio.common.types-V1-ndk-source/gen/include/aidl/android/media/audio/common/AudioChannelLayout.h",
   "underlying_type" : "_ZTIi"
  },
  {
   "alignment" : 4,
   "enum_fields" :
   [
    {
     "enum_field_value" : 4096,
     "name" : "aidl::android::media::audio::common::AudioChannelLayout::CHANNEL_TOP_FRONT_LEFT"
    }
   ],
   "linker_set_key" : "_ZTIN4aidl7android5media5audio6common18AudioChannelLayout23$CHANNEL_TOP_FRONT_LEFTE",
   "name" : "aidl::android::media::audio::common::AudioChannelLayout::(unnamed enum at out/soong/.intermediates/frameworks/base/media/android.media.audio.common.types-V1-ndk-source/gen/include/aidl/android/media/audio/common/AudioChannelLayout.h:188:3)",
   "referenced_type" : "_ZTIN4aidl7android5media5audio6common18AudioChannelLayout23$CHANNEL_TOP_FRONT_LEFTE",
   "self_type" : "_ZTIN4aidl7android5media5audio6common18AudioChannelLayout23$CHANNEL_TOP_FRONT_LEFTE",
   "size" : 4,
   "source_file" : "out/soong/.intermediates/frameworks/base/media/android.media.audio.common.types-V1-ndk-source/gen/include/aidl/android/media/audio/common/AudioChannelLayout.h",
   "underlying_type" : "_ZTIi"
  },
  {
   "alignment" : 4,
   "enum_fields" :
   [
    {
     "enum_field_value" : 524288,
     "name" : "aidl::android::media::audio::common::AudioChannelLayout::CHANNEL_TOP_SIDE_RIGHT"
    }
   ],
   "linker_set_key" : "_ZTIN4aidl7android5media5audio6common18AudioChannelLayout23$CHANNEL_TOP_SIDE_RIGHTE",
   "name" : "aidl::android::media::audio::common::AudioChannelLayout::(unnamed enum at out/soong/.intermediates/frameworks/base/media/android.media.audio.common.types-V1-ndk-source/gen/include/aidl/android/media/audio/common/AudioChannelLayout.h:195:3)",
   "referenced_type" : "_ZTIN4aidl7android5media5audio6common18AudioChannelLayout23$CHANNEL_TOP_SIDE_RIGHTE",
   "self_type" : "_ZTIN4aidl7android5media5audio6common18AudioChannelLayout23$CHANNEL_TOP_SIDE_RIGHTE",
   "size" : 4,
   "source_file" : "out/soong/.intermediates/frameworks/base/media/android.media.audio.common.types-V1-ndk-source/gen/include/aidl/android/media/audio/common/AudioChannelLayout.h",
   "underlying_type" : "_ZTIi"
  },
  {
   "alignment" : 4,
   "enum_fields" :
   [
    {
     "enum_field_value" : 1073741827,
     "name" : "aidl::android::media::audio::common::AudioChannelLayout::LAYOUT_STEREO_HAPTIC_A"
    }
   ],
   "linker_set_key" : "_ZTIN4aidl7android5media5audio6common18AudioChannelLayout23$LAYOUT_STEREO_HAPTIC_AE",
   "name" : "aidl::android::media::audio::common::AudioChannelLayout::(unnamed enum at out/soong/.intermediates/frameworks/base/media/android.media.audio.common.types-V1-ndk-source/gen/include/aidl/android/media/audio/common/AudioChannelLayout.h:169:3)",
   "referenced_type" : "_ZTIN4aidl7android5media5audio6common18AudioChannelLayout23$LAYOUT_STEREO_HAPTIC_AE",
   "self_type" : "_ZTIN4aidl7android5media5audio6common18AudioChannelLayout23$LAYOUT_STEREO_HAPTIC_AE",
   "size" : 4,
   "source_file" : "out/soong/.intermediates/frameworks/base/media/android.media.audio.common.types-V1-ndk-source/gen/include/aidl/android/media/audio/common/AudioChannelLayout.h",
   "underlying_type" : "_ZTIi"
  },
  {
   "alignment" : 4,
   "enum_fields" :
   [
    {
     "enum_field_value" : 16777216,
     "name" : "aidl::android::media::audio::common::AudioChannelLayout::CHANNEL_FRONT_WIDE_LEFT"
    }
   ],
   "linker_set_key" : "_ZTIN4aidl7android5media5audio6common18AudioChannelLayout24$CHANNEL_FRONT_WIDE_LEFTE",
   "name" : "aidl::android::media::audio::common::AudioChannelLayout::(unnamed enum at out/soong/.intermediates/frameworks/base/media/android.media.audio.common.types-V1-ndk-source/gen/include/aidl/android/media/audio/common/AudioChannelLayout.h:200:3)",
   "referenced_type" : "_ZTIN4aidl7android5media5audio6common18AudioChannelLayout24$CHANNEL_FRONT_WIDE_LEFTE",
   "self_type" : "_ZTIN4aidl7android5media5audio6common18AudioChannelLayout24$CHANNEL_FRONT_WIDE_LEFTE",
   "size" : 4,
   "source_file" : "out/soong/.intermediates/frameworks/base/media/android.media.audio.common.types-V1-ndk-source/gen/include/aidl/android/media/audio/common/AudioChannelLayout.h",
   "underlying_type" : "_ZTIi"
  },
  {
   "alignment" : 4,
   "enum_fields" :
   [
    {
     "enum_field_value" : 8388608,
     "name" : "aidl::android::media::audio::common::AudioChannelLayout::CHANNEL_LOW_FREQUENCY_2"
    }
   ],
   "linker_set_key" : "_ZTIN4aidl7android5media5audio6common18AudioChannelLayout24$CHANNEL_LOW_FREQUENCY_2E",
   "name" : "aidl::android::media::audio::common::AudioChannelLayout::(unnamed enum at out/soong/.intermediates/frameworks/base/media/android.media.audio.common.types-V1-ndk-source/gen/include/aidl/android/media/audio/common/AudioChannelLayout.h:199:3)",
   "referenced_type" : "_ZTIN4aidl7android5media5audio6common18AudioChannelLayout24$CHANNEL_LOW_FREQUENCY_2E",
   "self_type" : "_ZTIN4aidl7android5media5audio6common18AudioChannelLayout24$CHANNEL_LOW_FREQUENCY_2E",
   "size" : 4,
   "source_file" : "out/soong/.intermediates/frameworks/base/media/android.media.audio.common.types-V1-ndk-source/gen/include/aidl/android/media/audio/common/AudioChannelLayout.h",
   "underlying_type" : "_ZTIi"
  },
  {
   "alignment" : 4,
   "enum_fields" :
   [
    {
     "enum_field_value" : 65536,
     "name" : "aidl::android::media::audio::common::AudioChannelLayout::CHANNEL_TOP_BACK_CENTER"
    }
   ],
   "linker_set_key" : "_ZTIN4aidl7android5media5audio6common18AudioChannelLayout24$CHANNEL_TOP_BACK_CENTERE",
   "name" : "aidl::android::media::audio::common::AudioChannelLayout::(unnamed enum at out/soong/.intermediates/frameworks/base/media/android.media.audio.common.types-V1-ndk-source/gen/include/aidl/android/media/audio/common/AudioChannelLayout.h:192:3)",
   "referenced_type" : "_ZTIN4aidl7android5media5audio6common18AudioChannelLayout24$CHANNEL_TOP_BACK_CENTERE",
   "self_type" : "_ZTIN4aidl7android5media5audio6common18AudioChannelLayout24$CHANNEL_TOP_BACK_CENTERE",
   "size" : 4,
   "source_file" : "out/soong/.intermediates/frameworks/base/media/android.media.audio.common.types-V1-ndk-source/gen/include/aidl/android/media/audio/common/AudioChannelLayout.h",
   "underlying_type" : "_ZTIi"
  },
  {
   "alignment" : 4,
   "enum_fields" :
   [
    {
     "enum_field_value" : 16384,
     "name" : "aidl::android::media::audio::common::AudioChannelLayout::CHANNEL_TOP_FRONT_RIGHT"
    }
   ],
   "linker_set_key" : "_ZTIN4aidl7android5media5audio6common18AudioChannelLayout24$CHANNEL_TOP_FRONT_RIGHTE",
   "name" : "aidl::android::media::audio::common::AudioChannelLayout::(unnamed enum at out/soong/.intermediates/frameworks/base/media/android.media.audio.common.types-V1-ndk-source/gen/include/aidl/android/media/audio/common/AudioChannelLayout.h:190:3)",
   "referenced_type" : "_ZTIN4aidl7android5media5audio6common18AudioChannelLayout24$CHANNEL_TOP_FRONT_RIGHTE",
   "self_type" : "_ZTIN4aidl7android5media5audio6common18AudioChannelLayout24$CHANNEL_TOP_FRONT_RIGHTE",
   "size" : 4,
   "source_file" : "out/soong/.intermediates/frameworks/base/media/android.media.audio.common.types-V1-ndk-source/gen/include/aidl/android/media/audio/common/AudioChannelLayout.h",
   "underlying_type" : "_ZTIi"
  },
  {
   "alignment" : 4,
   "enum_fields" :
   [
    {
     "enum_field_value" : 1610612739,
     "name" : "aidl::android::media::audio::common::AudioChannelLayout::LAYOUT_STEREO_HAPTIC_AB"
    }
   ],
   "linker_set_key" : "_ZTIN4aidl7android5media5audio6common18AudioChannelLayout24$LAYOUT_STEREO_HAPTIC_ABE",
   "name" : "aidl::android::media::audio::common::AudioChannelLayout::(unnamed enum at out/soong/.intermediates/frameworks/base/media/android.media.audio.common.types-V1-ndk-source/gen/include/aidl/android/media/audio/common/AudioChannelLayout.h:172:3)",
   "referenced_type" : "_ZTIN4aidl7android5media5audio6common18AudioChannelLayout24$LAYOUT_STEREO_HAPTIC_ABE",
   "self_type" : "_ZTIN4aidl7android5media5audio6common18AudioChannelLayout24$LAYOUT_STEREO_HAPTIC_ABE",
   "size" : 4,
   "source_file" : "out/soong/.intermediates/frameworks/base/media/android.media.audio.common.types-V1-ndk-source/gen/include/aidl/android/media/audio/common/AudioChannelLayout.h",
   "underlying_type" : "_ZTIi"
  },
  {
   "alignment" : 4,
   "enum_fields" :
   [
    {
     "enum_field_value" : 33554432,
     "name" : "aidl::android::media::audio::common::AudioChannelLayout::CHANNEL_FRONT_WIDE_RIGHT"
    }
   ],
   "linker_set_key" : "_ZTIN4aidl7android5media5audio6common18AudioChannelLayout25$CHANNEL_FRONT_WIDE_RIGHTE",
   "name" : "aidl::android::media::audio::common::AudioChannelLayout::(unnamed enum at out/soong/.intermediates/frameworks/base/media/android.media.audio.common.types-V1-ndk-source/gen/include/aidl/android/media/audio/common/AudioChannelLayout.h:201:3)",
   "referenced_type" : "_ZTIN4aidl7android5media5audio6common18AudioChannelLayout25$CHANNEL_FRONT_WIDE_RIGHTE",
   "self_type" : "_ZTIN4aidl7android5media5audio6common18AudioChannelLayout25$CHANNEL_FRONT_WIDE_RIGHTE",
   "size" : 4,
   "source_file" : "out/soong/.intermediates/frameworks/base/media/android.media.audio.common.types-V1-ndk-source/gen/include/aidl/android/media/audio/common/AudioChannelLayout.h",
   "underlying_type" : "_ZTIi"
  },
  {
   "alignment" : 4,
   "enum_fields" :
   [
    {
     "enum_field_value" : 8192,
     "name" : "aidl::android::media::audio::common::AudioChannelLayout::CHANNEL_TOP_FRONT_CENTER"
    }
   ],
   "linker_set_key" : "_ZTIN4aidl7android5media5audio6common18AudioChannelLayout25$CHANNEL_TOP_FRONT_CENTERE",
   "name" : "aidl::android::media::audio::common::AudioChannelLayout::(unnamed enum at out/soong/.intermediates/frameworks/base/media/android.media.audio.common.types-V1-ndk-source/gen/include/aidl/android/media/audio/common/AudioChannelLayout.h:189:3)",
   "referenced_type" : "_ZTIN4aidl7android5media5audio6common18AudioChannelLayout25$CHANNEL_TOP_FRONT_CENTERE",
   "self_type" : "_ZTIN4aidl7android5media5audio6common18AudioChannelLayout25$CHANNEL_TOP_FRONT_CENTERE",
   "size" : 4,
   "source_file" : "out/soong/.intermediates/frameworks/base/media/android.media.audio.common.types-V1-ndk-source/gen/include/aidl/android/media/audio/common/AudioChannelLayout.h",
   "underlying_type" : "_ZTIi"
  },
  {
   "alignment" : 4,
   "enum_fields" :
   [
    {
     "enum_field_value" : 1048576,
     "name" : "aidl::android::media::audio::common::AudioChannelLayout::CHANNEL_BOTTOM_FRONT_LEFT"
    }
   ],
   "linker_set_key" : "_ZTIN4aidl7android5media5audio6common18AudioChannelLayout26$CHANNEL_BOTTOM_FRONT_LEFTE",
   "name" : "aidl::android::media::audio::common::AudioChannelLayout::(unnamed enum at out/soong/.intermediates/frameworks/base/media/android.media.audio.common.types-V1-ndk-source/gen/include/aidl/android/media/audio/common/AudioChannelLayout.h:196:3)",
   "referenced_type" : "_ZTIN4aidl7android5media5audio6common18AudioChannelLayout26$CHANNEL_BOTTOM_FRONT_LEFTE",
   "self_type" : "_ZTIN4aidl7android5media5audio6common18AudioChannelLayout26$CHANNEL_BOTTOM_FRONT_LEFTE",
   "size" : 4,
   "source_file" : "out/soong/.intermediates/frameworks/base/media/android.media.audio.common.types-V1-ndk-source/gen/include/aidl/android/media/audio/common/AudioChannelLayout.h",
   "underlying_type" : "_ZTIi"
  },
  {
   "alignment" : 4,
   "enum_fields" :
   [
    {
     "enum_field_value" : 4194304,
     "name" : "aidl::android::media::audio::common::AudioChannelLayout::CHANNEL_BOTTOM_FRONT_RIGHT"
    }
   ],
   "linker_set_key" : "_ZTIN4aidl7android5media5audio6common18AudioChannelLayout27$CHANNEL_BOTTOM_FRONT_RIGHTE",
   "name" : "aidl::android::media::audio::common::AudioChannelLayout::(unnamed enum at out/soong/.intermediates/frameworks/base/media/android.media.audio.common.types-V1-ndk-source/gen/include/aidl/android/media/audio/common/AudioChannelLayout.h:198:3)",
   "referenced_type" : "_ZTIN4aidl7android5media5audio6common18AudioChannelLayout27$CHANNEL_BOTTOM_FRONT_RIGHTE",
   "self_type" : "_ZTIN4aidl7android5media5audio6common18AudioChannelLayout27$CHANNEL_BOTTOM_FRONT_RIGHTE",
   "size" : 4,
   "source_file" : "out/soong/.intermediates/frameworks/base/media/android.media.audio.common.types-V1-ndk-source/gen/include/aidl/android/media/audio/common/AudioChannelLayout.h",
   "underlying_type" : "_ZTIi"
  },
  {
   "alignment" : 4,
   "enum_fields" :
   [
    {
     "enum_field_value" : 2097152,
     "name" : "aidl::android::media::audio::common::AudioChannelLayout::CHANNEL_BOTTOM_FRONT_CENTER"
    }
   ],
   "linker_set_key" : "_ZTIN4aidl7android5media5audio6common18AudioChannelLayout28$CHANNEL_BOTTOM_FRONT_CENTERE",
   "name" : "aidl::android::media::audio::common::AudioChannelLayout::(unnamed enum at out/soong/.intermediates/frameworks/base/media/android.media.audio.common.types-V1-ndk-source/gen/include/aidl/android/media/audio/common/AudioChannelLayout.h:197:3)",
   "referenced_type" : "_ZTIN4aidl7android5media5audio6common18AudioChannelLayout28$CHANNEL_BOTTOM_FRONT_CENTERE",
   "self_type" : "_ZTIN4aidl7android5media5audio6common18AudioChannelLayout28$CHANNEL_BOTTOM_FRONT_CENTERE",
   "size" : 4,
   "source_file" : "out/soong/.intermediates/frameworks/base/media/android.media.audio.common.types-V1-ndk-source/gen/include/aidl/android/media/audio/common/AudioChannelLayout.h",
   "underlying_type" : "_ZTIi"
  },
  {
   "alignment" : 4,
   "enum_fields" :
   [
    {
     "enum_field_value" : 64,
     "name" : "aidl::android::media::audio::common::AudioChannelLayout::CHANNEL_FRONT_LEFT_OF_CENTER"
    }
   ],
   "linker_set_key" : "_ZTIN4aidl7android5media5audio6common18AudioChannelLayout29$CHANNEL_FRONT_LEFT_OF_CENTERE",
   "name" : "aidl::android::media::audio::common::AudioChannelLayout::(unnamed enum at out/soong/.intermediates/frameworks/base/media/android.media.audio.common.types-V1-ndk-source/gen/include/aidl/android/media/audio/common/AudioChannelLayout.h:182:3)",
   "referenced_type" : "_ZTIN4aidl7android5media5audio6common18AudioChannelLayout29$CHANNEL_FRONT_LEFT_OF_CENTERE",
   "self_type" : "_ZTIN4aidl7android5media5audio6common18AudioChannelLayout29$CHANNEL_FRONT_LEFT_OF_CENTERE",
   "size" : 4,
   "source_file" : "out/soong/.intermediates/frameworks/base/media/android.media.audio.common.types-V1-ndk-source/gen/include/aidl/android/media/audio/common/AudioChannelLayout.h",
   "underlying_type" : "_ZTIi"
  },
  {
   "alignment" : 4,
   "enum_fields" :
   [
    {
     "enum_field_value" : 128,
     "name" : "aidl::android::media::audio::common::AudioChannelLayout::CHANNEL_FRONT_RIGHT_OF_CENTER"
    }
   ],
   "linker_set_key" : "_ZTIN4aidl7android5media5audio6common18AudioChannelLayout30$CHANNEL_FRONT_RIGHT_OF_CENTERE",
   "name" : "aidl::android::media::audio::common::AudioChannelLayout::(unnamed enum at out/soong/.intermediates/frameworks/base/media/android.media.audio.common.types-V1-ndk-source/gen/include/aidl/android/media/audio/common/AudioChannelLayout.h:183:3)",
   "referenced_type" : "_ZTIN4aidl7android5media5audio6common18AudioChannelLayout30$CHANNEL_FRONT_RIGHT_OF_CENTERE",
   "self_type" : "_ZTIN4aidl7android5media5audio6common18AudioChannelLayout30$CHANNEL_FRONT_RIGHT_OF_CENTERE",
   "size" : 4,
   "source_file" : "out/soong/.intermediates/frameworks/base/media/android.media.audio.common.types-V1-ndk-source/gen/include/aidl/android/media/audio/common/AudioChannelLayout.h",
   "underlying_type" : "_ZTIi"
  },
  {
   "alignment" : 4,
   "enum_fields" :
   [
    {
     "enum_field_value" : 0,
     "name" : "aidl::android::media::audio::common::AudioChannelLayout::Tag::none"
    },
    {
     "enum_field_value" : 1,
     "name" : "aidl::android::media::audio::common::AudioChannelLayout::Tag::invalid"
    },
    {
     "enum_field_value" : 2,
     "name" : "aidl::android::media::audio::common::AudioChannelLayout::Tag::indexMask"
    },
    {
     "enum_field_value" : 3,
     "name" : "aidl::android::media::audio::common::AudioChannelLayout::Tag::layoutMask"
    },
    {
     "enum_field_value" : 4,
     "name" : "aidl::android::media::audio::common::AudioChannelLayout::Tag::voiceMask"
    }
   ],
   "linker_set_key" : "_ZTIN4aidl7android5media5audio6common18AudioChannelLayout3TagE",
   "name" : "aidl::android::media::audio::common::AudioChannelLayout::Tag",
   "referenced_type" : "_ZTIN4aidl7android5media5audio6common18AudioChannelLayout3TagE",
   "self_type" : "_ZTIN4aidl7android5media5audio6common18AudioChannelLayout3TagE",
   "size" : 4,
   "source_file" : "out/soong/.intermediates/frameworks/base/media/android.media.audio.common.types-V1-ndk-source/gen/include/aidl/android/media/audio/common/AudioChannelLayout.h",
   "underlying_type" : "_ZTIi"
  },
  {
   "alignment" : 1,
   "enum_fields" :
   [
    {
     "enum_field_value" : -1,
     "name" : "aidl::android::media::audio::common::AudioEncapsulationMode::INVALID"
    },
    {
     "enum_field_value" : 0,
     "name" : "aidl::android::media::audio::common::AudioEncapsulationMode::NONE"
    },
    {
     "enum_field_value" : 1,
     "name" : "aidl::android::media::audio::common::AudioEncapsulationMode::ELEMENTARY_STREAM"
    },
    {
     "enum_field_value" : 2,
     "name" : "aidl::android::media::audio::common::AudioEncapsulationMode::HANDLE"
    }
   ],
   "linker_set_key" : "_ZTIN4aidl7android5media5audio6common22AudioEncapsulationModeE",
   "name" : "aidl::android::media::audio::common::AudioEncapsulationMode",
   "referenced_type" : "_ZTIN4aidl7android5media5audio6common22AudioEncapsulationModeE",
   "self_type" : "_ZTIN4aidl7android5media5audio6common22AudioEncapsulationModeE",
   "size" : 1,
   "source_file" : "out/soong/.intermediates/frameworks/base/media/android.media.audio.common.types-V1-ndk-source/gen/include/aidl/android/media/audio/common/AudioEncapsulationMode.h",
   "underlying_type" : "_ZTIa"
  },
  {
   "alignment" : 1,
   "enum_fields" :
   [
    {
     "enum_field_value" : 0,
     "name" : "aidl::android::media::audio::common::PcmType::DEFAULT"
    },
    {
     "enum_field_value" : 0,
     "name" : "aidl::android::media::audio::common::PcmType::UINT_8_BIT"
    },
    {
     "enum_field_value" : 1,
     "name" : "aidl::android::media::audio::common::PcmType::INT_16_BIT"
    },
    {
     "enum_field_value" : 2,
     "name" : "aidl::android::media::audio::common::PcmType::INT_32_BIT"
    },
    {
     "enum_field_value" : 3,
     "name" : "aidl::android::media::audio::common::PcmType::FIXED_Q_8_24"
    },
    {
     "enum_field_value" : 4,
     "name" : "aidl::android::media::audio::common::PcmType::FLOAT_32_BIT"
    },
    {
     "enum_field_value" : 5,
     "name" : "aidl::android::media::audio::common::PcmType::INT_24_BIT"
    }
   ],
   "linker_set_key" : "_ZTIN4aidl7android5media5audio6common7PcmTypeE",
   "name" : "aidl::android::media::audio::common::PcmType",
   "referenced_type" : "_ZTIN4aidl7android5media5audio6common7PcmTypeE",
   "self_type" : "_ZTIN4aidl7android5media5audio6common7PcmTypeE",
   "size" : 1,
   "source_file" : "out/soong/.intermediates/frameworks/base/media/android.media.audio.common.types-V1-ndk-source/gen/include/aidl/android/media/audio/common/PcmType.h",
   "underlying_type" : "_ZTIa"
  },
  {
   "alignment" : 4,
   "enum_fields" :
   [
    {
     "enum_field_value" : 1,
     "name" : "android::internal::details::IsIterable<std::vector<aidl::android::media::soundtrigger::ConfidenceLevel>>::value"
    }
   ],
   "linker_set_key" : "_ZTIN7android8internal7details10IsIterableINSt3__16vectorIN4aidl7android5media12soundtrigger15ConfidenceLevelENS3_9allocatorIS9_EEEEE6$valueE",
   "name" : "android::internal::details::IsIterable<std::vector<aidl::android::media::soundtrigger::ConfidenceLevel, std::allocator<aidl::android::media::soundtrigger::ConfidenceLevel>>>::(unnamed enum at frameworks/native/libs/binder/ndk/include_cpp/android/binder_to_string.h:131:5)",
   "referenced_type" : "_ZTIN7android8internal7details10IsIterableINSt3__16vectorIN4aidl7android5media12soundtrigger15ConfidenceLevelENS3_9allocatorIS9_EEEEE6$valueE",
   "self_type" : "_ZTIN7android8internal7details10IsIterableINSt3__16vectorIN4aidl7android5media12soundtrigger15ConfidenceLevelENS3_9allocatorIS9_EEEEE6$valueE",
   "size" : 4,
   "source_file" : "frameworks/native/libs/binder/ndk/include_cpp/android/binder_to_string.h",
   "underlying_type" : "_ZTIj"
  },
  {
   "alignment" : 4,
   "enum_fields" :
   [
    {
     "enum_field_value" : 1,
     "name" : "android::internal::details::IsIterable<std::vector<aidl::android::media::soundtrigger::PhraseRecognitionExtra>>::value"
    }
   ],
   "linker_set_key" : "_ZTIN7android8internal7details10IsIterableINSt3__16vectorIN4aidl7android5media12soundtrigger22PhraseRecognitionExtraENS3_9allocatorIS9_EEEEE6$valueE",
   "name" : "android::internal::details::IsIterable<std::vector<aidl::android::media::soundtrigger::PhraseRecognitionExtra, std::allocator<aidl::android::media::soundtrigger::PhraseRecognitionExtra>>>::(unnamed enum at frameworks/native/libs/binder/ndk/include_cpp/android/binder_to_string.h:131:5)",
   "referenced_type" : "_ZTIN7android8internal7details10IsIterableINSt3__16vectorIN4aidl7android5media12soundtrigger22PhraseRecognitionExtraENS3_9allocatorIS9_EEEEE6$valueE",
   "self_type" : "_ZTIN7android8internal7details10IsIterableINSt3__16vectorIN4aidl7android5media12soundtrigger22PhraseRecognitionExtraENS3_9allocatorIS9_EEEEE6$valueE",
   "size" : 4,
   "source_file" : "frameworks/native/libs/binder/ndk/include_cpp/android/binder_to_string.h",
   "underlying_type" : "_ZTIj"
  },
  {
   "alignment" : 4,
   "enum_fields" :
   [
    {
     "enum_field_value" : 1,
     "name" : "android::internal::details::IsIterable<std::vector<aidl::android::media::soundtrigger::Phrase>>::value"
    }
   ],
   "linker_set_key" : "_ZTIN7android8internal7details10IsIterableINSt3__16vectorIN4aidl7android5media12soundtrigger6PhraseENS3_9allocatorIS9_EEEEE6$valueE",
   "name" : "android::internal::details::IsIterable<std::vector<aidl::android::media::soundtrigger::Phrase, std::allocator<aidl::android::media::soundtrigger::Phrase>>>::(unnamed enum at frameworks/native/libs/binder/ndk/include_cpp/android/binder_to_string.h:131:5)",
   "referenced_type" : "_ZTIN7android8internal7details10IsIterableINSt3__16vectorIN4aidl7android5media12soundtrigger6PhraseENS3_9allocatorIS9_EEEEE6$valueE",
   "self_type" : "_ZTIN7android8internal7details10IsIterableINSt3__16vectorIN4aidl7android5media12soundtrigger6PhraseENS3_9allocatorIS9_EEEEE6$valueE",
   "size" : 4,
   "source_file" : "frameworks/native/libs/binder/ndk/include_cpp/android/binder_to_string.h",
   "underlying_type" : "_ZTIj"
  },
  {
   "alignment" : 4,
   "enum_fields" :
   [
    {
     "enum_field_value" : 1,
     "name" : "android::internal::details::IsIterable<std::vector<unsigned char>>::value"
    }
   ],
   "linker_set_key" : "_ZTIN7android8internal7details10IsIterableINSt3__16vectorIhNS3_9allocatorIhEEEEE6$valueE",
   "name" : "android::internal::details::IsIterable<std::vector<unsigned char, std::allocator<unsigned char>>>::(unnamed enum at frameworks/native/libs/binder/ndk/include_cpp/android/binder_to_string.h:131:5)",
   "referenced_type" : "_ZTIN7android8internal7details10IsIterableINSt3__16vectorIhNS3_9allocatorIhEEEEE6$valueE",
   "self_type" : "_ZTIN7android8internal7details10IsIterableINSt3__16vectorIhNS3_9allocatorIhEEEEE6$valueE",
   "size" : 4,
   "source_file" : "frameworks/native/libs/binder/ndk/include_cpp/android/binder_to_string.h",
   "underlying_type" : "_ZTIj"
  },
  {
   "alignment" : 4,
   "enum_fields" :
   [
    {
     "enum_field_value" : 1,
     "name" : "android::internal::details::IsIterable<std::vector<int>>::value"
    }
   ],
   "linker_set_key" : "_ZTIN7android8internal7details10IsIterableINSt3__16vectorIiNS3_9allocatorIiEEEEE6$valueE",
   "name" : "android::internal::details::IsIterable<std::vector<int, std::allocator<int>>>::(unnamed enum at frameworks/native/libs/binder/ndk/include_cpp/android/binder_to_string.h:131:5)",
   "referenced_type" : "_ZTIN7android8internal7details10IsIterableINSt3__16vectorIiNS3_9allocatorIiEEEEE6$valueE",
   "self_type" : "_ZTIN7android8internal7details10IsIterableINSt3__16vectorIiNS3_9allocatorIiEEEEE6$valueE",
   "size" : 4,
   "source_file" : "frameworks/native/libs/binder/ndk/include_cpp/android/binder_to_string.h",
   "underlying_type" : "_ZTIj"
  },
  {
   "alignment" : 4,
   "enum_fields" :
   [
    {
     "enum_field_value" : 0,
     "name" : "android::internal::details::IsPointerLike<aidl::android::media::soundtrigger::SoundModel>::value"
    }
   ],
   "linker_set_key" : "_ZTIN7android8internal7details13IsPointerLikeIN4aidl7android5media12soundtrigger10SoundModelEE6$valueE",
   "name" : "android::internal::details::IsPointerLike<aidl::android::media::soundtrigger::SoundModel>::(unnamed enum at frameworks/native/libs/binder/ndk/include_cpp/android/binder_to_string.h:118:5)",
   "referenced_type" : "_ZTIN7android8internal7details13IsPointerLikeIN4aidl7android5media12soundtrigger10SoundModelEE6$valueE",
   "self_type" : "_ZTIN7android8internal7details13IsPointerLikeIN4aidl7android5media12soundtrigger10SoundModelEE6$valueE",
   "size" : 4,
   "source_file" : "frameworks/native/libs/binder/ndk/include_cpp/android/binder_to_string.h",
   "underlying_type" : "_ZTIj"
  },
  {
   "alignment" : 4,
   "enum_fields" :
   [
    {
     "enum_field_value" : 0,
     "name" : "android::internal::details::IsPointerLike<aidl::android::media::soundtrigger::SoundModelType>::value"
    }
   ],
   "linker_set_key" : "_ZTIN7android8internal7details13IsPointerLikeIN4aidl7android5media12soundtrigger14SoundModelTypeEE6$valueE",
   "name" : "android::internal::details::IsPointerLike<aidl::android::media::soundtrigger::SoundModelType>::(unnamed enum at frameworks/native/libs/binder/ndk/include_cpp/android/binder_to_string.h:118:5)",
   "referenced_type" : "_ZTIN7android8internal7details13IsPointerLikeIN4aidl7android5media12soundtrigger14SoundModelTypeEE6$valueE",
   "self_type" : "_ZTIN7android8internal7details13IsPointerLikeIN4aidl7android5media12soundtrigger14SoundModelTypeEE6$valueE",
   "size" : 4,
   "source_file" : "frameworks/native/libs/binder/ndk/include_cpp/android/binder_to_string.h",
   "underlying_type" : "_ZTIj"
  },
  {
   "alignment" : 4,
   "enum_fields" :
   [
    {
     "enum_field_value" : 0,
     "name" : "android::internal::details::IsPointerLike<aidl::android::media::soundtrigger::ConfidenceLevel>::value"
    }
   ],
   "linker_set_key" : "_ZTIN7android8internal7details13IsPointerLikeIN4aidl7android5media12soundtrigger15ConfidenceLevelEE6$valueE",
   "name" : "android::internal::details::IsPointerLike<aidl::android::media::soundtrigger::ConfidenceLevel>::(unnamed enum at frameworks/native/libs/binder/ndk/include_cpp/android/binder_to_string.h:118:5)",
   "referenced_type" : "_ZTIN7android8internal7details13IsPointerLikeIN4aidl7android5media12soundtrigger15ConfidenceLevelEE6$valueE",
   "self_type" : "_ZTIN7android8internal7details13IsPointerLikeIN4aidl7android5media12soundtrigger15ConfidenceLevelEE6$valueE",
   "size" : 4,
   "source_file" : "frameworks/native/libs/binder/ndk/include_cpp/android/binder_to_string.h",
   "underlying_type" : "_ZTIj"
  },
  {
   "alignment" : 4,
   "enum_fields" :
   [
    {
     "enum_field_value" : 0,
     "name" : "android::internal::details::IsPointerLike<aidl::android::media::soundtrigger::RecognitionEvent>::value"
    }
   ],
   "linker_set_key" : "_ZTIN7android8internal7details13IsPointerLikeIN4aidl7android5media12soundtrigger16RecognitionEventEE6$valueE",
   "name" : "android::internal::details::IsPointerLike<aidl::android::media::soundtrigger::RecognitionEvent>::(unnamed enum at frameworks/native/libs/binder/ndk/include_cpp/android/binder_to_string.h:118:5)",
   "referenced_type" : "_ZTIN7android8internal7details13IsPointerLikeIN4aidl7android5media12soundtrigger16RecognitionEventEE6$valueE",
   "self_type" : "_ZTIN7android8internal7details13IsPointerLikeIN4aidl7android5media12soundtrigger16RecognitionEventEE6$valueE",
   "size" : 4,
   "source_file" : "frameworks/native/libs/binder/ndk/include_cpp/android/binder_to_string.h",
   "underlying_type" : "_ZTIj"
  },
  {
   "alignment" : 4,
   "enum_fields" :
   [
    {
     "enum_field_value" : 0,
     "name" : "android::internal::details::IsPointerLike<aidl::android::media::soundtrigger::RecognitionStatus>::value"
    }
   ],
   "linker_set_key" : "_ZTIN7android8internal7details13IsPointerLikeIN4aidl7android5media12soundtrigger17RecognitionStatusEE6$valueE",
   "name" : "android::internal::details::IsPointerLike<aidl::android::media::soundtrigger::RecognitionStatus>::(unnamed enum at frameworks/native/libs/binder/ndk/include_cpp/android/binder_to_string.h:118:5)",
   "referenced_type" : "_ZTIN7android8internal7details13IsPointerLikeIN4aidl7android5media12soundtrigger17RecognitionStatusEE6$valueE",
   "self_type" : "_ZTIN7android8internal7details13IsPointerLikeIN4aidl7android5media12soundtrigger17RecognitionStatusEE6$valueE",
   "size" : 4,
   "source_file" : "frameworks/native/libs/binder/ndk/include_cpp/android/binder_to_string.h",
   "underlying_type" : "_ZTIj"
  },
  {
   "alignment" : 4,
   "enum_fields" :
   [
    {
     "enum_field_value" : 0,
     "name" : "android::internal::details::IsPointerLike<aidl::android::media::soundtrigger::PhraseRecognitionExtra>::value"
    }
   ],
   "linker_set_key" : "_ZTIN7android8internal7details13IsPointerLikeIN4aidl7android5media12soundtrigger22PhraseRecognitionExtraEE6$valueE",
   "name" : "android::internal::details::IsPointerLike<aidl::android::media::soundtrigger::PhraseRecognitionExtra>::(unnamed enum at frameworks/native/libs/binder/ndk/include_cpp/android/binder_to_string.h:118:5)",
   "referenced_type" : "_ZTIN7android8internal7details13IsPointerLikeIN4aidl7android5media12soundtrigger22PhraseRecognitionExtraEE6$valueE",
   "self_type" : "_ZTIN7android8internal7details13IsPointerLikeIN4aidl7android5media12soundtrigger22PhraseRecognitionExtraEE6$valueE",
   "size" : 4,
   "source_file" : "frameworks/native/libs/binder/ndk/include_cpp/android/binder_to_string.h",
   "underlying_type" : "_ZTIj"
  },
  {
   "alignment" : 4,
   "enum_fields" :
   [
    {
     "enum_field_value" : 0,
     "name" : "android::internal::details::IsPointerLike<aidl::android::media::soundtrigger::Phrase>::value"
    }
   ],
   "linker_set_key" : "_ZTIN7android8internal7details13IsPointerLikeIN4aidl7android5media12soundtrigger6PhraseEE6$valueE",
   "name" : "android::internal::details::IsPointerLike<aidl::android::media::soundtrigger::Phrase>::(unnamed enum at frameworks/native/libs/binder/ndk/include_cpp/android/binder_to_string.h:118:5)",
   "referenced_type" : "_ZTIN7android8internal7details13IsPointerLikeIN4aidl7android5media12soundtrigger6PhraseEE6$valueE",
   "self_type" : "_ZTIN7android8internal7details13IsPointerLikeIN4aidl7android5media12soundtrigger6PhraseEE6$valueE",
   "size" : 4,
   "source_file" : "frameworks/native/libs/binder/ndk/include_cpp/android/binder_to_string.h",
   "underlying_type" : "_ZTIj"
  },
  {
   "alignment" : 4,
   "enum_fields" :
   [
    {
     "enum_field_value" : 0,
     "name" : "android::internal::details::IsPointerLike<aidl::android::media::audio::common::AudioUsage>::value"
    }
   ],
   "linker_set_key" : "_ZTIN7android8internal7details13IsPointerLikeIN4aidl7android5media5audio6common10AudioUsageEE6$valueE",
   "name" : "android::internal::details::IsPointerLike<aidl::android::media::audio::common::AudioUsage>::(unnamed enum at frameworks/native/libs/binder/ndk/include_cpp/android/binder_to_string.h:118:5)",
   "referenced_type" : "_ZTIN7android8internal7details13IsPointerLikeIN4aidl7android5media5audio6common10AudioUsageEE6$valueE",
   "self_type" : "_ZTIN7android8internal7details13IsPointerLikeIN4aidl7android5media5audio6common10AudioUsageEE6$valueE",
   "size" : 4,
   "source_file" : "frameworks/native/libs/binder/ndk/include_cpp/android/binder_to_string.h",
   "underlying_type" : "_ZTIj"
  },
  {
   "alignment" : 4,
   "enum_fields" :
   [
    {
     "enum_field_value" : 0,
     "name" : "android::internal::details::IsPointerLike<aidl::android::media::audio::common::AudioConfig>::value"
    }
   ],
   "linker_set_key" : "_ZTIN7android8internal7details13IsPointerLikeIN4aidl7android5media5audio6common11AudioConfigEE6$valueE",
   "name" : "android::internal::details::IsPointerLike<aidl::android::media::audio::common::AudioConfig>::(unnamed enum at frameworks/native/libs/binder/ndk/include_cpp/android/binder_to_string.h:118:5)",
   "referenced_type" : "_ZTIN7android8internal7details13IsPointerLikeIN4aidl7android5media5audio6common11AudioConfigEE6$valueE",
   "self_type" : "_ZTIN7android8internal7details13IsPointerLikeIN4aidl7android5media5audio6common11AudioConfigEE6$valueE",
   "size" : 4,
   "source_file" : "frameworks/native/libs/binder/ndk/include_cpp/android/binder_to_string.h",
   "underlying_type" : "_ZTIj"
  },
  {
   "alignment" : 4,
   "enum_fields" :
   [
    {
     "enum_field_value" : 0,
     "name" : "android::internal::details::IsPointerLike<aidl::android::media::audio::common::AudioConfigBase>::value"
    }
   ],
   "linker_set_key" : "_ZTIN7android8internal7details13IsPointerLikeIN4aidl7android5media5audio6common15AudioConfigBaseEE6$valueE",
   "name" : "android::internal::details::IsPointerLike<aidl::android::media::audio::common::AudioConfigBase>::(unnamed enum at frameworks/native/libs/binder/ndk/include_cpp/android/binder_to_string.h:118:5)",
   "referenced_type" : "_ZTIN7android8internal7details13IsPointerLikeIN4aidl7android5media5audio6common15AudioConfigBaseEE6$valueE",
   "self_type" : "_ZTIN7android8internal7details13IsPointerLikeIN4aidl7android5media5audio6common15AudioConfigBaseEE6$valueE",
   "size" : 4,
   "source_file" : "frameworks/native/libs/binder/ndk/include_cpp/android/binder_to_string.h",
   "underlying_type" : "_ZTIj"
  },
  {
   "alignment" : 4,
   "enum_fields" :
   [
    {
     "enum_field_value" : 0,
     "name" : "android::internal::details::IsPointerLike<aidl::android::media::audio::common::AudioFormatType>::value"
    }
   ],
   "linker_set_key" : "_ZTIN7android8internal7details13IsPointerLikeIN4aidl7android5media5audio6common15AudioFormatTypeEE6$valueE",
   "name" : "android::internal::details::IsPointerLike<aidl::android::media::audio::common::AudioFormatType>::(unnamed enum at frameworks/native/libs/binder/ndk/include_cpp/android/binder_to_string.h:118:5)",
   "referenced_type" : "_ZTIN7android8internal7details13IsPointerLikeIN4aidl7android5media5audio6common15AudioFormatTypeEE6$valueE",
   "self_type" : "_ZTIN7android8internal7details13IsPointerLikeIN4aidl7android5media5audio6common15AudioFormatTypeEE6$valueE",
   "size" : 4,
   "source_file" : "frameworks/native/libs/binder/ndk/include_cpp/android/binder_to_string.h",
   "underlying_type" : "_ZTIj"
  },
  {
   "alignment" : 4,
   "enum_fields" :
   [
    {
     "enum_field_value" : 0,
     "name" : "android::internal::details::IsPointerLike<aidl::android::media::audio::common::AudioStreamType>::value"
    }
   ],
   "linker_set_key" : "_ZTIN7android8internal7details13IsPointerLikeIN4aidl7android5media5audio6common15AudioStreamTypeEE6$valueE",
   "name" : "android::internal::details::IsPointerLike<aidl::android::media::audio::common::AudioStreamType>::(unnamed enum at frameworks/native/libs/binder/ndk/include_cpp/android/binder_to_string.h:118:5)",
   "referenced_type" : "_ZTIN7android8internal7details13IsPointerLikeIN4aidl7android5media5audio6common15AudioStreamTypeEE6$valueE",
   "self_type" : "_ZTIN7android8internal7details13IsPointerLikeIN4aidl7android5media5audio6common15AudioStreamTypeEE6$valueE",
   "size" : 4,
   "source_file" : "frameworks/native/libs/binder/ndk/include_cpp/android/binder_to_string.h",
   "underlying_type" : "_ZTIj"
  },
  {
   "alignment" : 4,
   "enum_fields" :
   [
    {
     "enum_field_value" : 0,
     "name" : "android::internal::details::IsPointerLike<aidl::android::media::audio::common::AudioOffloadInfo>::value"
    }
   ],
   "linker_set_key" : "_ZTIN7android8internal7details13IsPointerLikeIN4aidl7android5media5audio6common16AudioOffloadInfoEE6$valueE",
   "name" : "android::internal::details::IsPointerLike<aidl::android::media::audio::common::AudioOffloadInfo>::(unnamed enum at frameworks/native/libs/binder/ndk/include_cpp/android/binder_to_string.h:118:5)",
   "referenced_type" : "_ZTIN7android8internal7details13IsPointerLikeIN4aidl7android5media5audio6common16AudioOffloadInfoEE6$valueE",
   "self_type" : "_ZTIN7android8internal7details13IsPointerLikeIN4aidl7android5media5audio6common16AudioOffloadInfoEE6$valueE",
   "size" : 4,
   "source_file" : "frameworks/native/libs/binder/ndk/include_cpp/android/binder_to_string.h",
   "underlying_type" : "_ZTIj"
  },
  {
   "alignment" : 4,
   "enum_fields" :
   [
    {
     "enum_field_value" : 0,
     "name" : "android::internal::details::IsPointerLike<aidl::android::media::audio::common::AudioChannelLayout>::value"
    }
   ],
   "linker_set_key" : "_ZTIN7android8internal7details13IsPointerLikeIN4aidl7android5media5audio6common18AudioChannelLayoutEE6$valueE",
   "name" : "android::internal::details::IsPointerLike<aidl::android::media::audio::common::AudioChannelLayout>::(unnamed enum at frameworks/native/libs/binder/ndk/include_cpp/android/binder_to_string.h:118:5)",
   "referenced_type" : "_ZTIN7android8internal7details13IsPointerLikeIN4aidl7android5media5audio6common18AudioChannelLayoutEE6$valueE",
   "self_type" : "_ZTIN7android8internal7details13IsPointerLikeIN4aidl7android5media5audio6common18AudioChannelLayoutEE6$valueE",
   "size" : 4,
   "source_file" : "frameworks/native/libs/binder/ndk/include_cpp/android/binder_to_string.h",
   "underlying_type" : "_ZTIj"
  },
  {
   "alignment" : 4,
   "enum_fields" :
   [
    {
     "enum_field_value" : 0,
     "name" : "android::internal::details::IsPointerLike<aidl::android::media::audio::common::AudioEncapsulationMode>::value"
    }
   ],
   "linker_set_key" : "_ZTIN7android8internal7details13IsPointerLikeIN4aidl7android5media5audio6common22AudioEncapsulationModeEE6$valueE",
   "name" : "android::internal::details::IsPointerLike<aidl::android::media::audio::common::AudioEncapsulationMode>::(unnamed enum at frameworks/native/libs/binder/ndk/include_cpp/android/binder_to_string.h:118:5)",
   "referenced_type" : "_ZTIN7android8internal7details13IsPointerLikeIN4aidl7android5media5audio6common22AudioEncapsulationModeEE6$valueE",
   "self_type" : "_ZTIN7android8internal7details13IsPointerLikeIN4aidl7android5media5audio6common22AudioEncapsulationModeEE6$valueE",
   "size" : 4,
   "source_file" : "frameworks/native/libs/binder/ndk/include_cpp/android/binder_to_string.h",
   "underlying_type" : "_ZTIj"
  },
  {
   "alignment" : 4,
   "enum_fields" :
   [
    {
     "enum_field_value" : 0,
     "name" : "android::internal::details::IsPointerLike<aidl::android::media::audio::common::AudioFormatDescription>::value"
    }
   ],
   "linker_set_key" : "_ZTIN7android8internal7details13IsPointerLikeIN4aidl7android5media5audio6common22AudioFormatDescriptionEE6$valueE",
   "name" : "android::internal::details::IsPointerLike<aidl::android::media::audio::common::AudioFormatDescription>::(unnamed enum at frameworks/native/libs/binder/ndk/include_cpp/android/binder_to_string.h:118:5)",
   "referenced_type" : "_ZTIN7android8internal7details13IsPointerLikeIN4aidl7android5media5audio6common22AudioFormatDescriptionEE6$valueE",
   "self_type" : "_ZTIN7android8internal7details13IsPointerLikeIN4aidl7android5media5audio6common22AudioFormatDescriptionEE6$valueE",
   "size" : 4,
   "source_file" : "frameworks/native/libs/binder/ndk/include_cpp/android/binder_to_string.h",
   "underlying_type" : "_ZTIj"
  },
  {
   "alignment" : 4,
   "enum_fields" :
   [
    {
     "enum_field_value" : 0,
     "name" : "android::internal::details::IsPointerLike<aidl::android::media::audio::common::PcmType>::value"
    }
   ],
   "linker_set_key" : "_ZTIN7android8internal7details13IsPointerLikeIN4aidl7android5media5audio6common7PcmTypeEE6$valueE",
   "name" : "android::internal::details::IsPointerLike<aidl::android::media::audio::common::PcmType>::(unnamed enum at frameworks/native/libs/binder/ndk/include_cpp/android/binder_to_string.h:118:5)",
   "referenced_type" : "_ZTIN7android8internal7details13IsPointerLikeIN4aidl7android5media5audio6common7PcmTypeEE6$valueE",
   "self_type" : "_ZTIN7android8internal7details13IsPointerLikeIN4aidl7android5media5audio6common7PcmTypeEE6$valueE",
   "size" : 4,
   "source_file" : "frameworks/native/libs/binder/ndk/include_cpp/android/binder_to_string.h",
   "underlying_type" : "_ZTIj"
  },
  {
   "alignment" : 4,
   "enum_fields" :
   [
    {
     "enum_field_value" : 0,
     "name" : "android::internal::details::IsPointerLike<std::vector<aidl::android::media::soundtrigger::ConfidenceLevel>>::value"
    }
   ],
   "linker_set_key" : "_ZTIN7android8internal7details13IsPointerLikeINSt3__16vectorIN4aidl7android5media12soundtrigger15ConfidenceLevelENS3_9allocatorIS9_EEEEE6$valueE",
   "name" : "android::internal::details::IsPointerLike<std::vector<aidl::android::media::soundtrigger::ConfidenceLevel, std::allocator<aidl::android::media::soundtrigger::ConfidenceLevel>>>::(unnamed enum at frameworks/native/libs/binder/ndk/include_cpp/android/binder_to_string.h:118:5)",
   "referenced_type" : "_ZTIN7android8internal7details13IsPointerLikeINSt3__16vectorIN4aidl7android5media12soundtrigger15ConfidenceLevelENS3_9allocatorIS9_EEEEE6$valueE",
   "self_type" : "_ZTIN7android8internal7details13IsPointerLikeINSt3__16vectorIN4aidl7android5media12soundtrigger15ConfidenceLevelENS3_9allocatorIS9_EEEEE6$valueE",
   "size" : 4,
   "source_file" : "frameworks/native/libs/binder/ndk/include_cpp/android/binder_to_string.h",
   "underlying_type" : "_ZTIj"
  },
  {
   "alignment" : 4,
   "enum_fields" :
   [
    {
     "enum_field_value" : 0,
     "name" : "android::internal::details::IsPointerLike<std::vector<aidl::android::media::soundtrigger::PhraseRecognitionExtra>>::value"
    }
   ],
   "linker_set_key" : "_ZTIN7android8internal7details13IsPointerLikeINSt3__16vectorIN4aidl7android5media12soundtrigger22PhraseRecognitionExtraENS3_9allocatorIS9_EEEEE6$valueE",
   "name" : "android::internal::details::IsPointerLike<std::vector<aidl::android::media::soundtrigger::PhraseRecognitionExtra, std::allocator<aidl::android::media::soundtrigger::PhraseRecognitionExtra>>>::(unnamed enum at frameworks/native/libs/binder/ndk/include_cpp/android/binder_to_string.h:118:5)",
   "referenced_type" : "_ZTIN7android8internal7details13IsPointerLikeINSt3__16vectorIN4aidl7android5media12soundtrigger22PhraseRecognitionExtraENS3_9allocatorIS9_EEEEE6$valueE",
   "self_type" : "_ZTIN7android8internal7details13IsPointerLikeINSt3__16vectorIN4aidl7android5media12soundtrigger22PhraseRecognitionExtraENS3_9allocatorIS9_EEEEE6$valueE",
   "size" : 4,
   "source_file" : "frameworks/native/libs/binder/ndk/include_cpp/android/binder_to_string.h",
   "underlying_type" : "_ZTIj"
  },
  {
   "alignment" : 4,
   "enum_fields" :
   [
    {
     "enum_field_value" : 0,
     "name" : "android::internal::details::IsPointerLike<std::vector<aidl::android::media::soundtrigger::Phrase>>::value"
    }
   ],
   "linker_set_key" : "_ZTIN7android8internal7details13IsPointerLikeINSt3__16vectorIN4aidl7android5media12soundtrigger6PhraseENS3_9allocatorIS9_EEEEE6$valueE",
   "name" : "android::internal::details::IsPointerLike<std::vector<aidl::android::media::soundtrigger::Phrase, std::allocator<aidl::android::media::soundtrigger::Phrase>>>::(unnamed enum at frameworks/native/libs/binder/ndk/include_cpp/android/binder_to_string.h:118:5)",
   "referenced_type" : "_ZTIN7android8internal7details13IsPointerLikeINSt3__16vectorIN4aidl7android5media12soundtrigger6PhraseENS3_9allocatorIS9_EEEEE6$valueE",
   "self_type" : "_ZTIN7android8internal7details13IsPointerLikeINSt3__16vectorIN4aidl7android5media12soundtrigger6PhraseENS3_9allocatorIS9_EEEEE6$valueE",
   "size" : 4,
   "source_file" : "frameworks/native/libs/binder/ndk/include_cpp/android/binder_to_string.h",
   "underlying_type" : "_ZTIj"
  },
  {
   "alignment" : 4,
   "enum_fields" :
   [
    {
     "enum_field_value" : 0,
     "name" : "android::internal::details::IsPointerLike<std::vector<unsigned char>>::value"
    }
   ],
   "linker_set_key" : "_ZTIN7android8internal7details13IsPointerLikeINSt3__16vectorIhNS3_9allocatorIhEEEEE6$valueE",
   "name" : "android::internal::details::IsPointerLike<std::vector<unsigned char, std::allocator<unsigned char>>>::(unnamed enum at frameworks/native/libs/binder/ndk/include_cpp/android/binder_to_string.h:118:5)",
   "referenced_type" : "_ZTIN7android8internal7details13IsPointerLikeINSt3__16vectorIhNS3_9allocatorIhEEEEE6$valueE",
   "self_type" : "_ZTIN7android8internal7details13IsPointerLikeINSt3__16vectorIhNS3_9allocatorIhEEEEE6$valueE",
   "size" : 4,
   "source_file" : "frameworks/native/libs/binder/ndk/include_cpp/android/binder_to_string.h",
   "underlying_type" : "_ZTIj"
  },
  {
   "alignment" : 4,
   "enum_fields" :
   [
    {
     "enum_field_value" : 0,
     "name" : "android::internal::details::IsPointerLike<std::vector<int>>::value"
    }
   ],
   "linker_set_key" : "_ZTIN7android8internal7details13IsPointerLikeINSt3__16vectorIiNS3_9allocatorIiEEEEE6$valueE",
   "name" : "android::internal::details::IsPointerLike<std::vector<int, std::allocator<int>>>::(unnamed enum at frameworks/native/libs/binder/ndk/include_cpp/android/binder_to_string.h:118:5)",
   "referenced_type" : "_ZTIN7android8internal7details13IsPointerLikeINSt3__16vectorIiNS3_9allocatorIiEEEEE6$valueE",
   "self_type" : "_ZTIN7android8internal7details13IsPointerLikeINSt3__16vectorIiNS3_9allocatorIiEEEEE6$valueE",
   "size" : 4,
   "source_file" : "frameworks/native/libs/binder/ndk/include_cpp/android/binder_to_string.h",
   "underlying_type" : "_ZTIj"
  },
  {
   "alignment" : 4,
   "enum_fields" :
   [
    {
     "enum_field_value" : 1,
     "name" : "android::internal::details::IsPointerLike<std::optional<aidl::android::media::audio::common::AudioConfig>>::value"
    }
   ],
   "linker_set_key" : "_ZTIN7android8internal7details13IsPointerLikeINSt3__18optionalIN4aidl7android5media5audio6common11AudioConfigEEEE6$valueE",
   "name" : "android::internal::details::IsPointerLike<std::optional<aidl::android::media::audio::common::AudioConfig>>::(unnamed enum at frameworks/native/libs/binder/ndk/include_cpp/android/binder_to_string.h:118:5)",
   "referenced_type" : "_ZTIN7android8internal7details13IsPointerLikeINSt3__18optionalIN4aidl7android5media5audio6common11AudioConfigEEEE6$valueE",
   "self_type" : "_ZTIN7android8internal7details13IsPointerLikeINSt3__18optionalIN4aidl7android5media5audio6common11AudioConfigEEEE6$valueE",
   "size" : 4,
   "source_file" : "frameworks/native/libs/binder/ndk/include_cpp/android/binder_to_string.h",
   "underlying_type" : "_ZTIj"
  },
  {
   "alignment" : 4,
   "enum_fields" :
   [
    {
     "enum_field_value" : 0,
     "name" : "android::internal::details::ToEmptyString<ndk::ScopedFileDescriptor>::value"
    }
   ],
   "linker_set_key" : "_ZTIN7android8internal7details13ToEmptyStringIN3ndk20ScopedFileDescriptorEE6$valueE",
   "name" : "android::internal::details::ToEmptyString<ndk::ScopedFileDescriptor>::(unnamed enum at frameworks/native/libs/binder/ndk/include_cpp/android/binder_to_string.h:153:5)",
   "referenced_type" : "_ZTIN7android8internal7details13ToEmptyStringIN3ndk20ScopedFileDescriptorEE6$valueE",
   "self_type" : "_ZTIN7android8internal7details13ToEmptyStringIN3ndk20ScopedFileDescriptorEE6$valueE",
   "size" : 4,
   "source_file" : "frameworks/native/libs/binder/ndk/include_cpp/android/binder_to_string.h",
   "underlying_type" : "_ZTIj"
  },
  {
   "alignment" : 4,
   "enum_fields" :
   [
    {
     "enum_field_value" : 0,
     "name" : "android::internal::details::ToEmptyString<aidl::android::media::soundtrigger::SoundModel>::value"
    }
   ],
   "linker_set_key" : "_ZTIN7android8internal7details13ToEmptyStringIN4aidl7android5media12soundtrigger10SoundModelEE6$valueE",
   "name" : "android::internal::details::ToEmptyString<aidl::android::media::soundtrigger::SoundModel>::(unnamed enum at frameworks/native/libs/binder/ndk/include_cpp/android/binder_to_string.h:153:5)",
   "referenced_type" : "_ZTIN7android8internal7details13ToEmptyStringIN4aidl7android5media12soundtrigger10SoundModelEE6$valueE",
   "self_type" : "_ZTIN7android8internal7details13ToEmptyStringIN4aidl7android5media12soundtrigger10SoundModelEE6$valueE",
   "size" : 4,
   "source_file" : "frameworks/native/libs/binder/ndk/include_cpp/android/binder_to_string.h",
   "underlying_type" : "_ZTIj"
  },
  {
   "alignment" : 4,
   "enum_fields" :
   [
    {
     "enum_field_value" : 0,
     "name" : "android::internal::details::ToEmptyString<aidl::android::media::soundtrigger::SoundModelType>::value"
    }
   ],
   "linker_set_key" : "_ZTIN7android8internal7details13ToEmptyStringIN4aidl7android5media12soundtrigger14SoundModelTypeEE6$valueE",
   "name" : "android::internal::details::ToEmptyString<aidl::android::media::soundtrigger::SoundModelType>::(unnamed enum at frameworks/native/libs/binder/ndk/include_cpp/android/binder_to_string.h:153:5)",
   "referenced_type" : "_ZTIN7android8internal7details13ToEmptyStringIN4aidl7android5media12soundtrigger14SoundModelTypeEE6$valueE",
   "self_type" : "_ZTIN7android8internal7details13ToEmptyStringIN4aidl7android5media12soundtrigger14SoundModelTypeEE6$valueE",
   "size" : 4,
   "source_file" : "frameworks/native/libs/binder/ndk/include_cpp/android/binder_to_string.h",
   "underlying_type" : "_ZTIj"
  },
  {
   "alignment" : 4,
   "enum_fields" :
   [
    {
     "enum_field_value" : 0,
     "name" : "android::internal::details::ToEmptyString<aidl::android::media::soundtrigger::ConfidenceLevel>::value"
    }
   ],
   "linker_set_key" : "_ZTIN7android8internal7details13ToEmptyStringIN4aidl7android5media12soundtrigger15ConfidenceLevelEE6$valueE",
   "name" : "android::internal::details::ToEmptyString<aidl::android::media::soundtrigger::ConfidenceLevel>::(unnamed enum at frameworks/native/libs/binder/ndk/include_cpp/android/binder_to_string.h:153:5)",
   "referenced_type" : "_ZTIN7android8internal7details13ToEmptyStringIN4aidl7android5media12soundtrigger15ConfidenceLevelEE6$valueE",
   "self_type" : "_ZTIN7android8internal7details13ToEmptyStringIN4aidl7android5media12soundtrigger15ConfidenceLevelEE6$valueE",
   "size" : 4,
   "source_file" : "frameworks/native/libs/binder/ndk/include_cpp/android/binder_to_string.h",
   "underlying_type" : "_ZTIj"
  },
  {
   "alignment" : 4,
   "enum_fields" :
   [
    {
     "enum_field_value" : 0,
     "name" : "android::internal::details::ToEmptyString<aidl::android::media::soundtrigger::RecognitionEvent>::value"
    }
   ],
   "linker_set_key" : "_ZTIN7android8internal7details13ToEmptyStringIN4aidl7android5media12soundtrigger16RecognitionEventEE6$valueE",
   "name" : "android::internal::details::ToEmptyString<aidl::android::media::soundtrigger::RecognitionEvent>::(unnamed enum at frameworks/native/libs/binder/ndk/include_cpp/android/binder_to_string.h:153:5)",
   "referenced_type" : "_ZTIN7android8internal7details13ToEmptyStringIN4aidl7android5media12soundtrigger16RecognitionEventEE6$valueE",
   "self_type" : "_ZTIN7android8internal7details13ToEmptyStringIN4aidl7android5media12soundtrigger16RecognitionEventEE6$valueE",
   "size" : 4,
   "source_file" : "frameworks/native/libs/binder/ndk/include_cpp/android/binder_to_string.h",
   "underlying_type" : "_ZTIj"
  },
  {
   "alignment" : 4,
   "enum_fields" :
   [
    {
     "enum_field_value" : 0,
     "name" : "android::internal::details::ToEmptyString<aidl::android::media::soundtrigger::RecognitionStatus>::value"
    }
   ],
   "linker_set_key" : "_ZTIN7android8internal7details13ToEmptyStringIN4aidl7android5media12soundtrigger17RecognitionStatusEE6$valueE",
   "name" : "android::internal::details::ToEmptyString<aidl::android::media::soundtrigger::RecognitionStatus>::(unnamed enum at frameworks/native/libs/binder/ndk/include_cpp/android/binder_to_string.h:153:5)",
   "referenced_type" : "_ZTIN7android8internal7details13ToEmptyStringIN4aidl7android5media12soundtrigger17RecognitionStatusEE6$valueE",
   "self_type" : "_ZTIN7android8internal7details13ToEmptyStringIN4aidl7android5media12soundtrigger17RecognitionStatusEE6$valueE",
   "size" : 4,
   "source_file" : "frameworks/native/libs/binder/ndk/include_cpp/android/binder_to_string.h",
   "underlying_type" : "_ZTIj"
  },
  {
   "alignment" : 4,
   "enum_fields" :
   [
    {
     "enum_field_value" : 0,
     "name" : "android::internal::details::ToEmptyString<aidl::android::media::soundtrigger::PhraseRecognitionExtra>::value"
    }
   ],
   "linker_set_key" : "_ZTIN7android8internal7details13ToEmptyStringIN4aidl7android5media12soundtrigger22PhraseRecognitionExtraEE6$valueE",
   "name" : "android::internal::details::ToEmptyString<aidl::android::media::soundtrigger::PhraseRecognitionExtra>::(unnamed enum at frameworks/native/libs/binder/ndk/include_cpp/android/binder_to_string.h:153:5)",
   "referenced_type" : "_ZTIN7android8internal7details13ToEmptyStringIN4aidl7android5media12soundtrigger22PhraseRecognitionExtraEE6$valueE",
   "self_type" : "_ZTIN7android8internal7details13ToEmptyStringIN4aidl7android5media12soundtrigger22PhraseRecognitionExtraEE6$valueE",
   "size" : 4,
   "source_file" : "frameworks/native/libs/binder/ndk/include_cpp/android/binder_to_string.h",
   "underlying_type" : "_ZTIj"
  },
  {
   "alignment" : 4,
   "enum_fields" :
   [
    {
     "enum_field_value" : 0,
     "name" : "android::internal::details::ToEmptyString<aidl::android::media::soundtrigger::Phrase>::value"
    }
   ],
   "linker_set_key" : "_ZTIN7android8internal7details13ToEmptyStringIN4aidl7android5media12soundtrigger6PhraseEE6$valueE",
   "name" : "android::internal::details::ToEmptyString<aidl::android::media::soundtrigger::Phrase>::(unnamed enum at frameworks/native/libs/binder/ndk/include_cpp/android/binder_to_string.h:153:5)",
   "referenced_type" : "_ZTIN7android8internal7details13ToEmptyStringIN4aidl7android5media12soundtrigger6PhraseEE6$valueE",
   "self_type" : "_ZTIN7android8internal7details13ToEmptyStringIN4aidl7android5media12soundtrigger6PhraseEE6$valueE",
   "size" : 4,
   "source_file" : "frameworks/native/libs/binder/ndk/include_cpp/android/binder_to_string.h",
   "underlying_type" : "_ZTIj"
  },
  {
   "alignment" : 4,
   "enum_fields" :
   [
    {
     "enum_field_value" : 0,
     "name" : "android::internal::details::ToEmptyString<aidl::android::media::audio::common::AudioUsage>::value"
    }
   ],
   "linker_set_key" : "_ZTIN7android8internal7details13ToEmptyStringIN4aidl7android5media5audio6common10AudioUsageEE6$valueE",
   "name" : "android::internal::details::ToEmptyString<aidl::android::media::audio::common::AudioUsage>::(unnamed enum at frameworks/native/libs/binder/ndk/include_cpp/android/binder_to_string.h:153:5)",
   "referenced_type" : "_ZTIN7android8internal7details13ToEmptyStringIN4aidl7android5media5audio6common10AudioUsageEE6$valueE",
   "self_type" : "_ZTIN7android8internal7details13ToEmptyStringIN4aidl7android5media5audio6common10AudioUsageEE6$valueE",
   "size" : 4,
   "source_file" : "frameworks/native/libs/binder/ndk/include_cpp/android/binder_to_string.h",
   "underlying_type" : "_ZTIj"
  },
  {
   "alignment" : 4,
   "enum_fields" :
   [
    {
     "enum_field_value" : 0,
     "name" : "android::internal::details::ToEmptyString<aidl::android::media::audio::common::AudioConfig>::value"
    }
   ],
   "linker_set_key" : "_ZTIN7android8internal7details13ToEmptyStringIN4aidl7android5media5audio6common11AudioConfigEE6$valueE",
   "name" : "android::internal::details::ToEmptyString<aidl::android::media::audio::common::AudioConfig>::(unnamed enum at frameworks/native/libs/binder/ndk/include_cpp/android/binder_to_string.h:153:5)",
   "referenced_type" : "_ZTIN7android8internal7details13ToEmptyStringIN4aidl7android5media5audio6common11AudioConfigEE6$valueE",
   "self_type" : "_ZTIN7android8internal7details13ToEmptyStringIN4aidl7android5media5audio6common11AudioConfigEE6$valueE",
   "size" : 4,
   "source_file" : "frameworks/native/libs/binder/ndk/include_cpp/android/binder_to_string.h",
   "underlying_type" : "_ZTIj"
  },
  {
   "alignment" : 4,
   "enum_fields" :
   [
    {
     "enum_field_value" : 0,
     "name" : "android::internal::details::ToEmptyString<aidl::android::media::audio::common::AudioConfigBase>::value"
    }
   ],
   "linker_set_key" : "_ZTIN7android8internal7details13ToEmptyStringIN4aidl7android5media5audio6common15AudioConfigBaseEE6$valueE",
   "name" : "android::internal::details::ToEmptyString<aidl::android::media::audio::common::AudioConfigBase>::(unnamed enum at frameworks/native/libs/binder/ndk/include_cpp/android/binder_to_string.h:153:5)",
   "referenced_type" : "_ZTIN7android8internal7details13ToEmptyStringIN4aidl7android5media5audio6common15AudioConfigBaseEE6$valueE",
   "self_type" : "_ZTIN7android8internal7details13ToEmptyStringIN4aidl7android5media5audio6common15AudioConfigBaseEE6$valueE",
   "size" : 4,
   "source_file" : "frameworks/native/libs/binder/ndk/include_cpp/android/binder_to_string.h",
   "underlying_type" : "_ZTIj"
  },
  {
   "alignment" : 4,
   "enum_fields" :
   [
    {
     "enum_field_value" : 0,
     "name" : "android::internal::details::ToEmptyString<aidl::android::media::audio::common::AudioFormatType>::value"
    }
   ],
   "linker_set_key" : "_ZTIN7android8internal7details13ToEmptyStringIN4aidl7android5media5audio6common15AudioFormatTypeEE6$valueE",
   "name" : "android::internal::details::ToEmptyString<aidl::android::media::audio::common::AudioFormatType>::(unnamed enum at frameworks/native/libs/binder/ndk/include_cpp/android/binder_to_string.h:153:5)",
   "referenced_type" : "_ZTIN7android8internal7details13ToEmptyStringIN4aidl7android5media5audio6common15AudioFormatTypeEE6$valueE",
   "self_type" : "_ZTIN7android8internal7details13ToEmptyStringIN4aidl7android5media5audio6common15AudioFormatTypeEE6$valueE",
   "size" : 4,
   "source_file" : "frameworks/native/libs/binder/ndk/include_cpp/android/binder_to_string.h",
   "underlying_type" : "_ZTIj"
  },
  {
   "alignment" : 4,
   "enum_fields" :
   [
    {
     "enum_field_value" : 0,
     "name" : "android::internal::details::ToEmptyString<aidl::android::media::audio::common::AudioStreamType>::value"
    }
   ],
   "linker_set_key" : "_ZTIN7android8internal7details13ToEmptyStringIN4aidl7android5media5audio6common15AudioStreamTypeEE6$valueE",
   "name" : "android::internal::details::ToEmptyString<aidl::android::media::audio::common::AudioStreamType>::(unnamed enum at frameworks/native/libs/binder/ndk/include_cpp/android/binder_to_string.h:153:5)",
   "referenced_type" : "_ZTIN7android8internal7details13ToEmptyStringIN4aidl7android5media5audio6common15AudioStreamTypeEE6$valueE",
   "self_type" : "_ZTIN7android8internal7details13ToEmptyStringIN4aidl7android5media5audio6common15AudioStreamTypeEE6$valueE",
   "size" : 4,
   "source_file" : "frameworks/native/libs/binder/ndk/include_cpp/android/binder_to_string.h",
   "underlying_type" : "_ZTIj"
  },
  {
   "alignment" : 4,
   "enum_fields" :
   [
    {
     "enum_field_value" : 0,
     "name" : "android::internal::details::ToEmptyString<aidl::android::media::audio::common::AudioOffloadInfo>::value"
    }
   ],
   "linker_set_key" : "_ZTIN7android8internal7details13ToEmptyStringIN4aidl7android5media5audio6common16AudioOffloadInfoEE6$valueE",
   "name" : "android::internal::details::ToEmptyString<aidl::android::media::audio::common::AudioOffloadInfo>::(unnamed enum at frameworks/native/libs/binder/ndk/include_cpp/android/binder_to_string.h:153:5)",
   "referenced_type" : "_ZTIN7android8internal7details13ToEmptyStringIN4aidl7android5media5audio6common16AudioOffloadInfoEE6$valueE",
   "self_type" : "_ZTIN7android8internal7details13ToEmptyStringIN4aidl7android5media5audio6common16AudioOffloadInfoEE6$valueE",
   "size" : 4,
   "source_file" : "frameworks/native/libs/binder/ndk/include_cpp/android/binder_to_string.h",
   "underlying_type" : "_ZTIj"
  },
  {
   "alignment" : 4,
   "enum_fields" :
   [
    {
     "enum_field_value" : 0,
     "name" : "android::internal::details::ToEmptyString<aidl::android::media::audio::common::AudioChannelLayout>::value"
    }
   ],
   "linker_set_key" : "_ZTIN7android8internal7details13ToEmptyStringIN4aidl7android5media5audio6common18AudioChannelLayoutEE6$valueE",
   "name" : "android::internal::details::ToEmptyString<aidl::android::media::audio::common::AudioChannelLayout>::(unnamed enum at frameworks/native/libs/binder/ndk/include_cpp/android/binder_to_string.h:153:5)",
   "referenced_type" : "_ZTIN7android8internal7details13ToEmptyStringIN4aidl7android5media5audio6common18AudioChannelLayoutEE6$valueE",
   "self_type" : "_ZTIN7android8internal7details13ToEmptyStringIN4aidl7android5media5audio6common18AudioChannelLayoutEE6$valueE",
   "size" : 4,
   "source_file" : "frameworks/native/libs/binder/ndk/include_cpp/android/binder_to_string.h",
   "underlying_type" : "_ZTIj"
  },
  {
   "alignment" : 4,
   "enum_fields" :
   [
    {
     "enum_field_value" : 0,
     "name" : "android::internal::details::ToEmptyString<aidl::android::media::audio::common::AudioEncapsulationMode>::value"
    }
   ],
   "linker_set_key" : "_ZTIN7android8internal7details13ToEmptyStringIN4aidl7android5media5audio6common22AudioEncapsulationModeEE6$valueE",
   "name" : "android::internal::details::ToEmptyString<aidl::android::media::audio::common::AudioEncapsulationMode>::(unnamed enum at frameworks/native/libs/binder/ndk/include_cpp/android/binder_to_string.h:153:5)",
   "referenced_type" : "_ZTIN7android8internal7details13ToEmptyStringIN4aidl7android5media5audio6common22AudioEncapsulationModeEE6$valueE",
   "self_type" : "_ZTIN7android8internal7details13ToEmptyStringIN4aidl7android5media5audio6common22AudioEncapsulationModeEE6$valueE",
   "size" : 4,
   "source_file" : "frameworks/native/libs/binder/ndk/include_cpp/android/binder_to_string.h",
   "underlying_type" : "_ZTIj"
  },
  {
   "alignment" : 4,
   "enum_fields" :
   [
    {
     "enum_field_value" : 0,
     "name" : "android::internal::details::ToEmptyString<aidl::android::media::audio::common::AudioFormatDescription>::value"
    }
   ],
   "linker_set_key" : "_ZTIN7android8internal7details13ToEmptyStringIN4aidl7android5media5audio6common22AudioFormatDescriptionEE6$valueE",
   "name" : "android::internal::details::ToEmptyString<aidl::android::media::audio::common::AudioFormatDescription>::(unnamed enum at frameworks/native/libs/binder/ndk/include_cpp/android/binder_to_string.h:153:5)",
   "referenced_type" : "_ZTIN7android8internal7details13ToEmptyStringIN4aidl7android5media5audio6common22AudioFormatDescriptionEE6$valueE",
   "self_type" : "_ZTIN7android8internal7details13ToEmptyStringIN4aidl7android5media5audio6common22AudioFormatDescriptionEE6$valueE",
   "size" : 4,
   "source_file" : "frameworks/native/libs/binder/ndk/include_cpp/android/binder_to_string.h",
   "underlying_type" : "_ZTIj"
  },
  {
   "alignment" : 4,
   "enum_fields" :
   [
    {
     "enum_field_value" : 0,
     "name" : "android::internal::details::ToEmptyString<aidl::android::media::audio::common::PcmType>::value"
    }
   ],
   "linker_set_key" : "_ZTIN7android8internal7details13ToEmptyStringIN4aidl7android5media5audio6common7PcmTypeEE6$valueE",
   "name" : "android::internal::details::ToEmptyString<aidl::android::media::audio::common::PcmType>::(unnamed enum at frameworks/native/libs/binder/ndk/include_cpp/android/binder_to_string.h:153:5)",
   "referenced_type" : "_ZTIN7android8internal7details13ToEmptyStringIN4aidl7android5media5audio6common7PcmTypeEE6$valueE",
   "self_type" : "_ZTIN7android8internal7details13ToEmptyStringIN4aidl7android5media5audio6common7PcmTypeEE6$valueE",
   "size" : 4,
   "source_file" : "frameworks/native/libs/binder/ndk/include_cpp/android/binder_to_string.h",
   "underlying_type" : "_ZTIj"
  },
  {
   "alignment" : 4,
   "enum_fields" :
   [
    {
     "enum_field_value" : 0,
     "name" : "android::internal::details::ToEmptyString<std::basic_string<char>>::value"
    }
   ],
   "linker_set_key" : "_ZTIN7android8internal7details13ToEmptyStringINSt3__112basic_stringIcNS3_11char_traitsIcEENS3_9allocatorIcEEEEE6$valueE",
   "name" : "android::internal::details::ToEmptyString<std::basic_string<char, std::char_traits<char>, std::allocator<char>>>::(unnamed enum at frameworks/native/libs/binder/ndk/include_cpp/android/binder_to_string.h:153:5)",
   "referenced_type" : "_ZTIN7android8internal7details13ToEmptyStringINSt3__112basic_stringIcNS3_11char_traitsIcEENS3_9allocatorIcEEEEE6$valueE",
   "self_type" : "_ZTIN7android8internal7details13ToEmptyStringINSt3__112basic_stringIcNS3_11char_traitsIcEENS3_9allocatorIcEEEEE6$valueE",
   "size" : 4,
   "source_file" : "frameworks/native/libs/binder/ndk/include_cpp/android/binder_to_string.h",
   "underlying_type" : "_ZTIj"
  },
  {
   "alignment" : 4,
   "enum_fields" :
   [
    {
     "enum_field_value" : 0,
     "name" : "android::internal::details::ToEmptyString<std::vector<aidl::android::media::soundtrigger::ConfidenceLevel>>::value"
    }
   ],
   "linker_set_key" : "_ZTIN7android8internal7details13ToEmptyStringINSt3__16vectorIN4aidl7android5media12soundtrigger15ConfidenceLevelENS3_9allocatorIS9_EEEEE6$valueE",
   "name" : "android::internal::details::ToEmptyString<std::vector<aidl::android::media::soundtrigger::ConfidenceLevel, std::allocator<aidl::android::media::soundtrigger::ConfidenceLevel>>>::(unnamed enum at frameworks/native/libs/binder/ndk/include_cpp/android/binder_to_string.h:153:5)",
   "referenced_type" : "_ZTIN7android8internal7details13ToEmptyStringINSt3__16vectorIN4aidl7android5media12soundtrigger15ConfidenceLevelENS3_9allocatorIS9_EEEEE6$valueE",
   "self_type" : "_ZTIN7android8internal7details13ToEmptyStringINSt3__16vectorIN4aidl7android5media12soundtrigger15ConfidenceLevelENS3_9allocatorIS9_EEEEE6$valueE",
   "size" : 4,
   "source_file" : "frameworks/native/libs/binder/ndk/include_cpp/android/binder_to_string.h",
   "underlying_type" : "_ZTIj"
  },
  {
   "alignment" : 4,
   "enum_fields" :
   [
    {
     "enum_field_value" : 0,
     "name" : "android::internal::details::ToEmptyString<std::vector<aidl::android::media::soundtrigger::PhraseRecognitionExtra>>::value"
    }
   ],
   "linker_set_key" : "_ZTIN7android8internal7details13ToEmptyStringINSt3__16vectorIN4aidl7android5media12soundtrigger22PhraseRecognitionExtraENS3_9allocatorIS9_EEEEE6$valueE",
   "name" : "android::internal::details::ToEmptyString<std::vector<aidl::android::media::soundtrigger::PhraseRecognitionExtra, std::allocator<aidl::android::media::soundtrigger::PhraseRecognitionExtra>>>::(unnamed enum at frameworks/native/libs/binder/ndk/include_cpp/android/binder_to_string.h:153:5)",
   "referenced_type" : "_ZTIN7android8internal7details13ToEmptyStringINSt3__16vectorIN4aidl7android5media12soundtrigger22PhraseRecognitionExtraENS3_9allocatorIS9_EEEEE6$valueE",
   "self_type" : "_ZTIN7android8internal7details13ToEmptyStringINSt3__16vectorIN4aidl7android5media12soundtrigger22PhraseRecognitionExtraENS3_9allocatorIS9_EEEEE6$valueE",
   "size" : 4,
   "source_file" : "frameworks/native/libs/binder/ndk/include_cpp/android/binder_to_string.h",
   "underlying_type" : "_ZTIj"
  },
  {
   "alignment" : 4,
   "enum_fields" :
   [
    {
     "enum_field_value" : 0,
     "name" : "android::internal::details::ToEmptyString<std::vector<aidl::android::media::soundtrigger::Phrase>>::value"
    }
   ],
   "linker_set_key" : "_ZTIN7android8internal7details13ToEmptyStringINSt3__16vectorIN4aidl7android5media12soundtrigger6PhraseENS3_9allocatorIS9_EEEEE6$valueE",
   "name" : "android::internal::details::ToEmptyString<std::vector<aidl::android::media::soundtrigger::Phrase, std::allocator<aidl::android::media::soundtrigger::Phrase>>>::(unnamed enum at frameworks/native/libs/binder/ndk/include_cpp/android/binder_to_string.h:153:5)",
   "referenced_type" : "_ZTIN7android8internal7details13ToEmptyStringINSt3__16vectorIN4aidl7android5media12soundtrigger6PhraseENS3_9allocatorIS9_EEEEE6$valueE",
   "self_type" : "_ZTIN7android8internal7details13ToEmptyStringINSt3__16vectorIN4aidl7android5media12soundtrigger6PhraseENS3_9allocatorIS9_EEEEE6$valueE",
   "size" : 4,
   "source_file" : "frameworks/native/libs/binder/ndk/include_cpp/android/binder_to_string.h",
   "underlying_type" : "_ZTIj"
  },
  {
   "alignment" : 4,
   "enum_fields" :
   [
    {
     "enum_field_value" : 0,
     "name" : "android::internal::details::ToEmptyString<std::vector<unsigned char>>::value"
    }
   ],
   "linker_set_key" : "_ZTIN7android8internal7details13ToEmptyStringINSt3__16vectorIhNS3_9allocatorIhEEEEE6$valueE",
   "name" : "android::internal::details::ToEmptyString<std::vector<unsigned char, std::allocator<unsigned char>>>::(unnamed enum at frameworks/native/libs/binder/ndk/include_cpp/android/binder_to_string.h:153:5)",
   "referenced_type" : "_ZTIN7android8internal7details13ToEmptyStringINSt3__16vectorIhNS3_9allocatorIhEEEEE6$valueE",
   "self_type" : "_ZTIN7android8internal7details13ToEmptyStringINSt3__16vectorIhNS3_9allocatorIhEEEEE6$valueE",
   "size" : 4,
   "source_file" : "frameworks/native/libs/binder/ndk/include_cpp/android/binder_to_string.h",
   "underlying_type" : "_ZTIj"
  },
  {
   "alignment" : 4,
   "enum_fields" :
   [
    {
     "enum_field_value" : 0,
     "name" : "android::internal::details::ToEmptyString<std::vector<int>>::value"
    }
   ],
   "linker_set_key" : "_ZTIN7android8internal7details13ToEmptyStringINSt3__16vectorIiNS3_9allocatorIiEEEEE6$valueE",
   "name" : "android::internal::details::ToEmptyString<std::vector<int, std::allocator<int>>>::(unnamed enum at frameworks/native/libs/binder/ndk/include_cpp/android/binder_to_string.h:153:5)",
   "referenced_type" : "_ZTIN7android8internal7details13ToEmptyStringINSt3__16vectorIiNS3_9allocatorIiEEEEE6$valueE",
   "self_type" : "_ZTIN7android8internal7details13ToEmptyStringINSt3__16vectorIiNS3_9allocatorIiEEEEE6$valueE",
   "size" : 4,
   "source_file" : "frameworks/native/libs/binder/ndk/include_cpp/android/binder_to_string.h",
   "underlying_type" : "_ZTIj"
  },
  {
   "alignment" : 4,
   "enum_fields" :
   [
    {
     "enum_field_value" : 0,
     "name" : "android::internal::details::ToEmptyString<std::optional<aidl::android::media::audio::common::AudioConfig>>::value"
    }
   ],
   "linker_set_key" : "_ZTIN7android8internal7details13ToEmptyStringINSt3__18optionalIN4aidl7android5media5audio6common11AudioConfigEEEE6$valueE",
   "name" : "android::internal::details::ToEmptyString<std::optional<aidl::android::media::audio::common::AudioConfig>>::(unnamed enum at frameworks/native/libs/binder/ndk/include_cpp/android/binder_to_string.h:153:5)",
   "referenced_type" : "_ZTIN7android8internal7details13ToEmptyStringINSt3__18optionalIN4aidl7android5media5audio6common11AudioConfigEEEE6$valueE",
   "self_type" : "_ZTIN7android8internal7details13ToEmptyStringINSt3__18optionalIN4aidl7android5media5audio6common11AudioConfigEEEE6$valueE",
   "size" : 4,
   "source_file" : "frameworks/native/libs/binder/ndk/include_cpp/android/binder_to_string.h",
   "underlying_type" : "_ZTIj"
  },
  {
   "alignment" : 4,
   "enum_fields" :
   [
    {
     "enum_field_value" : 0,
     "name" : "android::internal::details::ToEmptyString<bool>::value"
    }
   ],
   "linker_set_key" : "_ZTIN7android8internal7details13ToEmptyStringIbE6$valueE",
   "name" : "android::internal::details::ToEmptyString<bool>::(unnamed enum at frameworks/native/libs/binder/ndk/include_cpp/android/binder_to_string.h:153:5)",
   "referenced_type" : "_ZTIN7android8internal7details13ToEmptyStringIbE6$valueE",
   "self_type" : "_ZTIN7android8internal7details13ToEmptyStringIbE6$valueE",
   "size" : 4,
   "source_file" : "frameworks/native/libs/binder/ndk/include_cpp/android/binder_to_string.h",
   "underlying_type" : "_ZTIj"
  },
  {
   "alignment" : 4,
   "enum_fields" :
   [
    {
     "enum_field_value" : 0,
     "name" : "android::internal::details::ToEmptyString<unsigned char>::value"
    }
   ],
   "linker_set_key" : "_ZTIN7android8internal7details13ToEmptyStringIhE6$valueE",
   "name" : "android::internal::details::ToEmptyString<unsigned char>::(unnamed enum at frameworks/native/libs/binder/ndk/include_cpp/android/binder_to_string.h:153:5)",
   "referenced_type" : "_ZTIN7android8internal7details13ToEmptyStringIhE6$valueE",
   "self_type" : "_ZTIN7android8internal7details13ToEmptyStringIhE6$valueE",
   "size" : 4,
   "source_file" : "frameworks/native/libs/binder/ndk/include_cpp/android/binder_to_string.h",
   "underlying_type" : "_ZTIj"
  },
  {
   "alignment" : 4,
   "enum_fields" :
   [
    {
     "enum_field_value" : 0,
     "name" : "android::internal::details::ToEmptyString<int>::value"
    }
   ],
   "linker_set_key" : "_ZTIN7android8internal7details13ToEmptyStringIiE6$valueE",
   "name" : "android::internal::details::ToEmptyString<int>::(unnamed enum at frameworks/native/libs/binder/ndk/include_cpp/android/binder_to_string.h:153:5)",
   "referenced_type" : "_ZTIN7android8internal7details13ToEmptyStringIiE6$valueE",
   "self_type" : "_ZTIN7android8internal7details13ToEmptyStringIiE6$valueE",
   "size" : 4,
   "source_file" : "frameworks/native/libs/binder/ndk/include_cpp/android/binder_to_string.h",
   "underlying_type" : "_ZTIj"
  },
  {
   "alignment" : 4,
   "enum_fields" :
   [
    {
     "enum_field_value" : 0,
     "name" : "android::internal::details::ToEmptyString<long>::value"
    }
   ],
   "linker_set_key" : "_ZTIN7android8internal7details13ToEmptyStringIlE6$valueE",
   "name" : "android::internal::details::ToEmptyString<long>::(unnamed enum at frameworks/native/libs/binder/ndk/include_cpp/android/binder_to_string.h:153:5)",
   "referenced_type" : "_ZTIN7android8internal7details13ToEmptyStringIlE6$valueE",
   "self_type" : "_ZTIN7android8internal7details13ToEmptyStringIlE6$valueE",
   "size" : 4,
   "source_file" : "frameworks/native/libs/binder/ndk/include_cpp/android/binder_to_string.h",
   "underlying_type" : "_ZTIj"
  },
  {
   "alignment" : 4,
   "enum_fields" :
   [
    {
     "enum_field_value" : 1,
     "name" : "android::internal::details::HasToStringMethod<aidl::android::media::soundtrigger::SoundModel>::value"
    }
   ],
   "linker_set_key" : "_ZTIN7android8internal7details17HasToStringMethodIN4aidl7android5media12soundtrigger10SoundModelEE6$valueE",
   "name" : "android::internal::details::HasToStringMethod<aidl::android::media::soundtrigger::SoundModel>::(unnamed enum at frameworks/native/libs/binder/ndk/include_cpp/android/binder_to_string.h:77:5)",
   "referenced_type" : "_ZTIN7android8internal7details17HasToStringMethodIN4aidl7android5media12soundtrigger10SoundModelEE6$valueE",
   "self_type" : "_ZTIN7android8internal7details17HasToStringMethodIN4aidl7android5media12soundtrigger10SoundModelEE6$valueE",
   "size" : 4,
   "source_file" : "frameworks/native/libs/binder/ndk/include_cpp/android/binder_to_string.h",
   "underlying_type" : "_ZTIj"
  },
  {
   "alignment" : 4,
   "enum_fields" :
   [
    {
     "enum_field_value" : 0,
     "name" : "android::internal::details::HasToStringMethod<aidl::android::media::soundtrigger::SoundModelType>::value"
    }
   ],
   "linker_set_key" : "_ZTIN7android8internal7details17HasToStringMethodIN4aidl7android5media12soundtrigger14SoundModelTypeEE6$valueE",
   "name" : "android::internal::details::HasToStringMethod<aidl::android::media::soundtrigger::SoundModelType>::(unnamed enum at frameworks/native/libs/binder/ndk/include_cpp/android/binder_to_string.h:77:5)",
   "referenced_type" : "_ZTIN7android8internal7details17HasToStringMethodIN4aidl7android5media12soundtrigger14SoundModelTypeEE6$valueE",
   "self_type" : "_ZTIN7android8internal7details17HasToStringMethodIN4aidl7android5media12soundtrigger14SoundModelTypeEE6$valueE",
   "size" : 4,
   "source_file" : "frameworks/native/libs/binder/ndk/include_cpp/android/binder_to_string.h",
   "underlying_type" : "_ZTIj"
  },
  {
   "alignment" : 4,
   "enum_fields" :
   [
    {
     "enum_field_value" : 1,
     "name" : "android::internal::details::HasToStringMethod<aidl::android::media::soundtrigger::ConfidenceLevel>::value"
    }
   ],
   "linker_set_key" : "_ZTIN7android8internal7details17HasToStringMethodIN4aidl7android5media12soundtrigger15ConfidenceLevelEE6$valueE",
   "name" : "android::internal::details::HasToStringMethod<aidl::android::media::soundtrigger::ConfidenceLevel>::(unnamed enum at frameworks/native/libs/binder/ndk/include_cpp/android/binder_to_string.h:77:5)",
   "referenced_type" : "_ZTIN7android8internal7details17HasToStringMethodIN4aidl7android5media12soundtrigger15ConfidenceLevelEE6$valueE",
   "self_type" : "_ZTIN7android8internal7details17HasToStringMethodIN4aidl7android5media12soundtrigger15ConfidenceLevelEE6$valueE",
   "size" : 4,
   "source_file" : "frameworks/native/libs/binder/ndk/include_cpp/android/binder_to_string.h",
   "underlying_type" : "_ZTIj"
  },
  {
   "alignment" : 4,
   "enum_fields" :
   [
    {
     "enum_field_value" : 1,
     "name" : "android::internal::details::HasToStringMethod<aidl::android::media::soundtrigger::RecognitionEvent>::value"
    }
   ],
   "linker_set_key" : "_ZTIN7android8internal7details17HasToStringMethodIN4aidl7android5media12soundtrigger16RecognitionEventEE6$valueE",
   "name" : "android::internal::details::HasToStringMethod<aidl::android::media::soundtrigger::RecognitionEvent>::(unnamed enum at frameworks/native/libs/binder/ndk/include_cpp/android/binder_to_string.h:77:5)",
   "referenced_type" : "_ZTIN7android8internal7details17HasToStringMethodIN4aidl7android5media12soundtrigger16RecognitionEventEE6$valueE",
   "self_type" : "_ZTIN7android8internal7details17HasToStringMethodIN4aidl7android5media12soundtrigger16RecognitionEventEE6$valueE",
   "size" : 4,
   "source_file" : "frameworks/native/libs/binder/ndk/include_cpp/android/binder_to_string.h",
   "underlying_type" : "_ZTIj"
  },
  {
   "alignment" : 4,
   "enum_fields" :
   [
    {
     "enum_field_value" : 0,
     "name" : "android::internal::details::HasToStringMethod<aidl::android::media::soundtrigger::RecognitionStatus>::value"
    }
   ],
   "linker_set_key" : "_ZTIN7android8internal7details17HasToStringMethodIN4aidl7android5media12soundtrigger17RecognitionStatusEE6$valueE",
   "name" : "android::internal::details::HasToStringMethod<aidl::android::media::soundtrigger::RecognitionStatus>::(unnamed enum at frameworks/native/libs/binder/ndk/include_cpp/android/binder_to_string.h:77:5)",
   "referenced_type" : "_ZTIN7android8internal7details17HasToStringMethodIN4aidl7android5media12soundtrigger17RecognitionStatusEE6$valueE",
   "self_type" : "_ZTIN7android8internal7details17HasToStringMethodIN4aidl7android5media12soundtrigger17RecognitionStatusEE6$valueE",
   "size" : 4,
   "source_file" : "frameworks/native/libs/binder/ndk/include_cpp/android/binder_to_string.h",
   "underlying_type" : "_ZTIj"
  },
  {
   "alignment" : 4,
   "enum_fields" :
   [
    {
     "enum_field_value" : 1,
     "name" : "android::internal::details::HasToStringMethod<aidl::android::media::soundtrigger::PhraseRecognitionExtra>::value"
    }
   ],
   "linker_set_key" : "_ZTIN7android8internal7details17HasToStringMethodIN4aidl7android5media12soundtrigger22PhraseRecognitionExtraEE6$valueE",
   "name" : "android::internal::details::HasToStringMethod<aidl::android::media::soundtrigger::PhraseRecognitionExtra>::(unnamed enum at frameworks/native/libs/binder/ndk/include_cpp/android/binder_to_string.h:77:5)",
   "referenced_type" : "_ZTIN7android8internal7details17HasToStringMethodIN4aidl7android5media12soundtrigger22PhraseRecognitionExtraEE6$valueE",
   "self_type" : "_ZTIN7android8internal7details17HasToStringMethodIN4aidl7android5media12soundtrigger22PhraseRecognitionExtraEE6$valueE",
   "size" : 4,
   "source_file" : "frameworks/native/libs/binder/ndk/include_cpp/android/binder_to_string.h",
   "underlying_type" : "_ZTIj"
  },
  {
   "alignment" : 4,
   "enum_fields" :
   [
    {
     "enum_field_value" : 1,
     "name" : "android::internal::details::HasToStringMethod<aidl::android::media::soundtrigger::Phrase>::value"
    }
   ],
   "linker_set_key" : "_ZTIN7android8internal7details17HasToStringMethodIN4aidl7android5media12soundtrigger6PhraseEE6$valueE",
   "name" : "android::internal::details::HasToStringMethod<aidl::android::media::soundtrigger::Phrase>::(unnamed enum at frameworks/native/libs/binder/ndk/include_cpp/android/binder_to_string.h:77:5)",
   "referenced_type" : "_ZTIN7android8internal7details17HasToStringMethodIN4aidl7android5media12soundtrigger6PhraseEE6$valueE",
   "self_type" : "_ZTIN7android8internal7details17HasToStringMethodIN4aidl7android5media12soundtrigger6PhraseEE6$valueE",
   "size" : 4,
   "source_file" : "frameworks/native/libs/binder/ndk/include_cpp/android/binder_to_string.h",
   "underlying_type" : "_ZTIj"
  },
  {
   "alignment" : 4,
   "enum_fields" :
   [
    {
     "enum_field_value" : 0,
     "name" : "android::internal::details::HasToStringMethod<aidl::android::media::audio::common::AudioUsage>::value"
    }
   ],
   "linker_set_key" : "_ZTIN7android8internal7details17HasToStringMethodIN4aidl7android5media5audio6common10AudioUsageEE6$valueE",
   "name" : "android::internal::details::HasToStringMethod<aidl::android::media::audio::common::AudioUsage>::(unnamed enum at frameworks/native/libs/binder/ndk/include_cpp/android/binder_to_string.h:77:5)",
   "referenced_type" : "_ZTIN7android8internal7details17HasToStringMethodIN4aidl7android5media5audio6common10AudioUsageEE6$valueE",
   "self_type" : "_ZTIN7android8internal7details17HasToStringMethodIN4aidl7android5media5audio6common10AudioUsageEE6$valueE",
   "size" : 4,
   "source_file" : "frameworks/native/libs/binder/ndk/include_cpp/android/binder_to_string.h",
   "underlying_type" : "_ZTIj"
  },
  {
   "alignment" : 4,
   "enum_fields" :
   [
    {
     "enum_field_value" : 1,
     "name" : "android::internal::details::HasToStringMethod<aidl::android::media::audio::common::AudioConfig>::value"
    }
   ],
   "linker_set_key" : "_ZTIN7android8internal7details17HasToStringMethodIN4aidl7android5media5audio6common11AudioConfigEE6$valueE",
   "name" : "android::internal::details::HasToStringMethod<aidl::android::media::audio::common::AudioConfig>::(unnamed enum at frameworks/native/libs/binder/ndk/include_cpp/android/binder_to_string.h:77:5)",
   "referenced_type" : "_ZTIN7android8internal7details17HasToStringMethodIN4aidl7android5media5audio6common11AudioConfigEE6$valueE",
   "self_type" : "_ZTIN7android8internal7details17HasToStringMethodIN4aidl7android5media5audio6common11AudioConfigEE6$valueE",
   "size" : 4,
   "source_file" : "frameworks/native/libs/binder/ndk/include_cpp/android/binder_to_string.h",
   "underlying_type" : "_ZTIj"
  },
  {
   "alignment" : 4,
   "enum_fields" :
   [
    {
     "enum_field_value" : 1,
     "name" : "android::internal::details::HasToStringMethod<aidl::android::media::audio::common::AudioConfigBase>::value"
    }
   ],
   "linker_set_key" : "_ZTIN7android8internal7details17HasToStringMethodIN4aidl7android5media5audio6common15AudioConfigBaseEE6$valueE",
   "name" : "android::internal::details::HasToStringMethod<aidl::android::media::audio::common::AudioConfigBase>::(unnamed enum at frameworks/native/libs/binder/ndk/include_cpp/android/binder_to_string.h:77:5)",
   "referenced_type" : "_ZTIN7android8internal7details17HasToStringMethodIN4aidl7android5media5audio6common15AudioConfigBaseEE6$valueE",
   "self_type" : "_ZTIN7android8internal7details17HasToStringMethodIN4aidl7android5media5audio6common15AudioConfigBaseEE6$valueE",
   "size" : 4,
   "source_file" : "frameworks/native/libs/binder/ndk/include_cpp/android/binder_to_string.h",
   "underlying_type" : "_ZTIj"
  },
  {
   "alignment" : 4,
   "enum_fields" :
   [
    {
     "enum_field_value" : 0,
     "name" : "android::internal::details::HasToStringMethod<aidl::android::media::audio::common::AudioFormatType>::value"
    }
   ],
   "linker_set_key" : "_ZTIN7android8internal7details17HasToStringMethodIN4aidl7android5media5audio6common15AudioFormatTypeEE6$valueE",
   "name" : "android::internal::details::HasToStringMethod<aidl::android::media::audio::common::AudioFormatType>::(unnamed enum at frameworks/native/libs/binder/ndk/include_cpp/android/binder_to_string.h:77:5)",
   "referenced_type" : "_ZTIN7android8internal7details17HasToStringMethodIN4aidl7android5media5audio6common15AudioFormatTypeEE6$valueE",
   "self_type" : "_ZTIN7android8internal7details17HasToStringMethodIN4aidl7android5media5audio6common15AudioFormatTypeEE6$valueE",
   "size" : 4,
   "source_file" : "frameworks/native/libs/binder/ndk/include_cpp/android/binder_to_string.h",
   "underlying_type" : "_ZTIj"
  },
  {
   "alignment" : 4,
   "enum_fields" :
   [
    {
     "enum_field_value" : 0,
     "name" : "android::internal::details::HasToStringMethod<aidl::android::media::audio::common::AudioStreamType>::value"
    }
   ],
   "linker_set_key" : "_ZTIN7android8internal7details17HasToStringMethodIN4aidl7android5media5audio6common15AudioStreamTypeEE6$valueE",
   "name" : "android::internal::details::HasToStringMethod<aidl::android::media::audio::common::AudioStreamType>::(unnamed enum at frameworks/native/libs/binder/ndk/include_cpp/android/binder_to_string.h:77:5)",
   "referenced_type" : "_ZTIN7android8internal7details17HasToStringMethodIN4aidl7android5media5audio6common15AudioStreamTypeEE6$valueE",
   "self_type" : "_ZTIN7android8internal7details17HasToStringMethodIN4aidl7android5media5audio6common15AudioStreamTypeEE6$valueE",
   "size" : 4,
   "source_file" : "frameworks/native/libs/binder/ndk/include_cpp/android/binder_to_string.h",
   "underlying_type" : "_ZTIj"
  },
  {
   "alignment" : 4,
   "enum_fields" :
   [
    {
     "enum_field_value" : 1,
     "name" : "android::internal::details::HasToStringMethod<aidl::android::media::audio::common::AudioOffloadInfo>::value"
    }
   ],
   "linker_set_key" : "_ZTIN7android8internal7details17HasToStringMethodIN4aidl7android5media5audio6common16AudioOffloadInfoEE6$valueE",
   "name" : "android::internal::details::HasToStringMethod<aidl::android::media::audio::common::AudioOffloadInfo>::(unnamed enum at frameworks/native/libs/binder/ndk/include_cpp/android/binder_to_string.h:77:5)",
   "referenced_type" : "_ZTIN7android8internal7details17HasToStringMethodIN4aidl7android5media5audio6common16AudioOffloadInfoEE6$valueE",
   "self_type" : "_ZTIN7android8internal7details17HasToStringMethodIN4aidl7android5media5audio6common16AudioOffloadInfoEE6$valueE",
   "size" : 4,
   "source_file" : "frameworks/native/libs/binder/ndk/include_cpp/android/binder_to_string.h",
   "underlying_type" : "_ZTIj"
  },
  {
   "alignment" : 4,
   "enum_fields" :
   [
    {
     "enum_field_value" : 1,
     "name" : "android::internal::details::HasToStringMethod<aidl::android::media::audio::common::AudioChannelLayout>::value"
    }
   ],
   "linker_set_key" : "_ZTIN7android8internal7details17HasToStringMethodIN4aidl7android5media5audio6common18AudioChannelLayoutEE6$valueE",
   "name" : "android::internal::details::HasToStringMethod<aidl::android::media::audio::common::AudioChannelLayout>::(unnamed enum at frameworks/native/libs/binder/ndk/include_cpp/android/binder_to_string.h:77:5)",
   "referenced_type" : "_ZTIN7android8internal7details17HasToStringMethodIN4aidl7android5media5audio6common18AudioChannelLayoutEE6$valueE",
   "self_type" : "_ZTIN7android8internal7details17HasToStringMethodIN4aidl7android5media5audio6common18AudioChannelLayoutEE6$valueE",
   "size" : 4,
   "source_file" : "frameworks/native/libs/binder/ndk/include_cpp/android/binder_to_string.h",
   "underlying_type" : "_ZTIj"
  },
  {
   "alignment" : 4,
   "enum_fields" :
   [
    {
     "enum_field_value" : 0,
     "name" : "android::internal::details::HasToStringMethod<aidl::android::media::audio::common::AudioEncapsulationMode>::value"
    }
   ],
   "linker_set_key" : "_ZTIN7android8internal7details17HasToStringMethodIN4aidl7android5media5audio6common22AudioEncapsulationModeEE6$valueE",
   "name" : "android::internal::details::HasToStringMethod<aidl::android::media::audio::common::AudioEncapsulationMode>::(unnamed enum at frameworks/native/libs/binder/ndk/include_cpp/android/binder_to_string.h:77:5)",
   "referenced_type" : "_ZTIN7android8internal7details17HasToStringMethodIN4aidl7android5media5audio6common22AudioEncapsulationModeEE6$valueE",
   "self_type" : "_ZTIN7android8internal7details17HasToStringMethodIN4aidl7android5media5audio6common22AudioEncapsulationModeEE6$valueE",
   "size" : 4,
   "source_file" : "frameworks/native/libs/binder/ndk/include_cpp/android/binder_to_string.h",
   "underlying_type" : "_ZTIj"
  },
  {
   "alignment" : 4,
   "enum_fields" :
   [
    {
     "enum_field_value" : 1,
     "name" : "android::internal::details::HasToStringMethod<aidl::android::media::audio::common::AudioFormatDescription>::value"
    }
   ],
   "linker_set_key" : "_ZTIN7android8internal7details17HasToStringMethodIN4aidl7android5media5audio6common22AudioFormatDescriptionEE6$valueE",
   "name" : "android::internal::details::HasToStringMethod<aidl::android::media::audio::common::AudioFormatDescription>::(unnamed enum at frameworks/native/libs/binder/ndk/include_cpp/android/binder_to_string.h:77:5)",
   "referenced_type" : "_ZTIN7android8internal7details17HasToStringMethodIN4aidl7android5media5audio6common22AudioFormatDescriptionEE6$valueE",
   "self_type" : "_ZTIN7android8internal7details17HasToStringMethodIN4aidl7android5media5audio6common22AudioFormatDescriptionEE6$valueE",
   "size" : 4,
   "source_file" : "frameworks/native/libs/binder/ndk/include_cpp/android/binder_to_string.h",
   "underlying_type" : "_ZTIj"
  },
  {
   "alignment" : 4,
   "enum_fields" :
   [
    {
     "enum_field_value" : 0,
     "name" : "android::internal::details::HasToStringMethod<aidl::android::media::audio::common::PcmType>::value"
    }
   ],
   "linker_set_key" : "_ZTIN7android8internal7details17HasToStringMethodIN4aidl7android5media5audio6common7PcmTypeEE6$valueE",
   "name" : "android::internal::details::HasToStringMethod<aidl::android::media::audio::common::PcmType>::(unnamed enum at frameworks/native/libs/binder/ndk/include_cpp/android/binder_to_string.h:77:5)",
   "referenced_type" : "_ZTIN7android8internal7details17HasToStringMethodIN4aidl7android5media5audio6common7PcmTypeEE6$valueE",
   "self_type" : "_ZTIN7android8internal7details17HasToStringMethodIN4aidl7android5media5audio6common7PcmTypeEE6$valueE",
   "size" : 4,
   "source_file" : "frameworks/native/libs/binder/ndk/include_cpp/android/binder_to_string.h",
   "underlying_type" : "_ZTIj"
  },
  {
   "alignment" : 4,
   "enum_fields" :
   [
    {
     "enum_field_value" : 0,
     "name" : "android::internal::details::HasToStringMethod<std::vector<aidl::android::media::soundtrigger::ConfidenceLevel>>::value"
    }
   ],
   "linker_set_key" : "_ZTIN7android8internal7details17HasToStringMethodINSt3__16vectorIN4aidl7android5media12soundtrigger15ConfidenceLevelENS3_9allocatorIS9_EEEEE6$valueE",
   "name" : "android::internal::details::HasToStringMethod<std::vector<aidl::android::media::soundtrigger::ConfidenceLevel, std::allocator<aidl::android::media::soundtrigger::ConfidenceLevel>>>::(unnamed enum at frameworks/native/libs/binder/ndk/include_cpp/android/binder_to_string.h:77:5)",
   "referenced_type" : "_ZTIN7android8internal7details17HasToStringMethodINSt3__16vectorIN4aidl7android5media12soundtrigger15ConfidenceLevelENS3_9allocatorIS9_EEEEE6$valueE",
   "self_type" : "_ZTIN7android8internal7details17HasToStringMethodINSt3__16vectorIN4aidl7android5media12soundtrigger15ConfidenceLevelENS3_9allocatorIS9_EEEEE6$valueE",
   "size" : 4,
   "source_file" : "frameworks/native/libs/binder/ndk/include_cpp/android/binder_to_string.h",
   "underlying_type" : "_ZTIj"
  },
  {
   "alignment" : 4,
   "enum_fields" :
   [
    {
     "enum_field_value" : 0,
     "name" : "android::internal::details::HasToStringMethod<std::vector<aidl::android::media::soundtrigger::PhraseRecognitionExtra>>::value"
    }
   ],
   "linker_set_key" : "_ZTIN7android8internal7details17HasToStringMethodINSt3__16vectorIN4aidl7android5media12soundtrigger22PhraseRecognitionExtraENS3_9allocatorIS9_EEEEE6$valueE",
   "name" : "android::internal::details::HasToStringMethod<std::vector<aidl::android::media::soundtrigger::PhraseRecognitionExtra, std::allocator<aidl::android::media::soundtrigger::PhraseRecognitionExtra>>>::(unnamed enum at frameworks/native/libs/binder/ndk/include_cpp/android/binder_to_string.h:77:5)",
   "referenced_type" : "_ZTIN7android8internal7details17HasToStringMethodINSt3__16vectorIN4aidl7android5media12soundtrigger22PhraseRecognitionExtraENS3_9allocatorIS9_EEEEE6$valueE",
   "self_type" : "_ZTIN7android8internal7details17HasToStringMethodINSt3__16vectorIN4aidl7android5media12soundtrigger22PhraseRecognitionExtraENS3_9allocatorIS9_EEEEE6$valueE",
   "size" : 4,
   "source_file" : "frameworks/native/libs/binder/ndk/include_cpp/android/binder_to_string.h",
   "underlying_type" : "_ZTIj"
  },
  {
   "alignment" : 4,
   "enum_fields" :
   [
    {
     "enum_field_value" : 0,
     "name" : "android::internal::details::HasToStringMethod<std::vector<aidl::android::media::soundtrigger::Phrase>>::value"
    }
   ],
   "linker_set_key" : "_ZTIN7android8internal7details17HasToStringMethodINSt3__16vectorIN4aidl7android5media12soundtrigger6PhraseENS3_9allocatorIS9_EEEEE6$valueE",
   "name" : "android::internal::details::HasToStringMethod<std::vector<aidl::android::media::soundtrigger::Phrase, std::allocator<aidl::android::media::soundtrigger::Phrase>>>::(unnamed enum at frameworks/native/libs/binder/ndk/include_cpp/android/binder_to_string.h:77:5)",
   "referenced_type" : "_ZTIN7android8internal7details17HasToStringMethodINSt3__16vectorIN4aidl7android5media12soundtrigger6PhraseENS3_9allocatorIS9_EEEEE6$valueE",
   "self_type" : "_ZTIN7android8internal7details17HasToStringMethodINSt3__16vectorIN4aidl7android5media12soundtrigger6PhraseENS3_9allocatorIS9_EEEEE6$valueE",
   "size" : 4,
   "source_file" : "frameworks/native/libs/binder/ndk/include_cpp/android/binder_to_string.h",
   "underlying_type" : "_ZTIj"
  },
  {
   "alignment" : 4,
   "enum_fields" :
   [
    {
     "enum_field_value" : 0,
     "name" : "android::internal::details::HasToStringMethod<std::vector<unsigned char>>::value"
    }
   ],
   "linker_set_key" : "_ZTIN7android8internal7details17HasToStringMethodINSt3__16vectorIhNS3_9allocatorIhEEEEE6$valueE",
   "name" : "android::internal::details::HasToStringMethod<std::vector<unsigned char, std::allocator<unsigned char>>>::(unnamed enum at frameworks/native/libs/binder/ndk/include_cpp/android/binder_to_string.h:77:5)",
   "referenced_type" : "_ZTIN7android8internal7details17HasToStringMethodINSt3__16vectorIhNS3_9allocatorIhEEEEE6$valueE",
   "self_type" : "_ZTIN7android8internal7details17HasToStringMethodINSt3__16vectorIhNS3_9allocatorIhEEEEE6$valueE",
   "size" : 4,
   "source_file" : "frameworks/native/libs/binder/ndk/include_cpp/android/binder_to_string.h",
   "underlying_type" : "_ZTIj"
  },
  {
   "alignment" : 4,
   "enum_fields" :
   [
    {
     "enum_field_value" : 0,
     "name" : "android::internal::details::HasToStringMethod<std::vector<int>>::value"
    }
   ],
   "linker_set_key" : "_ZTIN7android8internal7details17HasToStringMethodINSt3__16vectorIiNS3_9allocatorIiEEEEE6$valueE",
   "name" : "android::internal::details::HasToStringMethod<std::vector<int, std::allocator<int>>>::(unnamed enum at frameworks/native/libs/binder/ndk/include_cpp/android/binder_to_string.h:77:5)",
   "referenced_type" : "_ZTIN7android8internal7details17HasToStringMethodINSt3__16vectorIiNS3_9allocatorIiEEEEE6$valueE",
   "self_type" : "_ZTIN7android8internal7details17HasToStringMethodINSt3__16vectorIiNS3_9allocatorIiEEEEE6$valueE",
   "size" : 4,
   "source_file" : "frameworks/native/libs/binder/ndk/include_cpp/android/binder_to_string.h",
   "underlying_type" : "_ZTIj"
  },
  {
   "alignment" : 4,
   "enum_fields" :
   [
    {
     "enum_field_value" : 1,
     "name" : "android::internal::details::HasToStringFunction<aidl::android::media::soundtrigger::SoundModelType>::value"
    }
   ],
   "linker_set_key" : "_ZTIN7android8internal7details19HasToStringFunctionIN4aidl7android5media12soundtrigger14SoundModelTypeEE6$valueE",
   "name" : "android::internal::details::HasToStringFunction<aidl::android::media::soundtrigger::SoundModelType>::(unnamed enum at frameworks/native/libs/binder/ndk/include_cpp/android/binder_to_string.h:89:5)",
   "referenced_type" : "_ZTIN7android8internal7details19HasToStringFunctionIN4aidl7android5media12soundtrigger14SoundModelTypeEE6$valueE",
   "self_type" : "_ZTIN7android8internal7details19HasToStringFunctionIN4aidl7android5media12soundtrigger14SoundModelTypeEE6$valueE",
   "size" : 4,
   "source_file" : "frameworks/native/libs/binder/ndk/include_cpp/android/binder_to_string.h",
   "underlying_type" : "_ZTIj"
  },
  {
   "alignment" : 4,
   "enum_fields" :
   [
    {
     "enum_field_value" : 1,
     "name" : "android::internal::details::HasToStringFunction<aidl::android::media::soundtrigger::RecognitionStatus>::value"
    }
   ],
   "linker_set_key" : "_ZTIN7android8internal7details19HasToStringFunctionIN4aidl7android5media12soundtrigger17RecognitionStatusEE6$valueE",
   "name" : "android::internal::details::HasToStringFunction<aidl::android::media::soundtrigger::RecognitionStatus>::(unnamed enum at frameworks/native/libs/binder/ndk/include_cpp/android/binder_to_string.h:89:5)",
   "referenced_type" : "_ZTIN7android8internal7details19HasToStringFunctionIN4aidl7android5media12soundtrigger17RecognitionStatusEE6$valueE",
   "self_type" : "_ZTIN7android8internal7details19HasToStringFunctionIN4aidl7android5media12soundtrigger17RecognitionStatusEE6$valueE",
   "size" : 4,
   "source_file" : "frameworks/native/libs/binder/ndk/include_cpp/android/binder_to_string.h",
   "underlying_type" : "_ZTIj"
  },
  {
   "alignment" : 4,
   "enum_fields" :
   [
    {
     "enum_field_value" : 1,
     "name" : "android::internal::details::HasToStringFunction<aidl::android::media::audio::common::AudioUsage>::value"
    }
   ],
   "linker_set_key" : "_ZTIN7android8internal7details19HasToStringFunctionIN4aidl7android5media5audio6common10AudioUsageEE6$valueE",
   "name" : "android::internal::details::HasToStringFunction<aidl::android::media::audio::common::AudioUsage>::(unnamed enum at frameworks/native/libs/binder/ndk/include_cpp/android/binder_to_string.h:89:5)",
   "referenced_type" : "_ZTIN7android8internal7details19HasToStringFunctionIN4aidl7android5media5audio6common10AudioUsageEE6$valueE",
   "self_type" : "_ZTIN7android8internal7details19HasToStringFunctionIN4aidl7android5media5audio6common10AudioUsageEE6$valueE",
   "size" : 4,
   "source_file" : "frameworks/native/libs/binder/ndk/include_cpp/android/binder_to_string.h",
   "underlying_type" : "_ZTIj"
  },
  {
   "alignment" : 4,
   "enum_fields" :
   [
    {
     "enum_field_value" : 1,
     "name" : "android::internal::details::HasToStringFunction<aidl::android::media::audio::common::AudioFormatType>::value"
    }
   ],
   "linker_set_key" : "_ZTIN7android8internal7details19HasToStringFunctionIN4aidl7android5media5audio6common15AudioFormatTypeEE6$valueE",
   "name" : "android::internal::details::HasToStringFunction<aidl::android::media::audio::common::AudioFormatType>::(unnamed enum at frameworks/native/libs/binder/ndk/include_cpp/android/binder_to_string.h:89:5)",
   "referenced_type" : "_ZTIN7android8internal7details19HasToStringFunctionIN4aidl7android5media5audio6common15AudioFormatTypeEE6$valueE",
   "self_type" : "_ZTIN7android8internal7details19HasToStringFunctionIN4aidl7android5media5audio6common15AudioFormatTypeEE6$valueE",
   "size" : 4,
   "source_file" : "frameworks/native/libs/binder/ndk/include_cpp/android/binder_to_string.h",
   "underlying_type" : "_ZTIj"
  },
  {
   "alignment" : 4,
   "enum_fields" :
   [
    {
     "enum_field_value" : 1,
     "name" : "android::internal::details::HasToStringFunction<aidl::android::media::audio::common::AudioStreamType>::value"
    }
   ],
   "linker_set_key" : "_ZTIN7android8internal7details19HasToStringFunctionIN4aidl7android5media5audio6common15AudioStreamTypeEE6$valueE",
   "name" : "android::internal::details::HasToStringFunction<aidl::android::media::audio::common::AudioStreamType>::(unnamed enum at frameworks/native/libs/binder/ndk/include_cpp/android/binder_to_string.h:89:5)",
   "referenced_type" : "_ZTIN7android8internal7details19HasToStringFunctionIN4aidl7android5media5audio6common15AudioStreamTypeEE6$valueE",
   "self_type" : "_ZTIN7android8internal7details19HasToStringFunctionIN4aidl7android5media5audio6common15AudioStreamTypeEE6$valueE",
   "size" : 4,
   "source_file" : "frameworks/native/libs/binder/ndk/include_cpp/android/binder_to_string.h",
   "underlying_type" : "_ZTIj"
  },
  {
   "alignment" : 4,
   "enum_fields" :
   [
    {
     "enum_field_value" : 1,
     "name" : "android::internal::details::HasToStringFunction<aidl::android::media::audio::common::AudioEncapsulationMode>::value"
    }
   ],
   "linker_set_key" : "_ZTIN7android8internal7details19HasToStringFunctionIN4aidl7android5media5audio6common22AudioEncapsulationModeEE6$valueE",
   "name" : "android::internal::details::HasToStringFunction<aidl::android::media::audio::common::AudioEncapsulationMode>::(unnamed enum at frameworks/native/libs/binder/ndk/include_cpp/android/binder_to_string.h:89:5)",
   "referenced_type" : "_ZTIN7android8internal7details19HasToStringFunctionIN4aidl7android5media5audio6common22AudioEncapsulationModeEE6$valueE",
   "self_type" : "_ZTIN7android8internal7details19HasToStringFunctionIN4aidl7android5media5audio6common22AudioEncapsulationModeEE6$valueE",
   "size" : 4,
   "source_file" : "frameworks/native/libs/binder/ndk/include_cpp/android/binder_to_string.h",
   "underlying_type" : "_ZTIj"
  },
  {
   "alignment" : 4,
   "enum_fields" :
   [
    {
     "enum_field_value" : 1,
     "name" : "android::internal::details::HasToStringFunction<aidl::android::media::audio::common::PcmType>::value"
    }
   ],
   "linker_set_key" : "_ZTIN7android8internal7details19HasToStringFunctionIN4aidl7android5media5audio6common7PcmTypeEE6$valueE",
   "name" : "android::internal::details::HasToStringFunction<aidl::android::media::audio::common::PcmType>::(unnamed enum at frameworks/native/libs/binder/ndk/include_cpp/android/binder_to_string.h:89:5)",
   "referenced_type" : "_ZTIN7android8internal7details19HasToStringFunctionIN4aidl7android5media5audio6common7PcmTypeEE6$valueE",
   "self_type" : "_ZTIN7android8internal7details19HasToStringFunctionIN4aidl7android5media5audio6common7PcmTypeEE6$valueE",
   "size" : 4,
   "source_file" : "frameworks/native/libs/binder/ndk/include_cpp/android/binder_to_string.h",
   "underlying_type" : "_ZTIj"
  },
  {
   "alignment" : 4,
   "enum_fields" :
   [
    {
     "enum_field_value" : 0,
     "name" : "android::internal::details::HasToStringFunction<std::vector<aidl::android::media::soundtrigger::ConfidenceLevel>>::value"
    }
   ],
   "linker_set_key" : "_ZTIN7android8internal7details19HasToStringFunctionINSt3__16vectorIN4aidl7android5media12soundtrigger15ConfidenceLevelENS3_9allocatorIS9_EEEEE6$valueE",
   "name" : "android::internal::details::HasToStringFunction<std::vector<aidl::android::media::soundtrigger::ConfidenceLevel, std::allocator<aidl::android::media::soundtrigger::ConfidenceLevel>>>::(unnamed enum at frameworks/native/libs/binder/ndk/include_cpp/android/binder_to_string.h:89:5)",
   "referenced_type" : "_ZTIN7android8internal7details19HasToStringFunctionINSt3__16vectorIN4aidl7android5media12soundtrigger15ConfidenceLevelENS3_9allocatorIS9_EEEEE6$valueE",
   "self_type" : "_ZTIN7android8internal7details19HasToStringFunctionINSt3__16vectorIN4aidl7android5media12soundtrigger15ConfidenceLevelENS3_9allocatorIS9_EEEEE6$valueE",
   "size" : 4,
   "source_file" : "frameworks/native/libs/binder/ndk/include_cpp/android/binder_to_string.h",
   "underlying_type" : "_ZTIj"
  },
  {
   "alignment" : 4,
   "enum_fields" :
   [
    {
     "enum_field_value" : 0,
     "name" : "android::internal::details::HasToStringFunction<std::vector<aidl::android::media::soundtrigger::PhraseRecognitionExtra>>::value"
    }
   ],
   "linker_set_key" : "_ZTIN7android8internal7details19HasToStringFunctionINSt3__16vectorIN4aidl7android5media12soundtrigger22PhraseRecognitionExtraENS3_9allocatorIS9_EEEEE6$valueE",
   "name" : "android::internal::details::HasToStringFunction<std::vector<aidl::android::media::soundtrigger::PhraseRecognitionExtra, std::allocator<aidl::android::media::soundtrigger::PhraseRecognitionExtra>>>::(unnamed enum at frameworks/native/libs/binder/ndk/include_cpp/android/binder_to_string.h:89:5)",
   "referenced_type" : "_ZTIN7android8internal7details19HasToStringFunctionINSt3__16vectorIN4aidl7android5media12soundtrigger22PhraseRecognitionExtraENS3_9allocatorIS9_EEEEE6$valueE",
   "self_type" : "_ZTIN7android8internal7details19HasToStringFunctionINSt3__16vectorIN4aidl7android5media12soundtrigger22PhraseRecognitionExtraENS3_9allocatorIS9_EEEEE6$valueE",
   "size" : 4,
   "source_file" : "frameworks/native/libs/binder/ndk/include_cpp/android/binder_to_string.h",
   "underlying_type" : "_ZTIj"
  },
  {
   "alignment" : 4,
   "enum_fields" :
   [
    {
     "enum_field_value" : 0,
     "name" : "android::internal::details::HasToStringFunction<std::vector<aidl::android::media::soundtrigger::Phrase>>::value"
    }
   ],
   "linker_set_key" : "_ZTIN7android8internal7details19HasToStringFunctionINSt3__16vectorIN4aidl7android5media12soundtrigger6PhraseENS3_9allocatorIS9_EEEEE6$valueE",
   "name" : "android::internal::details::HasToStringFunction<std::vector<aidl::android::media::soundtrigger::Phrase, std::allocator<aidl::android::media::soundtrigger::Phrase>>>::(unnamed enum at frameworks/native/libs/binder/ndk/include_cpp/android/binder_to_string.h:89:5)",
   "referenced_type" : "_ZTIN7android8internal7details19HasToStringFunctionINSt3__16vectorIN4aidl7android5media12soundtrigger6PhraseENS3_9allocatorIS9_EEEEE6$valueE",
   "self_type" : "_ZTIN7android8internal7details19HasToStringFunctionINSt3__16vectorIN4aidl7android5media12soundtrigger6PhraseENS3_9allocatorIS9_EEEEE6$valueE",
   "size" : 4,
   "source_file" : "frameworks/native/libs/binder/ndk/include_cpp/android/binder_to_string.h",
   "underlying_type" : "_ZTIj"
  },
  {
   "alignment" : 4,
   "enum_fields" :
   [
    {
     "enum_field_value" : 0,
     "name" : "android::internal::details::HasToStringFunction<std::vector<unsigned char>>::value"
    }
   ],
   "linker_set_key" : "_ZTIN7android8internal7details19HasToStringFunctionINSt3__16vectorIhNS3_9allocatorIhEEEEE6$valueE",
   "name" : "android::internal::details::HasToStringFunction<std::vector<unsigned char, std::allocator<unsigned char>>>::(unnamed enum at frameworks/native/libs/binder/ndk/include_cpp/android/binder_to_string.h:89:5)",
   "referenced_type" : "_ZTIN7android8internal7details19HasToStringFunctionINSt3__16vectorIhNS3_9allocatorIhEEEEE6$valueE",
   "self_type" : "_ZTIN7android8internal7details19HasToStringFunctionINSt3__16vectorIhNS3_9allocatorIhEEEEE6$valueE",
   "size" : 4,
   "source_file" : "frameworks/native/libs/binder/ndk/include_cpp/android/binder_to_string.h",
   "underlying_type" : "_ZTIj"
  },
  {
   "alignment" : 4,
   "enum_fields" :
   [
    {
     "enum_field_value" : 0,
     "name" : "android::internal::details::HasToStringFunction<std::vector<int>>::value"
    }
   ],
   "linker_set_key" : "_ZTIN7android8internal7details19HasToStringFunctionINSt3__16vectorIiNS3_9allocatorIiEEEEE6$valueE",
   "name" : "android::internal::details::HasToStringFunction<std::vector<int, std::allocator<int>>>::(unnamed enum at frameworks/native/libs/binder/ndk/include_cpp/android/binder_to_string.h:89:5)",
   "referenced_type" : "_ZTIN7android8internal7details19HasToStringFunctionINSt3__16vectorIiNS3_9allocatorIiEEEEE6$valueE",
   "self_type" : "_ZTIN7android8internal7details19HasToStringFunctionINSt3__16vectorIiNS3_9allocatorIiEEEEE6$valueE",
   "size" : 4,
   "source_file" : "frameworks/native/libs/binder/ndk/include_cpp/android/binder_to_string.h",
   "underlying_type" : "_ZTIj"
  }
 ],
 "function_types" :
 [
  {
   "alignment" : 4,
   "linker_set_key" : "_ZTIFiP8AIBinderjPK7AParcelPS1_E",
   "name" : "int (AIBinder *, unsigned int, const AParcel *, AParcel *)",
   "parameters" :
   [
    {
     "referenced_type" : "_ZTIP8AIBinder"
    },
    {
     "referenced_type" : "_ZTIj"
    },
    {
     "referenced_type" : "_ZTIPK7AParcel"
    },
    {
     "referenced_type" : "_ZTIP7AParcel"
    }
   ],
   "referenced_type" : "_ZTIFiP8AIBinderjPK7AParcelPS1_E",
   "return_type" : "_ZTIi",
   "self_type" : "_ZTIFiP8AIBinderjPK7AParcelPS1_E",
   "source_file" : "frameworks/native/libs/binder/ndk/include_cpp/android/binder_interface_utils.h"
  }
 ],
 "functions" :
 [
  {
   "function_name" : "ndk::BnCInterface<aidl::android::hardware::soundtrigger3::ISoundTriggerHw>::asBinder",
   "linker_set_key" : "_ZN3ndk12BnCInterfaceIN4aidl7android8hardware13soundtrigger315ISoundTriggerHwEE8asBinderEv",
   "parameters" :
   [
    {
     "is_this_ptr" : true,
     "referenced_type" : "_ZTIPN3ndk12BnCInterfaceIN4aidl7android8hardware13soundtrigger315ISoundTriggerHwEEE"
    }
   ],
   "return_type" : "_ZTIN3ndk10SpAIBinderE",
   "source_file" : "frameworks/native/libs/binder/ndk/include_cpp/android/binder_interface_utils.h"
  },
  {
   "function_name" : "ndk::BnCInterface<aidl::android::hardware::soundtrigger3::ISoundTriggerHwCallback>::asBinder",
   "linker_set_key" : "_ZN3ndk12BnCInterfaceIN4aidl7android8hardware13soundtrigger323ISoundTriggerHwCallbackEE8asBinderEv",
   "parameters" :
   [
    {
     "is_this_ptr" : true,
     "referenced_type" : "_ZTIPN3ndk12BnCInterfaceIN4aidl7android8hardware13soundtrigger323ISoundTriggerHwCallbackEEE"
    }
   ],
   "return_type" : "_ZTIN3ndk10SpAIBinderE",
   "source_file" : "frameworks/native/libs/binder/ndk/include_cpp/android/binder_interface_utils.h"
  },
  {
   "function_name" : "ndk::BnCInterface<aidl::android::hardware::soundtrigger3::ISoundTriggerHwGlobalCallback>::asBinder",
   "linker_set_key" : "_ZN3ndk12BnCInterfaceIN4aidl7android8hardware13soundtrigger329ISoundTriggerHwGlobalCallbackEE8asBinderEv",
   "parameters" :
   [
    {
     "is_this_ptr" : true,
     "referenced_type" : "_ZTIPN3ndk12BnCInterfaceIN4aidl7android8hardware13soundtrigger329ISoundTriggerHwGlobalCallbackEEE"
    }
   ],
   "return_type" : "_ZTIN3ndk10SpAIBinderE",
   "source_file" : "frameworks/native/libs/binder/ndk/include_cpp/android/binder_interface_utils.h"
  },
  {
   "function_name" : "ndk::BpCInterface<aidl::android::hardware::soundtrigger3::ISoundTriggerHw>::asBinder",
   "linker_set_key" : "_ZN3ndk12BpCInterfaceIN4aidl7android8hardware13soundtrigger315ISoundTriggerHwEE8asBinderEv",
   "parameters" :
   [
    {
     "is_this_ptr" : true,
     "referenced_type" : "_ZTIPN3ndk12BpCInterfaceIN4aidl7android8hardware13soundtrigger315ISoundTriggerHwEEE"
    }
   ],
   "return_type" : "_ZTIN3ndk10SpAIBinderE",
   "source_file" : "frameworks/native/libs/binder/ndk/include_cpp/android/binder_interface_utils.h"
  },
  {
   "function_name" : "ndk::BpCInterface<aidl::android::hardware::soundtrigger3::ISoundTriggerHwCallback>::asBinder",
   "linker_set_key" : "_ZN3ndk12BpCInterfaceIN4aidl7android8hardware13soundtrigger323ISoundTriggerHwCallbackEE8asBinderEv",
   "parameters" :
   [
    {
     "is_this_ptr" : true,
     "referenced_type" : "_ZTIPN3ndk12BpCInterfaceIN4aidl7android8hardware13soundtrigger323ISoundTriggerHwCallbackEEE"
    }
   ],
   "return_type" : "_ZTIN3ndk10SpAIBinderE",
   "source_file" : "frameworks/native/libs/binder/ndk/include_cpp/android/binder_interface_utils.h"
  },
  {
   "function_name" : "ndk::BpCInterface<aidl::android::hardware::soundtrigger3::ISoundTriggerHwGlobalCallback>::asBinder",
   "linker_set_key" : "_ZN3ndk12BpCInterfaceIN4aidl7android8hardware13soundtrigger329ISoundTriggerHwGlobalCallbackEE8asBinderEv",
   "parameters" :
   [
    {
     "is_this_ptr" : true,
     "referenced_type" : "_ZTIPN3ndk12BpCInterfaceIN4aidl7android8hardware13soundtrigger329ISoundTriggerHwGlobalCallbackEEE"
    }
   ],
   "return_type" : "_ZTIN3ndk10SpAIBinderE",
   "source_file" : "frameworks/native/libs/binder/ndk/include_cpp/android/binder_interface_utils.h"
  },
  {
   "function_name" : "aidl::android::hardware::soundtrigger3::ISoundTriggerHw::fromBinder",
   "linker_set_key" : "_ZN4aidl7android8hardware13soundtrigger315ISoundTriggerHw10fromBinderERKN3ndk10SpAIBinderE",
   "parameters" :
   [
    {
     "referenced_type" : "_ZTIRKN3ndk10SpAIBinderE"
    }
   ],
   "return_type" : "_ZTINSt3__110shared_ptrIN4aidl7android8hardware13soundtrigger315ISoundTriggerHwEEE",
   "source_file" : "out/soong/.intermediates/hardware/interfaces/soundtrigger/aidl/android.hardware.soundtrigger3-V1-ndk-source/gen/include/aidl/android/hardware/soundtrigger3/ISoundTriggerHw.h"
  },
  {
   "function_name" : "aidl::android::hardware::soundtrigger3::ISoundTriggerHw::writeToParcel",
   "linker_set_key" : "_ZN4aidl7android8hardware13soundtrigger315ISoundTriggerHw13writeToParcelEP7AParcelRKNSt3__110shared_ptrIS3_EE",
   "parameters" :
   [
    {
     "referenced_type" : "_ZTIP7AParcel"
    },
    {
     "referenced_type" : "_ZTIRKNSt3__110shared_ptrIN4aidl7android8hardware13soundtrigger315ISoundTriggerHwEEE"
    }
   ],
   "return_type" : "_ZTIi",
   "source_file" : "out/soong/.intermediates/hardware/interfaces/soundtrigger/aidl/android.hardware.soundtrigger3-V1-ndk-source/gen/include/aidl/android/hardware/soundtrigger3/ISoundTriggerHw.h"
  },
  {
   "function_name" : "aidl::android::hardware::soundtrigger3::ISoundTriggerHw::getDefaultImpl",
   "linker_set_key" : "_ZN4aidl7android8hardware13soundtrigger315ISoundTriggerHw14getDefaultImplEv",
   "return_type" : "_ZTIRKNSt3__110shared_ptrIN4aidl7android8hardware13soundtrigger315ISoundTriggerHwEEE",
   "source_file" : "out/soong/.intermediates/hardware/interfaces/soundtrigger/aidl/android.hardware.soundtrigger3-V1-ndk-source/gen/include/aidl/android/hardware/soundtrigger3/ISoundTriggerHw.h"
  },
  {
   "function_name" : "aidl::android::hardware::soundtrigger3::ISoundTriggerHw::readFromParcel",
   "linker_set_key" : "_ZN4aidl7android8hardware13soundtrigger315ISoundTriggerHw14readFromParcelEPK7AParcelPNSt3__110shared_ptrIS3_EE",
   "parameters" :
   [
    {
     "referenced_type" : "_ZTIPK7AParcel"
    },
    {
     "referenced_type" : "_ZTIPNSt3__110shared_ptrIN4aidl7android8hardware13soundtrigger315ISoundTriggerHwEEE"
    }
   ],
   "return_type" : "_ZTIi",
   "source_file" : "out/soong/.intermediates/hardware/interfaces/soundtrigger/aidl/android.hardware.soundtrigger3-V1-ndk-source/gen/include/aidl/android/hardware/soundtrigger3/ISoundTriggerHw.h"
  },
  {
   "function_name" : "aidl::android::hardware::soundtrigger3::ISoundTriggerHw::setDefaultImpl",
   "linker_set_key" : "_ZN4aidl7android8hardware13soundtrigger315ISoundTriggerHw14setDefaultImplERKNSt3__110shared_ptrIS3_EE",
   "parameters" :
   [
    {
     "referenced_type" : "_ZTIRKNSt3__110shared_ptrIN4aidl7android8hardware13soundtrigger315ISoundTriggerHwEEE"
    }
   ],
   "return_type" : "_ZTIb",
   "source_file" : "out/soong/.intermediates/hardware/interfaces/soundtrigger/aidl/android.hardware.soundtrigger3-V1-ndk-source/gen/include/aidl/android/hardware/soundtrigger3/ISoundTriggerHw.h"
  },
  {
   "function_name" : "aidl::android::hardware::soundtrigger3::ISoundTriggerHw::ISoundTriggerHw",
   "linker_set_key" : "_ZN4aidl7android8hardware13soundtrigger315ISoundTriggerHwC2Ev",
   "parameters" :
   [
    {
     "is_this_ptr" : true,
     "referenced_type" : "_ZTIPN4aidl7android8hardware13soundtrigger315ISoundTriggerHwE"
    }
   ],
   "return_type" : "_ZTIv",
   "source_file" : "out/soong/.intermediates/hardware/interfaces/soundtrigger/aidl/android.hardware.soundtrigger3-V1-ndk-source/gen/include/aidl/android/hardware/soundtrigger3/ISoundTriggerHw.h"
  },
  {
   "function_name" : "aidl::android::hardware::soundtrigger3::ISoundTriggerHw::~ISoundTriggerHw",
   "linker_set_key" : "_ZN4aidl7android8hardware13soundtrigger315ISoundTriggerHwD0Ev",
   "parameters" :
   [
    {
     "is_this_ptr" : true,
     "referenced_type" : "_ZTIPN4aidl7android8hardware13soundtrigger315ISoundTriggerHwE"
    }
   ],
   "return_type" : "_ZTIv",
   "source_file" : "out/soong/.intermediates/hardware/interfaces/soundtrigger/aidl/android.hardware.soundtrigger3-V1-ndk-source/gen/include/aidl/android/hardware/soundtrigger3/ISoundTriggerHw.h"
  },
  {
   "function_name" : "aidl::android::hardware::soundtrigger3::ISoundTriggerHw::~ISoundTriggerHw",
   "linker_set_key" : "_ZN4aidl7android8hardware13soundtrigger315ISoundTriggerHwD1Ev",
   "parameters" :
   [
    {
     "is_this_ptr" : true,
     "referenced_type" : "_ZTIPN4aidl7android8hardware13soundtrigger315ISoundTriggerHwE"
    }
   ],
   "return_type" : "_ZTIv",
   "source_file" : "out/soong/.intermediates/hardware/interfaces/soundtrigger/aidl/android.hardware.soundtrigger3-V1-ndk-source/gen/include/aidl/android/hardware/soundtrigger3/ISoundTriggerHw.h"
  },
  {
   "function_name" : "aidl::android::hardware::soundtrigger3::ISoundTriggerHw::~ISoundTriggerHw",
   "linker_set_key" : "_ZN4aidl7android8hardware13soundtrigger315ISoundTriggerHwD2Ev",
   "parameters" :
   [
    {
     "is_this_ptr" : true,
     "referenced_type" : "_ZTIPN4aidl7android8hardware13soundtrigger315ISoundTriggerHwE"
    }
   ],
   "return_type" : "_ZTIv",
   "source_file" : "out/soong/.intermediates/hardware/interfaces/soundtrigger/aidl/android.hardware.soundtrigger3-V1-ndk-source/gen/include/aidl/android/hardware/soundtrigger3/ISoundTriggerHw.h"
  },
  {
   "access" : "protected",
   "function_name" : "aidl::android::hardware::soundtrigger3::BnSoundTriggerHw::createBinder",
   "linker_set_key" : "_ZN4aidl7android8hardware13soundtrigger316BnSoundTriggerHw12createBinderEv",
   "parameters" :
   [
    {
     "is_this_ptr" : true,
     "referenced_type" : "_ZTIPN4aidl7android8hardware13soundtrigger316BnSoundTriggerHwE"
    }
   ],
   "return_type" : "_ZTIN3ndk10SpAIBinderE",
   "source_file" : "out/soong/.intermediates/hardware/interfaces/soundtrigger/aidl/android.hardware.soundtrigger3-V1-ndk-source/gen/include/aidl/android/hardware/soundtrigger3/BnSoundTriggerHw.h"
  },
  {
   "function_name" : "aidl::android::hardware::soundtrigger3::BnSoundTriggerHw::getInterfaceHash",
   "linker_set_key" : "_ZN4aidl7android8hardware13soundtrigger316BnSoundTriggerHw16getInterfaceHashEPNSt3__112basic_stringIcNS4_11char_traitsIcEENS4_9allocatorIcEEEE",
   "parameters" :
   [
    {
     "is_this_ptr" : true,
     "referenced_type" : "_ZTIPN4aidl7android8hardware13soundtrigger316BnSoundTriggerHwE"
    },
    {
     "referenced_type" : "_ZTIPNSt3__112basic_stringIcNS_11char_traitsIcEENS_9allocatorIcEEEE"
    }
   ],
   "return_type" : "_ZTIN3ndk13ScopedAStatusE",
   "source_file" : "out/soong/.intermediates/hardware/interfaces/soundtrigger/aidl/android.hardware.soundtrigger3-V1-ndk-source/gen/include/aidl/android/hardware/soundtrigger3/BnSoundTriggerHw.h"
  },
  {
   "function_name" : "aidl::android::hardware::soundtrigger3::BnSoundTriggerHw::getInterfaceVersion",
   "linker_set_key" : "_ZN4aidl7android8hardware13soundtrigger316BnSoundTriggerHw19getInterfaceVersionEPi",
   "parameters" :
   [
    {
     "is_this_ptr" : true,
     "referenced_type" : "_ZTIPN4aidl7android8hardware13soundtrigger316BnSoundTriggerHwE"
    },
    {
     "referenced_type" : "_ZTIPi"
    }
   ],
   "return_type" : "_ZTIN3ndk13ScopedAStatusE",
   "source_file" : "out/soong/.intermediates/hardware/interfaces/soundtrigger/aidl/android.hardware.soundtrigger3-V1-ndk-source/gen/include/aidl/android/hardware/soundtrigger3/BnSoundTriggerHw.h"
  },
  {
   "function_name" : "aidl::android::hardware::soundtrigger3::BnSoundTriggerHw::BnSoundTriggerHw",
   "linker_set_key" : "_ZN4aidl7android8hardware13soundtrigger316BnSoundTriggerHwC2Ev",
   "parameters" :
   [
    {
     "is_this_ptr" : true,
     "referenced_type" : "_ZTIPN4aidl7android8hardware13soundtrigger316BnSoundTriggerHwE"
    }
   ],
   "return_type" : "_ZTIv",
   "source_file" : "out/soong/.intermediates/hardware/interfaces/soundtrigger/aidl/android.hardware.soundtrigger3-V1-ndk-source/gen/include/aidl/android/hardware/soundtrigger3/BnSoundTriggerHw.h"
  },
  {
   "function_name" : "aidl::android::hardware::soundtrigger3::BnSoundTriggerHw::~BnSoundTriggerHw",
   "linker_set_key" : "_ZN4aidl7android8hardware13soundtrigger316BnSoundTriggerHwD0Ev",
   "parameters" :
   [
    {
     "is_this_ptr" : true,
     "referenced_type" : "_ZTIPN4aidl7android8hardware13soundtrigger316BnSoundTriggerHwE"
    }
   ],
   "return_type" : "_ZTIv",
   "source_file" : "out/soong/.intermediates/hardware/interfaces/soundtrigger/aidl/android.hardware.soundtrigger3-V1-ndk-source/gen/include/aidl/android/hardware/soundtrigger3/BnSoundTriggerHw.h"
  },
  {
   "function_name" : "aidl::android::hardware::soundtrigger3::BnSoundTriggerHw::~BnSoundTriggerHw",
   "linker_set_key" : "_ZN4aidl7android8hardware13soundtrigger316BnSoundTriggerHwD1Ev",
   "parameters" :
   [
    {
     "is_this_ptr" : true,
     "referenced_type" : "_ZTIPN4aidl7android8hardware13soundtrigger316BnSoundTriggerHwE"
    }
   ],
   "return_type" : "_ZTIv",
   "source_file" : "out/soong/.intermediates/hardware/interfaces/soundtrigger/aidl/android.hardware.soundtrigger3-V1-ndk-source/gen/include/aidl/android/hardware/soundtrigger3/BnSoundTriggerHw.h"
  },
  {
   "function_name" : "aidl::android::hardware::soundtrigger3::BnSoundTriggerHw::~BnSoundTriggerHw",
   "linker_set_key" : "_ZN4aidl7android8hardware13soundtrigger316BnSoundTriggerHwD2Ev",
   "parameters" :
   [
    {
     "is_this_ptr" : true,
     "referenced_type" : "_ZTIPN4aidl7android8hardware13soundtrigger316BnSoundTriggerHwE"
    }
   ],
   "return_type" : "_ZTIv",
   "source_file" : "out/soong/.intermediates/hardware/interfaces/soundtrigger/aidl/android.hardware.soundtrigger3-V1-ndk-source/gen/include/aidl/android/hardware/soundtrigger3/BnSoundTriggerHw.h"
  },
  {
   "function_name" : "aidl::android::hardware::soundtrigger3::BpSoundTriggerHw::getParameter",
   "linker_set_key" : "_ZN4aidl7android8hardware13soundtrigger316BpSoundTriggerHw12getParameterEiNS0_5media12soundtrigger14ModelParameterEPi",
   "parameters" :
   [
    {
     "is_this_ptr" : true,
     "referenced_type" : "_ZTIPN4aidl7android8hardware13soundtrigger316BpSoundTriggerHwE"
    },
    {
     "referenced_type" : "_ZTIi"
    },
    {
     "referenced_type" : "_ZTIN4aidl7android5media12soundtrigger14ModelParameterE"
    },
    {
     "referenced_type" : "_ZTIPi"
    }
   ],
   "return_type" : "_ZTIN3ndk13ScopedAStatusE",
   "source_file" : "out/soong/.intermediates/hardware/interfaces/soundtrigger/aidl/android.hardware.soundtrigger3-V1-ndk-source/gen/include/aidl/android/hardware/soundtrigger3/BpSoundTriggerHw.h"
  },
  {
   "function_name" : "aidl::android::hardware::soundtrigger3::BpSoundTriggerHw::setParameter",
   "linker_set_key" : "_ZN4aidl7android8hardware13soundtrigger316BpSoundTriggerHw12setParameterEiNS0_5media12soundtrigger14ModelParameterEi",
   "parameters" :
   [
    {
     "is_this_ptr" : true,
     "referenced_type" : "_ZTIPN4aidl7android8hardware13soundtrigger316BpSoundTriggerHwE"
    },
    {
     "referenced_type" : "_ZTIi"
    },
    {
     "referenced_type" : "_ZTIN4aidl7android5media12soundtrigger14ModelParameterE"
    },
    {
     "referenced_type" : "_ZTIi"
    }
   ],
   "return_type" : "_ZTIN3ndk13ScopedAStatusE",
   "source_file" : "out/soong/.intermediates/hardware/interfaces/soundtrigger/aidl/android.hardware.soundtrigger3-V1-ndk-source/gen/include/aidl/android/hardware/soundtrigger3/BpSoundTriggerHw.h"
  },
  {
   "function_name" : "aidl::android::hardware::soundtrigger3::BpSoundTriggerHw::getProperties",
   "linker_set_key" : "_ZN4aidl7android8hardware13soundtrigger316BpSoundTriggerHw13getPropertiesEPNS0_5media12soundtrigger10PropertiesE",
   "parameters" :
   [
    {
     "is_this_ptr" : true,
     "referenced_type" : "_ZTIPN4aidl7android8hardware13soundtrigger316BpSoundTriggerHwE"
    },
    {
     "referenced_type" : "_ZTIPN4aidl7android5media12soundtrigger10PropertiesE"
    }
   ],
   "return_type" : "_ZTIN3ndk13ScopedAStatusE",
   "source_file" : "out/soong/.intermediates/hardware/interfaces/soundtrigger/aidl/android.hardware.soundtrigger3-V1-ndk-source/gen/include/aidl/android/hardware/soundtrigger3/BpSoundTriggerHw.h"
  },
  {
   "function_name" : "aidl::android::hardware::soundtrigger3::BpSoundTriggerHw::loadSoundModel",
   "linker_set_key" : "_ZN4aidl7android8hardware13soundtrigger316BpSoundTriggerHw14loadSoundModelERKNS0_5media12soundtrigger10SoundModelERKNSt3__110shared_ptrINS2_23ISoundTriggerHwCallbackEEEPi",
   "parameters" :
   [
    {
     "is_this_ptr" : true,
     "referenced_type" : "_ZTIPN4aidl7android8hardware13soundtrigger316BpSoundTriggerHwE"
    },
    {
     "referenced_type" : "_ZTIRKN4aidl7android5media12soundtrigger10SoundModelE"
    },
    {
     "referenced_type" : "_ZTIRKNSt3__110shared_ptrIN4aidl7android8hardware13soundtrigger323ISoundTriggerHwCallbackEEE"
    },
    {
     "referenced_type" : "_ZTIPi"
    }
   ],
   "return_type" : "_ZTIN3ndk13ScopedAStatusE",
   "source_file" : "out/soong/.intermediates/hardware/interfaces/soundtrigger/aidl/android.hardware.soundtrigger3-V1-ndk-source/gen/include/aidl/android/hardware/soundtrigger3/BpSoundTriggerHw.h"
  },
  {
   "function_name" : "aidl::android::hardware::soundtrigger3::BpSoundTriggerHw::queryParameter",
   "linker_set_key" : "_ZN4aidl7android8hardware13soundtrigger316BpSoundTriggerHw14queryParameterEiNS0_5media12soundtrigger14ModelParameterEPNSt3__18optionalINS5_19ModelParameterRangeEEE",
   "parameters" :
   [
    {
     "is_this_ptr" : true,
     "referenced_type" : "_ZTIPN4aidl7android8hardware13soundtrigger316BpSoundTriggerHwE"
    },
    {
     "referenced_type" : "_ZTIi"
    },
    {
     "referenced_type" : "_ZTIN4aidl7android5media12soundtrigger14ModelParameterE"
    },
    {
     "referenced_type" : "_ZTIPNSt3__18optionalIN4aidl7android5media12soundtrigger19ModelParameterRangeEEE"
    }
   ],
   "return_type" : "_ZTIN3ndk13ScopedAStatusE",
   "source_file" : "out/soong/.intermediates/hardware/interfaces/soundtrigger/aidl/android.hardware.soundtrigger3-V1-ndk-source/gen/include/aidl/android/hardware/soundtrigger3/BpSoundTriggerHw.h"
  },
  {
   "function_name" : "aidl::android::hardware::soundtrigger3::BpSoundTriggerHw::stopRecognition",
   "linker_set_key" : "_ZN4aidl7android8hardware13soundtrigger316BpSoundTriggerHw15stopRecognitionEi",
   "parameters" :
   [
    {
     "is_this_ptr" : true,
     "referenced_type" : "_ZTIPN4aidl7android8hardware13soundtrigger316BpSoundTriggerHwE"
    },
    {
     "referenced_type" : "_ZTIi"
    }
   ],
   "return_type" : "_ZTIN3ndk13ScopedAStatusE",
   "source_file" : "out/soong/.intermediates/hardware/interfaces/soundtrigger/aidl/android.hardware.soundtrigger3-V1-ndk-source/gen/include/aidl/android/hardware/soundtrigger3/BpSoundTriggerHw.h"
  },
  {
   "function_name" : "aidl::android::hardware::soundtrigger3::BpSoundTriggerHw::getInterfaceHash",
   "linker_set_key" : "_ZN4aidl7android8hardware13soundtrigger316BpSoundTriggerHw16getInterfaceHashEPNSt3__112basic_stringIcNS4_11char_traitsIcEENS4_9allocatorIcEEEE",
   "parameters" :
   [
    {
     "is_this_ptr" : true,
     "referenced_type" : "_ZTIPN4aidl7android8hardware13soundtrigger316BpSoundTriggerHwE"
    },
    {
     "referenced_type" : "_ZTIPNSt3__112basic_stringIcNS_11char_traitsIcEENS_9allocatorIcEEEE"
    }
   ],
   "return_type" : "_ZTIN3ndk13ScopedAStatusE",
   "source_file" : "out/soong/.intermediates/hardware/interfaces/soundtrigger/aidl/android.hardware.soundtrigger3-V1-ndk-source/gen/include/aidl/android/hardware/soundtrigger3/BpSoundTriggerHw.h"
  },
  {
   "function_name" : "aidl::android::hardware::soundtrigger3::BpSoundTriggerHw::startRecognition",
   "linker_set_key" : "_ZN4aidl7android8hardware13soundtrigger316BpSoundTriggerHw16startRecognitionEiiiRKNS0_5media12soundtrigger17RecognitionConfigE",
   "parameters" :
   [
    {
     "is_this_ptr" : true,
     "referenced_type" : "_ZTIPN4aidl7android8hardware13soundtrigger316BpSoundTriggerHwE"
    },
    {
     "referenced_type" : "_ZTIi"
    },
    {
     "referenced_type" : "_ZTIi"
    },
    {
     "referenced_type" : "_ZTIi"
    },
    {
     "referenced_type" : "_ZTIRKN4aidl7android5media12soundtrigger17RecognitionConfigE"
    }
   ],
   "return_type" : "_ZTIN3ndk13ScopedAStatusE",
   "source_file" : "out/soong/.intermediates/hardware/interfaces/soundtrigger/aidl/android.hardware.soundtrigger3-V1-ndk-source/gen/include/aidl/android/hardware/soundtrigger3/BpSoundTriggerHw.h"
  },
  {
   "function_name" : "aidl::android::hardware::soundtrigger3::BpSoundTriggerHw::unloadSoundModel",
   "linker_set_key" : "_ZN4aidl7android8hardware13soundtrigger316BpSoundTriggerHw16unloadSoundModelEi",
   "parameters" :
   [
    {
     "is_this_ptr" : true,
     "referenced_type" : "_ZTIPN4aidl7android8hardware13soundtrigger316BpSoundTriggerHwE"
    },
    {
     "referenced_type" : "_ZTIi"
    }
   ],
   "return_type" : "_ZTIN3ndk13ScopedAStatusE",
   "source_file" : "out/soong/.intermediates/hardware/interfaces/soundtrigger/aidl/android.hardware.soundtrigger3-V1-ndk-source/gen/include/aidl/android/hardware/soundtrigger3/BpSoundTriggerHw.h"
  },
  {
   "function_name" : "aidl::android::hardware::soundtrigger3::BpSoundTriggerHw::getInterfaceVersion",
   "linker_set_key" : "_ZN4aidl7android8hardware13soundtrigger316BpSoundTriggerHw19getInterfaceVersionEPi",
   "parameters" :
   [
    {
     "is_this_ptr" : true,
     "referenced_type" : "_ZTIPN4aidl7android8hardware13soundtrigger316BpSoundTriggerHwE"
    },
    {
     "referenced_type" : "_ZTIPi"
    }
   ],
   "return_type" : "_ZTIN3ndk13ScopedAStatusE",
   "source_file" : "out/soong/.intermediates/hardware/interfaces/soundtrigger/aidl/android.hardware.soundtrigger3-V1-ndk-source/gen/include/aidl/android/hardware/soundtrigger3/BpSoundTriggerHw.h"
  },
  {
   "function_name" : "aidl::android::hardware::soundtrigger3::BpSoundTriggerHw::loadPhraseSoundModel",
   "linker_set_key" : "_ZN4aidl7android8hardware13soundtrigger316BpSoundTriggerHw20loadPhraseSoundModelERKNS0_5media12soundtrigger16PhraseSoundModelERKNSt3__110shared_ptrINS2_23ISoundTriggerHwCallbackEEEPi",
   "parameters" :
   [
    {
     "is_this_ptr" : true,
     "referenced_type" : "_ZTIPN4aidl7android8hardware13soundtrigger316BpSoundTriggerHwE"
    },
    {
     "referenced_type" : "_ZTIRKN4aidl7android5media12soundtrigger16PhraseSoundModelE"
    },
    {
     "referenced_type" : "_ZTIRKNSt3__110shared_ptrIN4aidl7android8hardware13soundtrigger323ISoundTriggerHwCallbackEEE"
    },
    {
     "referenced_type" : "_ZTIPi"
    }
   ],
   "return_type" : "_ZTIN3ndk13ScopedAStatusE",
   "source_file" : "out/soong/.intermediates/hardware/interfaces/soundtrigger/aidl/android.hardware.soundtrigger3-V1-ndk-source/gen/include/aidl/android/hardware/soundtrigger3/BpSoundTriggerHw.h"
  },
  {
   "function_name" : "aidl::android::hardware::soundtrigger3::BpSoundTriggerHw::forceRecognitionEvent",
   "linker_set_key" : "_ZN4aidl7android8hardware13soundtrigger316BpSoundTriggerHw21forceRecognitionEventEi",
   "parameters" :
   [
    {
     "is_this_ptr" : true,
     "referenced_type" : "_ZTIPN4aidl7android8hardware13soundtrigger316BpSoundTriggerHwE"
    },
    {
     "referenced_type" : "_ZTIi"
    }
   ],
   "return_type" : "_ZTIN3ndk13ScopedAStatusE",
   "source_file" : "out/soong/.intermediates/hardware/interfaces/soundtrigger/aidl/android.hardware.soundtrigger3-V1-ndk-source/gen/include/aidl/android/hardware/soundtrigger3/BpSoundTriggerHw.h"
  },
  {
   "function_name" : "aidl::android::hardware::soundtrigger3::BpSoundTriggerHw::registerGlobalCallback",
   "linker_set_key" : "_ZN4aidl7android8hardware13soundtrigger316BpSoundTriggerHw22registerGlobalCallbackERKNSt3__110shared_ptrINS2_29ISoundTriggerHwGlobalCallbackEEE",
   "parameters" :
   [
    {
     "is_this_ptr" : true,
     "referenced_type" : "_ZTIPN4aidl7android8hardware13soundtrigger316BpSoundTriggerHwE"
    },
    {
     "referenced_type" : "_ZTIRKNSt3__110shared_ptrIN4aidl7android8hardware13soundtrigger329ISoundTriggerHwGlobalCallbackEEE"
    }
   ],
   "return_type" : "_ZTIN3ndk13ScopedAStatusE",
   "source_file" : "out/soong/.intermediates/hardware/interfaces/soundtrigger/aidl/android.hardware.soundtrigger3-V1-ndk-source/gen/include/aidl/android/hardware/soundtrigger3/BpSoundTriggerHw.h"
  },
  {
   "function_name" : "aidl::android::hardware::soundtrigger3::BpSoundTriggerHw::BpSoundTriggerHw",
   "linker_set_key" : "_ZN4aidl7android8hardware13soundtrigger316BpSoundTriggerHwC1ERKN3ndk10SpAIBinderE",
   "parameters" :
   [
    {
     "is_this_ptr" : true,
     "referenced_type" : "_ZTIPN4aidl7android8hardware13soundtrigger316BpSoundTriggerHwE"
    },
    {
     "referenced_type" : "_ZTIRKN3ndk10SpAIBinderE"
    }
   ],
   "return_type" : "_ZTIv",
   "source_file" : "out/soong/.intermediates/hardware/interfaces/soundtrigger/aidl/android.hardware.soundtrigger3-V1-ndk-source/gen/include/aidl/android/hardware/soundtrigger3/BpSoundTriggerHw.h"
  },
  {
   "function_name" : "aidl::android::hardware::soundtrigger3::BpSoundTriggerHw::BpSoundTriggerHw",
   "linker_set_key" : "_ZN4aidl7android8hardware13soundtrigger316BpSoundTriggerHwC2ERKN3ndk10SpAIBinderE",
   "parameters" :
   [
    {
     "is_this_ptr" : true,
     "referenced_type" : "_ZTIPN4aidl7android8hardware13soundtrigger316BpSoundTriggerHwE"
    },
    {
     "referenced_type" : "_ZTIRKN3ndk10SpAIBinderE"
    }
   ],
   "return_type" : "_ZTIv",
   "source_file" : "out/soong/.intermediates/hardware/interfaces/soundtrigger/aidl/android.hardware.soundtrigger3-V1-ndk-source/gen/include/aidl/android/hardware/soundtrigger3/BpSoundTriggerHw.h"
  },
  {
   "function_name" : "aidl::android::hardware::soundtrigger3::BpSoundTriggerHw::~BpSoundTriggerHw",
   "linker_set_key" : "_ZN4aidl7android8hardware13soundtrigger316BpSoundTriggerHwD0Ev",
   "parameters" :
   [
    {
     "is_this_ptr" : true,
     "referenced_type" : "_ZTIPN4aidl7android8hardware13soundtrigger316BpSoundTriggerHwE"
    }
   ],
   "return_type" : "_ZTIv",
   "source_file" : "out/soong/.intermediates/hardware/interfaces/soundtrigger/aidl/android.hardware.soundtrigger3-V1-ndk-source/gen/include/aidl/android/hardware/soundtrigger3/BpSoundTriggerHw.h"
  },
  {
   "function_name" : "aidl::android::hardware::soundtrigger3::BpSoundTriggerHw::~BpSoundTriggerHw",
   "linker_set_key" : "_ZN4aidl7android8hardware13soundtrigger316BpSoundTriggerHwD1Ev",
   "parameters" :
   [
    {
     "is_this_ptr" : true,
     "referenced_type" : "_ZTIPN4aidl7android8hardware13soundtrigger316BpSoundTriggerHwE"
    }
   ],
   "return_type" : "_ZTIv",
   "source_file" : "out/soong/.intermediates/hardware/interfaces/soundtrigger/aidl/android.hardware.soundtrigger3-V1-ndk-source/gen/include/aidl/android/hardware/soundtrigger3/BpSoundTriggerHw.h"
  },
  {
   "function_name" : "aidl::android::hardware::soundtrigger3::BpSoundTriggerHw::~BpSoundTriggerHw",
   "linker_set_key" : "_ZN4aidl7android8hardware13soundtrigger316BpSoundTriggerHwD2Ev",
   "parameters" :
   [
    {
     "is_this_ptr" : true,
     "referenced_type" : "_ZTIPN4aidl7android8hardware13soundtrigger316BpSoundTriggerHwE"
    }
   ],
   "return_type" : "_ZTIv",
   "source_file" : "out/soong/.intermediates/hardware/interfaces/soundtrigger/aidl/android.hardware.soundtrigger3-V1-ndk-source/gen/include/aidl/android/hardware/soundtrigger3/BpSoundTriggerHw.h"
  },
  {
   "function_name" : "aidl::android::hardware::soundtrigger3::ISoundTriggerHwDefault::getParameter",
   "linker_set_key" : "_ZN4aidl7android8hardware13soundtrigger322ISoundTriggerHwDefault12getParameterEiNS0_5media12soundtrigger14ModelParameterEPi",
   "parameters" :
   [
    {
     "is_this_ptr" : true,
     "referenced_type" : "_ZTIPN4aidl7android8hardware13soundtrigger322ISoundTriggerHwDefaultE"
    },
    {
     "referenced_type" : "_ZTIi"
    },
    {
     "referenced_type" : "_ZTIN4aidl7android5media12soundtrigger14ModelParameterE"
    },
    {
     "referenced_type" : "_ZTIPi"
    }
   ],
   "return_type" : "_ZTIN3ndk13ScopedAStatusE",
   "source_file" : "out/soong/.intermediates/hardware/interfaces/soundtrigger/aidl/android.hardware.soundtrigger3-V1-ndk-source/gen/include/aidl/android/hardware/soundtrigger3/ISoundTriggerHw.h"
  },
  {
   "function_name" : "aidl::android::hardware::soundtrigger3::ISoundTriggerHwDefault::setParameter",
   "linker_set_key" : "_ZN4aidl7android8hardware13soundtrigger322ISoundTriggerHwDefault12setParameterEiNS0_5media12soundtrigger14ModelParameterEi",
   "parameters" :
   [
    {
     "is_this_ptr" : true,
     "referenced_type" : "_ZTIPN4aidl7android8hardware13soundtrigger322ISoundTriggerHwDefaultE"
    },
    {
     "referenced_type" : "_ZTIi"
    },
    {
     "referenced_type" : "_ZTIN4aidl7android5media12soundtrigger14ModelParameterE"
    },
    {
     "referenced_type" : "_ZTIi"
    }
   ],
   "return_type" : "_ZTIN3ndk13ScopedAStatusE",
   "source_file" : "out/soong/.intermediates/hardware/interfaces/soundtrigger/aidl/android.hardware.soundtrigger3-V1-ndk-source/gen/include/aidl/android/hardware/soundtrigger3/ISoundTriggerHw.h"
  },
  {
   "function_name" : "aidl::android::hardware::soundtrigger3::ISoundTriggerHwDefault::getProperties",
   "linker_set_key" : "_ZN4aidl7android8hardware13soundtrigger322ISoundTriggerHwDefault13getPropertiesEPNS0_5media12soundtrigger10PropertiesE",
   "parameters" :
   [
    {
     "is_this_ptr" : true,
     "referenced_type" : "_ZTIPN4aidl7android8hardware13soundtrigger322ISoundTriggerHwDefaultE"
    },
    {
     "referenced_type" : "_ZTIPN4aidl7android5media12soundtrigger10PropertiesE"
    }
   ],
   "return_type" : "_ZTIN3ndk13ScopedAStatusE",
   "source_file" : "out/soong/.intermediates/hardware/interfaces/soundtrigger/aidl/android.hardware.soundtrigger3-V1-ndk-source/gen/include/aidl/android/hardware/soundtrigger3/ISoundTriggerHw.h"
  },
  {
   "function_name" : "aidl::android::hardware::soundtrigger3::ISoundTriggerHwDefault::loadSoundModel",
   "linker_set_key" : "_ZN4aidl7android8hardware13soundtrigger322ISoundTriggerHwDefault14loadSoundModelERKNS0_5media12soundtrigger10SoundModelERKNSt3__110shared_ptrINS2_23ISoundTriggerHwCallbackEEEPi",
   "parameters" :
   [
    {
     "is_this_ptr" : true,
     "referenced_type" : "_ZTIPN4aidl7android8hardware13soundtrigger322ISoundTriggerHwDefaultE"
    },
    {
     "referenced_type" : "_ZTIRKN4aidl7android5media12soundtrigger10SoundModelE"
    },
    {
     "referenced_type" : "_ZTIRKNSt3__110shared_ptrIN4aidl7android8hardware13soundtrigger323ISoundTriggerHwCallbackEEE"
    },
    {
     "referenced_type" : "_ZTIPi"
    }
   ],
   "return_type" : "_ZTIN3ndk13ScopedAStatusE",
   "source_file" : "out/soong/.intermediates/hardware/interfaces/soundtrigger/aidl/android.hardware.soundtrigger3-V1-ndk-source/gen/include/aidl/android/hardware/soundtrigger3/ISoundTriggerHw.h"
  },
  {
   "function_name" : "aidl::android::hardware::soundtrigger3::ISoundTriggerHwDefault::queryParameter",
   "linker_set_key" : "_ZN4aidl7android8hardware13soundtrigger322ISoundTriggerHwDefault14queryParameterEiNS0_5media12soundtrigger14ModelParameterEPNSt3__18optionalINS5_19ModelParameterRangeEEE",
   "parameters" :
   [
    {
     "is_this_ptr" : true,
     "referenced_type" : "_ZTIPN4aidl7android8hardware13soundtrigger322ISoundTriggerHwDefaultE"
    },
    {
     "referenced_type" : "_ZTIi"
    },
    {
     "referenced_type" : "_ZTIN4aidl7android5media12soundtrigger14ModelParameterE"
    },
    {
     "referenced_type" : "_ZTIPNSt3__18optionalIN4aidl7android5media12soundtrigger19ModelParameterRangeEEE"
    }
   ],
   "return_type" : "_ZTIN3ndk13ScopedAStatusE",
   "source_file" : "out/soong/.intermediates/hardware/interfaces/soundtrigger/aidl/android.hardware.soundtrigger3-V1-ndk-source/gen/include/aidl/android/hardware/soundtrigger3/ISoundTriggerHw.h"
  },
  {
   "function_name" : "aidl::android::hardware::soundtrigger3::ISoundTriggerHwDefault::stopRecognition",
   "linker_set_key" : "_ZN4aidl7android8hardware13soundtrigger322ISoundTriggerHwDefault15stopRecognitionEi",
   "parameters" :
   [
    {
     "is_this_ptr" : true,
     "referenced_type" : "_ZTIPN4aidl7android8hardware13soundtrigger322ISoundTriggerHwDefaultE"
    },
    {
     "referenced_type" : "_ZTIi"
    }
   ],
   "return_type" : "_ZTIN3ndk13ScopedAStatusE",
   "source_file" : "out/soong/.intermediates/hardware/interfaces/soundtrigger/aidl/android.hardware.soundtrigger3-V1-ndk-source/gen/include/aidl/android/hardware/soundtrigger3/ISoundTriggerHw.h"
  },
  {
   "function_name" : "aidl::android::hardware::soundtrigger3::ISoundTriggerHwDefault::getInterfaceHash",
   "linker_set_key" : "_ZN4aidl7android8hardware13soundtrigger322ISoundTriggerHwDefault16getInterfaceHashEPNSt3__112basic_stringIcNS4_11char_traitsIcEENS4_9allocatorIcEEEE",
   "parameters" :
   [
    {
     "is_this_ptr" : true,
     "referenced_type" : "_ZTIPN4aidl7android8hardware13soundtrigger322ISoundTriggerHwDefaultE"
    },
    {
     "referenced_type" : "_ZTIPNSt3__112basic_stringIcNS_11char_traitsIcEENS_9allocatorIcEEEE"
    }
   ],
   "return_type" : "_ZTIN3ndk13ScopedAStatusE",
   "source_file" : "out/soong/.intermediates/hardware/interfaces/soundtrigger/aidl/android.hardware.soundtrigger3-V1-ndk-source/gen/include/aidl/android/hardware/soundtrigger3/ISoundTriggerHw.h"
  },
  {
   "function_name" : "aidl::android::hardware::soundtrigger3::ISoundTriggerHwDefault::startRecognition",
   "linker_set_key" : "_ZN4aidl7android8hardware13soundtrigger322ISoundTriggerHwDefault16startRecognitionEiiiRKNS0_5media12soundtrigger17RecognitionConfigE",
   "parameters" :
   [
    {
     "is_this_ptr" : true,
     "referenced_type" : "_ZTIPN4aidl7android8hardware13soundtrigger322ISoundTriggerHwDefaultE"
    },
    {
     "referenced_type" : "_ZTIi"
    },
    {
     "referenced_type" : "_ZTIi"
    },
    {
     "referenced_type" : "_ZTIi"
    },
    {
     "referenced_type" : "_ZTIRKN4aidl7android5media12soundtrigger17RecognitionConfigE"
    }
   ],
   "return_type" : "_ZTIN3ndk13ScopedAStatusE",
   "source_file" : "out/soong/.intermediates/hardware/interfaces/soundtrigger/aidl/android.hardware.soundtrigger3-V1-ndk-source/gen/include/aidl/android/hardware/soundtrigger3/ISoundTriggerHw.h"
  },
  {
   "function_name" : "aidl::android::hardware::soundtrigger3::ISoundTriggerHwDefault::unloadSoundModel",
   "linker_set_key" : "_ZN4aidl7android8hardware13soundtrigger322ISoundTriggerHwDefault16unloadSoundModelEi",
   "parameters" :
   [
    {
     "is_this_ptr" : true,
     "referenced_type" : "_ZTIPN4aidl7android8hardware13soundtrigger322ISoundTriggerHwDefaultE"
    },
    {
     "referenced_type" : "_ZTIi"
    }
   ],
   "return_type" : "_ZTIN3ndk13ScopedAStatusE",
   "source_file" : "out/soong/.intermediates/hardware/interfaces/soundtrigger/aidl/android.hardware.soundtrigger3-V1-ndk-source/gen/include/aidl/android/hardware/soundtrigger3/ISoundTriggerHw.h"
  },
  {
   "function_name" : "aidl::android::hardware::soundtrigger3::ISoundTriggerHwDefault::getInterfaceVersion",
   "linker_set_key" : "_ZN4aidl7android8hardware13soundtrigger322ISoundTriggerHwDefault19getInterfaceVersionEPi",
   "parameters" :
   [
    {
     "is_this_ptr" : true,
     "referenced_type" : "_ZTIPN4aidl7android8hardware13soundtrigger322ISoundTriggerHwDefaultE"
    },
    {
     "referenced_type" : "_ZTIPi"
    }
   ],
   "return_type" : "_ZTIN3ndk13ScopedAStatusE",
   "source_file" : "out/soong/.intermediates/hardware/interfaces/soundtrigger/aidl/android.hardware.soundtrigger3-V1-ndk-source/gen/include/aidl/android/hardware/soundtrigger3/ISoundTriggerHw.h"
  },
  {
   "function_name" : "aidl::android::hardware::soundtrigger3::ISoundTriggerHwDefault::loadPhraseSoundModel",
   "linker_set_key" : "_ZN4aidl7android8hardware13soundtrigger322ISoundTriggerHwDefault20loadPhraseSoundModelERKNS0_5media12soundtrigger16PhraseSoundModelERKNSt3__110shared_ptrINS2_23ISoundTriggerHwCallbackEEEPi",
   "parameters" :
   [
    {
     "is_this_ptr" : true,
     "referenced_type" : "_ZTIPN4aidl7android8hardware13soundtrigger322ISoundTriggerHwDefaultE"
    },
    {
     "referenced_type" : "_ZTIRKN4aidl7android5media12soundtrigger16PhraseSoundModelE"
    },
    {
     "referenced_type" : "_ZTIRKNSt3__110shared_ptrIN4aidl7android8hardware13soundtrigger323ISoundTriggerHwCallbackEEE"
    },
    {
     "referenced_type" : "_ZTIPi"
    }
   ],
   "return_type" : "_ZTIN3ndk13ScopedAStatusE",
   "source_file" : "out/soong/.intermediates/hardware/interfaces/soundtrigger/aidl/android.hardware.soundtrigger3-V1-ndk-source/gen/include/aidl/android/hardware/soundtrigger3/ISoundTriggerHw.h"
  },
  {
   "function_name" : "aidl::android::hardware::soundtrigger3::ISoundTriggerHwDefault::forceRecognitionEvent",
   "linker_set_key" : "_ZN4aidl7android8hardware13soundtrigger322ISoundTriggerHwDefault21forceRecognitionEventEi",
   "parameters" :
   [
    {
     "is_this_ptr" : true,
     "referenced_type" : "_ZTIPN4aidl7android8hardware13soundtrigger322ISoundTriggerHwDefaultE"
    },
    {
     "referenced_type" : "_ZTIi"
    }
   ],
   "return_type" : "_ZTIN3ndk13ScopedAStatusE",
   "source_file" : "out/soong/.intermediates/hardware/interfaces/soundtrigger/aidl/android.hardware.soundtrigger3-V1-ndk-source/gen/include/aidl/android/hardware/soundtrigger3/ISoundTriggerHw.h"
  },
  {
   "function_name" : "aidl::android::hardware::soundtrigger3::ISoundTriggerHwDefault::registerGlobalCallback",
   "linker_set_key" : "_ZN4aidl7android8hardware13soundtrigger322ISoundTriggerHwDefault22registerGlobalCallbackERKNSt3__110shared_ptrINS2_29ISoundTriggerHwGlobalCallbackEEE",
   "parameters" :
   [
    {
     "is_this_ptr" : true,
     "referenced_type" : "_ZTIPN4aidl7android8hardware13soundtrigger322ISoundTriggerHwDefaultE"
    },
    {
     "referenced_type" : "_ZTIRKNSt3__110shared_ptrIN4aidl7android8hardware13soundtrigger329ISoundTriggerHwGlobalCallbackEEE"
    }
   ],
   "return_type" : "_ZTIN3ndk13ScopedAStatusE",
   "source_file" : "out/soong/.intermediates/hardware/interfaces/soundtrigger/aidl/android.hardware.soundtrigger3-V1-ndk-source/gen/include/aidl/android/hardware/soundtrigger3/ISoundTriggerHw.h"
  },
  {
   "function_name" : "aidl::android::hardware::soundtrigger3::ISoundTriggerHwDefault::asBinder",
   "linker_set_key" : "_ZN4aidl7android8hardware13soundtrigger322ISoundTriggerHwDefault8asBinderEv",
   "parameters" :
   [
    {
     "is_this_ptr" : true,
     "referenced_type" : "_ZTIPN4aidl7android8hardware13soundtrigger322ISoundTriggerHwDefaultE"
    }
   ],
   "return_type" : "_ZTIN3ndk10SpAIBinderE",
   "source_file" : "out/soong/.intermediates/hardware/interfaces/soundtrigger/aidl/android.hardware.soundtrigger3-V1-ndk-source/gen/include/aidl/android/hardware/soundtrigger3/ISoundTriggerHw.h"
  },
  {
   "function_name" : "aidl::android::hardware::soundtrigger3::ISoundTriggerHwDefault::isRemote",
   "linker_set_key" : "_ZN4aidl7android8hardware13soundtrigger322ISoundTriggerHwDefault8isRemoteEv",
   "parameters" :
   [
    {
     "is_this_ptr" : true,
     "referenced_type" : "_ZTIPN4aidl7android8hardware13soundtrigger322ISoundTriggerHwDefaultE"
    }
   ],
   "return_type" : "_ZTIb",
   "source_file" : "out/soong/.intermediates/hardware/interfaces/soundtrigger/aidl/android.hardware.soundtrigger3-V1-ndk-source/gen/include/aidl/android/hardware/soundtrigger3/ISoundTriggerHw.h"
  },
  {
   "function_name" : "aidl::android::hardware::soundtrigger3::ISoundTriggerHwCallback::fromBinder",
   "linker_set_key" : "_ZN4aidl7android8hardware13soundtrigger323ISoundTriggerHwCallback10fromBinderERKN3ndk10SpAIBinderE",
   "parameters" :
   [
    {
     "referenced_type" : "_ZTIRKN3ndk10SpAIBinderE"
    }
   ],
   "return_type" : "_ZTINSt3__110shared_ptrIN4aidl7android8hardware13soundtrigger323ISoundTriggerHwCallbackEEE",
   "source_file" : "out/soong/.intermediates/hardware/interfaces/soundtrigger/aidl/android.hardware.soundtrigger3-V1-ndk-source/gen/include/aidl/android/hardware/soundtrigger3/ISoundTriggerHwCallback.h"
  },
  {
   "function_name" : "aidl::android::hardware::soundtrigger3::ISoundTriggerHwCallback::writeToParcel",
   "linker_set_key" : "_ZN4aidl7android8hardware13soundtrigger323ISoundTriggerHwCallback13writeToParcelEP7AParcelRKNSt3__110shared_ptrIS3_EE",
   "parameters" :
   [
    {
     "referenced_type" : "_ZTIP7AParcel"
    },
    {
     "referenced_type" : "_ZTIRKNSt3__110shared_ptrIN4aidl7android8hardware13soundtrigger323ISoundTriggerHwCallbackEEE"
    }
   ],
   "return_type" : "_ZTIi",
   "source_file" : "out/soong/.intermediates/hardware/interfaces/soundtrigger/aidl/android.hardware.soundtrigger3-V1-ndk-source/gen/include/aidl/android/hardware/soundtrigger3/ISoundTriggerHwCallback.h"
  },
  {
   "function_name" : "aidl::android::hardware::soundtrigger3::ISoundTriggerHwCallback::getDefaultImpl",
   "linker_set_key" : "_ZN4aidl7android8hardware13soundtrigger323ISoundTriggerHwCallback14getDefaultImplEv",
   "return_type" : "_ZTIRKNSt3__110shared_ptrIN4aidl7android8hardware13soundtrigger323ISoundTriggerHwCallbackEEE",
   "source_file" : "out/soong/.intermediates/hardware/interfaces/soundtrigger/aidl/android.hardware.soundtrigger3-V1-ndk-source/gen/include/aidl/android/hardware/soundtrigger3/ISoundTriggerHwCallback.h"
  },
  {
   "function_name" : "aidl::android::hardware::soundtrigger3::ISoundTriggerHwCallback::readFromParcel",
   "linker_set_key" : "_ZN4aidl7android8hardware13soundtrigger323ISoundTriggerHwCallback14readFromParcelEPK7AParcelPNSt3__110shared_ptrIS3_EE",
   "parameters" :
   [
    {
     "referenced_type" : "_ZTIPK7AParcel"
    },
    {
     "referenced_type" : "_ZTIPNSt3__110shared_ptrIN4aidl7android8hardware13soundtrigger323ISoundTriggerHwCallbackEEE"
    }
   ],
   "return_type" : "_ZTIi",
   "source_file" : "out/soong/.intermediates/hardware/interfaces/soundtrigger/aidl/android.hardware.soundtrigger3-V1-ndk-source/gen/include/aidl/android/hardware/soundtrigger3/ISoundTriggerHwCallback.h"
  },
  {
   "function_name" : "aidl::android::hardware::soundtrigger3::ISoundTriggerHwCallback::setDefaultImpl",
   "linker_set_key" : "_ZN4aidl7android8hardware13soundtrigger323ISoundTriggerHwCallback14setDefaultImplERKNSt3__110shared_ptrIS3_EE",
   "parameters" :
   [
    {
     "referenced_type" : "_ZTIRKNSt3__110shared_ptrIN4aidl7android8hardware13soundtrigger323ISoundTriggerHwCallbackEEE"
    }
   ],
   "return_type" : "_ZTIb",
   "source_file" : "out/soong/.intermediates/hardware/interfaces/soundtrigger/aidl/android.hardware.soundtrigger3-V1-ndk-source/gen/include/aidl/android/hardware/soundtrigger3/ISoundTriggerHwCallback.h"
  },
  {
   "function_name" : "aidl::android::hardware::soundtrigger3::ISoundTriggerHwCallback::ISoundTriggerHwCallback",
   "linker_set_key" : "_ZN4aidl7android8hardware13soundtrigger323ISoundTriggerHwCallbackC2Ev",
   "parameters" :
   [
    {
     "is_this_ptr" : true,
     "referenced_type" : "_ZTIPN4aidl7android8hardware13soundtrigger323ISoundTriggerHwCallbackE"
    }
   ],
   "return_type" : "_ZTIv",
   "source_file" : "out/soong/.intermediates/hardware/interfaces/soundtrigger/aidl/android.hardware.soundtrigger3-V1-ndk-source/gen/include/aidl/android/hardware/soundtrigger3/ISoundTriggerHwCallback.h"
  },
  {
   "function_name" : "aidl::android::hardware::soundtrigger3::ISoundTriggerHwCallback::~ISoundTriggerHwCallback",
   "linker_set_key" : "_ZN4aidl7android8hardware13soundtrigger323ISoundTriggerHwCallbackD0Ev",
   "parameters" :
   [
    {
     "is_this_ptr" : true,
     "referenced_type" : "_ZTIPN4aidl7android8hardware13soundtrigger323ISoundTriggerHwCallbackE"
    }
   ],
   "return_type" : "_ZTIv",
   "source_file" : "out/soong/.intermediates/hardware/interfaces/soundtrigger/aidl/android.hardware.soundtrigger3-V1-ndk-source/gen/include/aidl/android/hardware/soundtrigger3/ISoundTriggerHwCallback.h"
  },
  {
   "function_name" : "aidl::android::hardware::soundtrigger3::ISoundTriggerHwCallback::~ISoundTriggerHwCallback",
   "linker_set_key" : "_ZN4aidl7android8hardware13soundtrigger323ISoundTriggerHwCallbackD1Ev",
   "parameters" :
   [
    {
     "is_this_ptr" : true,
     "referenced_type" : "_ZTIPN4aidl7android8hardware13soundtrigger323ISoundTriggerHwCallbackE"
    }
   ],
   "return_type" : "_ZTIv",
   "source_file" : "out/soong/.intermediates/hardware/interfaces/soundtrigger/aidl/android.hardware.soundtrigger3-V1-ndk-source/gen/include/aidl/android/hardware/soundtrigger3/ISoundTriggerHwCallback.h"
  },
  {
   "function_name" : "aidl::android::hardware::soundtrigger3::ISoundTriggerHwCallback::~ISoundTriggerHwCallback",
   "linker_set_key" : "_ZN4aidl7android8hardware13soundtrigger323ISoundTriggerHwCallbackD2Ev",
   "parameters" :
   [
    {
     "is_this_ptr" : true,
     "referenced_type" : "_ZTIPN4aidl7android8hardware13soundtrigger323ISoundTriggerHwCallbackE"
    }
   ],
   "return_type" : "_ZTIv",
   "source_file" : "out/soong/.intermediates/hardware/interfaces/soundtrigger/aidl/android.hardware.soundtrigger3-V1-ndk-source/gen/include/aidl/android/hardware/soundtrigger3/ISoundTriggerHwCallback.h"
  },
  {
   "access" : "protected",
   "function_name" : "aidl::android::hardware::soundtrigger3::BnSoundTriggerHwCallback::createBinder",
   "linker_set_key" : "_ZN4aidl7android8hardware13soundtrigger324BnSoundTriggerHwCallback12createBinderEv",
   "parameters" :
   [
    {
     "is_this_ptr" : true,
     "referenced_type" : "_ZTIPN4aidl7android8hardware13soundtrigger324BnSoundTriggerHwCallbackE"
    }
   ],
   "return_type" : "_ZTIN3ndk10SpAIBinderE",
   "source_file" : "out/soong/.intermediates/hardware/interfaces/soundtrigger/aidl/android.hardware.soundtrigger3-V1-ndk-source/gen/include/aidl/android/hardware/soundtrigger3/BnSoundTriggerHwCallback.h"
  },
  {
   "function_name" : "aidl::android::hardware::soundtrigger3::BnSoundTriggerHwCallback::getInterfaceHash",
   "linker_set_key" : "_ZN4aidl7android8hardware13soundtrigger324BnSoundTriggerHwCallback16getInterfaceHashEPNSt3__112basic_stringIcNS4_11char_traitsIcEENS4_9allocatorIcEEEE",
   "parameters" :
   [
    {
     "is_this_ptr" : true,
     "referenced_type" : "_ZTIPN4aidl7android8hardware13soundtrigger324BnSoundTriggerHwCallbackE"
    },
    {
     "referenced_type" : "_ZTIPNSt3__112basic_stringIcNS_11char_traitsIcEENS_9allocatorIcEEEE"
    }
   ],
   "return_type" : "_ZTIN3ndk13ScopedAStatusE",
   "source_file" : "out/soong/.intermediates/hardware/interfaces/soundtrigger/aidl/android.hardware.soundtrigger3-V1-ndk-source/gen/include/aidl/android/hardware/soundtrigger3/BnSoundTriggerHwCallback.h"
  },
  {
   "function_name" : "aidl::android::hardware::soundtrigger3::BnSoundTriggerHwCallback::getInterfaceVersion",
   "linker_set_key" : "_ZN4aidl7android8hardware13soundtrigger324BnSoundTriggerHwCallback19getInterfaceVersionEPi",
   "parameters" :
   [
    {
     "is_this_ptr" : true,
     "referenced_type" : "_ZTIPN4aidl7android8hardware13soundtrigger324BnSoundTriggerHwCallbackE"
    },
    {
     "referenced_type" : "_ZTIPi"
    }
   ],
   "return_type" : "_ZTIN3ndk13ScopedAStatusE",
   "source_file" : "out/soong/.intermediates/hardware/interfaces/soundtrigger/aidl/android.hardware.soundtrigger3-V1-ndk-source/gen/include/aidl/android/hardware/soundtrigger3/BnSoundTriggerHwCallback.h"
  },
  {
   "function_name" : "aidl::android::hardware::soundtrigger3::BnSoundTriggerHwCallback::BnSoundTriggerHwCallback",
   "linker_set_key" : "_ZN4aidl7android8hardware13soundtrigger324BnSoundTriggerHwCallbackC2Ev",
   "parameters" :
   [
    {
     "is_this_ptr" : true,
     "referenced_type" : "_ZTIPN4aidl7android8hardware13soundtrigger324BnSoundTriggerHwCallbackE"
    }
   ],
   "return_type" : "_ZTIv",
   "source_file" : "out/soong/.intermediates/hardware/interfaces/soundtrigger/aidl/android.hardware.soundtrigger3-V1-ndk-source/gen/include/aidl/android/hardware/soundtrigger3/BnSoundTriggerHwCallback.h"
  },
  {
   "function_name" : "aidl::android::hardware::soundtrigger3::BnSoundTriggerHwCallback::~BnSoundTriggerHwCallback",
   "linker_set_key" : "_ZN4aidl7android8hardware13soundtrigger324BnSoundTriggerHwCallbackD0Ev",
   "parameters" :
   [
    {
     "is_this_ptr" : true,
     "referenced_type" : "_ZTIPN4aidl7android8hardware13soundtrigger324BnSoundTriggerHwCallbackE"
    }
   ],
   "return_type" : "_ZTIv",
   "source_file" : "out/soong/.intermediates/hardware/interfaces/soundtrigger/aidl/android.hardware.soundtrigger3-V1-ndk-source/gen/include/aidl/android/hardware/soundtrigger3/BnSoundTriggerHwCallback.h"
  },
  {
   "function_name" : "aidl::android::hardware::soundtrigger3::BnSoundTriggerHwCallback::~BnSoundTriggerHwCallback",
   "linker_set_key" : "_ZN4aidl7android8hardware13soundtrigger324BnSoundTriggerHwCallbackD1Ev",
   "parameters" :
   [
    {
     "is_this_ptr" : true,
     "referenced_type" : "_ZTIPN4aidl7android8hardware13soundtrigger324BnSoundTriggerHwCallbackE"
    }
   ],
   "return_type" : "_ZTIv",
   "source_file" : "out/soong/.intermediates/hardware/interfaces/soundtrigger/aidl/android.hardware.soundtrigger3-V1-ndk-source/gen/include/aidl/android/hardware/soundtrigger3/BnSoundTriggerHwCallback.h"
  },
  {
   "function_name" : "aidl::android::hardware::soundtrigger3::BnSoundTriggerHwCallback::~BnSoundTriggerHwCallback",
   "linker_set_key" : "_ZN4aidl7android8hardware13soundtrigger324BnSoundTriggerHwCallbackD2Ev",
   "parameters" :
   [
    {
     "is_this_ptr" : true,
     "referenced_type" : "_ZTIPN4aidl7android8hardware13soundtrigger324BnSoundTriggerHwCallbackE"
    }
   ],
   "return_type" : "_ZTIv",
   "source_file" : "out/soong/.intermediates/hardware/interfaces/soundtrigger/aidl/android.hardware.soundtrigger3-V1-ndk-source/gen/include/aidl/android/hardware/soundtrigger3/BnSoundTriggerHwCallback.h"
  },
  {
   "function_name" : "aidl::android::hardware::soundtrigger3::BpSoundTriggerHwCallback::modelUnloaded",
   "linker_set_key" : "_ZN4aidl7android8hardware13soundtrigger324BpSoundTriggerHwCallback13modelUnloadedEi",
   "parameters" :
   [
    {
     "is_this_ptr" : true,
     "referenced_type" : "_ZTIPN4aidl7android8hardware13soundtrigger324BpSoundTriggerHwCallbackE"
    },
    {
     "referenced_type" : "_ZTIi"
    }
   ],
   "return_type" : "_ZTIN3ndk13ScopedAStatusE",
   "source_file" : "out/soong/.intermediates/hardware/interfaces/soundtrigger/aidl/android.hardware.soundtrigger3-V1-ndk-source/gen/include/aidl/android/hardware/soundtrigger3/BpSoundTriggerHwCallback.h"
  },
  {
   "function_name" : "aidl::android::hardware::soundtrigger3::BpSoundTriggerHwCallback::getInterfaceHash",
   "linker_set_key" : "_ZN4aidl7android8hardware13soundtrigger324BpSoundTriggerHwCallback16getInterfaceHashEPNSt3__112basic_stringIcNS4_11char_traitsIcEENS4_9allocatorIcEEEE",
   "parameters" :
   [
    {
     "is_this_ptr" : true,
     "referenced_type" : "_ZTIPN4aidl7android8hardware13soundtrigger324BpSoundTriggerHwCallbackE"
    },
    {
     "referenced_type" : "_ZTIPNSt3__112basic_stringIcNS_11char_traitsIcEENS_9allocatorIcEEEE"
    }
   ],
   "return_type" : "_ZTIN3ndk13ScopedAStatusE",
   "source_file" : "out/soong/.intermediates/hardware/interfaces/soundtrigger/aidl/android.hardware.soundtrigger3-V1-ndk-source/gen/include/aidl/android/hardware/soundtrigger3/BpSoundTriggerHwCallback.h"
  },
  {
   "function_name" : "aidl::android::hardware::soundtrigger3::BpSoundTriggerHwCallback::getInterfaceVersion",
   "linker_set_key" : "_ZN4aidl7android8hardware13soundtrigger324BpSoundTriggerHwCallback19getInterfaceVersionEPi",
   "parameters" :
   [
    {
     "is_this_ptr" : true,
     "referenced_type" : "_ZTIPN4aidl7android8hardware13soundtrigger324BpSoundTriggerHwCallbackE"
    },
    {
     "referenced_type" : "_ZTIPi"
    }
   ],
   "return_type" : "_ZTIN3ndk13ScopedAStatusE",
   "source_file" : "out/soong/.intermediates/hardware/interfaces/soundtrigger/aidl/android.hardware.soundtrigger3-V1-ndk-source/gen/include/aidl/android/hardware/soundtrigger3/BpSoundTriggerHwCallback.h"
  },
  {
   "function_name" : "aidl::android::hardware::soundtrigger3::BpSoundTriggerHwCallback::recognitionCallback",
   "linker_set_key" : "_ZN4aidl7android8hardware13soundtrigger324BpSoundTriggerHwCallback19recognitionCallbackEiRKNS0_5media12soundtrigger16RecognitionEventE",
   "parameters" :
   [
    {
     "is_this_ptr" : true,
     "referenced_type" : "_ZTIPN4aidl7android8hardware13soundtrigger324BpSoundTriggerHwCallbackE"
    },
    {
     "referenced_type" : "_ZTIi"
    },
    {
     "referenced_type" : "_ZTIRKN4aidl7android5media12soundtrigger16RecognitionEventE"
    }
   ],
   "return_type" : "_ZTIN3ndk13ScopedAStatusE",
   "source_file" : "out/soong/.intermediates/hardware/interfaces/soundtrigger/aidl/android.hardware.soundtrigger3-V1-ndk-source/gen/include/aidl/android/hardware/soundtrigger3/BpSoundTriggerHwCallback.h"
  },
  {
   "function_name" : "aidl::android::hardware::soundtrigger3::BpSoundTriggerHwCallback::phraseRecognitionCallback",
   "linker_set_key" : "_ZN4aidl7android8hardware13soundtrigger324BpSoundTriggerHwCallback25phraseRecognitionCallbackEiRKNS0_5media12soundtrigger22PhraseRecognitionEventE",
   "parameters" :
   [
    {
     "is_this_ptr" : true,
     "referenced_type" : "_ZTIPN4aidl7android8hardware13soundtrigger324BpSoundTriggerHwCallbackE"
    },
    {
     "referenced_type" : "_ZTIi"
    },
    {
     "referenced_type" : "_ZTIRKN4aidl7android5media12soundtrigger22PhraseRecognitionEventE"
    }
   ],
   "return_type" : "_ZTIN3ndk13ScopedAStatusE",
   "source_file" : "out/soong/.intermediates/hardware/interfaces/soundtrigger/aidl/android.hardware.soundtrigger3-V1-ndk-source/gen/include/aidl/android/hardware/soundtrigger3/BpSoundTriggerHwCallback.h"
  },
  {
   "function_name" : "aidl::android::hardware::soundtrigger3::BpSoundTriggerHwCallback::BpSoundTriggerHwCallback",
   "linker_set_key" : "_ZN4aidl7android8hardware13soundtrigger324BpSoundTriggerHwCallbackC1ERKN3ndk10SpAIBinderE",
   "parameters" :
   [
    {
     "is_this_ptr" : true,
     "referenced_type" : "_ZTIPN4aidl7android8hardware13soundtrigger324BpSoundTriggerHwCallbackE"
    },
    {
     "referenced_type" : "_ZTIRKN3ndk10SpAIBinderE"
    }
   ],
   "return_type" : "_ZTIv",
   "source_file" : "out/soong/.intermediates/hardware/interfaces/soundtrigger/aidl/android.hardware.soundtrigger3-V1-ndk-source/gen/include/aidl/android/hardware/soundtrigger3/BpSoundTriggerHwCallback.h"
  },
  {
   "function_name" : "aidl::android::hardware::soundtrigger3::BpSoundTriggerHwCallback::BpSoundTriggerHwCallback",
   "linker_set_key" : "_ZN4aidl7android8hardware13soundtrigger324BpSoundTriggerHwCallbackC2ERKN3ndk10SpAIBinderE",
   "parameters" :
   [
    {
     "is_this_ptr" : true,
     "referenced_type" : "_ZTIPN4aidl7android8hardware13soundtrigger324BpSoundTriggerHwCallbackE"
    },
    {
     "referenced_type" : "_ZTIRKN3ndk10SpAIBinderE"
    }
   ],
   "return_type" : "_ZTIv",
   "source_file" : "out/soong/.intermediates/hardware/interfaces/soundtrigger/aidl/android.hardware.soundtrigger3-V1-ndk-source/gen/include/aidl/android/hardware/soundtrigger3/BpSoundTriggerHwCallback.h"
  },
  {
   "function_name" : "aidl::android::hardware::soundtrigger3::BpSoundTriggerHwCallback::~BpSoundTriggerHwCallback",
   "linker_set_key" : "_ZN4aidl7android8hardware13soundtrigger324BpSoundTriggerHwCallbackD0Ev",
   "parameters" :
   [
    {
     "is_this_ptr" : true,
     "referenced_type" : "_ZTIPN4aidl7android8hardware13soundtrigger324BpSoundTriggerHwCallbackE"
    }
   ],
   "return_type" : "_ZTIv",
   "source_file" : "out/soong/.intermediates/hardware/interfaces/soundtrigger/aidl/android.hardware.soundtrigger3-V1-ndk-source/gen/include/aidl/android/hardware/soundtrigger3/BpSoundTriggerHwCallback.h"
  },
  {
   "function_name" : "aidl::android::hardware::soundtrigger3::BpSoundTriggerHwCallback::~BpSoundTriggerHwCallback",
   "linker_set_key" : "_ZN4aidl7android8hardware13soundtrigger324BpSoundTriggerHwCallbackD1Ev",
   "parameters" :
   [
    {
     "is_this_ptr" : true,
     "referenced_type" : "_ZTIPN4aidl7android8hardware13soundtrigger324BpSoundTriggerHwCallbackE"
    }
   ],
   "return_type" : "_ZTIv",
   "source_file" : "out/soong/.intermediates/hardware/interfaces/soundtrigger/aidl/android.hardware.soundtrigger3-V1-ndk-source/gen/include/aidl/android/hardware/soundtrigger3/BpSoundTriggerHwCallback.h"
  },
  {
   "function_name" : "aidl::android::hardware::soundtrigger3::BpSoundTriggerHwCallback::~BpSoundTriggerHwCallback",
   "linker_set_key" : "_ZN4aidl7android8hardware13soundtrigger324BpSoundTriggerHwCallbackD2Ev",
   "parameters" :
   [
    {
     "is_this_ptr" : true,
     "referenced_type" : "_ZTIPN4aidl7android8hardware13soundtrigger324BpSoundTriggerHwCallbackE"
    }
   ],
   "return_type" : "_ZTIv",
   "source_file" : "out/soong/.intermediates/hardware/interfaces/soundtrigger/aidl/android.hardware.soundtrigger3-V1-ndk-source/gen/include/aidl/android/hardware/soundtrigger3/BpSoundTriggerHwCallback.h"
  },
  {
   "function_name" : "aidl::android::hardware::soundtrigger3::ISoundTriggerHwGlobalCallback::fromBinder",
   "linker_set_key" : "_ZN4aidl7android8hardware13soundtrigger329ISoundTriggerHwGlobalCallback10fromBinderERKN3ndk10SpAIBinderE",
   "parameters" :
   [
    {
     "referenced_type" : "_ZTIRKN3ndk10SpAIBinderE"
    }
   ],
   "return_type" : "_ZTINSt3__110shared_ptrIN4aidl7android8hardware13soundtrigger329ISoundTriggerHwGlobalCallbackEEE",
   "source_file" : "out/soong/.intermediates/hardware/interfaces/soundtrigger/aidl/android.hardware.soundtrigger3-V1-ndk-source/gen/include/aidl/android/hardware/soundtrigger3/ISoundTriggerHwGlobalCallback.h"
  },
  {
   "function_name" : "aidl::android::hardware::soundtrigger3::ISoundTriggerHwGlobalCallback::writeToParcel",
   "linker_set_key" : "_ZN4aidl7android8hardware13soundtrigger329ISoundTriggerHwGlobalCallback13writeToParcelEP7AParcelRKNSt3__110shared_ptrIS3_EE",
   "parameters" :
   [
    {
     "referenced_type" : "_ZTIP7AParcel"
    },
    {
     "referenced_type" : "_ZTIRKNSt3__110shared_ptrIN4aidl7android8hardware13soundtrigger329ISoundTriggerHwGlobalCallbackEEE"
    }
   ],
   "return_type" : "_ZTIi",
   "source_file" : "out/soong/.intermediates/hardware/interfaces/soundtrigger/aidl/android.hardware.soundtrigger3-V1-ndk-source/gen/include/aidl/android/hardware/soundtrigger3/ISoundTriggerHwGlobalCallback.h"
  },
  {
   "function_name" : "aidl::android::hardware::soundtrigger3::ISoundTriggerHwGlobalCallback::getDefaultImpl",
   "linker_set_key" : "_ZN4aidl7android8hardware13soundtrigger329ISoundTriggerHwGlobalCallback14getDefaultImplEv",
   "return_type" : "_ZTIRKNSt3__110shared_ptrIN4aidl7android8hardware13soundtrigger329ISoundTriggerHwGlobalCallbackEEE",
   "source_file" : "out/soong/.intermediates/hardware/interfaces/soundtrigger/aidl/android.hardware.soundtrigger3-V1-ndk-source/gen/include/aidl/android/hardware/soundtrigger3/ISoundTriggerHwGlobalCallback.h"
  },
  {
   "function_name" : "aidl::android::hardware::soundtrigger3::ISoundTriggerHwGlobalCallback::readFromParcel",
   "linker_set_key" : "_ZN4aidl7android8hardware13soundtrigger329ISoundTriggerHwGlobalCallback14readFromParcelEPK7AParcelPNSt3__110shared_ptrIS3_EE",
   "parameters" :
   [
    {
     "referenced_type" : "_ZTIPK7AParcel"
    },
    {
     "referenced_type" : "_ZTIPNSt3__110shared_ptrIN4aidl7android8hardware13soundtrigger329ISoundTriggerHwGlobalCallbackEEE"
    }
   ],
   "return_type" : "_ZTIi",
   "source_file" : "out/soong/.intermediates/hardware/interfaces/soundtrigger/aidl/android.hardware.soundtrigger3-V1-ndk-source/gen/include/aidl/android/hardware/soundtrigger3/ISoundTriggerHwGlobalCallback.h"
  },
  {
   "function_name" : "aidl::android::hardware::soundtrigger3::ISoundTriggerHwGlobalCallback::setDefaultImpl",
   "linker_set_key" : "_ZN4aidl7android8hardware13soundtrigger329ISoundTriggerHwGlobalCallback14setDefaultImplERKNSt3__110shared_ptrIS3_EE",
   "parameters" :
   [
    {
     "referenced_type" : "_ZTIRKNSt3__110shared_ptrIN4aidl7android8hardware13soundtrigger329ISoundTriggerHwGlobalCallbackEEE"
    }
   ],
   "return_type" : "_ZTIb",
   "source_file" : "out/soong/.intermediates/hardware/interfaces/soundtrigger/aidl/android.hardware.soundtrigger3-V1-ndk-source/gen/include/aidl/android/hardware/soundtrigger3/ISoundTriggerHwGlobalCallback.h"
  },
  {
   "function_name" : "aidl::android::hardware::soundtrigger3::ISoundTriggerHwGlobalCallback::ISoundTriggerHwGlobalCallback",
   "linker_set_key" : "_ZN4aidl7android8hardware13soundtrigger329ISoundTriggerHwGlobalCallbackC2Ev",
   "parameters" :
   [
    {
     "is_this_ptr" : true,
     "referenced_type" : "_ZTIPN4aidl7android8hardware13soundtrigger329ISoundTriggerHwGlobalCallbackE"
    }
   ],
   "return_type" : "_ZTIv",
   "source_file" : "out/soong/.intermediates/hardware/interfaces/soundtrigger/aidl/android.hardware.soundtrigger3-V1-ndk-source/gen/include/aidl/android/hardware/soundtrigger3/ISoundTriggerHwGlobalCallback.h"
  },
  {
   "function_name" : "aidl::android::hardware::soundtrigger3::ISoundTriggerHwGlobalCallback::~ISoundTriggerHwGlobalCallback",
   "linker_set_key" : "_ZN4aidl7android8hardware13soundtrigger329ISoundTriggerHwGlobalCallbackD0Ev",
   "parameters" :
   [
    {
     "is_this_ptr" : true,
     "referenced_type" : "_ZTIPN4aidl7android8hardware13soundtrigger329ISoundTriggerHwGlobalCallbackE"
    }
   ],
   "return_type" : "_ZTIv",
   "source_file" : "out/soong/.intermediates/hardware/interfaces/soundtrigger/aidl/android.hardware.soundtrigger3-V1-ndk-source/gen/include/aidl/android/hardware/soundtrigger3/ISoundTriggerHwGlobalCallback.h"
  },
  {
   "function_name" : "aidl::android::hardware::soundtrigger3::ISoundTriggerHwGlobalCallback::~ISoundTriggerHwGlobalCallback",
   "linker_set_key" : "_ZN4aidl7android8hardware13soundtrigger329ISoundTriggerHwGlobalCallbackD1Ev",
   "parameters" :
   [
    {
     "is_this_ptr" : true,
     "referenced_type" : "_ZTIPN4aidl7android8hardware13soundtrigger329ISoundTriggerHwGlobalCallbackE"
    }
   ],
   "return_type" : "_ZTIv",
   "source_file" : "out/soong/.intermediates/hardware/interfaces/soundtrigger/aidl/android.hardware.soundtrigger3-V1-ndk-source/gen/include/aidl/android/hardware/soundtrigger3/ISoundTriggerHwGlobalCallback.h"
  },
  {
   "function_name" : "aidl::android::hardware::soundtrigger3::ISoundTriggerHwGlobalCallback::~ISoundTriggerHwGlobalCallback",
   "linker_set_key" : "_ZN4aidl7android8hardware13soundtrigger329ISoundTriggerHwGlobalCallbackD2Ev",
   "parameters" :
   [
    {
     "is_this_ptr" : true,
     "referenced_type" : "_ZTIPN4aidl7android8hardware13soundtrigger329ISoundTriggerHwGlobalCallbackE"
    }
   ],
   "return_type" : "_ZTIv",
   "source_file" : "out/soong/.intermediates/hardware/interfaces/soundtrigger/aidl/android.hardware.soundtrigger3-V1-ndk-source/gen/include/aidl/android/hardware/soundtrigger3/ISoundTriggerHwGlobalCallback.h"
  },
  {
   "access" : "protected",
   "function_name" : "aidl::android::hardware::soundtrigger3::BnSoundTriggerHwGlobalCallback::createBinder",
   "linker_set_key" : "_ZN4aidl7android8hardware13soundtrigger330BnSoundTriggerHwGlobalCallback12createBinderEv",
   "parameters" :
   [
    {
     "is_this_ptr" : true,
     "referenced_type" : "_ZTIPN4aidl7android8hardware13soundtrigger330BnSoundTriggerHwGlobalCallbackE"
    }
   ],
   "return_type" : "_ZTIN3ndk10SpAIBinderE",
   "source_file" : "out/soong/.intermediates/hardware/interfaces/soundtrigger/aidl/android.hardware.soundtrigger3-V1-ndk-source/gen/include/aidl/android/hardware/soundtrigger3/BnSoundTriggerHwGlobalCallback.h"
  },
  {
   "function_name" : "aidl::android::hardware::soundtrigger3::BnSoundTriggerHwGlobalCallback::getInterfaceHash",
   "linker_set_key" : "_ZN4aidl7android8hardware13soundtrigger330BnSoundTriggerHwGlobalCallback16getInterfaceHashEPNSt3__112basic_stringIcNS4_11char_traitsIcEENS4_9allocatorIcEEEE",
   "parameters" :
   [
    {
     "is_this_ptr" : true,
     "referenced_type" : "_ZTIPN4aidl7android8hardware13soundtrigger330BnSoundTriggerHwGlobalCallbackE"
    },
    {
     "referenced_type" : "_ZTIPNSt3__112basic_stringIcNS_11char_traitsIcEENS_9allocatorIcEEEE"
    }
   ],
   "return_type" : "_ZTIN3ndk13ScopedAStatusE",
   "source_file" : "out/soong/.intermediates/hardware/interfaces/soundtrigger/aidl/android.hardware.soundtrigger3-V1-ndk-source/gen/include/aidl/android/hardware/soundtrigger3/BnSoundTriggerHwGlobalCallback.h"
  },
  {
   "function_name" : "aidl::android::hardware::soundtrigger3::BnSoundTriggerHwGlobalCallback::getInterfaceVersion",
   "linker_set_key" : "_ZN4aidl7android8hardware13soundtrigger330BnSoundTriggerHwGlobalCallback19getInterfaceVersionEPi",
   "parameters" :
   [
    {
     "is_this_ptr" : true,
     "referenced_type" : "_ZTIPN4aidl7android8hardware13soundtrigger330BnSoundTriggerHwGlobalCallbackE"
    },
    {
     "referenced_type" : "_ZTIPi"
    }
   ],
   "return_type" : "_ZTIN3ndk13ScopedAStatusE",
   "source_file" : "out/soong/.intermediates/hardware/interfaces/soundtrigger/aidl/android.hardware.soundtrigger3-V1-ndk-source/gen/include/aidl/android/hardware/soundtrigger3/BnSoundTriggerHwGlobalCallback.h"
  },
  {
   "function_name" : "aidl::android::hardware::soundtrigger3::BnSoundTriggerHwGlobalCallback::BnSoundTriggerHwGlobalCallback",
   "linker_set_key" : "_ZN4aidl7android8hardware13soundtrigger330BnSoundTriggerHwGlobalCallbackC2Ev",
   "parameters" :
   [
    {
     "is_this_ptr" : true,
     "referenced_type" : "_ZTIPN4aidl7android8hardware13soundtrigger330BnSoundTriggerHwGlobalCallbackE"
    }
   ],
   "return_type" : "_ZTIv",
   "source_file" : "out/soong/.intermediates/hardware/interfaces/soundtrigger/aidl/android.hardware.soundtrigger3-V1-ndk-source/gen/include/aidl/android/hardware/soundtrigger3/BnSoundTriggerHwGlobalCallback.h"
  },
  {
   "function_name" : "aidl::android::hardware::soundtrigger3::BnSoundTriggerHwGlobalCallback::~BnSoundTriggerHwGlobalCallback",
   "linker_set_key" : "_ZN4aidl7android8hardware13soundtrigger330BnSoundTriggerHwGlobalCallbackD0Ev",
   "parameters" :
   [
    {
     "is_this_ptr" : true,
     "referenced_type" : "_ZTIPN4aidl7android8hardware13soundtrigger330BnSoundTriggerHwGlobalCallbackE"
    }
   ],
   "return_type" : "_ZTIv",
   "source_file" : "out/soong/.intermediates/hardware/interfaces/soundtrigger/aidl/android.hardware.soundtrigger3-V1-ndk-source/gen/include/aidl/android/hardware/soundtrigger3/BnSoundTriggerHwGlobalCallback.h"
  },
  {
   "function_name" : "aidl::android::hardware::soundtrigger3::BnSoundTriggerHwGlobalCallback::~BnSoundTriggerHwGlobalCallback",
   "linker_set_key" : "_ZN4aidl7android8hardware13soundtrigger330BnSoundTriggerHwGlobalCallbackD1Ev",
   "parameters" :
   [
    {
     "is_this_ptr" : true,
     "referenced_type" : "_ZTIPN4aidl7android8hardware13soundtrigger330BnSoundTriggerHwGlobalCallbackE"
    }
   ],
   "return_type" : "_ZTIv",
   "source_file" : "out/soong/.intermediates/hardware/interfaces/soundtrigger/aidl/android.hardware.soundtrigger3-V1-ndk-source/gen/include/aidl/android/hardware/soundtrigger3/BnSoundTriggerHwGlobalCallback.h"
  },
  {
   "function_name" : "aidl::android::hardware::soundtrigger3::BnSoundTriggerHwGlobalCallback::~BnSoundTriggerHwGlobalCallback",
   "linker_set_key" : "_ZN4aidl7android8hardware13soundtrigger330BnSoundTriggerHwGlobalCallbackD2Ev",
   "parameters" :
   [
    {
     "is_this_ptr" : true,
     "referenced_type" : "_ZTIPN4aidl7android8hardware13soundtrigger330BnSoundTriggerHwGlobalCallbackE"
    }
   ],
   "return_type" : "_ZTIv",
   "source_file" : "out/soong/.intermediates/hardware/interfaces/soundtrigger/aidl/android.hardware.soundtrigger3-V1-ndk-source/gen/include/aidl/android/hardware/soundtrigger3/BnSoundTriggerHwGlobalCallback.h"
  },
  {
   "function_name" : "aidl::android::hardware::soundtrigger3::BpSoundTriggerHwGlobalCallback::getInterfaceHash",
   "linker_set_key" : "_ZN4aidl7android8hardware13soundtrigger330BpSoundTriggerHwGlobalCallback16getInterfaceHashEPNSt3__112basic_stringIcNS4_11char_traitsIcEENS4_9allocatorIcEEEE",
   "parameters" :
   [
    {
     "is_this_ptr" : true,
     "referenced_type" : "_ZTIPN4aidl7android8hardware13soundtrigger330BpSoundTriggerHwGlobalCallbackE"
    },
    {
     "referenced_type" : "_ZTIPNSt3__112basic_stringIcNS_11char_traitsIcEENS_9allocatorIcEEEE"
    }
   ],
   "return_type" : "_ZTIN3ndk13ScopedAStatusE",
   "source_file" : "out/soong/.intermediates/hardware/interfaces/soundtrigger/aidl/android.hardware.soundtrigger3-V1-ndk-source/gen/include/aidl/android/hardware/soundtrigger3/BpSoundTriggerHwGlobalCallback.h"
  },
  {
   "function_name" : "aidl::android::hardware::soundtrigger3::BpSoundTriggerHwGlobalCallback::getInterfaceVersion",
   "linker_set_key" : "_ZN4aidl7android8hardware13soundtrigger330BpSoundTriggerHwGlobalCallback19getInterfaceVersionEPi",
   "parameters" :
   [
    {
     "is_this_ptr" : true,
     "referenced_type" : "_ZTIPN4aidl7android8hardware13soundtrigger330BpSoundTriggerHwGlobalCallbackE"
    },
    {
     "referenced_type" : "_ZTIPi"
    }
   ],
   "return_type" : "_ZTIN3ndk13ScopedAStatusE",
   "source_file" : "out/soong/.intermediates/hardware/interfaces/soundtrigger/aidl/android.hardware.soundtrigger3-V1-ndk-source/gen/include/aidl/android/hardware/soundtrigger3/BpSoundTriggerHwGlobalCallback.h"
  },
  {
   "function_name" : "aidl::android::hardware::soundtrigger3::BpSoundTriggerHwGlobalCallback::onResourcesAvailable",
   "linker_set_key" : "_ZN4aidl7android8hardware13soundtrigger330BpSoundTriggerHwGlobalCallback20onResourcesAvailableEv",
   "parameters" :
   [
    {
     "is_this_ptr" : true,
     "referenced_type" : "_ZTIPN4aidl7android8hardware13soundtrigger330BpSoundTriggerHwGlobalCallbackE"
    }
   ],
   "return_type" : "_ZTIN3ndk13ScopedAStatusE",
   "source_file" : "out/soong/.intermediates/hardware/interfaces/soundtrigger/aidl/android.hardware.soundtrigger3-V1-ndk-source/gen/include/aidl/android/hardware/soundtrigger3/BpSoundTriggerHwGlobalCallback.h"
  },
  {
   "function_name" : "aidl::android::hardware::soundtrigger3::BpSoundTriggerHwGlobalCallback::BpSoundTriggerHwGlobalCallback",
   "linker_set_key" : "_ZN4aidl7android8hardware13soundtrigger330BpSoundTriggerHwGlobalCallbackC1ERKN3ndk10SpAIBinderE",
   "parameters" :
   [
    {
     "is_this_ptr" : true,
     "referenced_type" : "_ZTIPN4aidl7android8hardware13soundtrigger330BpSoundTriggerHwGlobalCallbackE"
    },
    {
     "referenced_type" : "_ZTIRKN3ndk10SpAIBinderE"
    }
   ],
   "return_type" : "_ZTIv",
   "source_file" : "out/soong/.intermediates/hardware/interfaces/soundtrigger/aidl/android.hardware.soundtrigger3-V1-ndk-source/gen/include/aidl/android/hardware/soundtrigger3/BpSoundTriggerHwGlobalCallback.h"
  },
  {
   "function_name" : "aidl::android::hardware::soundtrigger3::BpSoundTriggerHwGlobalCallback::BpSoundTriggerHwGlobalCallback",
   "linker_set_key" : "_ZN4aidl7android8hardware13soundtrigger330BpSoundTriggerHwGlobalCallbackC2ERKN3ndk10SpAIBinderE",
   "parameters" :
   [
    {
     "is_this_ptr" : true,
     "referenced_type" : "_ZTIPN4aidl7android8hardware13soundtrigger330BpSoundTriggerHwGlobalCallbackE"
    },
    {
     "referenced_type" : "_ZTIRKN3ndk10SpAIBinderE"
    }
   ],
   "return_type" : "_ZTIv",
   "source_file" : "out/soong/.intermediates/hardware/interfaces/soundtrigger/aidl/android.hardware.soundtrigger3-V1-ndk-source/gen/include/aidl/android/hardware/soundtrigger3/BpSoundTriggerHwGlobalCallback.h"
  },
  {
   "function_name" : "aidl::android::hardware::soundtrigger3::BpSoundTriggerHwGlobalCallback::~BpSoundTriggerHwGlobalCallback",
   "linker_set_key" : "_ZN4aidl7android8hardware13soundtrigger330BpSoundTriggerHwGlobalCallbackD0Ev",
   "parameters" :
   [
    {
     "is_this_ptr" : true,
     "referenced_type" : "_ZTIPN4aidl7android8hardware13soundtrigger330BpSoundTriggerHwGlobalCallbackE"
    }
   ],
   "return_type" : "_ZTIv",
   "source_file" : "out/soong/.intermediates/hardware/interfaces/soundtrigger/aidl/android.hardware.soundtrigger3-V1-ndk-source/gen/include/aidl/android/hardware/soundtrigger3/BpSoundTriggerHwGlobalCallback.h"
  },
  {
   "function_name" : "aidl::android::hardware::soundtrigger3::BpSoundTriggerHwGlobalCallback::~BpSoundTriggerHwGlobalCallback",
   "linker_set_key" : "_ZN4aidl7android8hardware13soundtrigger330BpSoundTriggerHwGlobalCallbackD1Ev",
   "parameters" :
   [
    {
     "is_this_ptr" : true,
     "referenced_type" : "_ZTIPN4aidl7android8hardware13soundtrigger330BpSoundTriggerHwGlobalCallbackE"
    }
   ],
   "return_type" : "_ZTIv",
   "source_file" : "out/soong/.intermediates/hardware/interfaces/soundtrigger/aidl/android.hardware.soundtrigger3-V1-ndk-source/gen/include/aidl/android/hardware/soundtrigger3/BpSoundTriggerHwGlobalCallback.h"
  },
  {
   "function_name" : "aidl::android::hardware::soundtrigger3::BpSoundTriggerHwGlobalCallback::~BpSoundTriggerHwGlobalCallback",
   "linker_set_key" : "_ZN4aidl7android8hardware13soundtrigger330BpSoundTriggerHwGlobalCallbackD2Ev",
   "parameters" :
   [
    {
     "is_this_ptr" : true,
     "referenced_type" : "_ZTIPN4aidl7android8hardware13soundtrigger330BpSoundTriggerHwGlobalCallbackE"
    }
   ],
   "return_type" : "_ZTIv",
   "source_file" : "out/soong/.intermediates/hardware/interfaces/soundtrigger/aidl/android.hardware.soundtrigger3-V1-ndk-source/gen/include/aidl/android/hardware/soundtrigger3/BpSoundTriggerHwGlobalCallback.h"
  },
  {
   "function_name" : "aidl::android::hardware::soundtrigger3::ISoundTriggerHwCallbackDefault::modelUnloaded",
   "linker_set_key" : "_ZN4aidl7android8hardware13soundtrigger330ISoundTriggerHwCallbackDefault13modelUnloadedEi",
   "parameters" :
   [
    {
     "is_this_ptr" : true,
     "referenced_type" : "_ZTIPN4aidl7android8hardware13soundtrigger330ISoundTriggerHwCallbackDefaultE"
    },
    {
     "referenced_type" : "_ZTIi"
    }
   ],
   "return_type" : "_ZTIN3ndk13ScopedAStatusE",
   "source_file" : "out/soong/.intermediates/hardware/interfaces/soundtrigger/aidl/android.hardware.soundtrigger3-V1-ndk-source/gen/include/aidl/android/hardware/soundtrigger3/ISoundTriggerHwCallback.h"
  },
  {
   "function_name" : "aidl::android::hardware::soundtrigger3::ISoundTriggerHwCallbackDefault::getInterfaceHash",
   "linker_set_key" : "_ZN4aidl7android8hardware13soundtrigger330ISoundTriggerHwCallbackDefault16getInterfaceHashEPNSt3__112basic_stringIcNS4_11char_traitsIcEENS4_9allocatorIcEEEE",
   "parameters" :
   [
    {
     "is_this_ptr" : true,
     "referenced_type" : "_ZTIPN4aidl7android8hardware13soundtrigger330ISoundTriggerHwCallbackDefaultE"
    },
    {
     "referenced_type" : "_ZTIPNSt3__112basic_stringIcNS_11char_traitsIcEENS_9allocatorIcEEEE"
    }
   ],
   "return_type" : "_ZTIN3ndk13ScopedAStatusE",
   "source_file" : "out/soong/.intermediates/hardware/interfaces/soundtrigger/aidl/android.hardware.soundtrigger3-V1-ndk-source/gen/include/aidl/android/hardware/soundtrigger3/ISoundTriggerHwCallback.h"
  },
  {
   "function_name" : "aidl::android::hardware::soundtrigger3::ISoundTriggerHwCallbackDefault::getInterfaceVersion",
   "linker_set_key" : "_ZN4aidl7android8hardware13soundtrigger330ISoundTriggerHwCallbackDefault19getInterfaceVersionEPi",
   "parameters" :
   [
    {
     "is_this_ptr" : true,
     "referenced_type" : "_ZTIPN4aidl7android8hardware13soundtrigger330ISoundTriggerHwCallbackDefaultE"
    },
    {
     "referenced_type" : "_ZTIPi"
    }
   ],
   "return_type" : "_ZTIN3ndk13ScopedAStatusE",
   "source_file" : "out/soong/.intermediates/hardware/interfaces/soundtrigger/aidl/android.hardware.soundtrigger3-V1-ndk-source/gen/include/aidl/android/hardware/soundtrigger3/ISoundTriggerHwCallback.h"
  },
  {
   "function_name" : "aidl::android::hardware::soundtrigger3::ISoundTriggerHwCallbackDefault::recognitionCallback",
   "linker_set_key" : "_ZN4aidl7android8hardware13soundtrigger330ISoundTriggerHwCallbackDefault19recognitionCallbackEiRKNS0_5media12soundtrigger16RecognitionEventE",
   "parameters" :
   [
    {
     "is_this_ptr" : true,
     "referenced_type" : "_ZTIPN4aidl7android8hardware13soundtrigger330ISoundTriggerHwCallbackDefaultE"
    },
    {
     "referenced_type" : "_ZTIi"
    },
    {
     "referenced_type" : "_ZTIRKN4aidl7android5media12soundtrigger16RecognitionEventE"
    }
   ],
   "return_type" : "_ZTIN3ndk13ScopedAStatusE",
   "source_file" : "out/soong/.intermediates/hardware/interfaces/soundtrigger/aidl/android.hardware.soundtrigger3-V1-ndk-source/gen/include/aidl/android/hardware/soundtrigger3/ISoundTriggerHwCallback.h"
  },
  {
   "function_name" : "aidl::android::hardware::soundtrigger3::ISoundTriggerHwCallbackDefault::phraseRecognitionCallback",
   "linker_set_key" : "_ZN4aidl7android8hardware13soundtrigger330ISoundTriggerHwCallbackDefault25phraseRecognitionCallbackEiRKNS0_5media12soundtrigger22PhraseRecognitionEventE",
   "parameters" :
   [
    {
     "is_this_ptr" : true,
     "referenced_type" : "_ZTIPN4aidl7android8hardware13soundtrigger330ISoundTriggerHwCallbackDefaultE"
    },
    {
     "referenced_type" : "_ZTIi"
    },
    {
     "referenced_type" : "_ZTIRKN4aidl7android5media12soundtrigger22PhraseRecognitionEventE"
    }
   ],
   "return_type" : "_ZTIN3ndk13ScopedAStatusE",
   "source_file" : "out/soong/.intermediates/hardware/interfaces/soundtrigger/aidl/android.hardware.soundtrigger3-V1-ndk-source/gen/include/aidl/android/hardware/soundtrigger3/ISoundTriggerHwCallback.h"
  },
  {
   "function_name" : "aidl::android::hardware::soundtrigger3::ISoundTriggerHwCallbackDefault::asBinder",
   "linker_set_key" : "_ZN4aidl7android8hardware13soundtrigger330ISoundTriggerHwCallbackDefault8asBinderEv",
   "parameters" :
   [
    {
     "is_this_ptr" : true,
     "referenced_type" : "_ZTIPN4aidl7android8hardware13soundtrigger330ISoundTriggerHwCallbackDefaultE"
    }
   ],
   "return_type" : "_ZTIN3ndk10SpAIBinderE",
   "source_file" : "out/soong/.intermediates/hardware/interfaces/soundtrigger/aidl/android.hardware.soundtrigger3-V1-ndk-source/gen/include/aidl/android/hardware/soundtrigger3/ISoundTriggerHwCallback.h"
  },
  {
   "function_name" : "aidl::android::hardware::soundtrigger3::ISoundTriggerHwCallbackDefault::isRemote",
   "linker_set_key" : "_ZN4aidl7android8hardware13soundtrigger330ISoundTriggerHwCallbackDefault8isRemoteEv",
   "parameters" :
   [
    {
     "is_this_ptr" : true,
     "referenced_type" : "_ZTIPN4aidl7android8hardware13soundtrigger330ISoundTriggerHwCallbackDefaultE"
    }
   ],
   "return_type" : "_ZTIb",
   "source_file" : "out/soong/.intermediates/hardware/interfaces/soundtrigger/aidl/android.hardware.soundtrigger3-V1-ndk-source/gen/include/aidl/android/hardware/soundtrigger3/ISoundTriggerHwCallback.h"
  },
  {
   "function_name" : "aidl::android::hardware::soundtrigger3::ISoundTriggerHwGlobalCallbackDefault::getInterfaceHash",
   "linker_set_key" : "_ZN4aidl7android8hardware13soundtrigger336ISoundTriggerHwGlobalCallbackDefault16getInterfaceHashEPNSt3__112basic_stringIcNS4_11char_traitsIcEENS4_9allocatorIcEEEE",
   "parameters" :
   [
    {
     "is_this_ptr" : true,
     "referenced_type" : "_ZTIPN4aidl7android8hardware13soundtrigger336ISoundTriggerHwGlobalCallbackDefaultE"
    },
    {
     "referenced_type" : "_ZTIPNSt3__112basic_stringIcNS_11char_traitsIcEENS_9allocatorIcEEEE"
    }
   ],
   "return_type" : "_ZTIN3ndk13ScopedAStatusE",
   "source_file" : "out/soong/.intermediates/hardware/interfaces/soundtrigger/aidl/android.hardware.soundtrigger3-V1-ndk-source/gen/include/aidl/android/hardware/soundtrigger3/ISoundTriggerHwGlobalCallback.h"
  },
  {
   "function_name" : "aidl::android::hardware::soundtrigger3::ISoundTriggerHwGlobalCallbackDefault::getInterfaceVersion",
   "linker_set_key" : "_ZN4aidl7android8hardware13soundtrigger336ISoundTriggerHwGlobalCallbackDefault19getInterfaceVersionEPi",
   "parameters" :
   [
    {
     "is_this_ptr" : true,
     "referenced_type" : "_ZTIPN4aidl7android8hardware13soundtrigger336ISoundTriggerHwGlobalCallbackDefaultE"
    },
    {
     "referenced_type" : "_ZTIPi"
    }
   ],
   "return_type" : "_ZTIN3ndk13ScopedAStatusE",
   "source_file" : "out/soong/.intermediates/hardware/interfaces/soundtrigger/aidl/android.hardware.soundtrigger3-V1-ndk-source/gen/include/aidl/android/hardware/soundtrigger3/ISoundTriggerHwGlobalCallback.h"
  },
  {
   "function_name" : "aidl::android::hardware::soundtrigger3::ISoundTriggerHwGlobalCallbackDefault::onResourcesAvailable",
   "linker_set_key" : "_ZN4aidl7android8hardware13soundtrigger336ISoundTriggerHwGlobalCallbackDefault20onResourcesAvailableEv",
   "parameters" :
   [
    {
     "is_this_ptr" : true,
     "referenced_type" : "_ZTIPN4aidl7android8hardware13soundtrigger336ISoundTriggerHwGlobalCallbackDefaultE"
    }
   ],
   "return_type" : "_ZTIN3ndk13ScopedAStatusE",
   "source_file" : "out/soong/.intermediates/hardware/interfaces/soundtrigger/aidl/android.hardware.soundtrigger3-V1-ndk-source/gen/include/aidl/android/hardware/soundtrigger3/ISoundTriggerHwGlobalCallback.h"
  },
  {
   "function_name" : "aidl::android::hardware::soundtrigger3::ISoundTriggerHwGlobalCallbackDefault::asBinder",
   "linker_set_key" : "_ZN4aidl7android8hardware13soundtrigger336ISoundTriggerHwGlobalCallbackDefault8asBinderEv",
   "parameters" :
   [
    {
     "is_this_ptr" : true,
     "referenced_type" : "_ZTIPN4aidl7android8hardware13soundtrigger336ISoundTriggerHwGlobalCallbackDefaultE"
    }
   ],
   "return_type" : "_ZTIN3ndk10SpAIBinderE",
   "source_file" : "out/soong/.intermediates/hardware/interfaces/soundtrigger/aidl/android.hardware.soundtrigger3-V1-ndk-source/gen/include/aidl/android/hardware/soundtrigger3/ISoundTriggerHwGlobalCallback.h"
  },
  {
   "function_name" : "aidl::android::hardware::soundtrigger3::ISoundTriggerHwGlobalCallbackDefault::isRemote",
   "linker_set_key" : "_ZN4aidl7android8hardware13soundtrigger336ISoundTriggerHwGlobalCallbackDefault8isRemoteEv",
   "parameters" :
   [
    {
     "is_this_ptr" : true,
     "referenced_type" : "_ZTIPN4aidl7android8hardware13soundtrigger336ISoundTriggerHwGlobalCallbackDefaultE"
    }
   ],
   "return_type" : "_ZTIb",
   "source_file" : "out/soong/.intermediates/hardware/interfaces/soundtrigger/aidl/android.hardware.soundtrigger3-V1-ndk-source/gen/include/aidl/android/hardware/soundtrigger3/ISoundTriggerHwGlobalCallback.h"
  }
 ],
 "global_vars" :
 [
  {
   "linker_set_key" : "_ZN4aidl7android8hardware13soundtrigger315ISoundTriggerHw10descriptorE",
   "name" : "aidl::android::hardware::soundtrigger3::ISoundTriggerHw::descriptor",
   "referenced_type" : "_ZTIPKc",
   "source_file" : "out/soong/.intermediates/hardware/interfaces/soundtrigger/aidl/android.hardware.soundtrigger3-V1-ndk-source/gen/include/aidl/android/hardware/soundtrigger3/ISoundTriggerHw.h"
  },
  {
   "access" : "private",
   "linker_set_key" : "_ZN4aidl7android8hardware13soundtrigger315ISoundTriggerHw12default_implE",
   "name" : "aidl::android::hardware::soundtrigger3::ISoundTriggerHw::default_impl",
   "referenced_type" : "_ZTINSt3__110shared_ptrIN4aidl7android8hardware13soundtrigger315ISoundTriggerHwEEE",
   "source_file" : "out/soong/.intermediates/hardware/interfaces/soundtrigger/aidl/android.hardware.soundtrigger3-V1-ndk-source/gen/include/aidl/android/hardware/soundtrigger3/ISoundTriggerHw.h"
  },
  {
   "linker_set_key" : "_ZN4aidl7android8hardware13soundtrigger315ISoundTriggerHw4hashE",
   "name" : "aidl::android::hardware::soundtrigger3::ISoundTriggerHw::hash",
   "referenced_type" : "_ZTIKNSt3__112basic_stringIcNS_11char_traitsIcEENS_9allocatorIcEEEE",
   "source_file" : "out/soong/.intermediates/hardware/interfaces/soundtrigger/aidl/android.hardware.soundtrigger3-V1-ndk-source/gen/include/aidl/android/hardware/soundtrigger3/ISoundTriggerHw.h"
  },
  {
   "linker_set_key" : "_ZN4aidl7android8hardware13soundtrigger323ISoundTriggerHwCallback10descriptorE",
   "name" : "aidl::android::hardware::soundtrigger3::ISoundTriggerHwCallback::descriptor",
   "referenced_type" : "_ZTIPKc",
   "source_file" : "out/soong/.intermediates/hardware/interfaces/soundtrigger/aidl/android.hardware.soundtrigger3-V1-ndk-source/gen/include/aidl/android/hardware/soundtrigger3/ISoundTriggerHwCallback.h"
  },
  {
   "access" : "private",
   "linker_set_key" : "_ZN4aidl7android8hardware13soundtrigger323ISoundTriggerHwCallback12default_implE",
   "name" : "aidl::android::hardware::soundtrigger3::ISoundTriggerHwCallback::default_impl",
   "referenced_type" : "_ZTINSt3__110shared_ptrIN4aidl7android8hardware13soundtrigger323ISoundTriggerHwCallbackEEE",
   "source_file" : "out/soong/.intermediates/hardware/interfaces/soundtrigger/aidl/android.hardware.soundtrigger3-V1-ndk-source/gen/include/aidl/android/hardware/soundtrigger3/ISoundTriggerHwCallback.h"
  },
  {
   "linker_set_key" : "_ZN4aidl7android8hardware13soundtrigger323ISoundTriggerHwCallback4hashE",
   "name" : "aidl::android::hardware::soundtrigger3::ISoundTriggerHwCallback::hash",
   "referenced_type" : "_ZTIKNSt3__112basic_stringIcNS_11char_traitsIcEENS_9allocatorIcEEEE",
   "source_file" : "out/soong/.intermediates/hardware/interfaces/soundtrigger/aidl/android.hardware.soundtrigger3-V1-ndk-source/gen/include/aidl/android/hardware/soundtrigger3/ISoundTriggerHwCallback.h"
  },
  {
   "linker_set_key" : "_ZN4aidl7android8hardware13soundtrigger329ISoundTriggerHwGlobalCallback10descriptorE",
   "name" : "aidl::android::hardware::soundtrigger3::ISoundTriggerHwGlobalCallback::descriptor",
   "referenced_type" : "_ZTIPKc",
   "source_file" : "out/soong/.intermediates/hardware/interfaces/soundtrigger/aidl/android.hardware.soundtrigger3-V1-ndk-source/gen/include/aidl/android/hardware/soundtrigger3/ISoundTriggerHwGlobalCallback.h"
  },
  {
   "access" : "private",
   "linker_set_key" : "_ZN4aidl7android8hardware13soundtrigger329ISoundTriggerHwGlobalCallback12default_implE",
   "name" : "aidl::android::hardware::soundtrigger3::ISoundTriggerHwGlobalCallback::default_impl",
   "referenced_type" : "_ZTINSt3__110shared_ptrIN4aidl7android8hardware13soundtrigger329ISoundTriggerHwGlobalCallbackEEE",
   "source_file" : "out/soong/.intermediates/hardware/interfaces/soundtrigger/aidl/android.hardware.soundtrigger3-V1-ndk-source/gen/include/aidl/android/hardware/soundtrigger3/ISoundTriggerHwGlobalCallback.h"
  },
  {
   "linker_set_key" : "_ZN4aidl7android8hardware13soundtrigger329ISoundTriggerHwGlobalCallback4hashE",
   "name" : "aidl::android::hardware::soundtrigger3::ISoundTriggerHwGlobalCallback::hash",
   "referenced_type" : "_ZTIKNSt3__112basic_stringIcNS_11char_traitsIcEENS_9allocatorIcEEEE",
   "source_file" : "out/soong/.intermediates/hardware/interfaces/soundtrigger/aidl/android.hardware.soundtrigger3-V1-ndk-source/gen/include/aidl/android/hardware/soundtrigger3/ISoundTriggerHwGlobalCallback.h"
  }
 ],
 "lvalue_reference_types" :
 [
  {
   "alignment" : 8,
   "linker_set_key" : "_ZTIRKN3ndk10SpAIBinderE",
   "name" : "const ndk::SpAIBinder &",
   "referenced_type" : "_ZTIKN3ndk10SpAIBinderE",
   "self_type" : "_ZTIRKN3ndk10SpAIBinderE",
   "size" : 8,
   "source_file" : "frameworks/native/libs/binder/ndk/include_cpp/android/binder_auto_utils.h"
  },
  {
   "alignment" : 8,
   "linker_set_key" : "_ZTIRKN3ndk13ScopedAParcelE",
   "name" : "const ndk::ScopedAParcel &",
   "referenced_type" : "_ZTIKN3ndk13ScopedAParcelE",
   "self_type" : "_ZTIRKN3ndk13ScopedAParcelE",
   "size" : 8,
   "source_file" : "frameworks/native/libs/binder/ndk/include_cpp/android/binder_auto_utils.h"
  },
  {
   "alignment" : 8,
   "linker_set_key" : "_ZTIRKN3ndk17AParcelableHolderE",
   "name" : "const ndk::AParcelableHolder &",
   "referenced_type" : "_ZTIKN3ndk17AParcelableHolderE",
   "self_type" : "_ZTIRKN3ndk17AParcelableHolderE",
   "size" : 8,
   "source_file" : "frameworks/native/libs/binder/ndk/include_cpp/android/binder_parcelable_utils.h"
  },
  {
   "alignment" : 8,
   "linker_set_key" : "_ZTIRKN3ndk20ScopedFileDescriptorE",
   "name" : "const ndk::ScopedFileDescriptor &",
   "referenced_type" : "_ZTIKN3ndk20ScopedFileDescriptorE",
   "self_type" : "_ZTIRKN3ndk20ScopedFileDescriptorE",
   "size" : 8,
   "source_file" : "frameworks/native/libs/binder/ndk/include_cpp/android/binder_auto_utils.h"
  },
  {
   "alignment" : 8,
   "linker_set_key" : "_ZTIRKN4aidl7android5media12soundtrigger10PropertiesE",
   "name" : "const aidl::android::media::soundtrigger::Properties &",
   "referenced_type" : "_ZTIKN4aidl7android5media12soundtrigger10PropertiesE",
   "self_type" : "_ZTIRKN4aidl7android5media12soundtrigger10PropertiesE",
   "size" : 8,
   "source_file" : "out/soong/.intermediates/frameworks/base/media/android.media.soundtrigger.types-V1-ndk-source/gen/include/aidl/android/media/soundtrigger/Properties.h"
  },
  {
   "alignment" : 8,
   "linker_set_key" : "_ZTIRKN4aidl7android5media12soundtrigger10SoundModelE",
   "name" : "const aidl::android::media::soundtrigger::SoundModel &",
   "referenced_type" : "_ZTIKN4aidl7android5media12soundtrigger10SoundModelE",
   "self_type" : "_ZTIRKN4aidl7android5media12soundtrigger10SoundModelE",
   "size" : 8,
   "source_file" : "frameworks/native/libs/binder/ndk/include_cpp/android/binder_to_string.h"
  },
  {
   "alignment" : 8,
   "linker_set_key" : "_ZTIRKN4aidl7android5media12soundtrigger14SoundModelTypeE",
   "name" : "const aidl::android::media::soundtrigger::SoundModelType &",
   "referenced_type" : "_ZTIKN4aidl7android5media12soundtrigger14SoundModelTypeE",
   "self_type" : "_ZTIRKN4aidl7android5media12soundtrigger14SoundModelTypeE",
   "size" : 8,
   "source_file" : "frameworks/native/libs/binder/ndk/include_cpp/android/binder_to_string.h"
  },
  {
   "alignment" : 8,
   "linker_set_key" : "_ZTIRKN4aidl7android5media12soundtrigger15ConfidenceLevelE",
   "name" : "const aidl::android::media::soundtrigger::ConfidenceLevel &",
   "referenced_type" : "_ZTIKN4aidl7android5media12soundtrigger15ConfidenceLevelE",
   "self_type" : "_ZTIRKN4aidl7android5media12soundtrigger15ConfidenceLevelE",
   "size" : 8,
   "source_file" : "frameworks/native/libs/binder/ndk/include_cpp/android/binder_to_string.h"
  },
  {
   "alignment" : 8,
   "linker_set_key" : "_ZTIRKN4aidl7android5media12soundtrigger16PhraseSoundModelE",
   "name" : "const aidl::android::media::soundtrigger::PhraseSoundModel &",
   "referenced_type" : "_ZTIKN4aidl7android5media12soundtrigger16PhraseSoundModelE",
   "self_type" : "_ZTIRKN4aidl7android5media12soundtrigger16PhraseSoundModelE",
   "size" : 8,
   "source_file" : "out/soong/.intermediates/frameworks/base/media/android.media.soundtrigger.types-V1-ndk-source/gen/include/aidl/android/media/soundtrigger/PhraseSoundModel.h"
  },
  {
   "alignment" : 8,
   "linker_set_key" : "_ZTIRKN4aidl7android5media12soundtrigger16RecognitionEventE",
   "name" : "const aidl::android::media::soundtrigger::RecognitionEvent &",
   "referenced_type" : "_ZTIKN4aidl7android5media12soundtrigger16RecognitionEventE",
   "self_type" : "_ZTIRKN4aidl7android5media12soundtrigger16RecognitionEventE",
   "size" : 8,
   "source_file" : "frameworks/native/libs/binder/ndk/include_cpp/android/binder_to_string.h"
  },
  {
   "alignment" : 8,
   "linker_set_key" : "_ZTIRKN4aidl7android5media12soundtrigger17RecognitionConfigE",
   "name" : "const aidl::android::media::soundtrigger::RecognitionConfig &",
   "referenced_type" : "_ZTIKN4aidl7android5media12soundtrigger17RecognitionConfigE",
   "self_type" : "_ZTIRKN4aidl7android5media12soundtrigger17RecognitionConfigE",
   "size" : 8,
   "source_file" : "out/soong/.intermediates/frameworks/base/media/android.media.soundtrigger.types-V1-ndk-source/gen/include/aidl/android/media/soundtrigger/RecognitionConfig.h"
  },
  {
   "alignment" : 8,
   "linker_set_key" : "_ZTIRKN4aidl7android5media12soundtrigger17RecognitionStatusE",
   "name" : "const aidl::android::media::soundtrigger::RecognitionStatus &",
   "referenced_type" : "_ZTIKN4aidl7android5media12soundtrigger17RecognitionStatusE",
   "self_type" : "_ZTIRKN4aidl7android5media12soundtrigger17RecognitionStatusE",
   "size" : 8,
   "source_file" : "frameworks/native/libs/binder/ndk/include_cpp/android/binder_to_string.h"
  },
  {
   "alignment" : 8,
   "linker_set_key" : "_ZTIRKN4aidl7android5media12soundtrigger19ModelParameterRangeE",
   "name" : "const aidl::android::media::soundtrigger::ModelParameterRange &",
   "referenced_type" : "_ZTIKN4aidl7android5media12soundtrigger19ModelParameterRangeE",
   "self_type" : "_ZTIRKN4aidl7android5media12soundtrigger19ModelParameterRangeE",
   "size" : 8,
   "source_file" : "out/soong/.intermediates/frameworks/base/media/android.media.soundtrigger.types-V1-ndk-source/gen/include/aidl/android/media/soundtrigger/ModelParameterRange.h"
  },
  {
   "alignment" : 8,
   "linker_set_key" : "_ZTIRKN4aidl7android5media12soundtrigger22PhraseRecognitionEventE",
   "name" : "const aidl::android::media::soundtrigger::PhraseRecognitionEvent &",
   "referenced_type" : "_ZTIKN4aidl7android5media12soundtrigger22PhraseRecognitionEventE",
   "self_type" : "_ZTIRKN4aidl7android5media12soundtrigger22PhraseRecognitionEventE",
   "size" : 8,
   "source_file" : "out/soong/.intermediates/frameworks/base/media/android.media.soundtrigger.types-V1-ndk-source/gen/include/aidl/android/media/soundtrigger/PhraseRecognitionEvent.h"
  },
  {
   "alignment" : 8,
   "linker_set_key" : "_ZTIRKN4aidl7android5media12soundtrigger22PhraseRecognitionExtraE",
   "name" : "const aidl::android::media::soundtrigger::PhraseRecognitionExtra &",
   "referenced_type" : "_ZTIKN4aidl7android5media12soundtrigger22PhraseRecognitionExtraE",
   "self_type" : "_ZTIRKN4aidl7android5media12soundtrigger22PhraseRecognitionExtraE",
   "size" : 8,
   "source_file" : "frameworks/native/libs/binder/ndk/include_cpp/android/binder_to_string.h"
  },
  {
   "alignment" : 8,
   "linker_set_key" : "_ZTIRKN4aidl7android5media12soundtrigger6PhraseE",
   "name" : "const aidl::android::media::soundtrigger::Phrase &",
   "referenced_type" : "_ZTIKN4aidl7android5media12soundtrigger6PhraseE",
   "self_type" : "_ZTIRKN4aidl7android5media12soundtrigger6PhraseE",
   "size" : 8,
   "source_file" : "frameworks/native/libs/binder/ndk/include_cpp/android/binder_to_string.h"
  },
  {
   "alignment" : 8,
   "linker_set_key" : "_ZTIRKN4aidl7android5media5audio6common10AudioUsageE",
   "name" : "const aidl::android::media::audio::common::AudioUsage &",
   "referenced_type" : "_ZTIKN4aidl7android5media5audio6common10AudioUsageE",
   "self_type" : "_ZTIRKN4aidl7android5media5audio6common10AudioUsageE",
   "size" : 8,
   "source_file" : "frameworks/native/libs/binder/ndk/include_cpp/android/binder_to_string.h"
  },
  {
   "alignment" : 8,
   "linker_set_key" : "_ZTIRKN4aidl7android5media5audio6common11AudioConfigE",
   "name" : "const aidl::android::media::audio::common::AudioConfig &",
   "referenced_type" : "_ZTIKN4aidl7android5media5audio6common11AudioConfigE",
   "self_type" : "_ZTIRKN4aidl7android5media5audio6common11AudioConfigE",
   "size" : 8,
   "source_file" : "frameworks/native/libs/binder/ndk/include_cpp/android/binder_to_string.h"
  },
  {
   "alignment" : 8,
   "linker_set_key" : "_ZTIRKN4aidl7android5media5audio6common15AudioConfigBaseE",
   "name" : "const aidl::android::media::audio::common::AudioConfigBase &",
   "referenced_type" : "_ZTIKN4aidl7android5media5audio6common15AudioConfigBaseE",
   "self_type" : "_ZTIRKN4aidl7android5media5audio6common15AudioConfigBaseE",
   "size" : 8,
   "source_file" : "frameworks/native/libs/binder/ndk/include_cpp/android/binder_to_string.h"
  },
  {
   "alignment" : 8,
   "linker_set_key" : "_ZTIRKN4aidl7android5media5audio6common15AudioFormatTypeE",
   "name" : "const aidl::android::media::audio::common::AudioFormatType &",
   "referenced_type" : "_ZTIKN4aidl7android5media5audio6common15AudioFormatTypeE",
   "self_type" : "_ZTIRKN4aidl7android5media5audio6common15AudioFormatTypeE",
   "size" : 8,
   "source_file" : "frameworks/native/libs/binder/ndk/include_cpp/android/binder_to_string.h"
  },
  {
   "alignment" : 8,
   "linker_set_key" : "_ZTIRKN4aidl7android5media5audio6common15AudioStreamTypeE",
   "name" : "const aidl::android::media::audio::common::AudioStreamType &",
   "referenced_type" : "_ZTIKN4aidl7android5media5audio6common15AudioStreamTypeE",
   "self_type" : "_ZTIRKN4aidl7android5media5audio6common15AudioStreamTypeE",
   "size" : 8,
   "source_file" : "frameworks/native/libs/binder/ndk/include_cpp/android/binder_to_string.h"
  },
  {
   "alignment" : 8,
   "linker_set_key" : "_ZTIRKN4aidl7android5media5audio6common16AudioOffloadInfoE",
   "name" : "const aidl::android::media::audio::common::AudioOffloadInfo &",
   "referenced_type" : "_ZTIKN4aidl7android5media5audio6common16AudioOffloadInfoE",
   "self_type" : "_ZTIRKN4aidl7android5media5audio6common16AudioOffloadInfoE",
   "size" : 8,
   "source_file" : "frameworks/native/libs/binder/ndk/include_cpp/android/binder_to_string.h"
  },
  {
   "alignment" : 8,
   "linker_set_key" : "_ZTIRKN4aidl7android5media5audio6common18AudioChannelLayoutE",
   "name" : "const aidl::android::media::audio::common::AudioChannelLayout &",
   "referenced_type" : "_ZTIKN4aidl7android5media5audio6common18AudioChannelLayoutE",
   "self_type" : "_ZTIRKN4aidl7android5media5audio6common18AudioChannelLayoutE",
   "size" : 8,
   "source_file" : "frameworks/native/libs/binder/ndk/include_cpp/android/binder_to_string.h"
  },
  {
   "alignment" : 8,
   "linker_set_key" : "_ZTIRKN4aidl7android5media5audio6common22AudioEncapsulationModeE",
   "name" : "const aidl::android::media::audio::common::AudioEncapsulationMode &",
   "referenced_type" : "_ZTIKN4aidl7android5media5audio6common22AudioEncapsulationModeE",
   "self_type" : "_ZTIRKN4aidl7android5media5audio6common22AudioEncapsulationModeE",
   "size" : 8,
   "source_file" : "frameworks/native/libs/binder/ndk/include_cpp/android/binder_to_string.h"
  },
  {
   "alignment" : 8,
   "linker_set_key" : "_ZTIRKN4aidl7android5media5audio6common22AudioFormatDescriptionE",
   "name" : "const aidl::android::media::audio::common::AudioFormatDescription &",
   "referenced_type" : "_ZTIKN4aidl7android5media5audio6common22AudioFormatDescriptionE",
   "self_type" : "_ZTIRKN4aidl7android5media5audio6common22AudioFormatDescriptionE",
   "size" : 8,
   "source_file" : "frameworks/native/libs/binder/ndk/include_cpp/android/binder_to_string.h"
  },
  {
   "alignment" : 8,
   "linker_set_key" : "_ZTIRKN4aidl7android5media5audio6common7PcmTypeE",
   "name" : "const aidl::android::media::audio::common::PcmType &",
   "referenced_type" : "_ZTIKN4aidl7android5media5audio6common7PcmTypeE",
   "self_type" : "_ZTIRKN4aidl7android5media5audio6common7PcmTypeE",
   "size" : 8,
   "source_file" : "frameworks/native/libs/binder/ndk/include_cpp/android/binder_to_string.h"
  },
  {
   "alignment" : 8,
   "linker_set_key" : "_ZTIRKNSt3__110shared_ptrIN4aidl7android8hardware13soundtrigger315ISoundTriggerHwEEE",
   "name" : "const std::shared_ptr<aidl::android::hardware::soundtrigger3::ISoundTriggerHw> &",
   "referenced_type" : "_ZTIKNSt3__110shared_ptrIN4aidl7android8hardware13soundtrigger315ISoundTriggerHwEEE",
   "self_type" : "_ZTIRKNSt3__110shared_ptrIN4aidl7android8hardware13soundtrigger315ISoundTriggerHwEEE",
   "size" : 8,
   "source_file" : "out/soong/.intermediates/hardware/interfaces/soundtrigger/aidl/android.hardware.soundtrigger3-V1-ndk-source/gen/include/aidl/android/hardware/soundtrigger3/ISoundTriggerHw.h"
  },
  {
   "alignment" : 8,
   "linker_set_key" : "_ZTIRKNSt3__110shared_ptrIN4aidl7android8hardware13soundtrigger323ISoundTriggerHwCallbackEEE",
   "name" : "const std::shared_ptr<aidl::android::hardware::soundtrigger3::ISoundTriggerHwCallback> &",
   "referenced_type" : "_ZTIKNSt3__110shared_ptrIN4aidl7android8hardware13soundtrigger323ISoundTriggerHwCallbackEEE",
   "self_type" : "_ZTIRKNSt3__110shared_ptrIN4aidl7android8hardware13soundtrigger323ISoundTriggerHwCallbackEEE",
   "size" : 8,
   "source_file" : "out/soong/.intermediates/hardware/interfaces/soundtrigger/aidl/android.hardware.soundtrigger3-V1-ndk-source/gen/include/aidl/android/hardware/soundtrigger3/ISoundTriggerHw.h"
  },
  {
   "alignment" : 8,
   "linker_set_key" : "_ZTIRKNSt3__110shared_ptrIN4aidl7android8hardware13soundtrigger329ISoundTriggerHwGlobalCallbackEEE",
   "name" : "const std::shared_ptr<aidl::android::hardware::soundtrigger3::ISoundTriggerHwGlobalCallback> &",
   "referenced_type" : "_ZTIKNSt3__110shared_ptrIN4aidl7android8hardware13soundtrigger329ISoundTriggerHwGlobalCallbackEEE",
   "self_type" : "_ZTIRKNSt3__110shared_ptrIN4aidl7android8hardware13soundtrigger329ISoundTriggerHwGlobalCallbackEEE",
   "size" : 8,
   "source_file" : "out/soong/.intermediates/hardware/interfaces/soundtrigger/aidl/android.hardware.soundtrigger3-V1-ndk-source/gen/include/aidl/android/hardware/soundtrigger3/ISoundTriggerHw.h"
  },
  {
   "alignment" : 8,
   "linker_set_key" : "_ZTIRKNSt3__112basic_stringIcNS_11char_traitsIcEENS_9allocatorIcEEEE",
   "name" : "const std::basic_string<char, std::char_traits<char>, std::allocator<char>> &",
   "referenced_type" : "_ZTIKNSt3__112basic_stringIcNS_11char_traitsIcEENS_9allocatorIcEEEE",
   "self_type" : "_ZTIRKNSt3__112basic_stringIcNS_11char_traitsIcEENS_9allocatorIcEEEE",
   "size" : 8,
   "source_file" : "frameworks/native/libs/binder/ndk/include_cpp/android/binder_to_string.h"
  },
  {
   "alignment" : 8,
   "linker_set_key" : "_ZTIRKNSt3__16vectorIDsNS_9allocatorIDsEEEE",
   "name" : "const std::vector<char16_t, std::allocator<char16_t>> &",
   "referenced_type" : "_ZTIKNSt3__16vectorIDsNS_9allocatorIDsEEEE",
   "self_type" : "_ZTIRKNSt3__16vectorIDsNS_9allocatorIDsEEEE",
   "size" : 8,
   "source_file" : "frameworks/native/libs/binder/ndk/include_cpp/android/binder_parcel_utils.h"
  },
  {
   "alignment" : 8,
   "linker_set_key" : "_ZTIRKNSt3__16vectorIN4aidl7android5media12soundtrigger15ConfidenceLevelENS_9allocatorIS5_EEEE",
   "name" : "const std::vector<aidl::android::media::soundtrigger::ConfidenceLevel, std::allocator<aidl::android::media::soundtrigger::ConfidenceLevel>> &",
   "referenced_type" : "_ZTIKNSt3__16vectorIN4aidl7android5media12soundtrigger15ConfidenceLevelENS_9allocatorIS5_EEEE",
   "self_type" : "_ZTIRKNSt3__16vectorIN4aidl7android5media12soundtrigger15ConfidenceLevelENS_9allocatorIS5_EEEE",
   "size" : 8,
   "source_file" : "frameworks/native/libs/binder/ndk/include_cpp/android/binder_to_string.h"
  },
  {
   "alignment" : 8,
   "linker_set_key" : "_ZTIRKNSt3__16vectorIN4aidl7android5media12soundtrigger22PhraseRecognitionExtraENS_9allocatorIS5_EEEE",
   "name" : "const std::vector<aidl::android::media::soundtrigger::PhraseRecognitionExtra, std::allocator<aidl::android::media::soundtrigger::PhraseRecognitionExtra>> &",
   "referenced_type" : "_ZTIKNSt3__16vectorIN4aidl7android5media12soundtrigger22PhraseRecognitionExtraENS_9allocatorIS5_EEEE",
   "self_type" : "_ZTIRKNSt3__16vectorIN4aidl7android5media12soundtrigger22PhraseRecognitionExtraENS_9allocatorIS5_EEEE",
   "size" : 8,
   "source_file" : "frameworks/native/libs/binder/ndk/include_cpp/android/binder_to_string.h"
  },
  {
   "alignment" : 8,
   "linker_set_key" : "_ZTIRKNSt3__16vectorIN4aidl7android5media12soundtrigger6PhraseENS_9allocatorIS5_EEEE",
   "name" : "const std::vector<aidl::android::media::soundtrigger::Phrase, std::allocator<aidl::android::media::soundtrigger::Phrase>> &",
   "referenced_type" : "_ZTIKNSt3__16vectorIN4aidl7android5media12soundtrigger6PhraseENS_9allocatorIS5_EEEE",
   "self_type" : "_ZTIRKNSt3__16vectorIN4aidl7android5media12soundtrigger6PhraseENS_9allocatorIS5_EEEE",
   "size" : 8,
   "source_file" : "frameworks/native/libs/binder/ndk/include_cpp/android/binder_to_string.h"
  },
  {
   "alignment" : 8,
   "linker_set_key" : "_ZTIRKNSt3__16vectorIbNS_9allocatorIbEEEE",
   "name" : "const std::vector<bool, std::allocator<bool>> &",
   "referenced_type" : "_ZTIKNSt3__16vectorIbNS_9allocatorIbEEEE",
   "self_type" : "_ZTIRKNSt3__16vectorIbNS_9allocatorIbEEEE",
   "size" : 8,
   "source_file" : "frameworks/native/libs/binder/ndk/include_cpp/android/binder_parcel_utils.h"
  },
  {
   "alignment" : 8,
   "linker_set_key" : "_ZTIRKNSt3__16vectorIdNS_9allocatorIdEEEE",
   "name" : "const std::vector<double, std::allocator<double>> &",
   "referenced_type" : "_ZTIKNSt3__16vectorIdNS_9allocatorIdEEEE",
   "self_type" : "_ZTIRKNSt3__16vectorIdNS_9allocatorIdEEEE",
   "size" : 8,
   "source_file" : "frameworks/native/libs/binder/ndk/include_cpp/android/binder_parcel_utils.h"
  },
  {
   "alignment" : 8,
   "linker_set_key" : "_ZTIRKNSt3__16vectorIfNS_9allocatorIfEEEE",
   "name" : "const std::vector<float, std::allocator<float>> &",
   "referenced_type" : "_ZTIKNSt3__16vectorIfNS_9allocatorIfEEEE",
   "self_type" : "_ZTIRKNSt3__16vectorIfNS_9allocatorIfEEEE",
   "size" : 8,
   "source_file" : "frameworks/native/libs/binder/ndk/include_cpp/android/binder_parcel_utils.h"
  },
  {
   "alignment" : 8,
   "linker_set_key" : "_ZTIRKNSt3__16vectorIhNS_9allocatorIhEEEE",
   "name" : "const std::vector<unsigned char, std::allocator<unsigned char>> &",
   "referenced_type" : "_ZTIKNSt3__16vectorIhNS_9allocatorIhEEEE",
   "self_type" : "_ZTIRKNSt3__16vectorIhNS_9allocatorIhEEEE",
   "size" : 8,
   "source_file" : "frameworks/native/libs/binder/ndk/include_cpp/android/binder_parcel_utils.h"
  },
  {
   "alignment" : 8,
   "linker_set_key" : "_ZTIRKNSt3__16vectorIiNS_9allocatorIiEEEE",
   "name" : "const std::vector<int, std::allocator<int>> &",
   "referenced_type" : "_ZTIKNSt3__16vectorIiNS_9allocatorIiEEEE",
   "self_type" : "_ZTIRKNSt3__16vectorIiNS_9allocatorIiEEEE",
   "size" : 8,
   "source_file" : "frameworks/native/libs/binder/ndk/include_cpp/android/binder_parcel_utils.h"
  },
  {
   "alignment" : 8,
   "linker_set_key" : "_ZTIRKNSt3__16vectorIjNS_9allocatorIjEEEE",
   "name" : "const std::vector<unsigned int, std::allocator<unsigned int>> &",
   "referenced_type" : "_ZTIKNSt3__16vectorIjNS_9allocatorIjEEEE",
   "self_type" : "_ZTIRKNSt3__16vectorIjNS_9allocatorIjEEEE",
   "size" : 8,
   "source_file" : "frameworks/native/libs/binder/ndk/include_cpp/android/binder_parcel_utils.h"
  },
  {
   "alignment" : 8,
   "linker_set_key" : "_ZTIRKNSt3__16vectorIlNS_9allocatorIlEEEE",
   "name" : "const std::vector<long, std::allocator<long>> &",
   "referenced_type" : "_ZTIKNSt3__16vectorIlNS_9allocatorIlEEEE",
   "self_type" : "_ZTIRKNSt3__16vectorIlNS_9allocatorIlEEEE",
   "size" : 8,
   "source_file" : "frameworks/native/libs/binder/ndk/include_cpp/android/binder_parcel_utils.h"
  },
  {
   "alignment" : 8,
   "linker_set_key" : "_ZTIRKNSt3__16vectorImNS_9allocatorImEEEE",
   "name" : "const std::vector<unsigned long, std::allocator<unsigned long>> &",
   "referenced_type" : "_ZTIKNSt3__16vectorImNS_9allocatorImEEEE",
   "self_type" : "_ZTIRKNSt3__16vectorImNS_9allocatorImEEEE",
   "size" : 8,
   "source_file" : "frameworks/native/libs/binder/ndk/include_cpp/android/binder_parcel_utils.h"
  },
  {
   "alignment" : 8,
   "linker_set_key" : "_ZTIRKNSt3__18optionalIN4aidl7android5media5audio6common11AudioConfigEEE",
   "name" : "const std::optional<aidl::android::media::audio::common::AudioConfig> &",
   "referenced_type" : "_ZTIKNSt3__18optionalIN4aidl7android5media5audio6common11AudioConfigEEE",
   "self_type" : "_ZTIRKNSt3__18optionalIN4aidl7android5media5audio6common11AudioConfigEEE",
   "size" : 8,
   "source_file" : "frameworks/native/libs/binder/ndk/include_cpp/android/binder_to_string.h"
  },
  {
   "alignment" : 8,
   "linker_set_key" : "_ZTIRKNSt3__18optionalINS_6vectorIDsNS_9allocatorIDsEEEEEE",
   "name" : "const std::optional<std::vector<char16_t, std::allocator<char16_t>>> &",
   "referenced_type" : "_ZTIKNSt3__18optionalINS_6vectorIDsNS_9allocatorIDsEEEEEE",
   "self_type" : "_ZTIRKNSt3__18optionalINS_6vectorIDsNS_9allocatorIDsEEEEEE",
   "size" : 8,
   "source_file" : "frameworks/native/libs/binder/ndk/include_cpp/android/binder_parcel_utils.h"
  },
  {
   "alignment" : 8,
   "linker_set_key" : "_ZTIRKNSt3__18optionalINS_6vectorIbNS_9allocatorIbEEEEEE",
   "name" : "const std::optional<std::vector<bool, std::allocator<bool>>> &",
   "referenced_type" : "_ZTIKNSt3__18optionalINS_6vectorIbNS_9allocatorIbEEEEEE",
   "self_type" : "_ZTIRKNSt3__18optionalINS_6vectorIbNS_9allocatorIbEEEEEE",
   "size" : 8,
   "source_file" : "frameworks/native/libs/binder/ndk/include_cpp/android/binder_parcel_utils.h"
  },
  {
   "alignment" : 8,
   "linker_set_key" : "_ZTIRKNSt3__18optionalINS_6vectorIdNS_9allocatorIdEEEEEE",
   "name" : "const std::optional<std::vector<double, std::allocator<double>>> &",
   "referenced_type" : "_ZTIKNSt3__18optionalINS_6vectorIdNS_9allocatorIdEEEEEE",
   "self_type" : "_ZTIRKNSt3__18optionalINS_6vectorIdNS_9allocatorIdEEEEEE",
   "size" : 8,
   "source_file" : "frameworks/native/libs/binder/ndk/include_cpp/android/binder_parcel_utils.h"
  },
  {
   "alignment" : 8,
   "linker_set_key" : "_ZTIRKNSt3__18optionalINS_6vectorIfNS_9allocatorIfEEEEEE",
   "name" : "const std::optional<std::vector<float, std::allocator<float>>> &",
   "referenced_type" : "_ZTIKNSt3__18optionalINS_6vectorIfNS_9allocatorIfEEEEEE",
   "self_type" : "_ZTIRKNSt3__18optionalINS_6vectorIfNS_9allocatorIfEEEEEE",
   "size" : 8,
   "source_file" : "frameworks/native/libs/binder/ndk/include_cpp/android/binder_parcel_utils.h"
  },
  {
   "alignment" : 8,
   "linker_set_key" : "_ZTIRKNSt3__18optionalINS_6vectorIhNS_9allocatorIhEEEEEE",
   "name" : "const std::optional<std::vector<unsigned char, std::allocator<unsigned char>>> &",
   "referenced_type" : "_ZTIKNSt3__18optionalINS_6vectorIhNS_9allocatorIhEEEEEE",
   "self_type" : "_ZTIRKNSt3__18optionalINS_6vectorIhNS_9allocatorIhEEEEEE",
   "size" : 8,
   "source_file" : "frameworks/native/libs/binder/ndk/include_cpp/android/binder_parcel_utils.h"
  },
  {
   "alignment" : 8,
   "linker_set_key" : "_ZTIRKNSt3__18optionalINS_6vectorIiNS_9allocatorIiEEEEEE",
   "name" : "const std::optional<std::vector<int, std::allocator<int>>> &",
   "referenced_type" : "_ZTIKNSt3__18optionalINS_6vectorIiNS_9allocatorIiEEEEEE",
   "self_type" : "_ZTIRKNSt3__18optionalINS_6vectorIiNS_9allocatorIiEEEEEE",
   "size" : 8,
   "source_file" : "frameworks/native/libs/binder/ndk/include_cpp/android/binder_parcel_utils.h"
  },
  {
   "alignment" : 8,
   "linker_set_key" : "_ZTIRKNSt3__18optionalINS_6vectorIjNS_9allocatorIjEEEEEE",
   "name" : "const std::optional<std::vector<unsigned int, std::allocator<unsigned int>>> &",
   "referenced_type" : "_ZTIKNSt3__18optionalINS_6vectorIjNS_9allocatorIjEEEEEE",
   "self_type" : "_ZTIRKNSt3__18optionalINS_6vectorIjNS_9allocatorIjEEEEEE",
   "size" : 8,
   "source_file" : "frameworks/native/libs/binder/ndk/include_cpp/android/binder_parcel_utils.h"
  },
  {
   "alignment" : 8,
   "linker_set_key" : "_ZTIRKNSt3__18optionalINS_6vectorIlNS_9allocatorIlEEEEEE",
   "name" : "const std::optional<std::vector<long, std::allocator<long>>> &",
   "referenced_type" : "_ZTIKNSt3__18optionalINS_6vectorIlNS_9allocatorIlEEEEEE",
   "self_type" : "_ZTIRKNSt3__18optionalINS_6vectorIlNS_9allocatorIlEEEEEE",
   "size" : 8,
   "source_file" : "frameworks/native/libs/binder/ndk/include_cpp/android/binder_parcel_utils.h"
  },
  {
   "alignment" : 8,
   "linker_set_key" : "_ZTIRKNSt3__18optionalINS_6vectorImNS_9allocatorImEEEEEE",
   "name" : "const std::optional<std::vector<unsigned long, std::allocator<unsigned long>>> &",
   "referenced_type" : "_ZTIKNSt3__18optionalINS_6vectorImNS_9allocatorImEEEEEE",
   "self_type" : "_ZTIRKNSt3__18optionalINS_6vectorImNS_9allocatorImEEEEEE",
   "size" : 8,
   "source_file" : "frameworks/native/libs/binder/ndk/include_cpp/android/binder_parcel_utils.h"
  },
  {
   "alignment" : 8,
   "linker_set_key" : "_ZTIRKb",
   "name" : "const bool &",
   "referenced_type" : "_ZTIKb",
   "self_type" : "_ZTIRKb",
   "size" : 8,
   "source_file" : "frameworks/native/libs/binder/ndk/include_cpp/android/binder_to_string.h"
  },
  {
   "alignment" : 8,
   "linker_set_key" : "_ZTIRKh",
   "name" : "const unsigned char &",
   "referenced_type" : "_ZTIKh",
   "self_type" : "_ZTIRKh",
   "size" : 8,
   "source_file" : "frameworks/native/libs/binder/ndk/include_cpp/android/binder_to_string.h"
  },
  {
   "alignment" : 8,
   "linker_set_key" : "_ZTIRKi",
   "name" : "const int &",
   "referenced_type" : "_ZTIKi",
   "self_type" : "_ZTIRKi",
   "size" : 8,
   "source_file" : "frameworks/native/libs/binder/ndk/include_cpp/android/binder_to_string.h"
  },
  {
   "alignment" : 8,
   "linker_set_key" : "_ZTIRKl",
   "name" : "const long &",
   "referenced_type" : "_ZTIKl",
   "self_type" : "_ZTIRKl",
   "size" : 8,
   "source_file" : "frameworks/native/libs/binder/ndk/include_cpp/android/binder_to_string.h"
  },
  {
   "alignment" : 8,
   "linker_set_key" : "_ZTIRN3ndk10SpAIBinderE",
   "name" : "ndk::SpAIBinder &",
   "referenced_type" : "_ZTIN3ndk10SpAIBinderE",
   "self_type" : "_ZTIRN3ndk10SpAIBinderE",
   "size" : 8,
   "source_file" : "frameworks/native/libs/binder/ndk/include_cpp/android/binder_auto_utils.h"
  },
  {
   "alignment" : 8,
   "linker_set_key" : "_ZTIRN3ndk13ScopedAParcelE",
   "name" : "ndk::ScopedAParcel &",
   "referenced_type" : "_ZTIN3ndk13ScopedAParcelE",
   "self_type" : "_ZTIRN3ndk13ScopedAParcelE",
   "size" : 8,
   "source_file" : "frameworks/native/libs/binder/ndk/include_cpp/android/binder_auto_utils.h"
  },
  {
   "alignment" : 8,
   "linker_set_key" : "_ZTIRN3ndk13ScopedAStatusE",
   "name" : "ndk::ScopedAStatus &",
   "referenced_type" : "_ZTIN3ndk13ScopedAStatusE",
   "self_type" : "_ZTIRN3ndk13ScopedAStatusE",
   "size" : 8,
   "source_file" : "frameworks/native/libs/binder/ndk/include_cpp/android/binder_auto_utils.h"
  },
  {
   "alignment" : 8,
   "linker_set_key" : "_ZTIRN3ndk19ScopedAIBinder_WeakE",
   "name" : "ndk::ScopedAIBinder_Weak &",
   "referenced_type" : "_ZTIN3ndk19ScopedAIBinder_WeakE",
   "self_type" : "_ZTIRN3ndk19ScopedAIBinder_WeakE",
   "size" : 8,
   "source_file" : "frameworks/native/libs/binder/ndk/include_cpp/android/binder_auto_utils.h"
  },
  {
   "alignment" : 8,
   "linker_set_key" : "_ZTIRN3ndk20ScopedFileDescriptorE",
   "name" : "ndk::ScopedFileDescriptor &",
   "referenced_type" : "_ZTIN3ndk20ScopedFileDescriptorE",
   "self_type" : "_ZTIRN3ndk20ScopedFileDescriptorE",
   "size" : 8,
   "source_file" : "frameworks/native/libs/binder/ndk/include_cpp/android/binder_auto_utils.h"
  },
  {
   "alignment" : 8,
   "linker_set_key" : "_ZTIRN3ndk29ScopedAIBinder_DeathRecipientE",
   "name" : "ndk::ScopedAIBinder_DeathRecipient &",
   "referenced_type" : "_ZTIN3ndk29ScopedAIBinder_DeathRecipientE",
   "self_type" : "_ZTIRN3ndk29ScopedAIBinder_DeathRecipientE",
   "size" : 8,
   "source_file" : "frameworks/native/libs/binder/ndk/include_cpp/android/binder_auto_utils.h"
  },
  {
   "alignment" : 8,
   "linker_set_key" : "_ZTIRN3ndk4impl15ScopedAResourceIP7AStatusXadL_Z14AStatus_deleteEELS3_0EEE",
   "name" : "ndk::impl::ScopedAResource<AStatus *, &AStatus_delete, nullptr> &",
   "referenced_type" : "_ZTIN3ndk4impl15ScopedAResourceIP7AStatusXadL_Z14AStatus_deleteEELS3_0EEE",
   "self_type" : "_ZTIRN3ndk4impl15ScopedAResourceIP7AStatusXadL_Z14AStatus_deleteEELS3_0EEE",
   "size" : 8,
   "source_file" : "frameworks/native/libs/binder/ndk/include_cpp/android/binder_auto_utils.h"
  }
 ],
 "pointer_types" :
 [
  {
   "alignment" : 8,
   "linker_set_key" : "_ZTIP13AIBinder_Weak",
   "name" : "AIBinder_Weak *",
   "referenced_type" : "_ZTI13AIBinder_Weak",
   "self_type" : "_ZTIP13AIBinder_Weak",
   "size" : 8,
   "source_file" : "frameworks/native/libs/binder/ndk/include_cpp/android/binder_auto_utils.h"
  },
  {
   "alignment" : 8,
   "linker_set_key" : "_ZTIP14AIBinder_Class",
   "name" : "AIBinder_Class *",
   "referenced_type" : "_ZTI14AIBinder_Class",
   "self_type" : "_ZTIP14AIBinder_Class",
   "size" : 8,
   "source_file" : "frameworks/native/libs/binder/ndk/include_cpp/android/binder_interface_utils.h"
  },
  {
   "alignment" : 8,
   "linker_set_key" : "_ZTIP23AIBinder_DeathRecipient",
   "name" : "AIBinder_DeathRecipient *",
   "referenced_type" : "_ZTI23AIBinder_DeathRecipient",
   "self_type" : "_ZTIP23AIBinder_DeathRecipient",
   "size" : 8,
   "source_file" : "frameworks/native/libs/binder/ndk/include_cpp/android/binder_auto_utils.h"
  },
  {
   "alignment" : 8,
   "linker_set_key" : "_ZTIP7AParcel",
   "name" : "AParcel *",
   "referenced_type" : "_ZTI7AParcel",
   "self_type" : "_ZTIP7AParcel",
   "size" : 8,
   "source_file" : "frameworks/native/libs/binder/ndk/include_cpp/android/binder_auto_utils.h"
  },
  {
   "alignment" : 8,
   "linker_set_key" : "_ZTIP7AStatus",
   "name" : "AStatus *",
   "referenced_type" : "_ZTI7AStatus",
   "self_type" : "_ZTIP7AStatus",
   "size" : 8,
   "source_file" : "frameworks/native/libs/binder/ndk/include_cpp/android/binder_auto_utils.h"
  },
  {
   "alignment" : 8,
   "linker_set_key" : "_ZTIP8AIBinder",
   "name" : "AIBinder *",
   "referenced_type" : "_ZTI8AIBinder",
   "self_type" : "_ZTIP8AIBinder",
   "size" : 8,
   "source_file" : "frameworks/native/libs/binder/ndk/include_cpp/android/binder_auto_utils.h"
  },
  {
   "alignment" : 8,
   "linker_set_key" : "_ZTIPFiP8AIBinderjPK7AParcelPS1_E",
   "name" : "int (*)(AIBinder *, unsigned int, const AParcel *, AParcel *)",
   "referenced_type" : "_ZTIFiP8AIBinderjPK7AParcelPS1_E",
   "self_type" : "_ZTIPFiP8AIBinderjPK7AParcelPS1_E",
   "size" : 8,
   "source_file" : "frameworks/native/libs/binder/ndk/include_cpp/android/binder_interface_utils.h"
  },
  {
   "alignment" : 8,
   "linker_set_key" : "_ZTIPK7AParcel",
   "name" : "const AParcel *",
   "referenced_type" : "_ZTIK7AParcel",
   "self_type" : "_ZTIPK7AParcel",
   "size" : 8,
   "source_file" : "frameworks/native/libs/binder/ndk/include_cpp/android/binder_interface_utils.h"
  },
  {
   "alignment" : 8,
   "linker_set_key" : "_ZTIPKN3ndk10SpAIBinderE",
   "name" : "const ndk::SpAIBinder *",
   "referenced_type" : "_ZTIKN3ndk10SpAIBinderE",
   "self_type" : "_ZTIPKN3ndk10SpAIBinderE",
   "size" : 8,
   "source_file" : "frameworks/native/libs/binder/ndk/include_cpp/android/binder_auto_utils.h"
  },
  {
   "alignment" : 8,
   "linker_set_key" : "_ZTIPKN3ndk13ScopedAParcelE",
   "name" : "const ndk::ScopedAParcel *",
   "referenced_type" : "_ZTIKN3ndk13ScopedAParcelE",
   "self_type" : "_ZTIPKN3ndk13ScopedAParcelE",
   "size" : 8,
   "source_file" : "frameworks/native/libs/binder/ndk/include_cpp/android/binder_auto_utils.h"
  },
  {
   "alignment" : 8,
   "linker_set_key" : "_ZTIPKN3ndk13ScopedAStatusE",
   "name" : "const ndk::ScopedAStatus *",
   "referenced_type" : "_ZTIKN3ndk13ScopedAStatusE",
   "self_type" : "_ZTIPKN3ndk13ScopedAStatusE",
   "size" : 8,
   "source_file" : "frameworks/native/libs/binder/ndk/include_cpp/android/binder_auto_utils.h"
  },
  {
   "alignment" : 8,
   "linker_set_key" : "_ZTIPKN3ndk17AParcelableHolderE",
   "name" : "const ndk::AParcelableHolder *",
   "referenced_type" : "_ZTIKN3ndk17AParcelableHolderE",
   "self_type" : "_ZTIPKN3ndk17AParcelableHolderE",
   "size" : 8,
   "source_file" : "frameworks/native/libs/binder/ndk/include_cpp/android/binder_parcelable_utils.h"
  },
  {
   "alignment" : 8,
   "linker_set_key" : "_ZTIPKN3ndk20ScopedFileDescriptorE",
   "name" : "const ndk::ScopedFileDescriptor *",
   "referenced_type" : "_ZTIKN3ndk20ScopedFileDescriptorE",
   "self_type" : "_ZTIPKN3ndk20ScopedFileDescriptorE",
   "size" : 8,
   "source_file" : "frameworks/native/libs/binder/ndk/include_cpp/android/binder_auto_utils.h"
  },
  {
   "alignment" : 8,
   "linker_set_key" : "_ZTIPKN3ndk4impl15ScopedAResourceIP7AParcelXadL_Z14AParcel_deleteEELS3_0EEE",
   "name" : "const ndk::impl::ScopedAResource<AParcel *, &AParcel_delete, nullptr> *",
   "referenced_type" : "_ZTIKN3ndk4impl15ScopedAResourceIP7AParcelXadL_Z14AParcel_deleteEELS3_0EEE",
   "self_type" : "_ZTIPKN3ndk4impl15ScopedAResourceIP7AParcelXadL_Z14AParcel_deleteEELS3_0EEE",
   "size" : 8,
   "source_file" : "frameworks/native/libs/binder/ndk/include_cpp/android/binder_auto_utils.h"
  },
  {
   "alignment" : 8,
   "linker_set_key" : "_ZTIPKN3ndk4impl15ScopedAResourceIP7AStatusXadL_Z14AStatus_deleteEELS3_0EEE",
   "name" : "const ndk::impl::ScopedAResource<AStatus *, &AStatus_delete, nullptr> *",
   "referenced_type" : "_ZTIKN3ndk4impl15ScopedAResourceIP7AStatusXadL_Z14AStatus_deleteEELS3_0EEE",
   "self_type" : "_ZTIPKN3ndk4impl15ScopedAResourceIP7AStatusXadL_Z14AStatus_deleteEELS3_0EEE",
   "size" : 8,
   "source_file" : "frameworks/native/libs/binder/ndk/include_cpp/android/binder_auto_utils.h"
  },
  {
   "alignment" : 8,
   "linker_set_key" : "_ZTIPKN4aidl7android5media12soundtrigger10PropertiesE",
   "name" : "const aidl::android::media::soundtrigger::Properties *",
   "referenced_type" : "_ZTIKN4aidl7android5media12soundtrigger10PropertiesE",
   "self_type" : "_ZTIPKN4aidl7android5media12soundtrigger10PropertiesE",
   "size" : 8,
   "source_file" : "out/soong/.intermediates/frameworks/base/media/android.media.soundtrigger.types-V1-ndk-source/gen/include/aidl/android/media/soundtrigger/Properties.h"
  },
  {
   "alignment" : 8,
   "linker_set_key" : "_ZTIPKN4aidl7android5media12soundtrigger10SoundModelE",
   "name" : "const aidl::android::media::soundtrigger::SoundModel *",
   "referenced_type" : "_ZTIKN4aidl7android5media12soundtrigger10SoundModelE",
   "self_type" : "_ZTIPKN4aidl7android5media12soundtrigger10SoundModelE",
   "size" : 8,
   "source_file" : "out/soong/.intermediates/frameworks/base/media/android.media.soundtrigger.types-V1-ndk-source/gen/include/aidl/android/media/soundtrigger/SoundModel.h"
  },
  {
   "alignment" : 8,
   "linker_set_key" : "_ZTIPKN4aidl7android5media12soundtrigger15ConfidenceLevelE",
   "name" : "const aidl::android::media::soundtrigger::ConfidenceLevel *",
   "referenced_type" : "_ZTIKN4aidl7android5media12soundtrigger15ConfidenceLevelE",
   "self_type" : "_ZTIPKN4aidl7android5media12soundtrigger15ConfidenceLevelE",
   "size" : 8,
   "source_file" : "out/soong/.intermediates/frameworks/base/media/android.media.soundtrigger.types-V1-ndk-source/gen/include/aidl/android/media/soundtrigger/ConfidenceLevel.h"
  },
  {
   "alignment" : 8,
   "linker_set_key" : "_ZTIPKN4aidl7android5media12soundtrigger16PhraseSoundModelE",
   "name" : "const aidl::android::media::soundtrigger::PhraseSoundModel *",
   "referenced_type" : "_ZTIKN4aidl7android5media12soundtrigger16PhraseSoundModelE",
   "self_type" : "_ZTIPKN4aidl7android5media12soundtrigger16PhraseSoundModelE",
   "size" : 8,
   "source_file" : "out/soong/.intermediates/frameworks/base/media/android.media.soundtrigger.types-V1-ndk-source/gen/include/aidl/android/media/soundtrigger/PhraseSoundModel.h"
  },
  {
   "alignment" : 8,
   "linker_set_key" : "_ZTIPKN4aidl7android5media12soundtrigger16RecognitionEventE",
   "name" : "const aidl::android::media::soundtrigger::RecognitionEvent *",
   "referenced_type" : "_ZTIKN4aidl7android5media12soundtrigger16RecognitionEventE",
   "self_type" : "_ZTIPKN4aidl7android5media12soundtrigger16RecognitionEventE",
   "size" : 8,
   "source_file" : "out/soong/.intermediates/frameworks/base/media/android.media.soundtrigger.types-V1-ndk-source/gen/include/aidl/android/media/soundtrigger/RecognitionEvent.h"
  },
  {
   "alignment" : 8,
   "linker_set_key" : "_ZTIPKN4aidl7android5media12soundtrigger17RecognitionConfigE",
   "name" : "const aidl::android::media::soundtrigger::RecognitionConfig *",
   "referenced_type" : "_ZTIKN4aidl7android5media12soundtrigger17RecognitionConfigE",
   "self_type" : "_ZTIPKN4aidl7android5media12soundtrigger17RecognitionConfigE",
   "size" : 8,
   "source_file" : "out/soong/.intermediates/frameworks/base/media/android.media.soundtrigger.types-V1-ndk-source/gen/include/aidl/android/media/soundtrigger/RecognitionConfig.h"
  },
  {
   "alignment" : 8,
   "linker_set_key" : "_ZTIPKN4aidl7android5media12soundtrigger19ModelParameterRangeE",
   "name" : "const aidl::android::media::soundtrigger::ModelParameterRange *",
   "referenced_type" : "_ZTIKN4aidl7android5media12soundtrigger19ModelParameterRangeE",
   "self_type" : "_ZTIPKN4aidl7android5media12soundtrigger19ModelParameterRangeE",
   "size" : 8,
   "source_file" : "out/soong/.intermediates/frameworks/base/media/android.media.soundtrigger.types-V1-ndk-source/gen/include/aidl/android/media/soundtrigger/ModelParameterRange.h"
  },
  {
   "alignment" : 8,
   "linker_set_key" : "_ZTIPKN4aidl7android5media12soundtrigger22PhraseRecognitionEventE",
   "name" : "const aidl::android::media::soundtrigger::PhraseRecognitionEvent *",
   "referenced_type" : "_ZTIKN4aidl7android5media12soundtrigger22PhraseRecognitionEventE",
   "self_type" : "_ZTIPKN4aidl7android5media12soundtrigger22PhraseRecognitionEventE",
   "size" : 8,
   "source_file" : "out/soong/.intermediates/frameworks/base/media/android.media.soundtrigger.types-V1-ndk-source/gen/include/aidl/android/media/soundtrigger/PhraseRecognitionEvent.h"
  },
  {
   "alignment" : 8,
   "linker_set_key" : "_ZTIPKN4aidl7android5media12soundtrigger22PhraseRecognitionExtraE",
   "name" : "const aidl::android::media::soundtrigger::PhraseRecognitionExtra *",
   "referenced_type" : "_ZTIKN4aidl7android5media12soundtrigger22PhraseRecognitionExtraE",
   "self_type" : "_ZTIPKN4aidl7android5media12soundtrigger22PhraseRecognitionExtraE",
   "size" : 8,
   "source_file" : "out/soong/.intermediates/frameworks/base/media/android.media.soundtrigger.types-V1-ndk-source/gen/include/aidl/android/media/soundtrigger/PhraseRecognitionExtra.h"
  },
  {
   "alignment" : 8,
   "linker_set_key" : "_ZTIPKN4aidl7android5media12soundtrigger6PhraseE",
   "name" : "const aidl::android::media::soundtrigger::Phrase *",
   "referenced_type" : "_ZTIKN4aidl7android5media12soundtrigger6PhraseE",
   "self_type" : "_ZTIPKN4aidl7android5media12soundtrigger6PhraseE",
   "size" : 8,
   "source_file" : "out/soong/.intermediates/frameworks/base/media/android.media.soundtrigger.types-V1-ndk-source/gen/include/aidl/android/media/soundtrigger/Phrase.h"
  },
  {
   "alignment" : 8,
   "linker_set_key" : "_ZTIPKN4aidl7android5media5audio6common11AudioConfigE",
   "name" : "const aidl::android::media::audio::common::AudioConfig *",
   "referenced_type" : "_ZTIKN4aidl7android5media5audio6common11AudioConfigE",
   "self_type" : "_ZTIPKN4aidl7android5media5audio6common11AudioConfigE",
   "size" : 8,
   "source_file" : "out/soong/.intermediates/frameworks/base/media/android.media.audio.common.types-V1-ndk-source/gen/include/aidl/android/media/audio/common/AudioConfig.h"
  },
  {
   "alignment" : 8,
   "linker_set_key" : "_ZTIPKN4aidl7android5media5audio6common15AudioConfigBaseE",
   "name" : "const aidl::android::media::audio::common::AudioConfigBase *",
   "referenced_type" : "_ZTIKN4aidl7android5media5audio6common15AudioConfigBaseE",
   "self_type" : "_ZTIPKN4aidl7android5media5audio6common15AudioConfigBaseE",
   "size" : 8,
   "source_file" : "out/soong/.intermediates/frameworks/base/media/android.media.audio.common.types-V1-ndk-source/gen/include/aidl/android/media/audio/common/AudioConfigBase.h"
  },
  {
   "alignment" : 8,
   "linker_set_key" : "_ZTIPKN4aidl7android5media5audio6common16AudioOffloadInfoE",
   "name" : "const aidl::android::media::audio::common::AudioOffloadInfo *",
   "referenced_type" : "_ZTIKN4aidl7android5media5audio6common16AudioOffloadInfoE",
   "self_type" : "_ZTIPKN4aidl7android5media5audio6common16AudioOffloadInfoE",
   "size" : 8,
   "source_file" : "out/soong/.intermediates/frameworks/base/media/android.media.audio.common.types-V1-ndk-source/gen/include/aidl/android/media/audio/common/AudioOffloadInfo.h"
  },
  {
   "alignment" : 8,
   "linker_set_key" : "_ZTIPKN4aidl7android5media5audio6common18AudioChannelLayoutE",
   "name" : "const aidl::android::media::audio::common::AudioChannelLayout *",
   "referenced_type" : "_ZTIKN4aidl7android5media5audio6common18AudioChannelLayoutE",
   "self_type" : "_ZTIPKN4aidl7android5media5audio6common18AudioChannelLayoutE",
   "size" : 8,
   "source_file" : "out/soong/.intermediates/frameworks/base/media/android.media.audio.common.types-V1-ndk-source/gen/include/aidl/android/media/audio/common/AudioChannelLayout.h"
  },
  {
   "alignment" : 8,
   "linker_set_key" : "_ZTIPKN4aidl7android5media5audio6common22AudioFormatDescriptionE",
   "name" : "const aidl::android::media::audio::common::AudioFormatDescription *",
   "referenced_type" : "_ZTIKN4aidl7android5media5audio6common22AudioFormatDescriptionE",
   "self_type" : "_ZTIPKN4aidl7android5media5audio6common22AudioFormatDescriptionE",
   "size" : 8,
   "source_file" : "out/soong/.intermediates/frameworks/base/media/android.media.audio.common.types-V1-ndk-source/gen/include/aidl/android/media/audio/common/AudioFormatDescription.h"
  },
  {
   "alignment" : 8,
   "linker_set_key" : "_ZTIPKc",
   "name" : "const char *",
   "referenced_type" : "_ZTIKc",
   "self_type" : "_ZTIPKc",
   "size" : 8,
   "source_file" : "frameworks/native/libs/binder/ndk/include_cpp/android/binder_auto_utils.h"
  },
  {
   "alignment" : 8,
   "linker_set_key" : "_ZTIPKv",
   "name" : "const void *",
   "referenced_type" : "_ZTIKv",
   "self_type" : "_ZTIPKv",
   "size" : 8,
   "source_file" : "frameworks/native/libs/binder/ndk/include_cpp/android/binder_parcel_utils.h"
  },
  {
   "alignment" : 8,
   "linker_set_key" : "_ZTIPN3ndk10SpAIBinderE",
   "name" : "ndk::SpAIBinder *",
   "referenced_type" : "_ZTIN3ndk10SpAIBinderE",
   "self_type" : "_ZTIPN3ndk10SpAIBinderE",
   "size" : 8,
   "source_file" : "frameworks/native/libs/binder/ndk/include_cpp/android/binder_auto_utils.h"
  },
  {
   "alignment" : 8,
   "linker_set_key" : "_ZTIPN3ndk11ICInterfaceE",
   "name" : "ndk::ICInterface *",
   "referenced_type" : "_ZTIN3ndk11ICInterfaceE",
   "self_type" : "_ZTIPN3ndk11ICInterfaceE",
   "size" : 8,
   "source_file" : "frameworks/native/libs/binder/ndk/include_cpp/android/binder_interface_utils.h"
  },
  {
   "alignment" : 8,
   "linker_set_key" : "_ZTIPN3ndk12BnCInterfaceIN4aidl7android8hardware13soundtrigger315ISoundTriggerHwEEE",
   "name" : "ndk::BnCInterface<aidl::android::hardware::soundtrigger3::ISoundTriggerHw> *",
   "referenced_type" : "_ZTIN3ndk12BnCInterfaceIN4aidl7android8hardware13soundtrigger315ISoundTriggerHwEEE",
   "self_type" : "_ZTIPN3ndk12BnCInterfaceIN4aidl7android8hardware13soundtrigger315ISoundTriggerHwEEE",
   "size" : 8,
   "source_file" : "frameworks/native/libs/binder/ndk/include_cpp/android/binder_interface_utils.h"
  },
  {
   "alignment" : 8,
   "linker_set_key" : "_ZTIPN3ndk12BnCInterfaceIN4aidl7android8hardware13soundtrigger323ISoundTriggerHwCallbackEEE",
   "name" : "ndk::BnCInterface<aidl::android::hardware::soundtrigger3::ISoundTriggerHwCallback> *",
   "referenced_type" : "_ZTIN3ndk12BnCInterfaceIN4aidl7android8hardware13soundtrigger323ISoundTriggerHwCallbackEEE",
   "self_type" : "_ZTIPN3ndk12BnCInterfaceIN4aidl7android8hardware13soundtrigger323ISoundTriggerHwCallbackEEE",
   "size" : 8,
   "source_file" : "frameworks/native/libs/binder/ndk/include_cpp/android/binder_interface_utils.h"
  },
  {
   "alignment" : 8,
   "linker_set_key" : "_ZTIPN3ndk12BnCInterfaceIN4aidl7android8hardware13soundtrigger329ISoundTriggerHwGlobalCallbackEEE",
   "name" : "ndk::BnCInterface<aidl::android::hardware::soundtrigger3::ISoundTriggerHwGlobalCallback> *",
   "referenced_type" : "_ZTIN3ndk12BnCInterfaceIN4aidl7android8hardware13soundtrigger329ISoundTriggerHwGlobalCallbackEEE",
   "self_type" : "_ZTIPN3ndk12BnCInterfaceIN4aidl7android8hardware13soundtrigger329ISoundTriggerHwGlobalCallbackEEE",
   "size" : 8,
   "source_file" : "frameworks/native/libs/binder/ndk/include_cpp/android/binder_interface_utils.h"
  },
  {
   "alignment" : 8,
   "linker_set_key" : "_ZTIPN3ndk12BpCInterfaceIN4aidl7android8hardware13soundtrigger315ISoundTriggerHwEEE",
   "name" : "ndk::BpCInterface<aidl::android::hardware::soundtrigger3::ISoundTriggerHw> *",
   "referenced_type" : "_ZTIN3ndk12BpCInterfaceIN4aidl7android8hardware13soundtrigger315ISoundTriggerHwEEE",
   "self_type" : "_ZTIPN3ndk12BpCInterfaceIN4aidl7android8hardware13soundtrigger315ISoundTriggerHwEEE",
   "size" : 8,
   "source_file" : "frameworks/native/libs/binder/ndk/include_cpp/android/binder_interface_utils.h"
  },
  {
   "alignment" : 8,
   "linker_set_key" : "_ZTIPN3ndk12BpCInterfaceIN4aidl7android8hardware13soundtrigger323ISoundTriggerHwCallbackEEE",
   "name" : "ndk::BpCInterface<aidl::android::hardware::soundtrigger3::ISoundTriggerHwCallback> *",
   "referenced_type" : "_ZTIN3ndk12BpCInterfaceIN4aidl7android8hardware13soundtrigger323ISoundTriggerHwCallbackEEE",
   "self_type" : "_ZTIPN3ndk12BpCInterfaceIN4aidl7android8hardware13soundtrigger323ISoundTriggerHwCallbackEEE",
   "size" : 8,
   "source_file" : "frameworks/native/libs/binder/ndk/include_cpp/android/binder_interface_utils.h"
  },
  {
   "alignment" : 8,
   "linker_set_key" : "_ZTIPN3ndk12BpCInterfaceIN4aidl7android8hardware13soundtrigger329ISoundTriggerHwGlobalCallbackEEE",
   "name" : "ndk::BpCInterface<aidl::android::hardware::soundtrigger3::ISoundTriggerHwGlobalCallback> *",
   "referenced_type" : "_ZTIN3ndk12BpCInterfaceIN4aidl7android8hardware13soundtrigger329ISoundTriggerHwGlobalCallbackEEE",
   "self_type" : "_ZTIPN3ndk12BpCInterfaceIN4aidl7android8hardware13soundtrigger329ISoundTriggerHwGlobalCallbackEEE",
   "size" : 8,
   "source_file" : "frameworks/native/libs/binder/ndk/include_cpp/android/binder_interface_utils.h"
  },
  {
   "alignment" : 8,
   "linker_set_key" : "_ZTIPN3ndk13ScopedAParcelE",
   "name" : "ndk::ScopedAParcel *",
   "referenced_type" : "_ZTIN3ndk13ScopedAParcelE",
   "self_type" : "_ZTIPN3ndk13ScopedAParcelE",
   "size" : 8,
   "source_file" : "frameworks/native/libs/binder/ndk/include_cpp/android/binder_auto_utils.h"
  },
  {
   "alignment" : 8,
   "linker_set_key" : "_ZTIPN3ndk13ScopedAStatusE",
   "name" : "ndk::ScopedAStatus *",
   "referenced_type" : "_ZTIN3ndk13ScopedAStatusE",
   "self_type" : "_ZTIPN3ndk13ScopedAStatusE",
   "size" : 8,
   "source_file" : "frameworks/native/libs/binder/ndk/include_cpp/android/binder_auto_utils.h"
  },
  {
   "alignment" : 8,
   "linker_set_key" : "_ZTIPN3ndk13SharedRefBaseE",
   "name" : "ndk::SharedRefBase *",
   "referenced_type" : "_ZTIN3ndk13SharedRefBaseE",
   "self_type" : "_ZTIPN3ndk13SharedRefBaseE",
   "size" : 8,
   "source_file" : "frameworks/native/libs/binder/ndk/include_cpp/android/binder_interface_utils.h"
  },
  {
   "alignment" : 8,
   "linker_set_key" : "_ZTIPN3ndk17AParcelableHolderE",
   "name" : "ndk::AParcelableHolder *",
   "referenced_type" : "_ZTIN3ndk17AParcelableHolderE",
   "self_type" : "_ZTIPN3ndk17AParcelableHolderE",
   "size" : 8,
   "source_file" : "frameworks/native/libs/binder/ndk/include_cpp/android/binder_parcelable_utils.h"
  },
  {
   "alignment" : 8,
   "linker_set_key" : "_ZTIPN3ndk19ScopedAIBinder_WeakE",
   "name" : "ndk::ScopedAIBinder_Weak *",
   "referenced_type" : "_ZTIN3ndk19ScopedAIBinder_WeakE",
   "self_type" : "_ZTIPN3ndk19ScopedAIBinder_WeakE",
   "size" : 8,
   "source_file" : "frameworks/native/libs/binder/ndk/include_cpp/android/binder_auto_utils.h"
  },
  {
   "alignment" : 8,
   "linker_set_key" : "_ZTIPN3ndk20ScopedFileDescriptorE",
   "name" : "ndk::ScopedFileDescriptor *",
   "referenced_type" : "_ZTIN3ndk20ScopedFileDescriptorE",
   "self_type" : "_ZTIPN3ndk20ScopedFileDescriptorE",
   "size" : 8,
   "source_file" : "frameworks/native/libs/binder/ndk/include_cpp/android/binder_auto_utils.h"
  },
  {
   "alignment" : 8,
   "linker_set_key" : "_ZTIPN3ndk29ScopedAIBinder_DeathRecipientE",
   "name" : "ndk::ScopedAIBinder_DeathRecipient *",
   "referenced_type" : "_ZTIN3ndk29ScopedAIBinder_DeathRecipientE",
   "self_type" : "_ZTIPN3ndk29ScopedAIBinder_DeathRecipientE",
   "size" : 8,
   "source_file" : "frameworks/native/libs/binder/ndk/include_cpp/android/binder_auto_utils.h"
  },
  {
   "alignment" : 8,
   "linker_set_key" : "_ZTIPN3ndk4impl15ScopedAResourceIP13AIBinder_WeakXadL_Z20AIBinder_Weak_deleteEELS3_0EEE",
   "name" : "ndk::impl::ScopedAResource<AIBinder_Weak *, &AIBinder_Weak_delete, nullptr> *",
   "referenced_type" : "_ZTIN3ndk4impl15ScopedAResourceIP13AIBinder_WeakXadL_Z20AIBinder_Weak_deleteEELS3_0EEE",
   "self_type" : "_ZTIPN3ndk4impl15ScopedAResourceIP13AIBinder_WeakXadL_Z20AIBinder_Weak_deleteEELS3_0EEE",
   "size" : 8,
   "source_file" : "frameworks/native/libs/binder/ndk/include_cpp/android/binder_auto_utils.h"
  },
  {
   "alignment" : 8,
   "linker_set_key" : "_ZTIPN3ndk4impl15ScopedAResourceIP23AIBinder_DeathRecipientXadL_Z30AIBinder_DeathRecipient_deleteEELS3_0EEE",
   "name" : "ndk::impl::ScopedAResource<AIBinder_DeathRecipient *, &AIBinder_DeathRecipient_delete, nullptr> *",
   "referenced_type" : "_ZTIN3ndk4impl15ScopedAResourceIP23AIBinder_DeathRecipientXadL_Z30AIBinder_DeathRecipient_deleteEELS3_0EEE",
   "self_type" : "_ZTIPN3ndk4impl15ScopedAResourceIP23AIBinder_DeathRecipientXadL_Z30AIBinder_DeathRecipient_deleteEELS3_0EEE",
   "size" : 8,
   "source_file" : "frameworks/native/libs/binder/ndk/include_cpp/android/binder_auto_utils.h"
  },
  {
   "alignment" : 8,
   "linker_set_key" : "_ZTIPN3ndk4impl15ScopedAResourceIP7AParcelXadL_Z14AParcel_deleteEELS3_0EEE",
   "name" : "ndk::impl::ScopedAResource<AParcel *, &AParcel_delete, nullptr> *",
   "referenced_type" : "_ZTIN3ndk4impl15ScopedAResourceIP7AParcelXadL_Z14AParcel_deleteEELS3_0EEE",
   "self_type" : "_ZTIPN3ndk4impl15ScopedAResourceIP7AParcelXadL_Z14AParcel_deleteEELS3_0EEE",
   "size" : 8,
   "source_file" : "frameworks/native/libs/binder/ndk/include_cpp/android/binder_auto_utils.h"
  },
  {
   "alignment" : 8,
   "linker_set_key" : "_ZTIPN3ndk4impl15ScopedAResourceIP7AStatusXadL_Z14AStatus_deleteEELS3_0EEE",
   "name" : "ndk::impl::ScopedAResource<AStatus *, &AStatus_delete, nullptr> *",
   "referenced_type" : "_ZTIN3ndk4impl15ScopedAResourceIP7AStatusXadL_Z14AStatus_deleteEELS3_0EEE",
   "self_type" : "_ZTIPN3ndk4impl15ScopedAResourceIP7AStatusXadL_Z14AStatus_deleteEELS3_0EEE",
   "size" : 8,
   "source_file" : "frameworks/native/libs/binder/ndk/include_cpp/android/binder_auto_utils.h"
  },
  {
   "alignment" : 8,
   "linker_set_key" : "_ZTIPN4aidl7android5media12soundtrigger10PropertiesE",
   "name" : "aidl::android::media::soundtrigger::Properties *",
   "referenced_type" : "_ZTIN4aidl7android5media12soundtrigger10PropertiesE",
   "self_type" : "_ZTIPN4aidl7android5media12soundtrigger10PropertiesE",
   "size" : 8,
   "source_file" : "out/soong/.intermediates/hardware/interfaces/soundtrigger/aidl/android.hardware.soundtrigger3-V1-ndk-source/gen/include/aidl/android/hardware/soundtrigger3/ISoundTriggerHw.h"
  },
  {
   "alignment" : 8,
   "linker_set_key" : "_ZTIPN4aidl7android5media5audio6common18AudioChannelLayoutE",
   "name" : "aidl::android::media::audio::common::AudioChannelLayout *",
   "referenced_type" : "_ZTIN4aidl7android5media5audio6common18AudioChannelLayoutE",
   "self_type" : "_ZTIPN4aidl7android5media5audio6common18AudioChannelLayoutE",
   "size" : 8,
   "source_file" : "out/soong/.intermediates/frameworks/base/media/android.media.audio.common.types-V1-ndk-source/gen/include/aidl/android/media/audio/common/AudioChannelLayout.h"
  },
  {
   "alignment" : 8,
   "linker_set_key" : "_ZTIPN4aidl7android8hardware13soundtrigger315ISoundTriggerHwE",
   "name" : "aidl::android::hardware::soundtrigger3::ISoundTriggerHw *",
   "referenced_type" : "_ZTIN4aidl7android8hardware13soundtrigger315ISoundTriggerHwE",
   "self_type" : "_ZTIPN4aidl7android8hardware13soundtrigger315ISoundTriggerHwE",
   "size" : 8,
   "source_file" : "out/soong/.intermediates/hardware/interfaces/soundtrigger/aidl/android.hardware.soundtrigger3-V1-ndk-source/gen/include/aidl/android/hardware/soundtrigger3/ISoundTriggerHw.h"
  },
  {
   "alignment" : 8,
   "linker_set_key" : "_ZTIPN4aidl7android8hardware13soundtrigger316BnSoundTriggerHwE",
   "name" : "aidl::android::hardware::soundtrigger3::BnSoundTriggerHw *",
   "referenced_type" : "_ZTIN4aidl7android8hardware13soundtrigger316BnSoundTriggerHwE",
   "self_type" : "_ZTIPN4aidl7android8hardware13soundtrigger316BnSoundTriggerHwE",
   "size" : 8,
   "source_file" : "out/soong/.intermediates/hardware/interfaces/soundtrigger/aidl/android.hardware.soundtrigger3-V1-ndk-source/gen/include/aidl/android/hardware/soundtrigger3/BnSoundTriggerHw.h"
  },
  {
   "alignment" : 8,
   "linker_set_key" : "_ZTIPN4aidl7android8hardware13soundtrigger316BpSoundTriggerHwE",
   "name" : "aidl::android::hardware::soundtrigger3::BpSoundTriggerHw *",
   "referenced_type" : "_ZTIN4aidl7android8hardware13soundtrigger316BpSoundTriggerHwE",
   "self_type" : "_ZTIPN4aidl7android8hardware13soundtrigger316BpSoundTriggerHwE",
   "size" : 8,
   "source_file" : "out/soong/.intermediates/hardware/interfaces/soundtrigger/aidl/android.hardware.soundtrigger3-V1-ndk-source/gen/include/aidl/android/hardware/soundtrigger3/BpSoundTriggerHw.h"
  },
  {
   "alignment" : 8,
   "linker_set_key" : "_ZTIPN4aidl7android8hardware13soundtrigger322ISoundTriggerHwDefaultE",
   "name" : "aidl::android::hardware::soundtrigger3::ISoundTriggerHwDefault *",
   "referenced_type" : "_ZTIN4aidl7android8hardware13soundtrigger322ISoundTriggerHwDefaultE",
   "self_type" : "_ZTIPN4aidl7android8hardware13soundtrigger322ISoundTriggerHwDefaultE",
   "size" : 8,
   "source_file" : "out/soong/.intermediates/hardware/interfaces/soundtrigger/aidl/android.hardware.soundtrigger3-V1-ndk-source/gen/include/aidl/android/hardware/soundtrigger3/ISoundTriggerHw.h"
  },
  {
   "alignment" : 8,
   "linker_set_key" : "_ZTIPN4aidl7android8hardware13soundtrigger323ISoundTriggerHwCallbackE",
   "name" : "aidl::android::hardware::soundtrigger3::ISoundTriggerHwCallback *",
   "referenced_type" : "_ZTIN4aidl7android8hardware13soundtrigger323ISoundTriggerHwCallbackE",
   "self_type" : "_ZTIPN4aidl7android8hardware13soundtrigger323ISoundTriggerHwCallbackE",
   "size" : 8,
   "source_file" : "out/soong/.intermediates/hardware/interfaces/soundtrigger/aidl/android.hardware.soundtrigger3-V1-ndk-source/gen/include/aidl/android/hardware/soundtrigger3/ISoundTriggerHwCallback.h"
  },
  {
   "alignment" : 8,
   "linker_set_key" : "_ZTIPN4aidl7android8hardware13soundtrigger324BnSoundTriggerHwCallbackE",
   "name" : "aidl::android::hardware::soundtrigger3::BnSoundTriggerHwCallback *",
   "referenced_type" : "_ZTIN4aidl7android8hardware13soundtrigger324BnSoundTriggerHwCallbackE",
   "self_type" : "_ZTIPN4aidl7android8hardware13soundtrigger324BnSoundTriggerHwCallbackE",
   "size" : 8,
   "source_file" : "out/soong/.intermediates/hardware/interfaces/soundtrigger/aidl/android.hardware.soundtrigger3-V1-ndk-source/gen/include/aidl/android/hardware/soundtrigger3/BnSoundTriggerHwCallback.h"
  },
  {
   "alignment" : 8,
   "linker_set_key" : "_ZTIPN4aidl7android8hardware13soundtrigger324BpSoundTriggerHwCallbackE",
   "name" : "aidl::android::hardware::soundtrigger3::BpSoundTriggerHwCallback *",
   "referenced_type" : "_ZTIN4aidl7android8hardware13soundtrigger324BpSoundTriggerHwCallbackE",
   "self_type" : "_ZTIPN4aidl7android8hardware13soundtrigger324BpSoundTriggerHwCallbackE",
   "size" : 8,
   "source_file" : "out/soong/.intermediates/hardware/interfaces/soundtrigger/aidl/android.hardware.soundtrigger3-V1-ndk-source/gen/include/aidl/android/hardware/soundtrigger3/BpSoundTriggerHwCallback.h"
  },
  {
   "alignment" : 8,
   "linker_set_key" : "_ZTIPN4aidl7android8hardware13soundtrigger324ISoundTriggerHwDelegatorE",
   "name" : "aidl::android::hardware::soundtrigger3::ISoundTriggerHwDelegator *",
   "referenced_type" : "_ZTIN4aidl7android8hardware13soundtrigger324ISoundTriggerHwDelegatorE",
   "self_type" : "_ZTIPN4aidl7android8hardware13soundtrigger324ISoundTriggerHwDelegatorE",
   "size" : 8,
   "source_file" : "out/soong/.intermediates/hardware/interfaces/soundtrigger/aidl/android.hardware.soundtrigger3-V1-ndk-source/gen/include/aidl/android/hardware/soundtrigger3/BnSoundTriggerHw.h"
  },
  {
   "alignment" : 8,
   "linker_set_key" : "_ZTIPN4aidl7android8hardware13soundtrigger329ISoundTriggerHwGlobalCallbackE",
   "name" : "aidl::android::hardware::soundtrigger3::ISoundTriggerHwGlobalCallback *",
   "referenced_type" : "_ZTIN4aidl7android8hardware13soundtrigger329ISoundTriggerHwGlobalCallbackE",
   "self_type" : "_ZTIPN4aidl7android8hardware13soundtrigger329ISoundTriggerHwGlobalCallbackE",
   "size" : 8,
   "source_file" : "out/soong/.intermediates/hardware/interfaces/soundtrigger/aidl/android.hardware.soundtrigger3-V1-ndk-source/gen/include/aidl/android/hardware/soundtrigger3/ISoundTriggerHwGlobalCallback.h"
  },
  {
   "alignment" : 8,
   "linker_set_key" : "_ZTIPN4aidl7android8hardware13soundtrigger330BnSoundTriggerHwGlobalCallbackE",
   "name" : "aidl::android::hardware::soundtrigger3::BnSoundTriggerHwGlobalCallback *",
   "referenced_type" : "_ZTIN4aidl7android8hardware13soundtrigger330BnSoundTriggerHwGlobalCallbackE",
   "self_type" : "_ZTIPN4aidl7android8hardware13soundtrigger330BnSoundTriggerHwGlobalCallbackE",
   "size" : 8,
   "source_file" : "out/soong/.intermediates/hardware/interfaces/soundtrigger/aidl/android.hardware.soundtrigger3-V1-ndk-source/gen/include/aidl/android/hardware/soundtrigger3/BnSoundTriggerHwGlobalCallback.h"
  },
  {
   "alignment" : 8,
   "linker_set_key" : "_ZTIPN4aidl7android8hardware13soundtrigger330BpSoundTriggerHwGlobalCallbackE",
   "name" : "aidl::android::hardware::soundtrigger3::BpSoundTriggerHwGlobalCallback *",
   "referenced_type" : "_ZTIN4aidl7android8hardware13soundtrigger330BpSoundTriggerHwGlobalCallbackE",
   "self_type" : "_ZTIPN4aidl7android8hardware13soundtrigger330BpSoundTriggerHwGlobalCallbackE",
   "size" : 8,
   "source_file" : "out/soong/.intermediates/hardware/interfaces/soundtrigger/aidl/android.hardware.soundtrigger3-V1-ndk-source/gen/include/aidl/android/hardware/soundtrigger3/BpSoundTriggerHwGlobalCallback.h"
  },
  {
   "alignment" : 8,
   "linker_set_key" : "_ZTIPN4aidl7android8hardware13soundtrigger330ISoundTriggerHwCallbackDefaultE",
   "name" : "aidl::android::hardware::soundtrigger3::ISoundTriggerHwCallbackDefault *",
   "referenced_type" : "_ZTIN4aidl7android8hardware13soundtrigger330ISoundTriggerHwCallbackDefaultE",
   "self_type" : "_ZTIPN4aidl7android8hardware13soundtrigger330ISoundTriggerHwCallbackDefaultE",
   "size" : 8,
   "source_file" : "out/soong/.intermediates/hardware/interfaces/soundtrigger/aidl/android.hardware.soundtrigger3-V1-ndk-source/gen/include/aidl/android/hardware/soundtrigger3/ISoundTriggerHwCallback.h"
  },
  {
   "alignment" : 8,
   "linker_set_key" : "_ZTIPN4aidl7android8hardware13soundtrigger332ISoundTriggerHwCallbackDelegatorE",
   "name" : "aidl::android::hardware::soundtrigger3::ISoundTriggerHwCallbackDelegator *",
   "referenced_type" : "_ZTIN4aidl7android8hardware13soundtrigger332ISoundTriggerHwCallbackDelegatorE",
   "self_type" : "_ZTIPN4aidl7android8hardware13soundtrigger332ISoundTriggerHwCallbackDelegatorE",
   "size" : 8,
   "source_file" : "out/soong/.intermediates/hardware/interfaces/soundtrigger/aidl/android.hardware.soundtrigger3-V1-ndk-source/gen/include/aidl/android/hardware/soundtrigger3/BnSoundTriggerHwCallback.h"
  },
  {
   "alignment" : 8,
   "linker_set_key" : "_ZTIPN4aidl7android8hardware13soundtrigger336ISoundTriggerHwGlobalCallbackDefaultE",
   "name" : "aidl::android::hardware::soundtrigger3::ISoundTriggerHwGlobalCallbackDefault *",
   "referenced_type" : "_ZTIN4aidl7android8hardware13soundtrigger336ISoundTriggerHwGlobalCallbackDefaultE",
   "self_type" : "_ZTIPN4aidl7android8hardware13soundtrigger336ISoundTriggerHwGlobalCallbackDefaultE",
   "size" : 8,
   "source_file" : "out/soong/.intermediates/hardware/interfaces/soundtrigger/aidl/android.hardware.soundtrigger3-V1-ndk-source/gen/include/aidl/android/hardware/soundtrigger3/ISoundTriggerHwGlobalCallback.h"
  },
  {
   "alignment" : 8,
   "linker_set_key" : "_ZTIPN4aidl7android8hardware13soundtrigger338ISoundTriggerHwGlobalCallbackDelegatorE",
   "name" : "aidl::android::hardware::soundtrigger3::ISoundTriggerHwGlobalCallbackDelegator *",
   "referenced_type" : "_ZTIN4aidl7android8hardware13soundtrigger338ISoundTriggerHwGlobalCallbackDelegatorE",
   "self_type" : "_ZTIPN4aidl7android8hardware13soundtrigger338ISoundTriggerHwGlobalCallbackDelegatorE",
   "size" : 8,
   "source_file" : "out/soong/.intermediates/hardware/interfaces/soundtrigger/aidl/android.hardware.soundtrigger3-V1-ndk-source/gen/include/aidl/android/hardware/soundtrigger3/BnSoundTriggerHwGlobalCallback.h"
  },
  {
   "alignment" : 8,
   "linker_set_key" : "_ZTIPNSt3__110shared_ptrIN4aidl7android8hardware13soundtrigger315ISoundTriggerHwEEE",
   "name" : "std::shared_ptr<aidl::android::hardware::soundtrigger3::ISoundTriggerHw> *",
   "referenced_type" : "_ZTINSt3__110shared_ptrIN4aidl7android8hardware13soundtrigger315ISoundTriggerHwEEE",
   "self_type" : "_ZTIPNSt3__110shared_ptrIN4aidl7android8hardware13soundtrigger315ISoundTriggerHwEEE",
   "size" : 8,
   "source_file" : "out/soong/.intermediates/hardware/interfaces/soundtrigger/aidl/android.hardware.soundtrigger3-V1-ndk-source/gen/include/aidl/android/hardware/soundtrigger3/ISoundTriggerHw.h"
  },
  {
   "alignment" : 8,
   "linker_set_key" : "_ZTIPNSt3__110shared_ptrIN4aidl7android8hardware13soundtrigger323ISoundTriggerHwCallbackEEE",
   "name" : "std::shared_ptr<aidl::android::hardware::soundtrigger3::ISoundTriggerHwCallback> *",
   "referenced_type" : "_ZTINSt3__110shared_ptrIN4aidl7android8hardware13soundtrigger323ISoundTriggerHwCallbackEEE",
   "self_type" : "_ZTIPNSt3__110shared_ptrIN4aidl7android8hardware13soundtrigger323ISoundTriggerHwCallbackEEE",
   "size" : 8,
   "source_file" : "out/soong/.intermediates/hardware/interfaces/soundtrigger/aidl/android.hardware.soundtrigger3-V1-ndk-source/gen/include/aidl/android/hardware/soundtrigger3/ISoundTriggerHwCallback.h"
  },
  {
   "alignment" : 8,
   "linker_set_key" : "_ZTIPNSt3__110shared_ptrIN4aidl7android8hardware13soundtrigger329ISoundTriggerHwGlobalCallbackEEE",
   "name" : "std::shared_ptr<aidl::android::hardware::soundtrigger3::ISoundTriggerHwGlobalCallback> *",
   "referenced_type" : "_ZTINSt3__110shared_ptrIN4aidl7android8hardware13soundtrigger329ISoundTriggerHwGlobalCallbackEEE",
   "self_type" : "_ZTIPNSt3__110shared_ptrIN4aidl7android8hardware13soundtrigger329ISoundTriggerHwGlobalCallbackEEE",
   "size" : 8,
   "source_file" : "out/soong/.intermediates/hardware/interfaces/soundtrigger/aidl/android.hardware.soundtrigger3-V1-ndk-source/gen/include/aidl/android/hardware/soundtrigger3/ISoundTriggerHwGlobalCallback.h"
  },
  {
   "alignment" : 8,
   "linker_set_key" : "_ZTIPNSt3__112basic_stringIcNS_11char_traitsIcEENS_9allocatorIcEEEE",
   "name" : "std::basic_string<char, std::char_traits<char>, std::allocator<char>> *",
   "referenced_type" : "_ZTINSt3__112basic_stringIcNS_11char_traitsIcEENS_9allocatorIcEEEE",
   "self_type" : "_ZTIPNSt3__112basic_stringIcNS_11char_traitsIcEENS_9allocatorIcEEEE",
   "size" : 8,
   "source_file" : "out/soong/.intermediates/hardware/interfaces/soundtrigger/aidl/android.hardware.soundtrigger3-V1-ndk-source/gen/include/aidl/android/hardware/soundtrigger3/ISoundTriggerHw.h"
  },
  {
   "alignment" : 8,
   "linker_set_key" : "_ZTIPNSt3__16vectorIDsNS_9allocatorIDsEEEE",
   "name" : "std::vector<char16_t, std::allocator<char16_t>> *",
   "referenced_type" : "_ZTINSt3__16vectorIDsNS_9allocatorIDsEEEE",
   "self_type" : "_ZTIPNSt3__16vectorIDsNS_9allocatorIDsEEEE",
   "size" : 8,
   "source_file" : "frameworks/native/libs/binder/ndk/include_cpp/android/binder_parcel_utils.h"
  },
  {
   "alignment" : 8,
   "linker_set_key" : "_ZTIPNSt3__16vectorIbNS_9allocatorIbEEEE",
   "name" : "std::vector<bool, std::allocator<bool>> *",
   "referenced_type" : "_ZTINSt3__16vectorIbNS_9allocatorIbEEEE",
   "self_type" : "_ZTIPNSt3__16vectorIbNS_9allocatorIbEEEE",
   "size" : 8,
   "source_file" : "frameworks/native/libs/binder/ndk/include_cpp/android/binder_parcel_utils.h"
  },
  {
   "alignment" : 8,
   "linker_set_key" : "_ZTIPNSt3__16vectorIdNS_9allocatorIdEEEE",
   "name" : "std::vector<double, std::allocator<double>> *",
   "referenced_type" : "_ZTINSt3__16vectorIdNS_9allocatorIdEEEE",
   "self_type" : "_ZTIPNSt3__16vectorIdNS_9allocatorIdEEEE",
   "size" : 8,
   "source_file" : "frameworks/native/libs/binder/ndk/include_cpp/android/binder_parcel_utils.h"
  },
  {
   "alignment" : 8,
   "linker_set_key" : "_ZTIPNSt3__16vectorIfNS_9allocatorIfEEEE",
   "name" : "std::vector<float, std::allocator<float>> *",
   "referenced_type" : "_ZTINSt3__16vectorIfNS_9allocatorIfEEEE",
   "self_type" : "_ZTIPNSt3__16vectorIfNS_9allocatorIfEEEE",
   "size" : 8,
   "source_file" : "frameworks/native/libs/binder/ndk/include_cpp/android/binder_parcel_utils.h"
  },
  {
   "alignment" : 8,
   "linker_set_key" : "_ZTIPNSt3__16vectorIhNS_9allocatorIhEEEE",
   "name" : "std::vector<unsigned char, std::allocator<unsigned char>> *",
   "referenced_type" : "_ZTINSt3__16vectorIhNS_9allocatorIhEEEE",
   "self_type" : "_ZTIPNSt3__16vectorIhNS_9allocatorIhEEEE",
   "size" : 8,
   "source_file" : "frameworks/native/libs/binder/ndk/include_cpp/android/binder_parcel_utils.h"
  },
  {
   "alignment" : 8,
   "linker_set_key" : "_ZTIPNSt3__16vectorIiNS_9allocatorIiEEEE",
   "name" : "std::vector<int, std::allocator<int>> *",
   "referenced_type" : "_ZTINSt3__16vectorIiNS_9allocatorIiEEEE",
   "self_type" : "_ZTIPNSt3__16vectorIiNS_9allocatorIiEEEE",
   "size" : 8,
   "source_file" : "frameworks/native/libs/binder/ndk/include_cpp/android/binder_parcel_utils.h"
  },
  {
   "alignment" : 8,
   "linker_set_key" : "_ZTIPNSt3__16vectorIjNS_9allocatorIjEEEE",
   "name" : "std::vector<unsigned int, std::allocator<unsigned int>> *",
   "referenced_type" : "_ZTINSt3__16vectorIjNS_9allocatorIjEEEE",
   "self_type" : "_ZTIPNSt3__16vectorIjNS_9allocatorIjEEEE",
   "size" : 8,
   "source_file" : "frameworks/native/libs/binder/ndk/include_cpp/android/binder_parcel_utils.h"
  },
  {
   "alignment" : 8,
   "linker_set_key" : "_ZTIPNSt3__16vectorIlNS_9allocatorIlEEEE",
   "name" : "std::vector<long, std::allocator<long>> *",
   "referenced_type" : "_ZTINSt3__16vectorIlNS_9allocatorIlEEEE",
   "self_type" : "_ZTIPNSt3__16vectorIlNS_9allocatorIlEEEE",
   "size" : 8,
   "source_file" : "frameworks/native/libs/binder/ndk/include_cpp/android/binder_parcel_utils.h"
  },
  {
   "alignment" : 8,
   "linker_set_key" : "_ZTIPNSt3__16vectorImNS_9allocatorImEEEE",
   "name" : "std::vector<unsigned long, std::allocator<unsigned long>> *",
   "referenced_type" : "_ZTINSt3__16vectorImNS_9allocatorImEEEE",
   "self_type" : "_ZTIPNSt3__16vectorImNS_9allocatorImEEEE",
   "size" : 8,
   "source_file" : "frameworks/native/libs/binder/ndk/include_cpp/android/binder_parcel_utils.h"
  },
  {
   "alignment" : 8,
   "linker_set_key" : "_ZTIPNSt3__18optionalIN4aidl7android5media12soundtrigger19ModelParameterRangeEEE",
   "name" : "std::optional<aidl::android::media::soundtrigger::ModelParameterRange> *",
   "referenced_type" : "_ZTINSt3__18optionalIN4aidl7android5media12soundtrigger19ModelParameterRangeEEE",
   "self_type" : "_ZTIPNSt3__18optionalIN4aidl7android5media12soundtrigger19ModelParameterRangeEEE",
   "size" : 8,
   "source_file" : "out/soong/.intermediates/hardware/interfaces/soundtrigger/aidl/android.hardware.soundtrigger3-V1-ndk-source/gen/include/aidl/android/hardware/soundtrigger3/ISoundTriggerHw.h"
  },
  {
   "alignment" : 8,
   "linker_set_key" : "_ZTIPNSt3__18optionalINS_6vectorIDsNS_9allocatorIDsEEEEEE",
   "name" : "std::optional<std::vector<char16_t, std::allocator<char16_t>>> *",
   "referenced_type" : "_ZTINSt3__18optionalINS_6vectorIDsNS_9allocatorIDsEEEEEE",
   "self_type" : "_ZTIPNSt3__18optionalINS_6vectorIDsNS_9allocatorIDsEEEEEE",
   "size" : 8,
   "source_file" : "frameworks/native/libs/binder/ndk/include_cpp/android/binder_parcel_utils.h"
  },
  {
   "alignment" : 8,
   "linker_set_key" : "_ZTIPNSt3__18optionalINS_6vectorIbNS_9allocatorIbEEEEEE",
   "name" : "std::optional<std::vector<bool, std::allocator<bool>>> *",
   "referenced_type" : "_ZTINSt3__18optionalINS_6vectorIbNS_9allocatorIbEEEEEE",
   "self_type" : "_ZTIPNSt3__18optionalINS_6vectorIbNS_9allocatorIbEEEEEE",
   "size" : 8,
   "source_file" : "frameworks/native/libs/binder/ndk/include_cpp/android/binder_parcel_utils.h"
  },
  {
   "alignment" : 8,
   "linker_set_key" : "_ZTIPNSt3__18optionalINS_6vectorIdNS_9allocatorIdEEEEEE",
   "name" : "std::optional<std::vector<double, std::allocator<double>>> *",
   "referenced_type" : "_ZTINSt3__18optionalINS_6vectorIdNS_9allocatorIdEEEEEE",
   "self_type" : "_ZTIPNSt3__18optionalINS_6vectorIdNS_9allocatorIdEEEEEE",
   "size" : 8,
   "source_file" : "frameworks/native/libs/binder/ndk/include_cpp/android/binder_parcel_utils.h"
  },
  {
   "alignment" : 8,
   "linker_set_key" : "_ZTIPNSt3__18optionalINS_6vectorIfNS_9allocatorIfEEEEEE",
   "name" : "std::optional<std::vector<float, std::allocator<float>>> *",
   "referenced_type" : "_ZTINSt3__18optionalINS_6vectorIfNS_9allocatorIfEEEEEE",
   "self_type" : "_ZTIPNSt3__18optionalINS_6vectorIfNS_9allocatorIfEEEEEE",
   "size" : 8,
   "source_file" : "frameworks/native/libs/binder/ndk/include_cpp/android/binder_parcel_utils.h"
  },
  {
   "alignment" : 8,
   "linker_set_key" : "_ZTIPNSt3__18optionalINS_6vectorIhNS_9allocatorIhEEEEEE",
   "name" : "std::optional<std::vector<unsigned char, std::allocator<unsigned char>>> *",
   "referenced_type" : "_ZTINSt3__18optionalINS_6vectorIhNS_9allocatorIhEEEEEE",
   "self_type" : "_ZTIPNSt3__18optionalINS_6vectorIhNS_9allocatorIhEEEEEE",
   "size" : 8,
   "source_file" : "frameworks/native/libs/binder/ndk/include_cpp/android/binder_parcel_utils.h"
  },
  {
   "alignment" : 8,
   "linker_set_key" : "_ZTIPNSt3__18optionalINS_6vectorIiNS_9allocatorIiEEEEEE",
   "name" : "std::optional<std::vector<int, std::allocator<int>>> *",
   "referenced_type" : "_ZTINSt3__18optionalINS_6vectorIiNS_9allocatorIiEEEEEE",
   "self_type" : "_ZTIPNSt3__18optionalINS_6vectorIiNS_9allocatorIiEEEEEE",
   "size" : 8,
   "source_file" : "frameworks/native/libs/binder/ndk/include_cpp/android/binder_parcel_utils.h"
  },
  {
   "alignment" : 8,
   "linker_set_key" : "_ZTIPNSt3__18optionalINS_6vectorIjNS_9allocatorIjEEEEEE",
   "name" : "std::optional<std::vector<unsigned int, std::allocator<unsigned int>>> *",
   "referenced_type" : "_ZTINSt3__18optionalINS_6vectorIjNS_9allocatorIjEEEEEE",
   "self_type" : "_ZTIPNSt3__18optionalINS_6vectorIjNS_9allocatorIjEEEEEE",
   "size" : 8,
   "source_file" : "frameworks/native/libs/binder/ndk/include_cpp/android/binder_parcel_utils.h"
  },
  {
   "alignment" : 8,
   "linker_set_key" : "_ZTIPNSt3__18optionalINS_6vectorIlNS_9allocatorIlEEEEEE",
   "name" : "std::optional<std::vector<long, std::allocator<long>>> *",
   "referenced_type" : "_ZTINSt3__18optionalINS_6vectorIlNS_9allocatorIlEEEEEE",
   "self_type" : "_ZTIPNSt3__18optionalINS_6vectorIlNS_9allocatorIlEEEEEE",
   "size" : 8,
   "source_file" : "frameworks/native/libs/binder/ndk/include_cpp/android/binder_parcel_utils.h"
  },
  {
   "alignment" : 8,
   "linker_set_key" : "_ZTIPNSt3__18optionalINS_6vectorImNS_9allocatorImEEEEEE",
   "name" : "std::optional<std::vector<unsigned long, std::allocator<unsigned long>>> *",
   "referenced_type" : "_ZTINSt3__18optionalINS_6vectorImNS_9allocatorImEEEEEE",
   "self_type" : "_ZTIPNSt3__18optionalINS_6vectorImNS_9allocatorImEEEEEE",
   "size" : 8,
   "source_file" : "frameworks/native/libs/binder/ndk/include_cpp/android/binder_parcel_utils.h"
  },
  {
   "alignment" : 8,
   "linker_set_key" : "_ZTIPP7AParcel",
   "name" : "AParcel **",
   "referenced_type" : "_ZTIP7AParcel",
   "self_type" : "_ZTIPP7AParcel",
   "size" : 8,
   "source_file" : "frameworks/native/libs/binder/ndk/include_cpp/android/binder_auto_utils.h"
  },
  {
   "alignment" : 8,
   "linker_set_key" : "_ZTIPP7AStatus",
   "name" : "AStatus **",
   "referenced_type" : "_ZTIP7AStatus",
   "self_type" : "_ZTIPP7AStatus",
   "size" : 8,
   "source_file" : "frameworks/native/libs/binder/ndk/include_cpp/android/binder_auto_utils.h"
  },
  {
   "alignment" : 8,
   "linker_set_key" : "_ZTIPP8AIBinder",
   "name" : "AIBinder **",
   "referenced_type" : "_ZTIP8AIBinder",
   "self_type" : "_ZTIPP8AIBinder",
   "size" : 8,
   "source_file" : "frameworks/native/libs/binder/ndk/include_cpp/android/binder_auto_utils.h"
  },
  {
   "alignment" : 8,
   "linker_set_key" : "_ZTIPPKc",
   "name" : "const char **",
   "referenced_type" : "_ZTIPKc",
   "self_type" : "_ZTIPPKc",
   "size" : 8,
   "source_file" : "frameworks/native/libs/binder/ndk/include_cpp/android/binder_interface_utils.h"
  },
  {
   "alignment" : 8,
   "linker_set_key" : "_ZTIPi",
   "name" : "int *",
   "referenced_type" : "_ZTIi",
   "self_type" : "_ZTIPi",
   "size" : 8,
   "source_file" : "out/soong/.intermediates/hardware/interfaces/soundtrigger/aidl/android.hardware.soundtrigger3-V1-ndk-source/gen/include/aidl/android/hardware/soundtrigger3/ISoundTriggerHw.h"
  },
  {
   "alignment" : 8,
   "linker_set_key" : "_ZTIPv",
   "name" : "void *",
   "referenced_type" : "_ZTIv",
   "self_type" : "_ZTIPv",
   "size" : 8,
   "source_file" : "frameworks/native/libs/binder/ndk/include_cpp/android/binder_interface_utils.h"
  }
 ],
 "qualified_types" :
 [
  {
   "is_const" : true,
   "linker_set_key" : "_ZTIK7AParcel",
   "name" : "const AParcel",
   "referenced_type" : "_ZTI7AParcel",
   "self_type" : "_ZTIK7AParcel",
   "source_file" : "frameworks/native/libs/binder/ndk/include_cpp/android/binder_interface_utils.h"
  },
  {
   "alignment" : 8,
   "is_const" : true,
   "linker_set_key" : "_ZTIKN3ndk10SpAIBinderE",
   "name" : "const ndk::SpAIBinder",
   "referenced_type" : "_ZTIN3ndk10SpAIBinderE",
   "self_type" : "_ZTIKN3ndk10SpAIBinderE",
   "size" : 8,
   "source_file" : "frameworks/native/libs/binder/ndk/include_cpp/android/binder_auto_utils.h"
  },
  {
   "alignment" : 8,
   "is_const" : true,
   "linker_set_key" : "_ZTIKN3ndk13ScopedAParcelE",
   "name" : "const ndk::ScopedAParcel",
   "referenced_type" : "_ZTIN3ndk13ScopedAParcelE",
   "self_type" : "_ZTIKN3ndk13ScopedAParcelE",
   "size" : 8,
   "source_file" : "frameworks/native/libs/binder/ndk/include_cpp/android/binder_auto_utils.h"
  },
  {
   "alignment" : 8,
   "is_const" : true,
   "linker_set_key" : "_ZTIKN3ndk13ScopedAStatusE",
   "name" : "const ndk::ScopedAStatus",
   "referenced_type" : "_ZTIN3ndk13ScopedAStatusE",
   "self_type" : "_ZTIKN3ndk13ScopedAStatusE",
   "size" : 8,
   "source_file" : "frameworks/native/libs/binder/ndk/include_cpp/android/binder_auto_utils.h"
  },
  {
   "alignment" : 8,
   "is_const" : true,
   "linker_set_key" : "_ZTIKN3ndk17AParcelableHolderE",
   "name" : "const ndk::AParcelableHolder",
   "referenced_type" : "_ZTIN3ndk17AParcelableHolderE",
   "self_type" : "_ZTIKN3ndk17AParcelableHolderE",
   "size" : 24,
   "source_file" : "frameworks/native/libs/binder/ndk/include_cpp/android/binder_parcelable_utils.h"
  },
  {
   "alignment" : 4,
   "is_const" : true,
   "linker_set_key" : "_ZTIKN3ndk20ScopedFileDescriptorE",
   "name" : "const ndk::ScopedFileDescriptor",
   "referenced_type" : "_ZTIN3ndk20ScopedFileDescriptorE",
   "self_type" : "_ZTIKN3ndk20ScopedFileDescriptorE",
   "size" : 4,
   "source_file" : "frameworks/native/libs/binder/ndk/include_cpp/android/binder_auto_utils.h"
  },
  {
   "alignment" : 8,
   "is_const" : true,
   "linker_set_key" : "_ZTIKN3ndk4impl15ScopedAResourceIP7AParcelXadL_Z14AParcel_deleteEELS3_0EEE",
   "name" : "const ndk::impl::ScopedAResource<AParcel *, &AParcel_delete, nullptr>",
   "referenced_type" : "_ZTIN3ndk4impl15ScopedAResourceIP7AParcelXadL_Z14AParcel_deleteEELS3_0EEE",
   "self_type" : "_ZTIKN3ndk4impl15ScopedAResourceIP7AParcelXadL_Z14AParcel_deleteEELS3_0EEE",
   "size" : 8,
   "source_file" : "frameworks/native/libs/binder/ndk/include_cpp/android/binder_auto_utils.h"
  },
  {
   "alignment" : 8,
   "is_const" : true,
   "linker_set_key" : "_ZTIKN3ndk4impl15ScopedAResourceIP7AStatusXadL_Z14AStatus_deleteEELS3_0EEE",
   "name" : "const ndk::impl::ScopedAResource<AStatus *, &AStatus_delete, nullptr>",
   "referenced_type" : "_ZTIN3ndk4impl15ScopedAResourceIP7AStatusXadL_Z14AStatus_deleteEELS3_0EEE",
   "self_type" : "_ZTIKN3ndk4impl15ScopedAResourceIP7AStatusXadL_Z14AStatus_deleteEELS3_0EEE",
   "size" : 8,
   "source_file" : "frameworks/native/libs/binder/ndk/include_cpp/android/binder_auto_utils.h"
  },
  {
   "alignment" : 8,
   "is_const" : true,
   "linker_set_key" : "_ZTIKN4aidl7android5media12soundtrigger10PropertiesE",
   "name" : "const aidl::android::media::soundtrigger::Properties",
   "referenced_type" : "_ZTIN4aidl7android5media12soundtrigger10PropertiesE",
   "self_type" : "_ZTIKN4aidl7android5media12soundtrigger10PropertiesE",
   "size" : 144,
   "source_file" : "out/soong/.intermediates/frameworks/base/media/android.media.soundtrigger.types-V1-ndk-source/gen/include/aidl/android/media/soundtrigger/Properties.h"
  },
  {
   "alignment" : 8,
   "is_const" : true,
   "linker_set_key" : "_ZTIKN4aidl7android5media12soundtrigger10SoundModelE",
   "name" : "const aidl::android::media::soundtrigger::SoundModel",
   "referenced_type" : "_ZTIN4aidl7android5media12soundtrigger10SoundModelE",
   "self_type" : "_ZTIKN4aidl7android5media12soundtrigger10SoundModelE",
   "size" : 64,
   "source_file" : "frameworks/native/libs/binder/ndk/include_cpp/android/binder_to_string.h"
  },
  {
   "alignment" : 4,
   "is_const" : true,
   "linker_set_key" : "_ZTIKN4aidl7android5media12soundtrigger14SoundModelTypeE",
   "name" : "const aidl::android::media::soundtrigger::SoundModelType",
   "referenced_type" : "_ZTIN4aidl7android5media12soundtrigger14SoundModelTypeE",
   "self_type" : "_ZTIKN4aidl7android5media12soundtrigger14SoundModelTypeE",
   "size" : 4,
   "source_file" : "frameworks/native/libs/binder/ndk/include_cpp/android/binder_to_string.h"
  },
  {
   "alignment" : 4,
   "is_const" : true,
   "linker_set_key" : "_ZTIKN4aidl7android5media12soundtrigger15ConfidenceLevelE",
   "name" : "const aidl::android::media::soundtrigger::ConfidenceLevel",
   "referenced_type" : "_ZTIN4aidl7android5media12soundtrigger15ConfidenceLevelE",
   "self_type" : "_ZTIKN4aidl7android5media12soundtrigger15ConfidenceLevelE",
   "size" : 8,
   "source_file" : "frameworks/native/libs/binder/ndk/include_cpp/android/binder_to_string.h"
  },
  {
   "alignment" : 8,
   "is_const" : true,
   "linker_set_key" : "_ZTIKN4aidl7android5media12soundtrigger16PhraseSoundModelE",
   "name" : "const aidl::android::media::soundtrigger::PhraseSoundModel",
   "referenced_type" : "_ZTIN4aidl7android5media12soundtrigger16PhraseSoundModelE",
   "self_type" : "_ZTIKN4aidl7android5media12soundtrigger16PhraseSoundModelE",
   "size" : 88,
   "source_file" : "out/soong/.intermediates/frameworks/base/media/android.media.soundtrigger.types-V1-ndk-source/gen/include/aidl/android/media/soundtrigger/PhraseSoundModel.h"
  },
  {
   "alignment" : 8,
   "is_const" : true,
   "linker_set_key" : "_ZTIKN4aidl7android5media12soundtrigger16RecognitionEventE",
   "name" : "const aidl::android::media::soundtrigger::RecognitionEvent",
   "referenced_type" : "_ZTIN4aidl7android5media12soundtrigger16RecognitionEventE",
   "self_type" : "_ZTIKN4aidl7android5media12soundtrigger16RecognitionEventE",
   "size" : 216,
   "source_file" : "frameworks/native/libs/binder/ndk/include_cpp/android/binder_to_string.h"
  },
  {
   "alignment" : 8,
   "is_const" : true,
   "linker_set_key" : "_ZTIKN4aidl7android5media12soundtrigger17RecognitionConfigE",
   "name" : "const aidl::android::media::soundtrigger::RecognitionConfig",
   "referenced_type" : "_ZTIN4aidl7android5media12soundtrigger17RecognitionConfigE",
   "self_type" : "_ZTIKN4aidl7android5media12soundtrigger17RecognitionConfigE",
   "size" : 64,
   "source_file" : "out/soong/.intermediates/frameworks/base/media/android.media.soundtrigger.types-V1-ndk-source/gen/include/aidl/android/media/soundtrigger/RecognitionConfig.h"
  },
  {
   "alignment" : 4,
   "is_const" : true,
   "linker_set_key" : "_ZTIKN4aidl7android5media12soundtrigger17RecognitionStatusE",
   "name" : "const aidl::android::media::soundtrigger::RecognitionStatus",
   "referenced_type" : "_ZTIN4aidl7android5media12soundtrigger17RecognitionStatusE",
   "self_type" : "_ZTIKN4aidl7android5media12soundtrigger17RecognitionStatusE",
   "size" : 4,
   "source_file" : "frameworks/native/libs/binder/ndk/include_cpp/android/binder_to_string.h"
  },
  {
   "alignment" : 4,
   "is_const" : true,
   "linker_set_key" : "_ZTIKN4aidl7android5media12soundtrigger19ModelParameterRangeE",
   "name" : "const aidl::android::media::soundtrigger::ModelParameterRange",
   "referenced_type" : "_ZTIN4aidl7android5media12soundtrigger19ModelParameterRangeE",
   "self_type" : "_ZTIKN4aidl7android5media12soundtrigger19ModelParameterRangeE",
   "size" : 8,
   "source_file" : "out/soong/.intermediates/frameworks/base/media/android.media.soundtrigger.types-V1-ndk-source/gen/include/aidl/android/media/soundtrigger/ModelParameterRange.h"
  },
  {
   "alignment" : 8,
   "is_const" : true,
   "linker_set_key" : "_ZTIKN4aidl7android5media12soundtrigger22PhraseRecognitionEventE",
   "name" : "const aidl::android::media::soundtrigger::PhraseRecognitionEvent",
   "referenced_type" : "_ZTIN4aidl7android5media12soundtrigger22PhraseRecognitionEventE",
   "self_type" : "_ZTIKN4aidl7android5media12soundtrigger22PhraseRecognitionEventE",
   "size" : 240,
   "source_file" : "out/soong/.intermediates/frameworks/base/media/android.media.soundtrigger.types-V1-ndk-source/gen/include/aidl/android/media/soundtrigger/PhraseRecognitionEvent.h"
  },
  {
   "alignment" : 8,
   "is_const" : true,
   "linker_set_key" : "_ZTIKN4aidl7android5media12soundtrigger22PhraseRecognitionExtraE",
   "name" : "const aidl::android::media::soundtrigger::PhraseRecognitionExtra",
   "referenced_type" : "_ZTIN4aidl7android5media12soundtrigger22PhraseRecognitionExtraE",
   "self_type" : "_ZTIKN4aidl7android5media12soundtrigger22PhraseRecognitionExtraE",
   "size" : 40,
   "source_file" : "frameworks/native/libs/binder/ndk/include_cpp/android/binder_to_string.h"
  },
  {
   "alignment" : 8,
   "is_const" : true,
   "linker_set_key" : "_ZTIKN4aidl7android5media12soundtrigger6PhraseE",
   "name" : "const aidl::android::media::soundtrigger::Phrase",
   "referenced_type" : "_ZTIN4aidl7android5media12soundtrigger6PhraseE",
   "self_type" : "_ZTIKN4aidl7android5media12soundtrigger6PhraseE",
   "size" : 80,
   "source_file" : "frameworks/native/libs/binder/ndk/include_cpp/android/binder_to_string.h"
  },
  {
   "alignment" : 4,
   "is_const" : true,
   "linker_set_key" : "_ZTIKN4aidl7android5media5audio6common10AudioUsageE",
   "name" : "const aidl::android::media::audio::common::AudioUsage",
   "referenced_type" : "_ZTIN4aidl7android5media5audio6common10AudioUsageE",
   "self_type" : "_ZTIKN4aidl7android5media5audio6common10AudioUsageE",
   "size" : 4,
   "source_file" : "frameworks/native/libs/binder/ndk/include_cpp/android/binder_to_string.h"
  },
  {
   "alignment" : 8,
   "is_const" : true,
   "linker_set_key" : "_ZTIKN4aidl7android5media5audio6common11AudioConfigE",
   "name" : "const aidl::android::media::audio::common::AudioConfig",
   "referenced_type" : "_ZTIN4aidl7android5media5audio6common11AudioConfigE",
   "self_type" : "_ZTIKN4aidl7android5media5audio6common11AudioConfigE",
   "size" : 152,
   "source_file" : "frameworks/native/libs/binder/ndk/include_cpp/android/binder_to_string.h"
  },
  {
   "alignment" : 8,
   "is_const" : true,
   "linker_set_key" : "_ZTIKN4aidl7android5media5audio6common15AudioConfigBaseE",
   "name" : "const aidl::android::media::audio::common::AudioConfigBase",
   "referenced_type" : "_ZTIN4aidl7android5media5audio6common15AudioConfigBaseE",
   "self_type" : "_ZTIKN4aidl7android5media5audio6common15AudioConfigBaseE",
   "size" : 48,
   "source_file" : "frameworks/native/libs/binder/ndk/include_cpp/android/binder_to_string.h"
  },
  {
   "alignment" : 1,
   "is_const" : true,
   "linker_set_key" : "_ZTIKN4aidl7android5media5audio6common15AudioFormatTypeE",
   "name" : "const aidl::android::media::audio::common::AudioFormatType",
   "referenced_type" : "_ZTIN4aidl7android5media5audio6common15AudioFormatTypeE",
   "self_type" : "_ZTIKN4aidl7android5media5audio6common15AudioFormatTypeE",
   "size" : 1,
   "source_file" : "frameworks/native/libs/binder/ndk/include_cpp/android/binder_to_string.h"
  },
  {
   "alignment" : 4,
   "is_const" : true,
   "linker_set_key" : "_ZTIKN4aidl7android5media5audio6common15AudioStreamTypeE",
   "name" : "const aidl::android::media::audio::common::AudioStreamType",
   "referenced_type" : "_ZTIN4aidl7android5media5audio6common15AudioStreamTypeE",
   "self_type" : "_ZTIKN4aidl7android5media5audio6common15AudioStreamTypeE",
   "size" : 4,
   "source_file" : "frameworks/native/libs/binder/ndk/include_cpp/android/binder_to_string.h"
  },
  {
   "alignment" : 8,
   "is_const" : true,
   "linker_set_key" : "_ZTIKN4aidl7android5media5audio6common16AudioOffloadInfoE",
   "name" : "const aidl::android::media::audio::common::AudioOffloadInfo",
   "referenced_type" : "_ZTIN4aidl7android5media5audio6common16AudioOffloadInfoE",
   "self_type" : "_ZTIKN4aidl7android5media5audio6common16AudioOffloadInfoE",
   "size" : 96,
   "source_file" : "frameworks/native/libs/binder/ndk/include_cpp/android/binder_to_string.h"
  },
  {
   "alignment" : 4,
   "is_const" : true,
   "linker_set_key" : "_ZTIKN4aidl7android5media5audio6common18AudioChannelLayout3TagE",
   "name" : "const aidl::android::media::audio::common::AudioChannelLayout::Tag",
   "referenced_type" : "_ZTIN4aidl7android5media5audio6common18AudioChannelLayout3TagE",
   "self_type" : "_ZTIKN4aidl7android5media5audio6common18AudioChannelLayout3TagE",
   "size" : 4,
   "source_file" : "out/soong/.intermediates/frameworks/base/media/android.media.audio.common.types-V1-ndk-source/gen/include/aidl/android/media/audio/common/AudioChannelLayout.h"
  },
  {
   "alignment" : 4,
   "is_const" : true,
   "linker_set_key" : "_ZTIKN4aidl7android5media5audio6common18AudioChannelLayoutE",
   "name" : "const aidl::android::media::audio::common::AudioChannelLayout",
   "referenced_type" : "_ZTIN4aidl7android5media5audio6common18AudioChannelLayoutE",
   "self_type" : "_ZTIKN4aidl7android5media5audio6common18AudioChannelLayoutE",
   "size" : 8,
   "source_file" : "frameworks/native/libs/binder/ndk/include_cpp/android/binder_to_string.h"
  },
  {
   "alignment" : 1,
   "is_const" : true,
   "linker_set_key" : "_ZTIKN4aidl7android5media5audio6common22AudioEncapsulationModeE",
   "name" : "const aidl::android::media::audio::common::AudioEncapsulationMode",
   "referenced_type" : "_ZTIN4aidl7android5media5audio6common22AudioEncapsulationModeE",
   "self_type" : "_ZTIKN4aidl7android5media5audio6common22AudioEncapsulationModeE",
   "size" : 1,
   "source_file" : "frameworks/native/libs/binder/ndk/include_cpp/android/binder_to_string.h"
  },
  {
   "alignment" : 8,
   "is_const" : true,
   "linker_set_key" : "_ZTIKN4aidl7android5media5audio6common22AudioFormatDescriptionE",
   "name" : "const aidl::android::media::audio::common::AudioFormatDescription",
   "referenced_type" : "_ZTIN4aidl7android5media5audio6common22AudioFormatDescriptionE",
   "self_type" : "_ZTIKN4aidl7android5media5audio6common22AudioFormatDescriptionE",
   "size" : 32,
   "source_file" : "frameworks/native/libs/binder/ndk/include_cpp/android/binder_to_string.h"
  },
  {
   "alignment" : 1,
   "is_const" : true,
   "linker_set_key" : "_ZTIKN4aidl7android5media5audio6common7PcmTypeE",
   "name" : "const aidl::android::media::audio::common::PcmType",
   "referenced_type" : "_ZTIN4aidl7android5media5audio6common7PcmTypeE",
   "self_type" : "_ZTIKN4aidl7android5media5audio6common7PcmTypeE",
   "size" : 1,
   "source_file" : "frameworks/native/libs/binder/ndk/include_cpp/android/binder_to_string.h"
  },
  {
   "alignment" : 8,
   "is_const" : true,
   "linker_set_key" : "_ZTIKNSt3__110shared_ptrIN4aidl7android8hardware13soundtrigger315ISoundTriggerHwEEE",
   "name" : "const std::shared_ptr<aidl::android::hardware::soundtrigger3::ISoundTriggerHw>",
   "referenced_type" : "_ZTINSt3__110shared_ptrIN4aidl7android8hardware13soundtrigger315ISoundTriggerHwEEE",
   "self_type" : "_ZTIKNSt3__110shared_ptrIN4aidl7android8hardware13soundtrigger315ISoundTriggerHwEEE",
   "size" : 16,
   "source_file" : "out/soong/.intermediates/hardware/interfaces/soundtrigger/aidl/android.hardware.soundtrigger3-V1-ndk-source/gen/include/aidl/android/hardware/soundtrigger3/ISoundTriggerHw.h"
  },
  {
   "alignment" : 8,
   "is_const" : true,
   "linker_set_key" : "_ZTIKNSt3__110shared_ptrIN4aidl7android8hardware13soundtrigger323ISoundTriggerHwCallbackEEE",
   "name" : "const std::shared_ptr<aidl::android::hardware::soundtrigger3::ISoundTriggerHwCallback>",
   "referenced_type" : "_ZTINSt3__110shared_ptrIN4aidl7android8hardware13soundtrigger323ISoundTriggerHwCallbackEEE",
   "self_type" : "_ZTIKNSt3__110shared_ptrIN4aidl7android8hardware13soundtrigger323ISoundTriggerHwCallbackEEE",
   "size" : 16,
   "source_file" : "out/soong/.intermediates/hardware/interfaces/soundtrigger/aidl/android.hardware.soundtrigger3-V1-ndk-source/gen/include/aidl/android/hardware/soundtrigger3/ISoundTriggerHw.h"
  },
  {
   "alignment" : 8,
   "is_const" : true,
   "linker_set_key" : "_ZTIKNSt3__110shared_ptrIN4aidl7android8hardware13soundtrigger329ISoundTriggerHwGlobalCallbackEEE",
   "name" : "const std::shared_ptr<aidl::android::hardware::soundtrigger3::ISoundTriggerHwGlobalCallback>",
   "referenced_type" : "_ZTINSt3__110shared_ptrIN4aidl7android8hardware13soundtrigger329ISoundTriggerHwGlobalCallbackEEE",
   "self_type" : "_ZTIKNSt3__110shared_ptrIN4aidl7android8hardware13soundtrigger329ISoundTriggerHwGlobalCallbackEEE",
   "size" : 16,
   "source_file" : "out/soong/.intermediates/hardware/interfaces/soundtrigger/aidl/android.hardware.soundtrigger3-V1-ndk-source/gen/include/aidl/android/hardware/soundtrigger3/ISoundTriggerHw.h"
  },
  {
   "alignment" : 8,
   "is_const" : true,
   "linker_set_key" : "_ZTIKNSt3__112basic_stringIcNS_11char_traitsIcEENS_9allocatorIcEEEE",
   "name" : "const std::basic_string<char, std::char_traits<char>, std::allocator<char>>",
   "referenced_type" : "_ZTINSt3__112basic_stringIcNS_11char_traitsIcEENS_9allocatorIcEEEE",
   "self_type" : "_ZTIKNSt3__112basic_stringIcNS_11char_traitsIcEENS_9allocatorIcEEEE",
   "size" : 24,
   "source_file" : "frameworks/native/libs/binder/ndk/include_cpp/android/binder_to_string.h"
  },
  {
   "alignment" : 4,
   "is_const" : true,
   "linker_set_key" : "_ZTIKNSt3__15arrayIN4aidl7android5media12soundtrigger14ModelParameterELm2EEE",
   "name" : "const std::array<aidl::android::media::soundtrigger::ModelParameter, 2UL>",
   "referenced_type" : "_ZTINSt3__15arrayIN4aidl7android5media12soundtrigger14ModelParameterELm2EEE",
   "self_type" : "_ZTIKNSt3__15arrayIN4aidl7android5media12soundtrigger14ModelParameterELm2EEE",
   "size" : 8,
   "source_file" : "out/soong/.intermediates/frameworks/base/media/android.media.soundtrigger.types-V1-ndk-source/gen/include/aidl/android/media/soundtrigger/ModelParameter.h"
  },
  {
   "alignment" : 4,
   "is_const" : true,
   "linker_set_key" : "_ZTIKNSt3__15arrayIN4aidl7android5media12soundtrigger14SoundModelTypeELm3EEE",
   "name" : "const std::array<aidl::android::media::soundtrigger::SoundModelType, 3UL>",
   "referenced_type" : "_ZTINSt3__15arrayIN4aidl7android5media12soundtrigger14SoundModelTypeELm3EEE",
   "self_type" : "_ZTIKNSt3__15arrayIN4aidl7android5media12soundtrigger14SoundModelTypeELm3EEE",
   "size" : 12,
   "source_file" : "out/soong/.intermediates/frameworks/base/media/android.media.soundtrigger.types-V1-ndk-source/gen/include/aidl/android/media/soundtrigger/SoundModelType.h"
  },
  {
   "alignment" : 4,
   "is_const" : true,
   "linker_set_key" : "_ZTIKNSt3__15arrayIN4aidl7android5media12soundtrigger17RecognitionStatusELm5EEE",
   "name" : "const std::array<aidl::android::media::soundtrigger::RecognitionStatus, 5UL>",
   "referenced_type" : "_ZTINSt3__15arrayIN4aidl7android5media12soundtrigger17RecognitionStatusELm5EEE",
   "self_type" : "_ZTIKNSt3__15arrayIN4aidl7android5media12soundtrigger17RecognitionStatusELm5EEE",
   "size" : 20,
   "source_file" : "out/soong/.intermediates/frameworks/base/media/android.media.soundtrigger.types-V1-ndk-source/gen/include/aidl/android/media/soundtrigger/RecognitionStatus.h"
  },
  {
   "alignment" : 4,
   "is_const" : true,
   "linker_set_key" : "_ZTIKNSt3__15arrayIN4aidl7android5media5audio6common10AudioUsageELm23EEE",
   "name" : "const std::array<aidl::android::media::audio::common::AudioUsage, 23UL>",
   "referenced_type" : "_ZTINSt3__15arrayIN4aidl7android5media5audio6common10AudioUsageELm23EEE",
   "self_type" : "_ZTIKNSt3__15arrayIN4aidl7android5media5audio6common10AudioUsageELm23EEE",
   "size" : 92,
   "source_file" : "out/soong/.intermediates/frameworks/base/media/android.media.audio.common.types-V1-ndk-source/gen/include/aidl/android/media/audio/common/AudioUsage.h"
  },
  {
   "alignment" : 1,
   "is_const" : true,
   "linker_set_key" : "_ZTIKNSt3__15arrayIN4aidl7android5media5audio6common15AudioFormatTypeELm4EEE",
   "name" : "const std::array<aidl::android::media::audio::common::AudioFormatType, 4UL>",
   "referenced_type" : "_ZTINSt3__15arrayIN4aidl7android5media5audio6common15AudioFormatTypeELm4EEE",
   "self_type" : "_ZTIKNSt3__15arrayIN4aidl7android5media5audio6common15AudioFormatTypeELm4EEE",
   "size" : 4,
   "source_file" : "out/soong/.intermediates/frameworks/base/media/android.media.audio.common.types-V1-ndk-source/gen/include/aidl/android/media/audio/common/AudioFormatType.h"
  },
  {
   "alignment" : 4,
   "is_const" : true,
   "linker_set_key" : "_ZTIKNSt3__15arrayIN4aidl7android5media5audio6common15AudioStreamTypeELm17EEE",
   "name" : "const std::array<aidl::android::media::audio::common::AudioStreamType, 17UL>",
   "referenced_type" : "_ZTINSt3__15arrayIN4aidl7android5media5audio6common15AudioStreamTypeELm17EEE",
   "self_type" : "_ZTIKNSt3__15arrayIN4aidl7android5media5audio6common15AudioStreamTypeELm17EEE",
   "size" : 68,
   "source_file" : "out/soong/.intermediates/frameworks/base/media/android.media.audio.common.types-V1-ndk-source/gen/include/aidl/android/media/audio/common/AudioStreamType.h"
  },
  {
   "alignment" : 4,
   "is_const" : true,
   "linker_set_key" : "_ZTIKNSt3__15arrayIN4aidl7android5media5audio6common18AudioChannelLayout3TagELm5EEE",
   "name" : "const std::array<aidl::android::media::audio::common::AudioChannelLayout::Tag, 5UL>",
   "referenced_type" : "_ZTINSt3__15arrayIN4aidl7android5media5audio6common18AudioChannelLayout3TagELm5EEE",
   "self_type" : "_ZTIKNSt3__15arrayIN4aidl7android5media5audio6common18AudioChannelLayout3TagELm5EEE",
   "size" : 20,
   "source_file" : "out/soong/.intermediates/frameworks/base/media/android.media.audio.common.types-V1-ndk-source/gen/include/aidl/android/media/audio/common/AudioChannelLayout.h"
  },
  {
   "alignment" : 1,
   "is_const" : true,
   "linker_set_key" : "_ZTIKNSt3__15arrayIN4aidl7android5media5audio6common22AudioEncapsulationModeELm4EEE",
   "name" : "const std::array<aidl::android::media::audio::common::AudioEncapsulationMode, 4UL>",
   "referenced_type" : "_ZTINSt3__15arrayIN4aidl7android5media5audio6common22AudioEncapsulationModeELm4EEE",
   "self_type" : "_ZTIKNSt3__15arrayIN4aidl7android5media5audio6common22AudioEncapsulationModeELm4EEE",
   "size" : 4,
   "source_file" : "out/soong/.intermediates/frameworks/base/media/android.media.audio.common.types-V1-ndk-source/gen/include/aidl/android/media/audio/common/AudioEncapsulationMode.h"
  },
  {
   "alignment" : 1,
   "is_const" : true,
   "linker_set_key" : "_ZTIKNSt3__15arrayIN4aidl7android5media5audio6common7PcmTypeELm7EEE",
   "name" : "const std::array<aidl::android::media::audio::common::PcmType, 7UL>",
   "referenced_type" : "_ZTINSt3__15arrayIN4aidl7android5media5audio6common7PcmTypeELm7EEE",
   "self_type" : "_ZTIKNSt3__15arrayIN4aidl7android5media5audio6common7PcmTypeELm7EEE",
   "size" : 7,
   "source_file" : "out/soong/.intermediates/frameworks/base/media/android.media.audio.common.types-V1-ndk-source/gen/include/aidl/android/media/audio/common/PcmType.h"
  },
  {
   "alignment" : 8,
   "is_const" : true,
   "linker_set_key" : "_ZTIKNSt3__16vectorIDsNS_9allocatorIDsEEEE",
   "name" : "const std::vector<char16_t, std::allocator<char16_t>>",
   "referenced_type" : "_ZTINSt3__16vectorIDsNS_9allocatorIDsEEEE",
   "self_type" : "_ZTIKNSt3__16vectorIDsNS_9allocatorIDsEEEE",
   "size" : 24,
   "source_file" : "frameworks/native/libs/binder/ndk/include_cpp/android/binder_parcel_utils.h"
  },
  {
   "alignment" : 8,
   "is_const" : true,
   "linker_set_key" : "_ZTIKNSt3__16vectorIN4aidl7android5media12soundtrigger15ConfidenceLevelENS_9allocatorIS5_EEEE",
   "name" : "const std::vector<aidl::android::media::soundtrigger::ConfidenceLevel, std::allocator<aidl::android::media::soundtrigger::ConfidenceLevel>>",
   "referenced_type" : "_ZTINSt3__16vectorIN4aidl7android5media12soundtrigger15ConfidenceLevelENS_9allocatorIS5_EEEE",
   "self_type" : "_ZTIKNSt3__16vectorIN4aidl7android5media12soundtrigger15ConfidenceLevelENS_9allocatorIS5_EEEE",
   "size" : 24,
   "source_file" : "frameworks/native/libs/binder/ndk/include_cpp/android/binder_to_string.h"
  },
  {
   "alignment" : 8,
   "is_const" : true,
   "linker_set_key" : "_ZTIKNSt3__16vectorIN4aidl7android5media12soundtrigger22PhraseRecognitionExtraENS_9allocatorIS5_EEEE",
   "name" : "const std::vector<aidl::android::media::soundtrigger::PhraseRecognitionExtra, std::allocator<aidl::android::media::soundtrigger::PhraseRecognitionExtra>>",
   "referenced_type" : "_ZTINSt3__16vectorIN4aidl7android5media12soundtrigger22PhraseRecognitionExtraENS_9allocatorIS5_EEEE",
   "self_type" : "_ZTIKNSt3__16vectorIN4aidl7android5media12soundtrigger22PhraseRecognitionExtraENS_9allocatorIS5_EEEE",
   "size" : 24,
   "source_file" : "frameworks/native/libs/binder/ndk/include_cpp/android/binder_to_string.h"
  },
  {
   "alignment" : 8,
   "is_const" : true,
   "linker_set_key" : "_ZTIKNSt3__16vectorIN4aidl7android5media12soundtrigger6PhraseENS_9allocatorIS5_EEEE",
   "name" : "const std::vector<aidl::android::media::soundtrigger::Phrase, std::allocator<aidl::android::media::soundtrigger::Phrase>>",
   "referenced_type" : "_ZTINSt3__16vectorIN4aidl7android5media12soundtrigger6PhraseENS_9allocatorIS5_EEEE",
   "self_type" : "_ZTIKNSt3__16vectorIN4aidl7android5media12soundtrigger6PhraseENS_9allocatorIS5_EEEE",
   "size" : 24,
   "source_file" : "frameworks/native/libs/binder/ndk/include_cpp/android/binder_to_string.h"
  },
  {
   "alignment" : 8,
   "is_const" : true,
   "linker_set_key" : "_ZTIKNSt3__16vectorIbNS_9allocatorIbEEEE",
   "name" : "const std::vector<bool, std::allocator<bool>>",
   "referenced_type" : "_ZTINSt3__16vectorIbNS_9allocatorIbEEEE",
   "self_type" : "_ZTIKNSt3__16vectorIbNS_9allocatorIbEEEE",
   "size" : 24,
   "source_file" : "frameworks/native/libs/binder/ndk/include_cpp/android/binder_parcel_utils.h"
  },
  {
   "alignment" : 8,
   "is_const" : true,
   "linker_set_key" : "_ZTIKNSt3__16vectorIdNS_9allocatorIdEEEE",
   "name" : "const std::vector<double, std::allocator<double>>",
   "referenced_type" : "_ZTINSt3__16vectorIdNS_9allocatorIdEEEE",
   "self_type" : "_ZTIKNSt3__16vectorIdNS_9allocatorIdEEEE",
   "size" : 24,
   "source_file" : "frameworks/native/libs/binder/ndk/include_cpp/android/binder_parcel_utils.h"
  },
  {
   "alignment" : 8,
   "is_const" : true,
   "linker_set_key" : "_ZTIKNSt3__16vectorIfNS_9allocatorIfEEEE",
   "name" : "const std::vector<float, std::allocator<float>>",
   "referenced_type" : "_ZTINSt3__16vectorIfNS_9allocatorIfEEEE",
   "self_type" : "_ZTIKNSt3__16vectorIfNS_9allocatorIfEEEE",
   "size" : 24,
   "source_file" : "frameworks/native/libs/binder/ndk/include_cpp/android/binder_parcel_utils.h"
  },
  {
   "alignment" : 8,
   "is_const" : true,
   "linker_set_key" : "_ZTIKNSt3__16vectorIhNS_9allocatorIhEEEE",
   "name" : "const std::vector<unsigned char, std::allocator<unsigned char>>",
   "referenced_type" : "_ZTINSt3__16vectorIhNS_9allocatorIhEEEE",
   "self_type" : "_ZTIKNSt3__16vectorIhNS_9allocatorIhEEEE",
   "size" : 24,
   "source_file" : "frameworks/native/libs/binder/ndk/include_cpp/android/binder_parcel_utils.h"
  },
  {
   "alignment" : 8,
   "is_const" : true,
   "linker_set_key" : "_ZTIKNSt3__16vectorIiNS_9allocatorIiEEEE",
   "name" : "const std::vector<int, std::allocator<int>>",
   "referenced_type" : "_ZTINSt3__16vectorIiNS_9allocatorIiEEEE",
   "self_type" : "_ZTIKNSt3__16vectorIiNS_9allocatorIiEEEE",
   "size" : 24,
   "source_file" : "frameworks/native/libs/binder/ndk/include_cpp/android/binder_parcel_utils.h"
  },
  {
   "alignment" : 8,
   "is_const" : true,
   "linker_set_key" : "_ZTIKNSt3__16vectorIjNS_9allocatorIjEEEE",
   "name" : "const std::vector<unsigned int, std::allocator<unsigned int>>",
   "referenced_type" : "_ZTINSt3__16vectorIjNS_9allocatorIjEEEE",
   "self_type" : "_ZTIKNSt3__16vectorIjNS_9allocatorIjEEEE",
   "size" : 24,
   "source_file" : "frameworks/native/libs/binder/ndk/include_cpp/android/binder_parcel_utils.h"
  },
  {
   "alignment" : 8,
   "is_const" : true,
   "linker_set_key" : "_ZTIKNSt3__16vectorIlNS_9allocatorIlEEEE",
   "name" : "const std::vector<long, std::allocator<long>>",
   "referenced_type" : "_ZTINSt3__16vectorIlNS_9allocatorIlEEEE",
   "self_type" : "_ZTIKNSt3__16vectorIlNS_9allocatorIlEEEE",
   "size" : 24,
   "source_file" : "frameworks/native/libs/binder/ndk/include_cpp/android/binder_parcel_utils.h"
  },
  {
   "alignment" : 8,
   "is_const" : true,
   "linker_set_key" : "_ZTIKNSt3__16vectorImNS_9allocatorImEEEE",
   "name" : "const std::vector<unsigned long, std::allocator<unsigned long>>",
   "referenced_type" : "_ZTINSt3__16vectorImNS_9allocatorImEEEE",
   "self_type" : "_ZTIKNSt3__16vectorImNS_9allocatorImEEEE",
   "size" : 24,
   "source_file" : "frameworks/native/libs/binder/ndk/include_cpp/android/binder_parcel_utils.h"
  },
  {
   "alignment" : 8,
   "is_const" : true,
   "linker_set_key" : "_ZTIKNSt3__18optionalIN4aidl7android5media5audio6common11AudioConfigEEE",
   "name" : "const std::optional<aidl::android::media::audio::common::AudioConfig>",
   "referenced_type" : "_ZTINSt3__18optionalIN4aidl7android5media5audio6common11AudioConfigEEE",
   "self_type" : "_ZTIKNSt3__18optionalIN4aidl7android5media5audio6common11AudioConfigEEE",
   "size" : 160,
   "source_file" : "frameworks/native/libs/binder/ndk/include_cpp/android/binder_to_string.h"
  },
  {
   "alignment" : 8,
   "is_const" : true,
   "linker_set_key" : "_ZTIKNSt3__18optionalINS_6vectorIDsNS_9allocatorIDsEEEEEE",
   "name" : "const std::optional<std::vector<char16_t, std::allocator<char16_t>>>",
   "referenced_type" : "_ZTINSt3__18optionalINS_6vectorIDsNS_9allocatorIDsEEEEEE",
   "self_type" : "_ZTIKNSt3__18optionalINS_6vectorIDsNS_9allocatorIDsEEEEEE",
   "size" : 32,
   "source_file" : "frameworks/native/libs/binder/ndk/include_cpp/android/binder_parcel_utils.h"
  },
  {
   "alignment" : 8,
   "is_const" : true,
   "linker_set_key" : "_ZTIKNSt3__18optionalINS_6vectorIbNS_9allocatorIbEEEEEE",
   "name" : "const std::optional<std::vector<bool, std::allocator<bool>>>",
   "referenced_type" : "_ZTINSt3__18optionalINS_6vectorIbNS_9allocatorIbEEEEEE",
   "self_type" : "_ZTIKNSt3__18optionalINS_6vectorIbNS_9allocatorIbEEEEEE",
   "size" : 32,
   "source_file" : "frameworks/native/libs/binder/ndk/include_cpp/android/binder_parcel_utils.h"
  },
  {
   "alignment" : 8,
   "is_const" : true,
   "linker_set_key" : "_ZTIKNSt3__18optionalINS_6vectorIdNS_9allocatorIdEEEEEE",
   "name" : "const std::optional<std::vector<double, std::allocator<double>>>",
   "referenced_type" : "_ZTINSt3__18optionalINS_6vectorIdNS_9allocatorIdEEEEEE",
   "self_type" : "_ZTIKNSt3__18optionalINS_6vectorIdNS_9allocatorIdEEEEEE",
   "size" : 32,
   "source_file" : "frameworks/native/libs/binder/ndk/include_cpp/android/binder_parcel_utils.h"
  },
  {
   "alignment" : 8,
   "is_const" : true,
   "linker_set_key" : "_ZTIKNSt3__18optionalINS_6vectorIfNS_9allocatorIfEEEEEE",
   "name" : "const std::optional<std::vector<float, std::allocator<float>>>",
   "referenced_type" : "_ZTINSt3__18optionalINS_6vectorIfNS_9allocatorIfEEEEEE",
   "self_type" : "_ZTIKNSt3__18optionalINS_6vectorIfNS_9allocatorIfEEEEEE",
   "size" : 32,
   "source_file" : "frameworks/native/libs/binder/ndk/include_cpp/android/binder_parcel_utils.h"
  },
  {
   "alignment" : 8,
   "is_const" : true,
   "linker_set_key" : "_ZTIKNSt3__18optionalINS_6vectorIhNS_9allocatorIhEEEEEE",
   "name" : "const std::optional<std::vector<unsigned char, std::allocator<unsigned char>>>",
   "referenced_type" : "_ZTINSt3__18optionalINS_6vectorIhNS_9allocatorIhEEEEEE",
   "self_type" : "_ZTIKNSt3__18optionalINS_6vectorIhNS_9allocatorIhEEEEEE",
   "size" : 32,
   "source_file" : "frameworks/native/libs/binder/ndk/include_cpp/android/binder_parcel_utils.h"
  },
  {
   "alignment" : 8,
   "is_const" : true,
   "linker_set_key" : "_ZTIKNSt3__18optionalINS_6vectorIiNS_9allocatorIiEEEEEE",
   "name" : "const std::optional<std::vector<int, std::allocator<int>>>",
   "referenced_type" : "_ZTINSt3__18optionalINS_6vectorIiNS_9allocatorIiEEEEEE",
   "self_type" : "_ZTIKNSt3__18optionalINS_6vectorIiNS_9allocatorIiEEEEEE",
   "size" : 32,
   "source_file" : "frameworks/native/libs/binder/ndk/include_cpp/android/binder_parcel_utils.h"
  },
  {
   "alignment" : 8,
   "is_const" : true,
   "linker_set_key" : "_ZTIKNSt3__18optionalINS_6vectorIjNS_9allocatorIjEEEEEE",
   "name" : "const std::optional<std::vector<unsigned int, std::allocator<unsigned int>>>",
   "referenced_type" : "_ZTINSt3__18optionalINS_6vectorIjNS_9allocatorIjEEEEEE",
   "self_type" : "_ZTIKNSt3__18optionalINS_6vectorIjNS_9allocatorIjEEEEEE",
   "size" : 32,
   "source_file" : "frameworks/native/libs/binder/ndk/include_cpp/android/binder_parcel_utils.h"
  },
  {
   "alignment" : 8,
   "is_const" : true,
   "linker_set_key" : "_ZTIKNSt3__18optionalINS_6vectorIlNS_9allocatorIlEEEEEE",
   "name" : "const std::optional<std::vector<long, std::allocator<long>>>",
   "referenced_type" : "_ZTINSt3__18optionalINS_6vectorIlNS_9allocatorIlEEEEEE",
   "self_type" : "_ZTIKNSt3__18optionalINS_6vectorIlNS_9allocatorIlEEEEEE",
   "size" : 32,
   "source_file" : "frameworks/native/libs/binder/ndk/include_cpp/android/binder_parcel_utils.h"
  },
  {
   "alignment" : 8,
   "is_const" : true,
   "linker_set_key" : "_ZTIKNSt3__18optionalINS_6vectorImNS_9allocatorImEEEEEE",
   "name" : "const std::optional<std::vector<unsigned long, std::allocator<unsigned long>>>",
   "referenced_type" : "_ZTINSt3__18optionalINS_6vectorImNS_9allocatorImEEEEEE",
   "self_type" : "_ZTIKNSt3__18optionalINS_6vectorImNS_9allocatorImEEEEEE",
   "size" : 32,
   "source_file" : "frameworks/native/libs/binder/ndk/include_cpp/android/binder_parcel_utils.h"
  },
  {
   "alignment" : 8,
   "is_const" : true,
   "linker_set_key" : "_ZTIKP7AParcel",
   "name" : "AParcel *const",
   "referenced_type" : "_ZTIP7AParcel",
   "self_type" : "_ZTIKP7AParcel",
   "size" : 8,
   "source_file" : "frameworks/native/libs/binder/ndk/include_cpp/android/binder_auto_utils.h"
  },
  {
   "alignment" : 8,
   "is_const" : true,
   "linker_set_key" : "_ZTIKP7AStatus",
   "name" : "AStatus *const",
   "referenced_type" : "_ZTIP7AStatus",
   "self_type" : "_ZTIKP7AStatus",
   "size" : 8,
   "source_file" : "frameworks/native/libs/binder/ndk/include_cpp/android/binder_auto_utils.h"
  },
  {
   "alignment" : 1,
   "is_const" : true,
   "linker_set_key" : "_ZTIKb",
   "name" : "const bool",
   "referenced_type" : "_ZTIb",
   "self_type" : "_ZTIKb",
   "size" : 1,
   "source_file" : "frameworks/native/libs/binder/ndk/include_cpp/android/binder_parcel_utils.h"
  },
  {
   "alignment" : 1,
   "is_const" : true,
   "linker_set_key" : "_ZTIKc",
   "name" : "const char",
   "referenced_type" : "_ZTIc",
   "self_type" : "_ZTIKc",
   "size" : 1,
   "source_file" : "frameworks/native/libs/binder/ndk/include_cpp/android/binder_auto_utils.h"
  },
  {
   "alignment" : 1,
   "is_const" : true,
   "linker_set_key" : "_ZTIKh",
   "name" : "const unsigned char",
   "referenced_type" : "_ZTIh",
   "self_type" : "_ZTIKh",
   "size" : 1,
   "source_file" : "frameworks/native/libs/binder/ndk/include_cpp/android/binder_to_string.h"
  },
  {
   "alignment" : 4,
   "is_const" : true,
   "linker_set_key" : "_ZTIKi",
   "name" : "const int",
   "referenced_type" : "_ZTIi",
   "self_type" : "_ZTIKi",
   "size" : 4,
   "source_file" : "frameworks/native/libs/binder/ndk/include_cpp/android/binder_to_string.h"
  },
  {
   "alignment" : 4,
   "is_const" : true,
   "linker_set_key" : "_ZTIKj",
   "name" : "const unsigned int",
   "referenced_type" : "_ZTIj",
   "self_type" : "_ZTIKj",
   "size" : 4,
   "source_file" : "out/soong/.intermediates/hardware/interfaces/soundtrigger/aidl/android.hardware.soundtrigger3-V1-ndk-source/gen/include/aidl/android/hardware/soundtrigger3/ISoundTriggerHwCallback.h"
  },
  {
   "alignment" : 8,
   "is_const" : true,
   "linker_set_key" : "_ZTIKl",
   "name" : "const long",
   "referenced_type" : "_ZTIl",
   "self_type" : "_ZTIKl",
   "size" : 8,
   "source_file" : "frameworks/native/libs/binder/ndk/include_cpp/android/binder_to_string.h"
  },
  {
   "is_const" : true,
   "linker_set_key" : "_ZTIKv",
   "name" : "const void",
   "referenced_type" : "_ZTIv",
   "self_type" : "_ZTIKv",
   "source_file" : "frameworks/native/libs/binder/ndk/include_cpp/android/binder_parcel_utils.h"
  }
 ],
 "record_types" :
 [
  {
   "alignment" : 8,
   "fields" :
   [
    {
     "access" : "private",
     "field_name" : "mBinder",
     "referenced_type" : "_ZTIP8AIBinder"
    }
   ],
   "linker_set_key" : "_ZTIN3ndk10SpAIBinderE",
   "name" : "ndk::SpAIBinder",
   "record_kind" : "class",
   "referenced_type" : "_ZTIN3ndk10SpAIBinderE",
   "self_type" : "_ZTIN3ndk10SpAIBinderE",
   "size" : 8,
   "source_file" : "frameworks/native/libs/binder/ndk/include_cpp/android/binder_auto_utils.h"
  },
  {
   "access" : "private",
   "alignment" : 8,
   "fields" :
   [
    {
     "field_name" : "interface",
     "referenced_type" : "_ZTINSt3__110shared_ptrIN3ndk11ICInterfaceEEE"
    }
   ],
   "linker_set_key" : "_ZTIN3ndk11ICInterface15ICInterfaceDataE",
   "name" : "ndk::ICInterface::ICInterfaceData",
   "record_kind" : "class",
   "referenced_type" : "_ZTIN3ndk11ICInterface15ICInterfaceDataE",
   "self_type" : "_ZTIN3ndk11ICInterface15ICInterfaceDataE",
   "size" : 16,
   "source_file" : "frameworks/native/libs/binder/ndk/include_cpp/android/binder_interface_utils.h"
  },
  {
   "alignment" : 8,
   "base_specifiers" :
   [
    {
     "referenced_type" : "_ZTIN3ndk13SharedRefBaseE"
    }
   ],
   "linker_set_key" : "_ZTIN3ndk11ICInterfaceE",
   "name" : "ndk::ICInterface",
   "record_kind" : "class",
   "referenced_type" : "_ZTIN3ndk11ICInterfaceE",
   "self_type" : "_ZTIN3ndk11ICInterfaceE",
   "size" : 32,
   "source_file" : "frameworks/native/libs/binder/ndk/include_cpp/android/binder_interface_utils.h",
   "vtable_components" :
   [
    {
     "kind" : "offset_to_top"
    },
    {
     "kind" : "rtti",
     "mangled_component_name" : "_ZTIN3ndk11ICInterfaceE"
    },
    {
     "kind" : "complete_dtor_pointer",
     "mangled_component_name" : "_ZN3ndk11ICInterfaceD1Ev"
    },
    {
     "kind" : "deleting_dtor_pointer",
     "mangled_component_name" : "_ZN3ndk11ICInterfaceD0Ev"
    },
    {
     "is_pure" : true,
     "mangled_component_name" : "_ZN3ndk11ICInterface8asBinderEv"
    },
    {
     "is_pure" : true,
     "mangled_component_name" : "_ZN3ndk11ICInterface8isRemoteEv"
    },
    {
     "mangled_component_name" : "_ZN3ndk11ICInterface4dumpEiPPKcj"
    },
    {
     "mangled_component_name" : "_ZN3ndk11ICInterface18handleShellCommandEiiiPPKcj"
    }
   ]
  },
  {
   "alignment" : 8,
   "base_specifiers" :
   [
    {
     "referenced_type" : "_ZTIN4aidl7android8hardware13soundtrigger315ISoundTriggerHwE"
    }
   ],
   "fields" :
   [
    {
     "access" : "private",
     "field_name" : "mMutex",
     "field_offset" : 256,
     "referenced_type" : "_ZTINSt3__15mutexE"
    },
    {
     "access" : "private",
     "field_name" : "mWeakBinder",
     "field_offset" : 576,
     "referenced_type" : "_ZTIN3ndk19ScopedAIBinder_WeakE"
    }
   ],
   "linker_set_key" : "_ZTIN3ndk12BnCInterfaceIN4aidl7android8hardware13soundtrigger315ISoundTriggerHwEEE",
   "name" : "ndk::BnCInterface<aidl::android::hardware::soundtrigger3::ISoundTriggerHw>",
   "record_kind" : "class",
   "referenced_type" : "_ZTIN3ndk12BnCInterfaceIN4aidl7android8hardware13soundtrigger315ISoundTriggerHwEEE",
   "self_type" : "_ZTIN3ndk12BnCInterfaceIN4aidl7android8hardware13soundtrigger315ISoundTriggerHwEEE",
   "size" : 80,
   "source_file" : "frameworks/native/libs/binder/ndk/include_cpp/android/binder_interface_utils.h",
   "template_args" :
   [
    "_ZTIN4aidl7android8hardware13soundtrigger315ISoundTriggerHwE"
   ],
   "vtable_components" :
   [
    {
     "kind" : "offset_to_top"
    },
    {
     "kind" : "rtti",
     "mangled_component_name" : "_ZTIN3ndk12BnCInterfaceIN4aidl7android8hardware13soundtrigger315ISoundTriggerHwEEE"
    },
    {
     "kind" : "complete_dtor_pointer",
     "mangled_component_name" : "_ZN3ndk12BnCInterfaceIN4aidl7android8hardware13soundtrigger315ISoundTriggerHwEED1Ev"
    },
    {
     "kind" : "deleting_dtor_pointer",
     "mangled_component_name" : "_ZN3ndk12BnCInterfaceIN4aidl7android8hardware13soundtrigger315ISoundTriggerHwEED0Ev"
    },
    {
     "mangled_component_name" : "_ZN3ndk12BnCInterfaceIN4aidl7android8hardware13soundtrigger315ISoundTriggerHwEE8asBinderEv"
    },
    {
     "mangled_component_name" : "_ZN3ndk12BnCInterfaceIN4aidl7android8hardware13soundtrigger315ISoundTriggerHwEE8isRemoteEv"
    },
    {
     "mangled_component_name" : "_ZN3ndk11ICInterface4dumpEiPPKcj"
    },
    {
     "mangled_component_name" : "_ZN3ndk11ICInterface18handleShellCommandEiiiPPKcj"
    },
    {
     "is_pure" : true,
     "mangled_component_name" : "_ZN4aidl7android8hardware13soundtrigger315ISoundTriggerHw13getPropertiesEPNS0_5media12soundtrigger10PropertiesE"
    },
    {
     "is_pure" : true,
     "mangled_component_name" : "_ZN4aidl7android8hardware13soundtrigger315ISoundTriggerHw22registerGlobalCallbackERKNSt3__110shared_ptrINS2_29ISoundTriggerHwGlobalCallbackEEE"
    },
    {
     "is_pure" : true,
     "mangled_component_name" : "_ZN4aidl7android8hardware13soundtrigger315ISoundTriggerHw14loadSoundModelERKNS0_5media12soundtrigger10SoundModelERKNSt3__110shared_ptrINS2_23ISoundTriggerHwCallbackEEEPi"
    },
    {
     "is_pure" : true,
     "mangled_component_name" : "_ZN4aidl7android8hardware13soundtrigger315ISoundTriggerHw20loadPhraseSoundModelERKNS0_5media12soundtrigger16PhraseSoundModelERKNSt3__110shared_ptrINS2_23ISoundTriggerHwCallbackEEEPi"
    },
    {
     "is_pure" : true,
     "mangled_component_name" : "_ZN4aidl7android8hardware13soundtrigger315ISoundTriggerHw16unloadSoundModelEi"
    },
    {
     "is_pure" : true,
     "mangled_component_name" : "_ZN4aidl7android8hardware13soundtrigger315ISoundTriggerHw16startRecognitionEiiiRKNS0_5media12soundtrigger17RecognitionConfigE"
    },
    {
     "is_pure" : true,
     "mangled_component_name" : "_ZN4aidl7android8hardware13soundtrigger315ISoundTriggerHw15stopRecognitionEi"
    },
    {
     "is_pure" : true,
     "mangled_component_name" : "_ZN4aidl7android8hardware13soundtrigger315ISoundTriggerHw21forceRecognitionEventEi"
    },
    {
     "is_pure" : true,
     "mangled_component_name" : "_ZN4aidl7android8hardware13soundtrigger315ISoundTriggerHw14queryParameterEiNS0_5media12soundtrigger14ModelParameterEPNSt3__18optionalINS5_19ModelParameterRangeEEE"
    },
    {
     "is_pure" : true,
     "mangled_component_name" : "_ZN4aidl7android8hardware13soundtrigger315ISoundTriggerHw12getParameterEiNS0_5media12soundtrigger14ModelParameterEPi"
    },
    {
     "is_pure" : true,
     "mangled_component_name" : "_ZN4aidl7android8hardware13soundtrigger315ISoundTriggerHw12setParameterEiNS0_5media12soundtrigger14ModelParameterEi"
    },
    {
     "is_pure" : true,
     "mangled_component_name" : "_ZN4aidl7android8hardware13soundtrigger315ISoundTriggerHw19getInterfaceVersionEPi"
    },
    {
     "is_pure" : true,
     "mangled_component_name" : "_ZN4aidl7android8hardware13soundtrigger315ISoundTriggerHw16getInterfaceHashEPNSt3__112basic_stringIcNS4_11char_traitsIcEENS4_9allocatorIcEEEE"
    },
    {
     "is_pure" : true,
     "mangled_component_name" : "_ZN3ndk12BnCInterfaceIN4aidl7android8hardware13soundtrigger315ISoundTriggerHwEE12createBinderEv"
    }
   ]
  },
  {
   "alignment" : 8,
   "base_specifiers" :
   [
    {
     "referenced_type" : "_ZTIN4aidl7android8hardware13soundtrigger323ISoundTriggerHwCallbackE"
    }
   ],
   "fields" :
   [
    {
     "access" : "private",
     "field_name" : "mMutex",
     "field_offset" : 256,
     "referenced_type" : "_ZTINSt3__15mutexE"
    },
    {
     "access" : "private",
     "field_name" : "mWeakBinder",
     "field_offset" : 576,
     "referenced_type" : "_ZTIN3ndk19ScopedAIBinder_WeakE"
    }
   ],
   "linker_set_key" : "_ZTIN3ndk12BnCInterfaceIN4aidl7android8hardware13soundtrigger323ISoundTriggerHwCallbackEEE",
   "name" : "ndk::BnCInterface<aidl::android::hardware::soundtrigger3::ISoundTriggerHwCallback>",
   "record_kind" : "class",
   "referenced_type" : "_ZTIN3ndk12BnCInterfaceIN4aidl7android8hardware13soundtrigger323ISoundTriggerHwCallbackEEE",
   "self_type" : "_ZTIN3ndk12BnCInterfaceIN4aidl7android8hardware13soundtrigger323ISoundTriggerHwCallbackEEE",
   "size" : 80,
   "source_file" : "frameworks/native/libs/binder/ndk/include_cpp/android/binder_interface_utils.h",
   "template_args" :
   [
    "_ZTIN4aidl7android8hardware13soundtrigger323ISoundTriggerHwCallbackE"
   ],
   "vtable_components" :
   [
    {
     "kind" : "offset_to_top"
    },
    {
     "kind" : "rtti",
     "mangled_component_name" : "_ZTIN3ndk12BnCInterfaceIN4aidl7android8hardware13soundtrigger323ISoundTriggerHwCallbackEEE"
    },
    {
     "kind" : "complete_dtor_pointer",
     "mangled_component_name" : "_ZN3ndk12BnCInterfaceIN4aidl7android8hardware13soundtrigger323ISoundTriggerHwCallbackEED1Ev"
    },
    {
     "kind" : "deleting_dtor_pointer",
     "mangled_component_name" : "_ZN3ndk12BnCInterfaceIN4aidl7android8hardware13soundtrigger323ISoundTriggerHwCallbackEED0Ev"
    },
    {
     "mangled_component_name" : "_ZN3ndk12BnCInterfaceIN4aidl7android8hardware13soundtrigger323ISoundTriggerHwCallbackEE8asBinderEv"
    },
    {
     "mangled_component_name" : "_ZN3ndk12BnCInterfaceIN4aidl7android8hardware13soundtrigger323ISoundTriggerHwCallbackEE8isRemoteEv"
    },
    {
     "mangled_component_name" : "_ZN3ndk11ICInterface4dumpEiPPKcj"
    },
    {
     "mangled_component_name" : "_ZN3ndk11ICInterface18handleShellCommandEiiiPPKcj"
    },
    {
     "is_pure" : true,
     "mangled_component_name" : "_ZN4aidl7android8hardware13soundtrigger323ISoundTriggerHwCallback13modelUnloadedEi"
    },
    {
     "is_pure" : true,
     "mangled_component_name" : "_ZN4aidl7android8hardware13soundtrigger323ISoundTriggerHwCallback25phraseRecognitionCallbackEiRKNS0_5media12soundtrigger22PhraseRecognitionEventE"
    },
    {
     "is_pure" : true,
     "mangled_component_name" : "_ZN4aidl7android8hardware13soundtrigger323ISoundTriggerHwCallback19recognitionCallbackEiRKNS0_5media12soundtrigger16RecognitionEventE"
    },
    {
     "is_pure" : true,
     "mangled_component_name" : "_ZN4aidl7android8hardware13soundtrigger323ISoundTriggerHwCallback19getInterfaceVersionEPi"
    },
    {
     "is_pure" : true,
     "mangled_component_name" : "_ZN4aidl7android8hardware13soundtrigger323ISoundTriggerHwCallback16getInterfaceHashEPNSt3__112basic_stringIcNS4_11char_traitsIcEENS4_9allocatorIcEEEE"
    },
    {
     "is_pure" : true,
     "mangled_component_name" : "_ZN3ndk12BnCInterfaceIN4aidl7android8hardware13soundtrigger323ISoundTriggerHwCallbackEE12createBinderEv"
    }
   ]
  },
  {
   "alignment" : 8,
   "base_specifiers" :
   [
    {
     "referenced_type" : "_ZTIN4aidl7android8hardware13soundtrigger329ISoundTriggerHwGlobalCallbackE"
    }
   ],
   "fields" :
   [
    {
     "access" : "private",
     "field_name" : "mMutex",
     "field_offset" : 256,
     "referenced_type" : "_ZTINSt3__15mutexE"
    },
    {
     "access" : "private",
     "field_name" : "mWeakBinder",
     "field_offset" : 576,
     "referenced_type" : "_ZTIN3ndk19ScopedAIBinder_WeakE"
    }
   ],
   "linker_set_key" : "_ZTIN3ndk12BnCInterfaceIN4aidl7android8hardware13soundtrigger329ISoundTriggerHwGlobalCallbackEEE",
   "name" : "ndk::BnCInterface<aidl::android::hardware::soundtrigger3::ISoundTriggerHwGlobalCallback>",
   "record_kind" : "class",
   "referenced_type" : "_ZTIN3ndk12BnCInterfaceIN4aidl7android8hardware13soundtrigger329ISoundTriggerHwGlobalCallbackEEE",
   "self_type" : "_ZTIN3ndk12BnCInterfaceIN4aidl7android8hardware13soundtrigger329ISoundTriggerHwGlobalCallbackEEE",
   "size" : 80,
   "source_file" : "frameworks/native/libs/binder/ndk/include_cpp/android/binder_interface_utils.h",
   "template_args" :
   [
    "_ZTIN4aidl7android8hardware13soundtrigger329ISoundTriggerHwGlobalCallbackE"
   ],
   "vtable_components" :
   [
    {
     "kind" : "offset_to_top"
    },
    {
     "kind" : "rtti",
     "mangled_component_name" : "_ZTIN3ndk12BnCInterfaceIN4aidl7android8hardware13soundtrigger329ISoundTriggerHwGlobalCallbackEEE"
    },
    {
     "kind" : "complete_dtor_pointer",
     "mangled_component_name" : "_ZN3ndk12BnCInterfaceIN4aidl7android8hardware13soundtrigger329ISoundTriggerHwGlobalCallbackEED1Ev"
    },
    {
     "kind" : "deleting_dtor_pointer",
     "mangled_component_name" : "_ZN3ndk12BnCInterfaceIN4aidl7android8hardware13soundtrigger329ISoundTriggerHwGlobalCallbackEED0Ev"
    },
    {
     "mangled_component_name" : "_ZN3ndk12BnCInterfaceIN4aidl7android8hardware13soundtrigger329ISoundTriggerHwGlobalCallbackEE8asBinderEv"
    },
    {
     "mangled_component_name" : "_ZN3ndk12BnCInterfaceIN4aidl7android8hardware13soundtrigger329ISoundTriggerHwGlobalCallbackEE8isRemoteEv"
    },
    {
     "mangled_component_name" : "_ZN3ndk11ICInterface4dumpEiPPKcj"
    },
    {
     "mangled_component_name" : "_ZN3ndk11ICInterface18handleShellCommandEiiiPPKcj"
    },
    {
     "is_pure" : true,
     "mangled_component_name" : "_ZN4aidl7android8hardware13soundtrigger329ISoundTriggerHwGlobalCallback20onResourcesAvailableEv"
    },
    {
     "is_pure" : true,
     "mangled_component_name" : "_ZN4aidl7android8hardware13soundtrigger329ISoundTriggerHwGlobalCallback19getInterfaceVersionEPi"
    },
    {
     "is_pure" : true,
     "mangled_component_name" : "_ZN4aidl7android8hardware13soundtrigger329ISoundTriggerHwGlobalCallback16getInterfaceHashEPNSt3__112basic_stringIcNS4_11char_traitsIcEENS4_9allocatorIcEEEE"
    },
    {
     "is_pure" : true,
     "mangled_component_name" : "_ZN3ndk12BnCInterfaceIN4aidl7android8hardware13soundtrigger329ISoundTriggerHwGlobalCallbackEE12createBinderEv"
    }
   ]
  },
  {
   "alignment" : 8,
   "base_specifiers" :
   [
    {
     "referenced_type" : "_ZTIN4aidl7android8hardware13soundtrigger315ISoundTriggerHwE"
    }
   ],
   "fields" :
   [
    {
     "access" : "private",
     "field_name" : "mBinder",
     "field_offset" : 256,
     "referenced_type" : "_ZTIN3ndk10SpAIBinderE"
    }
   ],
   "linker_set_key" : "_ZTIN3ndk12BpCInterfaceIN4aidl7android8hardware13soundtrigger315ISoundTriggerHwEEE",
   "name" : "ndk::BpCInterface<aidl::android::hardware::soundtrigger3::ISoundTriggerHw>",
   "record_kind" : "class",
   "referenced_type" : "_ZTIN3ndk12BpCInterfaceIN4aidl7android8hardware13soundtrigger315ISoundTriggerHwEEE",
   "self_type" : "_ZTIN3ndk12BpCInterfaceIN4aidl7android8hardware13soundtrigger315ISoundTriggerHwEEE",
   "size" : 40,
   "source_file" : "frameworks/native/libs/binder/ndk/include_cpp/android/binder_interface_utils.h",
   "template_args" :
   [
    "_ZTIN4aidl7android8hardware13soundtrigger315ISoundTriggerHwE"
   ],
   "vtable_components" :
   [
    {
     "kind" : "offset_to_top"
    },
    {
     "kind" : "rtti",
     "mangled_component_name" : "_ZTIN3ndk12BpCInterfaceIN4aidl7android8hardware13soundtrigger315ISoundTriggerHwEEE"
    },
    {
     "kind" : "complete_dtor_pointer",
     "mangled_component_name" : "_ZN3ndk12BpCInterfaceIN4aidl7android8hardware13soundtrigger315ISoundTriggerHwEED1Ev"
    },
    {
     "kind" : "deleting_dtor_pointer",
     "mangled_component_name" : "_ZN3ndk12BpCInterfaceIN4aidl7android8hardware13soundtrigger315ISoundTriggerHwEED0Ev"
    },
    {
     "mangled_component_name" : "_ZN3ndk12BpCInterfaceIN4aidl7android8hardware13soundtrigger315ISoundTriggerHwEE8asBinderEv"
    },
    {
     "mangled_component_name" : "_ZN3ndk12BpCInterfaceIN4aidl7android8hardware13soundtrigger315ISoundTriggerHwEE8isRemoteEv"
    },
    {
     "mangled_component_name" : "_ZN3ndk12BpCInterfaceIN4aidl7android8hardware13soundtrigger315ISoundTriggerHwEE4dumpEiPPKcj"
    },
    {
     "mangled_component_name" : "_ZN3ndk11ICInterface18handleShellCommandEiiiPPKcj"
    },
    {
     "is_pure" : true,
     "mangled_component_name" : "_ZN4aidl7android8hardware13soundtrigger315ISoundTriggerHw13getPropertiesEPNS0_5media12soundtrigger10PropertiesE"
    },
    {
     "is_pure" : true,
     "mangled_component_name" : "_ZN4aidl7android8hardware13soundtrigger315ISoundTriggerHw22registerGlobalCallbackERKNSt3__110shared_ptrINS2_29ISoundTriggerHwGlobalCallbackEEE"
    },
    {
     "is_pure" : true,
     "mangled_component_name" : "_ZN4aidl7android8hardware13soundtrigger315ISoundTriggerHw14loadSoundModelERKNS0_5media12soundtrigger10SoundModelERKNSt3__110shared_ptrINS2_23ISoundTriggerHwCallbackEEEPi"
    },
    {
     "is_pure" : true,
     "mangled_component_name" : "_ZN4aidl7android8hardware13soundtrigger315ISoundTriggerHw20loadPhraseSoundModelERKNS0_5media12soundtrigger16PhraseSoundModelERKNSt3__110shared_ptrINS2_23ISoundTriggerHwCallbackEEEPi"
    },
    {
     "is_pure" : true,
     "mangled_component_name" : "_ZN4aidl7android8hardware13soundtrigger315ISoundTriggerHw16unloadSoundModelEi"
    },
    {
     "is_pure" : true,
     "mangled_component_name" : "_ZN4aidl7android8hardware13soundtrigger315ISoundTriggerHw16startRecognitionEiiiRKNS0_5media12soundtrigger17RecognitionConfigE"
    },
    {
     "is_pure" : true,
     "mangled_component_name" : "_ZN4aidl7android8hardware13soundtrigger315ISoundTriggerHw15stopRecognitionEi"
    },
    {
     "is_pure" : true,
     "mangled_component_name" : "_ZN4aidl7android8hardware13soundtrigger315ISoundTriggerHw21forceRecognitionEventEi"
    },
    {
     "is_pure" : true,
     "mangled_component_name" : "_ZN4aidl7android8hardware13soundtrigger315ISoundTriggerHw14queryParameterEiNS0_5media12soundtrigger14ModelParameterEPNSt3__18optionalINS5_19ModelParameterRangeEEE"
    },
    {
     "is_pure" : true,
     "mangled_component_name" : "_ZN4aidl7android8hardware13soundtrigger315ISoundTriggerHw12getParameterEiNS0_5media12soundtrigger14ModelParameterEPi"
    },
    {
     "is_pure" : true,
     "mangled_component_name" : "_ZN4aidl7android8hardware13soundtrigger315ISoundTriggerHw12setParameterEiNS0_5media12soundtrigger14ModelParameterEi"
    },
    {
     "is_pure" : true,
     "mangled_component_name" : "_ZN4aidl7android8hardware13soundtrigger315ISoundTriggerHw19getInterfaceVersionEPi"
    },
    {
     "is_pure" : true,
     "mangled_component_name" : "_ZN4aidl7android8hardware13soundtrigger315ISoundTriggerHw16getInterfaceHashEPNSt3__112basic_stringIcNS4_11char_traitsIcEENS4_9allocatorIcEEEE"
    }
   ]
  },
  {
   "alignment" : 8,
   "base_specifiers" :
   [
    {
     "referenced_type" : "_ZTIN4aidl7android8hardware13soundtrigger323ISoundTriggerHwCallbackE"
    }
   ],
   "fields" :
   [
    {
     "access" : "private",
     "field_name" : "mBinder",
     "field_offset" : 256,
     "referenced_type" : "_ZTIN3ndk10SpAIBinderE"
    }
   ],
   "linker_set_key" : "_ZTIN3ndk12BpCInterfaceIN4aidl7android8hardware13soundtrigger323ISoundTriggerHwCallbackEEE",
   "name" : "ndk::BpCInterface<aidl::android::hardware::soundtrigger3::ISoundTriggerHwCallback>",
   "record_kind" : "class",
   "referenced_type" : "_ZTIN3ndk12BpCInterfaceIN4aidl7android8hardware13soundtrigger323ISoundTriggerHwCallbackEEE",
   "self_type" : "_ZTIN3ndk12BpCInterfaceIN4aidl7android8hardware13soundtrigger323ISoundTriggerHwCallbackEEE",
   "size" : 40,
   "source_file" : "frameworks/native/libs/binder/ndk/include_cpp/android/binder_interface_utils.h",
   "template_args" :
   [
    "_ZTIN4aidl7android8hardware13soundtrigger323ISoundTriggerHwCallbackE"
   ],
   "vtable_components" :
   [
    {
     "kind" : "offset_to_top"
    },
    {
     "kind" : "rtti",
     "mangled_component_name" : "_ZTIN3ndk12BpCInterfaceIN4aidl7android8hardware13soundtrigger323ISoundTriggerHwCallbackEEE"
    },
    {
     "kind" : "complete_dtor_pointer",
     "mangled_component_name" : "_ZN3ndk12BpCInterfaceIN4aidl7android8hardware13soundtrigger323ISoundTriggerHwCallbackEED1Ev"
    },
    {
     "kind" : "deleting_dtor_pointer",
     "mangled_component_name" : "_ZN3ndk12BpCInterfaceIN4aidl7android8hardware13soundtrigger323ISoundTriggerHwCallbackEED0Ev"
    },
    {
     "mangled_component_name" : "_ZN3ndk12BpCInterfaceIN4aidl7android8hardware13soundtrigger323ISoundTriggerHwCallbackEE8asBinderEv"
    },
    {
     "mangled_component_name" : "_ZN3ndk12BpCInterfaceIN4aidl7android8hardware13soundtrigger323ISoundTriggerHwCallbackEE8isRemoteEv"
    },
    {
     "mangled_component_name" : "_ZN3ndk12BpCInterfaceIN4aidl7android8hardware13soundtrigger323ISoundTriggerHwCallbackEE4dumpEiPPKcj"
    },
    {
     "mangled_component_name" : "_ZN3ndk11ICInterface18handleShellCommandEiiiPPKcj"
    },
    {
     "is_pure" : true,
     "mangled_component_name" : "_ZN4aidl7android8hardware13soundtrigger323ISoundTriggerHwCallback13modelUnloadedEi"
    },
    {
     "is_pure" : true,
     "mangled_component_name" : "_ZN4aidl7android8hardware13soundtrigger323ISoundTriggerHwCallback25phraseRecognitionCallbackEiRKNS0_5media12soundtrigger22PhraseRecognitionEventE"
    },
    {
     "is_pure" : true,
     "mangled_component_name" : "_ZN4aidl7android8hardware13soundtrigger323ISoundTriggerHwCallback19recognitionCallbackEiRKNS0_5media12soundtrigger16RecognitionEventE"
    },
    {
     "is_pure" : true,
     "mangled_component_name" : "_ZN4aidl7android8hardware13soundtrigger323ISoundTriggerHwCallback19getInterfaceVersionEPi"
    },
    {
     "is_pure" : true,
     "mangled_component_name" : "_ZN4aidl7android8hardware13soundtrigger323ISoundTriggerHwCallback16getInterfaceHashEPNSt3__112basic_stringIcNS4_11char_traitsIcEENS4_9allocatorIcEEEE"
    }
   ]
  },
  {
   "alignment" : 8,
   "base_specifiers" :
   [
    {
     "referenced_type" : "_ZTIN4aidl7android8hardware13soundtrigger329ISoundTriggerHwGlobalCallbackE"
    }
   ],
   "fields" :
   [
    {
     "access" : "private",
     "field_name" : "mBinder",
     "field_offset" : 256,
     "referenced_type" : "_ZTIN3ndk10SpAIBinderE"
    }
   ],
   "linker_set_key" : "_ZTIN3ndk12BpCInterfaceIN4aidl7android8hardware13soundtrigger329ISoundTriggerHwGlobalCallbackEEE",
   "name" : "ndk::BpCInterface<aidl::android::hardware::soundtrigger3::ISoundTriggerHwGlobalCallback>",
   "record_kind" : "class",
   "referenced_type" : "_ZTIN3ndk12BpCInterfaceIN4aidl7android8hardware13soundtrigger329ISoundTriggerHwGlobalCallbackEEE",
   "self_type" : "_ZTIN3ndk12BpCInterfaceIN4aidl7android8hardware13soundtrigger329ISoundTriggerHwGlobalCallbackEEE",
   "size" : 40,
   "source_file" : "frameworks/native/libs/binder/ndk/include_cpp/android/binder_interface_utils.h",
   "template_args" :
   [
    "_ZTIN4aidl7android8hardware13soundtrigger329ISoundTriggerHwGlobalCallbackE"
   ],
   "vtable_components" :
   [
    {
     "kind" : "offset_to_top"
    },
    {
     "kind" : "rtti",
     "mangled_component_name" : "_ZTIN3ndk12BpCInterfaceIN4aidl7android8hardware13soundtrigger329ISoundTriggerHwGlobalCallbackEEE"
    },
    {
     "kind" : "complete_dtor_pointer",
     "mangled_component_name" : "_ZN3ndk12BpCInterfaceIN4aidl7android8hardware13soundtrigger329ISoundTriggerHwGlobalCallbackEED1Ev"
    },
    {
     "kind" : "deleting_dtor_pointer",
     "mangled_component_name" : "_ZN3ndk12BpCInterfaceIN4aidl7android8hardware13soundtrigger329ISoundTriggerHwGlobalCallbackEED0Ev"
    },
    {
     "mangled_component_name" : "_ZN3ndk12BpCInterfaceIN4aidl7android8hardware13soundtrigger329ISoundTriggerHwGlobalCallbackEE8asBinderEv"
    },
    {
     "mangled_component_name" : "_ZN3ndk12BpCInterfaceIN4aidl7android8hardware13soundtrigger329ISoundTriggerHwGlobalCallbackEE8isRemoteEv"
    },
    {
     "mangled_component_name" : "_ZN3ndk12BpCInterfaceIN4aidl7android8hardware13soundtrigger329ISoundTriggerHwGlobalCallbackEE4dumpEiPPKcj"
    },
    {
     "mangled_component_name" : "_ZN3ndk11ICInterface18handleShellCommandEiiiPPKcj"
    },
    {
     "is_pure" : true,
     "mangled_component_name" : "_ZN4aidl7android8hardware13soundtrigger329ISoundTriggerHwGlobalCallback20onResourcesAvailableEv"
    },
    {
     "is_pure" : true,
     "mangled_component_name" : "_ZN4aidl7android8hardware13soundtrigger329ISoundTriggerHwGlobalCallback19getInterfaceVersionEPi"
    },
    {
     "is_pure" : true,
     "mangled_component_name" : "_ZN4aidl7android8hardware13soundtrigger329ISoundTriggerHwGlobalCallback16getInterfaceHashEPNSt3__112basic_stringIcNS4_11char_traitsIcEENS4_9allocatorIcEEEE"
    }
   ]
  },
  {
   "alignment" : 8,
   "base_specifiers" :
   [
    {
     "referenced_type" : "_ZTIN3ndk4impl15ScopedAResourceIP7AParcelXadL_Z14AParcel_deleteEELS3_0EEE"
    }
   ],
   "linker_set_key" : "_ZTIN3ndk13ScopedAParcelE",
   "name" : "ndk::ScopedAParcel",
   "record_kind" : "class",
   "referenced_type" : "_ZTIN3ndk13ScopedAParcelE",
   "self_type" : "_ZTIN3ndk13ScopedAParcelE",
   "size" : 8,
   "source_file" : "frameworks/native/libs/binder/ndk/include_cpp/android/binder_auto_utils.h"
  },
  {
   "alignment" : 8,
   "base_specifiers" :
   [
    {
     "referenced_type" : "_ZTIN3ndk4impl15ScopedAResourceIP7AStatusXadL_Z14AStatus_deleteEELS3_0EEE"
    }
   ],
   "linker_set_key" : "_ZTIN3ndk13ScopedAStatusE",
   "name" : "ndk::ScopedAStatus",
   "record_kind" : "class",
   "referenced_type" : "_ZTIN3ndk13ScopedAStatusE",
   "self_type" : "_ZTIN3ndk13ScopedAStatusE",
   "size" : 8,
   "source_file" : "frameworks/native/libs/binder/ndk/include_cpp/android/binder_auto_utils.h"
  },
  {
   "alignment" : 8,
   "fields" :
   [
    {
     "access" : "private",
     "field_name" : "mFlagThis",
     "field_offset" : 64,
     "referenced_type" : "_ZTINSt3__19once_flagE"
    },
    {
     "access" : "private",
     "field_name" : "mThis",
     "field_offset" : 128,
     "referenced_type" : "_ZTINSt3__18weak_ptrIN3ndk13SharedRefBaseEEE"
    }
   ],
   "linker_set_key" : "_ZTIN3ndk13SharedRefBaseE",
   "name" : "ndk::SharedRefBase",
   "record_kind" : "class",
   "referenced_type" : "_ZTIN3ndk13SharedRefBaseE",
   "self_type" : "_ZTIN3ndk13SharedRefBaseE",
   "size" : 32,
   "source_file" : "frameworks/native/libs/binder/ndk/include_cpp/android/binder_interface_utils.h",
   "vtable_components" :
   [
    {
     "kind" : "offset_to_top"
    },
    {
     "kind" : "rtti",
     "mangled_component_name" : "_ZTIN3ndk13SharedRefBaseE"
    },
    {
     "kind" : "complete_dtor_pointer",
     "mangled_component_name" : "_ZN3ndk13SharedRefBaseD1Ev"
    },
    {
     "kind" : "deleting_dtor_pointer",
     "mangled_component_name" : "_ZN3ndk13SharedRefBaseD0Ev"
    }
   ]
  },
  {
   "alignment" : 8,
   "fields" :
   [
    {
     "access" : "private",
     "field_name" : "mParcel",
     "field_offset" : 64,
     "referenced_type" : "_ZTIN3ndk13ScopedAParcelE"
    },
    {
     "access" : "private",
     "field_name" : "mStability",
     "field_offset" : 128,
     "referenced_type" : "_ZTIi"
    }
   ],
   "linker_set_key" : "_ZTIN3ndk17AParcelableHolderE",
   "name" : "ndk::AParcelableHolder",
   "record_kind" : "class",
   "referenced_type" : "_ZTIN3ndk17AParcelableHolderE",
   "self_type" : "_ZTIN3ndk17AParcelableHolderE",
   "size" : 24,
   "source_file" : "frameworks/native/libs/binder/ndk/include_cpp/android/binder_parcelable_utils.h",
   "vtable_components" :
   [
    {
     "kind" : "offset_to_top"
    },
    {
     "kind" : "rtti",
     "mangled_component_name" : "_ZTIN3ndk17AParcelableHolderE"
    },
    {
     "kind" : "complete_dtor_pointer",
     "mangled_component_name" : "_ZN3ndk17AParcelableHolderD1Ev"
    },
    {
     "kind" : "deleting_dtor_pointer",
     "mangled_component_name" : "_ZN3ndk17AParcelableHolderD0Ev"
    }
   ]
  },
  {
   "alignment" : 8,
   "base_specifiers" :
   [
    {
     "referenced_type" : "_ZTIN3ndk4impl15ScopedAResourceIP13AIBinder_WeakXadL_Z20AIBinder_Weak_deleteEELS3_0EEE"
    }
   ],
   "linker_set_key" : "_ZTIN3ndk19ScopedAIBinder_WeakE",
   "name" : "ndk::ScopedAIBinder_Weak",
   "record_kind" : "class",
   "referenced_type" : "_ZTIN3ndk19ScopedAIBinder_WeakE",
   "self_type" : "_ZTIN3ndk19ScopedAIBinder_WeakE",
   "size" : 8,
   "source_file" : "frameworks/native/libs/binder/ndk/include_cpp/android/binder_auto_utils.h"
  },
  {
   "alignment" : 4,
   "base_specifiers" :
   [
    {
     "referenced_type" : "_ZTIN3ndk4impl15ScopedAResourceIiXadL_ZNS_8internalL14closeWithErrorEiEELin1EEE"
    }
   ],
   "linker_set_key" : "_ZTIN3ndk20ScopedFileDescriptorE",
   "name" : "ndk::ScopedFileDescriptor",
   "record_kind" : "class",
   "referenced_type" : "_ZTIN3ndk20ScopedFileDescriptorE",
   "self_type" : "_ZTIN3ndk20ScopedFileDescriptorE",
   "size" : 4,
   "source_file" : "frameworks/native/libs/binder/ndk/include_cpp/android/binder_auto_utils.h"
  },
  {
   "alignment" : 8,
   "base_specifiers" :
   [
    {
     "referenced_type" : "_ZTIN3ndk4impl15ScopedAResourceIP23AIBinder_DeathRecipientXadL_Z30AIBinder_DeathRecipient_deleteEELS3_0EEE"
    }
   ],
   "linker_set_key" : "_ZTIN3ndk29ScopedAIBinder_DeathRecipientE",
   "name" : "ndk::ScopedAIBinder_DeathRecipient",
   "record_kind" : "class",
   "referenced_type" : "_ZTIN3ndk29ScopedAIBinder_DeathRecipientE",
   "self_type" : "_ZTIN3ndk29ScopedAIBinder_DeathRecipientE",
   "size" : 8,
   "source_file" : "frameworks/native/libs/binder/ndk/include_cpp/android/binder_auto_utils.h"
  },
  {
   "alignment" : 8,
   "fields" :
   [
    {
     "access" : "private",
     "field_name" : "mT",
     "referenced_type" : "_ZTIP13AIBinder_Weak"
    }
   ],
   "linker_set_key" : "_ZTIN3ndk4impl15ScopedAResourceIP13AIBinder_WeakXadL_Z20AIBinder_Weak_deleteEELS3_0EEE",
   "name" : "ndk::impl::ScopedAResource<AIBinder_Weak *, &AIBinder_Weak_delete, nullptr>",
   "record_kind" : "class",
   "referenced_type" : "_ZTIN3ndk4impl15ScopedAResourceIP13AIBinder_WeakXadL_Z20AIBinder_Weak_deleteEELS3_0EEE",
   "self_type" : "_ZTIN3ndk4impl15ScopedAResourceIP13AIBinder_WeakXadL_Z20AIBinder_Weak_deleteEELS3_0EEE",
   "size" : 8,
   "source_file" : "frameworks/native/libs/binder/ndk/include_cpp/android/binder_auto_utils.h",
   "template_args" :
   [
    "_ZTIP13AIBinder_Weak"
   ]
  },
  {
   "alignment" : 8,
   "fields" :
   [
    {
     "access" : "private",
     "field_name" : "mT",
     "referenced_type" : "_ZTIP23AIBinder_DeathRecipient"
    }
   ],
   "linker_set_key" : "_ZTIN3ndk4impl15ScopedAResourceIP23AIBinder_DeathRecipientXadL_Z30AIBinder_DeathRecipient_deleteEELS3_0EEE",
   "name" : "ndk::impl::ScopedAResource<AIBinder_DeathRecipient *, &AIBinder_DeathRecipient_delete, nullptr>",
   "record_kind" : "class",
   "referenced_type" : "_ZTIN3ndk4impl15ScopedAResourceIP23AIBinder_DeathRecipientXadL_Z30AIBinder_DeathRecipient_deleteEELS3_0EEE",
   "self_type" : "_ZTIN3ndk4impl15ScopedAResourceIP23AIBinder_DeathRecipientXadL_Z30AIBinder_DeathRecipient_deleteEELS3_0EEE",
   "size" : 8,
   "source_file" : "frameworks/native/libs/binder/ndk/include_cpp/android/binder_auto_utils.h",
   "template_args" :
   [
    "_ZTIP23AIBinder_DeathRecipient"
   ]
  },
  {
   "alignment" : 8,
   "fields" :
   [
    {
     "access" : "private",
     "field_name" : "mT",
     "referenced_type" : "_ZTIP7AParcel"
    }
   ],
   "linker_set_key" : "_ZTIN3ndk4impl15ScopedAResourceIP7AParcelXadL_Z14AParcel_deleteEELS3_0EEE",
   "name" : "ndk::impl::ScopedAResource<AParcel *, &AParcel_delete, nullptr>",
   "record_kind" : "class",
   "referenced_type" : "_ZTIN3ndk4impl15ScopedAResourceIP7AParcelXadL_Z14AParcel_deleteEELS3_0EEE",
   "self_type" : "_ZTIN3ndk4impl15ScopedAResourceIP7AParcelXadL_Z14AParcel_deleteEELS3_0EEE",
   "size" : 8,
   "source_file" : "frameworks/native/libs/binder/ndk/include_cpp/android/binder_auto_utils.h",
   "template_args" :
   [
    "_ZTIP7AParcel"
   ]
  },
  {
   "alignment" : 8,
   "fields" :
   [
    {
     "access" : "private",
     "field_name" : "mT",
     "referenced_type" : "_ZTIP7AStatus"
    }
   ],
   "linker_set_key" : "_ZTIN3ndk4impl15ScopedAResourceIP7AStatusXadL_Z14AStatus_deleteEELS3_0EEE",
   "name" : "ndk::impl::ScopedAResource<AStatus *, &AStatus_delete, nullptr>",
   "record_kind" : "class",
   "referenced_type" : "_ZTIN3ndk4impl15ScopedAResourceIP7AStatusXadL_Z14AStatus_deleteEELS3_0EEE",
   "self_type" : "_ZTIN3ndk4impl15ScopedAResourceIP7AStatusXadL_Z14AStatus_deleteEELS3_0EEE",
   "size" : 8,
   "source_file" : "frameworks/native/libs/binder/ndk/include_cpp/android/binder_auto_utils.h",
   "template_args" :
   [
    "_ZTIP7AStatus"
   ]
  },
  {
   "alignment" : 8,
   "fields" :
   [
    {
     "field_name" : "implementor",
     "referenced_type" : "_ZTINSt3__112basic_stringIcNS_11char_traitsIcEENS_9allocatorIcEEEE"
    },
    {
     "field_name" : "description",
     "field_offset" : 192,
     "referenced_type" : "_ZTINSt3__112basic_stringIcNS_11char_traitsIcEENS_9allocatorIcEEEE"
    },
    {
     "field_name" : "version",
     "field_offset" : 384,
     "referenced_type" : "_ZTIi"
    },
    {
     "field_name" : "uuid",
     "field_offset" : 448,
     "referenced_type" : "_ZTINSt3__112basic_stringIcNS_11char_traitsIcEENS_9allocatorIcEEEE"
    },
    {
     "field_name" : "supportedModelArch",
     "field_offset" : 640,
     "referenced_type" : "_ZTINSt3__112basic_stringIcNS_11char_traitsIcEENS_9allocatorIcEEEE"
    },
    {
     "field_name" : "maxSoundModels",
     "field_offset" : 832,
     "referenced_type" : "_ZTIi"
    },
    {
     "field_name" : "maxKeyPhrases",
     "field_offset" : 864,
     "referenced_type" : "_ZTIi"
    },
    {
     "field_name" : "maxUsers",
     "field_offset" : 896,
     "referenced_type" : "_ZTIi"
    },
    {
     "field_name" : "recognitionModes",
     "field_offset" : 928,
     "referenced_type" : "_ZTIi"
    },
    {
     "field_name" : "captureTransition",
     "field_offset" : 960,
     "referenced_type" : "_ZTIb"
    },
    {
     "field_name" : "maxBufferMs",
     "field_offset" : 992,
     "referenced_type" : "_ZTIi"
    },
    {
     "field_name" : "concurrentCapture",
     "field_offset" : 1024,
     "referenced_type" : "_ZTIb"
    },
    {
     "field_name" : "triggerInEvent",
     "field_offset" : 1032,
     "referenced_type" : "_ZTIb"
    },
    {
     "field_name" : "powerConsumptionMw",
     "field_offset" : 1056,
     "referenced_type" : "_ZTIi"
    },
    {
     "field_name" : "audioCapabilities",
     "field_offset" : 1088,
     "referenced_type" : "_ZTIi"
    }
   ],
   "linker_set_key" : "_ZTIN4aidl7android5media12soundtrigger10PropertiesE",
   "name" : "aidl::android::media::soundtrigger::Properties",
   "record_kind" : "class",
   "referenced_type" : "_ZTIN4aidl7android5media12soundtrigger10PropertiesE",
   "self_type" : "_ZTIN4aidl7android5media12soundtrigger10PropertiesE",
   "size" : 144,
   "source_file" : "out/soong/.intermediates/frameworks/base/media/android.media.soundtrigger.types-V1-ndk-source/gen/include/aidl/android/media/soundtrigger/Properties.h"
  },
  {
   "alignment" : 8,
   "fields" :
   [
    {
     "field_name" : "type",
     "referenced_type" : "_ZTIN4aidl7android5media12soundtrigger14SoundModelTypeE"
    },
    {
     "field_name" : "uuid",
     "field_offset" : 64,
     "referenced_type" : "_ZTINSt3__112basic_stringIcNS_11char_traitsIcEENS_9allocatorIcEEEE"
    },
    {
     "field_name" : "vendorUuid",
     "field_offset" : 256,
     "referenced_type" : "_ZTINSt3__112basic_stringIcNS_11char_traitsIcEENS_9allocatorIcEEEE"
    },
    {
     "field_name" : "data",
     "field_offset" : 448,
     "referenced_type" : "_ZTIN3ndk20ScopedFileDescriptorE"
    },
    {
     "field_name" : "dataSize",
     "field_offset" : 480,
     "referenced_type" : "_ZTIi"
    }
   ],
   "linker_set_key" : "_ZTIN4aidl7android5media12soundtrigger10SoundModelE",
   "name" : "aidl::android::media::soundtrigger::SoundModel",
   "record_kind" : "class",
   "referenced_type" : "_ZTIN4aidl7android5media12soundtrigger10SoundModelE",
   "self_type" : "_ZTIN4aidl7android5media12soundtrigger10SoundModelE",
   "size" : 64,
   "source_file" : "out/soong/.intermediates/frameworks/base/media/android.media.soundtrigger.types-V1-ndk-source/gen/include/aidl/android/media/soundtrigger/SoundModel.h"
  },
  {
   "alignment" : 4,
   "fields" :
   [
    {
     "field_name" : "userId",
     "referenced_type" : "_ZTIi"
    },
    {
     "field_name" : "levelPercent",
     "field_offset" : 32,
     "referenced_type" : "_ZTIi"
    }
   ],
   "linker_set_key" : "_ZTIN4aidl7android5media12soundtrigger15ConfidenceLevelE",
   "name" : "aidl::android::media::soundtrigger::ConfidenceLevel",
   "record_kind" : "class",
   "referenced_type" : "_ZTIN4aidl7android5media12soundtrigger15ConfidenceLevelE",
   "self_type" : "_ZTIN4aidl7android5media12soundtrigger15ConfidenceLevelE",
   "size" : 8,
   "source_file" : "out/soong/.intermediates/frameworks/base/media/android.media.soundtrigger.types-V1-ndk-source/gen/include/aidl/android/media/soundtrigger/ConfidenceLevel.h"
  },
  {
   "alignment" : 8,
   "fields" :
   [
    {
     "field_name" : "common",
     "referenced_type" : "_ZTIN4aidl7android5media12soundtrigger10SoundModelE"
    },
    {
     "field_name" : "phrases",
     "field_offset" : 512,
     "referenced_type" : "_ZTINSt3__16vectorIN4aidl7android5media12soundtrigger6PhraseENS_9allocatorIS5_EEEE"
    }
   ],
   "linker_set_key" : "_ZTIN4aidl7android5media12soundtrigger16PhraseSoundModelE",
   "name" : "aidl::android::media::soundtrigger::PhraseSoundModel",
   "record_kind" : "class",
   "referenced_type" : "_ZTIN4aidl7android5media12soundtrigger16PhraseSoundModelE",
   "self_type" : "_ZTIN4aidl7android5media12soundtrigger16PhraseSoundModelE",
   "size" : 88,
   "source_file" : "out/soong/.intermediates/frameworks/base/media/android.media.soundtrigger.types-V1-ndk-source/gen/include/aidl/android/media/soundtrigger/PhraseSoundModel.h"
  },
  {
   "alignment" : 8,
   "fields" :
   [
    {
     "field_name" : "status",
     "referenced_type" : "_ZTIN4aidl7android5media12soundtrigger17RecognitionStatusE"
    },
    {
     "field_name" : "type",
     "field_offset" : 32,
     "referenced_type" : "_ZTIN4aidl7android5media12soundtrigger14SoundModelTypeE"
    },
    {
     "field_name" : "captureAvailable",
     "field_offset" : 64,
     "referenced_type" : "_ZTIb"
    },
    {
     "field_name" : "captureDelayMs",
     "field_offset" : 96,
     "referenced_type" : "_ZTIi"
    },
    {
     "field_name" : "capturePreambleMs",
     "field_offset" : 128,
     "referenced_type" : "_ZTIi"
    },
    {
     "field_name" : "triggerInData",
     "field_offset" : 160,
     "referenced_type" : "_ZTIb"
    },
    {
     "field_name" : "audioConfig",
     "field_offset" : 192,
     "referenced_type" : "_ZTINSt3__18optionalIN4aidl7android5media5audio6common11AudioConfigEEE"
    },
    {
     "field_name" : "data",
     "field_offset" : 1472,
     "referenced_type" : "_ZTINSt3__16vectorIhNS_9allocatorIhEEEE"
    },
    {
     "field_name" : "recognitionStillActive",
     "field_offset" : 1664,
     "referenced_type" : "_ZTIb"
    }
   ],
   "linker_set_key" : "_ZTIN4aidl7android5media12soundtrigger16RecognitionEventE",
   "name" : "aidl::android::media::soundtrigger::RecognitionEvent",
   "record_kind" : "class",
   "referenced_type" : "_ZTIN4aidl7android5media12soundtrigger16RecognitionEventE",
   "self_type" : "_ZTIN4aidl7android5media12soundtrigger16RecognitionEventE",
   "size" : 216,
   "source_file" : "out/soong/.intermediates/frameworks/base/media/android.media.soundtrigger.types-V1-ndk-source/gen/include/aidl/android/media/soundtrigger/RecognitionEvent.h"
  },
  {
   "alignment" : 8,
   "fields" :
   [
    {
     "field_name" : "captureRequested",
     "referenced_type" : "_ZTIb"
    },
    {
     "field_name" : "phraseRecognitionExtras",
     "field_offset" : 64,
     "referenced_type" : "_ZTINSt3__16vectorIN4aidl7android5media12soundtrigger22PhraseRecognitionExtraENS_9allocatorIS5_EEEE"
    },
    {
     "field_name" : "audioCapabilities",
     "field_offset" : 256,
     "referenced_type" : "_ZTIi"
    },
    {
     "field_name" : "data",
     "field_offset" : 320,
     "referenced_type" : "_ZTINSt3__16vectorIhNS_9allocatorIhEEEE"
    }
   ],
   "linker_set_key" : "_ZTIN4aidl7android5media12soundtrigger17RecognitionConfigE",
   "name" : "aidl::android::media::soundtrigger::RecognitionConfig",
   "record_kind" : "class",
   "referenced_type" : "_ZTIN4aidl7android5media12soundtrigger17RecognitionConfigE",
   "self_type" : "_ZTIN4aidl7android5media12soundtrigger17RecognitionConfigE",
   "size" : 64,
   "source_file" : "out/soong/.intermediates/frameworks/base/media/android.media.soundtrigger.types-V1-ndk-source/gen/include/aidl/android/media/soundtrigger/RecognitionConfig.h"
  },
  {
   "alignment" : 4,
   "fields" :
   [
    {
     "field_name" : "minInclusive",
     "referenced_type" : "_ZTIi"
    },
    {
     "field_name" : "maxInclusive",
     "field_offset" : 32,
     "referenced_type" : "_ZTIi"
    }
   ],
   "linker_set_key" : "_ZTIN4aidl7android5media12soundtrigger19ModelParameterRangeE",
   "name" : "aidl::android::media::soundtrigger::ModelParameterRange",
   "record_kind" : "class",
   "referenced_type" : "_ZTIN4aidl7android5media12soundtrigger19ModelParameterRangeE",
   "self_type" : "_ZTIN4aidl7android5media12soundtrigger19ModelParameterRangeE",
   "size" : 8,
   "source_file" : "out/soong/.intermediates/frameworks/base/media/android.media.soundtrigger.types-V1-ndk-source/gen/include/aidl/android/media/soundtrigger/ModelParameterRange.h"
  },
  {
   "alignment" : 8,
   "fields" :
   [
    {
     "field_name" : "common",
     "referenced_type" : "_ZTIN4aidl7android5media12soundtrigger16RecognitionEventE"
    },
    {
     "field_name" : "phraseExtras",
     "field_offset" : 1728,
     "referenced_type" : "_ZTINSt3__16vectorIN4aidl7android5media12soundtrigger22PhraseRecognitionExtraENS_9allocatorIS5_EEEE"
    }
   ],
   "linker_set_key" : "_ZTIN4aidl7android5media12soundtrigger22PhraseRecognitionEventE",
   "name" : "aidl::android::media::soundtrigger::PhraseRecognitionEvent",
   "record_kind" : "class",
   "referenced_type" : "_ZTIN4aidl7android5media12soundtrigger22PhraseRecognitionEventE",
   "self_type" : "_ZTIN4aidl7android5media12soundtrigger22PhraseRecognitionEventE",
   "size" : 240,
   "source_file" : "out/soong/.intermediates/frameworks/base/media/android.media.soundtrigger.types-V1-ndk-source/gen/include/aidl/android/media/soundtrigger/PhraseRecognitionEvent.h"
  },
  {
   "alignment" : 8,
   "fields" :
   [
    {
     "field_name" : "id",
     "referenced_type" : "_ZTIi"
    },
    {
     "field_name" : "recognitionModes",
     "field_offset" : 32,
     "referenced_type" : "_ZTIi"
    },
    {
     "field_name" : "confidenceLevel",
     "field_offset" : 64,
     "referenced_type" : "_ZTIi"
    },
    {
     "field_name" : "levels",
     "field_offset" : 128,
     "referenced_type" : "_ZTINSt3__16vectorIN4aidl7android5media12soundtrigger15ConfidenceLevelENS_9allocatorIS5_EEEE"
    }
   ],
   "linker_set_key" : "_ZTIN4aidl7android5media12soundtrigger22PhraseRecognitionExtraE",
   "name" : "aidl::android::media::soundtrigger::PhraseRecognitionExtra",
   "record_kind" : "class",
   "referenced_type" : "_ZTIN4aidl7android5media12soundtrigger22PhraseRecognitionExtraE",
   "self_type" : "_ZTIN4aidl7android5media12soundtrigger22PhraseRecognitionExtraE",
   "size" : 40,
   "source_file" : "out/soong/.intermediates/frameworks/base/media/android.media.soundtrigger.types-V1-ndk-source/gen/include/aidl/android/media/soundtrigger/PhraseRecognitionExtra.h"
  },
  {
   "alignment" : 8,
   "fields" :
   [
    {
     "field_name" : "id",
     "referenced_type" : "_ZTIi"
    },
    {
     "field_name" : "recognitionModes",
     "field_offset" : 32,
     "referenced_type" : "_ZTIi"
    },
    {
     "field_name" : "users",
     "field_offset" : 64,
     "referenced_type" : "_ZTINSt3__16vectorIiNS_9allocatorIiEEEE"
    },
    {
     "field_name" : "locale",
     "field_offset" : 256,
     "referenced_type" : "_ZTINSt3__112basic_stringIcNS_11char_traitsIcEENS_9allocatorIcEEEE"
    },
    {
     "field_name" : "text",
     "field_offset" : 448,
     "referenced_type" : "_ZTINSt3__112basic_stringIcNS_11char_traitsIcEENS_9allocatorIcEEEE"
    }
   ],
   "linker_set_key" : "_ZTIN4aidl7android5media12soundtrigger6PhraseE",
   "name" : "aidl::android::media::soundtrigger::Phrase",
   "record_kind" : "class",
   "referenced_type" : "_ZTIN4aidl7android5media12soundtrigger6PhraseE",
   "self_type" : "_ZTIN4aidl7android5media12soundtrigger6PhraseE",
   "size" : 80,
   "source_file" : "out/soong/.intermediates/frameworks/base/media/android.media.soundtrigger.types-V1-ndk-source/gen/include/aidl/android/media/soundtrigger/Phrase.h"
  },
  {
   "alignment" : 8,
   "fields" :
   [
    {
     "field_name" : "base",
     "referenced_type" : "_ZTIN4aidl7android5media5audio6common15AudioConfigBaseE"
    },
    {
     "field_name" : "offloadInfo",
     "field_offset" : 384,
     "referenced_type" : "_ZTIN4aidl7android5media5audio6common16AudioOffloadInfoE"
    },
    {
     "field_name" : "frameCount",
     "field_offset" : 1152,
     "referenced_type" : "_ZTIl"
    }
   ],
   "linker_set_key" : "_ZTIN4aidl7android5media5audio6common11AudioConfigE",
   "name" : "aidl::android::media::audio::common::AudioConfig",
   "record_kind" : "class",
   "referenced_type" : "_ZTIN4aidl7android5media5audio6common11AudioConfigE",
   "self_type" : "_ZTIN4aidl7android5media5audio6common11AudioConfigE",
   "size" : 152,
   "source_file" : "out/soong/.intermediates/frameworks/base/media/android.media.audio.common.types-V1-ndk-source/gen/include/aidl/android/media/audio/common/AudioConfig.h"
  },
  {
   "alignment" : 8,
   "fields" :
   [
    {
     "field_name" : "sampleRate",
     "referenced_type" : "_ZTIi"
    },
    {
     "field_name" : "channelMask",
     "field_offset" : 32,
     "referenced_type" : "_ZTIN4aidl7android5media5audio6common18AudioChannelLayoutE"
    },
    {
     "field_name" : "format",
     "field_offset" : 128,
     "referenced_type" : "_ZTIN4aidl7android5media5audio6common22AudioFormatDescriptionE"
    }
   ],
   "linker_set_key" : "_ZTIN4aidl7android5media5audio6common15AudioConfigBaseE",
   "name" : "aidl::android::media::audio::common::AudioConfigBase",
   "record_kind" : "class",
   "referenced_type" : "_ZTIN4aidl7android5media5audio6common15AudioConfigBaseE",
   "self_type" : "_ZTIN4aidl7android5media5audio6common15AudioConfigBaseE",
   "size" : 48,
   "source_file" : "out/soong/.intermediates/frameworks/base/media/android.media.audio.common.types-V1-ndk-source/gen/include/aidl/android/media/audio/common/AudioConfigBase.h"
  },
  {
   "alignment" : 8,
   "fields" :
   [
    {
     "field_name" : "base",
     "referenced_type" : "_ZTIN4aidl7android5media5audio6common15AudioConfigBaseE"
    },
    {
     "field_name" : "streamType",
     "field_offset" : 384,
     "referenced_type" : "_ZTIN4aidl7android5media5audio6common15AudioStreamTypeE"
    },
    {
     "field_name" : "bitRatePerSecond",
     "field_offset" : 416,
     "referenced_type" : "_ZTIi"
    },
    {
     "field_name" : "durationUs",
     "field_offset" : 448,
     "referenced_type" : "_ZTIl"
    },
    {
     "field_name" : "hasVideo",
     "field_offset" : 512,
     "referenced_type" : "_ZTIb"
    },
    {
     "field_name" : "isStreaming",
     "field_offset" : 520,
     "referenced_type" : "_ZTIb"
    },
    {
     "field_name" : "bitWidth",
     "field_offset" : 544,
     "referenced_type" : "_ZTIi"
    },
    {
     "field_name" : "offloadBufferSize",
     "field_offset" : 576,
     "referenced_type" : "_ZTIi"
    },
    {
     "field_name" : "usage",
     "field_offset" : 608,
     "referenced_type" : "_ZTIN4aidl7android5media5audio6common10AudioUsageE"
    },
    {
     "field_name" : "encapsulationMode",
     "field_offset" : 640,
     "referenced_type" : "_ZTIN4aidl7android5media5audio6common22AudioEncapsulationModeE"
    },
    {
     "field_name" : "contentId",
     "field_offset" : 672,
     "referenced_type" : "_ZTIi"
    },
    {
     "field_name" : "syncId",
     "field_offset" : 704,
     "referenced_type" : "_ZTIi"
    }
   ],
   "linker_set_key" : "_ZTIN4aidl7android5media5audio6common16AudioOffloadInfoE",
   "name" : "aidl::android::media::audio::common::AudioOffloadInfo",
   "record_kind" : "class",
   "referenced_type" : "_ZTIN4aidl7android5media5audio6common16AudioOffloadInfoE",
   "self_type" : "_ZTIN4aidl7android5media5audio6common16AudioOffloadInfoE",
   "size" : 96,
   "source_file" : "out/soong/.intermediates/frameworks/base/media/android.media.audio.common.types-V1-ndk-source/gen/include/aidl/android/media/audio/common/AudioOffloadInfo.h"
  },
  {
   "alignment" : 4,
   "fields" :
   [
    {
     "access" : "private",
     "field_name" : "_value",
     "referenced_type" : "_ZTINSt3__17variantIJiiiiiEEE"
    }
   ],
   "linker_set_key" : "_ZTIN4aidl7android5media5audio6common18AudioChannelLayoutE",
   "name" : "aidl::android::media::audio::common::AudioChannelLayout",
   "record_kind" : "class",
   "referenced_type" : "_ZTIN4aidl7android5media5audio6common18AudioChannelLayoutE",
   "self_type" : "_ZTIN4aidl7android5media5audio6common18AudioChannelLayoutE",
   "size" : 8,
   "source_file" : "out/soong/.intermediates/frameworks/base/media/android.media.audio.common.types-V1-ndk-source/gen/include/aidl/android/media/audio/common/AudioChannelLayout.h"
  },
  {
   "alignment" : 8,
   "fields" :
   [
    {
     "field_name" : "type",
     "referenced_type" : "_ZTIN4aidl7android5media5audio6common15AudioFormatTypeE"
    },
    {
     "field_name" : "pcm",
     "field_offset" : 8,
     "referenced_type" : "_ZTIN4aidl7android5media5audio6common7PcmTypeE"
    },
    {
     "field_name" : "encoding",
     "field_offset" : 64,
     "referenced_type" : "_ZTINSt3__112basic_stringIcNS_11char_traitsIcEENS_9allocatorIcEEEE"
    }
   ],
   "linker_set_key" : "_ZTIN4aidl7android5media5audio6common22AudioFormatDescriptionE",
   "name" : "aidl::android::media::audio::common::AudioFormatDescription",
   "record_kind" : "class",
   "referenced_type" : "_ZTIN4aidl7android5media5audio6common22AudioFormatDescriptionE",
   "self_type" : "_ZTIN4aidl7android5media5audio6common22AudioFormatDescriptionE",
   "size" : 32,
   "source_file" : "out/soong/.intermediates/frameworks/base/media/android.media.audio.common.types-V1-ndk-source/gen/include/aidl/android/media/audio/common/AudioFormatDescription.h"
  },
  {
   "alignment" : 8,
   "base_specifiers" :
   [
    {
     "referenced_type" : "_ZTIN3ndk11ICInterfaceE"
    }
   ],
   "linker_set_key" : "_ZTIN4aidl7android8hardware13soundtrigger315ISoundTriggerHwE",
   "name" : "aidl::android::hardware::soundtrigger3::ISoundTriggerHw",
   "record_kind" : "class",
   "referenced_type" : "_ZTIN4aidl7android8hardware13soundtrigger315ISoundTriggerHwE",
   "self_type" : "_ZTIN4aidl7android8hardware13soundtrigger315ISoundTriggerHwE",
   "size" : 32,
   "source_file" : "out/soong/.intermediates/hardware/interfaces/soundtrigger/aidl/android.hardware.soundtrigger3-V1-ndk-source/gen/include/aidl/android/hardware/soundtrigger3/ISoundTriggerHw.h",
   "vtable_components" :
   [
    {
     "kind" : "offset_to_top"
    },
    {
     "kind" : "rtti",
     "mangled_component_name" : "_ZTIN4aidl7android8hardware13soundtrigger315ISoundTriggerHwE"
    },
    {
     "kind" : "complete_dtor_pointer",
     "mangled_component_name" : "_ZN4aidl7android8hardware13soundtrigger315ISoundTriggerHwD1Ev"
    },
    {
     "kind" : "deleting_dtor_pointer",
     "mangled_component_name" : "_ZN4aidl7android8hardware13soundtrigger315ISoundTriggerHwD0Ev"
    },
    {
     "is_pure" : true,
     "mangled_component_name" : "_ZN3ndk11ICInterface8asBinderEv"
    },
    {
     "is_pure" : true,
     "mangled_component_name" : "_ZN3ndk11ICInterface8isRemoteEv"
    },
    {
     "mangled_component_name" : "_ZN3ndk11ICInterface4dumpEiPPKcj"
    },
    {
     "mangled_component_name" : "_ZN3ndk11ICInterface18handleShellCommandEiiiPPKcj"
    },
    {
     "is_pure" : true,
     "mangled_component_name" : "_ZN4aidl7android8hardware13soundtrigger315ISoundTriggerHw13getPropertiesEPNS0_5media12soundtrigger10PropertiesE"
    },
    {
     "is_pure" : true,
     "mangled_component_name" : "_ZN4aidl7android8hardware13soundtrigger315ISoundTriggerHw22registerGlobalCallbackERKNSt3__110shared_ptrINS2_29ISoundTriggerHwGlobalCallbackEEE"
    },
    {
     "is_pure" : true,
     "mangled_component_name" : "_ZN4aidl7android8hardware13soundtrigger315ISoundTriggerHw14loadSoundModelERKNS0_5media12soundtrigger10SoundModelERKNSt3__110shared_ptrINS2_23ISoundTriggerHwCallbackEEEPi"
    },
    {
     "is_pure" : true,
     "mangled_component_name" : "_ZN4aidl7android8hardware13soundtrigger315ISoundTriggerHw20loadPhraseSoundModelERKNS0_5media12soundtrigger16PhraseSoundModelERKNSt3__110shared_ptrINS2_23ISoundTriggerHwCallbackEEEPi"
    },
    {
     "is_pure" : true,
     "mangled_component_name" : "_ZN4aidl7android8hardware13soundtrigger315ISoundTriggerHw16unloadSoundModelEi"
    },
    {
     "is_pure" : true,
     "mangled_component_name" : "_ZN4aidl7android8hardware13soundtrigger315ISoundTriggerHw16startRecognitionEiiiRKNS0_5media12soundtrigger17RecognitionConfigE"
    },
    {
     "is_pure" : true,
     "mangled_component_name" : "_ZN4aidl7android8hardware13soundtrigger315ISoundTriggerHw15stopRecognitionEi"
    },
    {
     "is_pure" : true,
     "mangled_component_name" : "_ZN4aidl7android8hardware13soundtrigger315ISoundTriggerHw21forceRecognitionEventEi"
    },
    {
     "is_pure" : true,
     "mangled_component_name" : "_ZN4aidl7android8hardware13soundtrigger315ISoundTriggerHw14queryParameterEiNS0_5media12soundtrigger14ModelParameterEPNSt3__18optionalINS5_19ModelParameterRangeEEE"
    },
    {
     "is_pure" : true,
     "mangled_component_name" : "_ZN4aidl7android8hardware13soundtrigger315ISoundTriggerHw12getParameterEiNS0_5media12soundtrigger14ModelParameterEPi"
    },
    {
     "is_pure" : true,
     "mangled_component_name" : "_ZN4aidl7android8hardware13soundtrigger315ISoundTriggerHw12setParameterEiNS0_5media12soundtrigger14ModelParameterEi"
    },
    {
     "is_pure" : true,
     "mangled_component_name" : "_ZN4aidl7android8hardware13soundtrigger315ISoundTriggerHw19getInterfaceVersionEPi"
    },
    {
     "is_pure" : true,
     "mangled_component_name" : "_ZN4aidl7android8hardware13soundtrigger315ISoundTriggerHw16getInterfaceHashEPNSt3__112basic_stringIcNS4_11char_traitsIcEENS4_9allocatorIcEEEE"
    }
   ]
  },
  {
   "alignment" : 8,
   "base_specifiers" :
   [
    {
     "referenced_type" : "_ZTIN3ndk12BnCInterfaceIN4aidl7android8hardware13soundtrigger315ISoundTriggerHwEEE"
    }
   ],
   "linker_set_key" : "_ZTIN4aidl7android8hardware13soundtrigger316BnSoundTriggerHwE",
   "name" : "aidl::android::hardware::soundtrigger3::BnSoundTriggerHw",
   "record_kind" : "class",
   "referenced_type" : "_ZTIN4aidl7android8hardware13soundtrigger316BnSoundTriggerHwE",
   "self_type" : "_ZTIN4aidl7android8hardware13soundtrigger316BnSoundTriggerHwE",
   "size" : 80,
   "source_file" : "out/soong/.intermediates/hardware/interfaces/soundtrigger/aidl/android.hardware.soundtrigger3-V1-ndk-source/gen/include/aidl/android/hardware/soundtrigger3/BnSoundTriggerHw.h",
   "vtable_components" :
   [
    {
     "kind" : "offset_to_top"
    },
    {
     "kind" : "rtti",
     "mangled_component_name" : "_ZTIN4aidl7android8hardware13soundtrigger316BnSoundTriggerHwE"
    },
    {
     "kind" : "complete_dtor_pointer",
     "mangled_component_name" : "_ZN4aidl7android8hardware13soundtrigger316BnSoundTriggerHwD1Ev"
    },
    {
     "kind" : "deleting_dtor_pointer",
     "mangled_component_name" : "_ZN4aidl7android8hardware13soundtrigger316BnSoundTriggerHwD0Ev"
    },
    {
     "mangled_component_name" : "_ZN3ndk12BnCInterfaceIN4aidl7android8hardware13soundtrigger315ISoundTriggerHwEE8asBinderEv"
    },
    {
     "mangled_component_name" : "_ZN3ndk12BnCInterfaceIN4aidl7android8hardware13soundtrigger315ISoundTriggerHwEE8isRemoteEv"
    },
    {
     "mangled_component_name" : "_ZN3ndk11ICInterface4dumpEiPPKcj"
    },
    {
     "mangled_component_name" : "_ZN3ndk11ICInterface18handleShellCommandEiiiPPKcj"
    },
    {
     "is_pure" : true,
     "mangled_component_name" : "_ZN4aidl7android8hardware13soundtrigger315ISoundTriggerHw13getPropertiesEPNS0_5media12soundtrigger10PropertiesE"
    },
    {
     "is_pure" : true,
     "mangled_component_name" : "_ZN4aidl7android8hardware13soundtrigger315ISoundTriggerHw22registerGlobalCallbackERKNSt3__110shared_ptrINS2_29ISoundTriggerHwGlobalCallbackEEE"
    },
    {
     "is_pure" : true,
     "mangled_component_name" : "_ZN4aidl7android8hardware13soundtrigger315ISoundTriggerHw14loadSoundModelERKNS0_5media12soundtrigger10SoundModelERKNSt3__110shared_ptrINS2_23ISoundTriggerHwCallbackEEEPi"
    },
    {
     "is_pure" : true,
     "mangled_component_name" : "_ZN4aidl7android8hardware13soundtrigger315ISoundTriggerHw20loadPhraseSoundModelERKNS0_5media12soundtrigger16PhraseSoundModelERKNSt3__110shared_ptrINS2_23ISoundTriggerHwCallbackEEEPi"
    },
    {
     "is_pure" : true,
     "mangled_component_name" : "_ZN4aidl7android8hardware13soundtrigger315ISoundTriggerHw16unloadSoundModelEi"
    },
    {
     "is_pure" : true,
     "mangled_component_name" : "_ZN4aidl7android8hardware13soundtrigger315ISoundTriggerHw16startRecognitionEiiiRKNS0_5media12soundtrigger17RecognitionConfigE"
    },
    {
     "is_pure" : true,
     "mangled_component_name" : "_ZN4aidl7android8hardware13soundtrigger315ISoundTriggerHw15stopRecognitionEi"
    },
    {
     "is_pure" : true,
     "mangled_component_name" : "_ZN4aidl7android8hardware13soundtrigger315ISoundTriggerHw21forceRecognitionEventEi"
    },
    {
     "is_pure" : true,
     "mangled_component_name" : "_ZN4aidl7android8hardware13soundtrigger315ISoundTriggerHw14queryParameterEiNS0_5media12soundtrigger14ModelParameterEPNSt3__18optionalINS5_19ModelParameterRangeEEE"
    },
    {
     "is_pure" : true,
     "mangled_component_name" : "_ZN4aidl7android8hardware13soundtrigger315ISoundTriggerHw12getParameterEiNS0_5media12soundtrigger14ModelParameterEPi"
    },
    {
     "is_pure" : true,
     "mangled_component_name" : "_ZN4aidl7android8hardware13soundtrigger315ISoundTriggerHw12setParameterEiNS0_5media12soundtrigger14ModelParameterEi"
    },
    {
     "mangled_component_name" : "_ZN4aidl7android8hardware13soundtrigger316BnSoundTriggerHw19getInterfaceVersionEPi"
    },
    {
     "mangled_component_name" : "_ZN4aidl7android8hardware13soundtrigger316BnSoundTriggerHw16getInterfaceHashEPNSt3__112basic_stringIcNS4_11char_traitsIcEENS4_9allocatorIcEEEE"
    },
    {
     "mangled_component_name" : "_ZN4aidl7android8hardware13soundtrigger316BnSoundTriggerHw12createBinderEv"
    }
   ]
  },
  {
   "alignment" : 8,
   "base_specifiers" :
   [
    {
     "referenced_type" : "_ZTIN3ndk12BpCInterfaceIN4aidl7android8hardware13soundtrigger315ISoundTriggerHwEEE"
    }
   ],
   "fields" :
   [
    {
     "field_name" : "_aidl_cached_version",
     "field_offset" : 320,
     "referenced_type" : "_ZTIi"
    },
    {
     "field_name" : "_aidl_cached_hash",
     "field_offset" : 384,
     "referenced_type" : "_ZTINSt3__112basic_stringIcNS_11char_traitsIcEENS_9allocatorIcEEEE"
    },
    {
     "field_name" : "_aidl_cached_hash_mutex",
     "field_offset" : 576,
     "referenced_type" : "_ZTINSt3__15mutexE"
    }
   ],
   "linker_set_key" : "_ZTIN4aidl7android8hardware13soundtrigger316BpSoundTriggerHwE",
   "name" : "aidl::android::hardware::soundtrigger3::BpSoundTriggerHw",
   "record_kind" : "class",
   "referenced_type" : "_ZTIN4aidl7android8hardware13soundtrigger316BpSoundTriggerHwE",
   "self_type" : "_ZTIN4aidl7android8hardware13soundtrigger316BpSoundTriggerHwE",
   "size" : 112,
   "source_file" : "out/soong/.intermediates/hardware/interfaces/soundtrigger/aidl/android.hardware.soundtrigger3-V1-ndk-source/gen/include/aidl/android/hardware/soundtrigger3/BpSoundTriggerHw.h",
   "vtable_components" :
   [
    {
     "kind" : "offset_to_top"
    },
    {
     "kind" : "rtti",
     "mangled_component_name" : "_ZTIN4aidl7android8hardware13soundtrigger316BpSoundTriggerHwE"
    },
    {
     "kind" : "complete_dtor_pointer",
     "mangled_component_name" : "_ZN4aidl7android8hardware13soundtrigger316BpSoundTriggerHwD1Ev"
    },
    {
     "kind" : "deleting_dtor_pointer",
     "mangled_component_name" : "_ZN4aidl7android8hardware13soundtrigger316BpSoundTriggerHwD0Ev"
    },
    {
     "mangled_component_name" : "_ZN3ndk12BpCInterfaceIN4aidl7android8hardware13soundtrigger315ISoundTriggerHwEE8asBinderEv"
    },
    {
     "mangled_component_name" : "_ZN3ndk12BpCInterfaceIN4aidl7android8hardware13soundtrigger315ISoundTriggerHwEE8isRemoteEv"
    },
    {
     "mangled_component_name" : "_ZN3ndk12BpCInterfaceIN4aidl7android8hardware13soundtrigger315ISoundTriggerHwEE4dumpEiPPKcj"
    },
    {
     "mangled_component_name" : "_ZN3ndk11ICInterface18handleShellCommandEiiiPPKcj"
    },
    {
     "mangled_component_name" : "_ZN4aidl7android8hardware13soundtrigger316BpSoundTriggerHw13getPropertiesEPNS0_5media12soundtrigger10PropertiesE"
    },
    {
     "mangled_component_name" : "_ZN4aidl7android8hardware13soundtrigger316BpSoundTriggerHw22registerGlobalCallbackERKNSt3__110shared_ptrINS2_29ISoundTriggerHwGlobalCallbackEEE"
    },
    {
     "mangled_component_name" : "_ZN4aidl7android8hardware13soundtrigger316BpSoundTriggerHw14loadSoundModelERKNS0_5media12soundtrigger10SoundModelERKNSt3__110shared_ptrINS2_23ISoundTriggerHwCallbackEEEPi"
    },
    {
     "mangled_component_name" : "_ZN4aidl7android8hardware13soundtrigger316BpSoundTriggerHw20loadPhraseSoundModelERKNS0_5media12soundtrigger16PhraseSoundModelERKNSt3__110shared_ptrINS2_23ISoundTriggerHwCallbackEEEPi"
    },
    {
     "mangled_component_name" : "_ZN4aidl7android8hardware13soundtrigger316BpSoundTriggerHw16unloadSoundModelEi"
    },
    {
     "mangled_component_name" : "_ZN4aidl7android8hardware13soundtrigger316BpSoundTriggerHw16startRecognitionEiiiRKNS0_5media12soundtrigger17RecognitionConfigE"
    },
    {
     "mangled_component_name" : "_ZN4aidl7android8hardware13soundtrigger316BpSoundTriggerHw15stopRecognitionEi"
    },
    {
     "mangled_component_name" : "_ZN4aidl7android8hardware13soundtrigger316BpSoundTriggerHw21forceRecognitionEventEi"
    },
    {
     "mangled_component_name" : "_ZN4aidl7android8hardware13soundtrigger316BpSoundTriggerHw14queryParameterEiNS0_5media12soundtrigger14ModelParameterEPNSt3__18optionalINS5_19ModelParameterRangeEEE"
    },
    {
     "mangled_component_name" : "_ZN4aidl7android8hardware13soundtrigger316BpSoundTriggerHw12getParameterEiNS0_5media12soundtrigger14ModelParameterEPi"
    },
    {
     "mangled_component_name" : "_ZN4aidl7android8hardware13soundtrigger316BpSoundTriggerHw12setParameterEiNS0_5media12soundtrigger14ModelParameterEi"
    },
    {
     "mangled_component_name" : "_ZN4aidl7android8hardware13soundtrigger316BpSoundTriggerHw19getInterfaceVersionEPi"
    },
    {
     "mangled_component_name" : "_ZN4aidl7android8hardware13soundtrigger316BpSoundTriggerHw16getInterfaceHashEPNSt3__112basic_stringIcNS4_11char_traitsIcEENS4_9allocatorIcEEEE"
    }
   ]
  },
  {
   "alignment" : 8,
   "base_specifiers" :
   [
    {
     "referenced_type" : "_ZTIN4aidl7android8hardware13soundtrigger315ISoundTriggerHwE"
    }
   ],
   "linker_set_key" : "_ZTIN4aidl7android8hardware13soundtrigger322ISoundTriggerHwDefaultE",
   "name" : "aidl::android::hardware::soundtrigger3::ISoundTriggerHwDefault",
   "record_kind" : "class",
   "referenced_type" : "_ZTIN4aidl7android8hardware13soundtrigger322ISoundTriggerHwDefaultE",
   "self_type" : "_ZTIN4aidl7android8hardware13soundtrigger322ISoundTriggerHwDefaultE",
   "size" : 32,
   "source_file" : "out/soong/.intermediates/hardware/interfaces/soundtrigger/aidl/android.hardware.soundtrigger3-V1-ndk-source/gen/include/aidl/android/hardware/soundtrigger3/ISoundTriggerHw.h",
   "vtable_components" :
   [
    {
     "kind" : "offset_to_top"
    },
    {
     "kind" : "rtti",
     "mangled_component_name" : "_ZTIN4aidl7android8hardware13soundtrigger322ISoundTriggerHwDefaultE"
    },
    {
     "kind" : "complete_dtor_pointer",
     "mangled_component_name" : "_ZN4aidl7android8hardware13soundtrigger322ISoundTriggerHwDefaultD1Ev"
    },
    {
     "kind" : "deleting_dtor_pointer",
     "mangled_component_name" : "_ZN4aidl7android8hardware13soundtrigger322ISoundTriggerHwDefaultD0Ev"
    },
    {
     "mangled_component_name" : "_ZN4aidl7android8hardware13soundtrigger322ISoundTriggerHwDefault8asBinderEv"
    },
    {
     "mangled_component_name" : "_ZN4aidl7android8hardware13soundtrigger322ISoundTriggerHwDefault8isRemoteEv"
    },
    {
     "mangled_component_name" : "_ZN3ndk11ICInterface4dumpEiPPKcj"
    },
    {
     "mangled_component_name" : "_ZN3ndk11ICInterface18handleShellCommandEiiiPPKcj"
    },
    {
     "mangled_component_name" : "_ZN4aidl7android8hardware13soundtrigger322ISoundTriggerHwDefault13getPropertiesEPNS0_5media12soundtrigger10PropertiesE"
    },
    {
     "mangled_component_name" : "_ZN4aidl7android8hardware13soundtrigger322ISoundTriggerHwDefault22registerGlobalCallbackERKNSt3__110shared_ptrINS2_29ISoundTriggerHwGlobalCallbackEEE"
    },
    {
     "mangled_component_name" : "_ZN4aidl7android8hardware13soundtrigger322ISoundTriggerHwDefault14loadSoundModelERKNS0_5media12soundtrigger10SoundModelERKNSt3__110shared_ptrINS2_23ISoundTriggerHwCallbackEEEPi"
    },
    {
     "mangled_component_name" : "_ZN4aidl7android8hardware13soundtrigger322ISoundTriggerHwDefault20loadPhraseSoundModelERKNS0_5media12soundtrigger16PhraseSoundModelERKNSt3__110shared_ptrINS2_23ISoundTriggerHwCallbackEEEPi"
    },
    {
     "mangled_component_name" : "_ZN4aidl7android8hardware13soundtrigger322ISoundTriggerHwDefault16unloadSoundModelEi"
    },
    {
     "mangled_component_name" : "_ZN4aidl7android8hardware13soundtrigger322ISoundTriggerHwDefault16startRecognitionEiiiRKNS0_5media12soundtrigger17RecognitionConfigE"
    },
    {
     "mangled_component_name" : "_ZN4aidl7android8hardware13soundtrigger322ISoundTriggerHwDefault15stopRecognitionEi"
    },
    {
     "mangled_component_name" : "_ZN4aidl7android8hardware13soundtrigger322ISoundTriggerHwDefault21forceRecognitionEventEi"
    },
    {
     "mangled_component_name" : "_ZN4aidl7android8hardware13soundtrigger322ISoundTriggerHwDefault14queryParameterEiNS0_5media12soundtrigger14ModelParameterEPNSt3__18optionalINS5_19ModelParameterRangeEEE"
    },
    {
     "mangled_component_name" : "_ZN4aidl7android8hardware13soundtrigger322ISoundTriggerHwDefault12getParameterEiNS0_5media12soundtrigger14ModelParameterEPi"
    },
    {
     "mangled_component_name" : "_ZN4aidl7android8hardware13soundtrigger322ISoundTriggerHwDefault12setParameterEiNS0_5media12soundtrigger14ModelParameterEi"
    },
    {
     "mangled_component_name" : "_ZN4aidl7android8hardware13soundtrigger322ISoundTriggerHwDefault19getInterfaceVersionEPi"
    },
    {
     "mangled_component_name" : "_ZN4aidl7android8hardware13soundtrigger322ISoundTriggerHwDefault16getInterfaceHashEPNSt3__112basic_stringIcNS4_11char_traitsIcEENS4_9allocatorIcEEEE"
    }
   ]
  },
  {
   "alignment" : 8,
   "base_specifiers" :
   [
    {
     "referenced_type" : "_ZTIN3ndk11ICInterfaceE"
    }
   ],
   "linker_set_key" : "_ZTIN4aidl7android8hardware13soundtrigger323ISoundTriggerHwCallbackE",
   "name" : "aidl::android::hardware::soundtrigger3::ISoundTriggerHwCallback",
   "record_kind" : "class",
   "referenced_type" : "_ZTIN4aidl7android8hardware13soundtrigger323ISoundTriggerHwCallbackE",
   "self_type" : "_ZTIN4aidl7android8hardware13soundtrigger323ISoundTriggerHwCallbackE",
   "size" : 32,
   "source_file" : "out/soong/.intermediates/hardware/interfaces/soundtrigger/aidl/android.hardware.soundtrigger3-V1-ndk-source/gen/include/aidl/android/hardware/soundtrigger3/ISoundTriggerHwCallback.h",
   "vtable_components" :
   [
    {
     "kind" : "offset_to_top"
    },
    {
     "kind" : "rtti",
     "mangled_component_name" : "_ZTIN4aidl7android8hardware13soundtrigger323ISoundTriggerHwCallbackE"
    },
    {
     "kind" : "complete_dtor_pointer",
     "mangled_component_name" : "_ZN4aidl7android8hardware13soundtrigger323ISoundTriggerHwCallbackD1Ev"
    },
    {
     "kind" : "deleting_dtor_pointer",
     "mangled_component_name" : "_ZN4aidl7android8hardware13soundtrigger323ISoundTriggerHwCallbackD0Ev"
    },
    {
     "is_pure" : true,
     "mangled_component_name" : "_ZN3ndk11ICInterface8asBinderEv"
    },
    {
     "is_pure" : true,
     "mangled_component_name" : "_ZN3ndk11ICInterface8isRemoteEv"
    },
    {
     "mangled_component_name" : "_ZN3ndk11ICInterface4dumpEiPPKcj"
    },
    {
     "mangled_component_name" : "_ZN3ndk11ICInterface18handleShellCommandEiiiPPKcj"
    },
    {
     "is_pure" : true,
     "mangled_component_name" : "_ZN4aidl7android8hardware13soundtrigger323ISoundTriggerHwCallback13modelUnloadedEi"
    },
    {
     "is_pure" : true,
     "mangled_component_name" : "_ZN4aidl7android8hardware13soundtrigger323ISoundTriggerHwCallback25phraseRecognitionCallbackEiRKNS0_5media12soundtrigger22PhraseRecognitionEventE"
    },
    {
     "is_pure" : true,
     "mangled_component_name" : "_ZN4aidl7android8hardware13soundtrigger323ISoundTriggerHwCallback19recognitionCallbackEiRKNS0_5media12soundtrigger16RecognitionEventE"
    },
    {
     "is_pure" : true,
     "mangled_component_name" : "_ZN4aidl7android8hardware13soundtrigger323ISoundTriggerHwCallback19getInterfaceVersionEPi"
    },
    {
     "is_pure" : true,
     "mangled_component_name" : "_ZN4aidl7android8hardware13soundtrigger323ISoundTriggerHwCallback16getInterfaceHashEPNSt3__112basic_stringIcNS4_11char_traitsIcEENS4_9allocatorIcEEEE"
    }
   ]
  },
  {
   "alignment" : 8,
   "base_specifiers" :
   [
    {
     "referenced_type" : "_ZTIN3ndk12BnCInterfaceIN4aidl7android8hardware13soundtrigger323ISoundTriggerHwCallbackEEE"
    }
   ],
   "linker_set_key" : "_ZTIN4aidl7android8hardware13soundtrigger324BnSoundTriggerHwCallbackE",
   "name" : "aidl::android::hardware::soundtrigger3::BnSoundTriggerHwCallback",
   "record_kind" : "class",
   "referenced_type" : "_ZTIN4aidl7android8hardware13soundtrigger324BnSoundTriggerHwCallbackE",
   "self_type" : "_ZTIN4aidl7android8hardware13soundtrigger324BnSoundTriggerHwCallbackE",
   "size" : 80,
   "source_file" : "out/soong/.intermediates/hardware/interfaces/soundtrigger/aidl/android.hardware.soundtrigger3-V1-ndk-source/gen/include/aidl/android/hardware/soundtrigger3/BnSoundTriggerHwCallback.h",
   "vtable_components" :
   [
    {
     "kind" : "offset_to_top"
    },
    {
     "kind" : "rtti",
     "mangled_component_name" : "_ZTIN4aidl7android8hardware13soundtrigger324BnSoundTriggerHwCallbackE"
    },
    {
     "kind" : "complete_dtor_pointer",
     "mangled_component_name" : "_ZN4aidl7android8hardware13soundtrigger324BnSoundTriggerHwCallbackD1Ev"
    },
    {
     "kind" : "deleting_dtor_pointer",
     "mangled_component_name" : "_ZN4aidl7android8hardware13soundtrigger324BnSoundTriggerHwCallbackD0Ev"
    },
    {
     "mangled_component_name" : "_ZN3ndk12BnCInterfaceIN4aidl7android8hardware13soundtrigger323ISoundTriggerHwCallbackEE8asBinderEv"
    },
    {
     "mangled_component_name" : "_ZN3ndk12BnCInterfaceIN4aidl7android8hardware13soundtrigger323ISoundTriggerHwCallbackEE8isRemoteEv"
    },
    {
     "mangled_component_name" : "_ZN3ndk11ICInterface4dumpEiPPKcj"
    },
    {
     "mangled_component_name" : "_ZN3ndk11ICInterface18handleShellCommandEiiiPPKcj"
    },
    {
     "is_pure" : true,
     "mangled_component_name" : "_ZN4aidl7android8hardware13soundtrigger323ISoundTriggerHwCallback13modelUnloadedEi"
    },
    {
     "is_pure" : true,
     "mangled_component_name" : "_ZN4aidl7android8hardware13soundtrigger323ISoundTriggerHwCallback25phraseRecognitionCallbackEiRKNS0_5media12soundtrigger22PhraseRecognitionEventE"
    },
    {
     "is_pure" : true,
     "mangled_component_name" : "_ZN4aidl7android8hardware13soundtrigger323ISoundTriggerHwCallback19recognitionCallbackEiRKNS0_5media12soundtrigger16RecognitionEventE"
    },
    {
     "mangled_component_name" : "_ZN4aidl7android8hardware13soundtrigger324BnSoundTriggerHwCallback19getInterfaceVersionEPi"
    },
    {
     "mangled_component_name" : "_ZN4aidl7android8hardware13soundtrigger324BnSoundTriggerHwCallback16getInterfaceHashEPNSt3__112basic_stringIcNS4_11char_traitsIcEENS4_9allocatorIcEEEE"
    },
    {
     "mangled_component_name" : "_ZN4aidl7android8hardware13soundtrigger324BnSoundTriggerHwCallback12createBinderEv"
    }
   ]
  },
  {
   "alignment" : 8,
   "base_specifiers" :
   [
    {
     "referenced_type" : "_ZTIN3ndk12BpCInterfaceIN4aidl7android8hardware13soundtrigger323ISoundTriggerHwCallbackEEE"
    }
   ],
   "fields" :
   [
    {
     "field_name" : "_aidl_cached_version",
     "field_offset" : 320,
     "referenced_type" : "_ZTIi"
    },
    {
     "field_name" : "_aidl_cached_hash",
     "field_offset" : 384,
     "referenced_type" : "_ZTINSt3__112basic_stringIcNS_11char_traitsIcEENS_9allocatorIcEEEE"
    },
    {
     "field_name" : "_aidl_cached_hash_mutex",
     "field_offset" : 576,
     "referenced_type" : "_ZTINSt3__15mutexE"
    }
   ],
   "linker_set_key" : "_ZTIN4aidl7android8hardware13soundtrigger324BpSoundTriggerHwCallbackE",
   "name" : "aidl::android::hardware::soundtrigger3::BpSoundTriggerHwCallback",
   "record_kind" : "class",
   "referenced_type" : "_ZTIN4aidl7android8hardware13soundtrigger324BpSoundTriggerHwCallbackE",
   "self_type" : "_ZTIN4aidl7android8hardware13soundtrigger324BpSoundTriggerHwCallbackE",
   "size" : 112,
   "source_file" : "out/soong/.intermediates/hardware/interfaces/soundtrigger/aidl/android.hardware.soundtrigger3-V1-ndk-source/gen/include/aidl/android/hardware/soundtrigger3/BpSoundTriggerHwCallback.h",
   "vtable_components" :
   [
    {
     "kind" : "offset_to_top"
    },
    {
     "kind" : "rtti",
     "mangled_component_name" : "_ZTIN4aidl7android8hardware13soundtrigger324BpSoundTriggerHwCallbackE"
    },
    {
     "kind" : "complete_dtor_pointer",
     "mangled_component_name" : "_ZN4aidl7android8hardware13soundtrigger324BpSoundTriggerHwCallbackD1Ev"
    },
    {
     "kind" : "deleting_dtor_pointer",
     "mangled_component_name" : "_ZN4aidl7android8hardware13soundtrigger324BpSoundTriggerHwCallbackD0Ev"
    },
    {
     "mangled_component_name" : "_ZN3ndk12BpCInterfaceIN4aidl7android8hardware13soundtrigger323ISoundTriggerHwCallbackEE8asBinderEv"
    },
    {
     "mangled_component_name" : "_ZN3ndk12BpCInterfaceIN4aidl7android8hardware13soundtrigger323ISoundTriggerHwCallbackEE8isRemoteEv"
    },
    {
     "mangled_component_name" : "_ZN3ndk12BpCInterfaceIN4aidl7android8hardware13soundtrigger323ISoundTriggerHwCallbackEE4dumpEiPPKcj"
    },
    {
     "mangled_component_name" : "_ZN3ndk11ICInterface18handleShellCommandEiiiPPKcj"
    },
    {
     "mangled_component_name" : "_ZN4aidl7android8hardware13soundtrigger324BpSoundTriggerHwCallback13modelUnloadedEi"
    },
    {
     "mangled_component_name" : "_ZN4aidl7android8hardware13soundtrigger324BpSoundTriggerHwCallback25phraseRecognitionCallbackEiRKNS0_5media12soundtrigger22PhraseRecognitionEventE"
    },
    {
     "mangled_component_name" : "_ZN4aidl7android8hardware13soundtrigger324BpSoundTriggerHwCallback19recognitionCallbackEiRKNS0_5media12soundtrigger16RecognitionEventE"
    },
    {
     "mangled_component_name" : "_ZN4aidl7android8hardware13soundtrigger324BpSoundTriggerHwCallback19getInterfaceVersionEPi"
    },
    {
     "mangled_component_name" : "_ZN4aidl7android8hardware13soundtrigger324BpSoundTriggerHwCallback16getInterfaceHashEPNSt3__112basic_stringIcNS4_11char_traitsIcEENS4_9allocatorIcEEEE"
    }
   ]
  },
  {
   "alignment" : 8,
   "base_specifiers" :
   [
    {
     "referenced_type" : "_ZTIN4aidl7android8hardware13soundtrigger316BnSoundTriggerHwE"
    }
   ],
   "fields" :
   [
    {
     "access" : "private",
     "field_name" : "_impl",
     "field_offset" : 640,
     "referenced_type" : "_ZTINSt3__110shared_ptrIN4aidl7android8hardware13soundtrigger315ISoundTriggerHwEEE"
    }
   ],
   "linker_set_key" : "_ZTIN4aidl7android8hardware13soundtrigger324ISoundTriggerHwDelegatorE",
   "name" : "aidl::android::hardware::soundtrigger3::ISoundTriggerHwDelegator",
   "record_kind" : "class",
   "referenced_type" : "_ZTIN4aidl7android8hardware13soundtrigger324ISoundTriggerHwDelegatorE",
   "self_type" : "_ZTIN4aidl7android8hardware13soundtrigger324ISoundTriggerHwDelegatorE",
   "size" : 96,
   "source_file" : "out/soong/.intermediates/hardware/interfaces/soundtrigger/aidl/android.hardware.soundtrigger3-V1-ndk-source/gen/include/aidl/android/hardware/soundtrigger3/BnSoundTriggerHw.h",
   "vtable_components" :
   [
    {
     "kind" : "offset_to_top"
    },
    {
     "kind" : "rtti",
     "mangled_component_name" : "_ZTIN4aidl7android8hardware13soundtrigger324ISoundTriggerHwDelegatorE"
    },
    {
     "kind" : "complete_dtor_pointer",
     "mangled_component_name" : "_ZN4aidl7android8hardware13soundtrigger324ISoundTriggerHwDelegatorD1Ev"
    },
    {
     "kind" : "deleting_dtor_pointer",
     "mangled_component_name" : "_ZN4aidl7android8hardware13soundtrigger324ISoundTriggerHwDelegatorD0Ev"
    },
    {
     "mangled_component_name" : "_ZN3ndk12BnCInterfaceIN4aidl7android8hardware13soundtrigger315ISoundTriggerHwEE8asBinderEv"
    },
    {
     "mangled_component_name" : "_ZN3ndk12BnCInterfaceIN4aidl7android8hardware13soundtrigger315ISoundTriggerHwEE8isRemoteEv"
    },
    {
     "mangled_component_name" : "_ZN3ndk11ICInterface4dumpEiPPKcj"
    },
    {
     "mangled_component_name" : "_ZN3ndk11ICInterface18handleShellCommandEiiiPPKcj"
    },
    {
     "mangled_component_name" : "_ZN4aidl7android8hardware13soundtrigger324ISoundTriggerHwDelegator13getPropertiesEPNS0_5media12soundtrigger10PropertiesE"
    },
    {
     "mangled_component_name" : "_ZN4aidl7android8hardware13soundtrigger324ISoundTriggerHwDelegator22registerGlobalCallbackERKNSt3__110shared_ptrINS2_29ISoundTriggerHwGlobalCallbackEEE"
    },
    {
     "mangled_component_name" : "_ZN4aidl7android8hardware13soundtrigger324ISoundTriggerHwDelegator14loadSoundModelERKNS0_5media12soundtrigger10SoundModelERKNSt3__110shared_ptrINS2_23ISoundTriggerHwCallbackEEEPi"
    },
    {
     "mangled_component_name" : "_ZN4aidl7android8hardware13soundtrigger324ISoundTriggerHwDelegator20loadPhraseSoundModelERKNS0_5media12soundtrigger16PhraseSoundModelERKNSt3__110shared_ptrINS2_23ISoundTriggerHwCallbackEEEPi"
    },
    {
     "mangled_component_name" : "_ZN4aidl7android8hardware13soundtrigger324ISoundTriggerHwDelegator16unloadSoundModelEi"
    },
    {
     "mangled_component_name" : "_ZN4aidl7android8hardware13soundtrigger324ISoundTriggerHwDelegator16startRecognitionEiiiRKNS0_5media12soundtrigger17RecognitionConfigE"
    },
    {
     "mangled_component_name" : "_ZN4aidl7android8hardware13soundtrigger324ISoundTriggerHwDelegator15stopRecognitionEi"
    },
    {
     "mangled_component_name" : "_ZN4aidl7android8hardware13soundtrigger324ISoundTriggerHwDelegator21forceRecognitionEventEi"
    },
    {
     "mangled_component_name" : "_ZN4aidl7android8hardware13soundtrigger324ISoundTriggerHwDelegator14queryParameterEiNS0_5media12soundtrigger14ModelParameterEPNSt3__18optionalINS5_19ModelParameterRangeEEE"
    },
    {
     "mangled_component_name" : "_ZN4aidl7android8hardware13soundtrigger324ISoundTriggerHwDelegator12getParameterEiNS0_5media12soundtrigger14ModelParameterEPi"
    },
    {
     "mangled_component_name" : "_ZN4aidl7android8hardware13soundtrigger324ISoundTriggerHwDelegator12setParameterEiNS0_5media12soundtrigger14ModelParameterEi"
    },
    {
     "mangled_component_name" : "_ZN4aidl7android8hardware13soundtrigger316BnSoundTriggerHw19getInterfaceVersionEPi"
    },
    {
     "mangled_component_name" : "_ZN4aidl7android8hardware13soundtrigger316BnSoundTriggerHw16getInterfaceHashEPNSt3__112basic_stringIcNS4_11char_traitsIcEENS4_9allocatorIcEEEE"
    },
    {
     "mangled_component_name" : "_ZN4aidl7android8hardware13soundtrigger316BnSoundTriggerHw12createBinderEv"
    }
   ]
  },
  {
   "alignment" : 8,
   "base_specifiers" :
   [
    {
     "referenced_type" : "_ZTIN3ndk11ICInterfaceE"
    }
   ],
   "linker_set_key" : "_ZTIN4aidl7android8hardware13soundtrigger329ISoundTriggerHwGlobalCallbackE",
   "name" : "aidl::android::hardware::soundtrigger3::ISoundTriggerHwGlobalCallback",
   "record_kind" : "class",
   "referenced_type" : "_ZTIN4aidl7android8hardware13soundtrigger329ISoundTriggerHwGlobalCallbackE",
   "self_type" : "_ZTIN4aidl7android8hardware13soundtrigger329ISoundTriggerHwGlobalCallbackE",
   "size" : 32,
   "source_file" : "out/soong/.intermediates/hardware/interfaces/soundtrigger/aidl/android.hardware.soundtrigger3-V1-ndk-source/gen/include/aidl/android/hardware/soundtrigger3/ISoundTriggerHwGlobalCallback.h",
   "vtable_components" :
   [
    {
     "kind" : "offset_to_top"
    },
    {
     "kind" : "rtti",
     "mangled_component_name" : "_ZTIN4aidl7android8hardware13soundtrigger329ISoundTriggerHwGlobalCallbackE"
    },
    {
     "kind" : "complete_dtor_pointer",
     "mangled_component_name" : "_ZN4aidl7android8hardware13soundtrigger329ISoundTriggerHwGlobalCallbackD1Ev"
    },
    {
     "kind" : "deleting_dtor_pointer",
     "mangled_component_name" : "_ZN4aidl7android8hardware13soundtrigger329ISoundTriggerHwGlobalCallbackD0Ev"
    },
    {
     "is_pure" : true,
     "mangled_component_name" : "_ZN3ndk11ICInterface8asBinderEv"
    },
    {
     "is_pure" : true,
     "mangled_component_name" : "_ZN3ndk11ICInterface8isRemoteEv"
    },
    {
     "mangled_component_name" : "_ZN3ndk11ICInterface4dumpEiPPKcj"
    },
    {
     "mangled_component_name" : "_ZN3ndk11ICInterface18handleShellCommandEiiiPPKcj"
    },
    {
     "is_pure" : true,
     "mangled_component_name" : "_ZN4aidl7android8hardware13soundtrigger329ISoundTriggerHwGlobalCallback20onResourcesAvailableEv"
    },
    {
     "is_pure" : true,
     "mangled_component_name" : "_ZN4aidl7android8hardware13soundtrigger329ISoundTriggerHwGlobalCallback19getInterfaceVersionEPi"
    },
    {
     "is_pure" : true,
     "mangled_component_name" : "_ZN4aidl7android8hardware13soundtrigger329ISoundTriggerHwGlobalCallback16getInterfaceHashEPNSt3__112basic_stringIcNS4_11char_traitsIcEENS4_9allocatorIcEEEE"
    }
   ]
  },
  {
   "alignment" : 8,
   "base_specifiers" :
   [
    {
     "referenced_type" : "_ZTIN3ndk12BnCInterfaceIN4aidl7android8hardware13soundtrigger329ISoundTriggerHwGlobalCallbackEEE"
    }
   ],
   "linker_set_key" : "_ZTIN4aidl7android8hardware13soundtrigger330BnSoundTriggerHwGlobalCallbackE",
