{
 "array_types" : [],
 "builtin_types" :
 [
  {
   "alignment" : 8,
   "linker_set_key" : "_ZTIDn",
   "name" : "std::nullptr_t",
   "referenced_type" : "_ZTIDn",
   "self_type" : "_ZTIDn",
   "size" : 8
  },
  {
   "alignment" : 2,
   "is_integral" : true,
   "is_unsigned" : true,
   "linker_set_key" : "_ZTIDs",
   "name" : "char16_t",
   "referenced_type" : "_ZTIDs",
   "self_type" : "_ZTIDs",
   "size" : 2
  },
  {
   "alignment" : 1,
   "is_integral" : true,
   "linker_set_key" : "_ZTIa",
   "name" : "signed char",
   "referenced_type" : "_ZTIa",
   "self_type" : "_ZTIa",
   "size" : 1
  },
  {
   "alignment" : 1,
   "is_integral" : true,
   "is_unsigned" : true,
   "linker_set_key" : "_ZTIb",
   "name" : "bool",
   "referenced_type" : "_ZTIb",
   "self_type" : "_ZTIb",
   "size" : 1
  },
  {
   "alignment" : 1,
   "is_integral" : true,
   "is_unsigned" : true,
   "linker_set_key" : "_ZTIc",
   "name" : "char",
   "referenced_type" : "_ZTIc",
   "self_type" : "_ZTIc",
   "size" : 1
  },
  {
   "alignment" : 1,
   "is_integral" : true,
   "is_unsigned" : true,
   "linker_set_key" : "_ZTIh",
   "name" : "unsigned char",
   "referenced_type" : "_ZTIh",
   "self_type" : "_ZTIh",
   "size" : 1
  },
  {
   "alignment" : 4,
   "is_integral" : true,
   "linker_set_key" : "_ZTIi",
   "name" : "int",
   "referenced_type" : "_ZTIi",
   "self_type" : "_ZTIi",
   "size" : 4
  },
  {
   "alignment" : 4,
   "is_integral" : true,
   "is_unsigned" : true,
   "linker_set_key" : "_ZTIj",
   "name" : "unsigned int",
   "referenced_type" : "_ZTIj",
   "self_type" : "_ZTIj",
   "size" : 4
  },
  {
   "alignment" : 8,
   "is_integral" : true,
   "linker_set_key" : "_ZTIl",
   "name" : "long",
   "referenced_type" : "_ZTIl",
   "self_type" : "_ZTIl",
   "size" : 8
  },
  {
   "alignment" : 8,
   "is_integral" : true,
   "is_unsigned" : true,
   "linker_set_key" : "_ZTIm",
   "name" : "unsigned long",
   "referenced_type" : "_ZTIm",
   "self_type" : "_ZTIm",
   "size" : 8
  },
  {
   "linker_set_key" : "_ZTIv",
   "name" : "void",
   "referenced_type" : "_ZTIv",
   "self_type" : "_ZTIv"
  }
 ],
 "elf_functions" :
 [
  {
   "binding" : "weak",
   "name" : "_ZN3ndk12BnCInterfaceIN4aidl7android8hardware5radio4data10IRadioDataEE8asBinderEv"
  },
  {
   "binding" : "weak",
   "name" : "_ZN3ndk12BnCInterfaceIN4aidl7android8hardware5radio4data18IRadioDataResponseEE8asBinderEv"
  },
  {
   "binding" : "weak",
   "name" : "_ZN3ndk12BnCInterfaceIN4aidl7android8hardware5radio4data20IRadioDataIndicationEE8asBinderEv"
  },
  {
   "binding" : "weak",
   "name" : "_ZN3ndk12BpCInterfaceIN4aidl7android8hardware5radio4data10IRadioDataEE8asBinderEv"
  },
  {
   "binding" : "weak",
   "name" : "_ZN3ndk12BpCInterfaceIN4aidl7android8hardware5radio4data18IRadioDataResponseEE8asBinderEv"
  },
  {
   "binding" : "weak",
   "name" : "_ZN3ndk12BpCInterfaceIN4aidl7android8hardware5radio4data20IRadioDataIndicationEE8asBinderEv"
  },
  {
   "binding" : "weak",
   "name" : "_ZN3ndk38AParcel_readStdVectorParcelableElementIN4aidl7android8hardware5radio4data10QosSessionEEEiPK7AParcelPvm"
  },
  {
   "binding" : "weak",
   "name" : "_ZN3ndk38AParcel_readStdVectorParcelableElementIN4aidl7android8hardware5radio4data11LinkAddressEEEiPK7AParcelPvm"
  },
  {
   "binding" : "weak",
   "name" : "_ZN3ndk38AParcel_readStdVectorParcelableElementIN4aidl7android8hardware5radio4data15DataProfileInfoEEEiPK7AParcelPvm"
  },
  {
   "binding" : "weak",
   "name" : "_ZN3ndk38AParcel_readStdVectorParcelableElementIN4aidl7android8hardware5radio4data17TrafficDescriptorEEEiPK7AParcelPvm"
  },
  {
   "binding" : "weak",
   "name" : "_ZN3ndk38AParcel_readStdVectorParcelableElementIN4aidl7android8hardware5radio4data19SetupDataCallResultEEEiPK7AParcelPvm"
  },
  {
   "binding" : "weak",
   "name" : "_ZN3ndk38AParcel_readStdVectorParcelableElementIN4aidl7android8hardware5radio4data24RouteSelectionDescriptorEEEiPK7AParcelPvm"
  },
  {
   "binding" : "weak",
   "name" : "_ZN3ndk38AParcel_readStdVectorParcelableElementIN4aidl7android8hardware5radio4data8UrspRuleEEEiPK7AParcelPvm"
  },
  {
   "binding" : "weak",
   "name" : "_ZN3ndk38AParcel_readStdVectorParcelableElementIN4aidl7android8hardware5radio4data9QosFilterEEEiPK7AParcelPvm"
  },
  {
   "binding" : "weak",
   "name" : "_ZN3ndk38AParcel_readStdVectorParcelableElementIN4aidl7android8hardware5radio4data9SliceInfoEEEiPK7AParcelPvm"
  },
  {
   "binding" : "weak",
   "name" : "_ZN3ndk39AParcel_writeStdVectorParcelableElementIN4aidl7android8hardware5radio4data10QosSessionEEEiP7AParcelPKvm"
  },
  {
   "binding" : "weak",
   "name" : "_ZN3ndk39AParcel_writeStdVectorParcelableElementIN4aidl7android8hardware5radio4data11LinkAddressEEEiP7AParcelPKvm"
  },
  {
   "binding" : "weak",
   "name" : "_ZN3ndk39AParcel_writeStdVectorParcelableElementIN4aidl7android8hardware5radio4data15DataProfileInfoEEEiP7AParcelPKvm"
  },
  {
   "binding" : "weak",
   "name" : "_ZN3ndk39AParcel_writeStdVectorParcelableElementIN4aidl7android8hardware5radio4data17TrafficDescriptorEEEiP7AParcelPKvm"
  },
  {
   "binding" : "weak",
   "name" : "_ZN3ndk39AParcel_writeStdVectorParcelableElementIN4aidl7android8hardware5radio4data19SetupDataCallResultEEEiP7AParcelPKvm"
  },
  {
   "binding" : "weak",
   "name" : "_ZN3ndk39AParcel_writeStdVectorParcelableElementIN4aidl7android8hardware5radio4data24RouteSelectionDescriptorEEEiP7AParcelPKvm"
  },
  {
   "binding" : "weak",
   "name" : "_ZN3ndk39AParcel_writeStdVectorParcelableElementIN4aidl7android8hardware5radio4data8UrspRuleEEEiP7AParcelPKvm"
  },
  {
   "binding" : "weak",
   "name" : "_ZN3ndk39AParcel_writeStdVectorParcelableElementIN4aidl7android8hardware5radio4data9QosFilterEEEiP7AParcelPKvm"
  },
  {
   "binding" : "weak",
   "name" : "_ZN3ndk39AParcel_writeStdVectorParcelableElementIN4aidl7android8hardware5radio4data9SliceInfoEEEiP7AParcelPKvm"
  },
  {
   "name" : "_ZN4aidl7android8hardware5radio4data10IRadioData10fromBinderERKN3ndk10SpAIBinderE"
  },
  {
   "name" : "_ZN4aidl7android8hardware5radio4data10IRadioData13writeToParcelEP7AParcelRKNSt3__110shared_ptrIS4_EE"
  },
  {
   "name" : "_ZN4aidl7android8hardware5radio4data10IRadioData14getDefaultImplEv"
  },
  {
   "name" : "_ZN4aidl7android8hardware5radio4data10IRadioData14readFromParcelEPK7AParcelPNSt3__110shared_ptrIS4_EE"
  },
  {
   "name" : "_ZN4aidl7android8hardware5radio4data10IRadioData14setDefaultImplERKNSt3__110shared_ptrIS4_EE"
  },
  {
   "name" : "_ZN4aidl7android8hardware5radio4data10IRadioDataC2Ev"
  },
  {
   "name" : "_ZN4aidl7android8hardware5radio4data10IRadioDataD0Ev"
  },
  {
   "name" : "_ZN4aidl7android8hardware5radio4data10IRadioDataD1Ev"
  },
  {
   "name" : "_ZN4aidl7android8hardware5radio4data10IRadioDataD2Ev"
  },
  {
   "name" : "_ZN4aidl7android8hardware5radio4data10QosSession14readFromParcelEPK7AParcel"
  },
  {
   "name" : "_ZN4aidl7android8hardware5radio4data11BnRadioData12createBinderEv"
  },
  {
   "name" : "_ZN4aidl7android8hardware5radio4data11BnRadioData16getInterfaceHashEPNSt3__112basic_stringIcNS5_11char_traitsIcEENS5_9allocatorIcEEEE"
  },
  {
   "name" : "_ZN4aidl7android8hardware5radio4data11BnRadioData19getInterfaceVersionEPi"
  },
  {
   "name" : "_ZN4aidl7android8hardware5radio4data11BnRadioDataC2Ev"
  },
  {
   "name" : "_ZN4aidl7android8hardware5radio4data11BnRadioDataD0Ev"
  },
  {
   "name" : "_ZN4aidl7android8hardware5radio4data11BnRadioDataD1Ev"
  },
  {
   "name" : "_ZN4aidl7android8hardware5radio4data11BnRadioDataD2Ev"
  },
  {
   "name" : "_ZN4aidl7android8hardware5radio4data11BpRadioData13setupDataCallEiNS2_13AccessNetworkERKNS3_15DataProfileInfoEbNS3_17DataRequestReasonERKNSt3__16vectorINS3_11LinkAddressENSA_9allocatorISC_EEEERKNSB_INSA_12basic_stringIcNSA_11char_traitsIcEENSD_IcEEEENSD_ISM_EEEEiRKNSA_8optionalINS3_9SliceInfoEEEb"
  },
  {
   "name" : "_ZN4aidl7android8hardware5radio4data11BpRadioData13startHandoverEii"
  },
  {
   "name" : "_ZN4aidl7android8hardware5radio4data11BpRadioData13stopKeepaliveEii"
  },
  {
   "name" : "_ZN4aidl7android8hardware5radio4data11BpRadioData14cancelHandoverEii"
  },
  {
   "name" : "_ZN4aidl7android8hardware5radio4data11BpRadioData14setDataAllowedEib"
  },
  {
   "name" : "_ZN4aidl7android8hardware5radio4data11BpRadioData14setDataProfileEiRKNSt3__16vectorINS3_15DataProfileInfoENS5_9allocatorIS7_EEEE"
  },
  {
   "name" : "_ZN4aidl7android8hardware5radio4data11BpRadioData14startKeepaliveEiRKNS3_16KeepaliveRequestE"
  },
  {
   "name" : "_ZN4aidl7android8hardware5radio4data11BpRadioData15getDataCallListEi"
  },
  {
   "name" : "_ZN4aidl7android8hardware5radio4data11BpRadioData16getInterfaceHashEPNSt3__112basic_stringIcNS5_11char_traitsIcEENS5_9allocatorIcEEEE"
  },
  {
   "name" : "_ZN4aidl7android8hardware5radio4data11BpRadioData16getSlicingConfigEi"
  },
  {
   "name" : "_ZN4aidl7android8hardware5radio4data11BpRadioData17setDataThrottlingEiNS3_20DataThrottlingActionEl"
  },
  {
   "name" : "_ZN4aidl7android8hardware5radio4data11BpRadioData18deactivateDataCallEiiNS3_17DataRequestReasonE"
  },
  {
   "name" : "_ZN4aidl7android8hardware5radio4data11BpRadioData19getInterfaceVersionEPi"
  },
  {
   "name" : "_ZN4aidl7android8hardware5radio4data11BpRadioData19releasePduSessionIdEii"
  },
  {
   "name" : "_ZN4aidl7android8hardware5radio4data11BpRadioData19setInitialAttachApnEiRKNSt3__18optionalINS3_15DataProfileInfoEEE"
  },
  {
   "name" : "_ZN4aidl7android8hardware5radio4data11BpRadioData20allocatePduSessionIdEi"
  },
  {
   "name" : "_ZN4aidl7android8hardware5radio4data11BpRadioData20setResponseFunctionsERKNSt3__110shared_ptrINS3_18IRadioDataResponseEEERKNS6_INS3_20IRadioDataIndicationEEE"
  },
  {
   "name" : "_ZN4aidl7android8hardware5radio4data11BpRadioData23responseAcknowledgementEv"
  },
  {
   "name" : "_ZN4aidl7android8hardware5radio4data11BpRadioDataC1ERKN3ndk10SpAIBinderE"
  },
  {
   "name" : "_ZN4aidl7android8hardware5radio4data11BpRadioDataC2ERKN3ndk10SpAIBinderE"
  },
  {
   "name" : "_ZN4aidl7android8hardware5radio4data11BpRadioDataD0Ev"
  },
  {
   "name" : "_ZN4aidl7android8hardware5radio4data11BpRadioDataD1Ev"
  },
  {
   "name" : "_ZN4aidl7android8hardware5radio4data11BpRadioDataD2Ev"
  },
  {
   "name" : "_ZN4aidl7android8hardware5radio4data11LinkAddress14readFromParcelEPK7AParcel"
  },
  {
   "name" : "_ZN4aidl7android8hardware5radio4data11PcoDataInfo14readFromParcelEPK7AParcel"
  },
  {
   "name" : "_ZN4aidl7android8hardware5radio4data12QosBandwidth14readFromParcelEPK7AParcel"
  },
  {
   "name" : "_ZN4aidl7android8hardware5radio4data13SlicingConfig14readFromParcelEPK7AParcel"
  },
  {
   "name" : "_ZN4aidl7android8hardware5radio4data15DataProfileInfo14readFromParcelEPK7AParcel"
  },
  {
   "name" : "_ZN4aidl7android8hardware5radio4data15KeepaliveStatus14readFromParcelEPK7AParcel"
  },
  {
   "name" : "_ZN4aidl7android8hardware5radio4data16KeepaliveRequest14readFromParcelEPK7AParcel"
  },
  {
   "name" : "_ZN4aidl7android8hardware5radio4data17IRadioDataDefault13setupDataCallEiNS2_13AccessNetworkERKNS3_15DataProfileInfoEbNS3_17DataRequestReasonERKNSt3__16vectorINS3_11LinkAddressENSA_9allocatorISC_EEEERKNSB_INSA_12basic_stringIcNSA_11char_traitsIcEENSD_IcEEEENSD_ISM_EEEEiRKNSA_8optionalINS3_9SliceInfoEEEb"
  },
  {
   "name" : "_ZN4aidl7android8hardware5radio4data17IRadioDataDefault13startHandoverEii"
  },
  {
   "name" : "_ZN4aidl7android8hardware5radio4data17IRadioDataDefault13stopKeepaliveEii"
  },
  {
   "name" : "_ZN4aidl7android8hardware5radio4data17IRadioDataDefault14cancelHandoverEii"
  },
  {
   "name" : "_ZN4aidl7android8hardware5radio4data17IRadioDataDefault14setDataAllowedEib"
  },
  {
   "name" : "_ZN4aidl7android8hardware5radio4data17IRadioDataDefault14setDataProfileEiRKNSt3__16vectorINS3_15DataProfileInfoENS5_9allocatorIS7_EEEE"
  },
  {
   "name" : "_ZN4aidl7android8hardware5radio4data17IRadioDataDefault14startKeepaliveEiRKNS3_16KeepaliveRequestE"
  },
  {
   "name" : "_ZN4aidl7android8hardware5radio4data17IRadioDataDefault15getDataCallListEi"
  },
  {
   "name" : "_ZN4aidl7android8hardware5radio4data17IRadioDataDefault16getInterfaceHashEPNSt3__112basic_stringIcNS5_11char_traitsIcEENS5_9allocatorIcEEEE"
  },
  {
   "name" : "_ZN4aidl7android8hardware5radio4data17IRadioDataDefault16getSlicingConfigEi"
  },
  {
   "name" : "_ZN4aidl7android8hardware5radio4data17IRadioDataDefault17setDataThrottlingEiNS3_20DataThrottlingActionEl"
  },
  {
   "name" : "_ZN4aidl7android8hardware5radio4data17IRadioDataDefault18deactivateDataCallEiiNS3_17DataRequestReasonE"
  },
  {
   "name" : "_ZN4aidl7android8hardware5radio4data17IRadioDataDefault19getInterfaceVersionEPi"
  },
  {
   "name" : "_ZN4aidl7android8hardware5radio4data17IRadioDataDefault19releasePduSessionIdEii"
  },
  {
   "name" : "_ZN4aidl7android8hardware5radio4data17IRadioDataDefault19setInitialAttachApnEiRKNSt3__18optionalINS3_15DataProfileInfoEEE"
  },
  {
   "name" : "_ZN4aidl7android8hardware5radio4data17IRadioDataDefault20allocatePduSessionIdEi"
  },
  {
   "name" : "_ZN4aidl7android8hardware5radio4data17IRadioDataDefault20setResponseFunctionsERKNSt3__110shared_ptrINS3_18IRadioDataResponseEEERKNS6_INS3_20IRadioDataIndicationEEE"
  },
  {
   "name" : "_ZN4aidl7android8hardware5radio4data17IRadioDataDefault23responseAcknowledgementEv"
  },
  {
   "name" : "_ZN4aidl7android8hardware5radio4data17IRadioDataDefault8asBinderEv"
  },
  {
   "name" : "_ZN4aidl7android8hardware5radio4data17IRadioDataDefault8isRemoteEv"
  },
  {
   "name" : "_ZN4aidl7android8hardware5radio4data17QosFilterIpsecSpi14readFromParcelEPK7AParcel"
  },
  {
   "name" : "_ZN4aidl7android8hardware5radio4data17TrafficDescriptor14readFromParcelEPK7AParcel"
  },
  {
   "name" : "_ZN4aidl7android8hardware5radio4data18IRadioDataResponse10fromBinderERKN3ndk10SpAIBinderE"
  },
  {
   "name" : "_ZN4aidl7android8hardware5radio4data18IRadioDataResponse13writeToParcelEP7AParcelRKNSt3__110shared_ptrIS4_EE"
  },
  {
   "name" : "_ZN4aidl7android8hardware5radio4data18IRadioDataResponse14getDefaultImplEv"
  },
  {
   "name" : "_ZN4aidl7android8hardware5radio4data18IRadioDataResponse14readFromParcelEPK7AParcelPNSt3__110shared_ptrIS4_EE"
  },
  {
   "name" : "_ZN4aidl7android8hardware5radio4data18IRadioDataResponse14setDefaultImplERKNSt3__110shared_ptrIS4_EE"
  },
  {
   "name" : "_ZN4aidl7android8hardware5radio4data18IRadioDataResponseC2Ev"
  },
  {
   "name" : "_ZN4aidl7android8hardware5radio4data18IRadioDataResponseD0Ev"
  },
  {
   "name" : "_ZN4aidl7android8hardware5radio4data18IRadioDataResponseD1Ev"
  },
  {
   "name" : "_ZN4aidl7android8hardware5radio4data18IRadioDataResponseD2Ev"
  },
  {
   "name" : "_ZN4aidl7android8hardware5radio4data19BnRadioDataResponse12createBinderEv"
  },
  {
   "name" : "_ZN4aidl7android8hardware5radio4data19BnRadioDataResponse16getInterfaceHashEPNSt3__112basic_stringIcNS5_11char_traitsIcEENS5_9allocatorIcEEEE"
  },
  {
   "name" : "_ZN4aidl7android8hardware5radio4data19BnRadioDataResponse19getInterfaceVersionEPi"
  },
  {
   "name" : "_ZN4aidl7android8hardware5radio4data19BnRadioDataResponseC2Ev"
  },
  {
   "name" : "_ZN4aidl7android8hardware5radio4data19BnRadioDataResponseD0Ev"
  },
  {
   "name" : "_ZN4aidl7android8hardware5radio4data19BnRadioDataResponseD1Ev"
  },
  {
   "name" : "_ZN4aidl7android8hardware5radio4data19BnRadioDataResponseD2Ev"
  },
  {
   "name" : "_ZN4aidl7android8hardware5radio4data19BpRadioDataResponse16getInterfaceHashEPNSt3__112basic_stringIcNS5_11char_traitsIcEENS5_9allocatorIcEEEE"
  },
  {
   "name" : "_ZN4aidl7android8hardware5radio4data19BpRadioDataResponse18acknowledgeRequestEi"
  },
  {
   "name" : "_ZN4aidl7android8hardware5radio4data19BpRadioDataResponse19getInterfaceVersionEPi"
  },
  {
   "name" : "_ZN4aidl7android8hardware5radio4data19BpRadioDataResponse21setupDataCallResponseERKNS2_17RadioResponseInfoERKNS3_19SetupDataCallResultE"
  },
  {
   "name" : "_ZN4aidl7android8hardware5radio4data19BpRadioDataResponse21startHandoverResponseERKNS2_17RadioResponseInfoE"
  },
  {
   "name" : "_ZN4aidl7android8hardware5radio4data19BpRadioDataResponse21stopKeepaliveResponseERKNS2_17RadioResponseInfoE"
  },
  {
   "name" : "_ZN4aidl7android8hardware5radio4data19BpRadioDataResponse22cancelHandoverResponseERKNS2_17RadioResponseInfoE"
  },
  {
   "name" : "_ZN4aidl7android8hardware5radio4data19BpRadioDataResponse22setDataAllowedResponseERKNS2_17RadioResponseInfoE"
  },
  {
   "name" : "_ZN4aidl7android8hardware5radio4data19BpRadioDataResponse22setDataProfileResponseERKNS2_17RadioResponseInfoE"
  },
  {
   "name" : "_ZN4aidl7android8hardware5radio4data19BpRadioDataResponse22startKeepaliveResponseERKNS2_17RadioResponseInfoERKNS3_15KeepaliveStatusE"
  },
  {
   "name" : "_ZN4aidl7android8hardware5radio4data19BpRadioDataResponse23getDataCallListResponseERKNS2_17RadioResponseInfoERKNSt3__16vectorINS3_19SetupDataCallResultENS8_9allocatorISA_EEEE"
  },
  {
   "name" : "_ZN4aidl7android8hardware5radio4data19BpRadioDataResponse24getSlicingConfigResponseERKNS2_17RadioResponseInfoERKNS3_13SlicingConfigE"
  },
  {
   "name" : "_ZN4aidl7android8hardware5radio4data19BpRadioDataResponse25setDataThrottlingResponseERKNS2_17RadioResponseInfoE"
  },
  {
   "name" : "_ZN4aidl7android8hardware5radio4data19BpRadioDataResponse26deactivateDataCallResponseERKNS2_17RadioResponseInfoE"
  },
  {
   "name" : "_ZN4aidl7android8hardware5radio4data19BpRadioDataResponse27releasePduSessionIdResponseERKNS2_17RadioResponseInfoE"
  },
  {
   "name" : "_ZN4aidl7android8hardware5radio4data19BpRadioDataResponse27setInitialAttachApnResponseERKNS2_17RadioResponseInfoE"
  },
  {
   "name" : "_ZN4aidl7android8hardware5radio4data19BpRadioDataResponse28allocatePduSessionIdResponseERKNS2_17RadioResponseInfoEi"
  },
  {
   "name" : "_ZN4aidl7android8hardware5radio4data19BpRadioDataResponseC1ERKN3ndk10SpAIBinderE"
  },
  {
   "name" : "_ZN4aidl7android8hardware5radio4data19BpRadioDataResponseC2ERKN3ndk10SpAIBinderE"
  },
  {
   "name" : "_ZN4aidl7android8hardware5radio4data19BpRadioDataResponseD0Ev"
  },
  {
   "name" : "_ZN4aidl7android8hardware5radio4data19BpRadioDataResponseD1Ev"
  },
  {
   "name" : "_ZN4aidl7android8hardware5radio4data19BpRadioDataResponseD2Ev"
  },
  {
   "name" : "_ZN4aidl7android8hardware5radio4data19SetupDataCallResult14readFromParcelEPK7AParcel"
  },
  {
   "name" : "_ZN4aidl7android8hardware5radio4data20IRadioDataIndication10fromBinderERKN3ndk10SpAIBinderE"
  },
  {
   "name" : "_ZN4aidl7android8hardware5radio4data20IRadioDataIndication13writeToParcelEP7AParcelRKNSt3__110shared_ptrIS4_EE"
  },
  {
   "name" : "_ZN4aidl7android8hardware5radio4data20IRadioDataIndication14getDefaultImplEv"
  },
  {
   "name" : "_ZN4aidl7android8hardware5radio4data20IRadioDataIndication14readFromParcelEPK7AParcelPNSt3__110shared_ptrIS4_EE"
  },
  {
   "name" : "_ZN4aidl7android8hardware5radio4data20IRadioDataIndication14setDefaultImplERKNSt3__110shared_ptrIS4_EE"
  },
  {
   "name" : "_ZN4aidl7android8hardware5radio4data20IRadioDataIndicationC2Ev"
  },
  {
   "name" : "_ZN4aidl7android8hardware5radio4data20IRadioDataIndicationD0Ev"
  },
  {
   "name" : "_ZN4aidl7android8hardware5radio4data20IRadioDataIndicationD1Ev"
  },
  {
   "name" : "_ZN4aidl7android8hardware5radio4data20IRadioDataIndicationD2Ev"
  },
  {
   "name" : "_ZN4aidl7android8hardware5radio4data21BnRadioDataIndication12createBinderEv"
  },
  {
   "name" : "_ZN4aidl7android8hardware5radio4data21BnRadioDataIndication16getInterfaceHashEPNSt3__112basic_stringIcNS5_11char_traitsIcEENS5_9allocatorIcEEEE"
  },
  {
   "name" : "_ZN4aidl7android8hardware5radio4data21BnRadioDataIndication19getInterfaceVersionEPi"
  },
  {
   "name" : "_ZN4aidl7android8hardware5radio4data21BnRadioDataIndicationC2Ev"
  },
  {
   "name" : "_ZN4aidl7android8hardware5radio4data21BnRadioDataIndicationD0Ev"
  },
  {
   "name" : "_ZN4aidl7android8hardware5radio4data21BnRadioDataIndicationD1Ev"
  },
  {
   "name" : "_ZN4aidl7android8hardware5radio4data21BnRadioDataIndicationD2Ev"
  },
  {
   "name" : "_ZN4aidl7android8hardware5radio4data21BpRadioDataIndication13unthrottleApnENS2_19RadioIndicationTypeERKNS3_15DataProfileInfoE"
  },
  {
   "name" : "_ZN4aidl7android8hardware5radio4data21BpRadioDataIndication15keepaliveStatusENS2_19RadioIndicationTypeERKNS3_15KeepaliveStatusE"
  },
  {
   "name" : "_ZN4aidl7android8hardware5radio4data21BpRadioDataIndication16getInterfaceHashEPNSt3__112basic_stringIcNS5_11char_traitsIcEENS5_9allocatorIcEEEE"
  },
  {
   "name" : "_ZN4aidl7android8hardware5radio4data21BpRadioDataIndication19dataCallListChangedENS2_19RadioIndicationTypeERKNSt3__16vectorINS3_19SetupDataCallResultENS6_9allocatorIS8_EEEE"
  },
  {
   "name" : "_ZN4aidl7android8hardware5radio4data21BpRadioDataIndication19getInterfaceVersionEPi"
  },
  {
   "name" : "_ZN4aidl7android8hardware5radio4data21BpRadioDataIndication20slicingConfigChangedENS2_19RadioIndicationTypeERKNS3_13SlicingConfigE"
  },
  {
   "name" : "_ZN4aidl7android8hardware5radio4data21BpRadioDataIndication7pcoDataENS2_19RadioIndicationTypeERKNS3_11PcoDataInfoE"
  },
  {
   "name" : "_ZN4aidl7android8hardware5radio4data21BpRadioDataIndicationC1ERKN3ndk10SpAIBinderE"
  },
  {
   "name" : "_ZN4aidl7android8hardware5radio4data21BpRadioDataIndicationC2ERKN3ndk10SpAIBinderE"
  },
  {
   "name" : "_ZN4aidl7android8hardware5radio4data21BpRadioDataIndicationD0Ev"
  },
  {
   "name" : "_ZN4aidl7android8hardware5radio4data21BpRadioDataIndicationD1Ev"
  },
  {
   "name" : "_ZN4aidl7android8hardware5radio4data21BpRadioDataIndicationD2Ev"
  },
  {
   "name" : "_ZN4aidl7android8hardware5radio4data22QosFilterIpv6FlowLabel14readFromParcelEPK7AParcel"
  },
  {
   "name" : "_ZN4aidl7android8hardware5radio4data22QosFilterTypeOfService14readFromParcelEPK7AParcel"
  },
  {
   "name" : "_ZN4aidl7android8hardware5radio4data24RouteSelectionDescriptor14readFromParcelEPK7AParcel"
  },
  {
   "name" : "_ZN4aidl7android8hardware5radio4data25IRadioDataResponseDefault16getInterfaceHashEPNSt3__112basic_stringIcNS5_11char_traitsIcEENS5_9allocatorIcEEEE"
  },
  {
   "name" : "_ZN4aidl7android8hardware5radio4data25IRadioDataResponseDefault18acknowledgeRequestEi"
  },
  {
   "name" : "_ZN4aidl7android8hardware5radio4data25IRadioDataResponseDefault19getInterfaceVersionEPi"
  },
  {
   "name" : "_ZN4aidl7android8hardware5radio4data25IRadioDataResponseDefault21setupDataCallResponseERKNS2_17RadioResponseInfoERKNS3_19SetupDataCallResultE"
  },
  {
   "name" : "_ZN4aidl7android8hardware5radio4data25IRadioDataResponseDefault21startHandoverResponseERKNS2_17RadioResponseInfoE"
  },
  {
   "name" : "_ZN4aidl7android8hardware5radio4data25IRadioDataResponseDefault21stopKeepaliveResponseERKNS2_17RadioResponseInfoE"
  },
  {
   "name" : "_ZN4aidl7android8hardware5radio4data25IRadioDataResponseDefault22cancelHandoverResponseERKNS2_17RadioResponseInfoE"
  },
  {
   "name" : "_ZN4aidl7android8hardware5radio4data25IRadioDataResponseDefault22setDataAllowedResponseERKNS2_17RadioResponseInfoE"
  },
  {
   "name" : "_ZN4aidl7android8hardware5radio4data25IRadioDataResponseDefault22setDataProfileResponseERKNS2_17RadioResponseInfoE"
  },
  {
   "name" : "_ZN4aidl7android8hardware5radio4data25IRadioDataResponseDefault22startKeepaliveResponseERKNS2_17RadioResponseInfoERKNS3_15KeepaliveStatusE"
  },
  {
   "name" : "_ZN4aidl7android8hardware5radio4data25IRadioDataResponseDefault23getDataCallListResponseERKNS2_17RadioResponseInfoERKNSt3__16vectorINS3_19SetupDataCallResultENS8_9allocatorISA_EEEE"
  },
  {
   "name" : "_ZN4aidl7android8hardware5radio4data25IRadioDataResponseDefault24getSlicingConfigResponseERKNS2_17RadioResponseInfoERKNS3_13SlicingConfigE"
  },
  {
   "name" : "_ZN4aidl7android8hardware5radio4data25IRadioDataResponseDefault25setDataThrottlingResponseERKNS2_17RadioResponseInfoE"
  },
  {
   "name" : "_ZN4aidl7android8hardware5radio4data25IRadioDataResponseDefault26deactivateDataCallResponseERKNS2_17RadioResponseInfoE"
  },
  {
   "name" : "_ZN4aidl7android8hardware5radio4data25IRadioDataResponseDefault27releasePduSessionIdResponseERKNS2_17RadioResponseInfoE"
  },
  {
   "name" : "_ZN4aidl7android8hardware5radio4data25IRadioDataResponseDefault27setInitialAttachApnResponseERKNS2_17RadioResponseInfoE"
  },
  {
   "name" : "_ZN4aidl7android8hardware5radio4data25IRadioDataResponseDefault28allocatePduSessionIdResponseERKNS2_17RadioResponseInfoEi"
  },
  {
   "name" : "_ZN4aidl7android8hardware5radio4data25IRadioDataResponseDefault8asBinderEv"
  },
  {
   "name" : "_ZN4aidl7android8hardware5radio4data25IRadioDataResponseDefault8isRemoteEv"
  },
  {
   "name" : "_ZN4aidl7android8hardware5radio4data27IRadioDataIndicationDefault13unthrottleApnENS2_19RadioIndicationTypeERKNS3_15DataProfileInfoE"
  },
  {
   "name" : "_ZN4aidl7android8hardware5radio4data27IRadioDataIndicationDefault15keepaliveStatusENS2_19RadioIndicationTypeERKNS3_15KeepaliveStatusE"
  },
  {
   "name" : "_ZN4aidl7android8hardware5radio4data27IRadioDataIndicationDefault16getInterfaceHashEPNSt3__112basic_stringIcNS5_11char_traitsIcEENS5_9allocatorIcEEEE"
  },
  {
   "name" : "_ZN4aidl7android8hardware5radio4data27IRadioDataIndicationDefault19dataCallListChangedENS2_19RadioIndicationTypeERKNSt3__16vectorINS3_19SetupDataCallResultENS6_9allocatorIS8_EEEE"
  },
  {
   "name" : "_ZN4aidl7android8hardware5radio4data27IRadioDataIndicationDefault19getInterfaceVersionEPi"
  },
  {
   "name" : "_ZN4aidl7android8hardware5radio4data27IRadioDataIndicationDefault20slicingConfigChangedENS2_19RadioIndicationTypeERKNS3_13SlicingConfigE"
  },
  {
   "name" : "_ZN4aidl7android8hardware5radio4data27IRadioDataIndicationDefault7pcoDataENS2_19RadioIndicationTypeERKNS3_11PcoDataInfoE"
  },
  {
   "name" : "_ZN4aidl7android8hardware5radio4data27IRadioDataIndicationDefault8asBinderEv"
  },
  {
   "name" : "_ZN4aidl7android8hardware5radio4data27IRadioDataIndicationDefault8isRemoteEv"
  },
  {
   "name" : "_ZN4aidl7android8hardware5radio4data3Qos14readFromParcelEPK7AParcel"
  },
  {
   "name" : "_ZN4aidl7android8hardware5radio4data5NrQos14readFromParcelEPK7AParcel"
  },
  {
   "name" : "_ZN4aidl7android8hardware5radio4data6EpsQos14readFromParcelEPK7AParcel"
  },
  {
   "name" : "_ZN4aidl7android8hardware5radio4data7OsAppId14readFromParcelEPK7AParcel"
  },
  {
   "name" : "_ZN4aidl7android8hardware5radio4data8UrspRule14readFromParcelEPK7AParcel"
  },
  {
   "name" : "_ZN4aidl7android8hardware5radio4data9PortRange14readFromParcelEPK7AParcel"
  },
  {
   "name" : "_ZN4aidl7android8hardware5radio4data9QosFilter14readFromParcelEPK7AParcel"
  },
  {
   "name" : "_ZN4aidl7android8hardware5radio4data9SliceInfo14readFromParcelEPK7AParcel"
  },
  {
   "name" : "_ZNK4aidl7android8hardware5radio4data10QosSession13writeToParcelEP7AParcel"
  },
  {
   "name" : "_ZNK4aidl7android8hardware5radio4data11LinkAddress13writeToParcelEP7AParcel"
  },
  {
   "name" : "_ZNK4aidl7android8hardware5radio4data11PcoDataInfo13writeToParcelEP7AParcel"
  },
  {
   "name" : "_ZNK4aidl7android8hardware5radio4data12QosBandwidth13writeToParcelEP7AParcel"
  },
  {
   "name" : "_ZNK4aidl7android8hardware5radio4data13SlicingConfig13writeToParcelEP7AParcel"
  },
  {
   "name" : "_ZNK4aidl7android8hardware5radio4data15DataProfileInfo13writeToParcelEP7AParcel"
  },
  {
   "name" : "_ZNK4aidl7android8hardware5radio4data15KeepaliveStatus13writeToParcelEP7AParcel"
  },
  {
   "name" : "_ZNK4aidl7android8hardware5radio4data16KeepaliveRequest13writeToParcelEP7AParcel"
  },
  {
   "name" : "_ZNK4aidl7android8hardware5radio4data17QosFilterIpsecSpi13writeToParcelEP7AParcel"
  },
  {
   "name" : "_ZNK4aidl7android8hardware5radio4data17TrafficDescriptor13writeToParcelEP7AParcel"
  },
  {
   "name" : "_ZNK4aidl7android8hardware5radio4data19SetupDataCallResult13writeToParcelEP7AParcel"
  },
  {
   "name" : "_ZNK4aidl7android8hardware5radio4data22QosFilterIpv6FlowLabel13writeToParcelEP7AParcel"
  },
  {
   "name" : "_ZNK4aidl7android8hardware5radio4data22QosFilterTypeOfService13writeToParcelEP7AParcel"
  },
  {
   "name" : "_ZNK4aidl7android8hardware5radio4data24RouteSelectionDescriptor13writeToParcelEP7AParcel"
  },
  {
   "name" : "_ZNK4aidl7android8hardware5radio4data3Qos13writeToParcelEP7AParcel"
  },
  {
   "name" : "_ZNK4aidl7android8hardware5radio4data5NrQos13writeToParcelEP7AParcel"
  },
  {
   "name" : "_ZNK4aidl7android8hardware5radio4data6EpsQos13writeToParcelEP7AParcel"
  },
  {
   "name" : "_ZNK4aidl7android8hardware5radio4data7OsAppId13writeToParcelEP7AParcel"
  },
  {
   "name" : "_ZNK4aidl7android8hardware5radio4data8UrspRule13writeToParcelEP7AParcel"
  },
  {
   "name" : "_ZNK4aidl7android8hardware5radio4data9PortRange13writeToParcelEP7AParcel"
  },
  {
   "name" : "_ZNK4aidl7android8hardware5radio4data9QosFilter13writeToParcelEP7AParcel"
  },
  {
   "name" : "_ZNK4aidl7android8hardware5radio4data9SliceInfo13writeToParcelEP7AParcel"
  },
  {
   "binding" : "weak",
   "name" : "_ZNSt3__110shared_ptrIN4aidl7android8hardware5radio4data10IRadioDataEED2Ev"
  },
  {
   "binding" : "weak",
   "name" : "_ZNSt3__110shared_ptrIN4aidl7android8hardware5radio4data18IRadioDataResponseEED2Ev"
  },
  {
   "binding" : "weak",
   "name" : "_ZNSt3__110shared_ptrIN4aidl7android8hardware5radio4data20IRadioDataIndicationEED2Ev"
  },
  {
   "binding" : "weak",
   "name" : "_ZNSt3__120__shared_ptr_pointerIPN3ndk13SharedRefBaseENS_14default_deleteIS2_EENS_9allocatorIS2_EEE16__on_zero_sharedEv"
  },
  {
   "binding" : "weak",
   "name" : "_ZNSt3__120__shared_ptr_pointerIPN3ndk13SharedRefBaseENS_14default_deleteIS2_EENS_9allocatorIS2_EEE21__on_zero_shared_weakEv"
  },
  {
   "binding" : "weak",
   "name" : "_ZNSt3__16vectorIN4aidl7android8hardware5radio4data10QosSessionENS_9allocatorIS6_EEE8__appendEm"
  },
  {
   "binding" : "weak",
   "name" : "_ZNSt3__16vectorIN4aidl7android8hardware5radio4data11LinkAddressENS_9allocatorIS6_EEE8__appendEm"
  },
  {
   "binding" : "weak",
   "name" : "_ZNSt3__16vectorIN4aidl7android8hardware5radio4data15DataProfileInfoENS_9allocatorIS6_EEE8__appendEm"
  },
  {
   "binding" : "weak",
   "name" : "_ZNSt3__16vectorIN4aidl7android8hardware5radio4data17TrafficDescriptorENS_9allocatorIS6_EEE8__appendEm"
  },
  {
   "binding" : "weak",
   "name" : "_ZNSt3__16vectorIN4aidl7android8hardware5radio4data19SetupDataCallResultENS_9allocatorIS6_EEE8__appendEm"
  },
  {
   "binding" : "weak",
   "name" : "_ZNSt3__16vectorIN4aidl7android8hardware5radio4data24RouteSelectionDescriptorENS_9allocatorIS6_EEE8__appendEm"
  },
  {
   "binding" : "weak",
   "name" : "_ZNSt3__16vectorIN4aidl7android8hardware5radio4data8UrspRuleENS_9allocatorIS6_EEE8__appendEm"
  },
  {
   "binding" : "weak",
   "name" : "_ZNSt3__16vectorIN4aidl7android8hardware5radio4data9QosFilterENS_9allocatorIS6_EEE8__appendEm"
  },
  {
   "binding" : "weak",
   "name" : "_ZNSt3__16vectorIN4aidl7android8hardware5radio4data9SliceInfoENS_9allocatorIS6_EEE8__appendEm"
  },
  {
   "binding" : "weak",
   "name" : "_ZNSt3__16vectorINS_12basic_stringIcNS_11char_traitsIcEENS_9allocatorIcEEEENS4_IS6_EEE8__appendEm"
  },
  {
   "binding" : "weak",
   "name" : "_ZNSt3__16vectorIaNS_9allocatorIaEEE8__appendEm"
  }
 ],
 "elf_objects" :
 [
  {
   "binding" : "weak",
   "name" : "_ZGVN4aidl7android8hardware5radio4data10IRadioData4hashE"
  },
  {
   "binding" : "weak",
   "name" : "_ZGVN4aidl7android8hardware5radio4data18IRadioDataResponse4hashE"
  },
  {
   "binding" : "weak",
   "name" : "_ZGVN4aidl7android8hardware5radio4data20IRadioDataIndication4hashE"
  },
  {
   "name" : "_ZN4aidl7android8hardware5radio4data10IRadioData10descriptorE"
  },
  {
   "name" : "_ZN4aidl7android8hardware5radio4data10IRadioData12default_implE"
  },
  {
   "binding" : "weak",
   "name" : "_ZN4aidl7android8hardware5radio4data10IRadioData4hashE"
  },
  {
   "name" : "_ZN4aidl7android8hardware5radio4data10QosSession10descriptorE"
  },
  {
   "name" : "_ZN4aidl7android8hardware5radio4data11LinkAddress10descriptorE"
  },
  {
   "name" : "_ZN4aidl7android8hardware5radio4data11PcoDataInfo10descriptorE"
  },
  {
   "name" : "_ZN4aidl7android8hardware5radio4data12QosBandwidth10descriptorE"
  },
  {
   "name" : "_ZN4aidl7android8hardware5radio4data13SlicingConfig10descriptorE"
  },
  {
   "name" : "_ZN4aidl7android8hardware5radio4data15DataProfileInfo10descriptorE"
  },
  {
   "name" : "_ZN4aidl7android8hardware5radio4data15KeepaliveStatus10descriptorE"
  },
  {
   "name" : "_ZN4aidl7android8hardware5radio4data16KeepaliveRequest10descriptorE"
  },
  {
   "name" : "_ZN4aidl7android8hardware5radio4data17QosFilterIpsecSpi10descriptorE"
  },
  {
   "name" : "_ZN4aidl7android8hardware5radio4data17TrafficDescriptor10descriptorE"
  },
  {
   "name" : "_ZN4aidl7android8hardware5radio4data18IRadioDataResponse10descriptorE"
  },
  {
   "name" : "_ZN4aidl7android8hardware5radio4data18IRadioDataResponse12default_implE"
  },
  {
   "binding" : "weak",
   "name" : "_ZN4aidl7android8hardware5radio4data18IRadioDataResponse4hashE"
  },
  {
   "name" : "_ZN4aidl7android8hardware5radio4data19SetupDataCallResult10descriptorE"
  },
  {
   "name" : "_ZN4aidl7android8hardware5radio4data20IRadioDataIndication10descriptorE"
  },
  {
   "name" : "_ZN4aidl7android8hardware5radio4data20IRadioDataIndication12default_implE"
  },
  {
   "binding" : "weak",
   "name" : "_ZN4aidl7android8hardware5radio4data20IRadioDataIndication4hashE"
  },
  {
   "name" : "_ZN4aidl7android8hardware5radio4data22QosFilterIpv6FlowLabel10descriptorE"
  },
  {
   "name" : "_ZN4aidl7android8hardware5radio4data22QosFilterTypeOfService10descriptorE"
  },
  {
   "name" : "_ZN4aidl7android8hardware5radio4data24RouteSelectionDescriptor10descriptorE"
  },
  {
   "name" : "_ZN4aidl7android8hardware5radio4data3Qos10descriptorE"
  },
  {
   "name" : "_ZN4aidl7android8hardware5radio4data5NrQos10descriptorE"
  },
  {
   "name" : "_ZN4aidl7android8hardware5radio4data6EpsQos10descriptorE"
  },
  {
   "name" : "_ZN4aidl7android8hardware5radio4data7OsAppId10descriptorE"
  },
  {
   "name" : "_ZN4aidl7android8hardware5radio4data8UrspRule10descriptorE"
  },
  {
   "name" : "_ZN4aidl7android8hardware5radio4data9PortRange10descriptorE"
  },
  {
   "name" : "_ZN4aidl7android8hardware5radio4data9QosFilter10descriptorE"
  },
  {
   "name" : "_ZN4aidl7android8hardware5radio4data9SliceInfo10descriptorE"
  },
  {
   "binding" : "weak",
   "name" : "_ZTVN3ndk12BnCInterfaceIN4aidl7android8hardware5radio4data10IRadioDataEEE"
  },
  {
   "binding" : "weak",
   "name" : "_ZTVN3ndk12BnCInterfaceIN4aidl7android8hardware5radio4data18IRadioDataResponseEEE"
  },
  {
   "binding" : "weak",
   "name" : "_ZTVN3ndk12BnCInterfaceIN4aidl7android8hardware5radio4data20IRadioDataIndicationEEE"
  },
  {
   "binding" : "weak",
   "name" : "_ZTVN3ndk12BpCInterfaceIN4aidl7android8hardware5radio4data10IRadioDataEEE"
  },
  {
   "binding" : "weak",
   "name" : "_ZTVN3ndk12BpCInterfaceIN4aidl7android8hardware5radio4data18IRadioDataResponseEEE"
  },
  {
   "binding" : "weak",
   "name" : "_ZTVN3ndk12BpCInterfaceIN4aidl7android8hardware5radio4data20IRadioDataIndicationEEE"
  },
  {
   "binding" : "weak",
   "name" : "_ZTVN3ndk13SharedRefBaseE"
  },
  {
   "name" : "_ZTVN4aidl7android8hardware5radio4data10IRadioDataE"
  },
  {
   "name" : "_ZTVN4aidl7android8hardware5radio4data11BnRadioDataE"
  },
  {
   "name" : "_ZTVN4aidl7android8hardware5radio4data11BpRadioDataE"
  },
  {
   "name" : "_ZTVN4aidl7android8hardware5radio4data17IRadioDataDefaultE"
  },
  {
   "name" : "_ZTVN4aidl7android8hardware5radio4data18IRadioDataResponseE"
  },
  {
   "name" : "_ZTVN4aidl7android8hardware5radio4data19BnRadioDataResponseE"
  },
  {
   "name" : "_ZTVN4aidl7android8hardware5radio4data19BpRadioDataResponseE"
  },
  {
   "name" : "_ZTVN4aidl7android8hardware5radio4data20IRadioDataIndicationE"
  },
  {
   "name" : "_ZTVN4aidl7android8hardware5radio4data21BnRadioDataIndicationE"
  },
  {
   "name" : "_ZTVN4aidl7android8hardware5radio4data21BpRadioDataIndicationE"
  },
  {
   "name" : "_ZTVN4aidl7android8hardware5radio4data25IRadioDataResponseDefaultE"
  },
  {
   "name" : "_ZTVN4aidl7android8hardware5radio4data27IRadioDataIndicationDefaultE"
  },
  {
   "binding" : "weak",
   "name" : "_ZTVNSt3__120__shared_ptr_pointerIPN3ndk13SharedRefBaseENS_14default_deleteIS2_EENS_9allocatorIS2_EEEE"
  }
 ],
 "enum_types" :
 [
  {
   "alignment" : 4,
   "enum_fields" :
   [
    {
     "enum_field_value" : 1,
     "name" : "FLAG_ONEWAY"
    }
   ],
   "linker_set_key" : "_ZTI12$FLAG_ONEWAY",
   "name" : "(unnamed enum at frameworks/native/libs/binder/ndk/include_ndk/android/binder_ibinder.h:43:1)",
   "referenced_type" : "_ZTI12$FLAG_ONEWAY",
   "self_type" : "_ZTI12$FLAG_ONEWAY",
   "size" : 4,
   "source_file" : "frameworks/native/libs/binder/ndk/include_ndk/android/binder_ibinder.h",
   "underlying_type" : "_ZTIj"
  },
  {
   "alignment" : 4,
   "enum_fields" :
   [
    {
     "enum_field_value" : 0,
     "name" : "EX_NONE"
    },
    {
     "enum_field_value" : -1,
     "name" : "EX_SECURITY"
    },
    {
     "enum_field_value" : -2,
     "name" : "EX_BAD_PARCELABLE"
    },
    {
     "enum_field_value" : -3,
     "name" : "EX_ILLEGAL_ARGUMENT"
    },
    {
     "enum_field_value" : -4,
     "name" : "EX_NULL_POINTER"
    },
    {
     "enum_field_value" : -5,
     "name" : "EX_ILLEGAL_STATE"
    },
    {
     "enum_field_value" : -6,
     "name" : "EX_NETWORK_MAIN_THREAD"
    },
    {
     "enum_field_value" : -7,
     "name" : "EX_UNSUPPORTED_OPERATION"
    },
    {
     "enum_field_value" : -8,
     "name" : "EX_SERVICE_SPECIFIC"
    },
    {
     "enum_field_value" : -9,
     "name" : "EX_PARCELABLE"
    },
    {
     "enum_field_value" : -129,
     "name" : "EX_TRANSACTION_FAILED"
    }
   ],
   "linker_set_key" : "_ZTI18$EX_BAD_PARCELABLE",
   "name" : "(unnamed enum at frameworks/native/libs/binder/ndk/include_ndk/android/binder_status.h:94:1)",
   "referenced_type" : "_ZTI18$EX_BAD_PARCELABLE",
   "self_type" : "_ZTI18$EX_BAD_PARCELABLE",
   "size" : 4,
   "source_file" : "frameworks/native/libs/binder/ndk/include_ndk/android/binder_status.h",
   "underlying_type" : "_ZTIi"
  },
  {
   "alignment" : 4,
   "enum_fields" :
   [
    {
     "enum_field_value" : 268435456,
     "name" : "FLAG_PRIVATE_LOCAL"
    }
   ],
   "linker_set_key" : "_ZTI19$FLAG_PRIVATE_LOCAL",
   "name" : "(unnamed enum at frameworks/native/libs/binder/ndk/include_platform/android/binder_stability.h:35:1)",
   "referenced_type" : "_ZTI19$FLAG_PRIVATE_LOCAL",
   "self_type" : "_ZTI19$FLAG_PRIVATE_LOCAL",
   "size" : 4,
   "source_file" : "frameworks/native/libs/binder/ndk/include_platform/android/binder_stability.h",
   "underlying_type" : "_ZTIj"
  },
  {
   "alignment" : 4,
   "enum_fields" :
   [
    {
     "enum_field_value" : 268435456,
     "name" : "FLAG_PRIVATE_VENDOR"
    }
   ],
   "linker_set_key" : "_ZTI20$FLAG_PRIVATE_VENDOR",
   "name" : "(unnamed enum at frameworks/native/libs/binder/ndk/include_platform/android/binder_stability.h:26:1)",
   "referenced_type" : "_ZTI20$FLAG_PRIVATE_VENDOR",
   "self_type" : "_ZTI20$FLAG_PRIVATE_VENDOR",
   "size" : 4,
   "source_file" : "frameworks/native/libs/binder/ndk/include_platform/android/binder_stability.h",
   "underlying_type" : "_ZTIj"
  },
  {
   "alignment" : 4,
   "enum_fields" :
   [
    {
     "enum_field_value" : 0,
     "name" : "STATUS_OK"
    },
    {
     "enum_field_value" : -2147483648,
     "name" : "STATUS_UNKNOWN_ERROR"
    },
    {
     "enum_field_value" : -12,
     "name" : "STATUS_NO_MEMORY"
    },
    {
     "enum_field_value" : -38,
     "name" : "STATUS_INVALID_OPERATION"
    },
    {
     "enum_field_value" : -22,
     "name" : "STATUS_BAD_VALUE"
    },
    {
     "enum_field_value" : -2147483647,
     "name" : "STATUS_BAD_TYPE"
    },
    {
     "enum_field_value" : -2,
     "name" : "STATUS_NAME_NOT_FOUND"
    },
    {
     "enum_field_value" : -1,
     "name" : "STATUS_PERMISSION_DENIED"
    },
    {
     "enum_field_value" : -19,
     "name" : "STATUS_NO_INIT"
    },
    {
     "enum_field_value" : -17,
     "name" : "STATUS_ALREADY_EXISTS"
    },
    {
     "enum_field_value" : -32,
     "name" : "STATUS_DEAD_OBJECT"
    },
    {
     "enum_field_value" : -2147483646,
     "name" : "STATUS_FAILED_TRANSACTION"
    },
    {
     "enum_field_value" : -75,
     "name" : "STATUS_BAD_INDEX"
    },
    {
     "enum_field_value" : -61,
     "name" : "STATUS_NOT_ENOUGH_DATA"
    },
    {
     "enum_field_value" : -11,
     "name" : "STATUS_WOULD_BLOCK"
    },
    {
     "enum_field_value" : -110,
     "name" : "STATUS_TIMED_OUT"
    },
    {
     "enum_field_value" : -74,
     "name" : "STATUS_UNKNOWN_TRANSACTION"
    },
    {
     "enum_field_value" : -2147483641,
     "name" : "STATUS_FDS_NOT_ALLOWED"
    },
    {
     "enum_field_value" : -2147483640,
     "name" : "STATUS_UNEXPECTED_NULL"
    }
   ],
   "linker_set_key" : "_ZTI22$STATUS_ALREADY_EXISTS",
   "name" : "(unnamed enum at frameworks/native/libs/binder/ndk/include_ndk/android/binder_status.h:60:1)",
   "referenced_type" : "_ZTI22$STATUS_ALREADY_EXISTS",
   "self_type" : "_ZTI22$STATUS_ALREADY_EXISTS",
   "size" : 4,
   "source_file" : "frameworks/native/libs/binder/ndk/include_ndk/android/binder_status.h",
   "underlying_type" : "_ZTIi"
  },
  {
   "alignment" : 4,
   "enum_fields" :
   [
    {
     "enum_field_value" : 1,
     "name" : "FIRST_CALL_TRANSACTION"
    },
    {
     "enum_field_value" : 16777215,
     "name" : "LAST_CALL_TRANSACTION"
    }
   ],
   "linker_set_key" : "_ZTI23$FIRST_CALL_TRANSACTION",
   "name" : "(unnamed enum at frameworks/native/libs/binder/ndk/include_ndk/android/binder_ibinder.h:58:1)",
   "referenced_type" : "_ZTI23$FIRST_CALL_TRANSACTION",
   "self_type" : "_ZTI23$FIRST_CALL_TRANSACTION",
   "size" : 4,
   "source_file" : "frameworks/native/libs/binder/ndk/include_ndk/android/binder_ibinder.h",
   "underlying_type" : "_ZTIj"
  },
  {
   "alignment" : 4,
   "enum_fields" :
   [
    {
     "enum_field_value" : 0,
     "name" : "ndk::STABILITY_LOCAL"
    },
    {
     "enum_field_value" : 1,
     "name" : "ndk::STABILITY_VINTF"
    }
   ],
   "linker_set_key" : "_ZTIN3ndk16$STABILITY_LOCALE",
   "name" : "ndk::(unnamed enum at frameworks/native/libs/binder/ndk/include_cpp/android/binder_parcelable_utils.h:34:1)",
   "referenced_type" : "_ZTIN3ndk16$STABILITY_LOCALE",
   "self_type" : "_ZTIN3ndk16$STABILITY_LOCALE",
   "size" : 4,
   "source_file" : "frameworks/native/libs/binder/ndk/include_cpp/android/binder_parcelable_utils.h",
   "underlying_type" : "_ZTIj"
  },
  {
   "alignment" : 4,
   "enum_fields" :
   [
    {
     "enum_field_value" : 0,
     "name" : "aidl::android::hardware::radio::RadioError::NONE"
    },
    {
     "enum_field_value" : 1,
     "name" : "aidl::android::hardware::radio::RadioError::RADIO_NOT_AVAILABLE"
    },
    {
     "enum_field_value" : 2,
     "name" : "aidl::android::hardware::radio::RadioError::GENERIC_FAILURE"
    },
    {
     "enum_field_value" : 3,
     "name" : "aidl::android::hardware::radio::RadioError::PASSWORD_INCORRECT"
    },
    {
     "enum_field_value" : 4,
     "name" : "aidl::android::hardware::radio::RadioError::SIM_PIN2"
    },
    {
     "enum_field_value" : 5,
     "name" : "aidl::android::hardware::radio::RadioError::SIM_PUK2"
    },
    {
     "enum_field_value" : 6,
     "name" : "aidl::android::hardware::radio::RadioError::REQUEST_NOT_SUPPORTED"
    },
    {
     "enum_field_value" : 7,
     "name" : "aidl::android::hardware::radio::RadioError::CANCELLED"
    },
    {
     "enum_field_value" : 8,
     "name" : "aidl::android::hardware::radio::RadioError::OP_NOT_ALLOWED_DURING_VOICE_CALL"
    },
    {
     "enum_field_value" : 9,
     "name" : "aidl::android::hardware::radio::RadioError::OP_NOT_ALLOWED_BEFORE_REG_TO_NW"
    },
    {
     "enum_field_value" : 10,
     "name" : "aidl::android::hardware::radio::RadioError::SMS_SEND_FAIL_RETRY"
    },
    {
     "enum_field_value" : 11,
     "name" : "aidl::android::hardware::radio::RadioError::SIM_ABSENT"
    },
    {
     "enum_field_value" : 12,
     "name" : "aidl::android::hardware::radio::RadioError::SUBSCRIPTION_NOT_AVAILABLE"
    },
    {
     "enum_field_value" : 13,
     "name" : "aidl::android::hardware::radio::RadioError::MODE_NOT_SUPPORTED"
    },
    {
     "enum_field_value" : 14,
     "name" : "aidl::android::hardware::radio::RadioError::FDN_CHECK_FAILURE"
    },
    {
     "enum_field_value" : 15,
     "name" : "aidl::android::hardware::radio::RadioError::ILLEGAL_SIM_OR_ME"
    },
    {
     "enum_field_value" : 16,
     "name" : "aidl::android::hardware::radio::RadioError::MISSING_RESOURCE"
    },
    {
     "enum_field_value" : 17,
     "name" : "aidl::android::hardware::radio::RadioError::NO_SUCH_ELEMENT"
    },
    {
     "enum_field_value" : 18,
     "name" : "aidl::android::hardware::radio::RadioError::DIAL_MODIFIED_TO_USSD"
    },
    {
     "enum_field_value" : 19,
     "name" : "aidl::android::hardware::radio::RadioError::DIAL_MODIFIED_TO_SS"
    },
    {
     "enum_field_value" : 20,
     "name" : "aidl::android::hardware::radio::RadioError::DIAL_MODIFIED_TO_DIAL"
    },
    {
     "enum_field_value" : 21,
     "name" : "aidl::android::hardware::radio::RadioError::USSD_MODIFIED_TO_DIAL"
    },
    {
     "enum_field_value" : 22,
     "name" : "aidl::android::hardware::radio::RadioError::USSD_MODIFIED_TO_SS"
    },
    {
     "enum_field_value" : 23,
     "name" : "aidl::android::hardware::radio::RadioError::USSD_MODIFIED_TO_USSD"
    },
    {
     "enum_field_value" : 24,
     "name" : "aidl::android::hardware::radio::RadioError::SS_MODIFIED_TO_DIAL"
    },
    {
     "enum_field_value" : 25,
     "name" : "aidl::android::hardware::radio::RadioError::SS_MODIFIED_TO_USSD"
    },
    {
     "enum_field_value" : 26,
     "name" : "aidl::android::hardware::radio::RadioError::SUBSCRIPTION_NOT_SUPPORTED"
    },
    {
     "enum_field_value" : 27,
     "name" : "aidl::android::hardware::radio::RadioError::SS_MODIFIED_TO_SS"
    },
    {
     "enum_field_value" : 36,
     "name" : "aidl::android::hardware::radio::RadioError::LCE_NOT_SUPPORTED"
    },
    {
     "enum_field_value" : 37,
     "name" : "aidl::android::hardware::radio::RadioError::NO_MEMORY"
    },
    {
     "enum_field_value" : 38,
     "name" : "aidl::android::hardware::radio::RadioError::INTERNAL_ERR"
    },
    {
     "enum_field_value" : 39,
     "name" : "aidl::android::hardware::radio::RadioError::SYSTEM_ERR"
    },
    {
     "enum_field_value" : 40,
     "name" : "aidl::android::hardware::radio::RadioError::MODEM_ERR"
    },
    {
     "enum_field_value" : 41,
     "name" : "aidl::android::hardware::radio::RadioError::INVALID_STATE"
    },
    {
     "enum_field_value" : 42,
     "name" : "aidl::android::hardware::radio::RadioError::NO_RESOURCES"
    },
    {
     "enum_field_value" : 43,
     "name" : "aidl::android::hardware::radio::RadioError::SIM_ERR"
    },
    {
     "enum_field_value" : 44,
     "name" : "aidl::android::hardware::radio::RadioError::INVALID_ARGUMENTS"
    },
    {
     "enum_field_value" : 45,
     "name" : "aidl::android::hardware::radio::RadioError::INVALID_SIM_STATE"
    },
    {
     "enum_field_value" : 46,
     "name" : "aidl::android::hardware::radio::RadioError::INVALID_MODEM_STATE"
    },
    {
     "enum_field_value" : 47,
     "name" : "aidl::android::hardware::radio::RadioError::INVALID_CALL_ID"
    },
    {
     "enum_field_value" : 48,
     "name" : "aidl::android::hardware::radio::RadioError::NO_SMS_TO_ACK"
    },
    {
     "enum_field_value" : 49,
     "name" : "aidl::android::hardware::radio::RadioError::NETWORK_ERR"
    },
    {
     "enum_field_value" : 50,
     "name" : "aidl::android::hardware::radio::RadioError::REQUEST_RATE_LIMITED"
    },
    {
     "enum_field_value" : 51,
     "name" : "aidl::android::hardware::radio::RadioError::SIM_BUSY"
    },
    {
     "enum_field_value" : 52,
     "name" : "aidl::android::hardware::radio::RadioError::SIM_FULL"
    },
    {
     "enum_field_value" : 53,
     "name" : "aidl::android::hardware::radio::RadioError::NETWORK_REJECT"
    },
    {
     "enum_field_value" : 54,
     "name" : "aidl::android::hardware::radio::RadioError::OPERATION_NOT_ALLOWED"
    },
    {
     "enum_field_value" : 55,
     "name" : "aidl::android::hardware::radio::RadioError::EMPTY_RECORD"
    },
    {
     "enum_field_value" : 56,
     "name" : "aidl::android::hardware::radio::RadioError::INVALID_SMS_FORMAT"
    },
    {
     "enum_field_value" : 57,
     "name" : "aidl::android::hardware::radio::RadioError::ENCODING_ERR"
    },
    {
     "enum_field_value" : 58,
     "name" : "aidl::android::hardware::radio::RadioError::INVALID_SMSC_ADDRESS"
    },
    {
     "enum_field_value" : 59,
     "name" : "aidl::android::hardware::radio::RadioError::NO_SUCH_ENTRY"
    },
    {
     "enum_field_value" : 60,
     "name" : "aidl::android::hardware::radio::RadioError::NETWORK_NOT_READY"
    },
    {
     "enum_field_value" : 61,
     "name" : "aidl::android::hardware::radio::RadioError::NOT_PROVISIONED"
    },
    {
     "enum_field_value" : 62,
     "name" : "aidl::android::hardware::radio::RadioError::NO_SUBSCRIPTION"
    },
    {
     "enum_field_value" : 63,
     "name" : "aidl::android::hardware::radio::RadioError::NO_NETWORK_FOUND"
    },
    {
     "enum_field_value" : 64,
     "name" : "aidl::android::hardware::radio::RadioError::DEVICE_IN_USE"
    },
    {
     "enum_field_value" : 65,
     "name" : "aidl::android::hardware::radio::RadioError::ABORTED"
    },
    {
     "enum_field_value" : 66,
     "name" : "aidl::android::hardware::radio::RadioError::INVALID_RESPONSE"
    },
    {
     "enum_field_value" : 501,
     "name" : "aidl::android::hardware::radio::RadioError::OEM_ERROR_1"
    },
    {
     "enum_field_value" : 502,
     "name" : "aidl::android::hardware::radio::RadioError::OEM_ERROR_2"
    },
    {
     "enum_field_value" : 503,
     "name" : "aidl::android::hardware::radio::RadioError::OEM_ERROR_3"
    },
    {
     "enum_field_value" : 504,
     "name" : "aidl::android::hardware::radio::RadioError::OEM_ERROR_4"
    },
    {
     "enum_field_value" : 505,
     "name" : "aidl::android::hardware::radio::RadioError::OEM_ERROR_5"
    },
    {
     "enum_field_value" : 506,
     "name" : "aidl::android::hardware::radio::RadioError::OEM_ERROR_6"
    },
    {
     "enum_field_value" : 507,
     "name" : "aidl::android::hardware::radio::RadioError::OEM_ERROR_7"
    },
    {
     "enum_field_value" : 508,
     "name" : "aidl::android::hardware::radio::RadioError::OEM_ERROR_8"
    },
    {
     "enum_field_value" : 509,
     "name" : "aidl::android::hardware::radio::RadioError::OEM_ERROR_9"
    },
    {
     "enum_field_value" : 510,
     "name" : "aidl::android::hardware::radio::RadioError::OEM_ERROR_10"
    },
    {
     "enum_field_value" : 511,
     "name" : "aidl::android::hardware::radio::RadioError::OEM_ERROR_11"
    },
    {
     "enum_field_value" : 512,
     "name" : "aidl::android::hardware::radio::RadioError::OEM_ERROR_12"
    },
    {
     "enum_field_value" : 513,
     "name" : "aidl::android::hardware::radio::RadioError::OEM_ERROR_13"
    },
    {
     "enum_field_value" : 514,
     "name" : "aidl::android::hardware::radio::RadioError::OEM_ERROR_14"
    },
    {
     "enum_field_value" : 515,
     "name" : "aidl::android::hardware::radio::RadioError::OEM_ERROR_15"
    },
    {
     "enum_field_value" : 516,
     "name" : "aidl::android::hardware::radio::RadioError::OEM_ERROR_16"
    },
    {
     "enum_field_value" : 517,
     "name" : "aidl::android::hardware::radio::RadioError::OEM_ERROR_17"
    },
    {
     "enum_field_value" : 518,
     "name" : "aidl::android::hardware::radio::RadioError::OEM_ERROR_18"
    },
    {
     "enum_field_value" : 519,
     "name" : "aidl::android::hardware::radio::RadioError::OEM_ERROR_19"
    },
    {
     "enum_field_value" : 520,
     "name" : "aidl::android::hardware::radio::RadioError::OEM_ERROR_20"
    },
    {
     "enum_field_value" : 521,
     "name" : "aidl::android::hardware::radio::RadioError::OEM_ERROR_21"
    },
    {
     "enum_field_value" : 522,
     "name" : "aidl::android::hardware::radio::RadioError::OEM_ERROR_22"
    },
    {
     "enum_field_value" : 523,
     "name" : "aidl::android::hardware::radio::RadioError::OEM_ERROR_23"
    },
    {
     "enum_field_value" : 524,
     "name" : "aidl::android::hardware::radio::RadioError::OEM_ERROR_24"
    },
    {
     "enum_field_value" : 525,
     "name" : "aidl::android::hardware::radio::RadioError::OEM_ERROR_25"
    },
    {
     "enum_field_value" : 67,
     "name" : "aidl::android::hardware::radio::RadioError::SIMULTANEOUS_SMS_AND_CALL_NOT_ALLOWED"
    },
    {
     "enum_field_value" : 68,
     "name" : "aidl::android::hardware::radio::RadioError::ACCESS_BARRED"
    },
    {
     "enum_field_value" : 69,
     "name" : "aidl::android::hardware::radio::RadioError::BLOCKED_DUE_TO_CALL"
    },
    {
     "enum_field_value" : 70,
     "name" : "aidl::android::hardware::radio::RadioError::RF_HARDWARE_ISSUE"
    },
    {
     "enum_field_value" : 71,
     "name" : "aidl::android::hardware::radio::RadioError::NO_RF_CALIBRATION_INFO"
    }
   ],
   "linker_set_key" : "_ZTIN4aidl7android8hardware5radio10RadioErrorE",
   "name" : "aidl::android::hardware::radio::RadioError",
   "referenced_type" : "_ZTIN4aidl7android8hardware5radio10RadioErrorE",
   "self_type" : "_ZTIN4aidl7android8hardware5radio10RadioErrorE",
   "size" : 4,
   "source_file" : "out/soong/.intermediates/hardware/interfaces/radio/aidl/android.hardware.radio-V1-ndk-source/gen/include/aidl/android/hardware/radio/RadioError.h",
   "underlying_type" : "_ZTIi"
  },
  {
   "alignment" : 4,
   "enum_fields" :
   [
    {
     "enum_field_value" : 0,
     "name" : "aidl::android::hardware::radio::AccessNetwork::UNKNOWN"
    },
    {
     "enum_field_value" : 1,
     "name" : "aidl::android::hardware::radio::AccessNetwork::GERAN"
    },
    {
     "enum_field_value" : 2,
     "name" : "aidl::android::hardware::radio::AccessNetwork::UTRAN"
    },
    {
     "enum_field_value" : 3,
     "name" : "aidl::android::hardware::radio::AccessNetwork::EUTRAN"
    },
    {
     "enum_field_value" : 4,
     "name" : "aidl::android::hardware::radio::AccessNetwork::CDMA2000"
    },
    {
     "enum_field_value" : 5,
     "name" : "aidl::android::hardware::radio::AccessNetwork::IWLAN"
    },
    {
     "enum_field_value" : 6,
     "name" : "aidl::android::hardware::radio::AccessNetwork::NGRAN"
    }
   ],
   "linker_set_key" : "_ZTIN4aidl7android8hardware5radio13AccessNetworkE",
   "name" : "aidl::android::hardware::radio::AccessNetwork",
   "referenced_type" : "_ZTIN4aidl7android8hardware5radio13AccessNetworkE",
   "self_type" : "_ZTIN4aidl7android8hardware5radio13AccessNetworkE",
   "size" : 4,
   "source_file" : "out/soong/.intermediates/hardware/interfaces/radio/aidl/android.hardware.radio-V1-ndk-source/gen/include/aidl/android/hardware/radio/AccessNetwork.h",
   "underlying_type" : "_ZTIi"
  },
  {
   "alignment" : 4,
   "enum_fields" :
   [
    {
     "enum_field_value" : 0,
     "name" : "aidl::android::hardware::radio::RadioResponseType::SOLICITED"
    },
    {
     "enum_field_value" : 1,
     "name" : "aidl::android::hardware::radio::RadioResponseType::SOLICITED_ACK"
    },
    {
     "enum_field_value" : 2,
     "name" : "aidl::android::hardware::radio::RadioResponseType::SOLICITED_ACK_EXP"
    }
   ],
   "linker_set_key" : "_ZTIN4aidl7android8hardware5radio17RadioResponseTypeE",
   "name" : "aidl::android::hardware::radio::RadioResponseType",
   "referenced_type" : "_ZTIN4aidl7android8hardware5radio17RadioResponseTypeE",
   "self_type" : "_ZTIN4aidl7android8hardware5radio17RadioResponseTypeE",
   "size" : 4,
   "source_file" : "out/soong/.intermediates/hardware/interfaces/radio/aidl/android.hardware.radio-V1-ndk-source/gen/include/aidl/android/hardware/radio/RadioResponseType.h",
   "underlying_type" : "_ZTIi"
  },
  {
   "alignment" : 4,
   "enum_fields" :
   [
    {
     "enum_field_value" : 0,
     "name" : "aidl::android::hardware::radio::RadioIndicationType::UNSOLICITED"
    },
    {
     "enum_field_value" : 1,
     "name" : "aidl::android::hardware::radio::RadioIndicationType::UNSOLICITED_ACK_EXP"
    }
   ],
   "linker_set_key" : "_ZTIN4aidl7android8hardware5radio19RadioIndicationTypeE",
   "name" : "aidl::android::hardware::radio::RadioIndicationType",
   "referenced_type" : "_ZTIN4aidl7android8hardware5radio19RadioIndicationTypeE",
   "self_type" : "_ZTIN4aidl7android8hardware5radio19RadioIndicationTypeE",
   "size" : 4,
   "source_file" : "out/soong/.intermediates/hardware/interfaces/radio/aidl/android.hardware.radio-V1-ndk-source/gen/include/aidl/android/hardware/radio/RadioIndicationType.h",
   "underlying_type" : "_ZTIi"
  },
  {
   "alignment" : 4,
   "enum_fields" :
   [
    {
     "enum_field_value" : 0,
     "name" : "aidl::android::hardware::radio::data::ApnAuthType::NO_PAP_NO_CHAP"
    },
    {
     "enum_field_value" : 1,
     "name" : "aidl::android::hardware::radio::data::ApnAuthType::PAP_NO_CHAP"
    },
    {
     "enum_field_value" : 2,
     "name" : "aidl::android::hardware::radio::data::ApnAuthType::NO_PAP_CHAP"
    },
    {
     "enum_field_value" : 3,
     "name" : "aidl::android::hardware::radio::data::ApnAuthType::PAP_CHAP"
    }
   ],
   "linker_set_key" : "_ZTIN4aidl7android8hardware5radio4data11ApnAuthTypeE",
   "name" : "aidl::android::hardware::radio::data::ApnAuthType",
   "referenced_type" : "_ZTIN4aidl7android8hardware5radio4data11ApnAuthTypeE",
   "self_type" : "_ZTIN4aidl7android8hardware5radio4data11ApnAuthTypeE",
   "size" : 4,
   "source_file" : "out/soong/.intermediates/hardware/interfaces/radio/aidl/android.hardware.radio.data-V1-ndk-source/gen/include/aidl/android/hardware/radio/data/ApnAuthType.h",
   "underlying_type" : "_ZTIi"
  },
  {
   "alignment" : 4,
   "enum_fields" :
   [
    {
     "enum_field_value" : 0,
     "name" : "aidl::android::hardware::radio::data::LinkAddress::ADDRESS_PROPERTY_NONE"
    }
   ],
   "linker_set_key" : "_ZTIN4aidl7android8hardware5radio4data11LinkAddress22$ADDRESS_PROPERTY_NONEE",
   "name" : "aidl::android::hardware::radio::data::LinkAddress::(unnamed enum at out/soong/.intermediates/hardware/interfaces/radio/aidl/android.hardware.radio.data-V1-ndk-source/gen/include/aidl/android/hardware/radio/data/LinkAddress.h:53:3)",
   "referenced_type" : "_ZTIN4aidl7android8hardware5radio4data11LinkAddress22$ADDRESS_PROPERTY_NONEE",
   "self_type" : "_ZTIN4aidl7android8hardware5radio4data11LinkAddress22$ADDRESS_PROPERTY_NONEE",
   "size" : 4,
   "source_file" : "out/soong/.intermediates/hardware/interfaces/radio/aidl/android.hardware.radio.data-V1-ndk-source/gen/include/aidl/android/hardware/radio/data/LinkAddress.h",
   "underlying_type" : "_ZTIi"
  },
  {
   "alignment" : 4,
   "enum_fields" :
   [
    {
     "enum_field_value" : 32,
     "name" : "aidl::android::hardware::radio::data::LinkAddress::ADDRESS_PROPERTY_DEPRECATED"
    }
   ],
   "linker_set_key" : "_ZTIN4aidl7android8hardware5radio4data11LinkAddress28$ADDRESS_PROPERTY_DEPRECATEDE",
   "name" : "aidl::android::hardware::radio::data::LinkAddress::(unnamed enum at out/soong/.intermediates/hardware/interfaces/radio/aidl/android.hardware.radio.data-V1-ndk-source/gen/include/aidl/android/hardware/radio/data/LinkAddress.h:54:3)",
   "referenced_type" : "_ZTIN4aidl7android8hardware5radio4data11LinkAddress28$ADDRESS_PROPERTY_DEPRECATEDE",
   "self_type" : "_ZTIN4aidl7android8hardware5radio4data11LinkAddress28$ADDRESS_PROPERTY_DEPRECATEDE",
   "size" : 4,
   "source_file" : "out/soong/.intermediates/hardware/interfaces/radio/aidl/android.hardware.radio.data-V1-ndk-source/gen/include/aidl/android/hardware/radio/data/LinkAddress.h",
   "underlying_type" : "_ZTIi"
  },
  {
   "alignment" : 4,
   "enum_fields" :
   [
    {
     "enum_field_value" : 1,
     "name" : "aidl::android::hardware::radio::data::DataProfileInfo::TYPE_3GPP"
    }
   ],
   "linker_set_key" : "_ZTIN4aidl7android8hardware5radio4data15DataProfileInfo10$TYPE_3GPPE",
   "name" : "aidl::android::hardware::radio::data::DataProfileInfo::(unnamed enum at out/soong/.intermediates/hardware/interfaces/radio/aidl/android.hardware.radio.data-V1-ndk-source/gen/include/aidl/android/hardware/radio/data/DataProfileInfo.h:80:3)",
   "referenced_type" : "_ZTIN4aidl7android8hardware5radio4data15DataProfileInfo10$TYPE_3GPPE",
   "self_type" : "_ZTIN4aidl7android8hardware5radio4data15DataProfileInfo10$TYPE_3GPPE",
   "size" : 4,
   "source_file" : "out/soong/.intermediates/hardware/interfaces/radio/aidl/android.hardware.radio.data-V1-ndk-source/gen/include/aidl/android/hardware/radio/data/DataProfileInfo.h",
   "underlying_type" : "_ZTIi"
  },
  {
   "alignment" : 4,
   "enum_fields" :
   [
    {
     "enum_field_value" : 0,
     "name" : "aidl::android::hardware::radio::data::DataProfileInfo::ID_DEFAULT"
    }
   ],
   "linker_set_key" : "_ZTIN4aidl7android8hardware5radio4data15DataProfileInfo11$ID_DEFAULTE",
   "name" : "aidl::android::hardware::radio::data::DataProfileInfo::(unnamed enum at out/soong/.intermediates/hardware/interfaces/radio/aidl/android.hardware.radio.data-V1-ndk-source/gen/include/aidl/android/hardware/radio/data/DataProfileInfo.h:72:3)",
   "referenced_type" : "_ZTIN4aidl7android8hardware5radio4data15DataProfileInfo11$ID_DEFAULTE",
   "self_type" : "_ZTIN4aidl7android8hardware5radio4data15DataProfileInfo11$ID_DEFAULTE",
   "size" : 4,
   "source_file" : "out/soong/.intermediates/hardware/interfaces/radio/aidl/android.hardware.radio.data-V1-ndk-source/gen/include/aidl/android/hardware/radio/data/DataProfileInfo.h",
   "underlying_type" : "_ZTIi"
  },
  {
   "alignment" : 4,
   "enum_fields" :
   [
    {
     "enum_field_value" : -1,
     "name" : "aidl::android::hardware::radio::data::DataProfileInfo::ID_INVALID"
    }
   ],
   "linker_set_key" : "_ZTIN4aidl7android8hardware5radio4data15DataProfileInfo11$ID_INVALIDE",
   "name" : "aidl::android::hardware::radio::data::DataProfileInfo::(unnamed enum at out/soong/.intermediates/hardware/interfaces/radio/aidl/android.hardware.radio.data-V1-ndk-source/gen/include/aidl/android/hardware/radio/data/DataProfileInfo.h:78:3)",
   "referenced_type" : "_ZTIN4aidl7android8hardware5radio4data15DataProfileInfo11$ID_INVALIDE",
   "self_type" : "_ZTIN4aidl7android8hardware5radio4data15DataProfileInfo11$ID_INVALIDE",
   "size" : 4,
   "source_file" : "out/soong/.intermediates/hardware/interfaces/radio/aidl/android.hardware.radio.data-V1-ndk-source/gen/include/aidl/android/hardware/radio/data/DataProfileInfo.h",
   "underlying_type" : "_ZTIi"
  },
  {
   "alignment" : 4,
   "enum_fields" :
   [
    {
     "enum_field_value" : 2,
     "name" : "aidl::android::hardware::radio::data::DataProfileInfo::TYPE_3GPP2"
    }
   ],
   "linker_set_key" : "_ZTIN4aidl7android8hardware5radio4data15DataProfileInfo11$TYPE_3GPP2E",
   "name" : "aidl::android::hardware::radio::data::DataProfileInfo::(unnamed enum at out/soong/.intermediates/hardware/interfaces/radio/aidl/android.hardware.radio.data-V1-ndk-source/gen/include/aidl/android/hardware/radio/data/DataProfileInfo.h:81:3)",
   "referenced_type" : "_ZTIN4aidl7android8hardware5radio4data15DataProfileInfo11$TYPE_3GPP2E",
   "self_type" : "_ZTIN4aidl7android8hardware5radio4data15DataProfileInfo11$TYPE_3GPP2E",
   "size" : 4,
   "source_file" : "out/soong/.intermediates/hardware/interfaces/radio/aidl/android.hardware.radio.data-V1-ndk-source/gen/include/aidl/android/hardware/radio/data/DataProfileInfo.h",
   "underlying_type" : "_ZTIi"
  },
  {
   "alignment" : 4,
   "enum_fields" :
   [
    {
     "enum_field_value" : 1000,
     "name" : "aidl::android::hardware::radio::data::DataProfileInfo::ID_OEM_BASE"
    }
   ],
   "linker_set_key" : "_ZTIN4aidl7android8hardware5radio4data15DataProfileInfo12$ID_OEM_BASEE",
   "name" : "aidl::android::hardware::radio::data::DataProfileInfo::(unnamed enum at out/soong/.intermediates/hardware/interfaces/radio/aidl/android.hardware.radio.data-V1-ndk-source/gen/include/aidl/android/hardware/radio/data/DataProfileInfo.h:77:3)",
   "referenced_type" : "_ZTIN4aidl7android8hardware5radio4data15DataProfileInfo12$ID_OEM_BASEE",
   "self_type" : "_ZTIN4aidl7android8hardware5radio4data15DataProfileInfo12$ID_OEM_BASEE",
   "size" : 4,
   "source_file" : "out/soong/.intermediates/hardware/interfaces/radio/aidl/android.hardware.radio.data-V1-ndk-source/gen/include/aidl/android/hardware/radio/data/DataProfileInfo.h",
   "underlying_type" : "_ZTIi"
  },
  {
   "alignment" : 4,
   "enum_fields" :
   [
    {
     "enum_field_value" : 1,
     "name" : "aidl::android::hardware::radio::data::DataProfileInfo::ID_TETHERED"
    }
   ],
   "linker_set_key" : "_ZTIN4aidl7android8hardware5radio4data15DataProfileInfo12$ID_TETHEREDE",
   "name" : "aidl::android::hardware::radio::data::DataProfileInfo::(unnamed enum at out/soong/.intermediates/hardware/interfaces/radio/aidl/android.hardware.radio.data-V1-ndk-source/gen/include/aidl/android/hardware/radio/data/DataProfileInfo.h:73:3)",
   "referenced_type" : "_ZTIN4aidl7android8hardware5radio4data15DataProfileInfo12$ID_TETHEREDE",
   "self_type" : "_ZTIN4aidl7android8hardware5radio4data15DataProfileInfo12$ID_TETHEREDE",
   "size" : 4,
   "source_file" : "out/soong/.intermediates/hardware/interfaces/radio/aidl/android.hardware.radio.data-V1-ndk-source/gen/include/aidl/android/hardware/radio/data/DataProfileInfo.h",
   "underlying_type" : "_ZTIi"
  },
  {
   "alignment" : 4,
   "enum_fields" :
   [
    {
     "enum_field_value" : 0,
     "name" : "aidl::android::hardware::radio::data::DataProfileInfo::TYPE_COMMON"
    }
   ],
   "linker_set_key" : "_ZTIN4aidl7android8hardware5radio4data15DataProfileInfo12$TYPE_COMMONE",
   "name" : "aidl::android::hardware::radio::data::DataProfileInfo::(unnamed enum at out/soong/.intermediates/hardware/interfaces/radio/aidl/android.hardware.radio.data-V1-ndk-source/gen/include/aidl/android/hardware/radio/data/DataProfileInfo.h:79:3)",
   "referenced_type" : "_ZTIN4aidl7android8hardware5radio4data15DataProfileInfo12$TYPE_COMMONE",
   "self_type" : "_ZTIN4aidl7android8hardware5radio4data15DataProfileInfo12$TYPE_COMMONE",
   "size" : 4,
   "source_file" : "out/soong/.intermediates/hardware/interfaces/radio/aidl/android.hardware.radio.data-V1-ndk-source/gen/include/aidl/android/hardware/radio/data/DataProfileInfo.h",
   "underlying_type" : "_ZTIi"
  },
  {
   "alignment" : 4,
   "enum_fields" :
   [
    {
     "enum_field_value" : 4,
     "name" : "aidl::android::hardware::radio::data::DataProfileInfo::ID_CBS"
    }
   ],
   "linker_set_key" : "_ZTIN4aidl7android8hardware5radio4data15DataProfileInfo7$ID_CBSE",
   "name" : "aidl::android::hardware::radio::data::DataProfileInfo::(unnamed enum at out/soong/.intermediates/hardware/interfaces/radio/aidl/android.hardware.radio.data-V1-ndk-source/gen/include/aidl/android/hardware/radio/data/DataProfileInfo.h:76:3)",
   "referenced_type" : "_ZTIN4aidl7android8hardware5radio4data15DataProfileInfo7$ID_CBSE",
   "self_type" : "_ZTIN4aidl7android8hardware5radio4data15DataProfileInfo7$ID_CBSE",
   "size" : 4,
   "source_file" : "out/soong/.intermediates/hardware/interfaces/radio/aidl/android.hardware.radio.data-V1-ndk-source/gen/include/aidl/android/hardware/radio/data/DataProfileInfo.h",
   "underlying_type" : "_ZTIi"
  },
  {
   "alignment" : 4,
   "enum_fields" :
   [
    {
     "enum_field_value" : 2,
     "name" : "aidl::android::hardware::radio::data::DataProfileInfo::ID_IMS"
    }
   ],
   "linker_set_key" : "_ZTIN4aidl7android8hardware5radio4data15DataProfileInfo7$ID_IMSE",
   "name" : "aidl::android::hardware::radio::data::DataProfileInfo::(unnamed enum at out/soong/.intermediates/hardware/interfaces/radio/aidl/android.hardware.radio.data-V1-ndk-source/gen/include/aidl/android/hardware/radio/data/DataProfileInfo.h:74:3)",
   "referenced_type" : "_ZTIN4aidl7android8hardware5radio4data15DataProfileInfo7$ID_IMSE",
   "self_type" : "_ZTIN4aidl7android8hardware5radio4data15DataProfileInfo7$ID_IMSE",
   "size" : 4,
   "source_file" : "out/soong/.intermediates/hardware/interfaces/radio/aidl/android.hardware.radio.data-V1-ndk-source/gen/include/aidl/android/hardware/radio/data/DataProfileInfo.h",
   "underlying_type" : "_ZTIi"
  },
  {
   "alignment" : 4,
   "enum_fields" :
   [
    {
     "enum_field_value" : 3,
     "name" : "aidl::android::hardware::radio::data::DataProfileInfo::ID_FOTA"
    }
   ],
   "linker_set_key" : "_ZTIN4aidl7android8hardware5radio4data15DataProfileInfo8$ID_FOTAE",
   "name" : "aidl::android::hardware::radio::data::DataProfileInfo::(unnamed enum at out/soong/.intermediates/hardware/interfaces/radio/aidl/android.hardware.radio.data-V1-ndk-source/gen/include/aidl/android/hardware/radio/data/DataProfileInfo.h:75:3)",
   "referenced_type" : "_ZTIN4aidl7android8hardware5radio4data15DataProfileInfo8$ID_FOTAE",
   "self_type" : "_ZTIN4aidl7android8hardware5radio4data15DataProfileInfo8$ID_FOTAE",
   "size" : 4,
   "source_file" : "out/soong/.intermediates/hardware/interfaces/radio/aidl/android.hardware.radio.data-V1-ndk-source/gen/include/aidl/android/hardware/radio/data/DataProfileInfo.h",
   "underlying_type" : "_ZTIi"
  },
  {
   "alignment" : 4,
   "enum_fields" :
   [
    {
     "enum_field_value" : 0,
     "name" : "aidl::android::hardware::radio::data::KeepaliveStatus::CODE_ACTIVE"
    }
   ],
   "linker_set_key" : "_ZTIN4aidl7android8hardware5radio4data15KeepaliveStatus12$CODE_ACTIVEE",
   "name" : "aidl::android::hardware::radio::data::KeepaliveStatus::(unnamed enum at out/soong/.intermediates/hardware/interfaces/radio/aidl/android.hardware.radio.data-V1-ndk-source/gen/include/aidl/android/hardware/radio/data/KeepaliveStatus.h:51:3)",
   "referenced_type" : "_ZTIN4aidl7android8hardware5radio4data15KeepaliveStatus12$CODE_ACTIVEE",
   "self_type" : "_ZTIN4aidl7android8hardware5radio4data15KeepaliveStatus12$CODE_ACTIVEE",
   "size" : 4,
   "source_file" : "out/soong/.intermediates/hardware/interfaces/radio/aidl/android.hardware.radio.data-V1-ndk-source/gen/include/aidl/android/hardware/radio/data/KeepaliveStatus.h",
   "underlying_type" : "_ZTIi"
  },
  {
   "alignment" : 4,
   "enum_fields" :
   [
    {
     "enum_field_value" : 2,
     "name" : "aidl::android::hardware::radio::data::KeepaliveStatus::CODE_PENDING"
    }
   ],
   "linker_set_key" : "_ZTIN4aidl7android8hardware5radio4data15KeepaliveStatus13$CODE_PENDINGE",
   "name" : "aidl::android::hardware::radio::data::KeepaliveStatus::(unnamed enum at out/soong/.intermediates/hardware/interfaces/radio/aidl/android.hardware.radio.data-V1-ndk-source/gen/include/aidl/android/hardware/radio/data/KeepaliveStatus.h:53:3)",
   "referenced_type" : "_ZTIN4aidl7android8hardware5radio4data15KeepaliveStatus13$CODE_PENDINGE",
   "self_type" : "_ZTIN4aidl7android8hardware5radio4data15KeepaliveStatus13$CODE_PENDINGE",
   "size" : 4,
   "source_file" : "out/soong/.intermediates/hardware/interfaces/radio/aidl/android.hardware.radio.data-V1-ndk-source/gen/include/aidl/android/hardware/radio/data/KeepaliveStatus.h",
   "underlying_type" : "_ZTIi"
  },
  {
   "alignment" : 4,
   "enum_fields" :
   [
    {
     "enum_field_value" : 1,
     "name" : "aidl::android::hardware::radio::data::KeepaliveStatus::CODE_INACTIVE"
    }
   ],
   "linker_set_key" : "_ZTIN4aidl7android8hardware5radio4data15KeepaliveStatus14$CODE_INACTIVEE",
   "name" : "aidl::android::hardware::radio::data::KeepaliveStatus::(unnamed enum at out/soong/.intermediates/hardware/interfaces/radio/aidl/android.hardware.radio.data-V1-ndk-source/gen/include/aidl/android/hardware/radio/data/KeepaliveStatus.h:52:3)",
   "referenced_type" : "_ZTIN4aidl7android8hardware5radio4data15KeepaliveStatus14$CODE_INACTIVEE",
   "self_type" : "_ZTIN4aidl7android8hardware5radio4data15KeepaliveStatus14$CODE_INACTIVEE",
   "size" : 4,
   "source_file" : "out/soong/.intermediates/hardware/interfaces/radio/aidl/android.hardware.radio.data-V1-ndk-source/gen/include/aidl/android/hardware/radio/data/KeepaliveStatus.h",
   "underlying_type" : "_ZTIi"
  },
  {
   "alignment" : 4,
   "enum_fields" :
   [
    {
     "enum_field_value" : -1,
     "name" : "aidl::android::hardware::radio::data::PdpProtocolType::UNKNOWN"
    },
    {
     "enum_field_value" : 0,
     "name" : "aidl::android::hardware::radio::data::PdpProtocolType::IP"
    },
    {
     "enum_field_value" : 1,
     "name" : "aidl::android::hardware::radio::data::PdpProtocolType::IPV6"
    },
    {
     "enum_field_value" : 2,
     "name" : "aidl::android::hardware::radio::data::PdpProtocolType::IPV4V6"
    },
    {
     "enum_field_value" : 3,
     "name" : "aidl::android::hardware::radio::data::PdpProtocolType::PPP"
    },
    {
     "enum_field_value" : 4,
     "name" : "aidl::android::hardware::radio::data::PdpProtocolType::NON_IP"
    },
    {
     "enum_field_value" : 5,
     "name" : "aidl::android::hardware::radio::data::PdpProtocolType::UNSTRUCTURED"
    }
   ],
   "linker_set_key" : "_ZTIN4aidl7android8hardware5radio4data15PdpProtocolTypeE",
   "name" : "aidl::android::hardware::radio::data::PdpProtocolType",
   "referenced_type" : "_ZTIN4aidl7android8hardware5radio4data15PdpProtocolTypeE",
   "self_type" : "_ZTIN4aidl7android8hardware5radio4data15PdpProtocolTypeE",
   "size" : 4,
   "source_file" : "out/soong/.intermediates/hardware/interfaces/radio/aidl/android.hardware.radio.data-V1-ndk-source/gen/include/aidl/android/hardware/radio/data/PdpProtocolType.h",
   "underlying_type" : "_ZTIi"
  },
  {
   "alignment" : 4,
   "enum_fields" :
   [
    {
     "enum_field_value" : 0,
     "name" : "aidl::android::hardware::radio::data::KeepaliveRequest::TYPE_NATT_IPV4"
    }
   ],
   "linker_set_key" : "_ZTIN4aidl7android8hardware5radio4data16KeepaliveRequest15$TYPE_NATT_IPV4E",
   "name" : "aidl::android::hardware::radio::data::KeepaliveRequest::(unnamed enum at out/soong/.intermediates/hardware/interfaces/radio/aidl/android.hardware.radio.data-V1-ndk-source/gen/include/aidl/android/hardware/radio/data/KeepaliveRequest.h:56:3)",
   "referenced_type" : "_ZTIN4aidl7android8hardware5radio4data16KeepaliveRequest15$TYPE_NATT_IPV4E",
   "self_type" : "_ZTIN4aidl7android8hardware5radio4data16KeepaliveRequest15$TYPE_NATT_IPV4E",
   "size" : 4,
   "source_file" : "out/soong/.intermediates/hardware/interfaces/radio/aidl/android.hardware.radio.data-V1-ndk-source/gen/include/aidl/android/hardware/radio/data/KeepaliveRequest.h",
   "underlying_type" : "_ZTIi"
  },
  {
   "alignment" : 4,
   "enum_fields" :
   [
    {
     "enum_field_value" : 1,
     "name" : "aidl::android::hardware::radio::data::KeepaliveRequest::TYPE_NATT_IPV6"
    }
   ],
   "linker_set_key" : "_ZTIN4aidl7android8hardware5radio4data16KeepaliveRequest15$TYPE_NATT_IPV6E",
   "name" : "aidl::android::hardware::radio::data::KeepaliveRequest::(unnamed enum at out/soong/.intermediates/hardware/interfaces/radio/aidl/android.hardware.radio.data-V1-ndk-source/gen/include/aidl/android/hardware/radio/data/KeepaliveRequest.h:57:3)",
   "referenced_type" : "_ZTIN4aidl7android8hardware5radio4data16KeepaliveRequest15$TYPE_NATT_IPV6E",
   "self_type" : "_ZTIN4aidl7android8hardware5radio4data16KeepaliveRequest15$TYPE_NATT_IPV6E",
   "size" : 4,
   "source_file" : "out/soong/.intermediates/hardware/interfaces/radio/aidl/android.hardware.radio.data-V1-ndk-source/gen/include/aidl/android/hardware/radio/data/KeepaliveRequest.h",
   "underlying_type" : "_ZTIi"
  },
  {
   "alignment" : 4,
   "enum_fields" :
   [
    {
     "enum_field_value" : 0,
     "name" : "aidl::android::hardware::radio::data::DataCallFailCause::NONE"
    },
    {
     "enum_field_value" : 8,
     "name" : "aidl::android::hardware::radio::data::DataCallFailCause::OPERATOR_BARRED"
    },
    {
     "enum_field_value" : 14,
     "name" : "aidl::android::hardware::radio::data::DataCallFailCause::NAS_SIGNALLING"
    },
    {
     "enum_field_value" : 26,
     "name" : "aidl::android::hardware::radio::data::DataCallFailCause::INSUFFICIENT_RESOURCES"
    },
    {
     "enum_field_value" : 27,
     "name" : "aidl::android::hardware::radio::data::DataCallFailCause::MISSING_UNKNOWN_APN"
    },
    {
     "enum_field_value" : 28,
     "name" : "aidl::android::hardware::radio::data::DataCallFailCause::UNKNOWN_PDP_ADDRESS_TYPE"
    },
    {
     "enum_field_value" : 29,
     "name" : "aidl::android::hardware::radio::data::DataCallFailCause::USER_AUTHENTICATION"
    },
    {
     "enum_field_value" : 30,
     "name" : "aidl::android::hardware::radio::data::DataCallFailCause::ACTIVATION_REJECT_GGSN"
    },
    {
     "enum_field_value" : 31,
     "name" : "aidl::android::hardware::radio::data::DataCallFailCause::ACTIVATION_REJECT_UNSPECIFIED"
    },
    {
     "enum_field_value" : 32,
     "name" : "aidl::android::hardware::radio::data::DataCallFailCause::SERVICE_OPTION_NOT_SUPPORTED"
    },
    {
     "enum_field_value" : 33,
     "name" : "aidl::android::hardware::radio::data::DataCallFailCause::SERVICE_OPTION_NOT_SUBSCRIBED"
    },
    {
     "enum_field_value" : 34,
     "name" : "aidl::android::hardware::radio::data::DataCallFailCause::SERVICE_OPTION_OUT_OF_ORDER"
    },
    {
     "enum_field_value" : 35,
     "name" : "aidl::android::hardware::radio::data::DataCallFailCause::NSAPI_IN_USE"
    },
    {
     "enum_field_value" : 36,
     "name" : "aidl::android::hardware::radio::data::DataCallFailCause::REGULAR_DEACTIVATION"
    },
    {
     "enum_field_value" : 37,
     "name" : "aidl::android::hardware::radio::data::DataCallFailCause::QOS_NOT_ACCEPTED"
    },
    {
     "enum_field_value" : 38,
     "name" : "aidl::android::hardware::radio::data::DataCallFailCause::NETWORK_FAILURE"
    },
    {
     "enum_field_value" : 39,
     "name" : "aidl::android::hardware::radio::data::DataCallFailCause::UMTS_REACTIVATION_REQ"
    },
    {
     "enum_field_value" : 40,
     "name" : "aidl::android::hardware::radio::data::DataCallFailCause::FEATURE_NOT_SUPP"
    },
    {
     "enum_field_value" : 41,
     "name" : "aidl::android::hardware::radio::data::DataCallFailCause::TFT_SEMANTIC_ERROR"
    },
    {
     "enum_field_value" : 42,
     "name" : "aidl::android::hardware::radio::data::DataCallFailCause::TFT_SYTAX_ERROR"
    },
    {
     "enum_field_value" : 43,
     "name" : "aidl::android::hardware::radio::data::DataCallFailCause::UNKNOWN_PDP_CONTEXT"
    },
    {
     "enum_field_value" : 44,
     "name" : "aidl::android::hardware::radio::data::DataCallFailCause::FILTER_SEMANTIC_ERROR"
    },
    {
     "enum_field_value" : 45,
     "name" : "aidl::android::hardware::radio::data::DataCallFailCause::FILTER_SYTAX_ERROR"
    },
    {
     "enum_field_value" : 46,
     "name" : "aidl::android::hardware::radio::data::DataCallFailCause::PDP_WITHOUT_ACTIVE_TFT"
    },
    {
     "enum_field_value" : 50,
     "name" : "aidl::android::hardware::radio::data::DataCallFailCause::ONLY_IPV4_ALLOWED"
    },
    {
     "enum_field_value" : 51,
     "name" : "aidl::android::hardware::radio::data::DataCallFailCause::ONLY_IPV6_ALLOWED"
    },
    {
     "enum_field_value" : 52,
     "name" : "aidl::android::hardware::radio::data::DataCallFailCause::ONLY_SINGLE_BEARER_ALLOWED"
    },
    {
     "enum_field_value" : 53,
     "name" : "aidl::android::hardware::radio::data::DataCallFailCause::ESM_INFO_NOT_RECEIVED"
    },
    {
     "enum_field_value" : 54,
     "name" : "aidl::android::hardware::radio::data::DataCallFailCause::PDN_CONN_DOES_NOT_EXIST"
    },
    {
     "enum_field_value" : 55,
     "name" : "aidl::android::hardware::radio::data::DataCallFailCause::MULTI_CONN_TO_SAME_PDN_NOT_ALLOWED"
    },
    {
     "enum_field_value" : 65,
     "name" : "aidl::android::hardware::radio::data::DataCallFailCause::MAX_ACTIVE_PDP_CONTEXT_REACHED"
    },
    {
     "enum_field_value" : 66,
     "name" : "aidl::android::hardware::radio::data::DataCallFailCause::UNSUPPORTED_APN_IN_CURRENT_PLMN"
    },
    {
     "enum_field_value" : 81,
     "name" : "aidl::android::hardware::radio::data::DataCallFailCause::INVALID_TRANSACTION_ID"
    },
    {
     "enum_field_value" : 95,
     "name" : "aidl::android::hardware::radio::data::DataCallFailCause::MESSAGE_INCORRECT_SEMANTIC"
    },
    {
     "enum_field_value" : 96,
     "name" : "aidl::android::hardware::radio::data::DataCallFailCause::INVALID_MANDATORY_INFO"
    },
    {
     "enum_field_value" : 97,
     "name" : "aidl::android::hardware::radio::data::DataCallFailCause::MESSAGE_TYPE_UNSUPPORTED"
    },
    {
     "enum_field_value" : 98,
     "name" : "aidl::android::hardware::radio::data::DataCallFailCause::MSG_TYPE_NONCOMPATIBLE_STATE"
    },
    {
     "enum_field_value" : 99,
     "name" : "aidl::android::hardware::radio::data::DataCallFailCause::UNKNOWN_INFO_ELEMENT"
    },
    {
     "enum_field_value" : 100,
     "name" : "aidl::android::hardware::radio::data::DataCallFailCause::CONDITIONAL_IE_ERROR"
    },
    {
     "enum_field_value" : 101,
     "name" : "aidl::android::hardware::radio::data::DataCallFailCause::MSG_AND_PROTOCOL_STATE_UNCOMPATIBLE"
    },
    {
     "enum_field_value" : 111,
     "name" : "aidl::android::hardware::radio::data::DataCallFailCause::PROTOCOL_ERRORS"
    },
    {
     "enum_field_value" : 112,
     "name" : "aidl::android::hardware::radio::data::DataCallFailCause::APN_TYPE_CONFLICT"
    },
    {
     "enum_field_value" : 113,
     "name" : "aidl::android::hardware::radio::data::DataCallFailCause::INVALID_PCSCF_ADDR"
    },
    {
     "enum_field_value" : 114,
     "name" : "aidl::android::hardware::radio::data::DataCallFailCause::INTERNAL_CALL_PREEMPT_BY_HIGH_PRIO_APN"
    },
    {
     "enum_field_value" : 115,
     "name" : "aidl::android::hardware::radio::data::DataCallFailCause::EMM_ACCESS_BARRED"
    },
    {
     "enum_field_value" : 116,
     "name" : "aidl::android::hardware::radio::data::DataCallFailCause::EMERGENCY_IFACE_ONLY"
    },
    {
     "enum_field_value" : 117,
     "name" : "aidl::android::hardware::radio::data::DataCallFailCause::IFACE_MISMATCH"
    },
    {
     "enum_field_value" : 118,
     "name" : "aidl::android::hardware::radio::data::DataCallFailCause::COMPANION_IFACE_IN_USE"
    },
    {
     "enum_field_value" : 119,
     "name" : "aidl::android::hardware::radio::data::DataCallFailCause::IP_ADDRESS_MISMATCH"
    },
    {
     "enum_field_value" : 120,
     "name" : "aidl::android::hardware::radio::data::DataCallFailCause::IFACE_AND_POL_FAMILY_MISMATCH"
    },
    {
     "enum_field_value" : 121,
     "name" : "aidl::android::hardware::radio::data::DataCallFailCause::EMM_ACCESS_BARRED_INFINITE_RETRY"
    },
    {
     "enum_field_value" : 122,
     "name" : "aidl::android::hardware::radio::data::DataCallFailCause::AUTH_FAILURE_ON_EMERGENCY_CALL"
    },
    {
     "enum_field_value" : 4097,
     "name" : "aidl::android::hardware::radio::data::DataCallFailCause::OEM_DCFAILCAUSE_1"
    },
    {
     "enum_field_value" : 4098,
     "name" : "aidl::android::hardware::radio::data::DataCallFailCause::OEM_DCFAILCAUSE_2"
    },
    {
     "enum_field_value" : 4099,
     "name" : "aidl::android::hardware::radio::data::DataCallFailCause::OEM_DCFAILCAUSE_3"
    },
    {
     "enum_field_value" : 4100,
     "name" : "aidl::android::hardware::radio::data::DataCallFailCause::OEM_DCFAILCAUSE_4"
    },
    {
     "enum_field_value" : 4101,
     "name" : "aidl::android::hardware::radio::data::DataCallFailCause::OEM_DCFAILCAUSE_5"
    },
    {
     "enum_field_value" : 4102,
     "name" : "aidl::android::hardware::radio::data::DataCallFailCause::OEM_DCFAILCAUSE_6"
    },
    {
     "enum_field_value" : 4103,
     "name" : "aidl::android::hardware::radio::data::DataCallFailCause::OEM_DCFAILCAUSE_7"
    },
    {
     "enum_field_value" : 4104,
     "name" : "aidl::android::hardware::radio::data::DataCallFailCause::OEM_DCFAILCAUSE_8"
    },
    {
     "enum_field_value" : 4105,
     "name" : "aidl::android::hardware::radio::data::DataCallFailCause::OEM_DCFAILCAUSE_9"
    },
    {
     "enum_field_value" : 4106,
     "name" : "aidl::android::hardware::radio::data::DataCallFailCause::OEM_DCFAILCAUSE_10"
    },
    {
     "enum_field_value" : 4107,
     "name" : "aidl::android::hardware::radio::data::DataCallFailCause::OEM_DCFAILCAUSE_11"
    },
    {
     "enum_field_value" : 4108,
     "name" : "aidl::android::hardware::radio::data::DataCallFailCause::OEM_DCFAILCAUSE_12"
    },
    {
     "enum_field_value" : 4109,
     "name" : "aidl::android::hardware::radio::data::DataCallFailCause::OEM_DCFAILCAUSE_13"
    },
    {
     "enum_field_value" : 4110,
     "name" : "aidl::android::hardware::radio::data::DataCallFailCause::OEM_DCFAILCAUSE_14"
    },
    {
     "enum_field_value" : 4111,
     "name" : "aidl::android::hardware::radio::data::DataCallFailCause::OEM_DCFAILCAUSE_15"
    },
    {
     "enum_field_value" : -1,
     "name" : "aidl::android::hardware::radio::data::DataCallFailCause::VOICE_REGISTRATION_FAIL"
    },
    {
     "enum_field_value" : -2,
     "name" : "aidl::android::hardware::radio::data::DataCallFailCause::DATA_REGISTRATION_FAIL"
    },
    {
     "enum_field_value" : -3,
     "name" : "aidl::android::hardware::radio::data::DataCallFailCause::SIGNAL_LOST"
    },
    {
     "enum_field_value" : -4,
     "name" : "aidl::android::hardware::radio::data::DataCallFailCause::PREF_RADIO_TECH_CHANGED"
    },
    {
     "enum_field_value" : -5,
     "name" : "aidl::android::hardware::radio::data::DataCallFailCause::RADIO_POWER_OFF"
    },
    {
     "enum_field_value" : -6,
     "name" : "aidl::android::hardware::radio::data::DataCallFailCause::TETHERED_CALL_ACTIVE"
    },
    {
     "enum_field_value" : 65535,
     "name" : "aidl::android::hardware::radio::data::DataCallFailCause::ERROR_UNSPECIFIED"
    },
    {
     "enum_field_value" : 25,
     "name" : "aidl::android::hardware::radio::data::DataCallFailCause::LLC_SNDCP"
    },
    {
     "enum_field_value" : 48,
     "name" : "aidl::android::hardware::radio::data::DataCallFailCause::ACTIVATION_REJECTED_BCM_VIOLATION"
    },
    {
     "enum_field_value" : 56,
     "name" : "aidl::android::hardware::radio::data::DataCallFailCause::COLLISION_WITH_NETWORK_INITIATED_REQUEST"
    },
    {
     "enum_field_value" : 57,
     "name" : "aidl::android::hardware::radio::data::DataCallFailCause::ONLY_IPV4V6_ALLOWED"
    },
    {
     "enum_field_value" : 58,
     "name" : "aidl::android::hardware::radio::data::DataCallFailCause::ONLY_NON_IP_ALLOWED"
    },
    {
     "enum_field_value" : 59,
     "name" : "aidl::android::hardware::radio::data::DataCallFailCause::UNSUPPORTED_QCI_VALUE"
    },
    {
     "enum_field_value" : 60,
     "name" : "aidl::android::hardware::radio::data::DataCallFailCause::BEARER_HANDLING_NOT_SUPPORTED"
    },
    {
     "enum_field_value" : 123,
     "name" : "aidl::android::hardware::radio::data::DataCallFailCause::INVALID_DNS_ADDR"
    },
    {
     "enum_field_value" : 124,
     "name" : "aidl::android::hardware::radio::data::DataCallFailCause::INVALID_PCSCF_OR_DNS_ADDRESS"
    },
    {
     "enum_field_value" : 127,
     "name" : "aidl::android::hardware::radio::data::DataCallFailCause::CALL_PREEMPT_BY_EMERGENCY_APN"
    },
    {
     "enum_field_value" : 128,
     "name" : "aidl::android::hardware::radio::data::DataCallFailCause::UE_INITIATED_DETACH_OR_DISCONNECT"
    },
    {
     "enum_field_value" : 2000,
     "name" : "aidl::android::hardware::radio::data::DataCallFailCause::MIP_FA_REASON_UNSPECIFIED"
    },
    {
     "enum_field_value" : 2001,
     "name" : "aidl::android::hardware::radio::data::DataCallFailCause::MIP_FA_ADMIN_PROHIBITED"
    },
    {
     "enum_field_value" : 2002,
     "name" : "aidl::android::hardware::radio::data::DataCallFailCause::MIP_FA_INSUFFICIENT_RESOURCES"
    },
    {
     "enum_field_value" : 2003,
     "name" : "aidl::android::hardware::radio::data::DataCallFailCause::MIP_FA_MOBILE_NODE_AUTHENTICATION_FAILURE"
    },
    {
     "enum_field_value" : 2004,
     "name" : "aidl::android::hardware::radio::data::DataCallFailCause::MIP_FA_HOME_AGENT_AUTHENTICATION_FAILURE"
    },
    {
     "enum_field_value" : 2005,
     "name" : "aidl::android::hardware::radio::data::DataCallFailCause::MIP_FA_REQUESTED_LIFETIME_TOO_LONG"
    },
    {
     "enum_field_value" : 2006,
     "name" : "aidl::android::hardware::radio::data::DataCallFailCause::MIP_FA_MALFORMED_REQUEST"
    },
    {
     "enum_field_value" : 2007,
     "name" : "aidl::android::hardware::radio::data::DataCallFailCause::MIP_FA_MALFORMED_REPLY"
    },
    {
     "enum_field_value" : 2008,
     "name" : "aidl::android::hardware::radio::data::DataCallFailCause::MIP_FA_ENCAPSULATION_UNAVAILABLE"
    },
    {
     "enum_field_value" : 2009,
     "name" : "aidl::android::hardware::radio::data::DataCallFailCause::MIP_FA_VJ_HEADER_COMPRESSION_UNAVAILABLE"
    },
    {
     "enum_field_value" : 2010,
     "name" : "aidl::android::hardware::radio::data::DataCallFailCause::MIP_FA_REVERSE_TUNNEL_UNAVAILABLE"
    },
    {
     "enum_field_value" : 2011,
     "name" : "aidl::android::hardware::radio::data::DataCallFailCause::MIP_FA_REVERSE_TUNNEL_IS_MANDATORY"
    },
    {
     "enum_field_value" : 2012,
     "name" : "aidl::android::hardware::radio::data::DataCallFailCause::MIP_FA_DELIVERY_STYLE_NOT_SUPPORTED"
    },
    {
     "enum_field_value" : 2013,
     "name" : "aidl::android::hardware::radio::data::DataCallFailCause::MIP_FA_MISSING_NAI"
    },
    {
     "enum_field_value" : 2014,
     "name" : "aidl::android::hardware::radio::data::DataCallFailCause::MIP_FA_MISSING_HOME_AGENT"
    },
    {
     "enum_field_value" : 2015,
     "name" : "aidl::android::hardware::radio::data::DataCallFailCause::MIP_FA_MISSING_HOME_ADDRESS"
    },
    {
     "enum_field_value" : 2016,
     "name" : "aidl::android::hardware::radio::data::DataCallFailCause::MIP_FA_UNKNOWN_CHALLENGE"
    },
    {
     "enum_field_value" : 2017,
     "name" : "aidl::android::hardware::radio::data::DataCallFailCause::MIP_FA_MISSING_CHALLENGE"
    },
    {
     "enum_field_value" : 2018,
     "name" : "aidl::android::hardware::radio::data::DataCallFailCause::MIP_FA_STALE_CHALLENGE"
    },
    {
     "enum_field_value" : 2019,
     "name" : "aidl::android::hardware::radio::data::DataCallFailCause::MIP_HA_REASON_UNSPECIFIED"
    },
    {
     "enum_field_value" : 2020,
     "name" : "aidl::android::hardware::radio::data::DataCallFailCause::MIP_HA_ADMIN_PROHIBITED"
    },
    {
     "enum_field_value" : 2021,
     "name" : "aidl::android::hardware::radio::data::DataCallFailCause::MIP_HA_INSUFFICIENT_RESOURCES"
    },
    {
     "enum_field_value" : 2022,
     "name" : "aidl::android::hardware::radio::data::DataCallFailCause::MIP_HA_MOBILE_NODE_AUTHENTICATION_FAILURE"
    },
    {
     "enum_field_value" : 2023,
     "name" : "aidl::android::hardware::radio::data::DataCallFailCause::MIP_HA_FOREIGN_AGENT_AUTHENTICATION_FAILURE"
    },
    {
     "enum_field_value" : 2024,
     "name" : "aidl::android::hardware::radio::data::DataCallFailCause::MIP_HA_REGISTRATION_ID_MISMATCH"
    },
    {
     "enum_field_value" : 2025,
     "name" : "aidl::android::hardware::radio::data::DataCallFailCause::MIP_HA_MALFORMED_REQUEST"
    },
    {
     "enum_field_value" : 2026,
     "name" : "aidl::android::hardware::radio::data::DataCallFailCause::MIP_HA_UNKNOWN_HOME_AGENT_ADDRESS"
    },
    {
     "enum_field_value" : 2027,
     "name" : "aidl::android::hardware::radio::data::DataCallFailCause::MIP_HA_REVERSE_TUNNEL_UNAVAILABLE"
    },
    {
     "enum_field_value" : 2028,
     "name" : "aidl::android::hardware::radio::data::DataCallFailCause::MIP_HA_REVERSE_TUNNEL_IS_MANDATORY"
    },
    {
     "enum_field_value" : 2029,
     "name" : "aidl::android::hardware::radio::data::DataCallFailCause::MIP_HA_ENCAPSULATION_UNAVAILABLE"
    },
    {
     "enum_field_value" : 2030,
     "name" : "aidl::android::hardware::radio::data::DataCallFailCause::CLOSE_IN_PROGRESS"
    },
    {
     "enum_field_value" : 2031,
     "name" : "aidl::android::hardware::radio::data::DataCallFailCause::NETWORK_INITIATED_TERMINATION"
    },
    {
     "enum_field_value" : 2032,
     "name" : "aidl::android::hardware::radio::data::DataCallFailCause::MODEM_APP_PREEMPTED"
    },
    {
     "enum_field_value" : 2033,
     "name" : "aidl::android::hardware::radio::data::DataCallFailCause::PDN_IPV4_CALL_DISALLOWED"
    },
    {
     "enum_field_value" : 2034,
     "name" : "aidl::android::hardware::radio::data::DataCallFailCause::PDN_IPV4_CALL_THROTTLED"
    },
    {
     "enum_field_value" : 2035,
     "name" : "aidl::android::hardware::radio::data::DataCallFailCause::PDN_IPV6_CALL_DISALLOWED"
    },
    {
     "enum_field_value" : 2036,
     "name" : "aidl::android::hardware::radio::data::DataCallFailCause::PDN_IPV6_CALL_THROTTLED"
    },
    {
     "enum_field_value" : 2037,
     "name" : "aidl::android::hardware::radio::data::DataCallFailCause::MODEM_RESTART"
    },
    {
     "enum_field_value" : 2038,
     "name" : "aidl::android::hardware::radio::data::DataCallFailCause::PDP_PPP_NOT_SUPPORTED"
    },
    {
     "enum_field_value" : 2039,
     "name" : "aidl::android::hardware::radio::data::DataCallFailCause::UNPREFERRED_RAT"
    },
    {
     "enum_field_value" : 2040,
     "name" : "aidl::android::hardware::radio::data::DataCallFailCause::PHYSICAL_LINK_CLOSE_IN_PROGRESS"
    },
    {
     "enum_field_value" : 2041,
     "name" : "aidl::android::hardware::radio::data::DataCallFailCause::APN_PENDING_HANDOVER"
    },
    {
     "enum_field_value" : 2042,
     "name" : "aidl::android::hardware::radio::data::DataCallFailCause::PROFILE_BEARER_INCOMPATIBLE"
    },
    {
     "enum_field_value" : 2043,
     "name" : "aidl::android::hardware::radio::data::DataCallFailCause::SIM_CARD_CHANGED"
    },
    {
     "enum_field_value" : 2044,
     "name" : "aidl::android::hardware::radio::data::DataCallFailCause::LOW_POWER_MODE_OR_POWERING_DOWN"
    },
    {
     "enum_field_value" : 2045,
     "name" : "aidl::android::hardware::radio::data::DataCallFailCause::APN_DISABLED"
    },
    {
     "enum_field_value" : 2046,
     "name" : "aidl::android::hardware::radio::data::DataCallFailCause::MAX_PPP_INACTIVITY_TIMER_EXPIRED"
    },
    {
     "enum_field_value" : 2047,
     "name" : "aidl::android::hardware::radio::data::DataCallFailCause::IPV6_ADDRESS_TRANSFER_FAILED"
    },
    {
     "enum_field_value" : 2048,
     "name" : "aidl::android::hardware::radio::data::DataCallFailCause::TRAT_SWAP_FAILED"
    },
    {
     "enum_field_value" : 2049,
     "name" : "aidl::android::hardware::radio::data::DataCallFailCause::EHRPD_TO_HRPD_FALLBACK"
    },
    {
     "enum_field_value" : 2050,
     "name" : "aidl::android::hardware::radio::data::DataCallFailCause::MIP_CONFIG_FAILURE"
    },
    {
     "enum_field_value" : 2051,
     "name" : "aidl::android::hardware::radio::data::DataCallFailCause::PDN_INACTIVITY_TIMER_EXPIRED"
    },
    {
     "enum_field_value" : 2052,
     "name" : "aidl::android::hardware::radio::data::DataCallFailCause::MAX_IPV4_CONNECTIONS"
    },
    {
     "enum_field_value" : 2053,
     "name" : "aidl::android::hardware::radio::data::DataCallFailCause::MAX_IPV6_CONNECTIONS"
    },
    {
     "enum_field_value" : 2054,
     "name" : "aidl::android::hardware::radio::data::DataCallFailCause::APN_MISMATCH"
    },
    {
     "enum_field_value" : 2055,
     "name" : "aidl::android::hardware::radio::data::DataCallFailCause::IP_VERSION_MISMATCH"
    },
    {
     "enum_field_value" : 2056,
     "name" : "aidl::android::hardware::radio::data::DataCallFailCause::DUN_CALL_DISALLOWED"
    },
    {
     "enum_field_value" : 2057,
     "name" : "aidl::android::hardware::radio::data::DataCallFailCause::INTERNAL_EPC_NONEPC_TRANSITION"
    },
    {
     "enum_field_value" : 2058,
     "name" : "aidl::android::hardware::radio::data::DataCallFailCause::INTERFACE_IN_USE"
    },
    {
     "enum_field_value" : 2059,
     "name" : "aidl::android::hardware::radio::data::DataCallFailCause::APN_DISALLOWED_ON_ROAMING"
    },
    {
     "enum_field_value" : 2060,
     "name" : "aidl::android::hardware::radio::data::DataCallFailCause::APN_PARAMETERS_CHANGED"
    },
    {
     "enum_field_value" : 2061,
     "name" : "aidl::android::hardware::radio::data::DataCallFailCause::NULL_APN_DISALLOWED"
    },
    {
     "enum_field_value" : 2062,
     "name" : "aidl::android::hardware::radio::data::DataCallFailCause::THERMAL_MITIGATION"
    },
    {
     "enum_field_value" : 2063,
     "name" : "aidl::android::hardware::radio::data::DataCallFailCause::DATA_SETTINGS_DISABLED"
    },
    {
     "enum_field_value" : 2064,
     "name" : "aidl::android::hardware::radio::data::DataCallFailCause::DATA_ROAMING_SETTINGS_DISABLED"
    },
    {
     "enum_field_value" : 2065,
     "name" : "aidl::android::hardware::radio::data::DataCallFailCause::DDS_SWITCHED"
    },
    {
     "enum_field_value" : 2066,
     "name" : "aidl::android::hardware::radio::data::DataCallFailCause::FORBIDDEN_APN_NAME"
    },
    {
     "enum_field_value" : 2067,
     "name" : "aidl::android::hardware::radio::data::DataCallFailCause::DDS_SWITCH_IN_PROGRESS"
    },
    {
     "enum_field_value" : 2068,
     "name" : "aidl::android::hardware::radio::data::DataCallFailCause::CALL_DISALLOWED_IN_ROAMING"
    },
    {
     "enum_field_value" : 2069,
     "name" : "aidl::android::hardware::radio::data::DataCallFailCause::NON_IP_NOT_SUPPORTED"
    },
    {
     "enum_field_value" : 2070,
     "name" : "aidl::android::hardware::radio::data::DataCallFailCause::PDN_NON_IP_CALL_THROTTLED"
    },
    {
     "enum_field_value" : 2071,
     "name" : "aidl::android::hardware::radio::data::DataCallFailCause::PDN_NON_IP_CALL_DISALLOWED"
    },
    {
     "enum_field_value" : 2072,
     "name" : "aidl::android::hardware::radio::data::DataCallFailCause::CDMA_LOCK"
    },
    {
     "enum_field_value" : 2073,
     "name" : "aidl::android::hardware::radio::data::DataCallFailCause::CDMA_INTERCEPT"
    },
    {
     "enum_field_value" : 2074,
     "name" : "aidl::android::hardware::radio::data::DataCallFailCause::CDMA_REORDER"
    },
    {
     "enum_field_value" : 2075,
     "name" : "aidl::android::hardware::radio::data::DataCallFailCause::CDMA_RELEASE_DUE_TO_SO_REJECTION"
    },
    {
     "enum_field_value" : 2076,
     "name" : "aidl::android::hardware::radio::data::DataCallFailCause::CDMA_INCOMING_CALL"
    },
    {
     "enum_field_value" : 2077,
     "name" : "aidl::android::hardware::radio::data::DataCallFailCause::CDMA_ALERT_STOP"
    },
    {
     "enum_field_value" : 2078,
     "name" : "aidl::android::hardware::radio::data::DataCallFailCause::CHANNEL_ACQUISITION_FAILURE"
    },
    {
     "enum_field_value" : 2079,
     "name" : "aidl::android::hardware::radio::data::DataCallFailCause::MAX_ACCESS_PROBE"
    },
    {
     "enum_field_value" : 2080,
     "name" : "aidl::android::hardware::radio::data::DataCallFailCause::CONCURRENT_SERVICE_NOT_SUPPORTED_BY_BASE_STATION"
    },
    {
     "enum_field_value" : 2081,
     "name" : "aidl::android::hardware::radio::data::DataCallFailCause::NO_RESPONSE_FROM_BASE_STATION"
    },
    {
     "enum_field_value" : 2082,
     "name" : "aidl::android::hardware::radio::data::DataCallFailCause::REJECTED_BY_BASE_STATION"
    },
    {
     "enum_field_value" : 2083,
     "name" : "aidl::android::hardware::radio::data::DataCallFailCause::CONCURRENT_SERVICES_INCOMPATIBLE"
    },
    {
     "enum_field_value" : 2084,
     "name" : "aidl::android::hardware::radio::data::DataCallFailCause::NO_CDMA_SERVICE"
    },
    {
     "enum_field_value" : 2085,
     "name" : "aidl::android::hardware::radio::data::DataCallFailCause::RUIM_NOT_PRESENT"
    },
    {
     "enum_field_value" : 2086,
     "name" : "aidl::android::hardware::radio::data::DataCallFailCause::CDMA_RETRY_ORDER"
    },
    {
     "enum_field_value" : 2087,
     "name" : "aidl::android::hardware::radio::data::DataCallFailCause::ACCESS_BLOCK"
    },
    {
     "enum_field_value" : 2088,
     "name" : "aidl::android::hardware::radio::data::DataCallFailCause::ACCESS_BLOCK_ALL"
    },
    {
     "enum_field_value" : 2089,
     "name" : "aidl::android::hardware::radio::data::DataCallFailCause::IS707B_MAX_ACCESS_PROBES"
    },
    {
     "enum_field_value" : 2090,
     "name" : "aidl::android::hardware::radio::data::DataCallFailCause::THERMAL_EMERGENCY"
    },
    {
     "enum_field_value" : 2091,
     "name" : "aidl::android::hardware::radio::data::DataCallFailCause::CONCURRENT_SERVICES_NOT_ALLOWED"
    },
    {
     "enum_field_value" : 2092,
     "name" : "aidl::android::hardware::radio::data::DataCallFailCause::INCOMING_CALL_REJECTED"
    },
    {
     "enum_field_value" : 2093,
     "name" : "aidl::android::hardware::radio::data::DataCallFailCause::NO_SERVICE_ON_GATEWAY"
    },
    {
     "enum_field_value" : 2094,
     "name" : "aidl::android::hardware::radio::data::DataCallFailCause::NO_GPRS_CONTEXT"
    },
    {
     "enum_field_value" : 2095,
     "name" : "aidl::android::hardware::radio::data::DataCallFailCause::ILLEGAL_MS"
    },
    {
     "enum_field_value" : 2096,
     "name" : "aidl::android::hardware::radio::data::DataCallFailCause::ILLEGAL_ME"
    },
    {
     "enum_field_value" : 2097,
     "name" : "aidl::android::hardware::radio::data::DataCallFailCause::GPRS_SERVICES_AND_NON_GPRS_SERVICES_NOT_ALLOWED"
    },
    {
     "enum_field_value" : 2098,
     "name" : "aidl::android::hardware::radio::data::DataCallFailCause::GPRS_SERVICES_NOT_ALLOWED"
    },
    {
     "enum_field_value" : 2099,
     "name" : "aidl::android::hardware::radio::data::DataCallFailCause::MS_IDENTITY_CANNOT_BE_DERIVED_BY_THE_NETWORK"
    },
    {
     "enum_field_value" : 2100,
     "name" : "aidl::android::hardware::radio::data::DataCallFailCause::IMPLICITLY_DETACHED"
    },
    {
     "enum_field_value" : 2101,
     "name" : "aidl::android::hardware::radio::data::DataCallFailCause::PLMN_NOT_ALLOWED"
    },
    {
     "enum_field_value" : 2102,
     "name" : "aidl::android::hardware::radio::data::DataCallFailCause::LOCATION_AREA_NOT_ALLOWED"
    },
    {
     "enum_field_value" : 2103,
     "name" : "aidl::android::hardware::radio::data::DataCallFailCause::GPRS_SERVICES_NOT_ALLOWED_IN_THIS_PLMN"
    },
    {
     "enum_field_value" : 2104,
     "name" : "aidl::android::hardware::radio::data::DataCallFailCause::PDP_DUPLICATE"
    },
    {
     "enum_field_value" : 2105,
     "name" : "aidl::android::hardware::radio::data::DataCallFailCause::UE_RAT_CHANGE"
    },
    {
     "enum_field_value" : 2106,
     "name" : "aidl::android::hardware::radio::data::DataCallFailCause::CONGESTION"
    },
    {
     "enum_field_value" : 2107,
     "name" : "aidl::android::hardware::radio::data::DataCallFailCause::NO_PDP_CONTEXT_ACTIVATED"
    },
    {
     "enum_field_value" : 2108,
     "name" : "aidl::android::hardware::radio::data::DataCallFailCause::ACCESS_CLASS_DSAC_REJECTION"
    },
    {
     "enum_field_value" : 2109,
     "name" : "aidl::android::hardware::radio::data::DataCallFailCause::PDP_ACTIVATE_MAX_RETRY_FAILED"
    },
    {
     "enum_field_value" : 2110,
     "name" : "aidl::android::hardware::radio::data::DataCallFailCause::RADIO_ACCESS_BEARER_FAILURE"
    },
    {
     "enum_field_value" : 2111,
     "name" : "aidl::android::hardware::radio::data::DataCallFailCause::ESM_UNKNOWN_EPS_BEARER_CONTEXT"
    },
    {
     "enum_field_value" : 2112,
     "name" : "aidl::android::hardware::radio::data::DataCallFailCause::DRB_RELEASED_BY_RRC"
    },
    {
     "enum_field_value" : 2113,
     "name" : "aidl::android::hardware::radio::data::DataCallFailCause::CONNECTION_RELEASED"
    },
    {
     "enum_field_value" : 2114,
     "name" : "aidl::android::hardware::radio::data::DataCallFailCause::EMM_DETACHED"
    },
    {
     "enum_field_value" : 2115,
     "name" : "aidl::android::hardware::radio::data::DataCallFailCause::EMM_ATTACH_FAILED"
    },
    {
     "enum_field_value" : 2116,
     "name" : "aidl::android::hardware::radio::data::DataCallFailCause::EMM_ATTACH_STARTED"
    },
    {
     "enum_field_value" : 2117,
     "name" : "aidl::android::hardware::radio::data::DataCallFailCause::LTE_NAS_SERVICE_REQUEST_FAILED"
    },
    {
     "enum_field_value" : 2118,
     "name" : "aidl::android::hardware::radio::data::DataCallFailCause::DUPLICATE_BEARER_ID"
    },
    {
     "enum_field_value" : 2119,
     "name" : "aidl::android::hardware::radio::data::DataCallFailCause::ESM_COLLISION_SCENARIOS"
    },
    {
     "enum_field_value" : 2120,
     "name" : "aidl::android::hardware::radio::data::DataCallFailCause::ESM_BEARER_DEACTIVATED_TO_SYNC_WITH_NETWORK"
    },
    {
     "enum_field_value" : 2121,
     "name" : "aidl::android::hardware::radio::data::DataCallFailCause::ESM_NW_ACTIVATED_DED_BEARER_WITH_ID_OF_DEF_BEARER"
    },
    {
     "enum_field_value" : 2122,
     "name" : "aidl::android::hardware::radio::data::DataCallFailCause::ESM_BAD_OTA_MESSAGE"
    },
    {
     "enum_field_value" : 2123,
     "name" : "aidl::android::hardware::radio::data::DataCallFailCause::ESM_DOWNLOAD_SERVER_REJECTED_THE_CALL"
    },
    {
     "enum_field_value" : 2124,
     "name" : "aidl::android::hardware::radio::data::DataCallFailCause::ESM_CONTEXT_TRANSFERRED_DUE_TO_IRAT"
    },
    {
     "enum_field_value" : 2125,
     "name" : "aidl::android::hardware::radio::data::DataCallFailCause::DS_EXPLICIT_DEACTIVATION"
    },
    {
     "enum_field_value" : 2126,
     "name" : "aidl::android::hardware::radio::data::DataCallFailCause::ESM_LOCAL_CAUSE_NONE"
    },
    {
     "enum_field_value" : 2127,
     "name" : "aidl::android::hardware::radio::data::DataCallFailCause::LTE_THROTTLING_NOT_REQUIRED"
    },
    {
     "enum_field_value" : 2128,
     "name" : "aidl::android::hardware::radio::data::DataCallFailCause::ACCESS_CONTROL_LIST_CHECK_FAILURE"
    },
    {
     "enum_field_value" : 2129,
     "name" : "aidl::android::hardware::radio::data::DataCallFailCause::SERVICE_NOT_ALLOWED_ON_PLMN"
    },
    {
     "enum_field_value" : 2130,
     "name" : "aidl::android::hardware::radio::data::DataCallFailCause::EMM_T3417_EXPIRED"
    },
    {
     "enum_field_value" : 2131,
     "name" : "aidl::android::hardware::radio::data::DataCallFailCause::EMM_T3417_EXT_EXPIRED"
    },
    {
     "enum_field_value" : 2132,
     "name" : "aidl::android::hardware::radio::data::DataCallFailCause::RRC_UPLINK_DATA_TRANSMISSION_FAILURE"
    },
    {
     "enum_field_value" : 2133,
     "name" : "aidl::android::hardware::radio::data::DataCallFailCause::RRC_UPLINK_DELIVERY_FAILED_DUE_TO_HANDOVER"
    },
    {
     "enum_field_value" : 2134,
     "name" : "aidl::android::hardware::radio::data::DataCallFailCause::RRC_UPLINK_CONNECTION_RELEASE"
    },
    {
     "enum_field_value" : 2135,
     "name" : "aidl::android::hardware::radio::data::DataCallFailCause::RRC_UPLINK_RADIO_LINK_FAILURE"
    },
    {
     "enum_field_value" : 2136,
     "name" : "aidl::android::hardware::radio::data::DataCallFailCause::RRC_UPLINK_ERROR_REQUEST_FROM_NAS"
    },
    {
     "enum_field_value" : 2137,
     "name" : "aidl::android::hardware::radio::data::DataCallFailCause::RRC_CONNECTION_ACCESS_STRATUM_FAILURE"
    },
    {
     "enum_field_value" : 2138,
     "name" : "aidl::android::hardware::radio::data::DataCallFailCause::RRC_CONNECTION_ANOTHER_PROCEDURE_IN_PROGRESS"
    },
    {
     "enum_field_value" : 2139,
     "name" : "aidl::android::hardware::radio::data::DataCallFailCause::RRC_CONNECTION_ACCESS_BARRED"
    },
    {
     "enum_field_value" : 2140,
     "name" : "aidl::android::hardware::radio::data::DataCallFailCause::RRC_CONNECTION_CELL_RESELECTION"
    },
    {
     "enum_field_value" : 2141,
     "name" : "aidl::android::hardware::radio::data::DataCallFailCause::RRC_CONNECTION_CONFIG_FAILURE"
    },
    {
     "enum_field_value" : 2142,
     "name" : "aidl::android::hardware::radio::data::DataCallFailCause::RRC_CONNECTION_TIMER_EXPIRED"
    },
    {
     "enum_field_value" : 2143,
     "name" : "aidl::android::hardware::radio::data::DataCallFailCause::RRC_CONNECTION_LINK_FAILURE"
    },
    {
     "enum_field_value" : 2144,
     "name" : "aidl::android::hardware::radio::data::DataCallFailCause::RRC_CONNECTION_CELL_NOT_CAMPED"
    },
    {
     "enum_field_value" : 2145,
     "name" : "aidl::android::hardware::radio::data::DataCallFailCause::RRC_CONNECTION_SYSTEM_INTERVAL_FAILURE"
    },
    {
     "enum_field_value" : 2146,
     "name" : "aidl::android::hardware::radio::data::DataCallFailCause::RRC_CONNECTION_REJECT_BY_NETWORK"
    },
    {
     "enum_field_value" : 2147,
     "name" : "aidl::android::hardware::radio::data::DataCallFailCause::RRC_CONNECTION_NORMAL_RELEASE"
    },
    {
     "enum_field_value" : 2148,
     "name" : "aidl::android::hardware::radio::data::DataCallFailCause::RRC_CONNECTION_RADIO_LINK_FAILURE"
    },
    {
     "enum_field_value" : 2149,
     "name" : "aidl::android::hardware::radio::data::DataCallFailCause::RRC_CONNECTION_REESTABLISHMENT_FAILURE"
    },
    {
     "enum_field_value" : 2150,
     "name" : "aidl::android::hardware::radio::data::DataCallFailCause::RRC_CONNECTION_OUT_OF_SERVICE_DURING_CELL_REGISTER"
    },
    {
     "enum_field_value" : 2151,
     "name" : "aidl::android::hardware::radio::data::DataCallFailCause::RRC_CONNECTION_ABORT_REQUEST"
    },
    {
     "enum_field_value" : 2152,
     "name" : "aidl::android::hardware::radio::data::DataCallFailCause::RRC_CONNECTION_SYSTEM_INFORMATION_BLOCK_READ_ERROR"
    },
    {
     "enum_field_value" : 2153,
     "name" : "aidl::android::hardware::radio::data::DataCallFailCause::NETWORK_INITIATED_DETACH_WITH_AUTO_REATTACH"
    },
    {
     "enum_field_value" : 2154,
     "name" : "aidl::android::hardware::radio::data::DataCallFailCause::NETWORK_INITIATED_DETACH_NO_AUTO_REATTACH"
    },
    {
     "enum_field_value" : 2155,
     "name" : "aidl::android::hardware::radio::data::DataCallFailCause::ESM_PROCEDURE_TIME_OUT"
    },
    {
     "enum_field_value" : 2156,
     "name" : "aidl::android::hardware::radio::data::DataCallFailCause::INVALID_CONNECTION_ID"
    },
    {
     "enum_field_value" : 2157,
     "name" : "aidl::android::hardware::radio::data::DataCallFailCause::MAXIMIUM_NSAPIS_EXCEEDED"
    },
    {
     "enum_field_value" : 2158,
     "name" : "aidl::android::hardware::radio::data::DataCallFailCause::INVALID_PRIMARY_NSAPI"
    },
    {
     "enum_field_value" : 2159,
     "name" : "aidl::android::hardware::radio::data::DataCallFailCause::CANNOT_ENCODE_OTA_MESSAGE"
    },
    {
     "enum_field_value" : 2160,
     "name" : "aidl::android::hardware::radio::data::DataCallFailCause::RADIO_ACCESS_BEARER_SETUP_FAILURE"
    },
    {
     "enum_field_value" : 2161,
     "name" : "aidl::android::hardware::radio::data::DataCallFailCause::PDP_ESTABLISH_TIMEOUT_EXPIRED"
    },
    {
     "enum_field_value" : 2162,
     "name" : "aidl::android::hardware::radio::data::DataCallFailCause::PDP_MODIFY_TIMEOUT_EXPIRED"
    },
    {
     "enum_field_value" : 2163,
     "name" : "aidl::android::hardware::radio::data::DataCallFailCause::PDP_INACTIVE_TIMEOUT_EXPIRED"
    },
    {
     "enum_field_value" : 2164,
     "name" : "aidl::android::hardware::radio::data::DataCallFailCause::PDP_LOWERLAYER_ERROR"
    },
    {
     "enum_field_value" : 2165,
     "name" : "aidl::android::hardware::radio::data::DataCallFailCause::PDP_MODIFY_COLLISION"
    },
    {
     "enum_field_value" : 2166,
     "name" : "aidl::android::hardware::radio::data::DataCallFailCause::MAXINUM_SIZE_OF_L2_MESSAGE_EXCEEDED"
    },
    {
     "enum_field_value" : 2167,
     "name" : "aidl::android::hardware::radio::data::DataCallFailCause::NAS_REQUEST_REJECTED_BY_NETWORK"
    },
    {
     "enum_field_value" : 2168,
     "name" : "aidl::android::hardware::radio::data::DataCallFailCause::RRC_CONNECTION_INVALID_REQUEST"
    },
    {
     "enum_field_value" : 2169,
     "name" : "aidl::android::hardware::radio::data::DataCallFailCause::RRC_CONNECTION_TRACKING_AREA_ID_CHANGED"
    },
    {
     "enum_field_value" : 2170,
     "name" : "aidl::android::hardware::radio::data::DataCallFailCause::RRC_CONNECTION_RF_UNAVAILABLE"
    },
    {
     "enum_field_value" : 2171,
     "name" : "aidl::android::hardware::radio::data::DataCallFailCause::RRC_CONNECTION_ABORTED_DUE_TO_IRAT_CHANGE"
    },
    {
     "enum_field_value" : 2172,
     "name" : "aidl::android::hardware::radio::data::DataCallFailCause::RRC_CONNECTION_RELEASED_SECURITY_NOT_ACTIVE"
    },
    {
     "enum_field_value" : 2173,
     "name" : "aidl::android::hardware::radio::data::DataCallFailCause::RRC_CONNECTION_ABORTED_AFTER_HANDOVER"
    },
    {
     "enum_field_value" : 2174,
     "name" : "aidl::android::hardware::radio::data::DataCallFailCause::RRC_CONNECTION_ABORTED_AFTER_IRAT_CELL_CHANGE"
    },
    {
     "enum_field_value" : 2175,
     "name" : "aidl::android::hardware::radio::data::DataCallFailCause::RRC_CONNECTION_ABORTED_DURING_IRAT_CELL_CHANGE"
    },
    {
     "enum_field_value" : 2176,
     "name" : "aidl::android::hardware::radio::data::DataCallFailCause::IMSI_UNKNOWN_IN_HOME_SUBSCRIBER_SERVER"
    },
    {
     "enum_field_value" : 2177,
     "name" : "aidl::android::hardware::radio::data::DataCallFailCause::IMEI_NOT_ACCEPTED"
    },
    {
     "enum_field_value" : 2178,
     "name" : "aidl::android::hardware::radio::data::DataCallFailCause::EPS_SERVICES_AND_NON_EPS_SERVICES_NOT_ALLOWED"
    },
    {
     "enum_field_value" : 2179,
     "name" : "aidl::android::hardware::radio::data::DataCallFailCause::EPS_SERVICES_NOT_ALLOWED_IN_PLMN"
    },
    {
     "enum_field_value" : 2180,
     "name" : "aidl::android::hardware::radio::data::DataCallFailCause::MSC_TEMPORARILY_NOT_REACHABLE"
    },
    {
     "enum_field_value" : 2181,
     "name" : "aidl::android::hardware::radio::data::DataCallFailCause::CS_DOMAIN_NOT_AVAILABLE"
    },
    {
     "enum_field_value" : 2182,
     "name" : "aidl::android::hardware::radio::data::DataCallFailCause::ESM_FAILURE"
    },
    {
     "enum_field_value" : 2183,
     "name" : "aidl::android::hardware::radio::data::DataCallFailCause::MAC_FAILURE"
    },
    {
     "enum_field_value" : 2184,
     "name" : "aidl::android::hardware::radio::data::DataCallFailCause::SYNCHRONIZATION_FAILURE"
    },
    {
     "enum_field_value" : 2185,
     "name" : "aidl::android::hardware::radio::data::DataCallFailCause::UE_SECURITY_CAPABILITIES_MISMATCH"
    },
    {
     "enum_field_value" : 2186,
     "name" : "aidl::android::hardware::radio::data::DataCallFailCause::SECURITY_MODE_REJECTED"
    },
    {
     "enum_field_value" : 2187,
     "name" : "aidl::android::hardware::radio::data::DataCallFailCause::UNACCEPTABLE_NON_EPS_AUTHENTICATION"
    },
    {
     "enum_field_value" : 2188,
     "name" : "aidl::android::hardware::radio::data::DataCallFailCause::CS_FALLBACK_CALL_ESTABLISHMENT_NOT_ALLOWED"
    },
    {
     "enum_field_value" : 2189,
     "name" : "aidl::android::hardware::radio::data::DataCallFailCause::NO_EPS_BEARER_CONTEXT_ACTIVATED"
    },
    {
     "enum_field_value" : 2190,
     "name" : "aidl::android::hardware::radio::data::DataCallFailCause::INVALID_EMM_STATE"
    },
    {
     "enum_field_value" : 2191,
     "name" : "aidl::android::hardware::radio::data::DataCallFailCause::NAS_LAYER_FAILURE"
    },
    {
     "enum_field_value" : 2192,
     "name" : "aidl::android::hardware::radio::data::DataCallFailCause::MULTIPLE_PDP_CALL_NOT_ALLOWED"
    },
    {
     "enum_field_value" : 2193,
     "name" : "aidl::android::hardware::radio::data::DataCallFailCause::EMBMS_NOT_ENABLED"
    },
    {
     "enum_field_value" : 2194,
     "name" : "aidl::android::hardware::radio::data::DataCallFailCause::IRAT_HANDOVER_FAILED"
    },
    {
     "enum_field_value" : 2195,
     "name" : "aidl::android::hardware::radio::data::DataCallFailCause::EMBMS_REGULAR_DEACTIVATION"
    },
    {
     "enum_field_value" : 2196,
     "name" : "aidl::android::hardware::radio::data::DataCallFailCause::TEST_LOOPBACK_REGULAR_DEACTIVATION"
    },
    {
     "enum_field_value" : 2197,
     "name" : "aidl::android::hardware::radio::data::DataCallFailCause::LOWER_LAYER_REGISTRATION_FAILURE"
    },
    {
     "enum_field_value" : 2198,
     "name" : "aidl::android::hardware::radio::data::DataCallFailCause::DATA_PLAN_EXPIRED"
    },
    {
     "enum_field_value" : 2199,
     "name" : "aidl::android::hardware::radio::data::DataCallFailCause::UMTS_HANDOVER_TO_IWLAN"
    },
    {
     "enum_field_value" : 2200,
     "name" : "aidl::android::hardware::radio::data::DataCallFailCause::EVDO_CONNECTION_DENY_BY_GENERAL_OR_NETWORK_BUSY"
    },
    {
     "enum_field_value" : 2201,
     "name" : "aidl::android::hardware::radio::data::DataCallFailCause::EVDO_CONNECTION_DENY_BY_BILLING_OR_AUTHENTICATION_FAILURE"
    },
    {
     "enum_field_value" : 2202,
     "name" : "aidl::android::hardware::radio::data::DataCallFailCause::EVDO_HDR_CHANGED"
    },
    {
     "enum_field_value" : 2203,
     "name" : "aidl::android::hardware::radio::data::DataCallFailCause::EVDO_HDR_EXITED"
    },
    {
     "enum_field_value" : 2204,
     "name" : "aidl::android::hardware::radio::data::DataCallFailCause::EVDO_HDR_NO_SESSION"
    },
    {
     "enum_field_value" : 2205,
     "name" : "aidl::android::hardware::radio::data::DataCallFailCause::EVDO_USING_GPS_FIX_INSTEAD_OF_HDR_CALL"
    },
    {
     "enum_field_value" : 2206,
     "name" : "aidl::android::hardware::radio::data::DataCallFailCause::EVDO_HDR_CONNECTION_SETUP_TIMEOUT"
    },
    {
     "enum_field_value" : 2207,
     "name" : "aidl::android::hardware::radio::data::DataCallFailCause::FAILED_TO_ACQUIRE_COLOCATED_HDR"
    },
    {
     "enum_field_value" : 2208,
     "name" : "aidl::android::hardware::radio::data::DataCallFailCause::OTASP_COMMIT_IN_PROGRESS"
    },
    {
     "enum_field_value" : 2209,
     "name" : "aidl::android::hardware::radio::data::DataCallFailCause::NO_HYBRID_HDR_SERVICE"
    },
    {
     "enum_field_value" : 2210,
     "name" : "aidl::android::hardware::radio::data::DataCallFailCause::HDR_NO_LOCK_GRANTED"
    },
    {
     "enum_field_value" : 2211,
     "name" : "aidl::android::hardware::radio::data::DataCallFailCause::DBM_OR_SMS_IN_PROGRESS"
    },
    {
     "enum_field_value" : 2212,
     "name" : "aidl::android::hardware::radio::data::DataCallFailCause::HDR_FADE"
    },
    {
     "enum_field_value" : 2213,
     "name" : "aidl::android::hardware::radio::data::DataCallFailCause::HDR_ACCESS_FAILURE"
    },
    {
     "enum_field_value" : 2214,
     "name" : "aidl::android::hardware::radio::data::DataCallFailCause::UNSUPPORTED_1X_PREV"
    },
    {
     "enum_field_value" : 2215,
     "name" : "aidl::android::hardware::radio::data::DataCallFailCause::LOCAL_END"
    },
    {
     "enum_field_value" : 2216,
     "name" : "aidl::android::hardware::radio::data::DataCallFailCause::NO_SERVICE"
    },
    {
     "enum_field_value" : 2217,
     "name" : "aidl::android::hardware::radio::data::DataCallFailCause::FADE"
    },
    {
     "enum_field_value" : 2218,
     "name" : "aidl::android::hardware::radio::data::DataCallFailCause::NORMAL_RELEASE"
    },
    {
     "enum_field_value" : 2219,
     "name" : "aidl::android::hardware::radio::data::DataCallFailCause::ACCESS_ATTEMPT_ALREADY_IN_PROGRESS"
    },
    {
     "enum_field_value" : 2220,
     "name" : "aidl::android::hardware::radio::data::DataCallFailCause::REDIRECTION_OR_HANDOFF_IN_PROGRESS"
    },
    {
     "enum_field_value" : 2221,
     "name" : "aidl::android::hardware::radio::data::DataCallFailCause::EMERGENCY_MODE"
    },
    {
     "enum_field_value" : 2222,
     "name" : "aidl::android::hardware::radio::data::DataCallFailCause::PHONE_IN_USE"
    },
    {
     "enum_field_value" : 2223,
     "name" : "aidl::android::hardware::radio::data::DataCallFailCause::INVALID_MODE"
    },
    {
     "enum_field_value" : 2224,
     "name" : "aidl::android::hardware::radio::data::DataCallFailCause::INVALID_SIM_STATE"
    },
    {
     "enum_field_value" : 2225,
     "name" : "aidl::android::hardware::radio::data::DataCallFailCause::NO_COLLOCATED_HDR"
    },
    {
     "enum_field_value" : 2226,
     "name" : "aidl::android::hardware::radio::data::DataCallFailCause::UE_IS_ENTERING_POWERSAVE_MODE"
    },
    {
     "enum_field_value" : 2227,
     "name" : "aidl::android::hardware::radio::data::DataCallFailCause::DUAL_SWITCH"
    },
    {
     "enum_field_value" : 2228,
     "name" : "aidl::android::hardware::radio::data::DataCallFailCause::PPP_TIMEOUT"
    },
    {
     "enum_field_value" : 2229,
     "name" : "aidl::android::hardware::radio::data::DataCallFailCause::PPP_AUTH_FAILURE"
    },
    {
     "enum_field_value" : 2230,
     "name" : "aidl::android::hardware::radio::data::DataCallFailCause::PPP_OPTION_MISMATCH"
    },
    {
     "enum_field_value" : 2231,
     "name" : "aidl::android::hardware::radio::data::DataCallFailCause::PPP_PAP_FAILURE"
    },
    {
     "enum_field_value" : 2232,
     "name" : "aidl::android::hardware::radio::data::DataCallFailCause::PPP_CHAP_FAILURE"
    },
    {
     "enum_field_value" : 2233,
     "name" : "aidl::android::hardware::radio::data::DataCallFailCause::PPP_CLOSE_IN_PROGRESS"
    },
    {
     "enum_field_value" : 2234,
     "name" : "aidl::android::hardware::radio::data::DataCallFailCause::LIMITED_TO_IPV4"
    },
    {
     "enum_field_value" : 2235,
     "name" : "aidl::android::hardware::radio::data::DataCallFailCause::LIMITED_TO_IPV6"
    },
    {
     "enum_field_value" : 2236,
     "name" : "aidl::android::hardware::radio::data::DataCallFailCause::VSNCP_TIMEOUT"
    },
    {
     "enum_field_value" : 2237,
     "name" : "aidl::android::hardware::radio::data::DataCallFailCause::VSNCP_GEN_ERROR"
    },
    {
     "enum_field_value" : 2238,
     "name" : "aidl::android::hardware::radio::data::DataCallFailCause::VSNCP_APN_UNAUTHORIZED"
    },
    {
     "enum_field_value" : 2239,
     "name" : "aidl::android::hardware::radio::data::DataCallFailCause::VSNCP_PDN_LIMIT_EXCEEDED"
    },
    {
     "enum_field_value" : 2240,
     "name" : "aidl::android::hardware::radio::data::DataCallFailCause::VSNCP_NO_PDN_GATEWAY_ADDRESS"
    },
    {
     "enum_field_value" : 2241,
     "name" : "aidl::android::hardware::radio::data::DataCallFailCause::VSNCP_PDN_GATEWAY_UNREACHABLE"
    },
    {
     "enum_field_value" : 2242,
     "name" : "aidl::android::hardware::radio::data::DataCallFailCause::VSNCP_PDN_GATEWAY_REJECT"
    },
    {
     "enum_field_value" : 2243,
     "name" : "aidl::android::hardware::radio::data::DataCallFailCause::VSNCP_INSUFFICIENT_PARAMETERS"
    },
    {
     "enum_field_value" : 2244,
     "name" : "aidl::android::hardware::radio::data::DataCallFailCause::VSNCP_RESOURCE_UNAVAILABLE"
    },
    {
     "enum_field_value" : 2245,
     "name" : "aidl::android::hardware::radio::data::DataCallFailCause::VSNCP_ADMINISTRATIVELY_PROHIBITED"
    },
    {
     "enum_field_value" : 2246,
     "name" : "aidl::android::hardware::radio::data::DataCallFailCause::VSNCP_PDN_ID_IN_USE"
    },
    {
     "enum_field_value" : 2247,
     "name" : "aidl::android::hardware::radio::data::DataCallFailCause::VSNCP_SUBSCRIBER_LIMITATION"
    },
    {
     "enum_field_value" : 2248,
     "name" : "aidl::android::hardware::radio::data::DataCallFailCause::VSNCP_PDN_EXISTS_FOR_THIS_APN"
    },
    {
     "enum_field_value" : 2249,
     "name" : "aidl::android::hardware::radio::data::DataCallFailCause::VSNCP_RECONNECT_NOT_ALLOWED"
    },
    {
     "enum_field_value" : 2250,
     "name" : "aidl::android::hardware::radio::data::DataCallFailCause::IPV6_PREFIX_UNAVAILABLE"
    },
    {
     "enum_field_value" : 2251,
     "name" : "aidl::android::hardware::radio::data::DataCallFailCause::HANDOFF_PREFERENCE_CHANGED"
    },
    {
     "enum_field_value" : 2252,
     "name" : "aidl::android::hardware::radio::data::DataCallFailCause::SLICE_REJECTED"
    },
    {
     "enum_field_value" : 2253,
     "name" : "aidl::android::hardware::radio::data::DataCallFailCause::MATCH_ALL_RULE_NOT_ALLOWED"
    },
    {
     "enum_field_value" : 2254,
     "name" : "aidl::android::hardware::radio::data::DataCallFailCause::ALL_MATCHING_RULES_FAILED"
    }
   ],
   "linker_set_key" : "_ZTIN4aidl7android8hardware5radio4data17DataCallFailCauseE",
   "name" : "aidl::android::hardware::radio::data::DataCallFailCause",
   "referenced_type" : "_ZTIN4aidl7android8hardware5radio4data17DataCallFailCauseE",
   "self_type" : "_ZTIN4aidl7android8hardware5radio4data17DataCallFailCauseE",
   "size" : 4,
   "source_file" : "out/soong/.intermediates/hardware/interfaces/radio/aidl/android.hardware.radio.data-V1-ndk-source/gen/include/aidl/android/hardware/radio/data/DataCallFailCause.h",
   "underlying_type" : "_ZTIi"
  },
  {
   "alignment" : 4,
   "enum_fields" :
   [
    {
     "enum_field_value" : 1,
     "name" : "aidl::android::hardware::radio::data::DataRequestReason::NORMAL"
    },
    {
     "enum_field_value" : 2,
     "name" : "aidl::android::hardware::radio::data::DataRequestReason::SHUTDOWN"
    },
    {
     "enum_field_value" : 3,
     "name" : "aidl::android::hardware::radio::data::DataRequestReason::HANDOVER"
    }
   ],
   "linker_set_key" : "_ZTIN4aidl7android8hardware5radio4data17DataRequestReasonE",
   "name" : "aidl::android::hardware::radio::data::DataRequestReason",
   "referenced_type" : "_ZTIN4aidl7android8hardware5radio4data17DataRequestReasonE",
   "self_type" : "_ZTIN4aidl7android8hardware5radio4data17DataRequestReasonE",
   "size" : 4,
   "source_file" : "out/soong/.intermediates/hardware/interfaces/radio/aidl/android.hardware.radio.data-V1-ndk-source/gen/include/aidl/android/hardware/radio/data/DataRequestReason.h",
   "underlying_type" : "_ZTIi"
  },
  {
   "alignment" : 4,
   "enum_fields" :
   [
    {
     "enum_field_value" : 0,
     "name" : "aidl::android::hardware::radio::data::QosFilterIpsecSpi::Tag::noinit"
    },
    {
     "enum_field_value" : 1,
     "name" : "aidl::android::hardware::radio::data::QosFilterIpsecSpi::Tag::value"
    }
   ],
   "linker_set_key" : "_ZTIN4aidl7android8hardware5radio4data17QosFilterIpsecSpi3TagE",
   "name" : "aidl::android::hardware::radio::data::QosFilterIpsecSpi::Tag",
   "referenced_type" : "_ZTIN4aidl7android8hardware5radio4data17QosFilterIpsecSpi3TagE",
   "self_type" : "_ZTIN4aidl7android8hardware5radio4data17QosFilterIpsecSpi3TagE",
   "size" : 4,
   "source_file" : "out/soong/.intermediates/hardware/interfaces/radio/aidl/android.hardware.radio.data-V1-ndk-source/gen/include/aidl/android/hardware/radio/data/QosFilterIpsecSpi.h",
   "underlying_type" : "_ZTIi"
  },
  {
   "alignment" : 1,
   "enum_fields" :
   [
    {
     "enum_field_value" : 0,
     "name" : "aidl::android::hardware::radio::data::SetupDataCallResult::HANDOVER_FAILURE_MODE_LEGACY"
    }
   ],
   "linker_set_key" : "_ZTIN4aidl7android8hardware5radio4data19SetupDataCallResult29$HANDOVER_FAILURE_MODE_LEGACYE",
   "name" : "aidl::android::hardware::radio::data::SetupDataCallResult::(unnamed enum at out/soong/.intermediates/hardware/interfaces/radio/aidl/android.hardware.radio.data-V1-ndk-source/gen/include/aidl/android/hardware/radio/data/SetupDataCallResult.h:77:3)",
   "referenced_type" : "_ZTIN4aidl7android8hardware5radio4data19SetupDataCallResult29$HANDOVER_FAILURE_MODE_LEGACYE",
   "self_type" : "_ZTIN4aidl7android8hardware5radio4data19SetupDataCallResult29$HANDOVER_FAILURE_MODE_LEGACYE",
   "size" : 1,
   "source_file" : "out/soong/.intermediates/hardware/interfaces/radio/aidl/android.hardware.radio.data-V1-ndk-source/gen/include/aidl/android/hardware/radio/data/SetupDataCallResult.h",
   "underlying_type" : "_ZTIa"
  },
  {
   "alignment" : 4,
   "enum_fields" :
   [
    {
     "enum_field_value" : 2,
     "name" : "aidl::android::hardware::radio::data::SetupDataCallResult::DATA_CONNECTION_STATUS_ACTIVE"
    }
   ],
   "linker_set_key" : "_ZTIN4aidl7android8hardware5radio4data19SetupDataCallResult30$DATA_CONNECTION_STATUS_ACTIVEE",
   "name" : "aidl::android::hardware::radio::data::SetupDataCallResult::(unnamed enum at out/soong/.intermediates/hardware/interfaces/radio/aidl/android.hardware.radio.data-V1-ndk-source/gen/include/aidl/android/hardware/radio/data/SetupDataCallResult.h:76:3)",
   "referenced_type" : "_ZTIN4aidl7android8hardware5radio4data19SetupDataCallResult30$DATA_CONNECTION_STATUS_ACTIVEE",
   "self_type" : "_ZTIN4aidl7android8hardware5radio4data19SetupDataCallResult30$DATA_CONNECTION_STATUS_ACTIVEE",
   "size" : 4,
   "source_file" : "out/soong/.intermediates/hardware/interfaces/radio/aidl/android.hardware.radio.data-V1-ndk-source/gen/include/aidl/android/hardware/radio/data/SetupDataCallResult.h",
   "underlying_type" : "_ZTIi"
  },
  {
   "alignment" : 4,
   "enum_fields" :
   [
    {
     "enum_field_value" : 1,
     "name" : "aidl::android::hardware::radio::data::SetupDataCallResult::DATA_CONNECTION_STATUS_DORMANT"
    }
   ],
   "linker_set_key" : "_ZTIN4aidl7android8hardware5radio4data19SetupDataCallResult31$DATA_CONNECTION_STATUS_DORMANTE",
   "name" : "aidl::android::hardware::radio::data::SetupDataCallResult::(unnamed enum at out/soong/.intermediates/hardware/interfaces/radio/aidl/android.hardware.radio.data-V1-ndk-source/gen/include/aidl/android/hardware/radio/data/SetupDataCallResult.h:75:3)",
   "referenced_type" : "_ZTIN4aidl7android8hardware5radio4data19SetupDataCallResult31$DATA_CONNECTION_STATUS_DORMANTE",
   "self_type" : "_ZTIN4aidl7android8hardware5radio4data19SetupDataCallResult31$DATA_CONNECTION_STATUS_DORMANTE",
   "size" : 4,
   "source_file" : "out/soong/.intermediates/hardware/interfaces/radio/aidl/android.hardware.radio.data-V1-ndk-source/gen/include/aidl/android/hardware/radio/data/SetupDataCallResult.h",
   "underlying_type" : "_ZTIi"
  },
  {
   "alignment" : 4,
   "enum_fields" :
   [
    {
     "enum_field_value" : 0,
     "name" : "aidl::android::hardware::radio::data::SetupDataCallResult::DATA_CONNECTION_STATUS_INACTIVE"
    }
   ],
   "linker_set_key" : "_ZTIN4aidl7android8hardware5radio4data19SetupDataCallResult32$DATA_CONNECTION_STATUS_INACTIVEE",
   "name" : "aidl::android::hardware::radio::data::SetupDataCallResult::(unnamed enum at out/soong/.intermediates/hardware/interfaces/radio/aidl/android.hardware.radio.data-V1-ndk-source/gen/include/aidl/android/hardware/radio/data/SetupDataCallResult.h:74:3)",
   "referenced_type" : "_ZTIN4aidl7android8hardware5radio4data19SetupDataCallResult32$DATA_CONNECTION_STATUS_INACTIVEE",
   "self_type" : "_ZTIN4aidl7android8hardware5radio4data19SetupDataCallResult32$DATA_CONNECTION_STATUS_INACTIVEE",
   "size" : 4,
   "source_file" : "out/soong/.intermediates/hardware/interfaces/radio/aidl/android.hardware.radio.data-V1-ndk-source/gen/include/aidl/android/hardware/radio/data/SetupDataCallResult.h",
   "underlying_type" : "_ZTIi"
  },
  {
   "alignment" : 1,
   "enum_fields" :
   [
    {
     "enum_field_value" : 1,
     "name" : "aidl::android::hardware::radio::data::SetupDataCallResult::HANDOVER_FAILURE_MODE_DO_FALLBACK"
    }
   ],
   "linker_set_key" : "_ZTIN4aidl7android8hardware5radio4data19SetupDataCallResult34$HANDOVER_FAILURE_MODE_DO_FALLBACKE",
   "name" : "aidl::android::hardware::radio::data::SetupDataCallResult::(unnamed enum at out/soong/.intermediates/hardware/interfaces/radio/aidl/android.hardware.radio.data-V1-ndk-source/gen/include/aidl/android/hardware/radio/data/SetupDataCallResult.h:78:3)",
   "referenced_type" : "_ZTIN4aidl7android8hardware5radio4data19SetupDataCallResult34$HANDOVER_FAILURE_MODE_DO_FALLBACKE",
   "self_type" : "_ZTIN4aidl7android8hardware5radio4data19SetupDataCallResult34$HANDOVER_FAILURE_MODE_DO_FALLBACKE",
   "size" : 1,
   "source_file" : "out/soong/.intermediates/hardware/interfaces/radio/aidl/android.hardware.radio.data-V1-ndk-source/gen/include/aidl/android/hardware/radio/data/SetupDataCallResult.h",
   "underlying_type" : "_ZTIa"
  },
  {
   "alignment" : 1,
   "enum_fields" :
   [
    {
     "enum_field_value" : 2,
     "name" : "aidl::android::hardware::radio::data::SetupDataCallResult::HANDOVER_FAILURE_MODE_NO_FALLBACK_RETRY_HANDOVER"
    }
   ],
   "linker_set_key" : "_ZTIN4aidl7android8hardware5radio4data19SetupDataCallResult49$HANDOVER_FAILURE_MODE_NO_FALLBACK_RETRY_HANDOVERE",
   "name" : "aidl::android::hardware::radio::data::SetupDataCallResult::(unnamed enum at out/soong/.intermediates/hardware/interfaces/radio/aidl/android.hardware.radio.data-V1-ndk-source/gen/include/aidl/android/hardware/radio/data/SetupDataCallResult.h:79:3)",
   "referenced_type" : "_ZTIN4aidl7android8hardware5radio4data19SetupDataCallResult49$HANDOVER_FAILURE_MODE_NO_FALLBACK_RETRY_HANDOVERE",
   "self_type" : "_ZTIN4aidl7android8hardware5radio4data19SetupDataCallResult49$HANDOVER_FAILURE_MODE_NO_FALLBACK_RETRY_HANDOVERE",
   "size" : 1,
   "source_file" : "out/soong/.intermediates/hardware/interfaces/radio/aidl/android.hardware.radio.data-V1-ndk-source/gen/include/aidl/android/hardware/radio/data/SetupDataCallResult.h",
   "underlying_type" : "_ZTIa"
  },
  {
   "alignment" : 1,
   "enum_fields" :
   [
    {
     "enum_field_value" : 3,
     "name" : "aidl::android::hardware::radio::data::SetupDataCallResult::HANDOVER_FAILURE_MODE_NO_FALLBACK_RETRY_SETUP_NORMAL"
    }
   ],
   "linker_set_key" : "_ZTIN4aidl7android8hardware5radio4data19SetupDataCallResult53$HANDOVER_FAILURE_MODE_NO_FALLBACK_RETRY_SETUP_NORMALE",
   "name" : "aidl::android::hardware::radio::data::SetupDataCallResult::(unnamed enum at out/soong/.intermediates/hardware/interfaces/radio/aidl/android.hardware.radio.data-V1-ndk-source/gen/include/aidl/android/hardware/radio/data/SetupDataCallResult.h:80:3)",
   "referenced_type" : "_ZTIN4aidl7android8hardware5radio4data19SetupDataCallResult53$HANDOVER_FAILURE_MODE_NO_FALLBACK_RETRY_SETUP_NORMALE",
   "self_type" : "_ZTIN4aidl7android8hardware5radio4data19SetupDataCallResult53$HANDOVER_FAILURE_MODE_NO_FALLBACK_RETRY_SETUP_NORMALE",
   "size" : 1,
   "source_file" : "out/soong/.intermediates/hardware/interfaces/radio/aidl/android.hardware.radio.data-V1-ndk-source/gen/include/aidl/android/hardware/radio/data/SetupDataCallResult.h",
   "underlying_type" : "_ZTIa"
  },
  {
   "alignment" : 1,
   "enum_fields" :
   [
    {
     "enum_field_value" : 0,
     "name" : "aidl::android::hardware::radio::data::DataThrottlingAction::NO_DATA_THROTTLING"
    },
    {
     "enum_field_value" : 1,
     "name" : "aidl::android::hardware::radio::data::DataThrottlingAction::THROTTLE_SECONDARY_CARRIER"
    },
    {
     "enum_field_value" : 2,
     "name" : "aidl::android::hardware::radio::data::DataThrottlingAction::THROTTLE_ANCHOR_CARRIER"
    },
    {
     "enum_field_value" : 3,
     "name" : "aidl::android::hardware::radio::data::DataThrottlingAction::HOLD"
    }
   ],
   "linker_set_key" : "_ZTIN4aidl7android8hardware5radio4data20DataThrottlingActionE",
   "name" : "aidl::android::hardware::radio::data::DataThrottlingAction",
   "referenced_type" : "_ZTIN4aidl7android8hardware5radio4data20DataThrottlingActionE",
   "self_type" : "_ZTIN4aidl7android8hardware5radio4data20DataThrottlingActionE",
   "size" : 1,
   "source_file" : "out/soong/.intermediates/hardware/interfaces/radio/aidl/android.hardware.radio.data-V1-ndk-source/gen/include/aidl/android/hardware/radio/data/DataThrottlingAction.h",
   "underlying_type" : "_ZTIa"
  },
  {
   "alignment" : 4,
   "enum_fields" :
   [
    {
     "enum_field_value" : 0,
     "name" : "aidl::android::hardware::radio::data::QosFilterIpv6FlowLabel::Tag::noinit"
    },
    {
     "enum_field_value" : 1,
     "name" : "aidl::android::hardware::radio::data::QosFilterIpv6FlowLabel::Tag::value"
    }
   ],
   "linker_set_key" : "_ZTIN4aidl7android8hardware5radio4data22QosFilterIpv6FlowLabel3TagE",
   "name" : "aidl::android::hardware::radio::data::QosFilterIpv6FlowLabel::Tag",
   "referenced_type" : "_ZTIN4aidl7android8hardware5radio4data22QosFilterIpv6FlowLabel3TagE",
   "self_type" : "_ZTIN4aidl7android8hardware5radio4data22QosFilterIpv6FlowLabel3TagE",
   "size" : 4,
   "source_file" : "out/soong/.intermediates/hardware/interfaces/radio/aidl/android.hardware.radio.data-V1-ndk-source/gen/include/aidl/android/hardware/radio/data/QosFilterIpv6FlowLabel.h",
   "underlying_type" : "_ZTIi"
  },
  {
   "alignment" : 4,
   "enum_fields" :
   [
    {
     "enum_field_value" : 0,
     "name" : "aidl::android::hardware::radio::data::QosFilterTypeOfService::Tag::noinit"
    },
    {
     "enum_field_value" : 1,
     "name" : "aidl::android::hardware::radio::data::QosFilterTypeOfService::Tag::value"
    }
   ],
   "linker_set_key" : "_ZTIN4aidl7android8hardware5radio4data22QosFilterTypeOfService3TagE",
   "name" : "aidl::android::hardware::radio::data::QosFilterTypeOfService::Tag",
   "referenced_type" : "_ZTIN4aidl7android8hardware5radio4data22QosFilterTypeOfService3TagE",
   "self_type" : "_ZTIN4aidl7android8hardware5radio4data22QosFilterTypeOfService3TagE",
   "size" : 4,
   "source_file" : "out/soong/.intermediates/hardware/interfaces/radio/aidl/android.hardware.radio.data-V1-ndk-source/gen/include/aidl/android/hardware/radio/data/QosFilterTypeOfService.h",
   "underlying_type" : "_ZTIi"
  },
  {
   "alignment" : 1,
   "enum_fields" :
   [
    {
     "enum_field_value" : 1,
     "name" : "aidl::android::hardware::radio::data::RouteSelectionDescriptor::SSC_MODE_1"
    }
   ],
   "linker_set_key" : "_ZTIN4aidl7android8hardware5radio4data24RouteSelectionDescriptor11$SSC_MODE_1E",
   "name" : "aidl::android::hardware::radio::data::RouteSelectionDescriptor::(unnamed enum at out/soong/.intermediates/hardware/interfaces/radio/aidl/android.hardware.radio.data-V1-ndk-source/gen/include/aidl/android/hardware/radio/data/RouteSelectionDescriptor.h:57:3)",
   "referenced_type" : "_ZTIN4aidl7android8hardware5radio4data24RouteSelectionDescriptor11$SSC_MODE_1E",
   "self_type" : "_ZTIN4aidl7android8hardware5radio4data24RouteSelectionDescriptor11$SSC_MODE_1E",
   "size" : 1,
   "source_file" : "out/soong/.intermediates/hardware/interfaces/radio/aidl/android.hardware.radio.data-V1-ndk-source/gen/include/aidl/android/hardware/radio/data/RouteSelectionDescriptor.h",
   "underlying_type" : "_ZTIa"
  },
  {
   "alignment" : 1,
   "enum_fields" :
   [
    {
     "enum_field_value" : 2,
     "name" : "aidl::android::hardware::radio::data::RouteSelectionDescriptor::SSC_MODE_2"
    }
   ],
   "linker_set_key" : "_ZTIN4aidl7android8hardware5radio4data24RouteSelectionDescriptor11$SSC_MODE_2E",
   "name" : "aidl::android::hardware::radio::data::RouteSelectionDescriptor::(unnamed enum at out/soong/.intermediates/hardware/interfaces/radio/aidl/android.hardware.radio.data-V1-ndk-source/gen/include/aidl/android/hardware/radio/data/RouteSelectionDescriptor.h:58:3)",
   "referenced_type" : "_ZTIN4aidl7android8hardware5radio4data24RouteSelectionDescriptor11$SSC_MODE_2E",
   "self_type" : "_ZTIN4aidl7android8hardware5radio4data24RouteSelectionDescriptor11$SSC_MODE_2E",
   "size" : 1,
   "source_file" : "out/soong/.intermediates/hardware/interfaces/radio/aidl/android.hardware.radio.data-V1-ndk-source/gen/include/aidl/android/hardware/radio/data/RouteSelectionDescriptor.h",
   "underlying_type" : "_ZTIa"
  },
  {
   "alignment" : 1,
   "enum_fields" :
   [
    {
     "enum_field_value" : 3,
     "name" : "aidl::android::hardware::radio::data::RouteSelectionDescriptor::SSC_MODE_3"
    }
   ],
   "linker_set_key" : "_ZTIN4aidl7android8hardware5radio4data24RouteSelectionDescriptor11$SSC_MODE_3E",
   "name" : "aidl::android::hardware::radio::data::RouteSelectionDescriptor::(unnamed enum at out/soong/.intermediates/hardware/interfaces/radio/aidl/android.hardware.radio.data-V1-ndk-source/gen/include/aidl/android/hardware/radio/data/RouteSelectionDescriptor.h:59:3)",
   "referenced_type" : "_ZTIN4aidl7android8hardware5radio4data24RouteSelectionDescriptor11$SSC_MODE_3E",
   "self_type" : "_ZTIN4aidl7android8hardware5radio4data24RouteSelectionDescriptor11$SSC_MODE_3E",
   "size" : 1,
   "source_file" : "out/soong/.intermediates/hardware/interfaces/radio/aidl/android.hardware.radio.data-V1-ndk-source/gen/include/aidl/android/hardware/radio/data/RouteSelectionDescriptor.h",
   "underlying_type" : "_ZTIa"
  },
  {
   "alignment" : 1,
   "enum_fields" :
   [
    {
     "enum_field_value" : -1,
     "name" : "aidl::android::hardware::radio::data::RouteSelectionDescriptor::SSC_MODE_UNKNOWN"
    }
   ],
   "linker_set_key" : "_ZTIN4aidl7android8hardware5radio4data24RouteSelectionDescriptor17$SSC_MODE_UNKNOWNE",
   "name" : "aidl::android::hardware::radio::data::RouteSelectionDescriptor::(unnamed enum at out/soong/.intermediates/hardware/interfaces/radio/aidl/android.hardware.radio.data-V1-ndk-source/gen/include/aidl/android/hardware/radio/data/RouteSelectionDescriptor.h:56:3)",
   "referenced_type" : "_ZTIN4aidl7android8hardware5radio4data24RouteSelectionDescriptor17$SSC_MODE_UNKNOWNE",
   "self_type" : "_ZTIN4aidl7android8hardware5radio4data24RouteSelectionDescriptor17$SSC_MODE_UNKNOWNE",
   "size" : 1,
   "source_file" : "out/soong/.intermediates/hardware/interfaces/radio/aidl/android.hardware.radio.data-V1-ndk-source/gen/include/aidl/android/hardware/radio/data/RouteSelectionDescriptor.h",
   "underlying_type" : "_ZTIa"
  },
  {
   "alignment" : 4,
   "enum_fields" :
   [
    {
     "enum_field_value" : 0,
     "name" : "aidl::android::hardware::radio::data::Qos::Tag::noinit"
    },
    {
     "enum_field_value" : 1,
     "name" : "aidl::android::hardware::radio::data::Qos::Tag::eps"
    },
    {
     "enum_field_value" : 2,
     "name" : "aidl::android::hardware::radio::data::Qos::Tag::nr"
    }
   ],
   "linker_set_key" : "_ZTIN4aidl7android8hardware5radio4data3Qos3TagE",
   "name" : "aidl::android::hardware::radio::data::Qos::Tag",
   "referenced_type" : "_ZTIN4aidl7android8hardware5radio4data3Qos3TagE",
   "self_type" : "_ZTIN4aidl7android8hardware5radio4data3Qos3TagE",
   "size" : 4,
   "source_file" : "out/soong/.intermediates/hardware/interfaces/radio/aidl/android.hardware.radio.data-V1-ndk-source/gen/include/aidl/android/hardware/radio/data/Qos.h",
   "underlying_type" : "_ZTIi"
  },
  {
   "alignment" : 1,
   "enum_fields" :
   [
    {
     "enum_field_value" : 63,
     "name" : "aidl::android::hardware::radio::data::NrQos::FLOW_ID_RANGE_MAX"
    }
   ],
   "linker_set_key" : "_ZTIN4aidl7android8hardware5radio4data5NrQos18$FLOW_ID_RANGE_MAXE",
   "name" : "aidl::android::hardware::radio::data::NrQos::(unnamed enum at out/soong/.intermediates/hardware/interfaces/radio/aidl/android.hardware.radio.data-V1-ndk-source/gen/include/aidl/android/hardware/radio/data/NrQos.h:56:3)",
   "referenced_type" : "_ZTIN4aidl7android8hardware5radio4data5NrQos18$FLOW_ID_RANGE_MAXE",
   "self_type" : "_ZTIN4aidl7android8hardware5radio4data5NrQos18$FLOW_ID_RANGE_MAXE",
   "size" : 1,
   "source_file" : "out/soong/.intermediates/hardware/interfaces/radio/aidl/android.hardware.radio.data-V1-ndk-source/gen/include/aidl/android/hardware/radio/data/NrQos.h",
   "underlying_type" : "_ZTIa"
  },
  {
   "alignment" : 1,
   "enum_fields" :
   [
    {
     "enum_field_value" : 1,
     "name" : "aidl::android::hardware::radio::data::NrQos::FLOW_ID_RANGE_MIN"
    }
   ],
   "linker_set_key" : "_ZTIN4aidl7android8hardware5radio4data5NrQos18$FLOW_ID_RANGE_MINE",
   "name" : "aidl::android::hardware::radio::data::NrQos::(unnamed enum at out/soong/.intermediates/hardware/interfaces/radio/aidl/android.hardware.radio.data-V1-ndk-source/gen/include/aidl/android/hardware/radio/data/NrQos.h:55:3)",
   "referenced_type" : "_ZTIN4aidl7android8hardware5radio4data5NrQos18$FLOW_ID_RANGE_MINE",
   "self_type" : "_ZTIN4aidl7android8hardware5radio4data5NrQos18$FLOW_ID_RANGE_MINE",
   "size" : 1,
   "source_file" : "out/soong/.intermediates/hardware/interfaces/radio/aidl/android.hardware.radio.data-V1-ndk-source/gen/include/aidl/android/hardware/radio/data/NrQos.h",
   "underlying_type" : "_ZTIa"
  },
  {
   "alignment" : 4,
   "enum_fields" :
   [
    {
     "enum_field_value" : 65535,
     "name" : "aidl::android::hardware::radio::data::PortRange::PORT_RANGE_MAX"
    }
   ],
   "linker_set_key" : "_ZTIN4aidl7android8hardware5radio4data9PortRange15$PORT_RANGE_MAXE",
   "name" : "aidl::android::hardware::radio::data::PortRange::(unnamed enum at out/soong/.intermediates/hardware/interfaces/radio/aidl/android.hardware.radio.data-V1-ndk-source/gen/include/aidl/android/hardware/radio/data/PortRange.h:52:3)",
   "referenced_type" : "_ZTIN4aidl7android8hardware5radio4data9PortRange15$PORT_RANGE_MAXE",
   "self_type" : "_ZTIN4aidl7android8hardware5radio4data9PortRange15$PORT_RANGE_MAXE",
   "size" : 4,
   "source_file" : "out/soong/.intermediates/hardware/interfaces/radio/aidl/android.hardware.radio.data-V1-ndk-source/gen/include/aidl/android/hardware/radio/data/PortRange.h",
   "underlying_type" : "_ZTIi"
  },
  {
   "alignment" : 4,
   "enum_fields" :
   [
    {
     "enum_field_value" : 20,
     "name" : "aidl::android::hardware::radio::data::PortRange::PORT_RANGE_MIN"
    }
   ],
   "linker_set_key" : "_ZTIN4aidl7android8hardware5radio4data9PortRange15$PORT_RANGE_MINE",
   "name" : "aidl::android::hardware::radio::data::PortRange::(unnamed enum at out/soong/.intermediates/hardware/interfaces/radio/aidl/android.hardware.radio.data-V1-ndk-source/gen/include/aidl/android/hardware/radio/data/PortRange.h:51:3)",
   "referenced_type" : "_ZTIN4aidl7android8hardware5radio4data9PortRange15$PORT_RANGE_MINE",
   "self_type" : "_ZTIN4aidl7android8hardware5radio4data9PortRange15$PORT_RANGE_MINE",
   "size" : 4,
   "source_file" : "out/soong/.intermediates/hardware/interfaces/radio/aidl/android.hardware.radio.data-V1-ndk-source/gen/include/aidl/android/hardware/radio/data/PortRange.h",
   "underlying_type" : "_ZTIi"
  },
  {
   "alignment" : 1,
   "enum_fields" :
   [
    {
     "enum_field_value" : 51,
     "name" : "aidl::android::hardware::radio::data::QosFilter::PROTOCOL_AH"
    }
   ],
   "linker_set_key" : "_ZTIN4aidl7android8hardware5radio4data9QosFilter12$PROTOCOL_AHE",
   "name" : "aidl::android::hardware::radio::data::QosFilter::(unnamed enum at out/soong/.intermediates/hardware/interfaces/radio/aidl/android.hardware.radio.data-V1-ndk-source/gen/include/aidl/android/hardware/radio/data/QosFilter.h:70:3)",
   "referenced_type" : "_ZTIN4aidl7android8hardware5radio4data9QosFilter12$PROTOCOL_AHE",
   "self_type" : "_ZTIN4aidl7android8hardware5radio4data9QosFilter12$PROTOCOL_AHE",
   "size" : 1,
   "source_file" : "out/soong/.intermediates/hardware/interfaces/radio/aidl/android.hardware.radio.data-V1-ndk-source/gen/include/aidl/android/hardware/radio/data/QosFilter.h",
   "underlying_type" : "_ZTIa"
  },
  {
   "alignment" : 1,
   "enum_fields" :
   [
    {
     "enum_field_value" : 50,
     "name" : "aidl::android::hardware::radio::data::QosFilter::PROTOCOL_ESP"
    }
   ],
   "linker_set_key" : "_ZTIN4aidl7android8hardware5radio4data9QosFilter13$PROTOCOL_ESPE",
   "name" : "aidl::android::hardware::radio::data::QosFilter::(unnamed enum at out/soong/.intermediates/hardware/interfaces/radio/aidl/android.hardware.radio.data-V1-ndk-source/gen/include/aidl/android/hardware/radio/data/QosFilter.h:69:3)",
   "referenced_type" : "_ZTIN4aidl7android8hardware5radio4data9QosFilter13$PROTOCOL_ESPE",
   "self_type" : "_ZTIN4aidl7android8hardware5radio4data9QosFilter13$PROTOCOL_ESPE",
   "size" : 1,
   "source_file" : "out/soong/.intermediates/hardware/interfaces/radio/aidl/android.hardware.radio.data-V1-ndk-source/gen/include/aidl/android/hardware/radio/data/QosFilter.h",
   "underlying_type" : "_ZTIa"
  },
  {
   "alignment" : 1,
   "enum_fields" :
   [
    {
     "enum_field_value" : 6,
     "name" : "aidl::android::hardware::radio::data::QosFilter::PROTOCOL_TCP"
    }
   ],
   "linker_set_key" : "_ZTIN4aidl7android8hardware5radio4data9QosFilter13$PROTOCOL_TCPE",
   "name" : "aidl::android::hardware::radio::data::QosFilter::(unnamed enum at out/soong/.intermediates/hardware/interfaces/radio/aidl/android.hardware.radio.data-V1-ndk-source/gen/include/aidl/android/hardware/radio/data/QosFilter.h:67:3)",
   "referenced_type" : "_ZTIN4aidl7android8hardware5radio4data9QosFilter13$PROTOCOL_TCPE",
   "self_type" : "_ZTIN4aidl7android8hardware5radio4data9QosFilter13$PROTOCOL_TCPE",
   "size" : 1,
   "source_file" : "out/soong/.intermediates/hardware/interfaces/radio/aidl/android.hardware.radio.data-V1-ndk-source/gen/include/aidl/android/hardware/radio/data/QosFilter.h",
   "underlying_type" : "_ZTIa"
  },
  {
   "alignment" : 1,
   "enum_fields" :
   [
    {
     "enum_field_value" : 17,
     "name" : "aidl::android::hardware::radio::data::QosFilter::PROTOCOL_UDP"
    }
   ],
   "linker_set_key" : "_ZTIN4aidl7android8hardware5radio4data9QosFilter13$PROTOCOL_UDPE",
   "name" : "aidl::android::hardware::radio::data::QosFilter::(unnamed enum at out/soong/.intermediates/hardware/interfaces/radio/aidl/android.hardware.radio.data-V1-ndk-source/gen/include/aidl/android/hardware/radio/data/QosFilter.h:68:3)",
   "referenced_type" : "_ZTIN4aidl7android8hardware5radio4data9QosFilter13$PROTOCOL_UDPE",
   "self_type" : "_ZTIN4aidl7android8hardware5radio4data9QosFilter13$PROTOCOL_UDPE",
   "size" : 1,
   "source_file" : "out/soong/.intermediates/hardware/interfaces/radio/aidl/android.hardware.radio.data-V1-ndk-source/gen/include/aidl/android/hardware/radio/data/QosFilter.h",
   "underlying_type" : "_ZTIa"
  },
  {
   "alignment" : 1,
   "enum_fields" :
   [
    {
     "enum_field_value" : 1,
     "name" : "aidl::android::hardware::radio::data::QosFilter::DIRECTION_UPLINK"
    }
   ],
   "linker_set_key" : "_ZTIN4aidl7android8hardware5radio4data9QosFilter17$DIRECTION_UPLINKE",
   "name" : "aidl::android::hardware::radio::data::QosFilter::(unnamed enum at out/soong/.intermediates/hardware/interfaces/radio/aidl/android.hardware.radio.data-V1-ndk-source/gen/include/aidl/android/hardware/radio/data/QosFilter.h:64:3)",
   "referenced_type" : "_ZTIN4aidl7android8hardware5radio4data9QosFilter17$DIRECTION_UPLINKE",
   "self_type" : "_ZTIN4aidl7android8hardware5radio4data9QosFilter17$DIRECTION_UPLINKE",
   "size" : 1,
   "source_file" : "out/soong/.intermediates/hardware/interfaces/radio/aidl/android.hardware.radio.data-V1-ndk-source/gen/include/aidl/android/hardware/radio/data/QosFilter.h",
   "underlying_type" : "_ZTIa"
  },
  {
   "alignment" : 1,
   "enum_fields" :
   [
    {
     "enum_field_value" : 0,
     "name" : "aidl::android::hardware::radio::data::QosFilter::DIRECTION_DOWNLINK"
    }
   ],
   "linker_set_key" : "_ZTIN4aidl7android8hardware5radio4data9QosFilter19$DIRECTION_DOWNLINKE",
   "name" : "aidl::android::hardware::radio::data::QosFilter::(unnamed enum at out/soong/.intermediates/hardware/interfaces/radio/aidl/android.hardware.radio.data-V1-ndk-source/gen/include/aidl/android/hardware/radio/data/QosFilter.h:63:3)",
   "referenced_type" : "_ZTIN4aidl7android8hardware5radio4data9QosFilter19$DIRECTION_DOWNLINKE",
   "self_type" : "_ZTIN4aidl7android8hardware5radio4data9QosFilter19$DIRECTION_DOWNLINKE",
   "size" : 1,
   "source_file" : "out/soong/.intermediates/hardware/interfaces/radio/aidl/android.hardware.radio.data-V1-ndk-source/gen/include/aidl/android/hardware/radio/data/QosFilter.h",
   "underlying_type" : "_ZTIa"
  },
  {
   "alignment" : 1,
   "enum_fields" :
   [
    {
     "enum_field_value" : -1,
     "name" : "aidl::android::hardware::radio::data::QosFilter::PROTOCOL_UNSPECIFIED"
    }
   ],
   "linker_set_key" : "_ZTIN4aidl7android8hardware5radio4data9QosFilter21$PROTOCOL_UNSPECIFIEDE",
   "name" : "aidl::android::hardware::radio::data::QosFilter::(unnamed enum at out/soong/.intermediates/hardware/interfaces/radio/aidl/android.hardware.radio.data-V1-ndk-source/gen/include/aidl/android/hardware/radio/data/QosFilter.h:66:3)",
   "referenced_type" : "_ZTIN4aidl7android8hardware5radio4data9QosFilter21$PROTOCOL_UNSPECIFIEDE",
   "self_type" : "_ZTIN4aidl7android8hardware5radio4data9QosFilter21$PROTOCOL_UNSPECIFIEDE",
   "size" : 1,
   "source_file" : "out/soong/.intermediates/hardware/interfaces/radio/aidl/android.hardware.radio.data-V1-ndk-source/gen/include/aidl/android/hardware/radio/data/QosFilter.h",
   "underlying_type" : "_ZTIa"
  },
  {
   "alignment" : 1,
   "enum_fields" :
   [
    {
     "enum_field_value" : 2,
     "name" : "aidl::android::hardware::radio::data::QosFilter::DIRECTION_BIDIRECTIONAL"
    }
   ],
   "linker_set_key" : "_ZTIN4aidl7android8hardware5radio4data9QosFilter24$DIRECTION_BIDIRECTIONALE",
   "name" : "aidl::android::hardware::radio::data::QosFilter::(unnamed enum at out/soong/.intermediates/hardware/interfaces/radio/aidl/android.hardware.radio.data-V1-ndk-source/gen/include/aidl/android/hardware/radio/data/QosFilter.h:65:3)",
   "referenced_type" : "_ZTIN4aidl7android8hardware5radio4data9QosFilter24$DIRECTION_BIDIRECTIONALE",
   "self_type" : "_ZTIN4aidl7android8hardware5radio4data9QosFilter24$DIRECTION_BIDIRECTIONALE",
   "size" : 1,
   "source_file" : "out/soong/.intermediates/hardware/interfaces/radio/aidl/android.hardware.radio.data-V1-ndk-source/gen/include/aidl/android/hardware/radio/data/QosFilter.h",
   "underlying_type" : "_ZTIa"
  },
  {
   "alignment" : 1,
   "enum_fields" :
   [
    {
     "enum_field_value" : 2,
     "name" : "aidl::android::hardware::radio::data::SliceInfo::STATUS_ALLOWED"
    }
   ],
   "linker_set_key" : "_ZTIN4aidl7android8hardware5radio4data9SliceInfo15$STATUS_ALLOWEDE",
   "name" : "aidl::android::hardware::radio::data::SliceInfo::(unnamed enum at out/soong/.intermediates/hardware/interfaces/radio/aidl/android.hardware.radio.data-V1-ndk-source/gen/include/aidl/android/hardware/radio/data/SliceInfo.h:60:3)",
   "referenced_type" : "_ZTIN4aidl7android8hardware5radio4data9SliceInfo15$STATUS_ALLOWEDE",
   "self_type" : "_ZTIN4aidl7android8hardware5radio4data9SliceInfo15$STATUS_ALLOWEDE",
   "size" : 1,
   "source_file" : "out/soong/.intermediates/hardware/interfaces/radio/aidl/android.hardware.radio.data-V1-ndk-source/gen/include/aidl/android/hardware/radio/data/SliceInfo.h",
   "underlying_type" : "_ZTIa"
  },
  {
   "alignment" : 1,
   "enum_fields" :
   [
    {
     "enum_field_value" : 0,
     "name" : "aidl::android::hardware::radio::data::SliceInfo::STATUS_UNKNOWN"
    }
   ],
   "linker_set_key" : "_ZTIN4aidl7android8hardware5radio4data9SliceInfo15$STATUS_UNKNOWNE",
   "name" : "aidl::android::hardware::radio::data::SliceInfo::(unnamed enum at out/soong/.intermediates/hardware/interfaces/radio/aidl/android.hardware.radio.data-V1-ndk-source/gen/include/aidl/android/hardware/radio/data/SliceInfo.h:58:3)",
   "referenced_type" : "_ZTIN4aidl7android8hardware5radio4data9SliceInfo15$STATUS_UNKNOWNE",
   "self_type" : "_ZTIN4aidl7android8hardware5radio4data9SliceInfo15$STATUS_UNKNOWNE",
   "size" : 1,
   "source_file" : "out/soong/.intermediates/hardware/interfaces/radio/aidl/android.hardware.radio.data-V1-ndk-source/gen/include/aidl/android/hardware/radio/data/SliceInfo.h",
   "underlying_type" : "_ZTIa"
  },
  {
   "alignment" : 1,
   "enum_fields" :
   [
    {
     "enum_field_value" : 1,
     "name" : "aidl::android::hardware::radio::data::SliceInfo::SERVICE_TYPE_EMBB"
    }
   ],
   "linker_set_key" : "_ZTIN4aidl7android8hardware5radio4data9SliceInfo18$SERVICE_TYPE_EMBBE",
   "name" : "aidl::android::hardware::radio::data::SliceInfo::(unnamed enum at out/soong/.intermediates/hardware/interfaces/radio/aidl/android.hardware.radio.data-V1-ndk-source/gen/include/aidl/android/hardware/radio/data/SliceInfo.h:55:3)",
   "referenced_type" : "_ZTIN4aidl7android8hardware5radio4data9SliceInfo18$SERVICE_TYPE_EMBBE",
   "self_type" : "_ZTIN4aidl7android8hardware5radio4data9SliceInfo18$SERVICE_TYPE_EMBBE",
   "size" : 1,
   "source_file" : "out/soong/.intermediates/hardware/interfaces/radio/aidl/android.hardware.radio.data-V1-ndk-source/gen/include/aidl/android/hardware/radio/data/SliceInfo.h",
   "underlying_type" : "_ZTIa"
  },
  {
   "alignment" : 1,
   "enum_fields" :
   [
    {
     "enum_field_value" : 3,
     "name" : "aidl::android::hardware::radio::data::SliceInfo::SERVICE_TYPE_MIOT"
    }
   ],
   "linker_set_key" : "_ZTIN4aidl7android8hardware5radio4data9SliceInfo18$SERVICE_TYPE_MIOTE",
   "name" : "aidl::android::hardware::radio::data::SliceInfo::(unnamed enum at out/soong/.intermediates/hardware/interfaces/radio/aidl/android.hardware.radio.data-V1-ndk-source/gen/include/aidl/android/hardware/radio/data/SliceInfo.h:57:3)",
   "referenced_type" : "_ZTIN4aidl7android8hardware5radio4data9SliceInfo18$SERVICE_TYPE_MIOTE",
   "self_type" : "_ZTIN4aidl7android8hardware5radio4data9SliceInfo18$SERVICE_TYPE_MIOTE",
   "size" : 1,
   "source_file" : "out/soong/.intermediates/hardware/interfaces/radio/aidl/android.hardware.radio.data-V1-ndk-source/gen/include/aidl/android/hardware/radio/data/SliceInfo.h",
   "underlying_type" : "_ZTIa"
  },
  {
   "alignment" : 1,
   "enum_fields" :
   [
    {
     "enum_field_value" : 0,
     "name" : "aidl::android::hardware::radio::data::SliceInfo::SERVICE_TYPE_NONE"
    }
   ],
   "linker_set_key" : "_ZTIN4aidl7android8hardware5radio4data9SliceInfo18$SERVICE_TYPE_NONEE",
   "name" : "aidl::android::hardware::radio::data::SliceInfo::(unnamed enum at out/soong/.intermediates/hardware/interfaces/radio/aidl/android.hardware.radio.data-V1-ndk-source/gen/include/aidl/android/hardware/radio/data/SliceInfo.h:54:3)",
   "referenced_type" : "_ZTIN4aidl7android8hardware5radio4data9SliceInfo18$SERVICE_TYPE_NONEE",
   "self_type" : "_ZTIN4aidl7android8hardware5radio4data9SliceInfo18$SERVICE_TYPE_NONEE",
   "size" : 1,
   "source_file" : "out/soong/.intermediates/hardware/interfaces/radio/aidl/android.hardware.radio.data-V1-ndk-source/gen/include/aidl/android/hardware/radio/data/SliceInfo.h",
   "underlying_type" : "_ZTIa"
  },
  {
   "alignment" : 1,
   "enum_fields" :
   [
    {
     "enum_field_value" : 1,
     "name" : "aidl::android::hardware::radio::data::SliceInfo::STATUS_CONFIGURED"
    }
   ],
   "linker_set_key" : "_ZTIN4aidl7android8hardware5radio4data9SliceInfo18$STATUS_CONFIGUREDE",
   "name" : "aidl::android::hardware::radio::data::SliceInfo::(unnamed enum at out/soong/.intermediates/hardware/interfaces/radio/aidl/android.hardware.radio.data-V1-ndk-source/gen/include/aidl/android/hardware/radio/data/SliceInfo.h:59:3)",
   "referenced_type" : "_ZTIN4aidl7android8hardware5radio4data9SliceInfo18$STATUS_CONFIGUREDE",
   "self_type" : "_ZTIN4aidl7android8hardware5radio4data9SliceInfo18$STATUS_CONFIGUREDE",
   "size" : 1,
   "source_file" : "out/soong/.intermediates/hardware/interfaces/radio/aidl/android.hardware.radio.data-V1-ndk-source/gen/include/aidl/android/hardware/radio/data/SliceInfo.h",
   "underlying_type" : "_ZTIa"
  },
  {
   "alignment" : 1,
   "enum_fields" :
   [
    {
     "enum_field_value" : 2,
     "name" : "aidl::android::hardware::radio::data::SliceInfo::SERVICE_TYPE_URLLC"
    }
   ],
   "linker_set_key" : "_ZTIN4aidl7android8hardware5radio4data9SliceInfo19$SERVICE_TYPE_URLLCE",
   "name" : "aidl::android::hardware::radio::data::SliceInfo::(unnamed enum at out/soong/.intermediates/hardware/interfaces/radio/aidl/android.hardware.radio.data-V1-ndk-source/gen/include/aidl/android/hardware/radio/data/SliceInfo.h:56:3)",
   "referenced_type" : "_ZTIN4aidl7android8hardware5radio4data9SliceInfo19$SERVICE_TYPE_URLLCE",
   "self_type" : "_ZTIN4aidl7android8hardware5radio4data9SliceInfo19$SERVICE_TYPE_URLLCE",
   "size" : 1,
   "source_file" : "out/soong/.intermediates/hardware/interfaces/radio/aidl/android.hardware.radio.data-V1-ndk-source/gen/include/aidl/android/hardware/radio/data/SliceInfo.h",
   "underlying_type" : "_ZTIa"
  },
  {
   "alignment" : 1,
   "enum_fields" :
   [
    {
     "enum_field_value" : 5,
     "name" : "aidl::android::hardware::radio::data::SliceInfo::STATUS_DEFAULT_CONFIGURED"
    }
   ],
   "linker_set_key" : "_ZTIN4aidl7android8hardware5radio4data9SliceInfo26$STATUS_DEFAULT_CONFIGUREDE",
   "name" : "aidl::android::hardware::radio::data::SliceInfo::(unnamed enum at out/soong/.intermediates/hardware/interfaces/radio/aidl/android.hardware.radio.data-V1-ndk-source/gen/include/aidl/android/hardware/radio/data/SliceInfo.h:63:3)",
   "referenced_type" : "_ZTIN4aidl7android8hardware5radio4data9SliceInfo26$STATUS_DEFAULT_CONFIGUREDE",
   "self_type" : "_ZTIN4aidl7android8hardware5radio4data9SliceInfo26$STATUS_DEFAULT_CONFIGUREDE",
   "size" : 1,
   "source_file" : "out/soong/.intermediates/hardware/interfaces/radio/aidl/android.hardware.radio.data-V1-ndk-source/gen/include/aidl/android/hardware/radio/data/SliceInfo.h",
   "underlying_type" : "_ZTIa"
  },
  {
   "alignment" : 1,
   "enum_fields" :
   [
    {
     "enum_field_value" : 3,
     "name" : "aidl::android::hardware::radio::data::SliceInfo::STATUS_REJECTED_NOT_AVAILABLE_IN_PLMN"
    }
   ],
   "linker_set_key" : "_ZTIN4aidl7android8hardware5radio4data9SliceInfo38$STATUS_REJECTED_NOT_AVAILABLE_IN_PLMNE",
   "name" : "aidl::android::hardware::radio::data::SliceInfo::(unnamed enum at out/soong/.intermediates/hardware/interfaces/radio/aidl/android.hardware.radio.data-V1-ndk-source/gen/include/aidl/android/hardware/radio/data/SliceInfo.h:61:3)",
   "referenced_type" : "_ZTIN4aidl7android8hardware5radio4data9SliceInfo38$STATUS_REJECTED_NOT_AVAILABLE_IN_PLMNE",
   "self_type" : "_ZTIN4aidl7android8hardware5radio4data9SliceInfo38$STATUS_REJECTED_NOT_AVAILABLE_IN_PLMNE",
   "size" : 1,
   "source_file" : "out/soong/.intermediates/hardware/interfaces/radio/aidl/android.hardware.radio.data-V1-ndk-source/gen/include/aidl/android/hardware/radio/data/SliceInfo.h",
   "underlying_type" : "_ZTIa"
  },
  {
   "alignment" : 1,
   "enum_fields" :
   [
    {
     "enum_field_value" : 4,
     "name" : "aidl::android::hardware::radio::data::SliceInfo::STATUS_REJECTED_NOT_AVAILABLE_IN_REG_AREA"
    }
   ],
   "linker_set_key" : "_ZTIN4aidl7android8hardware5radio4data9SliceInfo42$STATUS_REJECTED_NOT_AVAILABLE_IN_REG_AREAE",
   "name" : "aidl::android::hardware::radio::data::SliceInfo::(unnamed enum at out/soong/.intermediates/hardware/interfaces/radio/aidl/android.hardware.radio.data-V1-ndk-source/gen/include/aidl/android/hardware/radio/data/SliceInfo.h:62:3)",
   "referenced_type" : "_ZTIN4aidl7android8hardware5radio4data9SliceInfo42$STATUS_REJECTED_NOT_AVAILABLE_IN_REG_AREAE",
   "self_type" : "_ZTIN4aidl7android8hardware5radio4data9SliceInfo42$STATUS_REJECTED_NOT_AVAILABLE_IN_REG_AREAE",
   "size" : 1,
   "source_file" : "out/soong/.intermediates/hardware/interfaces/radio/aidl/android.hardware.radio.data-V1-ndk-source/gen/include/aidl/android/hardware/radio/data/SliceInfo.h",
   "underlying_type" : "_ZTIa"
  },
  {
   "alignment" : 4,
   "enum_fields" :
   [
    {
     "enum_field_value" : 1,
     "name" : "android::internal::details::IsIterable<std::vector<aidl::android::hardware::radio::data::QosSession>>::value"
    }
   ],
   "linker_set_key" : "_ZTIN7android8internal7details10IsIterableINSt3__16vectorIN4aidl7android8hardware5radio4data10QosSessionENS3_9allocatorISA_EEEEE6$valueE",
   "name" : "android::internal::details::IsIterable<std::vector<aidl::android::hardware::radio::data::QosSession, std::allocator<aidl::android::hardware::radio::data::QosSession>>>::(unnamed enum at frameworks/native/libs/binder/ndk/include_cpp/android/binder_to_string.h:131:5)",
   "referenced_type" : "_ZTIN7android8internal7details10IsIterableINSt3__16vectorIN4aidl7android8hardware5radio4data10QosSessionENS3_9allocatorISA_EEEEE6$valueE",
   "self_type" : "_ZTIN7android8internal7details10IsIterableINSt3__16vectorIN4aidl7android8hardware5radio4data10QosSessionENS3_9allocatorISA_EEEEE6$valueE",
   "size" : 4,
   "source_file" : "frameworks/native/libs/binder/ndk/include_cpp/android/binder_to_string.h",
   "underlying_type" : "_ZTIj"
  },
  {
   "alignment" : 4,
   "enum_fields" :
   [
    {
     "enum_field_value" : 1,
     "name" : "android::internal::details::IsIterable<std::vector<aidl::android::hardware::radio::data::LinkAddress>>::value"
    }
   ],
   "linker_set_key" : "_ZTIN7android8internal7details10IsIterableINSt3__16vectorIN4aidl7android8hardware5radio4data11LinkAddressENS3_9allocatorISA_EEEEE6$valueE",
   "name" : "android::internal::details::IsIterable<std::vector<aidl::android::hardware::radio::data::LinkAddress, std::allocator<aidl::android::hardware::radio::data::LinkAddress>>>::(unnamed enum at frameworks/native/libs/binder/ndk/include_cpp/android/binder_to_string.h:131:5)",
   "referenced_type" : "_ZTIN7android8internal7details10IsIterableINSt3__16vectorIN4aidl7android8hardware5radio4data11LinkAddressENS3_9allocatorISA_EEEEE6$valueE",
   "self_type" : "_ZTIN7android8internal7details10IsIterableINSt3__16vectorIN4aidl7android8hardware5radio4data11LinkAddressENS3_9allocatorISA_EEEEE6$valueE",
   "size" : 4,
   "source_file" : "frameworks/native/libs/binder/ndk/include_cpp/android/binder_to_string.h",
   "underlying_type" : "_ZTIj"
  },
  {
   "alignment" : 4,
   "enum_fields" :
   [
    {
     "enum_field_value" : 1,
     "name" : "android::internal::details::IsIterable<std::vector<aidl::android::hardware::radio::data::TrafficDescriptor>>::value"
    }
   ],
   "linker_set_key" : "_ZTIN7android8internal7details10IsIterableINSt3__16vectorIN4aidl7android8hardware5radio4data17TrafficDescriptorENS3_9allocatorISA_EEEEE6$valueE",
   "name" : "android::internal::details::IsIterable<std::vector<aidl::android::hardware::radio::data::TrafficDescriptor, std::allocator<aidl::android::hardware::radio::data::TrafficDescriptor>>>::(unnamed enum at frameworks/native/libs/binder/ndk/include_cpp/android/binder_to_string.h:131:5)",
   "referenced_type" : "_ZTIN7android8internal7details10IsIterableINSt3__16vectorIN4aidl7android8hardware5radio4data17TrafficDescriptorENS3_9allocatorISA_EEEEE6$valueE",
   "self_type" : "_ZTIN7android8internal7details10IsIterableINSt3__16vectorIN4aidl7android8hardware5radio4data17TrafficDescriptorENS3_9allocatorISA_EEEEE6$valueE",
   "size" : 4,
   "source_file" : "frameworks/native/libs/binder/ndk/include_cpp/android/binder_to_string.h",
   "underlying_type" : "_ZTIj"
  },
  {
   "alignment" : 4,
   "enum_fields" :
   [
    {
     "enum_field_value" : 1,
     "name" : "android::internal::details::IsIterable<std::vector<aidl::android::hardware::radio::data::RouteSelectionDescriptor>>::value"
    }
   ],
   "linker_set_key" : "_ZTIN7android8internal7details10IsIterableINSt3__16vectorIN4aidl7android8hardware5radio4data24RouteSelectionDescriptorENS3_9allocatorISA_EEEEE6$valueE",
   "name" : "android::internal::details::IsIterable<std::vector<aidl::android::hardware::radio::data::RouteSelectionDescriptor, std::allocator<aidl::android::hardware::radio::data::RouteSelectionDescriptor>>>::(unnamed enum at frameworks/native/libs/binder/ndk/include_cpp/android/binder_to_string.h:131:5)",
   "referenced_type" : "_ZTIN7android8internal7details10IsIterableINSt3__16vectorIN4aidl7android8hardware5radio4data24RouteSelectionDescriptorENS3_9allocatorISA_EEEEE6$valueE",
   "self_type" : "_ZTIN7android8internal7details10IsIterableINSt3__16vectorIN4aidl7android8hardware5radio4data24RouteSelectionDescriptorENS3_9allocatorISA_EEEEE6$valueE",
   "size" : 4,
   "source_file" : "frameworks/native/libs/binder/ndk/include_cpp/android/binder_to_string.h",
   "underlying_type" : "_ZTIj"
  },
  {
   "alignment" : 4,
   "enum_fields" :
   [
    {
     "enum_field_value" : 1,
     "name" : "android::internal::details::IsIterable<std::vector<aidl::android::hardware::radio::data::UrspRule>>::value"
    }
   ],
   "linker_set_key" : "_ZTIN7android8internal7details10IsIterableINSt3__16vectorIN4aidl7android8hardware5radio4data8UrspRuleENS3_9allocatorISA_EEEEE6$valueE",
   "name" : "android::internal::details::IsIterable<std::vector<aidl::android::hardware::radio::data::UrspRule, std::allocator<aidl::android::hardware::radio::data::UrspRule>>>::(unnamed enum at frameworks/native/libs/binder/ndk/include_cpp/android/binder_to_string.h:131:5)",
   "referenced_type" : "_ZTIN7android8internal7details10IsIterableINSt3__16vectorIN4aidl7android8hardware5radio4data8UrspRuleENS3_9allocatorISA_EEEEE6$valueE",
   "self_type" : "_ZTIN7android8internal7details10IsIterableINSt3__16vectorIN4aidl7android8hardware5radio4data8UrspRuleENS3_9allocatorISA_EEEEE6$valueE",
   "size" : 4,
   "source_file" : "frameworks/native/libs/binder/ndk/include_cpp/android/binder_to_string.h",
   "underlying_type" : "_ZTIj"
  },
  {
   "alignment" : 4,
   "enum_fields" :
   [
    {
     "enum_field_value" : 1,
     "name" : "android::internal::details::IsIterable<std::vector<aidl::android::hardware::radio::data::QosFilter>>::value"
    }
   ],
   "linker_set_key" : "_ZTIN7android8internal7details10IsIterableINSt3__16vectorIN4aidl7android8hardware5radio4data9QosFilterENS3_9allocatorISA_EEEEE6$valueE",
   "name" : "android::internal::details::IsIterable<std::vector<aidl::android::hardware::radio::data::QosFilter, std::allocator<aidl::android::hardware::radio::data::QosFilter>>>::(unnamed enum at frameworks/native/libs/binder/ndk/include_cpp/android/binder_to_string.h:131:5)",
   "referenced_type" : "_ZTIN7android8internal7details10IsIterableINSt3__16vectorIN4aidl7android8hardware5radio4data9QosFilterENS3_9allocatorISA_EEEEE6$valueE",
   "self_type" : "_ZTIN7android8internal7details10IsIterableINSt3__16vectorIN4aidl7android8hardware5radio4data9QosFilterENS3_9allocatorISA_EEEEE6$valueE",
   "size" : 4,
   "source_file" : "frameworks/native/libs/binder/ndk/include_cpp/android/binder_to_string.h",
   "underlying_type" : "_ZTIj"
  },
  {
   "alignment" : 4,
   "enum_fields" :
   [
    {
     "enum_field_value" : 1,
     "name" : "android::internal::details::IsIterable<std::vector<aidl::android::hardware::radio::data::SliceInfo>>::value"
    }
   ],
   "linker_set_key" : "_ZTIN7android8internal7details10IsIterableINSt3__16vectorIN4aidl7android8hardware5radio4data9SliceInfoENS3_9allocatorISA_EEEEE6$valueE",
   "name" : "android::internal::details::IsIterable<std::vector<aidl::android::hardware::radio::data::SliceInfo, std::allocator<aidl::android::hardware::radio::data::SliceInfo>>>::(unnamed enum at frameworks/native/libs/binder/ndk/include_cpp/android/binder_to_string.h:131:5)",
   "referenced_type" : "_ZTIN7android8internal7details10IsIterableINSt3__16vectorIN4aidl7android8hardware5radio4data9SliceInfoENS3_9allocatorISA_EEEEE6$valueE",
   "self_type" : "_ZTIN7android8internal7details10IsIterableINSt3__16vectorIN4aidl7android8hardware5radio4data9SliceInfoENS3_9allocatorISA_EEEEE6$valueE",
   "size" : 4,
   "source_file" : "frameworks/native/libs/binder/ndk/include_cpp/android/binder_to_string.h",
   "underlying_type" : "_ZTIj"
  },
  {
   "alignment" : 4,
   "enum_fields" :
   [
    {
     "enum_field_value" : 1,
     "name" : "android::internal::details::IsIterable<std::vector<std::basic_string<char>>>::value"
    }
   ],
   "linker_set_key" : "_ZTIN7android8internal7details10IsIterableINSt3__16vectorINS3_12basic_stringIcNS3_11char_traitsIcEENS3_9allocatorIcEEEENS8_ISA_EEEEE6$valueE",
   "name" : "android::internal::details::IsIterable<std::vector<std::basic_string<char, std::char_traits<char>, std::allocator<char>>, std::allocator<std::basic_string<char, std::char_traits<char>, std::allocator<char>>>>>::(unnamed enum at frameworks/native/libs/binder/ndk/include_cpp/android/binder_to_string.h:131:5)",
   "referenced_type" : "_ZTIN7android8internal7details10IsIterableINSt3__16vectorINS3_12basic_stringIcNS3_11char_traitsIcEENS3_9allocatorIcEEEENS8_ISA_EEEEE6$valueE",
   "self_type" : "_ZTIN7android8internal7details10IsIterableINSt3__16vectorINS3_12basic_stringIcNS3_11char_traitsIcEENS3_9allocatorIcEEEENS8_ISA_EEEEE6$valueE",
   "size" : 4,
   "source_file" : "frameworks/native/libs/binder/ndk/include_cpp/android/binder_to_string.h",
   "underlying_type" : "_ZTIj"
  },
  {
   "alignment" : 4,
   "enum_fields" :
   [
    {
     "enum_field_value" : 1,
     "name" : "android::internal::details::IsIterable<std::vector<unsigned char>>::value"
    }
   ],
   "linker_set_key" : "_ZTIN7android8internal7details10IsIterableINSt3__16vectorIhNS3_9allocatorIhEEEEE6$valueE",
   "name" : "android::internal::details::IsIterable<std::vector<unsigned char, std::allocator<unsigned char>>>::(unnamed enum at frameworks/native/libs/binder/ndk/include_cpp/android/binder_to_string.h:131:5)",
   "referenced_type" : "_ZTIN7android8internal7details10IsIterableINSt3__16vectorIhNS3_9allocatorIhEEEEE6$valueE",
   "self_type" : "_ZTIN7android8internal7details10IsIterableINSt3__16vectorIhNS3_9allocatorIhEEEEE6$valueE",
   "size" : 4,
   "source_file" : "frameworks/native/libs/binder/ndk/include_cpp/android/binder_to_string.h",
   "underlying_type" : "_ZTIj"
  },
  {
   "alignment" : 4,
   "enum_fields" :
   [
    {
     "enum_field_value" : 0,
     "name" : "android::internal::details::IsPointerLike<aidl::android::hardware::radio::RadioError>::value"
    }
   ],
   "linker_set_key" : "_ZTIN7android8internal7details13IsPointerLikeIN4aidl7android8hardware5radio10RadioErrorEE6$valueE",
   "name" : "android::internal::details::IsPointerLike<aidl::android::hardware::radio::RadioError>::(unnamed enum at frameworks/native/libs/binder/ndk/include_cpp/android/binder_to_string.h:118:5)",
   "referenced_type" : "_ZTIN7android8internal7details13IsPointerLikeIN4aidl7android8hardware5radio10RadioErrorEE6$valueE",
   "self_type" : "_ZTIN7android8internal7details13IsPointerLikeIN4aidl7android8hardware5radio10RadioErrorEE6$valueE",
   "size" : 4,
   "source_file" : "frameworks/native/libs/binder/ndk/include_cpp/android/binder_to_string.h",
   "underlying_type" : "_ZTIj"
  },
  {
   "alignment" : 4,
   "enum_fields" :
   [
    {
     "enum_field_value" : 0,
     "name" : "android::internal::details::IsPointerLike<aidl::android::hardware::radio::RadioResponseType>::value"
    }
   ],
   "linker_set_key" : "_ZTIN7android8internal7details13IsPointerLikeIN4aidl7android8hardware5radio17RadioResponseTypeEE6$valueE",
   "name" : "android::internal::details::IsPointerLike<aidl::android::hardware::radio::RadioResponseType>::(unnamed enum at frameworks/native/libs/binder/ndk/include_cpp/android/binder_to_string.h:118:5)",
   "referenced_type" : "_ZTIN7android8internal7details13IsPointerLikeIN4aidl7android8hardware5radio17RadioResponseTypeEE6$valueE",
   "self_type" : "_ZTIN7android8internal7details13IsPointerLikeIN4aidl7android8hardware5radio17RadioResponseTypeEE6$valueE",
   "size" : 4,
   "source_file" : "frameworks/native/libs/binder/ndk/include_cpp/android/binder_to_string.h",
   "underlying_type" : "_ZTIj"
  },
  {
   "alignment" : 4,
   "enum_fields" :
   [
    {
     "enum_field_value" : 0,
     "name" : "android::internal::details::IsPointerLike<aidl::android::hardware::radio::data::QosSession>::value"
    }
   ],
   "linker_set_key" : "_ZTIN7android8internal7details13IsPointerLikeIN4aidl7android8hardware5radio4data10QosSessionEE6$valueE",
   "name" : "android::internal::details::IsPointerLike<aidl::android::hardware::radio::data::QosSession>::(unnamed enum at frameworks/native/libs/binder/ndk/include_cpp/android/binder_to_string.h:118:5)",
   "referenced_type" : "_ZTIN7android8internal7details13IsPointerLikeIN4aidl7android8hardware5radio4data10QosSessionEE6$valueE",
   "self_type" : "_ZTIN7android8internal7details13IsPointerLikeIN4aidl7android8hardware5radio4data10QosSessionEE6$valueE",
   "size" : 4,
   "source_file" : "frameworks/native/libs/binder/ndk/include_cpp/android/binder_to_string.h",
   "underlying_type" : "_ZTIj"
  },
  {
   "alignment" : 4,
   "enum_fields" :
   [
    {
     "enum_field_value" : 0,
     "name" : "android::internal::details::IsPointerLike<aidl::android::hardware::radio::data::ApnAuthType>::value"
    }
   ],
   "linker_set_key" : "_ZTIN7android8internal7details13IsPointerLikeIN4aidl7android8hardware5radio4data11ApnAuthTypeEE6$valueE",
   "name" : "android::internal::details::IsPointerLike<aidl::android::hardware::radio::data::ApnAuthType>::(unnamed enum at frameworks/native/libs/binder/ndk/include_cpp/android/binder_to_string.h:118:5)",
   "referenced_type" : "_ZTIN7android8internal7details13IsPointerLikeIN4aidl7android8hardware5radio4data11ApnAuthTypeEE6$valueE",
   "self_type" : "_ZTIN7android8internal7details13IsPointerLikeIN4aidl7android8hardware5radio4data11ApnAuthTypeEE6$valueE",
   "size" : 4,
   "source_file" : "frameworks/native/libs/binder/ndk/include_cpp/android/binder_to_string.h",
   "underlying_type" : "_ZTIj"
  },
  {
   "alignment" : 4,
   "enum_fields" :
   [
    {
     "enum_field_value" : 0,
     "name" : "android::internal::details::IsPointerLike<aidl::android::hardware::radio::data::LinkAddress>::value"
    }
   ],
   "linker_set_key" : "_ZTIN7android8internal7details13IsPointerLikeIN4aidl7android8hardware5radio4data11LinkAddressEE6$valueE",
   "name" : "android::internal::details::IsPointerLike<aidl::android::hardware::radio::data::LinkAddress>::(unnamed enum at frameworks/native/libs/binder/ndk/include_cpp/android/binder_to_string.h:118:5)",
   "referenced_type" : "_ZTIN7android8internal7details13IsPointerLikeIN4aidl7android8hardware5radio4data11LinkAddressEE6$valueE",
   "self_type" : "_ZTIN7android8internal7details13IsPointerLikeIN4aidl7android8hardware5radio4data11LinkAddressEE6$valueE",
   "size" : 4,
   "source_file" : "frameworks/native/libs/binder/ndk/include_cpp/android/binder_to_string.h",
   "underlying_type" : "_ZTIj"
  },
  {
   "alignment" : 4,
   "enum_fields" :
   [
    {
     "enum_field_value" : 0,
     "name" : "android::internal::details::IsPointerLike<aidl::android::hardware::radio::data::QosBandwidth>::value"
    }
   ],
   "linker_set_key" : "_ZTIN7android8internal7details13IsPointerLikeIN4aidl7android8hardware5radio4data12QosBandwidthEE6$valueE",
   "name" : "android::internal::details::IsPointerLike<aidl::android::hardware::radio::data::QosBandwidth>::(unnamed enum at frameworks/native/libs/binder/ndk/include_cpp/android/binder_to_string.h:118:5)",
   "referenced_type" : "_ZTIN7android8internal7details13IsPointerLikeIN4aidl7android8hardware5radio4data12QosBandwidthEE6$valueE",
   "self_type" : "_ZTIN7android8internal7details13IsPointerLikeIN4aidl7android8hardware5radio4data12QosBandwidthEE6$valueE",
   "size" : 4,
   "source_file" : "frameworks/native/libs/binder/ndk/include_cpp/android/binder_to_string.h",
   "underlying_type" : "_ZTIj"
  },
  {
   "alignment" : 4,
   "enum_fields" :
   [
    {
     "enum_field_value" : 0,
     "name" : "android::internal::details::IsPointerLike<aidl::android::hardware::radio::data::PdpProtocolType>::value"
    }
   ],
   "linker_set_key" : "_ZTIN7android8internal7details13IsPointerLikeIN4aidl7android8hardware5radio4data15PdpProtocolTypeEE6$valueE",
   "name" : "android::internal::details::IsPointerLike<aidl::android::hardware::radio::data::PdpProtocolType>::(unnamed enum at frameworks/native/libs/binder/ndk/include_cpp/android/binder_to_string.h:118:5)",
   "referenced_type" : "_ZTIN7android8internal7details13IsPointerLikeIN4aidl7android8hardware5radio4data15PdpProtocolTypeEE6$valueE",
   "self_type" : "_ZTIN7android8internal7details13IsPointerLikeIN4aidl7android8hardware5radio4data15PdpProtocolTypeEE6$valueE",
   "size" : 4,
   "source_file" : "frameworks/native/libs/binder/ndk/include_cpp/android/binder_to_string.h",
   "underlying_type" : "_ZTIj"
  },
  {
   "alignment" : 4,
   "enum_fields" :
   [
    {
     "enum_field_value" : 0,
     "name" : "android::internal::details::IsPointerLike<aidl::android::hardware::radio::data::DataCallFailCause>::value"
    }
   ],
   "linker_set_key" : "_ZTIN7android8internal7details13IsPointerLikeIN4aidl7android8hardware5radio4data17DataCallFailCauseEE6$valueE",
   "name" : "android::internal::details::IsPointerLike<aidl::android::hardware::radio::data::DataCallFailCause>::(unnamed enum at frameworks/native/libs/binder/ndk/include_cpp/android/binder_to_string.h:118:5)",
   "referenced_type" : "_ZTIN7android8internal7details13IsPointerLikeIN4aidl7android8hardware5radio4data17DataCallFailCauseEE6$valueE",
   "self_type" : "_ZTIN7android8internal7details13IsPointerLikeIN4aidl7android8hardware5radio4data17DataCallFailCauseEE6$valueE",
   "size" : 4,
   "source_file" : "frameworks/native/libs/binder/ndk/include_cpp/android/binder_to_string.h",
   "underlying_type" : "_ZTIj"
  },
  {
   "alignment" : 4,
   "enum_fields" :
   [
    {
     "enum_field_value" : 0,
     "name" : "android::internal::details::IsPointerLike<aidl::android::hardware::radio::data::QosFilterIpsecSpi>::value"
    }
   ],
   "linker_set_key" : "_ZTIN7android8internal7details13IsPointerLikeIN4aidl7android8hardware5radio4data17QosFilterIpsecSpiEE6$valueE",
   "name" : "android::internal::details::IsPointerLike<aidl::android::hardware::radio::data::QosFilterIpsecSpi>::(unnamed enum at frameworks/native/libs/binder/ndk/include_cpp/android/binder_to_string.h:118:5)",
   "referenced_type" : "_ZTIN7android8internal7details13IsPointerLikeIN4aidl7android8hardware5radio4data17QosFilterIpsecSpiEE6$valueE",
   "self_type" : "_ZTIN7android8internal7details13IsPointerLikeIN4aidl7android8hardware5radio4data17QosFilterIpsecSpiEE6$valueE",
   "size" : 4,
   "source_file" : "frameworks/native/libs/binder/ndk/include_cpp/android/binder_to_string.h",
   "underlying_type" : "_ZTIj"
  },
  {
   "alignment" : 4,
   "enum_fields" :
   [
    {
     "enum_field_value" : 0,
     "name" : "android::internal::details::IsPointerLike<aidl::android::hardware::radio::data::TrafficDescriptor>::value"
    }
   ],
   "linker_set_key" : "_ZTIN7android8internal7details13IsPointerLikeIN4aidl7android8hardware5radio4data17TrafficDescriptorEE6$valueE",
   "name" : "android::internal::details::IsPointerLike<aidl::android::hardware::radio::data::TrafficDescriptor>::(unnamed enum at frameworks/native/libs/binder/ndk/include_cpp/android/binder_to_string.h:118:5)",
   "referenced_type" : "_ZTIN7android8internal7details13IsPointerLikeIN4aidl7android8hardware5radio4data17TrafficDescriptorEE6$valueE",
   "self_type" : "_ZTIN7android8internal7details13IsPointerLikeIN4aidl7android8hardware5radio4data17TrafficDescriptorEE6$valueE",
   "size" : 4,
   "source_file" : "frameworks/native/libs/binder/ndk/include_cpp/android/binder_to_string.h",
   "underlying_type" : "_ZTIj"
  },
  {
   "alignment" : 4,
   "enum_fields" :
   [
    {
     "enum_field_value" : 0,
     "name" : "android::internal::details::IsPointerLike<aidl::android::hardware::radio::data::QosFilterIpv6FlowLabel>::value"
    }
   ],
   "linker_set_key" : "_ZTIN7android8internal7details13IsPointerLikeIN4aidl7android8hardware5radio4data22QosFilterIpv6FlowLabelEE6$valueE",
   "name" : "android::internal::details::IsPointerLike<aidl::android::hardware::radio::data::QosFilterIpv6FlowLabel>::(unnamed enum at frameworks/native/libs/binder/ndk/include_cpp/android/binder_to_string.h:118:5)",
   "referenced_type" : "_ZTIN7android8internal7details13IsPointerLikeIN4aidl7android8hardware5radio4data22QosFilterIpv6FlowLabelEE6$valueE",
   "self_type" : "_ZTIN7android8internal7details13IsPointerLikeIN4aidl7android8hardware5radio4data22QosFilterIpv6FlowLabelEE6$valueE",
   "size" : 4,
   "source_file" : "frameworks/native/libs/binder/ndk/include_cpp/android/binder_to_string.h",
   "underlying_type" : "_ZTIj"
  },
  {
   "alignment" : 4,
   "enum_fields" :
   [
    {
     "enum_field_value" : 0,
     "name" : "android::internal::details::IsPointerLike<aidl::android::hardware::radio::data::QosFilterTypeOfService>::value"
    }
   ],
   "linker_set_key" : "_ZTIN7android8internal7details13IsPointerLikeIN4aidl7android8hardware5radio4data22QosFilterTypeOfServiceEE6$valueE",
   "name" : "android::internal::details::IsPointerLike<aidl::android::hardware::radio::data::QosFilterTypeOfService>::(unnamed enum at frameworks/native/libs/binder/ndk/include_cpp/android/binder_to_string.h:118:5)",
   "referenced_type" : "_ZTIN7android8internal7details13IsPointerLikeIN4aidl7android8hardware5radio4data22QosFilterTypeOfServiceEE6$valueE",
   "self_type" : "_ZTIN7android8internal7details13IsPointerLikeIN4aidl7android8hardware5radio4data22QosFilterTypeOfServiceEE6$valueE",
   "size" : 4,
   "source_file" : "frameworks/native/libs/binder/ndk/include_cpp/android/binder_to_string.h",
   "underlying_type" : "_ZTIj"
  },
  {
   "alignment" : 4,
   "enum_fields" :
   [
    {
     "enum_field_value" : 0,
     "name" : "android::internal::details::IsPointerLike<aidl::android::hardware::radio::data::RouteSelectionDescriptor>::value"
    }
   ],
   "linker_set_key" : "_ZTIN7android8internal7details13IsPointerLikeIN4aidl7android8hardware5radio4data24RouteSelectionDescriptorEE6$valueE",
   "name" : "android::internal::details::IsPointerLike<aidl::android::hardware::radio::data::RouteSelectionDescriptor>::(unnamed enum at frameworks/native/libs/binder/ndk/include_cpp/android/binder_to_string.h:118:5)",
   "referenced_type" : "_ZTIN7android8internal7details13IsPointerLikeIN4aidl7android8hardware5radio4data24RouteSelectionDescriptorEE6$valueE",
   "self_type" : "_ZTIN7android8internal7details13IsPointerLikeIN4aidl7android8hardware5radio4data24RouteSelectionDescriptorEE6$valueE",
   "size" : 4,
   "source_file" : "frameworks/native/libs/binder/ndk/include_cpp/android/binder_to_string.h",
   "underlying_type" : "_ZTIj"
  },
  {
   "alignment" : 4,
   "enum_fields" :
   [
    {
     "enum_field_value" : 0,
     "name" : "android::internal::details::IsPointerLike<aidl::android::hardware::radio::data::Qos>::value"
    }
   ],
   "linker_set_key" : "_ZTIN7android8internal7details13IsPointerLikeIN4aidl7android8hardware5radio4data3QosEE6$valueE",
   "name" : "android::internal::details::IsPointerLike<aidl::android::hardware::radio::data::Qos>::(unnamed enum at frameworks/native/libs/binder/ndk/include_cpp/android/binder_to_string.h:118:5)",
   "referenced_type" : "_ZTIN7android8internal7details13IsPointerLikeIN4aidl7android8hardware5radio4data3QosEE6$valueE",
   "self_type" : "_ZTIN7android8internal7details13IsPointerLikeIN4aidl7android8hardware5radio4data3QosEE6$valueE",
   "size" : 4,
   "source_file" : "frameworks/native/libs/binder/ndk/include_cpp/android/binder_to_string.h",
   "underlying_type" : "_ZTIj"
  },
  {
   "alignment" : 4,
   "enum_fields" :
   [
    {
     "enum_field_value" : 0,
     "name" : "android::internal::details::IsPointerLike<aidl::android::hardware::radio::data::NrQos>::value"
    }
   ],
   "linker_set_key" : "_ZTIN7android8internal7details13IsPointerLikeIN4aidl7android8hardware5radio4data5NrQosEE6$valueE",
   "name" : "android::internal::details::IsPointerLike<aidl::android::hardware::radio::data::NrQos>::(unnamed enum at frameworks/native/libs/binder/ndk/include_cpp/android/binder_to_string.h:118:5)",
   "referenced_type" : "_ZTIN7android8internal7details13IsPointerLikeIN4aidl7android8hardware5radio4data5NrQosEE6$valueE",
   "self_type" : "_ZTIN7android8internal7details13IsPointerLikeIN4aidl7android8hardware5radio4data5NrQosEE6$valueE",
   "size" : 4,
   "source_file" : "frameworks/native/libs/binder/ndk/include_cpp/android/binder_to_string.h",
   "underlying_type" : "_ZTIj"
  },
  {
   "alignment" : 4,
   "enum_fields" :
   [
    {
     "enum_field_value" : 0,
     "name" : "android::internal::details::IsPointerLike<aidl::android::hardware::radio::data::EpsQos>::value"
    }
   ],
   "linker_set_key" : "_ZTIN7android8internal7details13IsPointerLikeIN4aidl7android8hardware5radio4data6EpsQosEE6$valueE",
   "name" : "android::internal::details::IsPointerLike<aidl::android::hardware::radio::data::EpsQos>::(unnamed enum at frameworks/native/libs/binder/ndk/include_cpp/android/binder_to_string.h:118:5)",
   "referenced_type" : "_ZTIN7android8internal7details13IsPointerLikeIN4aidl7android8hardware5radio4data6EpsQosEE6$valueE",
   "self_type" : "_ZTIN7android8internal7details13IsPointerLikeIN4aidl7android8hardware5radio4data6EpsQosEE6$valueE",
   "size" : 4,
   "source_file" : "frameworks/native/libs/binder/ndk/include_cpp/android/binder_to_string.h",
   "underlying_type" : "_ZTIj"
  },
  {
   "alignment" : 4,
   "enum_fields" :
   [
    {
     "enum_field_value" : 0,
     "name" : "android::internal::details::IsPointerLike<aidl::android::hardware::radio::data::OsAppId>::value"
    }
   ],
   "linker_set_key" : "_ZTIN7android8internal7details13IsPointerLikeIN4aidl7android8hardware5radio4data7OsAppIdEE6$valueE",
   "name" : "android::internal::details::IsPointerLike<aidl::android::hardware::radio::data::OsAppId>::(unnamed enum at frameworks/native/libs/binder/ndk/include_cpp/android/binder_to_string.h:118:5)",
   "referenced_type" : "_ZTIN7android8internal7details13IsPointerLikeIN4aidl7android8hardware5radio4data7OsAppIdEE6$valueE",
   "self_type" : "_ZTIN7android8internal7details13IsPointerLikeIN4aidl7android8hardware5radio4data7OsAppIdEE6$valueE",
   "size" : 4,
   "source_file" : "frameworks/native/libs/binder/ndk/include_cpp/android/binder_to_string.h",
   "underlying_type" : "_ZTIj"
  },
  {
   "alignment" : 4,
   "enum_fields" :
   [
    {
     "enum_field_value" : 0,
     "name" : "android::internal::details::IsPointerLike<aidl::android::hardware::radio::data::UrspRule>::value"
    }
   ],
   "linker_set_key" : "_ZTIN7android8internal7details13IsPointerLikeIN4aidl7android8hardware5radio4data8UrspRuleEE6$valueE",
   "name" : "android::internal::details::IsPointerLike<aidl::android::hardware::radio::data::UrspRule>::(unnamed enum at frameworks/native/libs/binder/ndk/include_cpp/android/binder_to_string.h:118:5)",
   "referenced_type" : "_ZTIN7android8internal7details13IsPointerLikeIN4aidl7android8hardware5radio4data8UrspRuleEE6$valueE",
   "self_type" : "_ZTIN7android8internal7details13IsPointerLikeIN4aidl7android8hardware5radio4data8UrspRuleEE6$valueE",
   "size" : 4,
   "source_file" : "frameworks/native/libs/binder/ndk/include_cpp/android/binder_to_string.h",
   "underlying_type" : "_ZTIj"
  },
  {
   "alignment" : 4,
   "enum_fields" :
   [
    {
     "enum_field_value" : 0,
     "name" : "android::internal::details::IsPointerLike<aidl::android::hardware::radio::data::PortRange>::value"
    }
   ],
   "linker_set_key" : "_ZTIN7android8internal7details13IsPointerLikeIN4aidl7android8hardware5radio4data9PortRangeEE6$valueE",
   "name" : "android::internal::details::IsPointerLike<aidl::android::hardware::radio::data::PortRange>::(unnamed enum at frameworks/native/libs/binder/ndk/include_cpp/android/binder_to_string.h:118:5)",
   "referenced_type" : "_ZTIN7android8internal7details13IsPointerLikeIN4aidl7android8hardware5radio4data9PortRangeEE6$valueE",
   "self_type" : "_ZTIN7android8internal7details13IsPointerLikeIN4aidl7android8hardware5radio4data9PortRangeEE6$valueE",
   "size" : 4,
   "source_file" : "frameworks/native/libs/binder/ndk/include_cpp/android/binder_to_string.h",
   "underlying_type" : "_ZTIj"
  },
  {
   "alignment" : 4,
   "enum_fields" :
   [
    {
     "enum_field_value" : 0,
     "name" : "android::internal::details::IsPointerLike<aidl::android::hardware::radio::data::QosFilter>::value"
    }
   ],
   "linker_set_key" : "_ZTIN7android8internal7details13IsPointerLikeIN4aidl7android8hardware5radio4data9QosFilterEE6$valueE",
   "name" : "android::internal::details::IsPointerLike<aidl::android::hardware::radio::data::QosFilter>::(unnamed enum at frameworks/native/libs/binder/ndk/include_cpp/android/binder_to_string.h:118:5)",
   "referenced_type" : "_ZTIN7android8internal7details13IsPointerLikeIN4aidl7android8hardware5radio4data9QosFilterEE6$valueE",
   "self_type" : "_ZTIN7android8internal7details13IsPointerLikeIN4aidl7android8hardware5radio4data9QosFilterEE6$valueE",
   "size" : 4,
   "source_file" : "frameworks/native/libs/binder/ndk/include_cpp/android/binder_to_string.h",
   "underlying_type" : "_ZTIj"
  },
  {
   "alignment" : 4,
   "enum_fields" :
   [
    {
     "enum_field_value" : 0,
     "name" : "android::internal::details::IsPointerLike<aidl::android::hardware::radio::data::SliceInfo>::value"
    }
   ],
   "linker_set_key" : "_ZTIN7android8internal7details13IsPointerLikeIN4aidl7android8hardware5radio4data9SliceInfoEE6$valueE",
   "name" : "android::internal::details::IsPointerLike<aidl::android::hardware::radio::data::SliceInfo>::(unnamed enum at frameworks/native/libs/binder/ndk/include_cpp/android/binder_to_string.h:118:5)",
   "referenced_type" : "_ZTIN7android8internal7details13IsPointerLikeIN4aidl7android8hardware5radio4data9SliceInfoEE6$valueE",
   "self_type" : "_ZTIN7android8internal7details13IsPointerLikeIN4aidl7android8hardware5radio4data9SliceInfoEE6$valueE",
   "size" : 4,
   "source_file" : "frameworks/native/libs/binder/ndk/include_cpp/android/binder_to_string.h",
   "underlying_type" : "_ZTIj"
  },
  {
   "alignment" : 4,
   "enum_fields" :
   [
    {
     "enum_field_value" : 0,
     "name" : "android::internal::details::IsPointerLike<std::vector<aidl::android::hardware::radio::data::QosSession>>::value"
    }
   ],
   "linker_set_key" : "_ZTIN7android8internal7details13IsPointerLikeINSt3__16vectorIN4aidl7android8hardware5radio4data10QosSessionENS3_9allocatorISA_EEEEE6$valueE",
   "name" : "android::internal::details::IsPointerLike<std::vector<aidl::android::hardware::radio::data::QosSession, std::allocator<aidl::android::hardware::radio::data::QosSession>>>::(unnamed enum at frameworks/native/libs/binder/ndk/include_cpp/android/binder_to_string.h:118:5)",
   "referenced_type" : "_ZTIN7android8internal7details13IsPointerLikeINSt3__16vectorIN4aidl7android8hardware5radio4data10QosSessionENS3_9allocatorISA_EEEEE6$valueE",
   "self_type" : "_ZTIN7android8internal7details13IsPointerLikeINSt3__16vectorIN4aidl7android8hardware5radio4data10QosSessionENS3_9allocatorISA_EEEEE6$valueE",
   "size" : 4,
   "source_file" : "frameworks/native/libs/binder/ndk/include_cpp/android/binder_to_string.h",
   "underlying_type" : "_ZTIj"
  },
  {
   "alignment" : 4,
   "enum_fields" :
   [
    {
     "enum_field_value" : 0,
     "name" : "android::internal::details::IsPointerLike<std::vector<aidl::android::hardware::radio::data::LinkAddress>>::value"
    }
   ],
   "linker_set_key" : "_ZTIN7android8internal7details13IsPointerLikeINSt3__16vectorIN4aidl7android8hardware5radio4data11LinkAddressENS3_9allocatorISA_EEEEE6$valueE",
   "name" : "android::internal::details::IsPointerLike<std::vector<aidl::android::hardware::radio::data::LinkAddress, std::allocator<aidl::android::hardware::radio::data::LinkAddress>>>::(unnamed enum at frameworks/native/libs/binder/ndk/include_cpp/android/binder_to_string.h:118:5)",
   "referenced_type" : "_ZTIN7android8internal7details13IsPointerLikeINSt3__16vectorIN4aidl7android8hardware5radio4data11LinkAddressENS3_9allocatorISA_EEEEE6$valueE",
   "self_type" : "_ZTIN7android8internal7details13IsPointerLikeINSt3__16vectorIN4aidl7android8hardware5radio4data11LinkAddressENS3_9allocatorISA_EEEEE6$valueE",
   "size" : 4,
   "source_file" : "frameworks/native/libs/binder/ndk/include_cpp/android/binder_to_string.h",
   "underlying_type" : "_ZTIj"
  },
  {
   "alignment" : 4,
   "enum_fields" :
   [
    {
     "enum_field_value" : 0,
     "name" : "android::internal::details::IsPointerLike<std::vector<aidl::android::hardware::radio::data::TrafficDescriptor>>::value"
    }
   ],
   "linker_set_key" : "_ZTIN7android8internal7details13IsPointerLikeINSt3__16vectorIN4aidl7android8hardware5radio4data17TrafficDescriptorENS3_9allocatorISA_EEEEE6$valueE",
   "name" : "android::internal::details::IsPointerLike<std::vector<aidl::android::hardware::radio::data::TrafficDescriptor, std::allocator<aidl::android::hardware::radio::data::TrafficDescriptor>>>::(unnamed enum at frameworks/native/libs/binder/ndk/include_cpp/android/binder_to_string.h:118:5)",
   "referenced_type" : "_ZTIN7android8internal7details13IsPointerLikeINSt3__16vectorIN4aidl7android8hardware5radio4data17TrafficDescriptorENS3_9allocatorISA_EEEEE6$valueE",
   "self_type" : "_ZTIN7android8internal7details13IsPointerLikeINSt3__16vectorIN4aidl7android8hardware5radio4data17TrafficDescriptorENS3_9allocatorISA_EEEEE6$valueE",
   "size" : 4,
   "source_file" : "frameworks/native/libs/binder/ndk/include_cpp/android/binder_to_string.h",
   "underlying_type" : "_ZTIj"
  },
  {
   "alignment" : 4,
   "enum_fields" :
   [
    {
     "enum_field_value" : 0,
     "name" : "android::internal::details::IsPointerLike<std::vector<aidl::android::hardware::radio::data::RouteSelectionDescriptor>>::value"
    }
   ],
   "linker_set_key" : "_ZTIN7android8internal7details13IsPointerLikeINSt3__16vectorIN4aidl7android8hardware5radio4data24RouteSelectionDescriptorENS3_9allocatorISA_EEEEE6$valueE",
   "name" : "android::internal::details::IsPointerLike<std::vector<aidl::android::hardware::radio::data::RouteSelectionDescriptor, std::allocator<aidl::android::hardware::radio::data::RouteSelectionDescriptor>>>::(unnamed enum at frameworks/native/libs/binder/ndk/include_cpp/android/binder_to_string.h:118:5)",
   "referenced_type" : "_ZTIN7android8internal7details13IsPointerLikeINSt3__16vectorIN4aidl7android8hardware5radio4data24RouteSelectionDescriptorENS3_9allocatorISA_EEEEE6$valueE",
   "self_type" : "_ZTIN7android8internal7details13IsPointerLikeINSt3__16vectorIN4aidl7android8hardware5radio4data24RouteSelectionDescriptorENS3_9allocatorISA_EEEEE6$valueE",
   "size" : 4,
   "source_file" : "frameworks/native/libs/binder/ndk/include_cpp/android/binder_to_string.h",
   "underlying_type" : "_ZTIj"
  },
  {
   "alignment" : 4,
   "enum_fields" :
   [
    {
     "enum_field_value" : 0,
     "name" : "android::internal::details::IsPointerLike<std::vector<aidl::android::hardware::radio::data::UrspRule>>::value"
    }
   ],
   "linker_set_key" : "_ZTIN7android8internal7details13IsPointerLikeINSt3__16vectorIN4aidl7android8hardware5radio4data8UrspRuleENS3_9allocatorISA_EEEEE6$valueE",
   "name" : "android::internal::details::IsPointerLike<std::vector<aidl::android::hardware::radio::data::UrspRule, std::allocator<aidl::android::hardware::radio::data::UrspRule>>>::(unnamed enum at frameworks/native/libs/binder/ndk/include_cpp/android/binder_to_string.h:118:5)",
   "referenced_type" : "_ZTIN7android8internal7details13IsPointerLikeINSt3__16vectorIN4aidl7android8hardware5radio4data8UrspRuleENS3_9allocatorISA_EEEEE6$valueE",
   "self_type" : "_ZTIN7android8internal7details13IsPointerLikeINSt3__16vectorIN4aidl7android8hardware5radio4data8UrspRuleENS3_9allocatorISA_EEEEE6$valueE",
   "size" : 4,
   "source_file" : "frameworks/native/libs/binder/ndk/include_cpp/android/binder_to_string.h",
   "underlying_type" : "_ZTIj"
  },
  {
   "alignment" : 4,
   "enum_fields" :
   [
    {
     "enum_field_value" : 0,
     "name" : "android::internal::details::IsPointerLike<std::vector<aidl::android::hardware::radio::data::QosFilter>>::value"
    }
   ],
   "linker_set_key" : "_ZTIN7android8internal7details13IsPointerLikeINSt3__16vectorIN4aidl7android8hardware5radio4data9QosFilterENS3_9allocatorISA_EEEEE6$valueE",
   "name" : "android::internal::details::IsPointerLike<std::vector<aidl::android::hardware::radio::data::QosFilter, std::allocator<aidl::android::hardware::radio::data::QosFilter>>>::(unnamed enum at frameworks/native/libs/binder/ndk/include_cpp/android/binder_to_string.h:118:5)",
   "referenced_type" : "_ZTIN7android8internal7details13IsPointerLikeINSt3__16vectorIN4aidl7android8hardware5radio4data9QosFilterENS3_9allocatorISA_EEEEE6$valueE",
   "self_type" : "_ZTIN7android8internal7details13IsPointerLikeINSt3__16vectorIN4aidl7android8hardware5radio4data9QosFilterENS3_9allocatorISA_EEEEE6$valueE",
   "size" : 4,
   "source_file" : "frameworks/native/libs/binder/ndk/include_cpp/android/binder_to_string.h",
   "underlying_type" : "_ZTIj"
  },
  {
   "alignment" : 4,
   "enum_fields" :
   [
    {
     "enum_field_value" : 0,
     "name" : "android::internal::details::IsPointerLike<std::vector<aidl::android::hardware::radio::data::SliceInfo>>::value"
    }
   ],
   "linker_set_key" : "_ZTIN7android8internal7details13IsPointerLikeINSt3__16vectorIN4aidl7android8hardware5radio4data9SliceInfoENS3_9allocatorISA_EEEEE6$valueE",
   "name" : "android::internal::details::IsPointerLike<std::vector<aidl::android::hardware::radio::data::SliceInfo, std::allocator<aidl::android::hardware::radio::data::SliceInfo>>>::(unnamed enum at frameworks/native/libs/binder/ndk/include_cpp/android/binder_to_string.h:118:5)",
   "referenced_type" : "_ZTIN7android8internal7details13IsPointerLikeINSt3__16vectorIN4aidl7android8hardware5radio4data9SliceInfoENS3_9allocatorISA_EEEEE6$valueE",
   "self_type" : "_ZTIN7android8internal7details13IsPointerLikeINSt3__16vectorIN4aidl7android8hardware5radio4data9SliceInfoENS3_9allocatorISA_EEEEE6$valueE",
   "size" : 4,
   "source_file" : "frameworks/native/libs/binder/ndk/include_cpp/android/binder_to_string.h",
   "underlying_type" : "_ZTIj"
  },
  {
   "alignment" : 4,
   "enum_fields" :
   [
    {
     "enum_field_value" : 0,
     "name" : "android::internal::details::IsPointerLike<std::vector<std::basic_string<char>>>::value"
    }
   ],
   "linker_set_key" : "_ZTIN7android8internal7details13IsPointerLikeINSt3__16vectorINS3_12basic_stringIcNS3_11char_traitsIcEENS3_9allocatorIcEEEENS8_ISA_EEEEE6$valueE",
   "name" : "android::internal::details::IsPointerLike<std::vector<std::basic_string<char, std::char_traits<char>, std::allocator<char>>, std::allocator<std::basic_string<char, std::char_traits<char>, std::allocator<char>>>>>::(unnamed enum at frameworks/native/libs/binder/ndk/include_cpp/android/binder_to_string.h:118:5)",
   "referenced_type" : "_ZTIN7android8internal7details13IsPointerLikeINSt3__16vectorINS3_12basic_stringIcNS3_11char_traitsIcEENS3_9allocatorIcEEEENS8_ISA_EEEEE6$valueE",
   "self_type" : "_ZTIN7android8internal7details13IsPointerLikeINSt3__16vectorINS3_12basic_stringIcNS3_11char_traitsIcEENS3_9allocatorIcEEEENS8_ISA_EEEEE6$valueE",
   "size" : 4,
   "source_file" : "frameworks/native/libs/binder/ndk/include_cpp/android/binder_to_string.h",
   "underlying_type" : "_ZTIj"
  },
  {
   "alignment" : 4,
   "enum_fields" :
   [
    {
     "enum_field_value" : 0,
     "name" : "android::internal::details::IsPointerLike<std::vector<unsigned char>>::value"
    }
   ],
   "linker_set_key" : "_ZTIN7android8internal7details13IsPointerLikeINSt3__16vectorIhNS3_9allocatorIhEEEEE6$valueE",
   "name" : "android::internal::details::IsPointerLike<std::vector<unsigned char, std::allocator<unsigned char>>>::(unnamed enum at frameworks/native/libs/binder/ndk/include_cpp/android/binder_to_string.h:118:5)",
   "referenced_type" : "_ZTIN7android8internal7details13IsPointerLikeINSt3__16vectorIhNS3_9allocatorIhEEEEE6$valueE",
   "self_type" : "_ZTIN7android8internal7details13IsPointerLikeINSt3__16vectorIhNS3_9allocatorIhEEEEE6$valueE",
   "size" : 4,
   "source_file" : "frameworks/native/libs/binder/ndk/include_cpp/android/binder_to_string.h",
   "underlying_type" : "_ZTIj"
  },
  {
   "alignment" : 4,
   "enum_fields" :
   [
    {
     "enum_field_value" : 1,
     "name" : "android::internal::details::IsPointerLike<std::optional<aidl::android::hardware::radio::data::OsAppId>>::value"
    }
   ],
   "linker_set_key" : "_ZTIN7android8internal7details13IsPointerLikeINSt3__18optionalIN4aidl7android8hardware5radio4data7OsAppIdEEEE6$valueE",
   "name" : "android::internal::details::IsPointerLike<std::optional<aidl::android::hardware::radio::data::OsAppId>>::(unnamed enum at frameworks/native/libs/binder/ndk/include_cpp/android/binder_to_string.h:118:5)",
   "referenced_type" : "_ZTIN7android8internal7details13IsPointerLikeINSt3__18optionalIN4aidl7android8hardware5radio4data7OsAppIdEEEE6$valueE",
   "self_type" : "_ZTIN7android8internal7details13IsPointerLikeINSt3__18optionalIN4aidl7android8hardware5radio4data7OsAppIdEEEE6$valueE",
   "size" : 4,
   "source_file" : "frameworks/native/libs/binder/ndk/include_cpp/android/binder_to_string.h",
   "underlying_type" : "_ZTIj"
  },
  {
   "alignment" : 4,
   "enum_fields" :
   [
    {
     "enum_field_value" : 1,
     "name" : "android::internal::details::IsPointerLike<std::optional<aidl::android::hardware::radio::data::PortRange>>::value"
    }
   ],
   "linker_set_key" : "_ZTIN7android8internal7details13IsPointerLikeINSt3__18optionalIN4aidl7android8hardware5radio4data9PortRangeEEEE6$valueE",
   "name" : "android::internal::details::IsPointerLike<std::optional<aidl::android::hardware::radio::data::PortRange>>::(unnamed enum at frameworks/native/libs/binder/ndk/include_cpp/android/binder_to_string.h:118:5)",
   "referenced_type" : "_ZTIN7android8internal7details13IsPointerLikeINSt3__18optionalIN4aidl7android8hardware5radio4data9PortRangeEEEE6$valueE",
   "self_type" : "_ZTIN7android8internal7details13IsPointerLikeINSt3__18optionalIN4aidl7android8hardware5radio4data9PortRangeEEEE6$valueE",
   "size" : 4,
   "source_file" : "frameworks/native/libs/binder/ndk/include_cpp/android/binder_to_string.h",
   "underlying_type" : "_ZTIj"
  },
  {
   "alignment" : 4,
   "enum_fields" :
   [
    {
     "enum_field_value" : 1,
     "name" : "android::internal::details::IsPointerLike<std::optional<aidl::android::hardware::radio::data::SliceInfo>>::value"
    }
   ],
   "linker_set_key" : "_ZTIN7android8internal7details13IsPointerLikeINSt3__18optionalIN4aidl7android8hardware5radio4data9SliceInfoEEEE6$valueE",
   "name" : "android::internal::details::IsPointerLike<std::optional<aidl::android::hardware::radio::data::SliceInfo>>::(unnamed enum at frameworks/native/libs/binder/ndk/include_cpp/android/binder_to_string.h:118:5)",
   "referenced_type" : "_ZTIN7android8internal7details13IsPointerLikeINSt3__18optionalIN4aidl7android8hardware5radio4data9SliceInfoEEEE6$valueE",
   "self_type" : "_ZTIN7android8internal7details13IsPointerLikeINSt3__18optionalIN4aidl7android8hardware5radio4data9SliceInfoEEEE6$valueE",
   "size" : 4,
   "source_file" : "frameworks/native/libs/binder/ndk/include_cpp/android/binder_to_string.h",
   "underlying_type" : "_ZTIj"
  },
  {
   "alignment" : 4,
   "enum_fields" :
   [
    {
     "enum_field_value" : 1,
     "name" : "android::internal::details::IsPointerLike<std::optional<std::basic_string<char>>>::value"
    }
   ],
   "linker_set_key" : "_ZTIN7android8internal7details13IsPointerLikeINSt3__18optionalINS3_12basic_stringIcNS3_11char_traitsIcEENS3_9allocatorIcEEEEEEE6$valueE",
   "name" : "android::internal::details::IsPointerLike<std::optional<std::basic_string<char, std::char_traits<char>, std::allocator<char>>>>::(unnamed enum at frameworks/native/libs/binder/ndk/include_cpp/android/binder_to_string.h:118:5)",
   "referenced_type" : "_ZTIN7android8internal7details13IsPointerLikeINSt3__18optionalINS3_12basic_stringIcNS3_11char_traitsIcEENS3_9allocatorIcEEEEEEE6$valueE",
   "self_type" : "_ZTIN7android8internal7details13IsPointerLikeINSt3__18optionalINS3_12basic_stringIcNS3_11char_traitsIcEENS3_9allocatorIcEEEEEEE6$valueE",
   "size" : 4,
   "source_file" : "frameworks/native/libs/binder/ndk/include_cpp/android/binder_to_string.h",
   "underlying_type" : "_ZTIj"
  },
  {
   "alignment" : 4,
   "enum_fields" :
   [
    {
     "enum_field_value" : 0,
     "name" : "android::internal::details::ToEmptyString<char16_t>::value"
    }
   ],
   "linker_set_key" : "_ZTIN7android8internal7details13ToEmptyStringIDsE6$valueE",
   "name" : "android::internal::details::ToEmptyString<char16_t>::(unnamed enum at frameworks/native/libs/binder/ndk/include_cpp/android/binder_to_string.h:153:5)",
   "referenced_type" : "_ZTIN7android8internal7details13ToEmptyStringIDsE6$valueE",
   "self_type" : "_ZTIN7android8internal7details13ToEmptyStringIDsE6$valueE",
   "size" : 4,
   "source_file" : "frameworks/native/libs/binder/ndk/include_cpp/android/binder_to_string.h",
   "underlying_type" : "_ZTIj"
  },
  {
   "alignment" : 4,
   "enum_fields" :
   [
    {
     "enum_field_value" : 0,
     "name" : "android::internal::details::ToEmptyString<aidl::android::hardware::radio::RadioError>::value"
    }
   ],
   "linker_set_key" : "_ZTIN7android8internal7details13ToEmptyStringIN4aidl7android8hardware5radio10RadioErrorEE6$valueE",
   "name" : "android::internal::details::ToEmptyString<aidl::android::hardware::radio::RadioError>::(unnamed enum at frameworks/native/libs/binder/ndk/include_cpp/android/binder_to_string.h:153:5)",
   "referenced_type" : "_ZTIN7android8internal7details13ToEmptyStringIN4aidl7android8hardware5radio10RadioErrorEE6$valueE",
   "self_type" : "_ZTIN7android8internal7details13ToEmptyStringIN4aidl7android8hardware5radio10RadioErrorEE6$valueE",
   "size" : 4,
   "source_file" : "frameworks/native/libs/binder/ndk/include_cpp/android/binder_to_string.h",
   "underlying_type" : "_ZTIj"
  },
  {
   "alignment" : 4,
   "enum_fields" :
   [
    {
     "enum_field_value" : 0,
     "name" : "android::internal::details::ToEmptyString<aidl::android::hardware::radio::RadioResponseType>::value"
    }
   ],
   "linker_set_key" : "_ZTIN7android8internal7details13ToEmptyStringIN4aidl7android8hardware5radio17RadioResponseTypeEE6$valueE",
   "name" : "android::internal::details::ToEmptyString<aidl::android::hardware::radio::RadioResponseType>::(unnamed enum at frameworks/native/libs/binder/ndk/include_cpp/android/binder_to_string.h:153:5)",
   "referenced_type" : "_ZTIN7android8internal7details13ToEmptyStringIN4aidl7android8hardware5radio17RadioResponseTypeEE6$valueE",
   "self_type" : "_ZTIN7android8internal7details13ToEmptyStringIN4aidl7android8hardware5radio17RadioResponseTypeEE6$valueE",
   "size" : 4,
   "source_file" : "frameworks/native/libs/binder/ndk/include_cpp/android/binder_to_string.h",
   "underlying_type" : "_ZTIj"
  },
  {
   "alignment" : 4,
   "enum_fields" :
   [
    {
     "enum_field_value" : 0,
     "name" : "android::internal::details::ToEmptyString<aidl::android::hardware::radio::data::QosSession>::value"
    }
   ],
   "linker_set_key" : "_ZTIN7android8internal7details13ToEmptyStringIN4aidl7android8hardware5radio4data10QosSessionEE6$valueE",
   "name" : "android::internal::details::ToEmptyString<aidl::android::hardware::radio::data::QosSession>::(unnamed enum at frameworks/native/libs/binder/ndk/include_cpp/android/binder_to_string.h:153:5)",
   "referenced_type" : "_ZTIN7android8internal7details13ToEmptyStringIN4aidl7android8hardware5radio4data10QosSessionEE6$valueE",
   "self_type" : "_ZTIN7android8internal7details13ToEmptyStringIN4aidl7android8hardware5radio4data10QosSessionEE6$valueE",
   "size" : 4,
   "source_file" : "frameworks/native/libs/binder/ndk/include_cpp/android/binder_to_string.h",
   "underlying_type" : "_ZTIj"
  },
  {
   "alignment" : 4,
   "enum_fields" :
   [
    {
     "enum_field_value" : 0,
     "name" : "android::internal::details::ToEmptyString<aidl::android::hardware::radio::data::ApnAuthType>::value"
    }
   ],
   "linker_set_key" : "_ZTIN7android8internal7details13ToEmptyStringIN4aidl7android8hardware5radio4data11ApnAuthTypeEE6$valueE",
   "name" : "android::internal::details::ToEmptyString<aidl::android::hardware::radio::data::ApnAuthType>::(unnamed enum at frameworks/native/libs/binder/ndk/include_cpp/android/binder_to_string.h:153:5)",
   "referenced_type" : "_ZTIN7android8internal7details13ToEmptyStringIN4aidl7android8hardware5radio4data11ApnAuthTypeEE6$valueE",
   "self_type" : "_ZTIN7android8internal7details13ToEmptyStringIN4aidl7android8hardware5radio4data11ApnAuthTypeEE6$valueE",
   "size" : 4,
   "source_file" : "frameworks/native/libs/binder/ndk/include_cpp/android/binder_to_string.h",
   "underlying_type" : "_ZTIj"
  },
  {
   "alignment" : 4,
   "enum_fields" :
   [
    {
     "enum_field_value" : 0,
     "name" : "android::internal::details::ToEmptyString<aidl::android::hardware::radio::data::LinkAddress>::value"
    }
   ],
   "linker_set_key" : "_ZTIN7android8internal7details13ToEmptyStringIN4aidl7android8hardware5radio4data11LinkAddressEE6$valueE",
   "name" : "android::internal::details::ToEmptyString<aidl::android::hardware::radio::data::LinkAddress>::(unnamed enum at frameworks/native/libs/binder/ndk/include_cpp/android/binder_to_string.h:153:5)",
   "referenced_type" : "_ZTIN7android8internal7details13ToEmptyStringIN4aidl7android8hardware5radio4data11LinkAddressEE6$valueE",
   "self_type" : "_ZTIN7android8internal7details13ToEmptyStringIN4aidl7android8hardware5radio4data11LinkAddressEE6$valueE",
   "size" : 4,
   "source_file" : "frameworks/native/libs/binder/ndk/include_cpp/android/binder_to_string.h",
   "underlying_type" : "_ZTIj"
  },
  {
   "alignment" : 4,
   "enum_fields" :
   [
    {
     "enum_field_value" : 0,
     "name" : "android::internal::details::ToEmptyString<aidl::android::hardware::radio::data::QosBandwidth>::value"
    }
   ],
   "linker_set_key" : "_ZTIN7android8internal7details13ToEmptyStringIN4aidl7android8hardware5radio4data12QosBandwidthEE6$valueE",
   "name" : "android::internal::details::ToEmptyString<aidl::android::hardware::radio::data::QosBandwidth>::(unnamed enum at frameworks/native/libs/binder/ndk/include_cpp/android/binder_to_string.h:153:5)",
   "referenced_type" : "_ZTIN7android8internal7details13ToEmptyStringIN4aidl7android8hardware5radio4data12QosBandwidthEE6$valueE",
   "self_type" : "_ZTIN7android8internal7details13ToEmptyStringIN4aidl7android8hardware5radio4data12QosBandwidthEE6$valueE",
   "size" : 4,
   "source_file" : "frameworks/native/libs/binder/ndk/include_cpp/android/binder_to_string.h",
   "underlying_type" : "_ZTIj"
  },
  {
   "alignment" : 4,
   "enum_fields" :
   [
    {
     "enum_field_value" : 0,
     "name" : "android::internal::details::ToEmptyString<aidl::android::hardware::radio::data::PdpProtocolType>::value"
    }
   ],
   "linker_set_key" : "_ZTIN7android8internal7details13ToEmptyStringIN4aidl7android8hardware5radio4data15PdpProtocolTypeEE6$valueE",
   "name" : "android::internal::details::ToEmptyString<aidl::android::hardware::radio::data::PdpProtocolType>::(unnamed enum at frameworks/native/libs/binder/ndk/include_cpp/android/binder_to_string.h:153:5)",
   "referenced_type" : "_ZTIN7android8internal7details13ToEmptyStringIN4aidl7android8hardware5radio4data15PdpProtocolTypeEE6$valueE",
   "self_type" : "_ZTIN7android8internal7details13ToEmptyStringIN4aidl7android8hardware5radio4data15PdpProtocolTypeEE6$valueE",
   "size" : 4,
   "source_file" : "frameworks/native/libs/binder/ndk/include_cpp/android/binder_to_string.h",
   "underlying_type" : "_ZTIj"
  },
  {
   "alignment" : 4,
   "enum_fields" :
   [
    {
     "enum_field_value" : 0,
     "name" : "android::internal::details::ToEmptyString<aidl::android::hardware::radio::data::DataCallFailCause>::value"
    }
   ],
   "linker_set_key" : "_ZTIN7android8internal7details13ToEmptyStringIN4aidl7android8hardware5radio4data17DataCallFailCauseEE6$valueE",
   "name" : "android::internal::details::ToEmptyString<aidl::android::hardware::radio::data::DataCallFailCause>::(unnamed enum at frameworks/native/libs/binder/ndk/include_cpp/android/binder_to_string.h:153:5)",
   "referenced_type" : "_ZTIN7android8internal7details13ToEmptyStringIN4aidl7android8hardware5radio4data17DataCallFailCauseEE6$valueE",
   "self_type" : "_ZTIN7android8internal7details13ToEmptyStringIN4aidl7android8hardware5radio4data17DataCallFailCauseEE6$valueE",
   "size" : 4,
   "source_file" : "frameworks/native/libs/binder/ndk/include_cpp/android/binder_to_string.h",
   "underlying_type" : "_ZTIj"
  },
  {
   "alignment" : 4,
   "enum_fields" :
   [
    {
     "enum_field_value" : 0,
     "name" : "android::internal::details::ToEmptyString<aidl::android::hardware::radio::data::QosFilterIpsecSpi>::value"
    }
   ],
   "linker_set_key" : "_ZTIN7android8internal7details13ToEmptyStringIN4aidl7android8hardware5radio4data17QosFilterIpsecSpiEE6$valueE",
   "name" : "android::internal::details::ToEmptyString<aidl::android::hardware::radio::data::QosFilterIpsecSpi>::(unnamed enum at frameworks/native/libs/binder/ndk/include_cpp/android/binder_to_string.h:153:5)",
   "referenced_type" : "_ZTIN7android8internal7details13ToEmptyStringIN4aidl7android8hardware5radio4data17QosFilterIpsecSpiEE6$valueE",
   "self_type" : "_ZTIN7android8internal7details13ToEmptyStringIN4aidl7android8hardware5radio4data17QosFilterIpsecSpiEE6$valueE",
   "size" : 4,
   "source_file" : "frameworks/native/libs/binder/ndk/include_cpp/android/binder_to_string.h",
   "underlying_type" : "_ZTIj"
  },
  {
   "alignment" : 4,
   "enum_fields" :
   [
    {
     "enum_field_value" : 0,
     "name" : "android::internal::details::ToEmptyString<aidl::android::hardware::radio::data::TrafficDescriptor>::value"
    }
   ],
   "linker_set_key" : "_ZTIN7android8internal7details13ToEmptyStringIN4aidl7android8hardware5radio4data17TrafficDescriptorEE6$valueE",
   "name" : "android::internal::details::ToEmptyString<aidl::android::hardware::radio::data::TrafficDescriptor>::(unnamed enum at frameworks/native/libs/binder/ndk/include_cpp/android/binder_to_string.h:153:5)",
   "referenced_type" : "_ZTIN7android8internal7details13ToEmptyStringIN4aidl7android8hardware5radio4data17TrafficDescriptorEE6$valueE",
   "self_type" : "_ZTIN7android8internal7details13ToEmptyStringIN4aidl7android8hardware5radio4data17TrafficDescriptorEE6$valueE",
   "size" : 4,
   "source_file" : "frameworks/native/libs/binder/ndk/include_cpp/android/binder_to_string.h",
   "underlying_type" : "_ZTIj"
  },
  {
   "alignment" : 4,
   "enum_fields" :
   [
    {
     "enum_field_value" : 0,
     "name" : "android::internal::details::ToEmptyString<aidl::android::hardware::radio::data::QosFilterIpv6FlowLabel>::value"
    }
   ],
   "linker_set_key" : "_ZTIN7android8internal7details13ToEmptyStringIN4aidl7android8hardware5radio4data22QosFilterIpv6FlowLabelEE6$valueE",
   "name" : "android::internal::details::ToEmptyString<aidl::android::hardware::radio::data::QosFilterIpv6FlowLabel>::(unnamed enum at frameworks/native/libs/binder/ndk/include_cpp/android/binder_to_string.h:153:5)",
   "referenced_type" : "_ZTIN7android8internal7details13ToEmptyStringIN4aidl7android8hardware5radio4data22QosFilterIpv6FlowLabelEE6$valueE",
   "self_type" : "_ZTIN7android8internal7details13ToEmptyStringIN4aidl7android8hardware5radio4data22QosFilterIpv6FlowLabelEE6$valueE",
   "size" : 4,
   "source_file" : "frameworks/native/libs/binder/ndk/include_cpp/android/binder_to_string.h",
   "underlying_type" : "_ZTIj"
  },
  {
   "alignment" : 4,
   "enum_fields" :
   [
    {
     "enum_field_value" : 0,
     "name" : "android::internal::details::ToEmptyString<aidl::android::hardware::radio::data::QosFilterTypeOfService>::value"
    }
   ],
   "linker_set_key" : "_ZTIN7android8internal7details13ToEmptyStringIN4aidl7android8hardware5radio4data22QosFilterTypeOfServiceEE6$valueE",
   "name" : "android::internal::details::ToEmptyString<aidl::android::hardware::radio::data::QosFilterTypeOfService>::(unnamed enum at frameworks/native/libs/binder/ndk/include_cpp/android/binder_to_string.h:153:5)",
   "referenced_type" : "_ZTIN7android8internal7details13ToEmptyStringIN4aidl7android8hardware5radio4data22QosFilterTypeOfServiceEE6$valueE",
   "self_type" : "_ZTIN7android8internal7details13ToEmptyStringIN4aidl7android8hardware5radio4data22QosFilterTypeOfServiceEE6$valueE",
   "size" : 4,
   "source_file" : "frameworks/native/libs/binder/ndk/include_cpp/android/binder_to_string.h",
   "underlying_type" : "_ZTIj"
  },
  {
   "alignment" : 4,
   "enum_fields" :
   [
    {
     "enum_field_value" : 0,
     "name" : "android::internal::details::ToEmptyString<aidl::android::hardware::radio::data::RouteSelectionDescriptor>::value"
    }
   ],
   "linker_set_key" : "_ZTIN7android8internal7details13ToEmptyStringIN4aidl7android8hardware5radio4data24RouteSelectionDescriptorEE6$valueE",
   "name" : "android::internal::details::ToEmptyString<aidl::android::hardware::radio::data::RouteSelectionDescriptor>::(unnamed enum at frameworks/native/libs/binder/ndk/include_cpp/android/binder_to_string.h:153:5)",
   "referenced_type" : "_ZTIN7android8internal7details13ToEmptyStringIN4aidl7android8hardware5radio4data24RouteSelectionDescriptorEE6$valueE",
   "self_type" : "_ZTIN7android8internal7details13ToEmptyStringIN4aidl7android8hardware5radio4data24RouteSelectionDescriptorEE6$valueE",
   "size" : 4,
   "source_file" : "frameworks/native/libs/binder/ndk/include_cpp/android/binder_to_string.h",
   "underlying_type" : "_ZTIj"
  },
  {
   "alignment" : 4,
   "enum_fields" :
   [
    {
     "enum_field_value" : 0,
     "name" : "android::internal::details::ToEmptyString<aidl::android::hardware::radio::data::Qos>::value"
    }
   ],
   "linker_set_key" : "_ZTIN7android8internal7details13ToEmptyStringIN4aidl7android8hardware5radio4data3QosEE6$valueE",
   "name" : "android::internal::details::ToEmptyString<aidl::android::hardware::radio::data::Qos>::(unnamed enum at frameworks/native/libs/binder/ndk/include_cpp/android/binder_to_string.h:153:5)",
   "referenced_type" : "_ZTIN7android8internal7details13ToEmptyStringIN4aidl7android8hardware5radio4data3QosEE6$valueE",
   "self_type" : "_ZTIN7android8internal7details13ToEmptyStringIN4aidl7android8hardware5radio4data3QosEE6$valueE",
   "size" : 4,
   "source_file" : "frameworks/native/libs/binder/ndk/include_cpp/android/binder_to_string.h",
   "underlying_type" : "_ZTIj"
  },
  {
   "alignment" : 4,
   "enum_fields" :
   [
    {
     "enum_field_value" : 0,
     "name" : "android::internal::details::ToEmptyString<aidl::android::hardware::radio::data::NrQos>::value"
    }
   ],
   "linker_set_key" : "_ZTIN7android8internal7details13ToEmptyStringIN4aidl7android8hardware5radio4data5NrQosEE6$valueE",
   "name" : "android::internal::details::ToEmptyString<aidl::android::hardware::radio::data::NrQos>::(unnamed enum at frameworks/native/libs/binder/ndk/include_cpp/android/binder_to_string.h:153:5)",
   "referenced_type" : "_ZTIN7android8internal7details13ToEmptyStringIN4aidl7android8hardware5radio4data5NrQosEE6$valueE",
   "self_type" : "_ZTIN7android8internal7details13ToEmptyStringIN4aidl7android8hardware5radio4data5NrQosEE6$valueE",
   "size" : 4,
   "source_file" : "frameworks/native/libs/binder/ndk/include_cpp/android/binder_to_string.h",
   "underlying_type" : "_ZTIj"
  },
  {
   "alignment" : 4,
   "enum_fields" :
   [
    {
     "enum_field_value" : 0,
     "name" : "android::internal::details::ToEmptyString<aidl::android::hardware::radio::data::EpsQos>::value"
    }
   ],
   "linker_set_key" : "_ZTIN7android8internal7details13ToEmptyStringIN4aidl7android8hardware5radio4data6EpsQosEE6$valueE",
   "name" : "android::internal::details::ToEmptyString<aidl::android::hardware::radio::data::EpsQos>::(unnamed enum at frameworks/native/libs/binder/ndk/include_cpp/android/binder_to_string.h:153:5)",
   "referenced_type" : "_ZTIN7android8internal7details13ToEmptyStringIN4aidl7android8hardware5radio4data6EpsQosEE6$valueE",
   "self_type" : "_ZTIN7android8internal7details13ToEmptyStringIN4aidl7android8hardware5radio4data6EpsQosEE6$valueE",
   "size" : 4,
   "source_file" : "frameworks/native/libs/binder/ndk/include_cpp/android/binder_to_string.h",
   "underlying_type" : "_ZTIj"
  },
  {
   "alignment" : 4,
   "enum_fields" :
   [
    {
     "enum_field_value" : 0,
     "name" : "android::internal::details::ToEmptyString<aidl::android::hardware::radio::data::OsAppId>::value"
    }
   ],
   "linker_set_key" : "_ZTIN7android8internal7details13ToEmptyStringIN4aidl7android8hardware5radio4data7OsAppIdEE6$valueE",
   "name" : "android::internal::details::ToEmptyString<aidl::android::hardware::radio::data::OsAppId>::(unnamed enum at frameworks/native/libs/binder/ndk/include_cpp/android/binder_to_string.h:153:5)",
   "referenced_type" : "_ZTIN7android8internal7details13ToEmptyStringIN4aidl7android8hardware5radio4data7OsAppIdEE6$valueE",
   "self_type" : "_ZTIN7android8internal7details13ToEmptyStringIN4aidl7android8hardware5radio4data7OsAppIdEE6$valueE",
   "size" : 4,
   "source_file" : "frameworks/native/libs/binder/ndk/include_cpp/android/binder_to_string.h",
   "underlying_type" : "_ZTIj"
  },
  {
   "alignment" : 4,
   "enum_fields" :
   [
    {
     "enum_field_value" : 0,
     "name" : "android::internal::details::ToEmptyString<aidl::android::hardware::radio::data::UrspRule>::value"
    }
   ],
   "linker_set_key" : "_ZTIN7android8internal7details13ToEmptyStringIN4aidl7android8hardware5radio4data8UrspRuleEE6$valueE",
   "name" : "android::internal::details::ToEmptyString<aidl::android::hardware::radio::data::UrspRule>::(unnamed enum at frameworks/native/libs/binder/ndk/include_cpp/android/binder_to_string.h:153:5)",
   "referenced_type" : "_ZTIN7android8internal7details13ToEmptyStringIN4aidl7android8hardware5radio4data8UrspRuleEE6$valueE",
   "self_type" : "_ZTIN7android8internal7details13ToEmptyStringIN4aidl7android8hardware5radio4data8UrspRuleEE6$valueE",
   "size" : 4,
   "source_file" : "frameworks/native/libs/binder/ndk/include_cpp/android/binder_to_string.h",
   "underlying_type" : "_ZTIj"
  },
  {
   "alignment" : 4,
   "enum_fields" :
   [
    {
     "enum_field_value" : 0,
     "name" : "android::internal::details::ToEmptyString<aidl::android::hardware::radio::data::PortRange>::value"
    }
   ],
   "linker_set_key" : "_ZTIN7android8internal7details13ToEmptyStringIN4aidl7android8hardware5radio4data9PortRangeEE6$valueE",
   "name" : "android::internal::details::ToEmptyString<aidl::android::hardware::radio::data::PortRange>::(unnamed enum at frameworks/native/libs/binder/ndk/include_cpp/android/binder_to_string.h:153:5)",
   "referenced_type" : "_ZTIN7android8internal7details13ToEmptyStringIN4aidl7android8hardware5radio4data9PortRangeEE6$valueE",
   "self_type" : "_ZTIN7android8internal7details13ToEmptyStringIN4aidl7android8hardware5radio4data9PortRangeEE6$valueE",
   "size" : 4,
   "source_file" : "frameworks/native/libs/binder/ndk/include_cpp/android/binder_to_string.h",
   "underlying_type" : "_ZTIj"
  },
  {
   "alignment" : 4,
   "enum_fields" :
   [
    {
     "enum_field_value" : 0,
     "name" : "android::internal::details::ToEmptyString<aidl::android::hardware::radio::data::QosFilter>::value"
    }
   ],
   "linker_set_key" : "_ZTIN7android8internal7details13ToEmptyStringIN4aidl7android8hardware5radio4data9QosFilterEE6$valueE",
   "name" : "android::internal::details::ToEmptyString<aidl::android::hardware::radio::data::QosFilter>::(unnamed enum at frameworks/native/libs/binder/ndk/include_cpp/android/binder_to_string.h:153:5)",
   "referenced_type" : "_ZTIN7android8internal7details13ToEmptyStringIN4aidl7android8hardware5radio4data9QosFilterEE6$valueE",
   "self_type" : "_ZTIN7android8internal7details13ToEmptyStringIN4aidl7android8hardware5radio4data9QosFilterEE6$valueE",
   "size" : 4,
   "source_file" : "frameworks/native/libs/binder/ndk/include_cpp/android/binder_to_string.h",
   "underlying_type" : "_ZTIj"
  },
  {
   "alignment" : 4,
   "enum_fields" :
   [
    {
     "enum_field_value" : 0,
     "name" : "android::internal::details::ToEmptyString<aidl::android::hardware::radio::data::SliceInfo>::value"
    }
   ],
   "linker_set_key" : "_ZTIN7android8internal7details13ToEmptyStringIN4aidl7android8hardware5radio4data9SliceInfoEE6$valueE",
   "name" : "android::internal::details::ToEmptyString<aidl::android::hardware::radio::data::SliceInfo>::(unnamed enum at frameworks/native/libs/binder/ndk/include_cpp/android/binder_to_string.h:153:5)",
   "referenced_type" : "_ZTIN7android8internal7details13ToEmptyStringIN4aidl7android8hardware5radio4data9SliceInfoEE6$valueE",
   "self_type" : "_ZTIN7android8internal7details13ToEmptyStringIN4aidl7android8hardware5radio4data9SliceInfoEE6$valueE",
   "size" : 4,
   "source_file" : "frameworks/native/libs/binder/ndk/include_cpp/android/binder_to_string.h",
   "underlying_type" : "_ZTIj"
  },
  {
   "alignment" : 4,
   "enum_fields" :
   [
    {
     "enum_field_value" : 0,
     "name" : "android::internal::details::ToEmptyString<std::basic_string<char>>::value"
    }
   ],
   "linker_set_key" : "_ZTIN7android8internal7details13ToEmptyStringINSt3__112basic_stringIcNS3_11char_traitsIcEENS3_9allocatorIcEEEEE6$valueE",
   "name" : "android::internal::details::ToEmptyString<std::basic_string<char, std::char_traits<char>, std::allocator<char>>>::(unnamed enum at frameworks/native/libs/binder/ndk/include_cpp/android/binder_to_string.h:153:5)",
   "referenced_type" : "_ZTIN7android8internal7details13ToEmptyStringINSt3__112basic_stringIcNS3_11char_traitsIcEENS3_9allocatorIcEEEEE6$valueE",
   "self_type" : "_ZTIN7android8internal7details13ToEmptyStringINSt3__112basic_stringIcNS3_11char_traitsIcEENS3_9allocatorIcEEEEE6$valueE",
   "size" : 4,
   "source_file" : "frameworks/native/libs/binder/ndk/include_cpp/android/binder_to_string.h",
   "underlying_type" : "_ZTIj"
  },
  {
   "alignment" : 4,
   "enum_fields" :
   [
    {
     "enum_field_value" : 0,
     "name" : "android::internal::details::ToEmptyString<std::vector<aidl::android::hardware::radio::data::QosSession>>::value"
    }
   ],
   "linker_set_key" : "_ZTIN7android8internal7details13ToEmptyStringINSt3__16vectorIN4aidl7android8hardware5radio4data10QosSessionENS3_9allocatorISA_EEEEE6$valueE",
   "name" : "android::internal::details::ToEmptyString<std::vector<aidl::android::hardware::radio::data::QosSession, std::allocator<aidl::android::hardware::radio::data::QosSession>>>::(unnamed enum at frameworks/native/libs/binder/ndk/include_cpp/android/binder_to_string.h:153:5)",
   "referenced_type" : "_ZTIN7android8internal7details13ToEmptyStringINSt3__16vectorIN4aidl7android8hardware5radio4data10QosSessionENS3_9allocatorISA_EEEEE6$valueE",
   "self_type" : "_ZTIN7android8internal7details13ToEmptyStringINSt3__16vectorIN4aidl7android8hardware5radio4data10QosSessionENS3_9allocatorISA_EEEEE6$valueE",
   "size" : 4,
   "source_file" : "frameworks/native/libs/binder/ndk/include_cpp/android/binder_to_string.h",
   "underlying_type" : "_ZTIj"
  },
  {
   "alignment" : 4,
   "enum_fields" :
   [
    {
     "enum_field_value" : 0,
     "name" : "android::internal::details::ToEmptyString<std::vector<aidl::android::hardware::radio::data::LinkAddress>>::value"
    }
   ],
   "linker_set_key" : "_ZTIN7android8internal7details13ToEmptyStringINSt3__16vectorIN4aidl7android8hardware5radio4data11LinkAddressENS3_9allocatorISA_EEEEE6$valueE",
   "name" : "android::internal::details::ToEmptyString<std::vector<aidl::android::hardware::radio::data::LinkAddress, std::allocator<aidl::android::hardware::radio::data::LinkAddress>>>::(unnamed enum at frameworks/native/libs/binder/ndk/include_cpp/android/binder_to_string.h:153:5)",
   "referenced_type" : "_ZTIN7android8internal7details13ToEmptyStringINSt3__16vectorIN4aidl7android8hardware5radio4data11LinkAddressENS3_9allocatorISA_EEEEE6$valueE",
   "self_type" : "_ZTIN7android8internal7details13ToEmptyStringINSt3__16vectorIN4aidl7android8hardware5radio4data11LinkAddressENS3_9allocatorISA_EEEEE6$valueE",
   "size" : 4,
   "source_file" : "frameworks/native/libs/binder/ndk/include_cpp/android/binder_to_string.h",
   "underlying_type" : "_ZTIj"
  },
  {
   "alignment" : 4,
   "enum_fields" :
   [
    {
     "enum_field_value" : 0,
     "name" : "android::internal::details::ToEmptyString<std::vector<aidl::android::hardware::radio::data::TrafficDescriptor>>::value"
    }
   ],
   "linker_set_key" : "_ZTIN7android8internal7details13ToEmptyStringINSt3__16vectorIN4aidl7android8hardware5radio4data17TrafficDescriptorENS3_9allocatorISA_EEEEE6$valueE",
   "name" : "android::internal::details::ToEmptyString<std::vector<aidl::android::hardware::radio::data::TrafficDescriptor, std::allocator<aidl::android::hardware::radio::data::TrafficDescriptor>>>::(unnamed enum at frameworks/native/libs/binder/ndk/include_cpp/android/binder_to_string.h:153:5)",
   "referenced_type" : "_ZTIN7android8internal7details13ToEmptyStringINSt3__16vectorIN4aidl7android8hardware5radio4data17TrafficDescriptorENS3_9allocatorISA_EEEEE6$valueE",
   "self_type" : "_ZTIN7android8internal7details13ToEmptyStringINSt3__16vectorIN4aidl7android8hardware5radio4data17TrafficDescriptorENS3_9allocatorISA_EEEEE6$valueE",
   "size" : 4,
   "source_file" : "frameworks/native/libs/binder/ndk/include_cpp/android/binder_to_string.h",
   "underlying_type" : "_ZTIj"
  },
  {
   "alignment" : 4,
   "enum_fields" :
   [
    {
     "enum_field_value" : 0,
     "name" : "android::internal::details::ToEmptyString<std::vector<aidl::android::hardware::radio::data::RouteSelectionDescriptor>>::value"
    }
   ],
   "linker_set_key" : "_ZTIN7android8internal7details13ToEmptyStringINSt3__16vectorIN4aidl7android8hardware5radio4data24RouteSelectionDescriptorENS3_9allocatorISA_EEEEE6$valueE",
   "name" : "android::internal::details::ToEmptyString<std::vector<aidl::android::hardware::radio::data::RouteSelectionDescriptor, std::allocator<aidl::android::hardware::radio::data::RouteSelectionDescriptor>>>::(unnamed enum at frameworks/native/libs/binder/ndk/include_cpp/android/binder_to_string.h:153:5)",
   "referenced_type" : "_ZTIN7android8internal7details13ToEmptyStringINSt3__16vectorIN4aidl7android8hardware5radio4data24RouteSelectionDescriptorENS3_9allocatorISA_EEEEE6$valueE",
   "self_type" : "_ZTIN7android8internal7details13ToEmptyStringINSt3__16vectorIN4aidl7android8hardware5radio4data24RouteSelectionDescriptorENS3_9allocatorISA_EEEEE6$valueE",
   "size" : 4,
   "source_file" : "frameworks/native/libs/binder/ndk/include_cpp/android/binder_to_string.h",
   "underlying_type" : "_ZTIj"
  },
  {
   "alignment" : 4,
   "enum_fields" :
   [
    {
     "enum_field_value" : 0,
     "name" : "android::internal::details::ToEmptyString<std::vector<aidl::android::hardware::radio::data::UrspRule>>::value"
    }
   ],
   "linker_set_key" : "_ZTIN7android8internal7details13ToEmptyStringINSt3__16vectorIN4aidl7android8hardware5radio4data8UrspRuleENS3_9allocatorISA_EEEEE6$valueE",
   "name" : "android::internal::details::ToEmptyString<std::vector<aidl::android::hardware::radio::data::UrspRule, std::allocator<aidl::android::hardware::radio::data::UrspRule>>>::(unnamed enum at frameworks/native/libs/binder/ndk/include_cpp/android/binder_to_string.h:153:5)",
   "referenced_type" : "_ZTIN7android8internal7details13ToEmptyStringINSt3__16vectorIN4aidl7android8hardware5radio4data8UrspRuleENS3_9allocatorISA_EEEEE6$valueE",
   "self_type" : "_ZTIN7android8internal7details13ToEmptyStringINSt3__16vectorIN4aidl7android8hardware5radio4data8UrspRuleENS3_9allocatorISA_EEEEE6$valueE",
   "size" : 4,
   "source_file" : "frameworks/native/libs/binder/ndk/include_cpp/android/binder_to_string.h",
   "underlying_type" : "_ZTIj"
  },
  {
   "alignment" : 4,
   "enum_fields" :
   [
    {
     "enum_field_value" : 0,
     "name" : "android::internal::details::ToEmptyString<std::vector<aidl::android::hardware::radio::data::QosFilter>>::value"
    }
   ],
   "linker_set_key" : "_ZTIN7android8internal7details13ToEmptyStringINSt3__16vectorIN4aidl7android8hardware5radio4data9QosFilterENS3_9allocatorISA_EEEEE6$valueE",
   "name" : "android::internal::details::ToEmptyString<std::vector<aidl::android::hardware::radio::data::QosFilter, std::allocator<aidl::android::hardware::radio::data::QosFilter>>>::(unnamed enum at frameworks/native/libs/binder/ndk/include_cpp/android/binder_to_string.h:153:5)",
   "referenced_type" : "_ZTIN7android8internal7details13ToEmptyStringINSt3__16vectorIN4aidl7android8hardware5radio4data9QosFilterENS3_9allocatorISA_EEEEE6$valueE",
   "self_type" : "_ZTIN7android8internal7details13ToEmptyStringINSt3__16vectorIN4aidl7android8hardware5radio4data9QosFilterENS3_9allocatorISA_EEEEE6$valueE",
   "size" : 4,
   "source_file" : "frameworks/native/libs/binder/ndk/include_cpp/android/binder_to_string.h",
   "underlying_type" : "_ZTIj"
  },
  {
   "alignment" : 4,
   "enum_fields" :
   [
    {
     "enum_field_value" : 0,
     "name" : "android::internal::details::ToEmptyString<std::vector<aidl::android::hardware::radio::data::SliceInfo>>::value"
    }
   ],
   "linker_set_key" : "_ZTIN7android8internal7details13ToEmptyStringINSt3__16vectorIN4aidl7android8hardware5radio4data9SliceInfoENS3_9allocatorISA_EEEEE6$valueE",
   "name" : "android::internal::details::ToEmptyString<std::vector<aidl::android::hardware::radio::data::SliceInfo, std::allocator<aidl::android::hardware::radio::data::SliceInfo>>>::(unnamed enum at frameworks/native/libs/binder/ndk/include_cpp/android/binder_to_string.h:153:5)",
   "referenced_type" : "_ZTIN7android8internal7details13ToEmptyStringINSt3__16vectorIN4aidl7android8hardware5radio4data9SliceInfoENS3_9allocatorISA_EEEEE6$valueE",
   "self_type" : "_ZTIN7android8internal7details13ToEmptyStringINSt3__16vectorIN4aidl7android8hardware5radio4data9SliceInfoENS3_9allocatorISA_EEEEE6$valueE",
   "size" : 4,
   "source_file" : "frameworks/native/libs/binder/ndk/include_cpp/android/binder_to_string.h",
   "underlying_type" : "_ZTIj"
  },
  {
   "alignment" : 4,
   "enum_fields" :
   [
    {
     "enum_field_value" : 0,
     "name" : "android::internal::details::ToEmptyString<std::vector<std::basic_string<char>>>::value"
    }
   ],
   "linker_set_key" : "_ZTIN7android8internal7details13ToEmptyStringINSt3__16vectorINS3_12basic_stringIcNS3_11char_traitsIcEENS3_9allocatorIcEEEENS8_ISA_EEEEE6$valueE",
   "name" : "android::internal::details::ToEmptyString<std::vector<std::basic_string<char, std::char_traits<char>, std::allocator<char>>, std::allocator<std::basic_string<char, std::char_traits<char>, std::allocator<char>>>>>::(unnamed enum at frameworks/native/libs/binder/ndk/include_cpp/android/binder_to_string.h:153:5)",
   "referenced_type" : "_ZTIN7android8internal7details13ToEmptyStringINSt3__16vectorINS3_12basic_stringIcNS3_11char_traitsIcEENS3_9allocatorIcEEEENS8_ISA_EEEEE6$valueE",
   "self_type" : "_ZTIN7android8internal7details13ToEmptyStringINSt3__16vectorINS3_12basic_stringIcNS3_11char_traitsIcEENS3_9allocatorIcEEEENS8_ISA_EEEEE6$valueE",
   "size" : 4,
   "source_file" : "frameworks/native/libs/binder/ndk/include_cpp/android/binder_to_string.h",
   "underlying_type" : "_ZTIj"
  },
  {
   "alignment" : 4,
   "enum_fields" :
   [
    {
     "enum_field_value" : 0,
     "name" : "android::internal::details::ToEmptyString<std::vector<unsigned char>>::value"
    }
   ],
   "linker_set_key" : "_ZTIN7android8internal7details13ToEmptyStringINSt3__16vectorIhNS3_9allocatorIhEEEEE6$valueE",
   "name" : "android::internal::details::ToEmptyString<std::vector<unsigned char, std::allocator<unsigned char>>>::(unnamed enum at frameworks/native/libs/binder/ndk/include_cpp/android/binder_to_string.h:153:5)",
   "referenced_type" : "_ZTIN7android8internal7details13ToEmptyStringINSt3__16vectorIhNS3_9allocatorIhEEEEE6$valueE",
   "self_type" : "_ZTIN7android8internal7details13ToEmptyStringINSt3__16vectorIhNS3_9allocatorIhEEEEE6$valueE",
   "size" : 4,
   "source_file" : "frameworks/native/libs/binder/ndk/include_cpp/android/binder_to_string.h",
   "underlying_type" : "_ZTIj"
  },
  {
   "alignment" : 4,
   "enum_fields" :
   [
    {
     "enum_field_value" : 0,
     "name" : "android::internal::details::ToEmptyString<std::optional<aidl::android::hardware::radio::data::OsAppId>>::value"
    }
   ],
   "linker_set_key" : "_ZTIN7android8internal7details13ToEmptyStringINSt3__18optionalIN4aidl7android8hardware5radio4data7OsAppIdEEEE6$valueE",
   "name" : "android::internal::details::ToEmptyString<std::optional<aidl::android::hardware::radio::data::OsAppId>>::(unnamed enum at frameworks/native/libs/binder/ndk/include_cpp/android/binder_to_string.h:153:5)",
   "referenced_type" : "_ZTIN7android8internal7details13ToEmptyStringINSt3__18optionalIN4aidl7android8hardware5radio4data7OsAppIdEEEE6$valueE",
   "self_type" : "_ZTIN7android8internal7details13ToEmptyStringINSt3__18optionalIN4aidl7android8hardware5radio4data7OsAppIdEEEE6$valueE",
   "size" : 4,
   "source_file" : "frameworks/native/libs/binder/ndk/include_cpp/android/binder_to_string.h",
   "underlying_type" : "_ZTIj"
  },
  {
   "alignment" : 4,
   "enum_fields" :
   [
    {
     "enum_field_value" : 0,
     "name" : "android::internal::details::ToEmptyString<std::optional<aidl::android::hardware::radio::data::PortRange>>::value"
    }
   ],
   "linker_set_key" : "_ZTIN7android8internal7details13ToEmptyStringINSt3__18optionalIN4aidl7android8hardware5radio4data9PortRangeEEEE6$valueE",
   "name" : "android::internal::details::ToEmptyString<std::optional<aidl::android::hardware::radio::data::PortRange>>::(unnamed enum at frameworks/native/libs/binder/ndk/include_cpp/android/binder_to_string.h:153:5)",
   "referenced_type" : "_ZTIN7android8internal7details13ToEmptyStringINSt3__18optionalIN4aidl7android8hardware5radio4data9PortRangeEEEE6$valueE",
   "self_type" : "_ZTIN7android8internal7details13ToEmptyStringINSt3__18optionalIN4aidl7android8hardware5radio4data9PortRangeEEEE6$valueE",
   "size" : 4,
   "source_file" : "frameworks/native/libs/binder/ndk/include_cpp/android/binder_to_string.h",
   "underlying_type" : "_ZTIj"
  },
  {
   "alignment" : 4,
   "enum_fields" :
   [
    {
     "enum_field_value" : 0,
     "name" : "android::internal::details::ToEmptyString<std::optional<aidl::android::hardware::radio::data::SliceInfo>>::value"
    }
   ],
   "linker_set_key" : "_ZTIN7android8internal7details13ToEmptyStringINSt3__18optionalIN4aidl7android8hardware5radio4data9SliceInfoEEEE6$valueE",
   "name" : "android::internal::details::ToEmptyString<std::optional<aidl::android::hardware::radio::data::SliceInfo>>::(unnamed enum at frameworks/native/libs/binder/ndk/include_cpp/android/binder_to_string.h:153:5)",
   "referenced_type" : "_ZTIN7android8internal7details13ToEmptyStringINSt3__18optionalIN4aidl7android8hardware5radio4data9SliceInfoEEEE6$valueE",
   "self_type" : "_ZTIN7android8internal7details13ToEmptyStringINSt3__18optionalIN4aidl7android8hardware5radio4data9SliceInfoEEEE6$valueE",
   "size" : 4,
   "source_file" : "frameworks/native/libs/binder/ndk/include_cpp/android/binder_to_string.h",
   "underlying_type" : "_ZTIj"
  },
  {
   "alignment" : 4,
   "enum_fields" :
   [
    {
     "enum_field_value" : 0,
     "name" : "android::internal::details::ToEmptyString<std::optional<std::basic_string<char>>>::value"
    }
   ],
   "linker_set_key" : "_ZTIN7android8internal7details13ToEmptyStringINSt3__18optionalINS3_12basic_stringIcNS3_11char_traitsIcEENS3_9allocatorIcEEEEEEE6$valueE",
   "name" : "android::internal::details::ToEmptyString<std::optional<std::basic_string<char, std::char_traits<char>, std::allocator<char>>>>::(unnamed enum at frameworks/native/libs/binder/ndk/include_cpp/android/binder_to_string.h:153:5)",
   "referenced_type" : "_ZTIN7android8internal7details13ToEmptyStringINSt3__18optionalINS3_12basic_stringIcNS3_11char_traitsIcEENS3_9allocatorIcEEEEEEE6$valueE",
   "self_type" : "_ZTIN7android8internal7details13ToEmptyStringINSt3__18optionalINS3_12basic_stringIcNS3_11char_traitsIcEENS3_9allocatorIcEEEEEEE6$valueE",
   "size" : 4,
   "source_file" : "frameworks/native/libs/binder/ndk/include_cpp/android/binder_to_string.h",
   "underlying_type" : "_ZTIj"
  },
  {
   "alignment" : 4,
   "enum_fields" :
   [
    {
     "enum_field_value" : 0,
     "name" : "android::internal::details::ToEmptyString<signed char>::value"
    }
   ],
   "linker_set_key" : "_ZTIN7android8internal7details13ToEmptyStringIaE6$valueE",
   "name" : "android::internal::details::ToEmptyString<signed char>::(unnamed enum at frameworks/native/libs/binder/ndk/include_cpp/android/binder_to_string.h:153:5)",
   "referenced_type" : "_ZTIN7android8internal7details13ToEmptyStringIaE6$valueE",
   "self_type" : "_ZTIN7android8internal7details13ToEmptyStringIaE6$valueE",
   "size" : 4,
   "source_file" : "frameworks/native/libs/binder/ndk/include_cpp/android/binder_to_string.h",
   "underlying_type" : "_ZTIj"
  },
  {
   "alignment" : 4,
   "enum_fields" :
   [
    {
     "enum_field_value" : 0,
     "name" : "android::internal::details::ToEmptyString<bool>::value"
    }
   ],
   "linker_set_key" : "_ZTIN7android8internal7details13ToEmptyStringIbE6$valueE",
   "name" : "android::internal::details::ToEmptyString<bool>::(unnamed enum at frameworks/native/libs/binder/ndk/include_cpp/android/binder_to_string.h:153:5)",
   "referenced_type" : "_ZTIN7android8internal7details13ToEmptyStringIbE6$valueE",
   "self_type" : "_ZTIN7android8internal7details13ToEmptyStringIbE6$valueE",
   "size" : 4,
   "source_file" : "frameworks/native/libs/binder/ndk/include_cpp/android/binder_to_string.h",
   "underlying_type" : "_ZTIj"
  },
  {
   "alignment" : 4,
   "enum_fields" :
   [
    {
     "enum_field_value" : 0,
     "name" : "android::internal::details::ToEmptyString<unsigned char>::value"
    }
   ],
   "linker_set_key" : "_ZTIN7android8internal7details13ToEmptyStringIhE6$valueE",
   "name" : "android::internal::details::ToEmptyString<unsigned char>::(unnamed enum at frameworks/native/libs/binder/ndk/include_cpp/android/binder_to_string.h:153:5)",
   "referenced_type" : "_ZTIN7android8internal7details13ToEmptyStringIhE6$valueE",
   "self_type" : "_ZTIN7android8internal7details13ToEmptyStringIhE6$valueE",
   "size" : 4,
   "source_file" : "frameworks/native/libs/binder/ndk/include_cpp/android/binder_to_string.h",
   "underlying_type" : "_ZTIj"
  },
  {
   "alignment" : 4,
   "enum_fields" :
   [
    {
     "enum_field_value" : 0,
     "name" : "android::internal::details::ToEmptyString<int>::value"
    }
   ],
   "linker_set_key" : "_ZTIN7android8internal7details13ToEmptyStringIiE6$valueE",
   "name" : "android::internal::details::ToEmptyString<int>::(unnamed enum at frameworks/native/libs/binder/ndk/include_cpp/android/binder_to_string.h:153:5)",
   "referenced_type" : "_ZTIN7android8internal7details13ToEmptyStringIiE6$valueE",
   "self_type" : "_ZTIN7android8internal7details13ToEmptyStringIiE6$valueE",
   "size" : 4,
   "source_file" : "frameworks/native/libs/binder/ndk/include_cpp/android/binder_to_string.h",
   "underlying_type" : "_ZTIj"
  },
  {
   "alignment" : 4,
   "enum_fields" :
   [
    {
     "enum_field_value" : 0,
     "name" : "android::internal::details::ToEmptyString<long>::value"
    }
   ],
   "linker_set_key" : "_ZTIN7android8internal7details13ToEmptyStringIlE6$valueE",
   "name" : "android::internal::details::ToEmptyString<long>::(unnamed enum at frameworks/native/libs/binder/ndk/include_cpp/android/binder_to_string.h:153:5)",
   "referenced_type" : "_ZTIN7android8internal7details13ToEmptyStringIlE6$valueE",
   "self_type" : "_ZTIN7android8internal7details13ToEmptyStringIlE6$valueE",
   "size" : 4,
   "source_file" : "frameworks/native/libs/binder/ndk/include_cpp/android/binder_to_string.h",
   "underlying_type" : "_ZTIj"
  },
  {
   "alignment" : 4,
   "enum_fields" :
   [
    {
     "enum_field_value" : 0,
     "name" : "android::internal::details::HasToStringMethod<aidl::android::hardware::radio::RadioError>::value"
    }
   ],
   "linker_set_key" : "_ZTIN7android8internal7details17HasToStringMethodIN4aidl7android8hardware5radio10RadioErrorEE6$valueE",
   "name" : "android::internal::details::HasToStringMethod<aidl::android::hardware::radio::RadioError>::(unnamed enum at frameworks/native/libs/binder/ndk/include_cpp/android/binder_to_string.h:77:5)",
   "referenced_type" : "_ZTIN7android8internal7details17HasToStringMethodIN4aidl7android8hardware5radio10RadioErrorEE6$valueE",
   "self_type" : "_ZTIN7android8internal7details17HasToStringMethodIN4aidl7android8hardware5radio10RadioErrorEE6$valueE",
   "size" : 4,
   "source_file" : "frameworks/native/libs/binder/ndk/include_cpp/android/binder_to_string.h",
   "underlying_type" : "_ZTIj"
  },
  {
   "alignment" : 4,
   "enum_fields" :
   [
    {
     "enum_field_value" : 0,
     "name" : "android::internal::details::HasToStringMethod<aidl::android::hardware::radio::RadioResponseType>::value"
    }
   ],
   "linker_set_key" : "_ZTIN7android8internal7details17HasToStringMethodIN4aidl7android8hardware5radio17RadioResponseTypeEE6$valueE",
   "name" : "android::internal::details::HasToStringMethod<aidl::android::hardware::radio::RadioResponseType>::(unnamed enum at frameworks/native/libs/binder/ndk/include_cpp/android/binder_to_string.h:77:5)",
   "referenced_type" : "_ZTIN7android8internal7details17HasToStringMethodIN4aidl7android8hardware5radio17RadioResponseTypeEE6$valueE",
   "self_type" : "_ZTIN7android8internal7details17HasToStringMethodIN4aidl7android8hardware5radio17RadioResponseTypeEE6$valueE",
   "size" : 4,
   "source_file" : "frameworks/native/libs/binder/ndk/include_cpp/android/binder_to_string.h",
   "underlying_type" : "_ZTIj"
  },
  {
   "alignment" : 4,
   "enum_fields" :
   [
    {
     "enum_field_value" : 1,
     "name" : "android::internal::details::HasToStringMethod<aidl::android::hardware::radio::data::QosSession>::value"
    }
   ],
   "linker_set_key" : "_ZTIN7android8internal7details17HasToStringMethodIN4aidl7android8hardware5radio4data10QosSessionEE6$valueE",
   "name" : "android::internal::details::HasToStringMethod<aidl::android::hardware::radio::data::QosSession>::(unnamed enum at frameworks/native/libs/binder/ndk/include_cpp/android/binder_to_string.h:77:5)",
   "referenced_type" : "_ZTIN7android8internal7details17HasToStringMethodIN4aidl7android8hardware5radio4data10QosSessionEE6$valueE",
   "self_type" : "_ZTIN7android8internal7details17HasToStringMethodIN4aidl7android8hardware5radio4data10QosSessionEE6$valueE",
   "size" : 4,
   "source_file" : "frameworks/native/libs/binder/ndk/include_cpp/android/binder_to_string.h",
   "underlying_type" : "_ZTIj"
  },
  {
   "alignment" : 4,
   "enum_fields" :
   [
    {
     "enum_field_value" : 0,
     "name" : "android::internal::details::HasToStringMethod<aidl::android::hardware::radio::data::ApnAuthType>::value"
    }
   ],
   "linker_set_key" : "_ZTIN7android8internal7details17HasToStringMethodIN4aidl7android8hardware5radio4data11ApnAuthTypeEE6$valueE",
   "name" : "android::internal::details::HasToStringMethod<aidl::android::hardware::radio::data::ApnAuthType>::(unnamed enum at frameworks/native/libs/binder/ndk/include_cpp/android/binder_to_string.h:77:5)",
   "referenced_type" : "_ZTIN7android8internal7details17HasToStringMethodIN4aidl7android8hardware5radio4data11ApnAuthTypeEE6$valueE",
   "self_type" : "_ZTIN7android8internal7details17HasToStringMethodIN4aidl7android8hardware5radio4data11ApnAuthTypeEE6$valueE",
   "size" : 4,
   "source_file" : "frameworks/native/libs/binder/ndk/include_cpp/android/binder_to_string.h",
   "underlying_type" : "_ZTIj"
  },
  {
   "alignment" : 4,
   "enum_fields" :
   [
    {
     "enum_field_value" : 1,
     "name" : "android::internal::details::HasToStringMethod<aidl::android::hardware::radio::data::LinkAddress>::value"
    }
   ],
   "linker_set_key" : "_ZTIN7android8internal7details17HasToStringMethodIN4aidl7android8hardware5radio4data11LinkAddressEE6$valueE",
   "name" : "android::internal::details::HasToStringMethod<aidl::android::hardware::radio::data::LinkAddress>::(unnamed enum at frameworks/native/libs/binder/ndk/include_cpp/android/binder_to_string.h:77:5)",
   "referenced_type" : "_ZTIN7android8internal7details17HasToStringMethodIN4aidl7android8hardware5radio4data11LinkAddressEE6$valueE",
   "self_type" : "_ZTIN7android8internal7details17HasToStringMethodIN4aidl7android8hardware5radio4data11LinkAddressEE6$valueE",
   "size" : 4,
   "source_file" : "frameworks/native/libs/binder/ndk/include_cpp/android/binder_to_string.h",
   "underlying_type" : "_ZTIj"
  },
  {
   "alignment" : 4,
   "enum_fields" :
   [
    {
     "enum_field_value" : 1,
     "name" : "android::internal::details::HasToStringMethod<aidl::android::hardware::radio::data::QosBandwidth>::value"
    }
   ],
   "linker_set_key" : "_ZTIN7android8internal7details17HasToStringMethodIN4aidl7android8hardware5radio4data12QosBandwidthEE6$valueE",
   "name" : "android::internal::details::HasToStringMethod<aidl::android::hardware::radio::data::QosBandwidth>::(unnamed enum at frameworks/native/libs/binder/ndk/include_cpp/android/binder_to_string.h:77:5)",
   "referenced_type" : "_ZTIN7android8internal7details17HasToStringMethodIN4aidl7android8hardware5radio4data12QosBandwidthEE6$valueE",
   "self_type" : "_ZTIN7android8internal7details17HasToStringMethodIN4aidl7android8hardware5radio4data12QosBandwidthEE6$valueE",
   "size" : 4,
   "source_file" : "frameworks/native/libs/binder/ndk/include_cpp/android/binder_to_string.h",
   "underlying_type" : "_ZTIj"
  },
  {
   "alignment" : 4,
   "enum_fields" :
   [
    {
     "enum_field_value" : 0,
     "name" : "android::internal::details::HasToStringMethod<aidl::android::hardware::radio::data::PdpProtocolType>::value"
    }
   ],
   "linker_set_key" : "_ZTIN7android8internal7details17HasToStringMethodIN4aidl7android8hardware5radio4data15PdpProtocolTypeEE6$valueE",
   "name" : "android::internal::details::HasToStringMethod<aidl::android::hardware::radio::data::PdpProtocolType>::(unnamed enum at frameworks/native/libs/binder/ndk/include_cpp/android/binder_to_string.h:77:5)",
   "referenced_type" : "_ZTIN7android8internal7details17HasToStringMethodIN4aidl7android8hardware5radio4data15PdpProtocolTypeEE6$valueE",
   "self_type" : "_ZTIN7android8internal7details17HasToStringMethodIN4aidl7android8hardware5radio4data15PdpProtocolTypeEE6$valueE",
   "size" : 4,
   "source_file" : "frameworks/native/libs/binder/ndk/include_cpp/android/binder_to_string.h",
   "underlying_type" : "_ZTIj"
  },
  {
   "alignment" : 4,
   "enum_fields" :
   [
    {
     "enum_field_value" : 0,
     "name" : "android::internal::details::HasToStringMethod<aidl::android::hardware::radio::data::DataCallFailCause>::value"
    }
   ],
   "linker_set_key" : "_ZTIN7android8internal7details17HasToStringMethodIN4aidl7android8hardware5radio4data17DataCallFailCauseEE6$valueE",
   "name" : "android::internal::details::HasToStringMethod<aidl::android::hardware::radio::data::DataCallFailCause>::(unnamed enum at frameworks/native/libs/binder/ndk/include_cpp/android/binder_to_string.h:77:5)",
   "referenced_type" : "_ZTIN7android8internal7details17HasToStringMethodIN4aidl7android8hardware5radio4data17DataCallFailCauseEE6$valueE",
   "self_type" : "_ZTIN7android8internal7details17HasToStringMethodIN4aidl7android8hardware5radio4data17DataCallFailCauseEE6$valueE",
   "size" : 4,
   "source_file" : "frameworks/native/libs/binder/ndk/include_cpp/android/binder_to_string.h",
   "underlying_type" : "_ZTIj"
  },
  {
   "alignment" : 4,
   "enum_fields" :
   [
    {
     "enum_field_value" : 1,
     "name" : "android::internal::details::HasToStringMethod<aidl::android::hardware::radio::data::QosFilterIpsecSpi>::value"
    }
   ],
   "linker_set_key" : "_ZTIN7android8internal7details17HasToStringMethodIN4aidl7android8hardware5radio4data17QosFilterIpsecSpiEE6$valueE",
   "name" : "android::internal::details::HasToStringMethod<aidl::android::hardware::radio::data::QosFilterIpsecSpi>::(unnamed enum at frameworks/native/libs/binder/ndk/include_cpp/android/binder_to_string.h:77:5)",
   "referenced_type" : "_ZTIN7android8internal7details17HasToStringMethodIN4aidl7android8hardware5radio4data17QosFilterIpsecSpiEE6$valueE",
   "self_type" : "_ZTIN7android8internal7details17HasToStringMethodIN4aidl7android8hardware5radio4data17QosFilterIpsecSpiEE6$valueE",
   "size" : 4,
   "source_file" : "frameworks/native/libs/binder/ndk/include_cpp/android/binder_to_string.h",
   "underlying_type" : "_ZTIj"
  },
  {
   "alignment" : 4,
   "enum_fields" :
   [
    {
     "enum_field_value" : 1,
     "name" : "android::internal::details::HasToStringMethod<aidl::android::hardware::radio::data::TrafficDescriptor>::value"
    }
   ],
   "linker_set_key" : "_ZTIN7android8internal7details17HasToStringMethodIN4aidl7android8hardware5radio4data17TrafficDescriptorEE6$valueE",
   "name" : "android::internal::details::HasToStringMethod<aidl::android::hardware::radio::data::TrafficDescriptor>::(unnamed enum at frameworks/native/libs/binder/ndk/include_cpp/android/binder_to_string.h:77:5)",
   "referenced_type" : "_ZTIN7android8internal7details17HasToStringMethodIN4aidl7android8hardware5radio4data17TrafficDescriptorEE6$valueE",
   "self_type" : "_ZTIN7android8internal7details17HasToStringMethodIN4aidl7android8hardware5radio4data17TrafficDescriptorEE6$valueE",
   "size" : 4,
   "source_file" : "frameworks/native/libs/binder/ndk/include_cpp/android/binder_to_string.h",
   "underlying_type" : "_ZTIj"
  },
  {
   "alignment" : 4,
   "enum_fields" :
   [
    {
     "enum_field_value" : 1,
     "name" : "android::internal::details::HasToStringMethod<aidl::android::hardware::radio::data::QosFilterIpv6FlowLabel>::value"
    }
   ],
   "linker_set_key" : "_ZTIN7android8internal7details17HasToStringMethodIN4aidl7android8hardware5radio4data22QosFilterIpv6FlowLabelEE6$valueE",
   "name" : "android::internal::details::HasToStringMethod<aidl::android::hardware::radio::data::QosFilterIpv6FlowLabel>::(unnamed enum at frameworks/native/libs/binder/ndk/include_cpp/android/binder_to_string.h:77:5)",
   "referenced_type" : "_ZTIN7android8internal7details17HasToStringMethodIN4aidl7android8hardware5radio4data22QosFilterIpv6FlowLabelEE6$valueE",
   "self_type" : "_ZTIN7android8internal7details17HasToStringMethodIN4aidl7android8hardware5radio4data22QosFilterIpv6FlowLabelEE6$valueE",
   "size" : 4,
   "source_file" : "frameworks/native/libs/binder/ndk/include_cpp/android/binder_to_string.h",
   "underlying_type" : "_ZTIj"
  },
  {
   "alignment" : 4,
   "enum_fields" :
   [
    {
     "enum_field_value" : 1,
     "name" : "android::internal::details::HasToStringMethod<aidl::android::hardware::radio::data::QosFilterTypeOfService>::value"
    }
   ],
   "linker_set_key" : "_ZTIN7android8internal7details17HasToStringMethodIN4aidl7android8hardware5radio4data22QosFilterTypeOfServiceEE6$valueE",
   "name" : "android::internal::details::HasToStringMethod<aidl::android::hardware::radio::data::QosFilterTypeOfService>::(unnamed enum at frameworks/native/libs/binder/ndk/include_cpp/android/binder_to_string.h:77:5)",
   "referenced_type" : "_ZTIN7android8internal7details17HasToStringMethodIN4aidl7android8hardware5radio4data22QosFilterTypeOfServiceEE6$valueE",
   "self_type" : "_ZTIN7android8internal7details17HasToStringMethodIN4aidl7android8hardware5radio4data22QosFilterTypeOfServiceEE6$valueE",
   "size" : 4,
   "source_file" : "frameworks/native/libs/binder/ndk/include_cpp/android/binder_to_string.h",
   "underlying_type" : "_ZTIj"
  },
  {
   "alignment" : 4,
   "enum_fields" :
   [
    {
     "enum_field_value" : 1,
     "name" : "android::internal::details::HasToStringMethod<aidl::android::hardware::radio::data::RouteSelectionDescriptor>::value"
    }
   ],
   "linker_set_key" : "_ZTIN7android8internal7details17HasToStringMethodIN4aidl7android8hardware5radio4data24RouteSelectionDescriptorEE6$valueE",
   "name" : "android::internal::details::HasToStringMethod<aidl::android::hardware::radio::data::RouteSelectionDescriptor>::(unnamed enum at frameworks/native/libs/binder/ndk/include_cpp/android/binder_to_string.h:77:5)",
   "referenced_type" : "_ZTIN7android8internal7details17HasToStringMethodIN4aidl7android8hardware5radio4data24RouteSelectionDescriptorEE6$valueE",
   "self_type" : "_ZTIN7android8internal7details17HasToStringMethodIN4aidl7android8hardware5radio4data24RouteSelectionDescriptorEE6$valueE",
   "size" : 4,
   "source_file" : "frameworks/native/libs/binder/ndk/include_cpp/android/binder_to_string.h",
   "underlying_type" : "_ZTIj"
  },
  {
   "alignment" : 4,
   "enum_fields" :
   [
    {
     "enum_field_value" : 1,
     "name" : "android::internal::details::HasToStringMethod<aidl::android::hardware::radio::data::Qos>::value"
    }
   ],
   "linker_set_key" : "_ZTIN7android8internal7details17HasToStringMethodIN4aidl7android8hardware5radio4data3QosEE6$valueE",
   "name" : "android::internal::details::HasToStringMethod<aidl::android::hardware::radio::data::Qos>::(unnamed enum at frameworks/native/libs/binder/ndk/include_cpp/android/binder_to_string.h:77:5)",
   "referenced_type" : "_ZTIN7android8internal7details17HasToStringMethodIN4aidl7android8hardware5radio4data3QosEE6$valueE",
   "self_type" : "_ZTIN7android8internal7details17HasToStringMethodIN4aidl7android8hardware5radio4data3QosEE6$valueE",
   "size" : 4,
   "source_file" : "frameworks/native/libs/binder/ndk/include_cpp/android/binder_to_string.h",
   "underlying_type" : "_ZTIj"
  },
  {
   "alignment" : 4,
   "enum_fields" :
   [
    {
     "enum_field_value" : 1,
     "name" : "android::internal::details::HasToStringMethod<aidl::android::hardware::radio::data::NrQos>::value"
    }
   ],
   "linker_set_key" : "_ZTIN7android8internal7details17HasToStringMethodIN4aidl7android8hardware5radio4data5NrQosEE6$valueE",
   "name" : "android::internal::details::HasToStringMethod<aidl::android::hardware::radio::data::NrQos>::(unnamed enum at frameworks/native/libs/binder/ndk/include_cpp/android/binder_to_string.h:77:5)",
   "referenced_type" : "_ZTIN7android8internal7details17HasToStringMethodIN4aidl7android8hardware5radio4data5NrQosEE6$valueE",
   "self_type" : "_ZTIN7android8internal7details17HasToStringMethodIN4aidl7android8hardware5radio4data5NrQosEE6$valueE",
   "size" : 4,
   "source_file" : "frameworks/native/libs/binder/ndk/include_cpp/android/binder_to_string.h",
   "underlying_type" : "_ZTIj"
  },
  {
   "alignment" : 4,
   "enum_fields" :
   [
    {
     "enum_field_value" : 1,
     "name" : "android::internal::details::HasToStringMethod<aidl::android::hardware::radio::data::EpsQos>::value"
    }
   ],
   "linker_set_key" : "_ZTIN7android8internal7details17HasToStringMethodIN4aidl7android8hardware5radio4data6EpsQosEE6$valueE",
   "name" : "android::internal::details::HasToStringMethod<aidl::android::hardware::radio::data::EpsQos>::(unnamed enum at frameworks/native/libs/binder/ndk/include_cpp/android/binder_to_string.h:77:5)",
   "referenced_type" : "_ZTIN7android8internal7details17HasToStringMethodIN4aidl7android8hardware5radio4data6EpsQosEE6$valueE",
   "self_type" : "_ZTIN7android8internal7details17HasToStringMethodIN4aidl7android8hardware5radio4data6EpsQosEE6$valueE",
   "size" : 4,
   "source_file" : "frameworks/native/libs/binder/ndk/include_cpp/android/binder_to_string.h",
   "underlying_type" : "_ZTIj"
  },
  {
   "alignment" : 4,
   "enum_fields" :
   [
    {
     "enum_field_value" : 1,
     "name" : "android::internal::details::HasToStringMethod<aidl::android::hardware::radio::data::OsAppId>::value"
    }
   ],
   "linker_set_key" : "_ZTIN7android8internal7details17HasToStringMethodIN4aidl7android8hardware5radio4data7OsAppIdEE6$valueE",
   "name" : "android::internal::details::HasToStringMethod<aidl::android::hardware::radio::data::OsAppId>::(unnamed enum at frameworks/native/libs/binder/ndk/include_cpp/android/binder_to_string.h:77:5)",
   "referenced_type" : "_ZTIN7android8internal7details17HasToStringMethodIN4aidl7android8hardware5radio4data7OsAppIdEE6$valueE",
   "self_type" : "_ZTIN7android8internal7details17HasToStringMethodIN4aidl7android8hardware5radio4data7OsAppIdEE6$valueE",
   "size" : 4,
   "source_file" : "frameworks/native/libs/binder/ndk/include_cpp/android/binder_to_string.h",
   "underlying_type" : "_ZTIj"
  },
  {
   "alignment" : 4,
   "enum_fields" :
   [
    {
     "enum_field_value" : 1,
     "name" : "android::internal::details::HasToStringMethod<aidl::android::hardware::radio::data::UrspRule>::value"
    }
   ],
   "linker_set_key" : "_ZTIN7android8internal7details17HasToStringMethodIN4aidl7android8hardware5radio4data8UrspRuleEE6$valueE",
   "name" : "android::internal::details::HasToStringMethod<aidl::android::hardware::radio::data::UrspRule>::(unnamed enum at frameworks/native/libs/binder/ndk/include_cpp/android/binder_to_string.h:77:5)",
   "referenced_type" : "_ZTIN7android8internal7details17HasToStringMethodIN4aidl7android8hardware5radio4data8UrspRuleEE6$valueE",
   "self_type" : "_ZTIN7android8internal7details17HasToStringMethodIN4aidl7android8hardware5radio4data8UrspRuleEE6$valueE",
   "size" : 4,
   "source_file" : "frameworks/native/libs/binder/ndk/include_cpp/android/binder_to_string.h",
   "underlying_type" : "_ZTIj"
  },
  {
   "alignment" : 4,
   "enum_fields" :
   [
    {
     "enum_field_value" : 1,
     "name" : "android::internal::details::HasToStringMethod<aidl::android::hardware::radio::data::PortRange>::value"
    }
   ],
   "linker_set_key" : "_ZTIN7android8internal7details17HasToStringMethodIN4aidl7android8hardware5radio4data9PortRangeEE6$valueE",
   "name" : "android::internal::details::HasToStringMethod<aidl::android::hardware::radio::data::PortRange>::(unnamed enum at frameworks/native/libs/binder/ndk/include_cpp/android/binder_to_string.h:77:5)",
   "referenced_type" : "_ZTIN7android8internal7details17HasToStringMethodIN4aidl7android8hardware5radio4data9PortRangeEE6$valueE",
   "self_type" : "_ZTIN7android8internal7details17HasToStringMethodIN4aidl7android8hardware5radio4data9PortRangeEE6$valueE",
   "size" : 4,
   "source_file" : "frameworks/native/libs/binder/ndk/include_cpp/android/binder_to_string.h",
   "underlying_type" : "_ZTIj"
  },
  {
   "alignment" : 4,
   "enum_fields" :
   [
    {
     "enum_field_value" : 1,
     "name" : "android::internal::details::HasToStringMethod<aidl::android::hardware::radio::data::QosFilter>::value"
    }
   ],
   "linker_set_key" : "_ZTIN7android8internal7details17HasToStringMethodIN4aidl7android8hardware5radio4data9QosFilterEE6$valueE",
   "name" : "android::internal::details::HasToStringMethod<aidl::android::hardware::radio::data::QosFilter>::(unnamed enum at frameworks/native/libs/binder/ndk/include_cpp/android/binder_to_string.h:77:5)",
   "referenced_type" : "_ZTIN7android8internal7details17HasToStringMethodIN4aidl7android8hardware5radio4data9QosFilterEE6$valueE",
   "self_type" : "_ZTIN7android8internal7details17HasToStringMethodIN4aidl7android8hardware5radio4data9QosFilterEE6$valueE",
   "size" : 4,
   "source_file" : "frameworks/native/libs/binder/ndk/include_cpp/android/binder_to_string.h",
   "underlying_type" : "_ZTIj"
  },
  {
   "alignment" : 4,
   "enum_fields" :
   [
    {
     "enum_field_value" : 1,
     "name" : "android::internal::details::HasToStringMethod<aidl::android::hardware::radio::data::SliceInfo>::value"
    }
   ],
   "linker_set_key" : "_ZTIN7android8internal7details17HasToStringMethodIN4aidl7android8hardware5radio4data9SliceInfoEE6$valueE",
   "name" : "android::internal::details::HasToStringMethod<aidl::android::hardware::radio::data::SliceInfo>::(unnamed enum at frameworks/native/libs/binder/ndk/include_cpp/android/binder_to_string.h:77:5)",
   "referenced_type" : "_ZTIN7android8internal7details17HasToStringMethodIN4aidl7android8hardware5radio4data9SliceInfoEE6$valueE",
   "self_type" : "_ZTIN7android8internal7details17HasToStringMethodIN4aidl7android8hardware5radio4data9SliceInfoEE6$valueE",
   "size" : 4,
   "source_file" : "frameworks/native/libs/binder/ndk/include_cpp/android/binder_to_string.h",
   "underlying_type" : "_ZTIj"
  },
  {
   "alignment" : 4,
   "enum_fields" :
   [
    {
     "enum_field_value" : 0,
     "name" : "android::internal::details::HasToStringMethod<std::vector<aidl::android::hardware::radio::data::QosSession>>::value"
    }
   ],
   "linker_set_key" : "_ZTIN7android8internal7details17HasToStringMethodINSt3__16vectorIN4aidl7android8hardware5radio4data10QosSessionENS3_9allocatorISA_EEEEE6$valueE",
   "name" : "android::internal::details::HasToStringMethod<std::vector<aidl::android::hardware::radio::data::QosSession, std::allocator<aidl::android::hardware::radio::data::QosSession>>>::(unnamed enum at frameworks/native/libs/binder/ndk/include_cpp/android/binder_to_string.h:77:5)",
   "referenced_type" : "_ZTIN7android8internal7details17HasToStringMethodINSt3__16vectorIN4aidl7android8hardware5radio4data10QosSessionENS3_9allocatorISA_EEEEE6$valueE",
   "self_type" : "_ZTIN7android8internal7details17HasToStringMethodINSt3__16vectorIN4aidl7android8hardware5radio4data10QosSessionENS3_9allocatorISA_EEEEE6$valueE",
   "size" : 4,
   "source_file" : "frameworks/native/libs/binder/ndk/include_cpp/android/binder_to_string.h",
   "underlying_type" : "_ZTIj"
  },
  {
   "alignment" : 4,
   "enum_fields" :
   [
    {
     "enum_field_value" : 0,
     "name" : "android::internal::details::HasToStringMethod<std::vector<aidl::android::hardware::radio::data::LinkAddress>>::value"
    }
   ],
   "linker_set_key" : "_ZTIN7android8internal7details17HasToStringMethodINSt3__16vectorIN4aidl7android8hardware5radio4data11LinkAddressENS3_9allocatorISA_EEEEE6$valueE",
   "name" : "android::internal::details::HasToStringMethod<std::vector<aidl::android::hardware::radio::data::LinkAddress, std::allocator<aidl::android::hardware::radio::data::LinkAddress>>>::(unnamed enum at frameworks/native/libs/binder/ndk/include_cpp/android/binder_to_string.h:77:5)",
   "referenced_type" : "_ZTIN7android8internal7details17HasToStringMethodINSt3__16vectorIN4aidl7android8hardware5radio4data11LinkAddressENS3_9allocatorISA_EEEEE6$valueE",
   "self_type" : "_ZTIN7android8internal7details17HasToStringMethodINSt3__16vectorIN4aidl7android8hardware5radio4data11LinkAddressENS3_9allocatorISA_EEEEE6$valueE",
   "size" : 4,
   "source_file" : "frameworks/native/libs/binder/ndk/include_cpp/android/binder_to_string.h",
   "underlying_type" : "_ZTIj"
  },
  {
   "alignment" : 4,
   "enum_fields" :
   [
    {
     "enum_field_value" : 0,
     "name" : "android::internal::details::HasToStringMethod<std::vector<aidl::android::hardware::radio::data::TrafficDescriptor>>::value"
    }
   ],
   "linker_set_key" : "_ZTIN7android8internal7details17HasToStringMethodINSt3__16vectorIN4aidl7android8hardware5radio4data17TrafficDescriptorENS3_9allocatorISA_EEEEE6$valueE",
   "name" : "android::internal::details::HasToStringMethod<std::vector<aidl::android::hardware::radio::data::TrafficDescriptor, std::allocator<aidl::android::hardware::radio::data::TrafficDescriptor>>>::(unnamed enum at frameworks/native/libs/binder/ndk/include_cpp/android/binder_to_string.h:77:5)",
   "referenced_type" : "_ZTIN7android8internal7details17HasToStringMethodINSt3__16vectorIN4aidl7android8hardware5radio4data17TrafficDescriptorENS3_9allocatorISA_EEEEE6$valueE",
   "self_type" : "_ZTIN7android8internal7details17HasToStringMethodINSt3__16vectorIN4aidl7android8hardware5radio4data17TrafficDescriptorENS3_9allocatorISA_EEEEE6$valueE",
   "size" : 4,
   "source_file" : "frameworks/native/libs/binder/ndk/include_cpp/android/binder_to_string.h",
   "underlying_type" : "_ZTIj"
  },
  {
   "alignment" : 4,
   "enum_fields" :
   [
    {
     "enum_field_value" : 0,
     "name" : "android::internal::details::HasToStringMethod<std::vector<aidl::android::hardware::radio::data::RouteSelectionDescriptor>>::value"
    }
   ],
   "linker_set_key" : "_ZTIN7android8internal7details17HasToStringMethodINSt3__16vectorIN4aidl7android8hardware5radio4data24RouteSelectionDescriptorENS3_9allocatorISA_EEEEE6$valueE",
   "name" : "android::internal::details::HasToStringMethod<std::vector<aidl::android::hardware::radio::data::RouteSelectionDescriptor, std::allocator<aidl::android::hardware::radio::data::RouteSelectionDescriptor>>>::(unnamed enum at frameworks/native/libs/binder/ndk/include_cpp/android/binder_to_string.h:77:5)",
   "referenced_type" : "_ZTIN7android8internal7details17HasToStringMethodINSt3__16vectorIN4aidl7android8hardware5radio4data24RouteSelectionDescriptorENS3_9allocatorISA_EEEEE6$valueE",
   "self_type" : "_ZTIN7android8internal7details17HasToStringMethodINSt3__16vectorIN4aidl7android8hardware5radio4data24RouteSelectionDescriptorENS3_9allocatorISA_EEEEE6$valueE",
   "size" : 4,
   "source_file" : "frameworks/native/libs/binder/ndk/include_cpp/android/binder_to_string.h",
   "underlying_type" : "_ZTIj"
  },
  {
   "alignment" : 4,
   "enum_fields" :
   [
    {
     "enum_field_value" : 0,
     "name" : "android::internal::details::HasToStringMethod<std::vector<aidl::android::hardware::radio::data::UrspRule>>::value"
    }
   ],
   "linker_set_key" : "_ZTIN7android8internal7details17HasToStringMethodINSt3__16vectorIN4aidl7android8hardware5radio4data8UrspRuleENS3_9allocatorISA_EEEEE6$valueE",
   "name" : "android::internal::details::HasToStringMethod<std::vector<aidl::android::hardware::radio::data::UrspRule, std::allocator<aidl::android::hardware::radio::data::UrspRule>>>::(unnamed enum at frameworks/native/libs/binder/ndk/include_cpp/android/binder_to_string.h:77:5)",
   "referenced_type" : "_ZTIN7android8internal7details17HasToStringMethodINSt3__16vectorIN4aidl7android8hardware5radio4data8UrspRuleENS3_9allocatorISA_EEEEE6$valueE",
   "self_type" : "_ZTIN7android8internal7details17HasToStringMethodINSt3__16vectorIN4aidl7android8hardware5radio4data8UrspRuleENS3_9allocatorISA_EEEEE6$valueE",
   "size" : 4,
   "source_file" : "frameworks/native/libs/binder/ndk/include_cpp/android/binder_to_string.h",
   "underlying_type" : "_ZTIj"
  },
  {
   "alignment" : 4,
   "enum_fields" :
   [
    {
     "enum_field_value" : 0,
     "name" : "android::internal::details::HasToStringMethod<std::vector<aidl::android::hardware::radio::data::QosFilter>>::value"
    }
   ],
   "linker_set_key" : "_ZTIN7android8internal7details17HasToStringMethodINSt3__16vectorIN4aidl7android8hardware5radio4data9QosFilterENS3_9allocatorISA_EEEEE6$valueE",
   "name" : "android::internal::details::HasToStringMethod<std::vector<aidl::android::hardware::radio::data::QosFilter, std::allocator<aidl::android::hardware::radio::data::QosFilter>>>::(unnamed enum at frameworks/native/libs/binder/ndk/include_cpp/android/binder_to_string.h:77:5)",
   "referenced_type" : "_ZTIN7android8internal7details17HasToStringMethodINSt3__16vectorIN4aidl7android8hardware5radio4data9QosFilterENS3_9allocatorISA_EEEEE6$valueE",
   "self_type" : "_ZTIN7android8internal7details17HasToStringMethodINSt3__16vectorIN4aidl7android8hardware5radio4data9QosFilterENS3_9allocatorISA_EEEEE6$valueE",
   "size" : 4,
   "source_file" : "frameworks/native/libs/binder/ndk/include_cpp/android/binder_to_string.h",
   "underlying_type" : "_ZTIj"
  },
  {
   "alignment" : 4,
   "enum_fields" :
   [
    {
     "enum_field_value" : 0,
     "name" : "android::internal::details::HasToStringMethod<std::vector<aidl::android::hardware::radio::data::SliceInfo>>::value"
    }
   ],
   "linker_set_key" : "_ZTIN7android8internal7details17HasToStringMethodINSt3__16vectorIN4aidl7android8hardware5radio4data9SliceInfoENS3_9allocatorISA_EEEEE6$valueE",
   "name" : "android::internal::details::HasToStringMethod<std::vector<aidl::android::hardware::radio::data::SliceInfo, std::allocator<aidl::android::hardware::radio::data::SliceInfo>>>::(unnamed enum at frameworks/native/libs/binder/ndk/include_cpp/android/binder_to_string.h:77:5)",
   "referenced_type" : "_ZTIN7android8internal7details17HasToStringMethodINSt3__16vectorIN4aidl7android8hardware5radio4data9SliceInfoENS3_9allocatorISA_EEEEE6$valueE",
   "self_type" : "_ZTIN7android8internal7details17HasToStringMethodINSt3__16vectorIN4aidl7android8hardware5radio4data9SliceInfoENS3_9allocatorISA_EEEEE6$valueE",
   "size" : 4,
   "source_file" : "frameworks/native/libs/binder/ndk/include_cpp/android/binder_to_string.h",
   "underlying_type" : "_ZTIj"
  },
  {
   "alignment" : 4,
   "enum_fields" :
   [
    {
     "enum_field_value" : 0,
     "name" : "android::internal::details::HasToStringMethod<std::vector<std::basic_string<char>>>::value"
    }
   ],
   "linker_set_key" : "_ZTIN7android8internal7details17HasToStringMethodINSt3__16vectorINS3_12basic_stringIcNS3_11char_traitsIcEENS3_9allocatorIcEEEENS8_ISA_EEEEE6$valueE",
   "name" : "android::internal::details::HasToStringMethod<std::vector<std::basic_string<char, std::char_traits<char>, std::allocator<char>>, std::allocator<std::basic_string<char, std::char_traits<char>, std::allocator<char>>>>>::(unnamed enum at frameworks/native/libs/binder/ndk/include_cpp/android/binder_to_string.h:77:5)",
   "referenced_type" : "_ZTIN7android8internal7details17HasToStringMethodINSt3__16vectorINS3_12basic_stringIcNS3_11char_traitsIcEENS3_9allocatorIcEEEENS8_ISA_EEEEE6$valueE",
   "self_type" : "_ZTIN7android8internal7details17HasToStringMethodINSt3__16vectorINS3_12basic_stringIcNS3_11char_traitsIcEENS3_9allocatorIcEEEENS8_ISA_EEEEE6$valueE",
   "size" : 4,
   "source_file" : "frameworks/native/libs/binder/ndk/include_cpp/android/binder_to_string.h",
   "underlying_type" : "_ZTIj"
  },
  {
   "alignment" : 4,
   "enum_fields" :
   [
    {
     "enum_field_value" : 0,
     "name" : "android::internal::details::HasToStringMethod<std::vector<unsigned char>>::value"
    }
   ],
   "linker_set_key" : "_ZTIN7android8internal7details17HasToStringMethodINSt3__16vectorIhNS3_9allocatorIhEEEEE6$valueE",
   "name" : "android::internal::details::HasToStringMethod<std::vector<unsigned char, std::allocator<unsigned char>>>::(unnamed enum at frameworks/native/libs/binder/ndk/include_cpp/android/binder_to_string.h:77:5)",
   "referenced_type" : "_ZTIN7android8internal7details17HasToStringMethodINSt3__16vectorIhNS3_9allocatorIhEEEEE6$valueE",
   "self_type" : "_ZTIN7android8internal7details17HasToStringMethodINSt3__16vectorIhNS3_9allocatorIhEEEEE6$valueE",
   "size" : 4,
   "source_file" : "frameworks/native/libs/binder/ndk/include_cpp/android/binder_to_string.h",
   "underlying_type" : "_ZTIj"
  },
  {
   "alignment" : 4,
   "enum_fields" :
   [
    {
     "enum_field_value" : 1,
     "name" : "android::internal::details::HasToStringFunction<aidl::android::hardware::radio::RadioError>::value"
    }
   ],
   "linker_set_key" : "_ZTIN7android8internal7details19HasToStringFunctionIN4aidl7android8hardware5radio10RadioErrorEE6$valueE",
   "name" : "android::internal::details::HasToStringFunction<aidl::android::hardware::radio::RadioError>::(unnamed enum at frameworks/native/libs/binder/ndk/include_cpp/android/binder_to_string.h:89:5)",
   "referenced_type" : "_ZTIN7android8internal7details19HasToStringFunctionIN4aidl7android8hardware5radio10RadioErrorEE6$valueE",
   "self_type" : "_ZTIN7android8internal7details19HasToStringFunctionIN4aidl7android8hardware5radio10RadioErrorEE6$valueE",
   "size" : 4,
   "source_file" : "frameworks/native/libs/binder/ndk/include_cpp/android/binder_to_string.h",
   "underlying_type" : "_ZTIj"
  },
  {
   "alignment" : 4,
   "enum_fields" :
   [
    {
     "enum_field_value" : 1,
     "name" : "android::internal::details::HasToStringFunction<aidl::android::hardware::radio::RadioResponseType>::value"
    }
   ],
   "linker_set_key" : "_ZTIN7android8internal7details19HasToStringFunctionIN4aidl7android8hardware5radio17RadioResponseTypeEE6$valueE",
   "name" : "android::internal::details::HasToStringFunction<aidl::android::hardware::radio::RadioResponseType>::(unnamed enum at frameworks/native/libs/binder/ndk/include_cpp/android/binder_to_string.h:89:5)",
   "referenced_type" : "_ZTIN7android8internal7details19HasToStringFunctionIN4aidl7android8hardware5radio17RadioResponseTypeEE6$valueE",
   "self_type" : "_ZTIN7android8internal7details19HasToStringFunctionIN4aidl7android8hardware5radio17RadioResponseTypeEE6$valueE",
   "size" : 4,
   "source_file" : "frameworks/native/libs/binder/ndk/include_cpp/android/binder_to_string.h",
   "underlying_type" : "_ZTIj"
  },
  {
   "alignment" : 4,
   "enum_fields" :
   [
    {
     "enum_field_value" : 1,
     "name" : "android::internal::details::HasToStringFunction<aidl::android::hardware::radio::data::ApnAuthType>::value"
    }
   ],
   "linker_set_key" : "_ZTIN7android8internal7details19HasToStringFunctionIN4aidl7android8hardware5radio4data11ApnAuthTypeEE6$valueE",
   "name" : "android::internal::details::HasToStringFunction<aidl::android::hardware::radio::data::ApnAuthType>::(unnamed enum at frameworks/native/libs/binder/ndk/include_cpp/android/binder_to_string.h:89:5)",
   "referenced_type" : "_ZTIN7android8internal7details19HasToStringFunctionIN4aidl7android8hardware5radio4data11ApnAuthTypeEE6$valueE",
   "self_type" : "_ZTIN7android8internal7details19HasToStringFunctionIN4aidl7android8hardware5radio4data11ApnAuthTypeEE6$valueE",
   "size" : 4,
   "source_file" : "frameworks/native/libs/binder/ndk/include_cpp/android/binder_to_string.h",
   "underlying_type" : "_ZTIj"
  },
  {
   "alignment" : 4,
   "enum_fields" :
   [
    {
     "enum_field_value" : 1,
     "name" : "android::internal::details::HasToStringFunction<aidl::android::hardware::radio::data::PdpProtocolType>::value"
    }
   ],
   "linker_set_key" : "_ZTIN7android8internal7details19HasToStringFunctionIN4aidl7android8hardware5radio4data15PdpProtocolTypeEE6$valueE",
   "name" : "android::internal::details::HasToStringFunction<aidl::android::hardware::radio::data::PdpProtocolType>::(unnamed enum at frameworks/native/libs/binder/ndk/include_cpp/android/binder_to_string.h:89:5)",
   "referenced_type" : "_ZTIN7android8internal7details19HasToStringFunctionIN4aidl7android8hardware5radio4data15PdpProtocolTypeEE6$valueE",
   "self_type" : "_ZTIN7android8internal7details19HasToStringFunctionIN4aidl7android8hardware5radio4data15PdpProtocolTypeEE6$valueE",
   "size" : 4,
   "source_file" : "frameworks/native/libs/binder/ndk/include_cpp/android/binder_to_string.h",
   "underlying_type" : "_ZTIj"
  },
  {
   "alignment" : 4,
   "enum_fields" :
   [
    {
     "enum_field_value" : 1,
     "name" : "android::internal::details::HasToStringFunction<aidl::android::hardware::radio::data::DataCallFailCause>::value"
    }
   ],
   "linker_set_key" : "_ZTIN7android8internal7details19HasToStringFunctionIN4aidl7android8hardware5radio4data17DataCallFailCauseEE6$valueE",
   "name" : "android::internal::details::HasToStringFunction<aidl::android::hardware::radio::data::DataCallFailCause>::(unnamed enum at frameworks/native/libs/binder/ndk/include_cpp/android/binder_to_string.h:89:5)",
   "referenced_type" : "_ZTIN7android8internal7details19HasToStringFunctionIN4aidl7android8hardware5radio4data17DataCallFailCauseEE6$valueE",
   "self_type" : "_ZTIN7android8internal7details19HasToStringFunctionIN4aidl7android8hardware5radio4data17DataCallFailCauseEE6$valueE",
   "size" : 4,
   "source_file" : "frameworks/native/libs/binder/ndk/include_cpp/android/binder_to_string.h",
   "underlying_type" : "_ZTIj"
  },
  {
   "alignment" : 4,
   "enum_fields" :
   [
    {
     "enum_field_value" : 0,
     "name" : "android::internal::details::HasToStringFunction<std::vector<aidl::android::hardware::radio::data::QosSession>>::value"
    }
   ],
   "linker_set_key" : "_ZTIN7android8internal7details19HasToStringFunctionINSt3__16vectorIN4aidl7android8hardware5radio4data10QosSessionENS3_9allocatorISA_EEEEE6$valueE",
   "name" : "android::internal::details::HasToStringFunction<std::vector<aidl::android::hardware::radio::data::QosSession, std::allocator<aidl::android::hardware::radio::data::QosSession>>>::(unnamed enum at frameworks/native/libs/binder/ndk/include_cpp/android/binder_to_string.h:89:5)",
   "referenced_type" : "_ZTIN7android8internal7details19HasToStringFunctionINSt3__16vectorIN4aidl7android8hardware5radio4data10QosSessionENS3_9allocatorISA_EEEEE6$valueE",
   "self_type" : "_ZTIN7android8internal7details19HasToStringFunctionINSt3__16vectorIN4aidl7android8hardware5radio4data10QosSessionENS3_9allocatorISA_EEEEE6$valueE",
   "size" : 4,
   "source_file" : "frameworks/native/libs/binder/ndk/include_cpp/android/binder_to_string.h",
   "underlying_type" : "_ZTIj"
  },
  {
   "alignment" : 4,
   "enum_fields" :
   [
    {
     "enum_field_value" : 0,
     "name" : "android::internal::details::HasToStringFunction<std::vector<aidl::android::hardware::radio::data::LinkAddress>>::value"
    }
   ],
   "linker_set_key" : "_ZTIN7android8internal7details19HasToStringFunctionINSt3__16vectorIN4aidl7android8hardware5radio4data11LinkAddressENS3_9allocatorISA_EEEEE6$valueE",
   "name" : "android::internal::details::HasToStringFunction<std::vector<aidl::android::hardware::radio::data::LinkAddress, std::allocator<aidl::android::hardware::radio::data::LinkAddress>>>::(unnamed enum at frameworks/native/libs/binder/ndk/include_cpp/android/binder_to_string.h:89:5)",
   "referenced_type" : "_ZTIN7android8internal7details19HasToStringFunctionINSt3__16vectorIN4aidl7android8hardware5radio4data11LinkAddressENS3_9allocatorISA_EEEEE6$valueE",
   "self_type" : "_ZTIN7android8internal7details19HasToStringFunctionINSt3__16vectorIN4aidl7android8hardware5radio4data11LinkAddressENS3_9allocatorISA_EEEEE6$valueE",
   "size" : 4,
   "source_file" : "frameworks/native/libs/binder/ndk/include_cpp/android/binder_to_string.h",
   "underlying_type" : "_ZTIj"
  },
  {
   "alignment" : 4,
   "enum_fields" :
   [
    {
     "enum_field_value" : 0,
     "name" : "android::internal::details::HasToStringFunction<std::vector<aidl::android::hardware::radio::data::TrafficDescriptor>>::value"
    }
   ],
   "linker_set_key" : "_ZTIN7android8internal7details19HasToStringFunctionINSt3__16vectorIN4aidl7android8hardware5radio4data17TrafficDescriptorENS3_9allocatorISA_EEEEE6$valueE",
   "name" : "android::internal::details::HasToStringFunction<std::vector<aidl::android::hardware::radio::data::TrafficDescriptor, std::allocator<aidl::android::hardware::radio::data::TrafficDescriptor>>>::(unnamed enum at frameworks/native/libs/binder/ndk/include_cpp/android/binder_to_string.h:89:5)",
   "referenced_type" : "_ZTIN7android8internal7details19HasToStringFunctionINSt3__16vectorIN4aidl7android8hardware5radio4data17TrafficDescriptorENS3_9allocatorISA_EEEEE6$valueE",
   "self_type" : "_ZTIN7android8internal7details19HasToStringFunctionINSt3__16vectorIN4aidl7android8hardware5radio4data17TrafficDescriptorENS3_9allocatorISA_EEEEE6$valueE",
   "size" : 4,
   "source_file" : "frameworks/native/libs/binder/ndk/include_cpp/android/binder_to_string.h",
   "underlying_type" : "_ZTIj"
  },
  {
   "alignment" : 4,
   "enum_fields" :
   [
    {
     "enum_field_value" : 0,
     "name" : "android::internal::details::HasToStringFunction<std::vector<aidl::android::hardware::radio::data::RouteSelectionDescriptor>>::value"
    }
   ],
   "linker_set_key" : "_ZTIN7android8internal7details19HasToStringFunctionINSt3__16vectorIN4aidl7android8hardware5radio4data24RouteSelectionDescriptorENS3_9allocatorISA_EEEEE6$valueE",
   "name" : "android::internal::details::HasToStringFunction<std::vector<aidl::android::hardware::radio::data::RouteSelectionDescriptor, std::allocator<aidl::android::hardware::radio::data::RouteSelectionDescriptor>>>::(unnamed enum at frameworks/native/libs/binder/ndk/include_cpp/android/binder_to_string.h:89:5)",
   "referenced_type" : "_ZTIN7android8internal7details19HasToStringFunctionINSt3__16vectorIN4aidl7android8hardware5radio4data24RouteSelectionDescriptorENS3_9allocatorISA_EEEEE6$valueE",
   "self_type" : "_ZTIN7android8internal7details19HasToStringFunctionINSt3__16vectorIN4aidl7android8hardware5radio4data24RouteSelectionDescriptorENS3_9allocatorISA_EEEEE6$valueE",
   "size" : 4,
   "source_file" : "frameworks/native/libs/binder/ndk/include_cpp/android/binder_to_string.h",
   "underlying_type" : "_ZTIj"
  },
  {
   "alignment" : 4,
   "enum_fields" :
   [
    {
     "enum_field_value" : 0,
     "name" : "android::internal::details::HasToStringFunction<std::vector<aidl::android::hardware::radio::data::UrspRule>>::value"
    }
   ],
   "linker_set_key" : "_ZTIN7android8internal7details19HasToStringFunctionINSt3__16vectorIN4aidl7android8hardware5radio4data8UrspRuleENS3_9allocatorISA_EEEEE6$valueE",
   "name" : "android::internal::details::HasToStringFunction<std::vector<aidl::android::hardware::radio::data::UrspRule, std::allocator<aidl::android::hardware::radio::data::UrspRule>>>::(unnamed enum at frameworks/native/libs/binder/ndk/include_cpp/android/binder_to_string.h:89:5)",
   "referenced_type" : "_ZTIN7android8internal7details19HasToStringFunctionINSt3__16vectorIN4aidl7android8hardware5radio4data8UrspRuleENS3_9allocatorISA_EEEEE6$valueE",
   "self_type" : "_ZTIN7android8internal7details19HasToStringFunctionINSt3__16vectorIN4aidl7android8hardware5radio4data8UrspRuleENS3_9allocatorISA_EEEEE6$valueE",
   "size" : 4,
   "source_file" : "frameworks/native/libs/binder/ndk/include_cpp/android/binder_to_string.h",
   "underlying_type" : "_ZTIj"
  },
  {
   "alignment" : 4,
   "enum_fields" :
   [
    {
     "enum_field_value" : 0,
     "name" : "android::internal::details::HasToStringFunction<std::vector<aidl::android::hardware::radio::data::QosFilter>>::value"
    }
   ],
   "linker_set_key" : "_ZTIN7android8internal7details19HasToStringFunctionINSt3__16vectorIN4aidl7android8hardware5radio4data9QosFilterENS3_9allocatorISA_EEEEE6$valueE",
   "name" : "android::internal::details::HasToStringFunction<std::vector<aidl::android::hardware::radio::data::QosFilter, std::allocator<aidl::android::hardware::radio::data::QosFilter>>>::(unnamed enum at frameworks/native/libs/binder/ndk/include_cpp/android/binder_to_string.h:89:5)",
   "referenced_type" : "_ZTIN7android8internal7details19HasToStringFunctionINSt3__16vectorIN4aidl7android8hardware5radio4data9QosFilterENS3_9allocatorISA_EEEEE6$valueE",
   "self_type" : "_ZTIN7android8internal7details19HasToStringFunctionINSt3__16vectorIN4aidl7android8hardware5radio4data9QosFilterENS3_9allocatorISA_EEEEE6$valueE",
   "size" : 4,
   "source_file" : "frameworks/native/libs/binder/ndk/include_cpp/android/binder_to_string.h",
   "underlying_type" : "_ZTIj"
  },
  {
   "alignment" : 4,
   "enum_fields" :
   [
    {
     "enum_field_value" : 0,
     "name" : "android::internal::details::HasToStringFunction<std::vector<aidl::android::hardware::radio::data::SliceInfo>>::value"
    }
   ],
   "linker_set_key" : "_ZTIN7android8internal7details19HasToStringFunctionINSt3__16vectorIN4aidl7android8hardware5radio4data9SliceInfoENS3_9allocatorISA_EEEEE6$valueE",
   "name" : "android::internal::details::HasToStringFunction<std::vector<aidl::android::hardware::radio::data::SliceInfo, std::allocator<aidl::android::hardware::radio::data::SliceInfo>>>::(unnamed enum at frameworks/native/libs/binder/ndk/include_cpp/android/binder_to_string.h:89:5)",
   "referenced_type" : "_ZTIN7android8internal7details19HasToStringFunctionINSt3__16vectorIN4aidl7android8hardware5radio4data9SliceInfoENS3_9allocatorISA_EEEEE6$valueE",
   "self_type" : "_ZTIN7android8internal7details19HasToStringFunctionINSt3__16vectorIN4aidl7android8hardware5radio4data9SliceInfoENS3_9allocatorISA_EEEEE6$valueE",
   "size" : 4,
   "source_file" : "frameworks/native/libs/binder/ndk/include_cpp/android/binder_to_string.h",
   "underlying_type" : "_ZTIj"
  },
  {
   "alignment" : 4,
   "enum_fields" :
   [
    {
     "enum_field_value" : 0,
     "name" : "android::internal::details::HasToStringFunction<std::vector<std::basic_string<char>>>::value"
    }
   ],
   "linker_set_key" : "_ZTIN7android8internal7details19HasToStringFunctionINSt3__16vectorINS3_12basic_stringIcNS3_11char_traitsIcEENS3_9allocatorIcEEEENS8_ISA_EEEEE6$valueE",
   "name" : "android::internal::details::HasToStringFunction<std::vector<std::basic_string<char, std::char_traits<char>, std::allocator<char>>, std::allocator<std::basic_string<char, std::char_traits<char>, std::allocator<char>>>>>::(unnamed enum at frameworks/native/libs/binder/ndk/include_cpp/android/binder_to_string.h:89:5)",
   "referenced_type" : "_ZTIN7android8internal7details19HasToStringFunctionINSt3__16vectorINS3_12basic_stringIcNS3_11char_traitsIcEENS3_9allocatorIcEEEENS8_ISA_EEEEE6$valueE",
   "self_type" : "_ZTIN7android8internal7details19HasToStringFunctionINSt3__16vectorINS3_12basic_stringIcNS3_11char_traitsIcEENS3_9allocatorIcEEEENS8_ISA_EEEEE6$valueE",
   "size" : 4,
   "source_file" : "frameworks/native/libs/binder/ndk/include_cpp/android/binder_to_string.h",
   "underlying_type" : "_ZTIj"
  },
  {
   "alignment" : 4,
   "enum_fields" :
   [
    {
     "enum_field_value" : 0,
     "name" : "android::internal::details::HasToStringFunction<std::vector<unsigned char>>::value"
    }
   ],
   "linker_set_key" : "_ZTIN7android8internal7details19HasToStringFunctionINSt3__16vectorIhNS3_9allocatorIhEEEEE6$valueE",
   "name" : "android::internal::details::HasToStringFunction<std::vector<unsigned char, std::allocator<unsigned char>>>::(unnamed enum at frameworks/native/libs/binder/ndk/include_cpp/android/binder_to_string.h:89:5)",
   "referenced_type" : "_ZTIN7android8internal7details19HasToStringFunctionINSt3__16vectorIhNS3_9allocatorIhEEEEE6$valueE",
   "self_type" : "_ZTIN7android8internal7details19HasToStringFunctionINSt3__16vectorIhNS3_9allocatorIhEEEEE6$valueE",
   "size" : 4,
   "source_file" : "frameworks/native/libs/binder/ndk/include_cpp/android/binder_to_string.h",
   "underlying_type" : "_ZTIj"
  }
 ],
 "function_types" :
 [
  {
   "alignment" : 4,
   "linker_set_key" : "_ZTIFiP8AIBinderjPK7AParcelPS1_E",
   "name" : "int (AIBinder *, unsigned int, const AParcel *, AParcel *)",
   "parameters" :
   [
    {
     "referenced_type" : "_ZTIP8AIBinder"
    },
    {
     "referenced_type" : "_ZTIj"
    },
    {
     "referenced_type" : "_ZTIPK7AParcel"
    },
    {
     "referenced_type" : "_ZTIP7AParcel"
    }
   ],
   "referenced_type" : "_ZTIFiP8AIBinderjPK7AParcelPS1_E",
   "return_type" : "_ZTIi",
   "self_type" : "_ZTIFiP8AIBinderjPK7AParcelPS1_E",
   "source_file" : "frameworks/native/libs/binder/ndk/include_cpp/android/binder_interface_utils.h"
  }
 ],
 "functions" :
 [
  {
   "function_name" : "ndk::BnCInterface<aidl::android::hardware::radio::data::IRadioData>::asBinder",
   "linker_set_key" : "_ZN3ndk12BnCInterfaceIN4aidl7android8hardware5radio4data10IRadioDataEE8asBinderEv",
   "parameters" :
   [
    {
     "is_this_ptr" : true,
     "referenced_type" : "_ZTIPN3ndk12BnCInterfaceIN4aidl7android8hardware5radio4data10IRadioDataEEE"
    }
   ],
   "return_type" : "_ZTIN3ndk10SpAIBinderE",
   "source_file" : "frameworks/native/libs/binder/ndk/include_cpp/android/binder_interface_utils.h"
  },
  {
   "function_name" : "ndk::BnCInterface<aidl::android::hardware::radio::data::IRadioDataResponse>::asBinder",
   "linker_set_key" : "_ZN3ndk12BnCInterfaceIN4aidl7android8hardware5radio4data18IRadioDataResponseEE8asBinderEv",
   "parameters" :
   [
    {
     "is_this_ptr" : true,
     "referenced_type" : "_ZTIPN3ndk12BnCInterfaceIN4aidl7android8hardware5radio4data18IRadioDataResponseEEE"
    }
   ],
   "return_type" : "_ZTIN3ndk10SpAIBinderE",
   "source_file" : "frameworks/native/libs/binder/ndk/include_cpp/android/binder_interface_utils.h"
  },
  {
   "function_name" : "ndk::BnCInterface<aidl::android::hardware::radio::data::IRadioDataIndication>::asBinder",
   "linker_set_key" : "_ZN3ndk12BnCInterfaceIN4aidl7android8hardware5radio4data20IRadioDataIndicationEE8asBinderEv",
   "parameters" :
   [
    {
     "is_this_ptr" : true,
     "referenced_type" : "_ZTIPN3ndk12BnCInterfaceIN4aidl7android8hardware5radio4data20IRadioDataIndicationEEE"
    }
   ],
   "return_type" : "_ZTIN3ndk10SpAIBinderE",
   "source_file" : "frameworks/native/libs/binder/ndk/include_cpp/android/binder_interface_utils.h"
  },
  {
   "function_name" : "ndk::BpCInterface<aidl::android::hardware::radio::data::IRadioData>::asBinder",
   "linker_set_key" : "_ZN3ndk12BpCInterfaceIN4aidl7android8hardware5radio4data10IRadioDataEE8asBinderEv",
   "parameters" :
   [
    {
     "is_this_ptr" : true,
     "referenced_type" : "_ZTIPN3ndk12BpCInterfaceIN4aidl7android8hardware5radio4data10IRadioDataEEE"
    }
   ],
   "return_type" : "_ZTIN3ndk10SpAIBinderE",
   "source_file" : "frameworks/native/libs/binder/ndk/include_cpp/android/binder_interface_utils.h"
  },
  {
   "function_name" : "ndk::BpCInterface<aidl::android::hardware::radio::data::IRadioDataResponse>::asBinder",
   "linker_set_key" : "_ZN3ndk12BpCInterfaceIN4aidl7android8hardware5radio4data18IRadioDataResponseEE8asBinderEv",
   "parameters" :
   [
    {
     "is_this_ptr" : true,
     "referenced_type" : "_ZTIPN3ndk12BpCInterfaceIN4aidl7android8hardware5radio4data18IRadioDataResponseEEE"
    }
   ],
   "return_type" : "_ZTIN3ndk10SpAIBinderE",
   "source_file" : "frameworks/native/libs/binder/ndk/include_cpp/android/binder_interface_utils.h"
  },
  {
   "function_name" : "ndk::BpCInterface<aidl::android::hardware::radio::data::IRadioDataIndication>::asBinder",
   "linker_set_key" : "_ZN3ndk12BpCInterfaceIN4aidl7android8hardware5radio4data20IRadioDataIndicationEE8asBinderEv",
   "parameters" :
   [
    {
     "is_this_ptr" : true,
     "referenced_type" : "_ZTIPN3ndk12BpCInterfaceIN4aidl7android8hardware5radio4data20IRadioDataIndicationEEE"
    }
   ],
   "return_type" : "_ZTIN3ndk10SpAIBinderE",
   "source_file" : "frameworks/native/libs/binder/ndk/include_cpp/android/binder_interface_utils.h"
  },
  {
   "function_name" : "ndk::AParcel_readStdVectorParcelableElement",
   "linker_set_key" : "_ZN3ndk38AParcel_readStdVectorParcelableElementIN4aidl7android8hardware5radio4data10QosSessionEEEiPK7AParcelPvm",
   "parameters" :
   [
    {
     "referenced_type" : "_ZTIPK7AParcel"
    },
    {
     "referenced_type" : "_ZTIPv"
    },
    {
     "referenced_type" : "_ZTIm"
    }
   ],
   "return_type" : "_ZTIi",
   "source_file" : "frameworks/native/libs/binder/ndk/include_cpp/android/binder_parcel_utils.h",
   "template_args" :
   [
    "_ZTIN4aidl7android8hardware5radio4data10QosSessionE"
   ]
  },
  {
   "function_name" : "ndk::AParcel_readStdVectorParcelableElement",
   "linker_set_key" : "_ZN3ndk38AParcel_readStdVectorParcelableElementIN4aidl7android8hardware5radio4data11LinkAddressEEEiPK7AParcelPvm",
   "parameters" :
   [
    {
     "referenced_type" : "_ZTIPK7AParcel"
    },
    {
     "referenced_type" : "_ZTIPv"
    },
    {
     "referenced_type" : "_ZTIm"
    }
   ],
   "return_type" : "_ZTIi",
   "source_file" : "frameworks/native/libs/binder/ndk/include_cpp/android/binder_parcel_utils.h",
   "template_args" :
   [
    "_ZTIN4aidl7android8hardware5radio4data11LinkAddressE"
   ]
  },
  {
   "function_name" : "ndk::AParcel_readStdVectorParcelableElement",
   "linker_set_key" : "_ZN3ndk38AParcel_readStdVectorParcelableElementIN4aidl7android8hardware5radio4data15DataProfileInfoEEEiPK7AParcelPvm",
   "parameters" :
   [
    {
     "referenced_type" : "_ZTIPK7AParcel"
    },
    {
     "referenced_type" : "_ZTIPv"
    },
    {
     "referenced_type" : "_ZTIm"
    }
   ],
   "return_type" : "_ZTIi",
   "source_file" : "frameworks/native/libs/binder/ndk/include_cpp/android/binder_parcel_utils.h",
   "template_args" :
   [
    "_ZTIN4aidl7android8hardware5radio4data15DataProfileInfoE"
   ]
  },
  {
   "function_name" : "ndk::AParcel_readStdVectorParcelableElement",
   "linker_set_key" : "_ZN3ndk38AParcel_readStdVectorParcelableElementIN4aidl7android8hardware5radio4data17TrafficDescriptorEEEiPK7AParcelPvm",
   "parameters" :
   [
    {
     "referenced_type" : "_ZTIPK7AParcel"
    },
    {
     "referenced_type" : "_ZTIPv"
    },
    {
     "referenced_type" : "_ZTIm"
    }
   ],
   "return_type" : "_ZTIi",
   "source_file" : "frameworks/native/libs/binder/ndk/include_cpp/android/binder_parcel_utils.h",
   "template_args" :
   [
    "_ZTIN4aidl7android8hardware5radio4data17TrafficDescriptorE"
   ]
  },
  {
   "function_name" : "ndk::AParcel_readStdVectorParcelableElement",
   "linker_set_key" : "_ZN3ndk38AParcel_readStdVectorParcelableElementIN4aidl7android8hardware5radio4data19SetupDataCallResultEEEiPK7AParcelPvm",
   "parameters" :
   [
    {
     "referenced_type" : "_ZTIPK7AParcel"
    },
    {
     "referenced_type" : "_ZTIPv"
    },
    {
     "referenced_type" : "_ZTIm"
    }
   ],
   "return_type" : "_ZTIi",
   "source_file" : "frameworks/native/libs/binder/ndk/include_cpp/android/binder_parcel_utils.h",
   "template_args" :
   [
    "_ZTIN4aidl7android8hardware5radio4data19SetupDataCallResultE"
   ]
  },
  {
   "function_name" : "ndk::AParcel_readStdVectorParcelableElement",
   "linker_set_key" : "_ZN3ndk38AParcel_readStdVectorParcelableElementIN4aidl7android8hardware5radio4data24RouteSelectionDescriptorEEEiPK7AParcelPvm",
   "parameters" :
   [
    {
     "referenced_type" : "_ZTIPK7AParcel"
    },
    {
     "referenced_type" : "_ZTIPv"
    },
    {
     "referenced_type" : "_ZTIm"
    }
   ],
   "return_type" : "_ZTIi",
   "source_file" : "frameworks/native/libs/binder/ndk/include_cpp/android/binder_parcel_utils.h",
   "template_args" :
   [
    "_ZTIN4aidl7android8hardware5radio4data24RouteSelectionDescriptorE"
   ]
  },
  {
   "function_name" : "ndk::AParcel_readStdVectorParcelableElement",
   "linker_set_key" : "_ZN3ndk38AParcel_readStdVectorParcelableElementIN4aidl7android8hardware5radio4data8UrspRuleEEEiPK7AParcelPvm",
   "parameters" :
   [
    {
     "referenced_type" : "_ZTIPK7AParcel"
    },
    {
     "referenced_type" : "_ZTIPv"
    },
    {
     "referenced_type" : "_ZTIm"
    }
   ],
   "return_type" : "_ZTIi",
   "source_file" : "frameworks/native/libs/binder/ndk/include_cpp/android/binder_parcel_utils.h",
   "template_args" :
   [
    "_ZTIN4aidl7android8hardware5radio4data8UrspRuleE"
   ]
  },
  {
   "function_name" : "ndk::AParcel_readStdVectorParcelableElement",
   "linker_set_key" : "_ZN3ndk38AParcel_readStdVectorParcelableElementIN4aidl7android8hardware5radio4data9QosFilterEEEiPK7AParcelPvm",
   "parameters" :
   [
    {
     "referenced_type" : "_ZTIPK7AParcel"
    },
    {
     "referenced_type" : "_ZTIPv"
    },
    {
     "referenced_type" : "_ZTIm"
    }
   ],
   "return_type" : "_ZTIi",
   "source_file" : "frameworks/native/libs/binder/ndk/include_cpp/android/binder_parcel_utils.h",
   "template_args" :
   [
    "_ZTIN4aidl7android8hardware5radio4data9QosFilterE"
   ]
  },
  {
   "function_name" : "ndk::AParcel_readStdVectorParcelableElement",
   "linker_set_key" : "_ZN3ndk38AParcel_readStdVectorParcelableElementIN4aidl7android8hardware5radio4data9SliceInfoEEEiPK7AParcelPvm",
   "parameters" :
   [
    {
     "referenced_type" : "_ZTIPK7AParcel"
    },
    {
     "referenced_type" : "_ZTIPv"
    },
    {
     "referenced_type" : "_ZTIm"
    }
   ],
   "return_type" : "_ZTIi",
   "source_file" : "frameworks/native/libs/binder/ndk/include_cpp/android/binder_parcel_utils.h",
   "template_args" :
   [
    "_ZTIN4aidl7android8hardware5radio4data9SliceInfoE"
   ]
  },
  {
   "function_name" : "ndk::AParcel_writeStdVectorParcelableElement",
   "linker_set_key" : "_ZN3ndk39AParcel_writeStdVectorParcelableElementIN4aidl7android8hardware5radio4data10QosSessionEEEiP7AParcelPKvm",
   "parameters" :
   [
    {
     "referenced_type" : "_ZTIP7AParcel"
    },
    {
     "referenced_type" : "_ZTIPKv"
    },
    {
     "referenced_type" : "_ZTIm"
    }
   ],
   "return_type" : "_ZTIi",
   "source_file" : "frameworks/native/libs/binder/ndk/include_cpp/android/binder_parcel_utils.h",
   "template_args" :
   [
    "_ZTIN4aidl7android8hardware5radio4data10QosSessionE"
   ]
  },
  {
   "function_name" : "ndk::AParcel_writeStdVectorParcelableElement",
   "linker_set_key" : "_ZN3ndk39AParcel_writeStdVectorParcelableElementIN4aidl7android8hardware5radio4data11LinkAddressEEEiP7AParcelPKvm",
   "parameters" :
   [
    {
     "referenced_type" : "_ZTIP7AParcel"
    },
    {
     "referenced_type" : "_ZTIPKv"
    },
    {
     "referenced_type" : "_ZTIm"
    }
   ],
   "return_type" : "_ZTIi",
   "source_file" : "frameworks/native/libs/binder/ndk/include_cpp/android/binder_parcel_utils.h",
   "template_args" :
   [
    "_ZTIN4aidl7android8hardware5radio4data11LinkAddressE"
   ]
  },
  {
   "function_name" : "ndk::AParcel_writeStdVectorParcelableElement",
   "linker_set_key" : "_ZN3ndk39AParcel_writeStdVectorParcelableElementIN4aidl7android8hardware5radio4data15DataProfileInfoEEEiP7AParcelPKvm",
   "parameters" :
   [
    {
     "referenced_type" : "_ZTIP7AParcel"
    },
    {
     "referenced_type" : "_ZTIPKv"
    },
    {
     "referenced_type" : "_ZTIm"
    }
   ],
   "return_type" : "_ZTIi",
   "source_file" : "frameworks/native/libs/binder/ndk/include_cpp/android/binder_parcel_utils.h",
   "template_args" :
   [
    "_ZTIN4aidl7android8hardware5radio4data15DataProfileInfoE"
   ]
  },
  {
   "function_name" : "ndk::AParcel_writeStdVectorParcelableElement",
   "linker_set_key" : "_ZN3ndk39AParcel_writeStdVectorParcelableElementIN4aidl7android8hardware5radio4data17TrafficDescriptorEEEiP7AParcelPKvm",
   "parameters" :
   [
    {
     "referenced_type" : "_ZTIP7AParcel"
    },
    {
     "referenced_type" : "_ZTIPKv"
    },
    {
     "referenced_type" : "_ZTIm"
    }
   ],
   "return_type" : "_ZTIi",
   "source_file" : "frameworks/native/libs/binder/ndk/include_cpp/android/binder_parcel_utils.h",
   "template_args" :
   [
    "_ZTIN4aidl7android8hardware5radio4data17TrafficDescriptorE"
   ]
  },
  {
   "function_name" : "ndk::AParcel_writeStdVectorParcelableElement",
   "linker_set_key" : "_ZN3ndk39AParcel_writeStdVectorParcelableElementIN4aidl7android8hardware5radio4data19SetupDataCallResultEEEiP7AParcelPKvm",
   "parameters" :
   [
    {
     "referenced_type" : "_ZTIP7AParcel"
    },
    {
     "referenced_type" : "_ZTIPKv"
    },
    {
     "referenced_type" : "_ZTIm"
    }
   ],
   "return_type" : "_ZTIi",
   "source_file" : "frameworks/native/libs/binder/ndk/include_cpp/android/binder_parcel_utils.h",
   "template_args" :
   [
    "_ZTIN4aidl7android8hardware5radio4data19SetupDataCallResultE"
   ]
  },
  {
   "function_name" : "ndk::AParcel_writeStdVectorParcelableElement",
   "linker_set_key" : "_ZN3ndk39AParcel_writeStdVectorParcelableElementIN4aidl7android8hardware5radio4data24RouteSelectionDescriptorEEEiP7AParcelPKvm",
   "parameters" :
   [
    {
     "referenced_type" : "_ZTIP7AParcel"
    },
    {
     "referenced_type" : "_ZTIPKv"
    },
    {
     "referenced_type" : "_ZTIm"
    }
   ],
   "return_type" : "_ZTIi",
   "source_file" : "frameworks/native/libs/binder/ndk/include_cpp/android/binder_parcel_utils.h",
   "template_args" :
   [
    "_ZTIN4aidl7android8hardware5radio4data24RouteSelectionDescriptorE"
   ]
  },
  {
   "function_name" : "ndk::AParcel_writeStdVectorParcelableElement",
   "linker_set_key" : "_ZN3ndk39AParcel_writeStdVectorParcelableElementIN4aidl7android8hardware5radio4data8UrspRuleEEEiP7AParcelPKvm",
   "parameters" :
   [
    {
     "referenced_type" : "_ZTIP7AParcel"
    },
    {
     "referenced_type" : "_ZTIPKv"
    },
    {
     "referenced_type" : "_ZTIm"
    }
   ],
   "return_type" : "_ZTIi",
   "source_file" : "frameworks/native/libs/binder/ndk/include_cpp/android/binder_parcel_utils.h",
   "template_args" :
   [
    "_ZTIN4aidl7android8hardware5radio4data8UrspRuleE"
   ]
  },
  {
   "function_name" : "ndk::AParcel_writeStdVectorParcelableElement",
   "linker_set_key" : "_ZN3ndk39AParcel_writeStdVectorParcelableElementIN4aidl7android8hardware5radio4data9QosFilterEEEiP7AParcelPKvm",
   "parameters" :
   [
    {
     "referenced_type" : "_ZTIP7AParcel"
    },
    {
     "referenced_type" : "_ZTIPKv"
    },
    {
     "referenced_type" : "_ZTIm"
    }
   ],
   "return_type" : "_ZTIi",
   "source_file" : "frameworks/native/libs/binder/ndk/include_cpp/android/binder_parcel_utils.h",
   "template_args" :
   [
    "_ZTIN4aidl7android8hardware5radio4data9QosFilterE"
   ]
  },
  {
   "function_name" : "ndk::AParcel_writeStdVectorParcelableElement",
   "linker_set_key" : "_ZN3ndk39AParcel_writeStdVectorParcelableElementIN4aidl7android8hardware5radio4data9SliceInfoEEEiP7AParcelPKvm",
   "parameters" :
   [
    {
     "referenced_type" : "_ZTIP7AParcel"
    },
    {
     "referenced_type" : "_ZTIPKv"
    },
    {
     "referenced_type" : "_ZTIm"
    }
   ],
   "return_type" : "_ZTIi",
   "source_file" : "frameworks/native/libs/binder/ndk/include_cpp/android/binder_parcel_utils.h",
   "template_args" :
   [
    "_ZTIN4aidl7android8hardware5radio4data9SliceInfoE"
   ]
  },
  {
   "function_name" : "aidl::android::hardware::radio::data::IRadioData::fromBinder",
   "linker_set_key" : "_ZN4aidl7android8hardware5radio4data10IRadioData10fromBinderERKN3ndk10SpAIBinderE",
   "parameters" :
   [
    {
     "referenced_type" : "_ZTIRKN3ndk10SpAIBinderE"
    }
   ],
   "return_type" : "_ZTINSt3__110shared_ptrIN4aidl7android8hardware5radio4data10IRadioDataEEE",
   "source_file" : "out/soong/.intermediates/hardware/interfaces/radio/aidl/android.hardware.radio.data-V1-ndk-source/gen/include/aidl/android/hardware/radio/data/IRadioData.h"
  },
  {
   "function_name" : "aidl::android::hardware::radio::data::IRadioData::writeToParcel",
   "linker_set_key" : "_ZN4aidl7android8hardware5radio4data10IRadioData13writeToParcelEP7AParcelRKNSt3__110shared_ptrIS4_EE",
   "parameters" :
   [
    {
     "referenced_type" : "_ZTIP7AParcel"
    },
    {
     "referenced_type" : "_ZTIRKNSt3__110shared_ptrIN4aidl7android8hardware5radio4data10IRadioDataEEE"
    }
   ],
   "return_type" : "_ZTIi",
   "source_file" : "out/soong/.intermediates/hardware/interfaces/radio/aidl/android.hardware.radio.data-V1-ndk-source/gen/include/aidl/android/hardware/radio/data/IRadioData.h"
  },
  {
   "function_name" : "aidl::android::hardware::radio::data::IRadioData::getDefaultImpl",
   "linker_set_key" : "_ZN4aidl7android8hardware5radio4data10IRadioData14getDefaultImplEv",
   "return_type" : "_ZTIRKNSt3__110shared_ptrIN4aidl7android8hardware5radio4data10IRadioDataEEE",
   "source_file" : "out/soong/.intermediates/hardware/interfaces/radio/aidl/android.hardware.radio.data-V1-ndk-source/gen/include/aidl/android/hardware/radio/data/IRadioData.h"
  },
  {
   "function_name" : "aidl::android::hardware::radio::data::IRadioData::readFromParcel",
   "linker_set_key" : "_ZN4aidl7android8hardware5radio4data10IRadioData14readFromParcelEPK7AParcelPNSt3__110shared_ptrIS4_EE",
   "parameters" :
   [
    {
     "referenced_type" : "_ZTIPK7AParcel"
    },
    {
     "referenced_type" : "_ZTIPNSt3__110shared_ptrIN4aidl7android8hardware5radio4data10IRadioDataEEE"
    }
   ],
   "return_type" : "_ZTIi",
   "source_file" : "out/soong/.intermediates/hardware/interfaces/radio/aidl/android.hardware.radio.data-V1-ndk-source/gen/include/aidl/android/hardware/radio/data/IRadioData.h"
  },
  {
   "function_name" : "aidl::android::hardware::radio::data::IRadioData::setDefaultImpl",
   "linker_set_key" : "_ZN4aidl7android8hardware5radio4data10IRadioData14setDefaultImplERKNSt3__110shared_ptrIS4_EE",
   "parameters" :
   [
    {
     "referenced_type" : "_ZTIRKNSt3__110shared_ptrIN4aidl7android8hardware5radio4data10IRadioDataEEE"
    }
   ],
   "return_type" : "_ZTIb",
   "source_file" : "out/soong/.intermediates/hardware/interfaces/radio/aidl/android.hardware.radio.data-V1-ndk-source/gen/include/aidl/android/hardware/radio/data/IRadioData.h"
  },
  {
   "function_name" : "aidl::android::hardware::radio::data::IRadioData::IRadioData",
   "linker_set_key" : "_ZN4aidl7android8hardware5radio4data10IRadioDataC2Ev",
   "parameters" :
   [
    {
     "is_this_ptr" : true,
     "referenced_type" : "_ZTIPN4aidl7android8hardware5radio4data10IRadioDataE"
    }
   ],
   "return_type" : "_ZTIv",
   "source_file" : "out/soong/.intermediates/hardware/interfaces/radio/aidl/android.hardware.radio.data-V1-ndk-source/gen/include/aidl/android/hardware/radio/data/IRadioData.h"
  },
  {
   "function_name" : "aidl::android::hardware::radio::data::IRadioData::~IRadioData",
   "linker_set_key" : "_ZN4aidl7android8hardware5radio4data10IRadioDataD0Ev",
   "parameters" :
   [
    {
     "is_this_ptr" : true,
     "referenced_type" : "_ZTIPN4aidl7android8hardware5radio4data10IRadioDataE"
    }
   ],
   "return_type" : "_ZTIv",
   "source_file" : "out/soong/.intermediates/hardware/interfaces/radio/aidl/android.hardware.radio.data-V1-ndk-source/gen/include/aidl/android/hardware/radio/data/IRadioData.h"
  },
  {
   "function_name" : "aidl::android::hardware::radio::data::IRadioData::~IRadioData",
   "linker_set_key" : "_ZN4aidl7android8hardware5radio4data10IRadioDataD1Ev",
   "parameters" :
   [
    {
     "is_this_ptr" : true,
     "referenced_type" : "_ZTIPN4aidl7android8hardware5radio4data10IRadioDataE"
    }
   ],
   "return_type" : "_ZTIv",
   "source_file" : "out/soong/.intermediates/hardware/interfaces/radio/aidl/android.hardware.radio.data-V1-ndk-source/gen/include/aidl/android/hardware/radio/data/IRadioData.h"
  },
  {
   "function_name" : "aidl::android::hardware::radio::data::IRadioData::~IRadioData",
   "linker_set_key" : "_ZN4aidl7android8hardware5radio4data10IRadioDataD2Ev",
   "parameters" :
   [
    {
     "is_this_ptr" : true,
     "referenced_type" : "_ZTIPN4aidl7android8hardware5radio4data10IRadioDataE"
    }
   ],
   "return_type" : "_ZTIv",
   "source_file" : "out/soong/.intermediates/hardware/interfaces/radio/aidl/android.hardware.radio.data-V1-ndk-source/gen/include/aidl/android/hardware/radio/data/IRadioData.h"
  },
  {
   "function_name" : "aidl::android::hardware::radio::data::QosSession::readFromParcel",
   "linker_set_key" : "_ZN4aidl7android8hardware5radio4data10QosSession14readFromParcelEPK7AParcel",
   "parameters" :
   [
    {
     "is_this_ptr" : true,
     "referenced_type" : "_ZTIPN4aidl7android8hardware5radio4data10QosSessionE"
    },
    {
     "referenced_type" : "_ZTIPK7AParcel"
    }
   ],
   "return_type" : "_ZTIi",
   "source_file" : "out/soong/.intermediates/hardware/interfaces/radio/aidl/android.hardware.radio.data-V1-ndk-source/gen/include/aidl/android/hardware/radio/data/QosSession.h"
  },
  {
   "access" : "protected",
   "function_name" : "aidl::android::hardware::radio::data::BnRadioData::createBinder",
   "linker_set_key" : "_ZN4aidl7android8hardware5radio4data11BnRadioData12createBinderEv",
   "parameters" :
   [
    {
     "is_this_ptr" : true,
     "referenced_type" : "_ZTIPN4aidl7android8hardware5radio4data11BnRadioDataE"
    }
   ],
   "return_type" : "_ZTIN3ndk10SpAIBinderE",
   "source_file" : "out/soong/.intermediates/hardware/interfaces/radio/aidl/android.hardware.radio.data-V1-ndk-source/gen/include/aidl/android/hardware/radio/data/BnRadioData.h"
  },
  {
   "function_name" : "aidl::android::hardware::radio::data::BnRadioData::getInterfaceHash",
   "linker_set_key" : "_ZN4aidl7android8hardware5radio4data11BnRadioData16getInterfaceHashEPNSt3__112basic_stringIcNS5_11char_traitsIcEENS5_9allocatorIcEEEE",
   "parameters" :
   [
    {
     "is_this_ptr" : true,
     "referenced_type" : "_ZTIPN4aidl7android8hardware5radio4data11BnRadioDataE"
    },
    {
     "referenced_type" : "_ZTIPNSt3__112basic_stringIcNS_11char_traitsIcEENS_9allocatorIcEEEE"
    }
   ],
   "return_type" : "_ZTIN3ndk13ScopedAStatusE",
   "source_file" : "out/soong/.intermediates/hardware/interfaces/radio/aidl/android.hardware.radio.data-V1-ndk-source/gen/include/aidl/android/hardware/radio/data/BnRadioData.h"
  },
  {
   "function_name" : "aidl::android::hardware::radio::data::BnRadioData::getInterfaceVersion",
   "linker_set_key" : "_ZN4aidl7android8hardware5radio4data11BnRadioData19getInterfaceVersionEPi",
   "parameters" :
   [
    {
     "is_this_ptr" : true,
     "referenced_type" : "_ZTIPN4aidl7android8hardware5radio4data11BnRadioDataE"
    },
    {
     "referenced_type" : "_ZTIPi"
    }
   ],
   "return_type" : "_ZTIN3ndk13ScopedAStatusE",
   "source_file" : "out/soong/.intermediates/hardware/interfaces/radio/aidl/android.hardware.radio.data-V1-ndk-source/gen/include/aidl/android/hardware/radio/data/BnRadioData.h"
  },
  {
   "function_name" : "aidl::android::hardware::radio::data::BnRadioData::BnRadioData",
   "linker_set_key" : "_ZN4aidl7android8hardware5radio4data11BnRadioDataC2Ev",
   "parameters" :
   [
    {
     "is_this_ptr" : true,
     "referenced_type" : "_ZTIPN4aidl7android8hardware5radio4data11BnRadioDataE"
    }
   ],
   "return_type" : "_ZTIv",
   "source_file" : "out/soong/.intermediates/hardware/interfaces/radio/aidl/android.hardware.radio.data-V1-ndk-source/gen/include/aidl/android/hardware/radio/data/BnRadioData.h"
  },
  {
   "function_name" : "aidl::android::hardware::radio::data::BnRadioData::~BnRadioData",
   "linker_set_key" : "_ZN4aidl7android8hardware5radio4data11BnRadioDataD0Ev",
   "parameters" :
   [
    {
     "is_this_ptr" : true,
     "referenced_type" : "_ZTIPN4aidl7android8hardware5radio4data11BnRadioDataE"
    }
   ],
   "return_type" : "_ZTIv",
   "source_file" : "out/soong/.intermediates/hardware/interfaces/radio/aidl/android.hardware.radio.data-V1-ndk-source/gen/include/aidl/android/hardware/radio/data/BnRadioData.h"
  },
  {
   "function_name" : "aidl::android::hardware::radio::data::BnRadioData::~BnRadioData",
   "linker_set_key" : "_ZN4aidl7android8hardware5radio4data11BnRadioDataD1Ev",
   "parameters" :
   [
    {
     "is_this_ptr" : true,
     "referenced_type" : "_ZTIPN4aidl7android8hardware5radio4data11BnRadioDataE"
    }
   ],
   "return_type" : "_ZTIv",
   "source_file" : "out/soong/.intermediates/hardware/interfaces/radio/aidl/android.hardware.radio.data-V1-ndk-source/gen/include/aidl/android/hardware/radio/data/BnRadioData.h"
  },
  {
   "function_name" : "aidl::android::hardware::radio::data::BnRadioData::~BnRadioData",
   "linker_set_key" : "_ZN4aidl7android8hardware5radio4data11BnRadioDataD2Ev",
   "parameters" :
   [
    {
     "is_this_ptr" : true,
     "referenced_type" : "_ZTIPN4aidl7android8hardware5radio4data11BnRadioDataE"
    }
   ],
   "return_type" : "_ZTIv",
   "source_file" : "out/soong/.intermediates/hardware/interfaces/radio/aidl/android.hardware.radio.data-V1-ndk-source/gen/include/aidl/android/hardware/radio/data/BnRadioData.h"
  },
  {
   "function_name" : "aidl::android::hardware::radio::data::BpRadioData::setupDataCall",
   "linker_set_key" : "_ZN4aidl7android8hardware5radio4data11BpRadioData13setupDataCallEiNS2_13AccessNetworkERKNS3_15DataProfileInfoEbNS3_17DataRequestReasonERKNSt3__16vectorINS3_11LinkAddressENSA_9allocatorISC_EEEERKNSB_INSA_12basic_stringIcNSA_11char_traitsIcEENSD_IcEEEENSD_ISM_EEEEiRKNSA_8optionalINS3_9SliceInfoEEEb",
   "parameters" :
   [
    {
     "is_this_ptr" : true,
     "referenced_type" : "_ZTIPN4aidl7android8hardware5radio4data11BpRadioDataE"
    },
    {
     "referenced_type" : "_ZTIi"
    },
    {
     "referenced_type" : "_ZTIN4aidl7android8hardware5radio13AccessNetworkE"
    },
    {
     "referenced_type" : "_ZTIRKN4aidl7android8hardware5radio4data15DataProfileInfoE"
    },
    {
     "referenced_type" : "_ZTIb"
    },
    {
     "referenced_type" : "_ZTIN4aidl7android8hardware5radio4data17DataRequestReasonE"
    },
    {
     "referenced_type" : "_ZTIRKNSt3__16vectorIN4aidl7android8hardware5radio4data11LinkAddressENS_9allocatorIS6_EEEE"
    },
    {
     "referenced_type" : "_ZTIRKNSt3__16vectorINS_12basic_stringIcNS_11char_traitsIcEENS_9allocatorIcEEEENS4_IS6_EEEE"
    },
    {
     "referenced_type" : "_ZTIi"
    },
    {
     "referenced_type" : "_ZTIRKNSt3__18optionalIN4aidl7android8hardware5radio4data9SliceInfoEEE"
    },
    {
     "referenced_type" : "_ZTIb"
    }
   ],
   "return_type" : "_ZTIN3ndk13ScopedAStatusE",
   "source_file" : "out/soong/.intermediates/hardware/interfaces/radio/aidl/android.hardware.radio.data-V1-ndk-source/gen/include/aidl/android/hardware/radio/data/BpRadioData.h"
  },
  {
   "function_name" : "aidl::android::hardware::radio::data::BpRadioData::startHandover",
   "linker_set_key" : "_ZN4aidl7android8hardware5radio4data11BpRadioData13startHandoverEii",
   "parameters" :
   [
    {
     "is_this_ptr" : true,
     "referenced_type" : "_ZTIPN4aidl7android8hardware5radio4data11BpRadioDataE"
    },
    {
     "referenced_type" : "_ZTIi"
    },
    {
     "referenced_type" : "_ZTIi"
    }
   ],
   "return_type" : "_ZTIN3ndk13ScopedAStatusE",
   "source_file" : "out/soong/.intermediates/hardware/interfaces/radio/aidl/android.hardware.radio.data-V1-ndk-source/gen/include/aidl/android/hardware/radio/data/BpRadioData.h"
  },
  {
   "function_name" : "aidl::android::hardware::radio::data::BpRadioData::stopKeepalive",
   "linker_set_key" : "_ZN4aidl7android8hardware5radio4data11BpRadioData13stopKeepaliveEii",
   "parameters" :
   [
    {
     "is_this_ptr" : true,
     "referenced_type" : "_ZTIPN4aidl7android8hardware5radio4data11BpRadioDataE"
    },
    {
     "referenced_type" : "_ZTIi"
    },
    {
     "referenced_type" : "_ZTIi"
    }
   ],
   "return_type" : "_ZTIN3ndk13ScopedAStatusE",
   "source_file" : "out/soong/.intermediates/hardware/interfaces/radio/aidl/android.hardware.radio.data-V1-ndk-source/gen/include/aidl/android/hardware/radio/data/BpRadioData.h"
  },
  {
   "function_name" : "aidl::android::hardware::radio::data::BpRadioData::cancelHandover",
   "linker_set_key" : "_ZN4aidl7android8hardware5radio4data11BpRadioData14cancelHandoverEii",
   "parameters" :
   [
    {
     "is_this_ptr" : true,
     "referenced_type" : "_ZTIPN4aidl7android8hardware5radio4data11BpRadioDataE"
    },
    {
     "referenced_type" : "_ZTIi"
    },
    {
     "referenced_type" : "_ZTIi"
    }
   ],
   "return_type" : "_ZTIN3ndk13ScopedAStatusE",
   "source_file" : "out/soong/.intermediates/hardware/interfaces/radio/aidl/android.hardware.radio.data-V1-ndk-source/gen/include/aidl/android/hardware/radio/data/BpRadioData.h"
  },
  {
   "function_name" : "aidl::android::hardware::radio::data::BpRadioData::setDataAllowed",
   "linker_set_key" : "_ZN4aidl7android8hardware5radio4data11BpRadioData14setDataAllowedEib",
   "parameters" :
   [
    {
     "is_this_ptr" : true,
     "referenced_type" : "_ZTIPN4aidl7android8hardware5radio4data11BpRadioDataE"
    },
    {
     "referenced_type" : "_ZTIi"
    },
    {
     "referenced_type" : "_ZTIb"
    }
   ],
   "return_type" : "_ZTIN3ndk13ScopedAStatusE",
   "source_file" : "out/soong/.intermediates/hardware/interfaces/radio/aidl/android.hardware.radio.data-V1-ndk-source/gen/include/aidl/android/hardware/radio/data/BpRadioData.h"
  },
  {
   "function_name" : "aidl::android::hardware::radio::data::BpRadioData::setDataProfile",
   "linker_set_key" : "_ZN4aidl7android8hardware5radio4data11BpRadioData14setDataProfileEiRKNSt3__16vectorINS3_15DataProfileInfoENS5_9allocatorIS7_EEEE",
   "parameters" :
   [
    {
     "is_this_ptr" : true,
     "referenced_type" : "_ZTIPN4aidl7android8hardware5radio4data11BpRadioDataE"
    },
    {
     "referenced_type" : "_ZTIi"
    },
    {
     "referenced_type" : "_ZTIRKNSt3__16vectorIN4aidl7android8hardware5radio4data15DataProfileInfoENS_9allocatorIS6_EEEE"
    }
   ],
   "return_type" : "_ZTIN3ndk13ScopedAStatusE",
   "source_file" : "out/soong/.intermediates/hardware/interfaces/radio/aidl/android.hardware.radio.data-V1-ndk-source/gen/include/aidl/android/hardware/radio/data/BpRadioData.h"
  },
  {
   "function_name" : "aidl::android::hardware::radio::data::BpRadioData::startKeepalive",
   "linker_set_key" : "_ZN4aidl7android8hardware5radio4data11BpRadioData14startKeepaliveEiRKNS3_16KeepaliveRequestE",
   "parameters" :
   [
    {
     "is_this_ptr" : true,
     "referenced_type" : "_ZTIPN4aidl7android8hardware5radio4data11BpRadioDataE"
    },
    {
     "referenced_type" : "_ZTIi"
    },
    {
     "referenced_type" : "_ZTIRKN4aidl7android8hardware5radio4data16KeepaliveRequestE"
    }
   ],
   "return_type" : "_ZTIN3ndk13ScopedAStatusE",
   "source_file" : "out/soong/.intermediates/hardware/interfaces/radio/aidl/android.hardware.radio.data-V1-ndk-source/gen/include/aidl/android/hardware/radio/data/BpRadioData.h"
  },
  {
   "function_name" : "aidl::android::hardware::radio::data::BpRadioData::getDataCallList",
   "linker_set_key" : "_ZN4aidl7android8hardware5radio4data11BpRadioData15getDataCallListEi",
   "parameters" :
   [
    {
     "is_this_ptr" : true,
     "referenced_type" : "_ZTIPN4aidl7android8hardware5radio4data11BpRadioDataE"
    },
    {
     "referenced_type" : "_ZTIi"
    }
   ],
   "return_type" : "_ZTIN3ndk13ScopedAStatusE",
   "source_file" : "out/soong/.intermediates/hardware/interfaces/radio/aidl/android.hardware.radio.data-V1-ndk-source/gen/include/aidl/android/hardware/radio/data/BpRadioData.h"
  },
  {
   "function_name" : "aidl::android::hardware::radio::data::BpRadioData::getInterfaceHash",
   "linker_set_key" : "_ZN4aidl7android8hardware5radio4data11BpRadioData16getInterfaceHashEPNSt3__112basic_stringIcNS5_11char_traitsIcEENS5_9allocatorIcEEEE",
   "parameters" :
   [
    {
     "is_this_ptr" : true,
     "referenced_type" : "_ZTIPN4aidl7android8hardware5radio4data11BpRadioDataE"
    },
    {
     "referenced_type" : "_ZTIPNSt3__112basic_stringIcNS_11char_traitsIcEENS_9allocatorIcEEEE"
    }
   ],
   "return_type" : "_ZTIN3ndk13ScopedAStatusE",
   "source_file" : "out/soong/.intermediates/hardware/interfaces/radio/aidl/android.hardware.radio.data-V1-ndk-source/gen/include/aidl/android/hardware/radio/data/BpRadioData.h"
  },
  {
   "function_name" : "aidl::android::hardware::radio::data::BpRadioData::getSlicingConfig",
   "linker_set_key" : "_ZN4aidl7android8hardware5radio4data11BpRadioData16getSlicingConfigEi",
   "parameters" :
   [
    {
     "is_this_ptr" : true,
     "referenced_type" : "_ZTIPN4aidl7android8hardware5radio4data11BpRadioDataE"
    },
    {
     "referenced_type" : "_ZTIi"
    }
   ],
   "return_type" : "_ZTIN3ndk13ScopedAStatusE",
   "source_file" : "out/soong/.intermediates/hardware/interfaces/radio/aidl/android.hardware.radio.data-V1-ndk-source/gen/include/aidl/android/hardware/radio/data/BpRadioData.h"
  },
  {
   "function_name" : "aidl::android::hardware::radio::data::BpRadioData::setDataThrottling",
   "linker_set_key" : "_ZN4aidl7android8hardware5radio4data11BpRadioData17setDataThrottlingEiNS3_20DataThrottlingActionEl",
   "parameters" :
   [
    {
     "is_this_ptr" : true,
     "referenced_type" : "_ZTIPN4aidl7android8hardware5radio4data11BpRadioDataE"
    },
    {
     "referenced_type" : "_ZTIi"
    },
    {
     "referenced_type" : "_ZTIN4aidl7android8hardware5radio4data20DataThrottlingActionE"
    },
    {
     "referenced_type" : "_ZTIl"
    }
   ],
   "return_type" : "_ZTIN3ndk13ScopedAStatusE",
   "source_file" : "out/soong/.intermediates/hardware/interfaces/radio/aidl/android.hardware.radio.data-V1-ndk-source/gen/include/aidl/android/hardware/radio/data/BpRadioData.h"
  },
  {
   "function_name" : "aidl::android::hardware::radio::data::BpRadioData::deactivateDataCall",
   "linker_set_key" : "_ZN4aidl7android8hardware5radio4data11BpRadioData18deactivateDataCallEiiNS3_17DataRequestReasonE",
   "parameters" :
   [
    {
     "is_this_ptr" : true,
     "referenced_type" : "_ZTIPN4aidl7android8hardware5radio4data11BpRadioDataE"
    },
    {
     "referenced_type" : "_ZTIi"
    },
    {
     "referenced_type" : "_ZTIi"
    },
    {
     "referenced_type" : "_ZTIN4aidl7android8hardware5radio4data17DataRequestReasonE"
    }
   ],
   "return_type" : "_ZTIN3ndk13ScopedAStatusE",
   "source_file" : "out/soong/.intermediates/hardware/interfaces/radio/aidl/android.hardware.radio.data-V1-ndk-source/gen/include/aidl/android/hardware/radio/data/BpRadioData.h"
  },
  {
   "function_name" : "aidl::android::hardware::radio::data::BpRadioData::getInterfaceVersion",
   "linker_set_key" : "_ZN4aidl7android8hardware5radio4data11BpRadioData19getInterfaceVersionEPi",
   "parameters" :
   [
    {
     "is_this_ptr" : true,
     "referenced_type" : "_ZTIPN4aidl7android8hardware5radio4data11BpRadioDataE"
    },
    {
     "referenced_type" : "_ZTIPi"
    }
   ],
   "return_type" : "_ZTIN3ndk13ScopedAStatusE",
   "source_file" : "out/soong/.intermediates/hardware/interfaces/radio/aidl/android.hardware.radio.data-V1-ndk-source/gen/include/aidl/android/hardware/radio/data/BpRadioData.h"
  },
  {
   "function_name" : "aidl::android::hardware::radio::data::BpRadioData::releasePduSessionId",
   "linker_set_key" : "_ZN4aidl7android8hardware5radio4data11BpRadioData19releasePduSessionIdEii",
   "parameters" :
   [
    {
     "is_this_ptr" : true,
     "referenced_type" : "_ZTIPN4aidl7android8hardware5radio4data11BpRadioDataE"
    },
    {
     "referenced_type" : "_ZTIi"
    },
    {
     "referenced_type" : "_ZTIi"
    }
   ],
   "return_type" : "_ZTIN3ndk13ScopedAStatusE",
   "source_file" : "out/soong/.intermediates/hardware/interfaces/radio/aidl/android.hardware.radio.data-V1-ndk-source/gen/include/aidl/android/hardware/radio/data/BpRadioData.h"
  },
  {
   "function_name" : "aidl::android::hardware::radio::data::BpRadioData::setInitialAttachApn",
   "linker_set_key" : "_ZN4aidl7android8hardware5radio4data11BpRadioData19setInitialAttachApnEiRKNSt3__18optionalINS3_15DataProfileInfoEEE",
   "parameters" :
   [
    {
     "is_this_ptr" : true,
     "referenced_type" : "_ZTIPN4aidl7android8hardware5radio4data11BpRadioDataE"
    },
    {
     "referenced_type" : "_ZTIi"
    },
    {
     "referenced_type" : "_ZTIRKNSt3__18optionalIN4aidl7android8hardware5radio4data15DataProfileInfoEEE"
    }
   ],
   "return_type" : "_ZTIN3ndk13ScopedAStatusE",
   "source_file" : "out/soong/.intermediates/hardware/interfaces/radio/aidl/android.hardware.radio.data-V1-ndk-source/gen/include/aidl/android/hardware/radio/data/BpRadioData.h"
  },
  {
   "function_name" : "aidl::android::hardware::radio::data::BpRadioData::allocatePduSessionId",
   "linker_set_key" : "_ZN4aidl7android8hardware5radio4data11BpRadioData20allocatePduSessionIdEi",
   "parameters" :
   [
    {
     "is_this_ptr" : true,
     "referenced_type" : "_ZTIPN4aidl7android8hardware5radio4data11BpRadioDataE"
    },
    {
     "referenced_type" : "_ZTIi"
    }
   ],
   "return_type" : "_ZTIN3ndk13ScopedAStatusE",
   "source_file" : "out/soong/.intermediates/hardware/interfaces/radio/aidl/android.hardware.radio.data-V1-ndk-source/gen/include/aidl/android/hardware/radio/data/BpRadioData.h"
  },
  {
   "function_name" : "aidl::android::hardware::radio::data::BpRadioData::setResponseFunctions",
   "linker_set_key" : "_ZN4aidl7android8hardware5radio4data11BpRadioData20setResponseFunctionsERKNSt3__110shared_ptrINS3_18IRadioDataResponseEEERKNS6_INS3_20IRadioDataIndicationEEE",
   "parameters" :
   [
    {
     "is_this_ptr" : true,
     "referenced_type" : "_ZTIPN4aidl7android8hardware5radio4data11BpRadioDataE"
    },
    {
     "referenced_type" : "_ZTIRKNSt3__110shared_ptrIN4aidl7android8hardware5radio4data18IRadioDataResponseEEE"
    },
    {
     "referenced_type" : "_ZTIRKNSt3__110shared_ptrIN4aidl7android8hardware5radio4data20IRadioDataIndicationEEE"
    }
   ],
   "return_type" : "_ZTIN3ndk13ScopedAStatusE",
   "source_file" : "out/soong/.intermediates/hardware/interfaces/radio/aidl/android.hardware.radio.data-V1-ndk-source/gen/include/aidl/android/hardware/radio/data/BpRadioData.h"
  },
  {
   "function_name" : "aidl::android::hardware::radio::data::BpRadioData::responseAcknowledgement",
   "linker_set_key" : "_ZN4aidl7android8hardware5radio4data11BpRadioData23responseAcknowledgementEv",
   "parameters" :
   [
    {
     "is_this_ptr" : true,
     "referenced_type" : "_ZTIPN4aidl7android8hardware5radio4data11BpRadioDataE"
    }
   ],
   "return_type" : "_ZTIN3ndk13ScopedAStatusE",
   "source_file" : "out/soong/.intermediates/hardware/interfaces/radio/aidl/android.hardware.radio.data-V1-ndk-source/gen/include/aidl/android/hardware/radio/data/BpRadioData.h"
  },
  {
   "function_name" : "aidl::android::hardware::radio::data::BpRadioData::BpRadioData",
   "linker_set_key" : "_ZN4aidl7android8hardware5radio4data11BpRadioDataC1ERKN3ndk10SpAIBinderE",
   "parameters" :
   [
    {
     "is_this_ptr" : true,
     "referenced_type" : "_ZTIPN4aidl7android8hardware5radio4data11BpRadioDataE"
    },
    {
     "referenced_type" : "_ZTIRKN3ndk10SpAIBinderE"
    }
   ],
   "return_type" : "_ZTIv",
   "source_file" : "out/soong/.intermediates/hardware/interfaces/radio/aidl/android.hardware.radio.data-V1-ndk-source/gen/include/aidl/android/hardware/radio/data/BpRadioData.h"
  },
  {
   "function_name" : "aidl::android::hardware::radio::data::BpRadioData::BpRadioData",
   "linker_set_key" : "_ZN4aidl7android8hardware5radio4data11BpRadioDataC2ERKN3ndk10SpAIBinderE",
   "parameters" :
   [
    {
     "is_this_ptr" : true,
     "referenced_type" : "_ZTIPN4aidl7android8hardware5radio4data11BpRadioDataE"
    },
    {
     "referenced_type" : "_ZTIRKN3ndk10SpAIBinderE"
    }
   ],
   "return_type" : "_ZTIv",
   "source_file" : "out/soong/.intermediates/hardware/interfaces/radio/aidl/android.hardware.radio.data-V1-ndk-source/gen/include/aidl/android/hardware/radio/data/BpRadioData.h"
  },
  {
   "function_name" : "aidl::android::hardware::radio::data::BpRadioData::~BpRadioData",
   "linker_set_key" : "_ZN4aidl7android8hardware5radio4data11BpRadioDataD0Ev",
   "parameters" :
   [
    {
     "is_this_ptr" : true,
     "referenced_type" : "_ZTIPN4aidl7android8hardware5radio4data11BpRadioDataE"
    }
   ],
   "return_type" : "_ZTIv",
   "source_file" : "out/soong/.intermediates/hardware/interfaces/radio/aidl/android.hardware.radio.data-V1-ndk-source/gen/include/aidl/android/hardware/radio/data/BpRadioData.h"
  },
  {
   "function_name" : "aidl::android::hardware::radio::data::BpRadioData::~BpRadioData",
   "linker_set_key" : "_ZN4aidl7android8hardware5radio4data11BpRadioDataD1Ev",
   "parameters" :
   [
    {
     "is_this_ptr" : true,
     "referenced_type" : "_ZTIPN4aidl7android8hardware5radio4data11BpRadioDataE"
    }
   ],
   "return_type" : "_ZTIv",
   "source_file" : "out/soong/.intermediates/hardware/interfaces/radio/aidl/android.hardware.radio.data-V1-ndk-source/gen/include/aidl/android/hardware/radio/data/BpRadioData.h"
  },
  {
   "function_name" : "aidl::android::hardware::radio::data::BpRadioData::~BpRadioData",
   "linker_set_key" : "_ZN4aidl7android8hardware5radio4data11BpRadioDataD2Ev",
   "parameters" :
   [
    {
     "is_this_ptr" : true,
     "referenced_type" : "_ZTIPN4aidl7android8hardware5radio4data11BpRadioDataE"
    }
   ],
   "return_type" : "_ZTIv",
   "source_file" : "out/soong/.intermediates/hardware/interfaces/radio/aidl/android.hardware.radio.data-V1-ndk-source/gen/include/aidl/android/hardware/radio/data/BpRadioData.h"
  },
  {
   "function_name" : "aidl::android::hardware::radio::data::LinkAddress::readFromParcel",
   "linker_set_key" : "_ZN4aidl7android8hardware5radio4data11LinkAddress14readFromParcelEPK7AParcel",
   "parameters" :
   [
    {
     "is_this_ptr" : true,
     "referenced_type" : "_ZTIPN4aidl7android8hardware5radio4data11LinkAddressE"
    },
    {
     "referenced_type" : "_ZTIPK7AParcel"
    }
   ],
   "return_type" : "_ZTIi",
   "source_file" : "out/soong/.intermediates/hardware/interfaces/radio/aidl/android.hardware.radio.data-V1-ndk-source/gen/include/aidl/android/hardware/radio/data/LinkAddress.h"
  },
  {
   "function_name" : "aidl::android::hardware::radio::data::PcoDataInfo::readFromParcel",
   "linker_set_key" : "_ZN4aidl7android8hardware5radio4data11PcoDataInfo14readFromParcelEPK7AParcel",
   "parameters" :
   [
    {
     "is_this_ptr" : true,
     "referenced_type" : "_ZTIPN4aidl7android8hardware5radio4data11PcoDataInfoE"
    },
    {
     "referenced_type" : "_ZTIPK7AParcel"
    }
   ],
   "return_type" : "_ZTIi",
   "source_file" : "out/soong/.intermediates/hardware/interfaces/radio/aidl/android.hardware.radio.data-V1-ndk-source/gen/include/aidl/android/hardware/radio/data/PcoDataInfo.h"
  },
  {
   "function_name" : "aidl::android::hardware::radio::data::QosBandwidth::readFromParcel",
   "linker_set_key" : "_ZN4aidl7android8hardware5radio4data12QosBandwidth14readFromParcelEPK7AParcel",
   "parameters" :
   [
    {
     "is_this_ptr" : true,
     "referenced_type" : "_ZTIPN4aidl7android8hardware5radio4data12QosBandwidthE"
    },
    {
     "referenced_type" : "_ZTIPK7AParcel"
    }
   ],
   "return_type" : "_ZTIi",
   "source_file" : "out/soong/.intermediates/hardware/interfaces/radio/aidl/android.hardware.radio.data-V1-ndk-source/gen/include/aidl/android/hardware/radio/data/QosBandwidth.h"
  },
  {
   "function_name" : "aidl::android::hardware::radio::data::SlicingConfig::readFromParcel",
   "linker_set_key" : "_ZN4aidl7android8hardware5radio4data13SlicingConfig14readFromParcelEPK7AParcel",
   "parameters" :
   [
    {
     "is_this_ptr" : true,
     "referenced_type" : "_ZTIPN4aidl7android8hardware5radio4data13SlicingConfigE"
    },
    {
     "referenced_type" : "_ZTIPK7AParcel"
    }
   ],
   "return_type" : "_ZTIi",
   "source_file" : "out/soong/.intermediates/hardware/interfaces/radio/aidl/android.hardware.radio.data-V1-ndk-source/gen/include/aidl/android/hardware/radio/data/SlicingConfig.h"
  },
  {
   "function_name" : "aidl::android::hardware::radio::data::DataProfileInfo::readFromParcel",
   "linker_set_key" : "_ZN4aidl7android8hardware5radio4data15DataProfileInfo14readFromParcelEPK7AParcel",
   "parameters" :
   [
    {
     "is_this_ptr" : true,
     "referenced_type" : "_ZTIPN4aidl7android8hardware5radio4data15DataProfileInfoE"
    },
    {
     "referenced_type" : "_ZTIPK7AParcel"
    }
   ],
   "return_type" : "_ZTIi",
   "source_file" : "out/soong/.intermediates/hardware/interfaces/radio/aidl/android.hardware.radio.data-V1-ndk-source/gen/include/aidl/android/hardware/radio/data/DataProfileInfo.h"
  },
  {
   "function_name" : "aidl::android::hardware::radio::data::KeepaliveStatus::readFromParcel",
   "linker_set_key" : "_ZN4aidl7android8hardware5radio4data15KeepaliveStatus14readFromParcelEPK7AParcel",
   "parameters" :
   [
    {
     "is_this_ptr" : true,
     "referenced_type" : "_ZTIPN4aidl7android8hardware5radio4data15KeepaliveStatusE"
    },
    {
     "referenced_type" : "_ZTIPK7AParcel"
    }
   ],
   "return_type" : "_ZTIi",
   "source_file" : "out/soong/.intermediates/hardware/interfaces/radio/aidl/android.hardware.radio.data-V1-ndk-source/gen/include/aidl/android/hardware/radio/data/KeepaliveStatus.h"
  },
  {
   "function_name" : "aidl::android::hardware::radio::data::KeepaliveRequest::readFromParcel",
   "linker_set_key" : "_ZN4aidl7android8hardware5radio4data16KeepaliveRequest14readFromParcelEPK7AParcel",
   "parameters" :
   [
    {
     "is_this_ptr" : true,
     "referenced_type" : "_ZTIPN4aidl7android8hardware5radio4data16KeepaliveRequestE"
    },
    {
     "referenced_type" : "_ZTIPK7AParcel"
    }
   ],
   "return_type" : "_ZTIi",
   "source_file" : "out/soong/.intermediates/hardware/interfaces/radio/aidl/android.hardware.radio.data-V1-ndk-source/gen/include/aidl/android/hardware/radio/data/KeepaliveRequest.h"
  },
  {
   "function_name" : "aidl::android::hardware::radio::data::IRadioDataDefault::setupDataCall",
   "linker_set_key" : "_ZN4aidl7android8hardware5radio4data17IRadioDataDefault13setupDataCallEiNS2_13AccessNetworkERKNS3_15DataProfileInfoEbNS3_17DataRequestReasonERKNSt3__16vectorINS3_11LinkAddressENSA_9allocatorISC_EEEERKNSB_INSA_12basic_stringIcNSA_11char_traitsIcEENSD_IcEEEENSD_ISM_EEEEiRKNSA_8optionalINS3_9SliceInfoEEEb",
   "parameters" :
   [
    {
     "is_this_ptr" : true,
     "referenced_type" : "_ZTIPN4aidl7android8hardware5radio4data17IRadioDataDefaultE"
    },
    {
     "referenced_type" : "_ZTIi"
    },
    {
     "referenced_type" : "_ZTIN4aidl7android8hardware5radio13AccessNetworkE"
    },
    {
     "referenced_type" : "_ZTIRKN4aidl7android8hardware5radio4data15DataProfileInfoE"
    },
    {
     "referenced_type" : "_ZTIb"
    },
    {
     "referenced_type" : "_ZTIN4aidl7android8hardware5radio4data17DataRequestReasonE"
    },
    {
     "referenced_type" : "_ZTIRKNSt3__16vectorIN4aidl7android8hardware5radio4data11LinkAddressENS_9allocatorIS6_EEEE"
    },
    {
     "referenced_type" : "_ZTIRKNSt3__16vectorINS_12basic_stringIcNS_11char_traitsIcEENS_9allocatorIcEEEENS4_IS6_EEEE"
    },
    {
     "referenced_type" : "_ZTIi"
    },
    {
     "referenced_type" : "_ZTIRKNSt3__18optionalIN4aidl7android8hardware5radio4data9SliceInfoEEE"
    },
    {
     "referenced_type" : "_ZTIb"
    }
   ],
   "return_type" : "_ZTIN3ndk13ScopedAStatusE",
   "source_file" : "out/soong/.intermediates/hardware/interfaces/radio/aidl/android.hardware.radio.data-V1-ndk-source/gen/include/aidl/android/hardware/radio/data/IRadioData.h"
  },
  {
   "function_name" : "aidl::android::hardware::radio::data::IRadioDataDefault::startHandover",
   "linker_set_key" : "_ZN4aidl7android8hardware5radio4data17IRadioDataDefault13startHandoverEii",
   "parameters" :
   [
    {
     "is_this_ptr" : true,
     "referenced_type" : "_ZTIPN4aidl7android8hardware5radio4data17IRadioDataDefaultE"
    },
    {
     "referenced_type" : "_ZTIi"
    },
    {
     "referenced_type" : "_ZTIi"
    }
   ],
   "return_type" : "_ZTIN3ndk13ScopedAStatusE",
   "source_file" : "out/soong/.intermediates/hardware/interfaces/radio/aidl/android.hardware.radio.data-V1-ndk-source/gen/include/aidl/android/hardware/radio/data/IRadioData.h"
  },
  {
   "function_name" : "aidl::android::hardware::radio::data::IRadioDataDefault::stopKeepalive",
   "linker_set_key" : "_ZN4aidl7android8hardware5radio4data17IRadioDataDefault13stopKeepaliveEii",
   "parameters" :
   [
    {
     "is_this_ptr" : true,
     "referenced_type" : "_ZTIPN4aidl7android8hardware5radio4data17IRadioDataDefaultE"
    },
    {
     "referenced_type" : "_ZTIi"
    },
    {
     "referenced_type" : "_ZTIi"
    }
   ],
   "return_type" : "_ZTIN3ndk13ScopedAStatusE",
   "source_file" : "out/soong/.intermediates/hardware/interfaces/radio/aidl/android.hardware.radio.data-V1-ndk-source/gen/include/aidl/android/hardware/radio/data/IRadioData.h"
  },
  {
   "function_name" : "aidl::android::hardware::radio::data::IRadioDataDefault::cancelHandover",
   "linker_set_key" : "_ZN4aidl7android8hardware5radio4data17IRadioDataDefault14cancelHandoverEii",
   "parameters" :
   [
    {
     "is_this_ptr" : true,
     "referenced_type" : "_ZTIPN4aidl7android8hardware5radio4data17IRadioDataDefaultE"
    },
    {
     "referenced_type" : "_ZTIi"
    },
    {
     "referenced_type" : "_ZTIi"
    }
   ],
   "return_type" : "_ZTIN3ndk13ScopedAStatusE",
   "source_file" : "out/soong/.intermediates/hardware/interfaces/radio/aidl/android.hardware.radio.data-V1-ndk-source/gen/include/aidl/android/hardware/radio/data/IRadioData.h"
  },
  {
   "function_name" : "aidl::android::hardware::radio::data::IRadioDataDefault::setDataAllowed",
   "linker_set_key" : "_ZN4aidl7android8hardware5radio4data17IRadioDataDefault14setDataAllowedEib",
   "parameters" :
   [
    {
     "is_this_ptr" : true,
     "referenced_type" : "_ZTIPN4aidl7android8hardware5radio4data17IRadioDataDefaultE"
    },
    {
     "referenced_type" : "_ZTIi"
    },
    {
     "referenced_type" : "_ZTIb"
    }
   ],
   "return_type" : "_ZTIN3ndk13ScopedAStatusE",
   "source_file" : "out/soong/.intermediates/hardware/interfaces/radio/aidl/android.hardware.radio.data-V1-ndk-source/gen/include/aidl/android/hardware/radio/data/IRadioData.h"
  },
  {
   "function_name" : "aidl::android::hardware::radio::data::IRadioDataDefault::setDataProfile",
   "linker_set_key" : "_ZN4aidl7android8hardware5radio4data17IRadioDataDefault14setDataProfileEiRKNSt3__16vectorINS3_15DataProfileInfoENS5_9allocatorIS7_EEEE",
   "parameters" :
   [
    {
     "is_this_ptr" : true,
     "referenced_type" : "_ZTIPN4aidl7android8hardware5radio4data17IRadioDataDefaultE"
    },
    {
     "referenced_type" : "_ZTIi"
    },
    {
     "referenced_type" : "_ZTIRKNSt3__16vectorIN4aidl7android8hardware5radio4data15DataProfileInfoENS_9allocatorIS6_EEEE"
    }
   ],
   "return_type" : "_ZTIN3ndk13ScopedAStatusE",
   "source_file" : "out/soong/.intermediates/hardware/interfaces/radio/aidl/android.hardware.radio.data-V1-ndk-source/gen/include/aidl/android/hardware/radio/data/IRadioData.h"
  },
  {
   "function_name" : "aidl::android::hardware::radio::data::IRadioDataDefault::startKeepalive",
   "linker_set_key" : "_ZN4aidl7android8hardware5radio4data17IRadioDataDefault14startKeepaliveEiRKNS3_16KeepaliveRequestE",
   "parameters" :
   [
    {
     "is_this_ptr" : true,
     "referenced_type" : "_ZTIPN4aidl7android8hardware5radio4data17IRadioDataDefaultE"
    },
    {
     "referenced_type" : "_ZTIi"
    },
    {
     "referenced_type" : "_ZTIRKN4aidl7android8hardware5radio4data16KeepaliveRequestE"
    }
   ],
   "return_type" : "_ZTIN3ndk13ScopedAStatusE",
   "source_file" : "out/soong/.intermediates/hardware/interfaces/radio/aidl/android.hardware.radio.data-V1-ndk-source/gen/include/aidl/android/hardware/radio/data/IRadioData.h"
  },
  {
   "function_name" : "aidl::android::hardware::radio::data::IRadioDataDefault::getDataCallList",
   "linker_set_key" : "_ZN4aidl7android8hardware5radio4data17IRadioDataDefault15getDataCallListEi",
   "parameters" :
   [
    {
     "is_this_ptr" : true,
     "referenced_type" : "_ZTIPN4aidl7android8hardware5radio4data17IRadioDataDefaultE"
    },
    {
     "referenced_type" : "_ZTIi"
    }
   ],
   "return_type" : "_ZTIN3ndk13ScopedAStatusE",
   "source_file" : "out/soong/.intermediates/hardware/interfaces/radio/aidl/android.hardware.radio.data-V1-ndk-source/gen/include/aidl/android/hardware/radio/data/IRadioData.h"
  },
  {
   "function_name" : "aidl::android::hardware::radio::data::IRadioDataDefault::getInterfaceHash",
   "linker_set_key" : "_ZN4aidl7android8hardware5radio4data17IRadioDataDefault16getInterfaceHashEPNSt3__112basic_stringIcNS5_11char_traitsIcEENS5_9allocatorIcEEEE",
   "parameters" :
   [
    {
     "is_this_ptr" : true,
     "referenced_type" : "_ZTIPN4aidl7android8hardware5radio4data17IRadioDataDefaultE"
    },
    {
     "referenced_type" : "_ZTIPNSt3__112basic_stringIcNS_11char_traitsIcEENS_9allocatorIcEEEE"
    }
   ],
   "return_type" : "_ZTIN3ndk13ScopedAStatusE",
   "source_file" : "out/soong/.intermediates/hardware/interfaces/radio/aidl/android.hardware.radio.data-V1-ndk-source/gen/include/aidl/android/hardware/radio/data/IRadioData.h"
  },
  {
   "function_name" : "aidl::android::hardware::radio::data::IRadioDataDefault::getSlicingConfig",
   "linker_set_key" : "_ZN4aidl7android8hardware5radio4data17IRadioDataDefault16getSlicingConfigEi",
   "parameters" :
   [
    {
     "is_this_ptr" : true,
     "referenced_type" : "_ZTIPN4aidl7android8hardware5radio4data17IRadioDataDefaultE"
    },
    {
     "referenced_type" : "_ZTIi"
    }
   ],
   "return_type" : "_ZTIN3ndk13ScopedAStatusE",
   "source_file" : "out/soong/.intermediates/hardware/interfaces/radio/aidl/android.hardware.radio.data-V1-ndk-source/gen/include/aidl/android/hardware/radio/data/IRadioData.h"
  },
  {
   "function_name" : "aidl::android::hardware::radio::data::IRadioDataDefault::setDataThrottling",
   "linker_set_key" : "_ZN4aidl7android8hardware5radio4data17IRadioDataDefault17setDataThrottlingEiNS3_20DataThrottlingActionEl",
   "parameters" :
   [
    {
     "is_this_ptr" : true,
     "referenced_type" : "_ZTIPN4aidl7android8hardware5radio4data17IRadioDataDefaultE"
    },
    {
     "referenced_type" : "_ZTIi"
    },
    {
     "referenced_type" : "_ZTIN4aidl7android8hardware5radio4data20DataThrottlingActionE"
    },
    {
     "referenced_type" : "_ZTIl"
    }
   ],
   "return_type" : "_ZTIN3ndk13ScopedAStatusE",
   "source_file" : "out/soong/.intermediates/hardware/interfaces/radio/aidl/android.hardware.radio.data-V1-ndk-source/gen/include/aidl/android/hardware/radio/data/IRadioData.h"
  },
  {
   "function_name" : "aidl::android::hardware::radio::data::IRadioDataDefault::deactivateDataCall",
   "linker_set_key" : "_ZN4aidl7android8hardware5radio4data17IRadioDataDefault18deactivateDataCallEiiNS3_17DataRequestReasonE",
   "parameters" :
   [
    {
     "is_this_ptr" : true,
     "referenced_type" : "_ZTIPN4aidl7android8hardware5radio4data17IRadioDataDefaultE"
    },
    {
     "referenced_type" : "_ZTIi"
    },
    {
     "referenced_type" : "_ZTIi"
    },
    {
     "referenced_type" : "_ZTIN4aidl7android8hardware5radio4data17DataRequestReasonE"
    }
   ],
   "return_type" : "_ZTIN3ndk13ScopedAStatusE",
   "source_file" : "out/soong/.intermediates/hardware/interfaces/radio/aidl/android.hardware.radio.data-V1-ndk-source/gen/include/aidl/android/hardware/radio/data/IRadioData.h"
  },
  {
   "function_name" : "aidl::android::hardware::radio::data::IRadioDataDefault::getInterfaceVersion",
   "linker_set_key" : "_ZN4aidl7android8hardware5radio4data17IRadioDataDefault19getInterfaceVersionEPi",
   "parameters" :
   [
    {
     "is_this_ptr" : true,
     "referenced_type" : "_ZTIPN4aidl7android8hardware5radio4data17IRadioDataDefaultE"
    },
    {
     "referenced_type" : "_ZTIPi"
    }
   ],
   "return_type" : "_ZTIN3ndk13ScopedAStatusE",
   "source_file" : "out/soong/.intermediates/hardware/interfaces/radio/aidl/android.hardware.radio.data-V1-ndk-source/gen/include/aidl/android/hardware/radio/data/IRadioData.h"
  },
  {
   "function_name" : "aidl::android::hardware::radio::data::IRadioDataDefault::releasePduSessionId",
   "linker_set_key" : "_ZN4aidl7android8hardware5radio4data17IRadioDataDefault19releasePduSessionIdEii",
   "parameters" :
   [
    {
     "is_this_ptr" : true,
     "referenced_type" : "_ZTIPN4aidl7android8hardware5radio4data17IRadioDataDefaultE"
    },
    {
     "referenced_type" : "_ZTIi"
    },
    {
     "referenced_type" : "_ZTIi"
    }
   ],
   "return_type" : "_ZTIN3ndk13ScopedAStatusE",
   "source_file" : "out/soong/.intermediates/hardware/interfaces/radio/aidl/android.hardware.radio.data-V1-ndk-source/gen/include/aidl/android/hardware/radio/data/IRadioData.h"
  },
  {
   "function_name" : "aidl::android::hardware::radio::data::IRadioDataDefault::setInitialAttachApn",
   "linker_set_key" : "_ZN4aidl7android8hardware5radio4data17IRadioDataDefault19setInitialAttachApnEiRKNSt3__18optionalINS3_15DataProfileInfoEEE",
   "parameters" :
   [
    {
     "is_this_ptr" : true,
     "referenced_type" : "_ZTIPN4aidl7android8hardware5radio4data17IRadioDataDefaultE"
    },
    {
     "referenced_type" : "_ZTIi"
    },
    {
     "referenced_type" : "_ZTIRKNSt3__18optionalIN4aidl7android8hardware5radio4data15DataProfileInfoEEE"
    }
   ],
   "return_type" : "_ZTIN3ndk13ScopedAStatusE",
   "source_file" : "out/soong/.intermediates/hardware/interfaces/radio/aidl/android.hardware.radio.data-V1-ndk-source/gen/include/aidl/android/hardware/radio/data/IRadioData.h"
  },
  {
   "function_name" : "aidl::android::hardware::radio::data::IRadioDataDefault::allocatePduSessionId",
   "linker_set_key" : "_ZN4aidl7android8hardware5radio4data17IRadioDataDefault20allocatePduSessionIdEi",
   "parameters" :
   [
    {
     "is_this_ptr" : true,
     "referenced_type" : "_ZTIPN4aidl7android8hardware5radio4data17IRadioDataDefaultE"
    },
    {
     "referenced_type" : "_ZTIi"
    }
   ],
   "return_type" : "_ZTIN3ndk13ScopedAStatusE",
   "source_file" : "out/soong/.intermediates/hardware/interfaces/radio/aidl/android.hardware.radio.data-V1-ndk-source/gen/include/aidl/android/hardware/radio/data/IRadioData.h"
  },
  {
   "function_name" : "aidl::android::hardware::radio::data::IRadioDataDefault::setResponseFunctions",
   "linker_set_key" : "_ZN4aidl7android8hardware5radio4data17IRadioDataDefault20setResponseFunctionsERKNSt3__110shared_ptrINS3_18IRadioDataResponseEEERKNS6_INS3_20IRadioDataIndicationEEE",
   "parameters" :
   [
    {
     "is_this_ptr" : true,
     "referenced_type" : "_ZTIPN4aidl7android8hardware5radio4data17IRadioDataDefaultE"
    },
    {
     "referenced_type" : "_ZTIRKNSt3__110shared_ptrIN4aidl7android8hardware5radio4data18IRadioDataResponseEEE"
    },
    {
     "referenced_type" : "_ZTIRKNSt3__110shared_ptrIN4aidl7android8hardware5radio4data20IRadioDataIndicationEEE"
    }
   ],
   "return_type" : "_ZTIN3ndk13ScopedAStatusE",
   "source_file" : "out/soong/.intermediates/hardware/interfaces/radio/aidl/android.hardware.radio.data-V1-ndk-source/gen/include/aidl/android/hardware/radio/data/IRadioData.h"
  },
  {
   "function_name" : "aidl::android::hardware::radio::data::IRadioDataDefault::responseAcknowledgement",
   "linker_set_key" : "_ZN4aidl7android8hardware5radio4data17IRadioDataDefault23responseAcknowledgementEv",
   "parameters" :
   [
    {
     "is_this_ptr" : true,
     "referenced_type" : "_ZTIPN4aidl7android8hardware5radio4data17IRadioDataDefaultE"
    }
   ],
   "return_type" : "_ZTIN3ndk13ScopedAStatusE",
   "source_file" : "out/soong/.intermediates/hardware/interfaces/radio/aidl/android.hardware.radio.data-V1-ndk-source/gen/include/aidl/android/hardware/radio/data/IRadioData.h"
  },
  {
   "function_name" : "aidl::android::hardware::radio::data::IRadioDataDefault::asBinder",
   "linker_set_key" : "_ZN4aidl7android8hardware5radio4data17IRadioDataDefault8asBinderEv",
   "parameters" :
   [
    {
     "is_this_ptr" : true,
     "referenced_type" : "_ZTIPN4aidl7android8hardware5radio4data17IRadioDataDefaultE"
    }
   ],
   "return_type" : "_ZTIN3ndk10SpAIBinderE",
   "source_file" : "out/soong/.intermediates/hardware/interfaces/radio/aidl/android.hardware.radio.data-V1-ndk-source/gen/include/aidl/android/hardware/radio/data/IRadioData.h"
  },
  {
   "function_name" : "aidl::android::hardware::radio::data::IRadioDataDefault::isRemote",
   "linker_set_key" : "_ZN4aidl7android8hardware5radio4data17IRadioDataDefault8isRemoteEv",
   "parameters" :
   [
    {
     "is_this_ptr" : true,
     "referenced_type" : "_ZTIPN4aidl7android8hardware5radio4data17IRadioDataDefaultE"
    }
   ],
   "return_type" : "_ZTIb",
   "source_file" : "out/soong/.intermediates/hardware/interfaces/radio/aidl/android.hardware.radio.data-V1-ndk-source/gen/include/aidl/android/hardware/radio/data/IRadioData.h"
  },
  {
   "function_name" : "aidl::android::hardware::radio::data::QosFilterIpsecSpi::readFromParcel",
   "linker_set_key" : "_ZN4aidl7android8hardware5radio4data17QosFilterIpsecSpi14readFromParcelEPK7AParcel",
   "parameters" :
   [
    {
     "is_this_ptr" : true,
     "referenced_type" : "_ZTIPN4aidl7android8hardware5radio4data17QosFilterIpsecSpiE"
    },
    {
     "referenced_type" : "_ZTIPK7AParcel"
    }
   ],
   "return_type" : "_ZTIi",
   "source_file" : "out/soong/.intermediates/hardware/interfaces/radio/aidl/android.hardware.radio.data-V1-ndk-source/gen/include/aidl/android/hardware/radio/data/QosFilterIpsecSpi.h"
  },
  {
   "function_name" : "aidl::android::hardware::radio::data::TrafficDescriptor::readFromParcel",
   "linker_set_key" : "_ZN4aidl7android8hardware5radio4data17TrafficDescriptor14readFromParcelEPK7AParcel",
   "parameters" :
   [
    {
     "is_this_ptr" : true,
     "referenced_type" : "_ZTIPN4aidl7android8hardware5radio4data17TrafficDescriptorE"
    },
    {
     "referenced_type" : "_ZTIPK7AParcel"
    }
   ],
   "return_type" : "_ZTIi",
   "source_file" : "out/soong/.intermediates/hardware/interfaces/radio/aidl/android.hardware.radio.data-V1-ndk-source/gen/include/aidl/android/hardware/radio/data/TrafficDescriptor.h"
  },
  {
   "function_name" : "aidl::android::hardware::radio::data::IRadioDataResponse::fromBinder",
   "linker_set_key" : "_ZN4aidl7android8hardware5radio4data18IRadioDataResponse10fromBinderERKN3ndk10SpAIBinderE",
   "parameters" :
   [
    {
     "referenced_type" : "_ZTIRKN3ndk10SpAIBinderE"
    }
   ],
   "return_type" : "_ZTINSt3__110shared_ptrIN4aidl7android8hardware5radio4data18IRadioDataResponseEEE",
   "source_file" : "out/soong/.intermediates/hardware/interfaces/radio/aidl/android.hardware.radio.data-V1-ndk-source/gen/include/aidl/android/hardware/radio/data/IRadioDataResponse.h"
  },
  {
   "function_name" : "aidl::android::hardware::radio::data::IRadioDataResponse::writeToParcel",
   "linker_set_key" : "_ZN4aidl7android8hardware5radio4data18IRadioDataResponse13writeToParcelEP7AParcelRKNSt3__110shared_ptrIS4_EE",
   "parameters" :
   [
    {
     "referenced_type" : "_ZTIP7AParcel"
    },
    {
     "referenced_type" : "_ZTIRKNSt3__110shared_ptrIN4aidl7android8hardware5radio4data18IRadioDataResponseEEE"
    }
   ],
   "return_type" : "_ZTIi",
   "source_file" : "out/soong/.intermediates/hardware/interfaces/radio/aidl/android.hardware.radio.data-V1-ndk-source/gen/include/aidl/android/hardware/radio/data/IRadioDataResponse.h"
  },
  {
   "function_name" : "aidl::android::hardware::radio::data::IRadioDataResponse::getDefaultImpl",
   "linker_set_key" : "_ZN4aidl7android8hardware5radio4data18IRadioDataResponse14getDefaultImplEv",
   "return_type" : "_ZTIRKNSt3__110shared_ptrIN4aidl7android8hardware5radio4data18IRadioDataResponseEEE",
   "source_file" : "out/soong/.intermediates/hardware/interfaces/radio/aidl/android.hardware.radio.data-V1-ndk-source/gen/include/aidl/android/hardware/radio/data/IRadioDataResponse.h"
  },
  {
   "function_name" : "aidl::android::hardware::radio::data::IRadioDataResponse::readFromParcel",
   "linker_set_key" : "_ZN4aidl7android8hardware5radio4data18IRadioDataResponse14readFromParcelEPK7AParcelPNSt3__110shared_ptrIS4_EE",
   "parameters" :
   [
    {
     "referenced_type" : "_ZTIPK7AParcel"
    },
    {
     "referenced_type" : "_ZTIPNSt3__110shared_ptrIN4aidl7android8hardware5radio4data18IRadioDataResponseEEE"
    }
   ],
   "return_type" : "_ZTIi",
   "source_file" : "out/soong/.intermediates/hardware/interfaces/radio/aidl/android.hardware.radio.data-V1-ndk-source/gen/include/aidl/android/hardware/radio/data/IRadioDataResponse.h"
  },
  {
   "function_name" : "aidl::android::hardware::radio::data::IRadioDataResponse::setDefaultImpl",
   "linker_set_key" : "_ZN4aidl7android8hardware5radio4data18IRadioDataResponse14setDefaultImplERKNSt3__110shared_ptrIS4_EE",
   "parameters" :
   [
    {
     "referenced_type" : "_ZTIRKNSt3__110shared_ptrIN4aidl7android8hardware5radio4data18IRadioDataResponseEEE"
    }
   ],
   "return_type" : "_ZTIb",
   "source_file" : "out/soong/.intermediates/hardware/interfaces/radio/aidl/android.hardware.radio.data-V1-ndk-source/gen/include/aidl/android/hardware/radio/data/IRadioDataResponse.h"
  },
  {
   "function_name" : "aidl::android::hardware::radio::data::IRadioDataResponse::IRadioDataResponse",
   "linker_set_key" : "_ZN4aidl7android8hardware5radio4data18IRadioDataResponseC2Ev",
   "parameters" :
   [
    {
     "is_this_ptr" : true,
     "referenced_type" : "_ZTIPN4aidl7android8hardware5radio4data18IRadioDataResponseE"
    }
   ],
   "return_type" : "_ZTIv",
   "source_file" : "out/soong/.intermediates/hardware/interfaces/radio/aidl/android.hardware.radio.data-V1-ndk-source/gen/include/aidl/android/hardware/radio/data/IRadioDataResponse.h"
  },
  {
   "function_name" : "aidl::android::hardware::radio::data::IRadioDataResponse::~IRadioDataResponse",
   "linker_set_key" : "_ZN4aidl7android8hardware5radio4data18IRadioDataResponseD0Ev",
   "parameters" :
   [
    {
     "is_this_ptr" : true,
     "referenced_type" : "_ZTIPN4aidl7android8hardware5radio4data18IRadioDataResponseE"
    }
   ],
   "return_type" : "_ZTIv",
   "source_file" : "out/soong/.intermediates/hardware/interfaces/radio/aidl/android.hardware.radio.data-V1-ndk-source/gen/include/aidl/android/hardware/radio/data/IRadioDataResponse.h"
  },
  {
   "function_name" : "aidl::android::hardware::radio::data::IRadioDataResponse::~IRadioDataResponse",
   "linker_set_key" : "_ZN4aidl7android8hardware5radio4data18IRadioDataResponseD1Ev",
   "parameters" :
   [
    {
     "is_this_ptr" : true,
     "referenced_type" : "_ZTIPN4aidl7android8hardware5radio4data18IRadioDataResponseE"
    }
   ],
   "return_type" : "_ZTIv",
   "source_file" : "out/soong/.intermediates/hardware/interfaces/radio/aidl/android.hardware.radio.data-V1-ndk-source/gen/include/aidl/android/hardware/radio/data/IRadioDataResponse.h"
  },
  {
   "function_name" : "aidl::android::hardware::radio::data::IRadioDataResponse::~IRadioDataResponse",
   "linker_set_key" : "_ZN4aidl7android8hardware5radio4data18IRadioDataResponseD2Ev",
   "parameters" :
   [
    {
     "is_this_ptr" : true,
     "referenced_type" : "_ZTIPN4aidl7android8hardware5radio4data18IRadioDataResponseE"
    }
   ],
   "return_type" : "_ZTIv",
   "source_file" : "out/soong/.intermediates/hardware/interfaces/radio/aidl/android.hardware.radio.data-V1-ndk-source/gen/include/aidl/android/hardware/radio/data/IRadioDataResponse.h"
  },
  {
   "access" : "protected",
   "function_name" : "aidl::android::hardware::radio::data::BnRadioDataResponse::createBinder",
   "linker_set_key" : "_ZN4aidl7android8hardware5radio4data19BnRadioDataResponse12createBinderEv",
   "parameters" :
   [
    {
     "is_this_ptr" : true,
     "referenced_type" : "_ZTIPN4aidl7android8hardware5radio4data19BnRadioDataResponseE"
    }
   ],
   "return_type" : "_ZTIN3ndk10SpAIBinderE",
   "source_file" : "out/soong/.intermediates/hardware/interfaces/radio/aidl/android.hardware.radio.data-V1-ndk-source/gen/include/aidl/android/hardware/radio/data/BnRadioDataResponse.h"
  },
  {
   "function_name" : "aidl::android::hardware::radio::data::BnRadioDataResponse::getInterfaceHash",
   "linker_set_key" : "_ZN4aidl7android8hardware5radio4data19BnRadioDataResponse16getInterfaceHashEPNSt3__112basic_stringIcNS5_11char_traitsIcEENS5_9allocatorIcEEEE",
   "parameters" :
   [
    {
     "is_this_ptr" : true,
     "referenced_type" : "_ZTIPN4aidl7android8hardware5radio4data19BnRadioDataResponseE"
    },
    {
     "referenced_type" : "_ZTIPNSt3__112basic_stringIcNS_11char_traitsIcEENS_9allocatorIcEEEE"
    }
   ],
   "return_type" : "_ZTIN3ndk13ScopedAStatusE",
   "source_file" : "out/soong/.intermediates/hardware/interfaces/radio/aidl/android.hardware.radio.data-V1-ndk-source/gen/include/aidl/android/hardware/radio/data/BnRadioDataResponse.h"
  },
  {
   "function_name" : "aidl::android::hardware::radio::data::BnRadioDataResponse::getInterfaceVersion",
   "linker_set_key" : "_ZN4aidl7android8hardware5radio4data19BnRadioDataResponse19getInterfaceVersionEPi",
   "parameters" :
   [
    {
     "is_this_ptr" : true,
     "referenced_type" : "_ZTIPN4aidl7android8hardware5radio4data19BnRadioDataResponseE"
    },
    {
     "referenced_type" : "_ZTIPi"
    }
   ],
   "return_type" : "_ZTIN3ndk13ScopedAStatusE",
   "source_file" : "out/soong/.intermediates/hardware/interfaces/radio/aidl/android.hardware.radio.data-V1-ndk-source/gen/include/aidl/android/hardware/radio/data/BnRadioDataResponse.h"
  },
  {
   "function_name" : "aidl::android::hardware::radio::data::BnRadioDataResponse::BnRadioDataResponse",
   "linker_set_key" : "_ZN4aidl7android8hardware5radio4data19BnRadioDataResponseC2Ev",
   "parameters" :
   [
    {
     "is_this_ptr" : true,
     "referenced_type" : "_ZTIPN4aidl7android8hardware5radio4data19BnRadioDataResponseE"
    }
   ],
   "return_type" : "_ZTIv",
   "source_file" : "out/soong/.intermediates/hardware/interfaces/radio/aidl/android.hardware.radio.data-V1-ndk-source/gen/include/aidl/android/hardware/radio/data/BnRadioDataResponse.h"
  },
  {
   "function_name" : "aidl::android::hardware::radio::data::BnRadioDataResponse::~BnRadioDataResponse",
   "linker_set_key" : "_ZN4aidl7android8hardware5radio4data19BnRadioDataResponseD0Ev",
   "parameters" :
   [
    {
     "is_this_ptr" : true,
     "referenced_type" : "_ZTIPN4aidl7android8hardware5radio4data19BnRadioDataResponseE"
    }
   ],
   "return_type" : "_ZTIv",
   "source_file" : "out/soong/.intermediates/hardware/interfaces/radio/aidl/android.hardware.radio.data-V1-ndk-source/gen/include/aidl/android/hardware/radio/data/BnRadioDataResponse.h"
  },
  {
   "function_name" : "aidl::android::hardware::radio::data::BnRadioDataResponse::~BnRadioDataResponse",
   "linker_set_key" : "_ZN4aidl7android8hardware5radio4data19BnRadioDataResponseD1Ev",
   "parameters" :
   [
    {
     "is_this_ptr" : true,
     "referenced_type" : "_ZTIPN4aidl7android8hardware5radio4data19BnRadioDataResponseE"
    }
   ],
   "return_type" : "_ZTIv",
   "source_file" : "out/soong/.intermediates/hardware/interfaces/radio/aidl/android.hardware.radio.data-V1-ndk-source/gen/include/aidl/android/hardware/radio/data/BnRadioDataResponse.h"
  },
  {
   "function_name" : "aidl::android::hardware::radio::data::BnRadioDataResponse::~BnRadioDataResponse",
   "linker_set_key" : "_ZN4aidl7android8hardware5radio4data19BnRadioDataResponseD2Ev",
   "parameters" :
   [
    {
     "is_this_ptr" : true,
     "referenced_type" : "_ZTIPN4aidl7android8hardware5radio4data19BnRadioDataResponseE"
    }
   ],
   "return_type" : "_ZTIv",
   "source_file" : "out/soong/.intermediates/hardware/interfaces/radio/aidl/android.hardware.radio.data-V1-ndk-source/gen/include/aidl/android/hardware/radio/data/BnRadioDataResponse.h"
  },
  {
   "function_name" : "aidl::android::hardware::radio::data::BpRadioDataResponse::getInterfaceHash",
   "linker_set_key" : "_ZN4aidl7android8hardware5radio4data19BpRadioDataResponse16getInterfaceHashEPNSt3__112basic_stringIcNS5_11char_traitsIcEENS5_9allocatorIcEEEE",
   "parameters" :
   [
    {
     "is_this_ptr" : true,
     "referenced_type" : "_ZTIPN4aidl7android8hardware5radio4data19BpRadioDataResponseE"
    },
    {
     "referenced_type" : "_ZTIPNSt3__112basic_stringIcNS_11char_traitsIcEENS_9allocatorIcEEEE"
    }
   ],
   "return_type" : "_ZTIN3ndk13ScopedAStatusE",
   "source_file" : "out/soong/.intermediates/hardware/interfaces/radio/aidl/android.hardware.radio.data-V1-ndk-source/gen/include/aidl/android/hardware/radio/data/BpRadioDataResponse.h"
  },
  {
   "function_name" : "aidl::android::hardware::radio::data::BpRadioDataResponse::acknowledgeRequest",
   "linker_set_key" : "_ZN4aidl7android8hardware5radio4data19BpRadioDataResponse18acknowledgeRequestEi",
   "parameters" :
   [
    {
     "is_this_ptr" : true,
     "referenced_type" : "_ZTIPN4aidl7android8hardware5radio4data19BpRadioDataResponseE"
    },
    {
     "referenced_type" : "_ZTIi"
    }
   ],
   "return_type" : "_ZTIN3ndk13ScopedAStatusE",
   "source_file" : "out/soong/.intermediates/hardware/interfaces/radio/aidl/android.hardware.radio.data-V1-ndk-source/gen/include/aidl/android/hardware/radio/data/BpRadioDataResponse.h"
  },
  {
   "function_name" : "aidl::android::hardware::radio::data::BpRadioDataResponse::getInterfaceVersion",
   "linker_set_key" : "_ZN4aidl7android8hardware5radio4data19BpRadioDataResponse19getInterfaceVersionEPi",
   "parameters" :
   [
    {
     "is_this_ptr" : true,
     "referenced_type" : "_ZTIPN4aidl7android8hardware5radio4data19BpRadioDataResponseE"
    },
    {
     "referenced_type" : "_ZTIPi"
    }
   ],
   "return_type" : "_ZTIN3ndk13ScopedAStatusE",
   "source_file" : "out/soong/.intermediates/hardware/interfaces/radio/aidl/android.hardware.radio.data-V1-ndk-source/gen/include/aidl/android/hardware/radio/data/BpRadioDataResponse.h"
  },
  {
   "function_name" : "aidl::android::hardware::radio::data::BpRadioDataResponse::setupDataCallResponse",
   "linker_set_key" : "_ZN4aidl7android8hardware5radio4data19BpRadioDataResponse21setupDataCallResponseERKNS2_17RadioResponseInfoERKNS3_19SetupDataCallResultE",
   "parameters" :
   [
    {
     "is_this_ptr" : true,
     "referenced_type" : "_ZTIPN4aidl7android8hardware5radio4data19BpRadioDataResponseE"
    },
    {
     "referenced_type" : "_ZTIRKN4aidl7android8hardware5radio17RadioResponseInfoE"
    },
    {
     "referenced_type" : "_ZTIRKN4aidl7android8hardware5radio4data19SetupDataCallResultE"
    }
   ],
   "return_type" : "_ZTIN3ndk13ScopedAStatusE",
   "source_file" : "out/soong/.intermediates/hardware/interfaces/radio/aidl/android.hardware.radio.data-V1-ndk-source/gen/include/aidl/android/hardware/radio/data/BpRadioDataResponse.h"
  },
  {
   "function_name" : "aidl::android::hardware::radio::data::BpRadioDataResponse::startHandoverResponse",
   "linker_set_key" : "_ZN4aidl7android8hardware5radio4data19BpRadioDataResponse21startHandoverResponseERKNS2_17RadioResponseInfoE",
   "parameters" :
   [
    {
     "is_this_ptr" : true,
     "referenced_type" : "_ZTIPN4aidl7android8hardware5radio4data19BpRadioDataResponseE"
    },
    {
     "referenced_type" : "_ZTIRKN4aidl7android8hardware5radio17RadioResponseInfoE"
    }
   ],
   "return_type" : "_ZTIN3ndk13ScopedAStatusE",
   "source_file" : "out/soong/.intermediates/hardware/interfaces/radio/aidl/android.hardware.radio.data-V1-ndk-source/gen/include/aidl/android/hardware/radio/data/BpRadioDataResponse.h"
  },
  {
   "function_name" : "aidl::android::hardware::radio::data::BpRadioDataResponse::stopKeepaliveResponse",
   "linker_set_key" : "_ZN4aidl7android8hardware5radio4data19BpRadioDataResponse21stopKeepaliveResponseERKNS2_17RadioResponseInfoE",
   "parameters" :
   [
    {
     "is_this_ptr" : true,
     "referenced_type" : "_ZTIPN4aidl7android8hardware5radio4data19BpRadioDataResponseE"
    },
    {
     "referenced_type" : "_ZTIRKN4aidl7android8hardware5radio17RadioResponseInfoE"
    }
   ],
   "return_type" : "_ZTIN3ndk13ScopedAStatusE",
   "source_file" : "out/soong/.intermediates/hardware/interfaces/radio/aidl/android.hardware.radio.data-V1-ndk-source/gen/include/aidl/android/hardware/radio/data/BpRadioDataResponse.h"
  },
  {
   "function_name" : "aidl::android::hardware::radio::data::BpRadioDataResponse::cancelHandoverResponse",
   "linker_set_key" : "_ZN4aidl7android8hardware5radio4data19BpRadioDataResponse22cancelHandoverResponseERKNS2_17RadioResponseInfoE",
   "parameters" :
   [
    {
     "is_this_ptr" : true,
     "referenced_type" : "_ZTIPN4aidl7android8hardware5radio4data19BpRadioDataResponseE"
    },
    {
     "referenced_type" : "_ZTIRKN4aidl7android8hardware5radio17RadioResponseInfoE"
    }
   ],
   "return_type" : "_ZTIN3ndk13ScopedAStatusE",
   "source_file" : "out/soong/.intermediates/hardware/interfaces/radio/aidl/android.hardware.radio.data-V1-ndk-source/gen/include/aidl/android/hardware/radio/data/BpRadioDataResponse.h"
  },
  {
   "function_name" : "aidl::android::hardware::radio::data::BpRadioDataResponse::setDataAllowedResponse",
   "linker_set_key" : "_ZN4aidl7android8hardware5radio4data19BpRadioDataResponse22setDataAllowedResponseERKNS2_17RadioResponseInfoE",
   "parameters" :
   [
    {
     "is_this_ptr" : true,
     "referenced_type" : "_ZTIPN4aidl7android8hardware5radio4data19BpRadioDataResponseE"
    },
    {
     "referenced_type" : "_ZTIRKN4aidl7android8hardware5radio17RadioResponseInfoE"
    }
   ],
   "return_type" : "_ZTIN3ndk13ScopedAStatusE",
   "source_file" : "out/soong/.intermediates/hardware/interfaces/radio/aidl/android.hardware.radio.data-V1-ndk-source/gen/include/aidl/android/hardware/radio/data/BpRadioDataResponse.h"
  },
  {
   "function_name" : "aidl::android::hardware::radio::data::BpRadioDataResponse::setDataProfileResponse",
   "linker_set_key" : "_ZN4aidl7android8hardware5radio4data19BpRadioDataResponse22setDataProfileResponseERKNS2_17RadioResponseInfoE",
   "parameters" :
   [
    {
     "is_this_ptr" : true,
     "referenced_type" : "_ZTIPN4aidl7android8hardware5radio4data19BpRadioDataResponseE"
    },
    {
     "referenced_type" : "_ZTIRKN4aidl7android8hardware5radio17RadioResponseInfoE"
    }
   ],
   "return_type" : "_ZTIN3ndk13ScopedAStatusE",
   "source_file" : "out/soong/.intermediates/hardware/interfaces/radio/aidl/android.hardware.radio.data-V1-ndk-source/gen/include/aidl/android/hardware/radio/data/BpRadioDataResponse.h"
  },
  {
   "function_name" : "aidl::android::hardware::radio::data::BpRadioDataResponse::startKeepaliveResponse",
   "linker_set_key" : "_ZN4aidl7android8hardware5radio4data19BpRadioDataResponse22startKeepaliveResponseERKNS2_17RadioResponseInfoERKNS3_15KeepaliveStatusE",
   "parameters" :
   [
    {
     "is_this_ptr" : true,
     "referenced_type" : "_ZTIPN4aidl7android8hardware5radio4data19BpRadioDataResponseE"
    },
    {
     "referenced_type" : "_ZTIRKN4aidl7android8hardware5radio17RadioResponseInfoE"
    },
    {
     "referenced_type" : "_ZTIRKN4aidl7android8hardware5radio4data15KeepaliveStatusE"
    }
   ],
   "return_type" : "_ZTIN3ndk13ScopedAStatusE",
   "source_file" : "out/soong/.intermediates/hardware/interfaces/radio/aidl/android.hardware.radio.data-V1-ndk-source/gen/include/aidl/android/hardware/radio/data/BpRadioDataResponse.h"
  },
  {
   "function_name" : "aidl::android::hardware::radio::data::BpRadioDataResponse::getDataCallListResponse",
   "linker_set_key" : "_ZN4aidl7android8hardware5radio4data19BpRadioDataResponse23getDataCallListResponseERKNS2_17RadioResponseInfoERKNSt3__16vectorINS3_19SetupDataCallResultENS8_9allocatorISA_EEEE",
   "parameters" :
   [
    {
     "is_this_ptr" : true,
     "referenced_type" : "_ZTIPN4aidl7android8hardware5radio4data19BpRadioDataResponseE"
    },
    {
     "referenced_type" : "_ZTIRKN4aidl7android8hardware5radio17RadioResponseInfoE"
    },
    {
     "referenced_type" : "_ZTIRKNSt3__16vectorIN4aidl7android8hardware5radio4data19SetupDataCallResultENS_9allocatorIS6_EEEE"
    }
   ],
   "return_type" : "_ZTIN3ndk13ScopedAStatusE",
   "source_file" : "out/soong/.intermediates/hardware/interfaces/radio/aidl/android.hardware.radio.data-V1-ndk-source/gen/include/aidl/android/hardware/radio/data/BpRadioDataResponse.h"
  },
  {
   "function_name" : "aidl::android::hardware::radio::data::BpRadioDataResponse::getSlicingConfigResponse",
   "linker_set_key" : "_ZN4aidl7android8hardware5radio4data19BpRadioDataResponse24getSlicingConfigResponseERKNS2_17RadioResponseInfoERKNS3_13SlicingConfigE",
   "parameters" :
   [
    {
     "is_this_ptr" : true,
     "referenced_type" : "_ZTIPN4aidl7android8hardware5radio4data19BpRadioDataResponseE"
    },
    {
     "referenced_type" : "_ZTIRKN4aidl7android8hardware5radio17RadioResponseInfoE"
    },
    {
     "referenced_type" : "_ZTIRKN4aidl7android8hardware5radio4data13SlicingConfigE"
    }
   ],
   "return_type" : "_ZTIN3ndk13ScopedAStatusE",
   "source_file" : "out/soong/.intermediates/hardware/interfaces/radio/aidl/android.hardware.radio.data-V1-ndk-source/gen/include/aidl/android/hardware/radio/data/BpRadioDataResponse.h"
  },
  {
   "function_name" : "aidl::android::hardware::radio::data::BpRadioDataResponse::setDataThrottlingResponse",
   "linker_set_key" : "_ZN4aidl7android8hardware5radio4data19BpRadioDataResponse25setDataThrottlingResponseERKNS2_17RadioResponseInfoE",
   "parameters" :
   [
    {
     "is_this_ptr" : true,
     "referenced_type" : "_ZTIPN4aidl7android8hardware5radio4data19BpRadioDataResponseE"
    },
    {
     "referenced_type" : "_ZTIRKN4aidl7android8hardware5radio17RadioResponseInfoE"
    }
   ],
   "return_type" : "_ZTIN3ndk13ScopedAStatusE",
   "source_file" : "out/soong/.intermediates/hardware/interfaces/radio/aidl/android.hardware.radio.data-V1-ndk-source/gen/include/aidl/android/hardware/radio/data/BpRadioDataResponse.h"
  },
  {
   "function_name" : "aidl::android::hardware::radio::data::BpRadioDataResponse::deactivateDataCallResponse",
   "linker_set_key" : "_ZN4aidl7android8hardware5radio4data19BpRadioDataResponse26deactivateDataCallResponseERKNS2_17RadioResponseInfoE",
   "parameters" :
   [
    {
     "is_this_ptr" : true,
     "referenced_type" : "_ZTIPN4aidl7android8hardware5radio4data19BpRadioDataResponseE"
    },
    {
     "referenced_type" : "_ZTIRKN4aidl7android8hardware5radio17RadioResponseInfoE"
    }
   ],
   "return_type" : "_ZTIN3ndk13ScopedAStatusE",
   "source_file" : "out/soong/.intermediates/hardware/interfaces/radio/aidl/android.hardware.radio.data-V1-ndk-source/gen/include/aidl/android/hardware/radio/data/BpRadioDataResponse.h"
  },
  {
   "function_name" : "aidl::android::hardware::radio::data::BpRadioDataResponse::releasePduSessionIdResponse",
   "linker_set_key" : "_ZN4aidl7android8hardware5radio4data19BpRadioDataResponse27releasePduSessionIdResponseERKNS2_17RadioResponseInfoE",
   "parameters" :
   [
    {
     "is_this_ptr" : true,
     "referenced_type" : "_ZTIPN4aidl7android8hardware5radio4data19BpRadioDataResponseE"
    },
    {
     "referenced_type" : "_ZTIRKN4aidl7android8hardware5radio17RadioResponseInfoE"
    }
   ],
   "return_type" : "_ZTIN3ndk13ScopedAStatusE",
   "source_file" : "out/soong/.intermediates/hardware/interfaces/radio/aidl/android.hardware.radio.data-V1-ndk-source/gen/include/aidl/android/hardware/radio/data/BpRadioDataResponse.h"
  },
  {
   "function_name" : "aidl::android::hardware::radio::data::BpRadioDataResponse::setInitialAttachApnResponse",
   "linker_set_key" : "_ZN4aidl7android8hardware5radio4data19BpRadioDataResponse27setInitialAttachApnResponseERKNS2_17RadioResponseInfoE",
   "parameters" :
   [
    {
     "is_this_ptr" : true,
     "referenced_type" : "_ZTIPN4aidl7android8hardware5radio4data19BpRadioDataResponseE"
    },
    {
     "referenced_type" : "_ZTIRKN4aidl7android8hardware5radio17RadioResponseInfoE"
    }
   ],
   "return_type" : "_ZTIN3ndk13ScopedAStatusE",
   "source_file" : "out/soong/.intermediates/hardware/interfaces/radio/aidl/android.hardware.radio.data-V1-ndk-source/gen/include/aidl/android/hardware/radio/data/BpRadioDataResponse.h"
  },
  {
   "function_name" : "aidl::android::hardware::radio::data::BpRadioDataResponse::allocatePduSessionIdResponse",
   "linker_set_key" : "_ZN4aidl7android8hardware5radio4data19BpRadioDataResponse28allocatePduSessionIdResponseERKNS2_17RadioResponseInfoEi",
   "parameters" :
   [
    {
     "is_this_ptr" : true,
     "referenced_type" : "_ZTIPN4aidl7android8hardware5radio4data19BpRadioDataResponseE"
    },
    {
     "referenced_type" : "_ZTIRKN4aidl7android8hardware5radio17RadioResponseInfoE"
    },
    {
     "referenced_type" : "_ZTIi"
    }
   ],
   "return_type" : "_ZTIN3ndk13ScopedAStatusE",
   "source_file" : "out/soong/.intermediates/hardware/interfaces/radio/aidl/android.hardware.radio.data-V1-ndk-source/gen/include/aidl/android/hardware/radio/data/BpRadioDataResponse.h"
  },
  {
   "function_name" : "aidl::android::hardware::radio::data::BpRadioDataResponse::BpRadioDataResponse",
   "linker_set_key" : "_ZN4aidl7android8hardware5radio4data19BpRadioDataResponseC1ERKN3ndk10SpAIBinderE",
   "parameters" :
   [
    {
     "is_this_ptr" : true,
     "referenced_type" : "_ZTIPN4aidl7android8hardware5radio4data19BpRadioDataResponseE"
    },
    {
     "referenced_type" : "_ZTIRKN3ndk10SpAIBinderE"
    }
   ],
   "return_type" : "_ZTIv",
   "source_file" : "out/soong/.intermediates/hardware/interfaces/radio/aidl/android.hardware.radio.data-V1-ndk-source/gen/include/aidl/android/hardware/radio/data/BpRadioDataResponse.h"
  },
  {
   "function_name" : "aidl::android::hardware::radio::data::BpRadioDataResponse::BpRadioDataResponse",
   "linker_set_key" : "_ZN4aidl7android8hardware5radio4data19BpRadioDataResponseC2ERKN3ndk10SpAIBinderE",
   "parameters" :
   [
    {
     "is_this_ptr" : true,
     "referenced_type" : "_ZTIPN4aidl7android8hardware5radio4data19BpRadioDataResponseE"
    },
    {
     "referenced_type" : "_ZTIRKN3ndk10SpAIBinderE"
    }
   ],
   "return_type" : "_ZTIv",
   "source_file" : "out/soong/.intermediates/hardware/interfaces/radio/aidl/android.hardware.radio.data-V1-ndk-source/gen/include/aidl/android/hardware/radio/data/BpRadioDataResponse.h"
  },
  {
   "function_name" : "aidl::android::hardware::radio::data::BpRadioDataResponse::~BpRadioDataResponse",
   "linker_set_key" : "_ZN4aidl7android8hardware5radio4data19BpRadioDataResponseD0Ev",
   "parameters" :
   [
    {
     "is_this_ptr" : true,
     "referenced_type" : "_ZTIPN4aidl7android8hardware5radio4data19BpRadioDataResponseE"
    }
   ],
   "return_type" : "_ZTIv",
   "source_file" : "out/soong/.intermediates/hardware/interfaces/radio/aidl/android.hardware.radio.data-V1-ndk-source/gen/include/aidl/android/hardware/radio/data/BpRadioDataResponse.h"
  },
  {
   "function_name" : "aidl::android::hardware::radio::data::BpRadioDataResponse::~BpRadioDataResponse",
   "linker_set_key" : "_ZN4aidl7android8hardware5radio4data19BpRadioDataResponseD1Ev",
   "parameters" :
   [
    {
     "is_this_ptr" : true,
     "referenced_type" : "_ZTIPN4aidl7android8hardware5radio4data19BpRadioDataResponseE"
    }
   ],
   "return_type" : "_ZTIv",
   "source_file" : "out/soong/.intermediates/hardware/interfaces/radio/aidl/android.hardware.radio.data-V1-ndk-source/gen/include/aidl/android/hardware/radio/data/BpRadioDataResponse.h"
  },
  {
   "function_name" : "aidl::android::hardware::radio::data::BpRadioDataResponse::~BpRadioDataResponse",
   "linker_set_key" : "_ZN4aidl7android8hardware5radio4data19BpRadioDataResponseD2Ev",
   "parameters" :
   [
    {
     "is_this_ptr" : true,
     "referenced_type" : "_ZTIPN4aidl7android8hardware5radio4data19BpRadioDataResponseE"
    }
   ],
   "return_type" : "_ZTIv",
   "source_file" : "out/soong/.intermediates/hardware/interfaces/radio/aidl/android.hardware.radio.data-V1-ndk-source/gen/include/aidl/android/hardware/radio/data/BpRadioDataResponse.h"
  },
  {
   "function_name" : "aidl::android::hardware::radio::data::SetupDataCallResult::readFromParcel",
   "linker_set_key" : "_ZN4aidl7android8hardware5radio4data19SetupDataCallResult14readFromParcelEPK7AParcel",
   "parameters" :
   [
    {
     "is_this_ptr" : true,
     "referenced_type" : "_ZTIPN4aidl7android8hardware5radio4data19SetupDataCallResultE"
    },
    {
     "referenced_type" : "_ZTIPK7AParcel"
    }
   ],
   "return_type" : "_ZTIi",
   "source_file" : "out/soong/.intermediates/hardware/interfaces/radio/aidl/android.hardware.radio.data-V1-ndk-source/gen/include/aidl/android/hardware/radio/data/SetupDataCallResult.h"
  },
  {
   "function_name" : "aidl::android::hardware::radio::data::IRadioDataIndication::fromBinder",
   "linker_set_key" : "_ZN4aidl7android8hardware5radio4data20IRadioDataIndication10fromBinderERKN3ndk10SpAIBinderE",
   "parameters" :
   [
    {
     "referenced_type" : "_ZTIRKN3ndk10SpAIBinderE"
    }
   ],
   "return_type" : "_ZTINSt3__110shared_ptrIN4aidl7android8hardware5radio4data20IRadioDataIndicationEEE",
   "source_file" : "out/soong/.intermediates/hardware/interfaces/radio/aidl/android.hardware.radio.data-V1-ndk-source/gen/include/aidl/android/hardware/radio/data/IRadioDataIndication.h"
  },
  {
   "function_name" : "aidl::android::hardware::radio::data::IRadioDataIndication::writeToParcel",
   "linker_set_key" : "_ZN4aidl7android8hardware5radio4data20IRadioDataIndication13writeToParcelEP7AParcelRKNSt3__110shared_ptrIS4_EE",
   "parameters" :
   [
    {
     "referenced_type" : "_ZTIP7AParcel"
    },
    {
     "referenced_type" : "_ZTIRKNSt3__110shared_ptrIN4aidl7android8hardware5radio4data20IRadioDataIndicationEEE"
    }
   ],
   "return_type" : "_ZTIi",
   "source_file" : "out/soong/.intermediates/hardware/interfaces/radio/aidl/android.hardware.radio.data-V1-ndk-source/gen/include/aidl/android/hardware/radio/data/IRadioDataIndication.h"
  },
  {
   "function_name" : "aidl::android::hardware::radio::data::IRadioDataIndication::getDefaultImpl",
   "linker_set_key" : "_ZN4aidl7android8hardware5radio4data20IRadioDataIndication14getDefaultImplEv",
   "return_type" : "_ZTIRKNSt3__110shared_ptrIN4aidl7android8hardware5radio4data20IRadioDataIndicationEEE",
   "source_file" : "out/soong/.intermediates/hardware/interfaces/radio/aidl/android.hardware.radio.data-V1-ndk-source/gen/include/aidl/android/hardware/radio/data/IRadioDataIndication.h"
  },
  {
   "function_name" : "aidl::android::hardware::radio::data::IRadioDataIndication::readFromParcel",
   "linker_set_key" : "_ZN4aidl7android8hardware5radio4data20IRadioDataIndication14readFromParcelEPK7AParcelPNSt3__110shared_ptrIS4_EE",
   "parameters" :
   [
    {
     "referenced_type" : "_ZTIPK7AParcel"
    },
    {
     "referenced_type" : "_ZTIPNSt3__110shared_ptrIN4aidl7android8hardware5radio4data20IRadioDataIndicationEEE"
    }
   ],
   "return_type" : "_ZTIi",
   "source_file" : "out/soong/.intermediates/hardware/interfaces/radio/aidl/android.hardware.radio.data-V1-ndk-source/gen/include/aidl/android/hardware/radio/data/IRadioDataIndication.h"
  },
  {
   "function_name" : "aidl::android::hardware::radio::data::IRadioDataIndication::setDefaultImpl",
   "linker_set_key" : "_ZN4aidl7android8hardware5radio4data20IRadioDataIndication14setDefaultImplERKNSt3__110shared_ptrIS4_EE",
   "parameters" :
   [
    {
     "referenced_type" : "_ZTIRKNSt3__110shared_ptrIN4aidl7android8hardware5radio4data20IRadioDataIndicationEEE"
    }
   ],
   "return_type" : "_ZTIb",
   "source_file" : "out/soong/.intermediates/hardware/interfaces/radio/aidl/android.hardware.radio.data-V1-ndk-source/gen/include/aidl/android/hardware/radio/data/IRadioDataIndication.h"
  },
  {
   "function_name" : "aidl::android::hardware::radio::data::IRadioDataIndication::IRadioDataIndication",
   "linker_set_key" : "_ZN4aidl7android8hardware5radio4data20IRadioDataIndicationC2Ev",
   "parameters" :
   [
    {
     "is_this_ptr" : true,
     "referenced_type" : "_ZTIPN4aidl7android8hardware5radio4data20IRadioDataIndicationE"
    }
   ],
   "return_type" : "_ZTIv",
   "source_file" : "out/soong/.intermediates/hardware/interfaces/radio/aidl/android.hardware.radio.data-V1-ndk-source/gen/include/aidl/android/hardware/radio/data/IRadioDataIndication.h"
  },
  {
   "function_name" : "aidl::android::hardware::radio::data::IRadioDataIndication::~IRadioDataIndication",
   "linker_set_key" : "_ZN4aidl7android8hardware5radio4data20IRadioDataIndicationD0Ev",
   "parameters" :
   [
    {
     "is_this_ptr" : true,
     "referenced_type" : "_ZTIPN4aidl7android8hardware5radio4data20IRadioDataIndicationE"
    }
   ],
   "return_type" : "_ZTIv",
   "source_file" : "out/soong/.intermediates/hardware/interfaces/radio/aidl/android.hardware.radio.data-V1-ndk-source/gen/include/aidl/android/hardware/radio/data/IRadioDataIndication.h"
  },
  {
   "function_name" : "aidl::android::hardware::radio::data::IRadioDataIndication::~IRadioDataIndication",
   "linker_set_key" : "_ZN4aidl7android8hardware5radio4data20IRadioDataIndicationD1Ev",
   "parameters" :
   [
    {
     "is_this_ptr" : true,
     "referenced_type" : "_ZTIPN4aidl7android8hardware5radio4data20IRadioDataIndicationE"
    }
   ],
   "return_type" : "_ZTIv",
   "source_file" : "out/soong/.intermediates/hardware/interfaces/radio/aidl/android.hardware.radio.data-V1-ndk-source/gen/include/aidl/android/hardware/radio/data/IRadioDataIndication.h"
  },
  {
   "function_name" : "aidl::android::hardware::radio::data::IRadioDataIndication::~IRadioDataIndication",
   "linker_set_key" : "_ZN4aidl7android8hardware5radio4data20IRadioDataIndicationD2Ev",
   "parameters" :
   [
    {
     "is_this_ptr" : true,
     "referenced_type" : "_ZTIPN4aidl7android8hardware5radio4data20IRadioDataIndicationE"
    }
   ],
   "return_type" : "_ZTIv",
   "source_file" : "out/soong/.intermediates/hardware/interfaces/radio/aidl/android.hardware.radio.data-V1-ndk-source/gen/include/aidl/android/hardware/radio/data/IRadioDataIndication.h"
  },
  {
   "access" : "protected",
   "function_name" : "aidl::android::hardware::radio::data::BnRadioDataIndication::createBinder",
   "linker_set_key" : "_ZN4aidl7android8hardware5radio4data21BnRadioDataIndication12createBinderEv",
   "parameters" :
   [
    {
     "is_this_ptr" : true,
     "referenced_type" : "_ZTIPN4aidl7android8hardware5radio4data21BnRadioDataIndicationE"
    }
   ],
   "return_type" : "_ZTIN3ndk10SpAIBinderE",
   "source_file" : "out/soong/.intermediates/hardware/interfaces/radio/aidl/android.hardware.radio.data-V1-ndk-source/gen/include/aidl/android/hardware/radio/data/BnRadioDataIndication.h"
  },
  {
   "function_name" : "aidl::android::hardware::radio::data::BnRadioDataIndication::getInterfaceHash",
   "linker_set_key" : "_ZN4aidl7android8hardware5radio4data21BnRadioDataIndication16getInterfaceHashEPNSt3__112basic_stringIcNS5_11char_traitsIcEENS5_9allocatorIcEEEE",
   "parameters" :
   [
    {
     "is_this_ptr" : true,
     "referenced_type" : "_ZTIPN4aidl7android8hardware5radio4data21BnRadioDataIndicationE"
    },
    {
     "referenced_type" : "_ZTIPNSt3__112basic_stringIcNS_11char_traitsIcEENS_9allocatorIcEEEE"
    }
   ],
   "return_type" : "_ZTIN3ndk13ScopedAStatusE",
   "source_file" : "out/soong/.intermediates/hardware/interfaces/radio/aidl/android.hardware.radio.data-V1-ndk-source/gen/include/aidl/android/hardware/radio/data/BnRadioDataIndication.h"
  },
  {
   "function_name" : "aidl::android::hardware::radio::data::BnRadioDataIndication::getInterfaceVersion",
   "linker_set_key" : "_ZN4aidl7android8hardware5radio4data21BnRadioDataIndication19getInterfaceVersionEPi",
   "parameters" :
   [
    {
     "is_this_ptr" : true,
     "referenced_type" : "_ZTIPN4aidl7android8hardware5radio4data21BnRadioDataIndicationE"
    },
    {
     "referenced_type" : "_ZTIPi"
    }
   ],
   "return_type" : "_ZTIN3ndk13ScopedAStatusE",
   "source_file" : "out/soong/.intermediates/hardware/interfaces/radio/aidl/android.hardware.radio.data-V1-ndk-source/gen/include/aidl/android/hardware/radio/data/BnRadioDataIndication.h"
  },
  {
   "function_name" : "aidl::android::hardware::radio::data::BnRadioDataIndication::BnRadioDataIndication",
   "linker_set_key" : "_ZN4aidl7android8hardware5radio4data21BnRadioDataIndicationC2Ev",
   "parameters" :
   [
    {
     "is_this_ptr" : true,
     "referenced_type" : "_ZTIPN4aidl7android8hardware5radio4data21BnRadioDataIndicationE"
    }
   ],
   "return_type" : "_ZTIv",
   "source_file" : "out/soong/.intermediates/hardware/interfaces/radio/aidl/android.hardware.radio.data-V1-ndk-source/gen/include/aidl/android/hardware/radio/data/BnRadioDataIndication.h"
  },
  {
   "function_name" : "aidl::android::hardware::radio::data::BnRadioDataIndication::~BnRadioDataIndication",
   "linker_set_key" : "_ZN4aidl7android8hardware5radio4data21BnRadioDataIndicationD0Ev",
   "parameters" :
   [
    {
     "is_this_ptr" : true,
     "referenced_type" : "_ZTIPN4aidl7android8hardware5radio4data21BnRadioDataIndicationE"
    }
   ],
   "return_type" : "_ZTIv",
   "source_file" : "out/soong/.intermediates/hardware/interfaces/radio/aidl/android.hardware.radio.data-V1-ndk-source/gen/include/aidl/android/hardware/radio/data/BnRadioDataIndication.h"
  },
  {
   "function_name" : "aidl::android::hardware::radio::data::BnRadioDataIndication::~BnRadioDataIndication",
   "linker_set_key" : "_ZN4aidl7android8hardware5radio4data21BnRadioDataIndicationD1Ev",
   "parameters" :
   [
    {
     "is_this_ptr" : true,
     "referenced_type" : "_ZTIPN4aidl7android8hardware5radio4data21BnRadioDataIndicationE"
    }
   ],
   "return_type" : "_ZTIv",
   "source_file" : "out/soong/.intermediates/hardware/interfaces/radio/aidl/android.hardware.radio.data-V1-ndk-source/gen/include/aidl/android/hardware/radio/data/BnRadioDataIndication.h"
  },
  {
   "function_name" : "aidl::android::hardware::radio::data::BnRadioDataIndication::~BnRadioDataIndication",
   "linker_set_key" : "_ZN4aidl7android8hardware5radio4data21BnRadioDataIndicationD2Ev",
   "parameters" :
   [
    {
     "is_this_ptr" : true,
     "referenced_type" : "_ZTIPN4aidl7android8hardware5radio4data21BnRadioDataIndicationE"
    }
   ],
   "return_type" : "_ZTIv",
   "source_file" : "out/soong/.intermediates/hardware/interfaces/radio/aidl/android.hardware.radio.data-V1-ndk-source/gen/include/aidl/android/hardware/radio/data/BnRadioDataIndication.h"
  },
  {
   "function_name" : "aidl::android::hardware::radio::data::BpRadioDataIndication::unthrottleApn",
   "linker_set_key" : "_ZN4aidl7android8hardware5radio4data21BpRadioDataIndication13unthrottleApnENS2_19RadioIndicationTypeERKNS3_15DataProfileInfoE",
   "parameters" :
   [
    {
     "is_this_ptr" : true,
     "referenced_type" : "_ZTIPN4aidl7android8hardware5radio4data21BpRadioDataIndicationE"
    },
    {
     "referenced_type" : "_ZTIN4aidl7android8hardware5radio19RadioIndicationTypeE"
    },
    {
     "referenced_type" : "_ZTIRKN4aidl7android8hardware5radio4data15DataProfileInfoE"
    }
   ],
   "return_type" : "_ZTIN3ndk13ScopedAStatusE",
   "source_file" : "out/soong/.intermediates/hardware/interfaces/radio/aidl/android.hardware.radio.data-V1-ndk-source/gen/include/aidl/android/hardware/radio/data/BpRadioDataIndication.h"
  },
  {
   "function_name" : "aidl::android::hardware::radio::data::BpRadioDataIndication::keepaliveStatus",
   "linker_set_key" : "_ZN4aidl7android8hardware5radio4data21BpRadioDataIndication15keepaliveStatusENS2_19RadioIndicationTypeERKNS3_15KeepaliveStatusE",
   "parameters" :
   [
    {
     "is_this_ptr" : true,
     "referenced_type" : "_ZTIPN4aidl7android8hardware5radio4data21BpRadioDataIndicationE"
    },
    {
     "referenced_type" : "_ZTIN4aidl7android8hardware5radio19RadioIndicationTypeE"
    },
    {
     "referenced_type" : "_ZTIRKN4aidl7android8hardware5radio4data15KeepaliveStatusE"
    }
   ],
   "return_type" : "_ZTIN3ndk13ScopedAStatusE",
   "source_file" : "out/soong/.intermediates/hardware/interfaces/radio/aidl/android.hardware.radio.data-V1-ndk-source/gen/include/aidl/android/hardware/radio/data/BpRadioDataIndication.h"
  },
  {
   "function_name" : "aidl::android::hardware::radio::data::BpRadioDataIndication::getInterfaceHash",
   "linker_set_key" : "_ZN4aidl7android8hardware5radio4data21BpRadioDataIndication16getInterfaceHashEPNSt3__112basic_stringIcNS5_11char_traitsIcEENS5_9allocatorIcEEEE",
   "parameters" :
   [
    {
     "is_this_ptr" : true,
     "referenced_type" : "_ZTIPN4aidl7android8hardware5radio4data21BpRadioDataIndicationE"
    },
    {
     "referenced_type" : "_ZTIPNSt3__112basic_stringIcNS_11char_traitsIcEENS_9allocatorIcEEEE"
    }
   ],
   "return_type" : "_ZTIN3ndk13ScopedAStatusE",
   "source_file" : "out/soong/.intermediates/hardware/interfaces/radio/aidl/android.hardware.radio.data-V1-ndk-source/gen/include/aidl/android/hardware/radio/data/BpRadioDataIndication.h"
  },
  {
   "function_name" : "aidl::android::hardware::radio::data::BpRadioDataIndication::dataCallListChanged",
   "linker_set_key" : "_ZN4aidl7android8hardware5radio4data21BpRadioDataIndication19dataCallListChangedENS2_19RadioIndicationTypeERKNSt3__16vectorINS3_19SetupDataCallResultENS6_9allocatorIS8_EEEE",
   "parameters" :
   [
    {
     "is_this_ptr" : true,
     "referenced_type" : "_ZTIPN4aidl7android8hardware5radio4data21BpRadioDataIndicationE"
    },
    {
     "referenced_type" : "_ZTIN4aidl7android8hardware5radio19RadioIndicationTypeE"
    },
    {
     "referenced_type" : "_ZTIRKNSt3__16vectorIN4aidl7android8hardware5radio4data19SetupDataCallResultENS_9allocatorIS6_EEEE"
    }
   ],
   "return_type" : "_ZTIN3ndk13ScopedAStatusE",
   "source_file" : "out/soong/.intermediates/hardware/interfaces/radio/aidl/android.hardware.radio.data-V1-ndk-source/gen/include/aidl/android/hardware/radio/data/BpRadioDataIndication.h"
  },
  {
   "function_name" : "aidl::android::hardware::radio::data::BpRadioDataIndication::getInterfaceVersion",
   "linker_set_key" : "_ZN4aidl7android8hardware5radio4data21BpRadioDataIndication19getInterfaceVersionEPi",
   "parameters" :
   [
    {
     "is_this_ptr" : true,
     "referenced_type" : "_ZTIPN4aidl7android8hardware5radio4data21BpRadioDataIndicationE"
    },
    {
     "referenced_type" : "_ZTIPi"
    }
   ],
   "return_type" : "_ZTIN3ndk13ScopedAStatusE",
   "source_file" : "out/soong/.intermediates/hardware/interfaces/radio/aidl/android.hardware.radio.data-V1-ndk-source/gen/include/aidl/android/hardware/radio/data/BpRadioDataIndication.h"
  },
  {
   "function_name" : "aidl::android::hardware::radio::data::BpRadioDataIndication::slicingConfigChanged",
   "linker_set_key" : "_ZN4aidl7android8hardware5radio4data21BpRadioDataIndication20slicingConfigChangedENS2_19RadioIndicationTypeERKNS3_13SlicingConfigE",
   "parameters" :
   [
    {
     "is_this_ptr" : true,
     "referenced_type" : "_ZTIPN4aidl7android8hardware5radio4data21BpRadioDataIndicationE"
    },
    {
     "referenced_type" : "_ZTIN4aidl7android8hardware5radio19RadioIndicationTypeE"
    },
    {
     "referenced_type" : "_ZTIRKN4aidl7android8hardware5radio4data13SlicingConfigE"
    }
   ],
   "return_type" : "_ZTIN3ndk13ScopedAStatusE",
   "source_file" : "out/soong/.intermediates/hardware/interfaces/radio/aidl/android.hardware.radio.data-V1-ndk-source/gen/include/aidl/android/hardware/radio/data/BpRadioDataIndication.h"
  },
  {
   "function_name" : "aidl::android::hardware::radio::data::BpRadioDataIndication::pcoData",
   "linker_set_key" : "_ZN4aidl7android8hardware5radio4data21BpRadioDataIndication7pcoDataENS2_19RadioIndicationTypeERKNS3_11PcoDataInfoE",
   "parameters" :
   [
    {
     "is_this_ptr" : true,
     "referenced_type" : "_ZTIPN4aidl7android8hardware5radio4data21BpRadioDataIndicationE"
    },
    {
     "referenced_type" : "_ZTIN4aidl7android8hardware5radio19RadioIndicationTypeE"
    },
    {
     "referenced_type" : "_ZTIRKN4aidl7android8hardware5radio4data11PcoDataInfoE"
    }
   ],
   "return_type" : "_ZTIN3ndk13ScopedAStatusE",
   "source_file" : "out/soong/.intermediates/hardware/interfaces/radio/aidl/android.hardware.radio.data-V1-ndk-source/gen/include/aidl/android/hardware/radio/data/BpRadioDataIndication.h"
  },
  {
   "function_name" : "aidl::android::hardware::radio::data::BpRadioDataIndication::BpRadioDataIndication",
   "linker_set_key" : "_ZN4aidl7android8hardware5radio4data21BpRadioDataIndicationC1ERKN3ndk10SpAIBinderE",
   "parameters" :
   [
    {
     "is_this_ptr" : true,
     "referenced_type" : "_ZTIPN4aidl7android8hardware5radio4data21BpRadioDataIndicationE"
    },
    {
     "referenced_type" : "_ZTIRKN3ndk10SpAIBinderE"
    }
   ],
   "return_type" : "_ZTIv",
   "source_file" : "out/soong/.intermediates/hardware/interfaces/radio/aidl/android.hardware.radio.data-V1-ndk-source/gen/include/aidl/android/hardware/radio/data/BpRadioDataIndication.h"
  },
  {
   "function_name" : "aidl::android::hardware::radio::data::BpRadioDataIndication::BpRadioDataIndication",
   "linker_set_key" : "_ZN4aidl7android8hardware5radio4data21BpRadioDataIndicationC2ERKN3ndk10SpAIBinderE",
   "parameters" :
   [
    {
     "is_this_ptr" : true,
     "referenced_type" : "_ZTIPN4aidl7android8hardware5radio4data21BpRadioDataIndicationE"
    },
    {
     "referenced_type" : "_ZTIRKN3ndk10SpAIBinderE"
    }
   ],
   "return_type" : "_ZTIv",
   "source_file" : "out/soong/.intermediates/hardware/interfaces/radio/aidl/android.hardware.radio.data-V1-ndk-source/gen/include/aidl/android/hardware/radio/data/BpRadioDataIndication.h"
  },
  {
   "function_name" : "aidl::android::hardware::radio::data::BpRadioDataIndication::~BpRadioDataIndication",
   "linker_set_key" : "_ZN4aidl7android8hardware5radio4data21BpRadioDataIndicationD0Ev",
   "parameters" :
   [
    {
     "is_this_ptr" : true,
     "referenced_type" : "_ZTIPN4aidl7android8hardware5radio4data21BpRadioDataIndicationE"
    }
   ],
   "return_type" : "_ZTIv",
   "source_file" : "out/soong/.intermediates/hardware/interfaces/radio/aidl/android.hardware.radio.data-V1-ndk-source/gen/include/aidl/android/hardware/radio/data/BpRadioDataIndication.h"
  },
  {
   "function_name" : "aidl::android::hardware::radio::data::BpRadioDataIndication::~BpRadioDataIndication",
   "linker_set_key" : "_ZN4aidl7android8hardware5radio4data21BpRadioDataIndicationD1Ev",
   "parameters" :
   [
    {
     "is_this_ptr" : true,
     "referenced_type" : "_ZTIPN4aidl7android8hardware5radio4data21BpRadioDataIndicationE"
    }
   ],
   "return_type" : "_ZTIv",
   "source_file" : "out/soong/.intermediates/hardware/interfaces/radio/aidl/android.hardware.radio.data-V1-ndk-source/gen/include/aidl/android/hardware/radio/data/BpRadioDataIndication.h"
  },
  {
   "function_name" : "aidl::android::hardware::radio::data::BpRadioDataIndication::~BpRadioDataIndication",
   "linker_set_key" : "_ZN4aidl7android8hardware5radio4data21BpRadioDataIndicationD2Ev",
   "parameters" :
   [
    {
     "is_this_ptr" : true,
     "referenced_type" : "_ZTIPN4aidl7android8hardware5radio4data21BpRadioDataIndicationE"
    }
   ],
   "return_type" : "_ZTIv",
   "source_file" : "out/soong/.intermediates/hardware/interfaces/radio/aidl/android.hardware.radio.data-V1-ndk-source/gen/include/aidl/android/hardware/radio/data/BpRadioDataIndication.h"
  },
  {
   "function_name" : "aidl::android::hardware::radio::data::QosFilterIpv6FlowLabel::readFromParcel",
   "linker_set_key" : "_ZN4aidl7android8hardware5radio4data22QosFilterIpv6FlowLabel14readFromParcelEPK7AParcel",
   "parameters" :
   [
    {
     "is_this_ptr" : true,
     "referenced_type" : "_ZTIPN4aidl7android8hardware5radio4data22QosFilterIpv6FlowLabelE"
    },
    {
     "referenced_type" : "_ZTIPK7AParcel"
    }
   ],
   "return_type" : "_ZTIi",
   "source_file" : "out/soong/.intermediates/hardware/interfaces/radio/aidl/android.hardware.radio.data-V1-ndk-source/gen/include/aidl/android/hardware/radio/data/QosFilterIpv6FlowLabel.h"
  },
  {
   "function_name" : "aidl::android::hardware::radio::data::QosFilterTypeOfService::readFromParcel",
   "linker_set_key" : "_ZN4aidl7android8hardware5radio4data22QosFilterTypeOfService14readFromParcelEPK7AParcel",
   "parameters" :
   [
    {
     "is_this_ptr" : true,
     "referenced_type" : "_ZTIPN4aidl7android8hardware5radio4data22QosFilterTypeOfServiceE"
    },
    {
     "referenced_type" : "_ZTIPK7AParcel"
    }
   ],
   "return_type" : "_ZTIi",
   "source_file" : "out/soong/.intermediates/hardware/interfaces/radio/aidl/android.hardware.radio.data-V1-ndk-source/gen/include/aidl/android/hardware/radio/data/QosFilterTypeOfService.h"
  },
  {
   "function_name" : "aidl::android::hardware::radio::data::RouteSelectionDescriptor::readFromParcel",
   "linker_set_key" : "_ZN4aidl7android8hardware5radio4data24RouteSelectionDescriptor14readFromParcelEPK7AParcel",
   "parameters" :
   [
    {
     "is_this_ptr" : true,
     "referenced_type" : "_ZTIPN4aidl7android8hardware5radio4data24RouteSelectionDescriptorE"
    },
    {
     "referenced_type" : "_ZTIPK7AParcel"
    }
   ],
   "return_type" : "_ZTIi",
   "source_file" : "out/soong/.intermediates/hardware/interfaces/radio/aidl/android.hardware.radio.data-V1-ndk-source/gen/include/aidl/android/hardware/radio/data/RouteSelectionDescriptor.h"
  },
  {
   "function_name" : "aidl::android::hardware::radio::data::IRadioDataResponseDefault::getInterfaceHash",
   "linker_set_key" : "_ZN4aidl7android8hardware5radio4data25IRadioDataResponseDefault16getInterfaceHashEPNSt3__112basic_stringIcNS5_11char_traitsIcEENS5_9allocatorIcEEEE",
   "parameters" :
   [
    {
     "is_this_ptr" : true,
     "referenced_type" : "_ZTIPN4aidl7android8hardware5radio4data25IRadioDataResponseDefaultE"
    },
    {
     "referenced_type" : "_ZTIPNSt3__112basic_stringIcNS_11char_traitsIcEENS_9allocatorIcEEEE"
    }
   ],
   "return_type" : "_ZTIN3ndk13ScopedAStatusE",
   "source_file" : "out/soong/.intermediates/hardware/interfaces/radio/aidl/android.hardware.radio.data-V1-ndk-source/gen/include/aidl/android/hardware/radio/data/IRadioDataResponse.h"
  },
  {
   "function_name" : "aidl::android::hardware::radio::data::IRadioDataResponseDefault::acknowledgeRequest",
   "linker_set_key" : "_ZN4aidl7android8hardware5radio4data25IRadioDataResponseDefault18acknowledgeRequestEi",
   "parameters" :
   [
    {
     "is_this_ptr" : true,
     "referenced_type" : "_ZTIPN4aidl7android8hardware5radio4data25IRadioDataResponseDefaultE"
    },
    {
     "referenced_type" : "_ZTIi"
    }
   ],
   "return_type" : "_ZTIN3ndk13ScopedAStatusE",
   "source_file" : "out/soong/.intermediates/hardware/interfaces/radio/aidl/android.hardware.radio.data-V1-ndk-source/gen/include/aidl/android/hardware/radio/data/IRadioDataResponse.h"
  },
  {
   "function_name" : "aidl::android::hardware::radio::data::IRadioDataResponseDefault::getInterfaceVersion",
   "linker_set_key" : "_ZN4aidl7android8hardware5radio4data25IRadioDataResponseDefault19getInterfaceVersionEPi",
   "parameters" :
   [
    {
     "is_this_ptr" : true,
     "referenced_type" : "_ZTIPN4aidl7android8hardware5radio4data25IRadioDataResponseDefaultE"
    },
    {
     "referenced_type" : "_ZTIPi"
    }
   ],
   "return_type" : "_ZTIN3ndk13ScopedAStatusE",
   "source_file" : "out/soong/.intermediates/hardware/interfaces/radio/aidl/android.hardware.radio.data-V1-ndk-source/gen/include/aidl/android/hardware/radio/data/IRadioDataResponse.h"
  },
  {
   "function_name" : "aidl::android::hardware::radio::data::IRadioDataResponseDefault::setupDataCallResponse",
   "linker_set_key" : "_ZN4aidl7android8hardware5radio4data25IRadioDataResponseDefault21setupDataCallResponseERKNS2_17RadioResponseInfoERKNS3_19SetupDataCallResultE",
   "parameters" :
   [
    {
     "is_this_ptr" : true,
     "referenced_type" : "_ZTIPN4aidl7android8hardware5radio4data25IRadioDataResponseDefaultE"
    },
    {
     "referenced_type" : "_ZTIRKN4aidl7android8hardware5radio17RadioResponseInfoE"
    },
    {
     "referenced_type" : "_ZTIRKN4aidl7android8hardware5radio4data19SetupDataCallResultE"
    }
   ],
   "return_type" : "_ZTIN3ndk13ScopedAStatusE",
   "source_file" : "out/soong/.intermediates/hardware/interfaces/radio/aidl/android.hardware.radio.data-V1-ndk-source/gen/include/aidl/android/hardware/radio/data/IRadioDataResponse.h"
  },
  {
   "function_name" : "aidl::android::hardware::radio::data::IRadioDataResponseDefault::startHandoverResponse",
   "linker_set_key" : "_ZN4aidl7android8hardware5radio4data25IRadioDataResponseDefault21startHandoverResponseERKNS2_17RadioResponseInfoE",
   "parameters" :
   [
    {
     "is_this_ptr" : true,
     "referenced_type" : "_ZTIPN4aidl7android8hardware5radio4data25IRadioDataResponseDefaultE"
    },
    {
     "referenced_type" : "_ZTIRKN4aidl7android8hardware5radio17RadioResponseInfoE"
    }
   ],
   "return_type" : "_ZTIN3ndk13ScopedAStatusE",
   "source_file" : "out/soong/.intermediates/hardware/interfaces/radio/aidl/android.hardware.radio.data-V1-ndk-source/gen/include/aidl/android/hardware/radio/data/IRadioDataResponse.h"
  },
  {
   "function_name" : "aidl::android::hardware::radio::data::IRadioDataResponseDefault::stopKeepaliveResponse",
   "linker_set_key" : "_ZN4aidl7android8hardware5radio4data25IRadioDataResponseDefault21stopKeepaliveResponseERKNS2_17RadioResponseInfoE",
   "parameters" :
   [
    {
     "is_this_ptr" : true,
     "referenced_type" : "_ZTIPN4aidl7android8hardware5radio4data25IRadioDataResponseDefaultE"
    },
    {
     "referenced_type" : "_ZTIRKN4aidl7android8hardware5radio17RadioResponseInfoE"
    }
   ],
   "return_type" : "_ZTIN3ndk13ScopedAStatusE",
   "source_file" : "out/soong/.intermediates/hardware/interfaces/radio/aidl/android.hardware.radio.data-V1-ndk-source/gen/include/aidl/android/hardware/radio/data/IRadioDataResponse.h"
  },
  {
   "function_name" : "aidl::android::hardware::radio::data::IRadioDataResponseDefault::cancelHandoverResponse",
   "linker_set_key" : "_ZN4aidl7android8hardware5radio4data25IRadioDataResponseDefault22cancelHandoverResponseERKNS2_17RadioResponseInfoE",
   "parameters" :
   [
    {
     "is_this_ptr" : true,
     "referenced_type" : "_ZTIPN4aidl7android8hardware5radio4data25IRadioDataResponseDefaultE"
    },
    {
     "referenced_type" : "_ZTIRKN4aidl7android8hardware5radio17RadioResponseInfoE"
    }
   ],
   "return_type" : "_ZTIN3ndk13ScopedAStatusE",
   "source_file" : "out/soong/.intermediates/hardware/interfaces/radio/aidl/android.hardware.radio.data-V1-ndk-source/gen/include/aidl/android/hardware/radio/data/IRadioDataResponse.h"
  },
  {
   "function_name" : "aidl::android::hardware::radio::data::IRadioDataResponseDefault::setDataAllowedResponse",
   "linker_set_key" : "_ZN4aidl7android8hardware5radio4data25IRadioDataResponseDefault22setDataAllowedResponseERKNS2_17RadioResponseInfoE",
   "parameters" :
   [
    {
     "is_this_ptr" : true,
     "referenced_type" : "_ZTIPN4aidl7android8hardware5radio4data25IRadioDataResponseDefaultE"
    },
    {
     "referenced_type" : "_ZTIRKN4aidl7android8hardware5radio17RadioResponseInfoE"
    }
   ],
   "return_type" : "_ZTIN3ndk13ScopedAStatusE",
   "source_file" : "out/soong/.intermediates/hardware/interfaces/radio/aidl/android.hardware.radio.data-V1-ndk-source/gen/include/aidl/android/hardware/radio/data/IRadioDataResponse.h"
  },
  {
   "function_name" : "aidl::android::hardware::radio::data::IRadioDataResponseDefault::setDataProfileResponse",
   "linker_set_key" : "_ZN4aidl7android8hardware5radio4data25IRadioDataResponseDefault22setDataProfileResponseERKNS2_17RadioResponseInfoE",
   "parameters" :
   [
    {
     "is_this_ptr" : true,
     "referenced_type" : "_ZTIPN4aidl7android8hardware5radio4data25IRadioDataResponseDefaultE"
    },
    {
     "referenced_type" : "_ZTIRKN4aidl7android8hardware5radio17RadioResponseInfoE"
    }
   ],
   "return_type" : "_ZTIN3ndk13ScopedAStatusE",
   "source_file" : "out/soong/.intermediates/hardware/interfaces/radio/aidl/android.hardware.radio.data-V1-ndk-source/gen/include/aidl/android/hardware/radio/data/IRadioDataResponse.h"
  },
  {
   "function_name" : "aidl::android::hardware::radio::data::IRadioDataResponseDefault::startKeepaliveResponse",
   "linker_set_key" : "_ZN4aidl7android8hardware5radio4data25IRadioDataResponseDefault22startKeepaliveResponseERKNS2_17RadioResponseInfoERKNS3_15KeepaliveStatusE",
   "parameters" :
   [
    {
     "is_this_ptr" : true,
     "referenced_type" : "_ZTIPN4aidl7android8hardware5radio4data25IRadioDataResponseDefaultE"
    },
    {
     "referenced_type" : "_ZTIRKN4aidl7android8hardware5radio17RadioResponseInfoE"
    },
    {
     "referenced_type" : "_ZTIRKN4aidl7android8hardware5radio4data15KeepaliveStatusE"
    }
   ],
   "return_type" : "_ZTIN3ndk13ScopedAStatusE",
   "source_file" : "out/soong/.intermediates/hardware/interfaces/radio/aidl/android.hardware.radio.data-V1-ndk-source/gen/include/aidl/android/hardware/radio/data/IRadioDataResponse.h"
  },
  {
   "function_name" : "aidl::android::hardware::radio::data::IRadioDataResponseDefault::getDataCallListResponse",
   "linker_set_key" : "_ZN4aidl7android8hardware5radio4data25IRadioDataResponseDefault23getDataCallListResponseERKNS2_17RadioResponseInfoERKNSt3__16vectorINS3_19SetupDataCallResultENS8_9allocatorISA_EEEE",
   "parameters" :
   [
    {
     "is_this_ptr" : true,
     "referenced_type" : "_ZTIPN4aidl7android8hardware5radio4data25IRadioDataResponseDefaultE"
    },
    {
     "referenced_type" : "_ZTIRKN4aidl7android8hardware5radio17RadioResponseInfoE"
    },
    {
     "referenced_type" : "_ZTIRKNSt3__16vectorIN4aidl7android8hardware5radio4data19SetupDataCallResultENS_9allocatorIS6_EEEE"
    }
   ],
   "return_type" : "_ZTIN3ndk13ScopedAStatusE",
   "source_file" : "out/soong/.intermediates/hardware/interfaces/radio/aidl/android.hardware.radio.data-V1-ndk-source/gen/include/aidl/android/hardware/radio/data/IRadioDataResponse.h"
  },
  {
   "function_name" : "aidl::android::hardware::radio::data::IRadioDataResponseDefault::getSlicingConfigResponse",
   "linker_set_key" : "_ZN4aidl7android8hardware5radio4data25IRadioDataResponseDefault24getSlicingConfigResponseERKNS2_17RadioResponseInfoERKNS3_13SlicingConfigE",
   "parameters" :
   [
    {
     "is_this_ptr" : true,
     "referenced_type" : "_ZTIPN4aidl7android8hardware5radio4data25IRadioDataResponseDefaultE"
    },
    {
     "referenced_type" : "_ZTIRKN4aidl7android8hardware5radio17RadioResponseInfoE"
    },
    {
     "referenced_type" : "_ZTIRKN4aidl7android8hardware5radio4data13SlicingConfigE"
    }
   ],
   "return_type" : "_ZTIN3ndk13ScopedAStatusE",
   "source_file" : "out/soong/.intermediates/hardware/interfaces/radio/aidl/android.hardware.radio.data-V1-ndk-source/gen/include/aidl/android/hardware/radio/data/IRadioDataResponse.h"
  },
  {
   "function_name" : "aidl::android::hardware::radio::data::IRadioDataResponseDefault::setDataThrottlingResponse",
   "linker_set_key" : "_ZN4aidl7android8hardware5radio4data25IRadioDataResponseDefault25setDataThrottlingResponseERKNS2_17RadioResponseInfoE",
   "parameters" :
   [
    {
     "is_this_ptr" : true,
     "referenced_type" : "_ZTIPN4aidl7android8hardware5radio4data25IRadioDataResponseDefaultE"
    },
    {
     "referenced_type" : "_ZTIRKN4aidl7android8hardware5radio17RadioResponseInfoE"
    }
   ],
   "return_type" : "_ZTIN3ndk13ScopedAStatusE",
   "source_file" : "out/soong/.intermediates/hardware/interfaces/radio/aidl/android.hardware.radio.data-V1-ndk-source/gen/include/aidl/android/hardware/radio/data/IRadioDataResponse.h"
  },
  {
   "function_name" : "aidl::android::hardware::radio::data::IRadioDataResponseDefault::deactivateDataCallResponse",
   "linker_set_key" : "_ZN4aidl7android8hardware5radio4data25IRadioDataResponseDefault26deactivateDataCallResponseERKNS2_17RadioResponseInfoE",
   "parameters" :
   [
    {
     "is_this_ptr" : true,
     "referenced_type" : "_ZTIPN4aidl7android8hardware5radio4data25IRadioDataResponseDefaultE"
    },
    {
     "referenced_type" : "_ZTIRKN4aidl7android8hardware5radio17RadioResponseInfoE"
    }
   ],
   "return_type" : "_ZTIN3ndk13ScopedAStatusE",
   "source_file" : "out/soong/.intermediates/hardware/interfaces/radio/aidl/android.hardware.radio.data-V1-ndk-source/gen/include/aidl/android/hardware/radio/data/IRadioDataResponse.h"
  },
  {
   "function_name" : "aidl::android::hardware::radio::data::IRadioDataResponseDefault::releasePduSessionIdResponse",
   "linker_set_key" : "_ZN4aidl7android8hardware5radio4data25IRadioDataResponseDefault27releasePduSessionIdResponseERKNS2_17RadioResponseInfoE",
   "parameters" :
   [
    {
     "is_this_ptr" : true,
     "referenced_type" : "_ZTIPN4aidl7android8hardware5radio4data25IRadioDataResponseDefaultE"
    },
    {
     "referenced_type" : "_ZTIRKN4aidl7android8hardware5radio17RadioResponseInfoE"
    }
   ],
   "return_type" : "_ZTIN3ndk13ScopedAStatusE",
   "source_file" : "out/soong/.intermediates/hardware/interfaces/radio/aidl/android.hardware.radio.data-V1-ndk-source/gen/include/aidl/android/hardware/radio/data/IRadioDataResponse.h"
  },
  {
   "function_name" : "aidl::android::hardware::radio::data::IRadioDataResponseDefault::setInitialAttachApnResponse",
   "linker_set_key" : "_ZN4aidl7android8hardware5radio4data25IRadioDataResponseDefault27setInitialAttachApnResponseERKNS2_17RadioResponseInfoE",
   "parameters" :
   [
    {
     "is_this_ptr" : true,
     "referenced_type" : "_ZTIPN4aidl7android8hardware5radio4data25IRadioDataResponseDefaultE"
    },
    {
     "referenced_type" : "_ZTIRKN4aidl7android8hardware5radio17RadioResponseInfoE"
    }
   ],
   "return_type" : "_ZTIN3ndk13ScopedAStatusE",
   "source_file" : "out/soong/.intermediates/hardware/interfaces/radio/aidl/android.hardware.radio.data-V1-ndk-source/gen/include/aidl/android/hardware/radio/data/IRadioDataResponse.h"
  },
  {
   "function_name" : "aidl::android::hardware::radio::data::IRadioDataResponseDefault::allocatePduSessionIdResponse",
   "linker_set_key" : "_ZN4aidl7android8hardware5radio4data25IRadioDataResponseDefault28allocatePduSessionIdResponseERKNS2_17RadioResponseInfoEi",
   "parameters" :
   [
    {
     "is_this_ptr" : true,
     "referenced_type" : "_ZTIPN4aidl7android8hardware5radio4data25IRadioDataResponseDefaultE"
    },
    {
     "referenced_type" : "_ZTIRKN4aidl7android8hardware5radio17RadioResponseInfoE"
    },
    {
     "referenced_type" : "_ZTIi"
    }
   ],
   "return_type" : "_ZTIN3ndk13ScopedAStatusE",
   "source_file" : "out/soong/.intermediates/hardware/interfaces/radio/aidl/android.hardware.radio.data-V1-ndk-source/gen/include/aidl/android/hardware/radio/data/IRadioDataResponse.h"
  },
  {
   "function_name" : "aidl::android::hardware::radio::data::IRadioDataResponseDefault::asBinder",
   "linker_set_key" : "_ZN4aidl7android8hardware5radio4data25IRadioDataResponseDefault8asBinderEv",
   "parameters" :
   [
    {
     "is_this_ptr" : true,
     "referenced_type" : "_ZTIPN4aidl7android8hardware5radio4data25IRadioDataResponseDefaultE"
    }
   ],
   "return_type" : "_ZTIN3ndk10SpAIBinderE",
   "source_file" : "out/soong/.intermediates/hardware/interfaces/radio/aidl/android.hardware.radio.data-V1-ndk-source/gen/include/aidl/android/hardware/radio/data/IRadioDataResponse.h"
  },
  {
   "function_name" : "aidl::android::hardware::radio::data::IRadioDataResponseDefault::isRemote",
   "linker_set_key" : "_ZN4aidl7android8hardware5radio4data25IRadioDataResponseDefault8isRemoteEv",
   "parameters" :
   [
    {
     "is_this_ptr" : true,
     "referenced_type" : "_ZTIPN4aidl7android8hardware5radio4data25IRadioDataResponseDefaultE"
    }
   ],
   "return_type" : "_ZTIb",
   "source_file" : "out/soong/.intermediates/hardware/interfaces/radio/aidl/android.hardware.radio.data-V1-ndk-source/gen/include/aidl/android/hardware/radio/data/IRadioDataResponse.h"
  },
  {
   "function_name" : "aidl::android::hardware::radio::data::IRadioDataIndicationDefault::unthrottleApn",
   "linker_set_key" : "_ZN4aidl7android8hardware5radio4data27IRadioDataIndicationDefault13unthrottleApnENS2_19RadioIndicationTypeERKNS3_15DataProfileInfoE",
   "parameters" :
   [
    {
     "is_this_ptr" : true,
     "referenced_type" : "_ZTIPN4aidl7android8hardware5radio4data27IRadioDataIndicationDefaultE"
    },
    {
     "referenced_type" : "_ZTIN4aidl7android8hardware5radio19RadioIndicationTypeE"
    },
    {
     "referenced_type" : "_ZTIRKN4aidl7android8hardware5radio4data15DataProfileInfoE"
    }
   ],
   "return_type" : "_ZTIN3ndk13ScopedAStatusE",
   "source_file" : "out/soong/.intermediates/hardware/interfaces/radio/aidl/android.hardware.radio.data-V1-ndk-source/gen/include/aidl/android/hardware/radio/data/IRadioDataIndication.h"
  },
  {
   "function_name" : "aidl::android::hardware::radio::data::IRadioDataIndicationDefault::keepaliveStatus",
   "linker_set_key" : "_ZN4aidl7android8hardware5radio4data27IRadioDataIndicationDefault15keepaliveStatusENS2_19RadioIndicationTypeERKNS3_15KeepaliveStatusE",
   "parameters" :
   [
    {
     "is_this_ptr" : true,
     "referenced_type" : "_ZTIPN4aidl7android8hardware5radio4data27IRadioDataIndicationDefaultE"
    },
    {
     "referenced_type" : "_ZTIN4aidl7android8hardware5radio19RadioIndicationTypeE"
    },
    {
     "referenced_type" : "_ZTIRKN4aidl7android8hardware5radio4data15KeepaliveStatusE"
    }
   ],
   "return_type" : "_ZTIN3ndk13ScopedAStatusE",
   "source_file" : "out/soong/.intermediates/hardware/interfaces/radio/aidl/android.hardware.radio.data-V1-ndk-source/gen/include/aidl/android/hardware/radio/data/IRadioDataIndication.h"
  },
  {
   "function_name" : "aidl::android::hardware::radio::data::IRadioDataIndicationDefault::getInterfaceHash",
   "linker_set_key" : "_ZN4aidl7android8hardware5radio4data27IRadioDataIndicationDefault16getInterfaceHashEPNSt3__112basic_stringIcNS5_11char_traitsIcEENS5_9allocatorIcEEEE",
   "parameters" :
   [
    {
     "is_this_ptr" : true,
     "referenced_type" : "_ZTIPN4aidl7android8hardware5radio4data27IRadioDataIndicationDefaultE"
    },
    {
     "referenced_type" : "_ZTIPNSt3__112basic_stringIcNS_11char_traitsIcEENS_9allocatorIcEEEE"
    }
   ],
   "return_type" : "_ZTIN3ndk13ScopedAStatusE",
   "source_file" : "out/soong/.intermediates/hardware/interfaces/radio/aidl/android.hardware.radio.data-V1-ndk-source/gen/include/aidl/android/hardware/radio/data/IRadioDataIndication.h"
  },
  {
   "function_name" : "aidl::android::hardware::radio::data::IRadioDataIndicationDefault::dataCallListChanged",
   "linker_set_key" : "_ZN4aidl7android8hardware5radio4data27IRadioDataIndicationDefault19dataCallListChangedENS2_19RadioIndicationTypeERKNSt3__16vectorINS3_19SetupDataCallResultENS6_9allocatorIS8_EEEE",
   "parameters" :
   [
    {
     "is_this_ptr" : true,
     "referenced_type" : "_ZTIPN4aidl7android8hardware5radio4data27IRadioDataIndicationDefaultE"
    },
    {
     "referenced_type" : "_ZTIN4aidl7android8hardware5radio19RadioIndicationTypeE"
    },
    {
     "referenced_type" : "_ZTIRKNSt3__16vectorIN4aidl7android8hardware5radio4data19SetupDataCallResultENS_9allocatorIS6_EEEE"
    }
   ],
   "return_type" : "_ZTIN3ndk13ScopedAStatusE",
   "source_file" : "out/soong/.intermediates/hardware/interfaces/radio/aidl/android.hardware.radio.data-V1-ndk-source/gen/include/aidl/android/hardware/radio/data/IRadioDataIndication.h"
  },
  {
   "function_name" : "aidl::android::hardware::radio::data::IRadioDataIndicationDefault::getInterfaceVersion",
   "linker_set_key" : "_ZN4aidl7android8hardware5radio4data27IRadioDataIndicationDefault19getInterfaceVersionEPi",
   "parameters" :
   [
    {
     "is_this_ptr" : true,
     "referenced_type" : "_ZTIPN4aidl7android8hardware5radio4data27IRadioDataIndicationDefaultE"
    },
    {
     "referenced_type" : "_ZTIPi"
    }
   ],
   "return_type" : "_ZTIN3ndk13ScopedAStatusE",
   "source_file" : "out/soong/.intermediates/hardware/interfaces/radio/aidl/android.hardware.radio.data-V1-ndk-source/gen/include/aidl/android/hardware/radio/data/IRadioDataIndication.h"
  },
  {
   "function_name" : "aidl::android::hardware::radio::data::IRadioDataIndicationDefault::slicingConfigChanged",
   "linker_set_key" : "_ZN4aidl7android8hardware5radio4data27IRadioDataIndicationDefault20slicingConfigChangedENS2_19RadioIndicationTypeERKNS3_13SlicingConfigE",
   "parameters" :
   [
    {
     "is_this_ptr" : true,
     "referenced_type" : "_ZTIPN4aidl7android8hardware5radio4data27IRadioDataIndicationDefaultE"
    },
    {
     "referenced_type" : "_ZTIN4aidl7android8hardware5radio19RadioIndicationTypeE"
    },
    {
     "referenced_type" : "_ZTIRKN4aidl7android8hardware5radio4data13SlicingConfigE"
    }
   ],
   "return_type" : "_ZTIN3ndk13ScopedAStatusE",
   "source_file" : "out/soong/.intermediates/hardware/interfaces/radio/aidl/android.hardware.radio.data-V1-ndk-source/gen/include/aidl/android/hardware/radio/data/IRadioDataIndication.h"
  },
  {
   "function_name" : "aidl::android::hardware::radio::data::IRadioDataIndicationDefault::pcoData",
   "linker_set_key" : "_ZN4aidl7android8hardware5radio4data27IRadioDataIndicationDefault7pcoDataENS2_19RadioIndicationTypeERKNS3_11PcoDataInfoE",
   "parameters" :
   [
    {
     "is_this_ptr" : true,
     "referenced_type" : "_ZTIPN4aidl7android8hardware5radio4data27IRadioDataIndicationDefaultE"
    },
    {
     "referenced_type" : "_ZTIN4aidl7android8hardware5radio19RadioIndicationTypeE"
    },
    {
     "referenced_type" : "_ZTIRKN4aidl7android8hardware5radio4data11PcoDataInfoE"
    }
   ],
   "return_type" : "_ZTIN3ndk13ScopedAStatusE",
   "source_file" : "out/soong/.intermediates/hardware/interfaces/radio/aidl/android.hardware.radio.data-V1-ndk-source/gen/include/aidl/android/hardware/radio/data/IRadioDataIndication.h"
  },
  {
   "function_name" : "aidl::android::hardware::radio::data::IRadioDataIndicationDefault::asBinder",
   "linker_set_key" : "_ZN4aidl7android8hardware5radio4data27IRadioDataIndicationDefault8asBinderEv",
   "parameters" :
   [
    {
     "is_this_ptr" : true,
     "referenced_type" : "_ZTIPN4aidl7android8hardware5radio4data27IRadioDataIndicationDefaultE"
    }
   ],
   "return_type" : "_ZTIN3ndk10SpAIBinderE",
   "source_file" : "out/soong/.intermediates/hardware/interfaces/radio/aidl/android.hardware.radio.data-V1-ndk-source/gen/include/aidl/android/hardware/radio/data/IRadioDataIndication.h"
  },
  {
   "function_name" : "aidl::android::hardware::radio::data::IRadioDataIndicationDefault::isRemote",
   "linker_set_key" : "_ZN4aidl7android8hardware5radio4data27IRadioDataIndicationDefault8isRemoteEv",
   "parameters" :
   [
    {
     "is_this_ptr" : true,
     "referenced_type" : "_ZTIPN4aidl7android8hardware5radio4data27IRadioDataIndicationDefaultE"
    }
   ],
   "return_type" : "_ZTIb",
   "source_file" : "out/soong/.intermediates/hardware/interfaces/radio/aidl/android.hardware.radio.data-V1-ndk-source/gen/include/aidl/android/hardware/radio/data/IRadioDataIndication.h"
  },
  {
   "function_name" : "aidl::android::hardware::radio::data::Qos::readFromParcel",
   "linker_set_key" : "_ZN4aidl7android8hardware5radio4data3Qos14readFromParcelEPK7AParcel",
   "parameters" :
   [
    {
     "is_this_ptr" : true,
     "referenced_type" : "_ZTIPN4aidl7android8hardware5radio4data3QosE"
    },
    {
     "referenced_type" : "_ZTIPK7AParcel"
    }
   ],
   "return_type" : "_ZTIi",
   "source_file" : "out/soong/.intermediates/hardware/interfaces/radio/aidl/android.hardware.radio.data-V1-ndk-source/gen/include/aidl/android/hardware/radio/data/Qos.h"
  },
  {
   "function_name" : "aidl::android::hardware::radio::data::NrQos::readFromParcel",
   "linker_set_key" : "_ZN4aidl7android8hardware5radio4data5NrQos14readFromParcelEPK7AParcel",
   "parameters" :
   [
    {
     "is_this_ptr" : true,
     "referenced_type" : "_ZTIPN4aidl7android8hardware5radio4data5NrQosE"
    },
    {
     "referenced_type" : "_ZTIPK7AParcel"
    }
   ],
   "return_type" : "_ZTIi",
   "source_file" : "out/soong/.intermediates/hardware/interfaces/radio/aidl/android.hardware.radio.data-V1-ndk-source/gen/include/aidl/android/hardware/radio/data/NrQos.h"
  },
  {
   "function_name" : "aidl::android::hardware::radio::data::EpsQos::readFromParcel",
   "linker_set_key" : "_ZN4aidl7android8hardware5radio4data6EpsQos14readFromParcelEPK7AParcel",
   "parameters" :
   [
    {
     "is_this_ptr" : true,
     "referenced_type" : "_ZTIPN4aidl7android8hardware5radio4data6EpsQosE"
    },
    {
     "referenced_type" : "_ZTIPK7AParcel"
    }
   ],
   "return_type" : "_ZTIi",
   "source_file" : "out/soong/.intermediates/hardware/interfaces/radio/aidl/android.hardware.radio.data-V1-ndk-source/gen/include/aidl/android/hardware/radio/data/EpsQos.h"
  },
  {
   "function_name" : "aidl::android::hardware::radio::data::OsAppId::readFromParcel",
   "linker_set_key" : "_ZN4aidl7android8hardware5radio4data7OsAppId14readFromParcelEPK7AParcel",
   "parameters" :
   [
    {
     "is_this_ptr" : true,
     "referenced_type" : "_ZTIPN4aidl7android8hardware5radio4data7OsAppIdE"
    },
    {
     "referenced_type" : "_ZTIPK7AParcel"
    }
   ],
   "return_type" : "_ZTIi",
   "source_file" : "out/soong/.intermediates/hardware/interfaces/radio/aidl/android.hardware.radio.data-V1-ndk-source/gen/include/aidl/android/hardware/radio/data/OsAppId.h"
  },
  {
   "function_name" : "aidl::android::hardware::radio::data::UrspRule::readFromParcel",
   "linker_set_key" : "_ZN4aidl7android8hardware5radio4data8UrspRule14readFromParcelEPK7AParcel",
   "parameters" :
   [
    {
     "is_this_ptr" : true,
     "referenced_type" : "_ZTIPN4aidl7android8hardware5radio4data8UrspRuleE"
    },
    {
     "referenced_type" : "_ZTIPK7AParcel"
    }
   ],
   "return_type" : "_ZTIi",
   "source_file" : "out/soong/.intermediates/hardware/interfaces/radio/aidl/android.hardware.radio.data-V1-ndk-source/gen/include/aidl/android/hardware/radio/data/UrspRule.h"
  },
  {
   "function_name" : "aidl::android::hardware::radio::data::PortRange::readFromParcel",
   "linker_set_key" : "_ZN4aidl7android8hardware5radio4data9PortRange14readFromParcelEPK7AParcel",
   "parameters" :
   [
    {
     "is_this_ptr" : true,
     "referenced_type" : "_ZTIPN4aidl7android8hardware5radio4data9PortRangeE"
    },
    {
     "referenced_type" : "_ZTIPK7AParcel"
    }
   ],
   "return_type" : "_ZTIi",
   "source_file" : "out/soong/.intermediates/hardware/interfaces/radio/aidl/android.hardware.radio.data-V1-ndk-source/gen/include/aidl/android/hardware/radio/data/PortRange.h"
  },
  {
   "function_name" : "aidl::android::hardware::radio::data::QosFilter::readFromParcel",
   "linker_set_key" : "_ZN4aidl7android8hardware5radio4data9QosFilter14readFromParcelEPK7AParcel",
   "parameters" :
   [
    {
     "is_this_ptr" : true,
     "referenced_type" : "_ZTIPN4aidl7android8hardware5radio4data9QosFilterE"
    },
    {
     "referenced_type" : "_ZTIPK7AParcel"
    }
   ],
   "return_type" : "_ZTIi",
   "source_file" : "out/soong/.intermediates/hardware/interfaces/radio/aidl/android.hardware.radio.data-V1-ndk-source/gen/include/aidl/android/hardware/radio/data/QosFilter.h"
  },
  {
   "function_name" : "aidl::android::hardware::radio::data::SliceInfo::readFromParcel",
   "linker_set_key" : "_ZN4aidl7android8hardware5radio4data9SliceInfo14readFromParcelEPK7AParcel",
   "parameters" :
   [
    {
     "is_this_ptr" : true,
     "referenced_type" : "_ZTIPN4aidl7android8hardware5radio4data9SliceInfoE"
    },
    {
     "referenced_type" : "_ZTIPK7AParcel"
    }
   ],
   "return_type" : "_ZTIi",
   "source_file" : "out/soong/.intermediates/hardware/interfaces/radio/aidl/android.hardware.radio.data-V1-ndk-source/gen/include/aidl/android/hardware/radio/data/SliceInfo.h"
  },
  {
   "function_name" : "aidl::android::hardware::radio::data::QosSession::writeToParcel",
   "linker_set_key" : "_ZNK4aidl7android8hardware5radio4data10QosSession13writeToParcelEP7AParcel",
   "parameters" :
   [
    {
     "is_this_ptr" : true,
     "referenced_type" : "_ZTIPKN4aidl7android8hardware5radio4data10QosSessionE"
    },
    {
     "referenced_type" : "_ZTIP7AParcel"
    }
   ],
   "return_type" : "_ZTIi",
   "source_file" : "out/soong/.intermediates/hardware/interfaces/radio/aidl/android.hardware.radio.data-V1-ndk-source/gen/include/aidl/android/hardware/radio/data/QosSession.h"
  },
  {
   "function_name" : "aidl::android::hardware::radio::data::LinkAddress::writeToParcel",
   "linker_set_key" : "_ZNK4aidl7android8hardware5radio4data11LinkAddress13writeToParcelEP7AParcel",
   "parameters" :
   [
    {
     "is_this_ptr" : true,
     "referenced_type" : "_ZTIPKN4aidl7android8hardware5radio4data11LinkAddressE"
    },
    {
     "referenced_type" : "_ZTIP7AParcel"
    }
   ],
   "return_type" : "_ZTIi",
   "source_file" : "out/soong/.intermediates/hardware/interfaces/radio/aidl/android.hardware.radio.data-V1-ndk-source/gen/include/aidl/android/hardware/radio/data/LinkAddress.h"
  },
  {
   "function_name" : "aidl::android::hardware::radio::data::PcoDataInfo::writeToParcel",
   "linker_set_key" : "_ZNK4aidl7android8hardware5radio4data11PcoDataInfo13writeToParcelEP7AParcel",
   "parameters" :
   [
    {
     "is_this_ptr" : true,
     "referenced_type" : "_ZTIPKN4aidl7android8hardware5radio4data11PcoDataInfoE"
    },
    {
     "referenced_type" : "_ZTIP7AParcel"
    }
   ],
   "return_type" : "_ZTIi",
   "source_file" : "out/soong/.intermediates/hardware/interfaces/radio/aidl/android.hardware.radio.data-V1-ndk-source/gen/include/aidl/android/hardware/radio/data/PcoDataInfo.h"
  },
  {
   "function_name" : "aidl::android::hardware::radio::data::QosBandwidth::writeToParcel",
   "linker_set_key" : "_ZNK4aidl7android8hardware5radio4data12QosBandwidth13writeToParcelEP7AParcel",
   "parameters" :
   [
    {
     "is_this_ptr" : true,
     "referenced_type" : "_ZTIPKN4aidl7android8hardware5radio4data12QosBandwidthE"
    },
    {
     "referenced_type" : "_ZTIP7AParcel"
    }
   ],
   "return_type" : "_ZTIi",
   "source_file" : "out/soong/.intermediates/hardware/interfaces/radio/aidl/android.hardware.radio.data-V1-ndk-source/gen/include/aidl/android/hardware/radio/data/QosBandwidth.h"
  },
  {
   "function_name" : "aidl::android::hardware::radio::data::SlicingConfig::writeToParcel",
   "linker_set_key" : "_ZNK4aidl7android8hardware5radio4data13SlicingConfig13writeToParcelEP7AParcel",
   "parameters" :
   [
    {
     "is_this_ptr" : true,
     "referenced_type" : "_ZTIPKN4aidl7android8hardware5radio4data13SlicingConfigE"
    },
    {
     "referenced_type" : "_ZTIP7AParcel"
    }
   ],
   "return_type" : "_ZTIi",
   "source_file" : "out/soong/.intermediates/hardware/interfaces/radio/aidl/android.hardware.radio.data-V1-ndk-source/gen/include/aidl/android/hardware/radio/data/SlicingConfig.h"
  },
  {
   "function_name" : "aidl::android::hardware::radio::data::DataProfileInfo::writeToParcel",
   "linker_set_key" : "_ZNK4aidl7android8hardware5radio4data15DataProfileInfo13writeToParcelEP7AParcel",
   "parameters" :
   [
    {
     "is_this_ptr" : true,
     "referenced_type" : "_ZTIPKN4aidl7android8hardware5radio4data15DataProfileInfoE"
    },
    {
     "referenced_type" : "_ZTIP7AParcel"
    }
   ],
   "return_type" : "_ZTIi",
   "source_file" : "out/soong/.intermediates/hardware/interfaces/radio/aidl/android.hardware.radio.data-V1-ndk-source/gen/include/aidl/android/hardware/radio/data/DataProfileInfo.h"
  },
  {
   "function_name" : "aidl::android::hardware::radio::data::KeepaliveStatus::writeToParcel",
   "linker_set_key" : "_ZNK4aidl7android8hardware5radio4data15KeepaliveStatus13writeToParcelEP7AParcel",
   "parameters" :
   [
    {
     "is_this_ptr" : true,
     "referenced_type" : "_ZTIPKN4aidl7android8hardware5radio4data15KeepaliveStatusE"
    },
    {
     "referenced_type" : "_ZTIP7AParcel"
    }
   ],
   "return_type" : "_ZTIi",
   "source_file" : "out/soong/.intermediates/hardware/interfaces/radio/aidl/android.hardware.radio.data-V1-ndk-source/gen/include/aidl/android/hardware/radio/data/KeepaliveStatus.h"
  },
  {
   "function_name" : "aidl::android::hardware::radio::data::KeepaliveRequest::writeToParcel",
   "linker_set_key" : "_ZNK4aidl7android8hardware5radio4data16KeepaliveRequest13writeToParcelEP7AParcel",
   "parameters" :
   [
    {
     "is_this_ptr" : true,
     "referenced_type" : "_ZTIPKN4aidl7android8hardware5radio4data16KeepaliveRequestE"
    },
    {
     "referenced_type" : "_ZTIP7AParcel"
    }
   ],
   "return_type" : "_ZTIi",
   "source_file" : "out/soong/.intermediates/hardware/interfaces/radio/aidl/android.hardware.radio.data-V1-ndk-source/gen/include/aidl/android/hardware/radio/data/KeepaliveRequest.h"
  },
  {
   "function_name" : "aidl::android::hardware::radio::data::QosFilterIpsecSpi::writeToParcel",
   "linker_set_key" : "_ZNK4aidl7android8hardware5radio4data17QosFilterIpsecSpi13writeToParcelEP7AParcel",
   "parameters" :
   [
    {
     "is_this_ptr" : true,
     "referenced_type" : "_ZTIPKN4aidl7android8hardware5radio4data17QosFilterIpsecSpiE"
    },
    {
     "referenced_type" : "_ZTIP7AParcel"
    }
   ],
   "return_type" : "_ZTIi",
   "source_file" : "out/soong/.intermediates/hardware/interfaces/radio/aidl/android.hardware.radio.data-V1-ndk-source/gen/include/aidl/android/hardware/radio/data/QosFilterIpsecSpi.h"
  },
  {
   "function_name" : "aidl::android::hardware::radio::data::TrafficDescriptor::writeToParcel",
   "linker_set_key" : "_ZNK4aidl7android8hardware5radio4data17TrafficDescriptor13writeToParcelEP7AParcel",
   "parameters" :
   [
    {
     "is_this_ptr" : true,
     "referenced_type" : "_ZTIPKN4aidl7android8hardware5radio4data17TrafficDescriptorE"
    },
    {
     "referenced_type" : "_ZTIP7AParcel"
    }
   ],
   "return_type" : "_ZTIi",
   "source_file" : "out/soong/.intermediates/hardware/interfaces/radio/aidl/android.hardware.radio.data-V1-ndk-source/gen/include/aidl/android/hardware/radio/data/TrafficDescriptor.h"
  },
  {
   "function_name" : "aidl::android::hardware::radio::data::SetupDataCallResult::writeToParcel",
   "linker_set_key" : "_ZNK4aidl7android8hardware5radio4data19SetupDataCallResult13writeToParcelEP7AParcel",
   "parameters" :
   [
    {
     "is_this_ptr" : true,
     "referenced_type" : "_ZTIPKN4aidl7android8hardware5radio4data19SetupDataCallResultE"
    },
    {
     "referenced_type" : "_ZTIP7AParcel"
    }
   ],
   "return_type" : "_ZTIi",
   "source_file" : "out/soong/.intermediates/hardware/interfaces/radio/aidl/android.hardware.radio.data-V1-ndk-source/gen/include/aidl/android/hardware/radio/data/SetupDataCallResult.h"
  },
  {
   "function_name" : "aidl::android::hardware::radio::data::QosFilterIpv6FlowLabel::writeToParcel",
   "linker_set_key" : "_ZNK4aidl7android8hardware5radio4data22QosFilterIpv6FlowLabel13writeToParcelEP7AParcel",
   "parameters" :
   [
    {
     "is_this_ptr" : true,
     "referenced_type" : "_ZTIPKN4aidl7android8hardware5radio4data22QosFilterIpv6FlowLabelE"
    },
    {
     "referenced_type" : "_ZTIP7AParcel"
    }
   ],
   "return_type" : "_ZTIi",
   "source_file" : "out/soong/.intermediates/hardware/interfaces/radio/aidl/android.hardware.radio.data-V1-ndk-source/gen/include/aidl/android/hardware/radio/data/QosFilterIpv6FlowLabel.h"
  },
  {
   "function_name" : "aidl::android::hardware::radio::data::QosFilterTypeOfService::writeToParcel",
   "linker_set_key" : "_ZNK4aidl7android8hardware5radio4data22QosFilterTypeOfService13writeToParcelEP7AParcel",
   "parameters" :
   [
    {
     "is_this_ptr" : true,
     "referenced_type" : "_ZTIPKN4aidl7android8hardware5radio4data22QosFilterTypeOfServiceE"
    },
    {
     "referenced_type" : "_ZTIP7AParcel"
    }
   ],
   "return_type" : "_ZTIi",
   "source_file" : "out/soong/.intermediates/hardware/interfaces/radio/aidl/android.hardware.radio.data-V1-ndk-source/gen/include/aidl/android/hardware/radio/data/QosFilterTypeOfService.h"
  },
  {
   "function_name" : "aidl::android::hardware::radio::data::RouteSelectionDescriptor::writeToParcel",
   "linker_set_key" : "_ZNK4aidl7android8hardware5radio4data24RouteSelectionDescriptor13writeToParcelEP7AParcel",
   "parameters" :
   [
    {
     "is_this_ptr" : true,
     "referenced_type" : "_ZTIPKN4aidl7android8hardware5radio4data24RouteSelectionDescriptorE"
    },
    {
     "referenced_type" : "_ZTIP7AParcel"
    }
   ],
   "return_type" : "_ZTIi",
   "source_file" : "out/soong/.intermediates/hardware/interfaces/radio/aidl/android.hardware.radio.data-V1-ndk-source/gen/include/aidl/android/hardware/radio/data/RouteSelectionDescriptor.h"
  },
  {
   "function_name" : "aidl::android::hardware::radio::data::Qos::writeToParcel",
   "linker_set_key" : "_ZNK4aidl7android8hardware5radio4data3Qos13writeToParcelEP7AParcel",
   "parameters" :
   [
    {
     "is_this_ptr" : true,
     "referenced_type" : "_ZTIPKN4aidl7android8hardware5radio4data3QosE"
    },
    {
     "referenced_type" : "_ZTIP7AParcel"
    }
   ],
   "return_type" : "_ZTIi",
   "source_file" : "out/soong/.intermediates/hardware/interfaces/radio/aidl/android.hardware.radio.data-V1-ndk-source/gen/include/aidl/android/hardware/radio/data/Qos.h"
  },
  {
   "function_name" : "aidl::android::hardware::radio::data::NrQos::writeToParcel",
   "linker_set_key" : "_ZNK4aidl7android8hardware5radio4data5NrQos13writeToParcelEP7AParcel",
   "parameters" :
   [
    {
     "is_this_ptr" : true,
     "referenced_type" : "_ZTIPKN4aidl7android8hardware5radio4data5NrQosE"
    },
    {
     "referenced_type" : "_ZTIP7AParcel"
    }
   ],
   "return_type" : "_ZTIi",
   "source_file" : "out/soong/.intermediates/hardware/interfaces/radio/aidl/android.hardware.radio.data-V1-ndk-source/gen/include/aidl/android/hardware/radio/data/NrQos.h"
  },
  {
   "function_name" : "aidl::android::hardware::radio::data::EpsQos::writeToParcel",
   "linker_set_key" : "_ZNK4aidl7android8hardware5radio4data6EpsQos13writeToParcelEP7AParcel",
   "parameters" :
   [
    {
     "is_this_ptr" : true,
     "referenced_type" : "_ZTIPKN4aidl7android8hardware5radio4data6EpsQosE"
    },
    {
     "referenced_type" : "_ZTIP7AParcel"
    }
   ],
   "return_type" : "_ZTIi",
   "source_file" : "out/soong/.intermediates/hardware/interfaces/radio/aidl/android.hardware.radio.data-V1-ndk-source/gen/include/aidl/android/hardware/radio/data/EpsQos.h"
  },
  {
   "function_name" : "aidl::android::hardware::radio::data::OsAppId::writeToParcel",
   "linker_set_key" : "_ZNK4aidl7android8hardware5radio4data7OsAppId13writeToParcelEP7AParcel",
   "parameters" :
   [
    {
     "is_this_ptr" : true,
     "referenced_type" : "_ZTIPKN4aidl7android8hardware5radio4data7OsAppIdE"
    },
    {
     "referenced_type" : "_ZTIP7AParcel"
    }
   ],
   "return_type" : "_ZTIi",
   "source_file" : "out/soong/.intermediates/hardware/interfaces/radio/aidl/android.hardware.radio.data-V1-ndk-source/gen/include/aidl/android/hardware/radio/data/OsAppId.h"
  },
  {
   "function_name" : "aidl::android::hardware::radio::data::UrspRule::writeToParcel",
   "linker_set_key" : "_ZNK4aidl7android8hardware5radio4data8UrspRule13writeToParcelEP7AParcel",
   "parameters" :
   [
    {
     "is_this_ptr" : true,
     "referenced_type" : "_ZTIPKN4aidl7android8hardware5radio4data8UrspRuleE"
    },
    {
     "referenced_type" : "_ZTIP7AParcel"
    }
   ],
   "return_type" : "_ZTIi",
   "source_file" : "out/soong/.intermediates/hardware/interfaces/radio/aidl/android.hardware.radio.data-V1-ndk-source/gen/include/aidl/android/hardware/radio/data/UrspRule.h"
  },
  {
   "function_name" : "aidl::android::hardware::radio::data::PortRange::writeToParcel",
   "linker_set_key" : "_ZNK4aidl7android8hardware5radio4data9PortRange13writeToParcelEP7AParcel",
   "parameters" :
   [
    {
     "is_this_ptr" : true,
     "referenced_type" : "_ZTIPKN4aidl7android8hardware5radio4data9PortRangeE"
    },
    {
     "referenced_type" : "_ZTIP7AParcel"
    }
   ],
   "return_type" : "_ZTIi",
   "source_file" : "out/soong/.intermediates/hardware/interfaces/radio/aidl/android.hardware.radio.data-V1-ndk-source/gen/include/aidl/android/hardware/radio/data/PortRange.h"
  },
  {
   "function_name" : "aidl::android::hardware::radio::data::QosFilter::writeToParcel",
   "linker_set_key" : "_ZNK4aidl7android8hardware5radio4data9QosFilter13writeToParcelEP7AParcel",
   "parameters" :
   [
    {
     "is_this_ptr" : true,
     "referenced_type" : "_ZTIPKN4aidl7android8hardware5radio4data9QosFilterE"
    },
    {
     "referenced_type" : "_ZTIP7AParcel"
    }
   ],
   "return_type" : "_ZTIi",
   "source_file" : "out/soong/.intermediates/hardware/interfaces/radio/aidl/android.hardware.radio.data-V1-ndk-source/gen/include/aidl/android/hardware/radio/data/QosFilter.h"
  },
  {
   "function_name" : "aidl::android::hardware::radio::data::SliceInfo::writeToParcel",
   "linker_set_key" : "_ZNK4aidl7android8hardware5radio4data9SliceInfo13writeToParcelEP7AParcel",
   "parameters" :
   [
    {
     "is_this_ptr" : true,
     "referenced_type" : "_ZTIPKN4aidl7android8hardware5radio4data9SliceInfoE"
    },
    {
     "referenced_type" : "_ZTIP7AParcel"
    }
   ],
   "return_type" : "_ZTIi",
   "source_file" : "out/soong/.intermediates/hardware/interfaces/radio/aidl/android.hardware.radio.data-V1-ndk-source/gen/include/aidl/android/hardware/radio/data/SliceInfo.h"
  }
 ],
 "global_vars" :
 [
  {
   "linker_set_key" : "_ZN4aidl7android8hardware5radio4data10IRadioData10descriptorE",
   "name" : "aidl::android::hardware::radio::data::IRadioData::descriptor",
   "referenced_type" : "_ZTIPKc",
   "source_file" : "out/soong/.intermediates/hardware/interfaces/radio/aidl/android.hardware.radio.data-V1-ndk-source/gen/include/aidl/android/hardware/radio/data/IRadioData.h"
  },
  {
   "access" : "private",
   "linker_set_key" : "_ZN4aidl7android8hardware5radio4data10IRadioData12default_implE",
   "name" : "aidl::android::hardware::radio::data::IRadioData::default_impl",
   "referenced_type" : "_ZTINSt3__110shared_ptrIN4aidl7android8hardware5radio4data10IRadioDataEEE",
   "source_file" : "out/soong/.intermediates/hardware/interfaces/radio/aidl/android.hardware.radio.data-V1-ndk-source/gen/include/aidl/android/hardware/radio/data/IRadioData.h"
  },
  {
   "linker_set_key" : "_ZN4aidl7android8hardware5radio4data10IRadioData4hashE",
   "name" : "aidl::android::hardware::radio::data::IRadioData::hash",
   "referenced_type" : "_ZTIKNSt3__112basic_stringIcNS_11char_traitsIcEENS_9allocatorIcEEEE",
   "source_file" : "out/soong/.intermediates/hardware/interfaces/radio/aidl/android.hardware.radio.data-V1-ndk-source/gen/include/aidl/android/hardware/radio/data/IRadioData.h"
  },
  {
   "linker_set_key" : "_ZN4aidl7android8hardware5radio4data10QosSession10descriptorE",
   "name" : "aidl::android::hardware::radio::data::QosSession::descriptor",
   "referenced_type" : "_ZTIPKc",
   "source_file" : "out/soong/.intermediates/hardware/interfaces/radio/aidl/android.hardware.radio.data-V1-ndk-source/gen/include/aidl/android/hardware/radio/data/QosSession.h"
  },
  {
   "linker_set_key" : "_ZN4aidl7android8hardware5radio4data11LinkAddress10descriptorE",
   "name" : "aidl::android::hardware::radio::data::LinkAddress::descriptor",
   "referenced_type" : "_ZTIPKc",
   "source_file" : "out/soong/.intermediates/hardware/interfaces/radio/aidl/android.hardware.radio.data-V1-ndk-source/gen/include/aidl/android/hardware/radio/data/LinkAddress.h"
  },
  {
   "linker_set_key" : "_ZN4aidl7android8hardware5radio4data11PcoDataInfo10descriptorE",
   "name" : "aidl::android::hardware::radio::data::PcoDataInfo::descriptor",
   "referenced_type" : "_ZTIPKc",
   "source_file" : "out/soong/.intermediates/hardware/interfaces/radio/aidl/android.hardware.radio.data-V1-ndk-source/gen/include/aidl/android/hardware/radio/data/PcoDataInfo.h"
  },
  {
   "linker_set_key" : "_ZN4aidl7android8hardware5radio4data12QosBandwidth10descriptorE",
   "name" : "aidl::android::hardware::radio::data::QosBandwidth::descriptor",
   "referenced_type" : "_ZTIPKc",
   "source_file" : "out/soong/.intermediates/hardware/interfaces/radio/aidl/android.hardware.radio.data-V1-ndk-source/gen/include/aidl/android/hardware/radio/data/QosBandwidth.h"
  },
  {
   "linker_set_key" : "_ZN4aidl7android8hardware5radio4data13SlicingConfig10descriptorE",
   "name" : "aidl::android::hardware::radio::data::SlicingConfig::descriptor",
   "referenced_type" : "_ZTIPKc",
   "source_file" : "out/soong/.intermediates/hardware/interfaces/radio/aidl/android.hardware.radio.data-V1-ndk-source/gen/include/aidl/android/hardware/radio/data/SlicingConfig.h"
  },
  {
   "linker_set_key" : "_ZN4aidl7android8hardware5radio4data15DataProfileInfo10descriptorE",
   "name" : "aidl::android::hardware::radio::data::DataProfileInfo::descriptor",
   "referenced_type" : "_ZTIPKc",
   "source_file" : "out/soong/.intermediates/hardware/interfaces/radio/aidl/android.hardware.radio.data-V1-ndk-source/gen/include/aidl/android/hardware/radio/data/DataProfileInfo.h"
  },
  {
   "linker_set_key" : "_ZN4aidl7android8hardware5radio4data15KeepaliveStatus10descriptorE",
   "name" : "aidl::android::hardware::radio::data::KeepaliveStatus::descriptor",
   "referenced_type" : "_ZTIPKc",
   "source_file" : "out/soong/.intermediates/hardware/interfaces/radio/aidl/android.hardware.radio.data-V1-ndk-source/gen/include/aidl/android/hardware/radio/data/KeepaliveStatus.h"
  },
  {
   "linker_set_key" : "_ZN4aidl7android8hardware5radio4data16KeepaliveRequest10descriptorE",
   "name" : "aidl::android::hardware::radio::data::KeepaliveRequest::descriptor",
   "referenced_type" : "_ZTIPKc",
   "source_file" : "out/soong/.intermediates/hardware/interfaces/radio/aidl/android.hardware.radio.data-V1-ndk-source/gen/include/aidl/android/hardware/radio/data/KeepaliveRequest.h"
  },
  {
   "linker_set_key" : "_ZN4aidl7android8hardware5radio4data17QosFilterIpsecSpi10descriptorE",
   "name" : "aidl::android::hardware::radio::data::QosFilterIpsecSpi::descriptor",
   "referenced_type" : "_ZTIPKc",
   "source_file" : "out/soong/.intermediates/hardware/interfaces/radio/aidl/android.hardware.radio.data-V1-ndk-source/gen/include/aidl/android/hardware/radio/data/QosFilterIpsecSpi.h"
  },
  {
   "linker_set_key" : "_ZN4aidl7android8hardware5radio4data17TrafficDescriptor10descriptorE",
   "name" : "aidl::android::hardware::radio::data::TrafficDescriptor::descriptor",
   "referenced_type" : "_ZTIPKc",
   "source_file" : "out/soong/.intermediates/hardware/interfaces/radio/aidl/android.hardware.radio.data-V1-ndk-source/gen/include/aidl/android/hardware/radio/data/TrafficDescriptor.h"
  },
  {
   "linker_set_key" : "_ZN4aidl7android8hardware5radio4data18IRadioDataResponse10descriptorE",
   "name" : "aidl::android::hardware::radio::data::IRadioDataResponse::descriptor",
   "referenced_type" : "_ZTIPKc",
   "source_file" : "out/soong/.intermediates/hardware/interfaces/radio/aidl/android.hardware.radio.data-V1-ndk-source/gen/include/aidl/android/hardware/radio/data/IRadioDataResponse.h"
  },
  {
   "access" : "private",
   "linker_set_key" : "_ZN4aidl7android8hardware5radio4data18IRadioDataResponse12default_implE",
   "name" : "aidl::android::hardware::radio::data::IRadioDataResponse::default_impl",
   "referenced_type" : "_ZTINSt3__110shared_ptrIN4aidl7android8hardware5radio4data18IRadioDataResponseEEE",
   "source_file" : "out/soong/.intermediates/hardware/interfaces/radio/aidl/android.hardware.radio.data-V1-ndk-source/gen/include/aidl/android/hardware/radio/data/IRadioDataResponse.h"
  },
  {
   "linker_set_key" : "_ZN4aidl7android8hardware5radio4data18IRadioDataResponse4hashE",
   "name" : "aidl::android::hardware::radio::data::IRadioDataResponse::hash",
   "referenced_type" : "_ZTIKNSt3__112basic_stringIcNS_11char_traitsIcEENS_9allocatorIcEEEE",
   "source_file" : "out/soong/.intermediates/hardware/interfaces/radio/aidl/android.hardware.radio.data-V1-ndk-source/gen/include/aidl/android/hardware/radio/data/IRadioDataResponse.h"
  },
  {
   "linker_set_key" : "_ZN4aidl7android8hardware5radio4data19SetupDataCallResult10descriptorE",
   "name" : "aidl::android::hardware::radio::data::SetupDataCallResult::descriptor",
   "referenced_type" : "_ZTIPKc",
   "source_file" : "out/soong/.intermediates/hardware/interfaces/radio/aidl/android.hardware.radio.data-V1-ndk-source/gen/include/aidl/android/hardware/radio/data/SetupDataCallResult.h"
  },
  {
   "linker_set_key" : "_ZN4aidl7android8hardware5radio4data20IRadioDataIndication10descriptorE",
   "name" : "aidl::android::hardware::radio::data::IRadioDataIndication::descriptor",
   "referenced_type" : "_ZTIPKc",
   "source_file" : "out/soong/.intermediates/hardware/interfaces/radio/aidl/android.hardware.radio.data-V1-ndk-source/gen/include/aidl/android/hardware/radio/data/IRadioDataIndication.h"
  },
  {
   "access" : "private",
   "linker_set_key" : "_ZN4aidl7android8hardware5radio4data20IRadioDataIndication12default_implE",
   "name" : "aidl::android::hardware::radio::data::IRadioDataIndication::default_impl",
   "referenced_type" : "_ZTINSt3__110shared_ptrIN4aidl7android8hardware5radio4data20IRadioDataIndicationEEE",
   "source_file" : "out/soong/.intermediates/hardware/interfaces/radio/aidl/android.hardware.radio.data-V1-ndk-source/gen/include/aidl/android/hardware/radio/data/IRadioDataIndication.h"
  },
  {
   "linker_set_key" : "_ZN4aidl7android8hardware5radio4data20IRadioDataIndication4hashE",
   "name" : "aidl::android::hardware::radio::data::IRadioDataIndication::hash",
   "referenced_type" : "_ZTIKNSt3__112basic_stringIcNS_11char_traitsIcEENS_9allocatorIcEEEE",
   "source_file" : "out/soong/.intermediates/hardware/interfaces/radio/aidl/android.hardware.radio.data-V1-ndk-source/gen/include/aidl/android/hardware/radio/data/IRadioDataIndication.h"
  },
  {
   "linker_set_key" : "_ZN4aidl7android8hardware5radio4data22QosFilterIpv6FlowLabel10descriptorE",
   "name" : "aidl::android::hardware::radio::data::QosFilterIpv6FlowLabel::descriptor",
   "referenced_type" : "_ZTIPKc",
   "source_file" : "out/soong/.intermediates/hardware/interfaces/radio/aidl/android.hardware.radio.data-V1-ndk-source/gen/include/aidl/android/hardware/radio/data/QosFilterIpv6FlowLabel.h"
  },
  {
   "linker_set_key" : "_ZN4aidl7android8hardware5radio4data22QosFilterTypeOfService10descriptorE",
   "name" : "aidl::android::hardware::radio::data::QosFilterTypeOfService::descriptor",
   "referenced_type" : "_ZTIPKc",
   "source_file" : "out/soong/.intermediates/hardware/interfaces/radio/aidl/android.hardware.radio.data-V1-ndk-source/gen/include/aidl/android/hardware/radio/data/QosFilterTypeOfService.h"
  },
  {
   "linker_set_key" : "_ZN4aidl7android8hardware5radio4data24RouteSelectionDescriptor10descriptorE",
   "name" : "aidl::android::hardware::radio::data::RouteSelectionDescriptor::descriptor",
   "referenced_type" : "_ZTIPKc",
   "source_file" : "out/soong/.intermediates/hardware/interfaces/radio/aidl/android.hardware.radio.data-V1-ndk-source/gen/include/aidl/android/hardware/radio/data/RouteSelectionDescriptor.h"
  },
  {
   "linker_set_key" : "_ZN4aidl7android8hardware5radio4data3Qos10descriptorE",
   "name" : "aidl::android::hardware::radio::data::Qos::descriptor",
   "referenced_type" : "_ZTIPKc",
   "source_file" : "out/soong/.intermediates/hardware/interfaces/radio/aidl/android.hardware.radio.data-V1-ndk-source/gen/include/aidl/android/hardware/radio/data/Qos.h"
  },
  {
   "linker_set_key" : "_ZN4aidl7android8hardware5radio4data5NrQos10descriptorE",
   "name" : "aidl::android::hardware::radio::data::NrQos::descriptor",
   "referenced_type" : "_ZTIPKc",
   "source_file" : "out/soong/.intermediates/hardware/interfaces/radio/aidl/android.hardware.radio.data-V1-ndk-source/gen/include/aidl/android/hardware/radio/data/NrQos.h"
  },
  {
   "linker_set_key" : "_ZN4aidl7android8hardware5radio4data6EpsQos10descriptorE",
   "name" : "aidl::android::hardware::radio::data::EpsQos::descriptor",
   "referenced_type" : "_ZTIPKc",
   "source_file" : "out/soong/.intermediates/hardware/interfaces/radio/aidl/android.hardware.radio.data-V1-ndk-source/gen/include/aidl/android/hardware/radio/data/EpsQos.h"
  },
  {
   "linker_set_key" : "_ZN4aidl7android8hardware5radio4data7OsAppId10descriptorE",
   "name" : "aidl::android::hardware::radio::data::OsAppId::descriptor",
   "referenced_type" : "_ZTIPKc",
   "source_file" : "out/soong/.intermediates/hardware/interfaces/radio/aidl/android.hardware.radio.data-V1-ndk-source/gen/include/aidl/android/hardware/radio/data/OsAppId.h"
  },
  {
   "linker_set_key" : "_ZN4aidl7android8hardware5radio4data8UrspRule10descriptorE",
   "name" : "aidl::android::hardware::radio::data::UrspRule::descriptor",
   "referenced_type" : "_ZTIPKc",
   "source_file" : "out/soong/.intermediates/hardware/interfaces/radio/aidl/android.hardware.radio.data-V1-ndk-source/gen/include/aidl/android/hardware/radio/data/UrspRule.h"
  },
  {
   "linker_set_key" : "_ZN4aidl7android8hardware5radio4data9PortRange10descriptorE",
   "name" : "aidl::android::hardware::radio::data::PortRange::descriptor",
   "referenced_type" : "_ZTIPKc",
   "source_file" : "out/soong/.intermediates/hardware/interfaces/radio/aidl/android.hardware.radio.data-V1-ndk-source/gen/include/aidl/android/hardware/radio/data/PortRange.h"
  },
  {
   "linker_set_key" : "_ZN4aidl7android8hardware5radio4data9QosFilter10descriptorE",
   "name" : "aidl::android::hardware::radio::data::QosFilter::descriptor",
   "referenced_type" : "_ZTIPKc",
   "source_file" : "out/soong/.intermediates/hardware/interfaces/radio/aidl/android.hardware.radio.data-V1-ndk-source/gen/include/aidl/android/hardware/radio/data/QosFilter.h"
  },
  {
   "linker_set_key" : "_ZN4aidl7android8hardware5radio4data9SliceInfo10descriptorE",
   "name" : "aidl::android::hardware::radio::data::SliceInfo::descriptor",
   "referenced_type" : "_ZTIPKc",
   "source_file" : "out/soong/.intermediates/hardware/interfaces/radio/aidl/android.hardware.radio.data-V1-ndk-source/gen/include/aidl/android/hardware/radio/data/SliceInfo.h"
  }
 ],
 "lvalue_reference_types" :
 [
  {
   "alignment" : 8,
   "linker_set_key" : "_ZTIRKDs",
   "name" : "const char16_t &",
   "referenced_type" : "_ZTIKDs",
   "self_type" : "_ZTIRKDs",
   "size" : 8,
   "source_file" : "frameworks/native/libs/binder/ndk/include_cpp/android/binder_to_string.h"
  },
  {
   "alignment" : 8,
   "linker_set_key" : "_ZTIRKN3ndk10SpAIBinderE",
   "name" : "const ndk::SpAIBinder &",
   "referenced_type" : "_ZTIKN3ndk10SpAIBinderE",
   "self_type" : "_ZTIRKN3ndk10SpAIBinderE",
   "size" : 8,
   "source_file" : "frameworks/native/libs/binder/ndk/include_cpp/android/binder_auto_utils.h"
  },
  {
   "alignment" : 8,
   "linker_set_key" : "_ZTIRKN3ndk13ScopedAParcelE",
   "name" : "const ndk::ScopedAParcel &",
   "referenced_type" : "_ZTIKN3ndk13ScopedAParcelE",
   "self_type" : "_ZTIRKN3ndk13ScopedAParcelE",
   "size" : 8,
   "source_file" : "frameworks/native/libs/binder/ndk/include_cpp/android/binder_auto_utils.h"
  },
  {
   "alignment" : 8,
   "linker_set_key" : "_ZTIRKN3ndk17AParcelableHolderE",
   "name" : "const ndk::AParcelableHolder &",
   "referenced_type" : "_ZTIKN3ndk17AParcelableHolderE",
   "self_type" : "_ZTIRKN3ndk17AParcelableHolderE",
   "size" : 8,
   "source_file" : "frameworks/native/libs/binder/ndk/include_cpp/android/binder_parcelable_utils.h"
  },
  {
   "alignment" : 8,
   "linker_set_key" : "_ZTIRKN3ndk20ScopedFileDescriptorE",
   "name" : "const ndk::ScopedFileDescriptor &",
   "referenced_type" : "_ZTIKN3ndk20ScopedFileDescriptorE",
   "self_type" : "_ZTIRKN3ndk20ScopedFileDescriptorE",
   "size" : 8,
   "source_file" : "frameworks/native/libs/binder/ndk/include_cpp/android/binder_auto_utils.h"
  },
  {
   "alignment" : 8,
   "linker_set_key" : "_ZTIRKN4aidl7android8hardware5radio10RadioErrorE",
   "name" : "const aidl::android::hardware::radio::RadioError &",
   "referenced_type" : "_ZTIKN4aidl7android8hardware5radio10RadioErrorE",
   "self_type" : "_ZTIRKN4aidl7android8hardware5radio10RadioErrorE",
   "size" : 8,
   "source_file" : "frameworks/native/libs/binder/ndk/include_cpp/android/binder_to_string.h"
  },
  {
   "alignment" : 8,
   "linker_set_key" : "_ZTIRKN4aidl7android8hardware5radio17RadioResponseInfoE",
   "name" : "const aidl::android::hardware::radio::RadioResponseInfo &",
   "referenced_type" : "_ZTIKN4aidl7android8hardware5radio17RadioResponseInfoE",
   "self_type" : "_ZTIRKN4aidl7android8hardware5radio17RadioResponseInfoE",
   "size" : 8,
   "source_file" : "out/soong/.intermediates/hardware/interfaces/radio/aidl/android.hardware.radio-V1-ndk-source/gen/include/aidl/android/hardware/radio/RadioResponseInfo.h"
  },
  {
   "alignment" : 8,
   "linker_set_key" : "_ZTIRKN4aidl7android8hardware5radio17RadioResponseTypeE",
   "name" : "const aidl::android::hardware::radio::RadioResponseType &",
   "referenced_type" : "_ZTIKN4aidl7android8hardware5radio17RadioResponseTypeE",
   "self_type" : "_ZTIRKN4aidl7android8hardware5radio17RadioResponseTypeE",
   "size" : 8,
   "source_file" : "frameworks/native/libs/binder/ndk/include_cpp/android/binder_to_string.h"
  },
  {
   "alignment" : 8,
   "linker_set_key" : "_ZTIRKN4aidl7android8hardware5radio4data10QosSessionE",
   "name" : "const aidl::android::hardware::radio::data::QosSession &",
   "referenced_type" : "_ZTIKN4aidl7android8hardware5radio4data10QosSessionE",
   "self_type" : "_ZTIRKN4aidl7android8hardware5radio4data10QosSessionE",
   "size" : 8,
   "source_file" : "frameworks/native/libs/binder/ndk/include_cpp/android/binder_to_string.h"
  },
  {
   "alignment" : 8,
   "linker_set_key" : "_ZTIRKN4aidl7android8hardware5radio4data11ApnAuthTypeE",
   "name" : "const aidl::android::hardware::radio::data::ApnAuthType &",
   "referenced_type" : "_ZTIKN4aidl7android8hardware5radio4data11ApnAuthTypeE",
   "self_type" : "_ZTIRKN4aidl7android8hardware5radio4data11ApnAuthTypeE",
   "size" : 8,
   "source_file" : "frameworks/native/libs/binder/ndk/include_cpp/android/binder_to_string.h"
  },
  {
   "alignment" : 8,
   "linker_set_key" : "_ZTIRKN4aidl7android8hardware5radio4data11LinkAddressE",
   "name" : "const aidl::android::hardware::radio::data::LinkAddress &",
   "referenced_type" : "_ZTIKN4aidl7android8hardware5radio4data11LinkAddressE",
   "self_type" : "_ZTIRKN4aidl7android8hardware5radio4data11LinkAddressE",
   "size" : 8,
   "source_file" : "frameworks/native/libs/binder/ndk/include_cpp/android/binder_to_string.h"
  },
  {
   "alignment" : 8,
   "linker_set_key" : "_ZTIRKN4aidl7android8hardware5radio4data11PcoDataInfoE",
   "name" : "const aidl::android::hardware::radio::data::PcoDataInfo &",
   "referenced_type" : "_ZTIKN4aidl7android8hardware5radio4data11PcoDataInfoE",
   "self_type" : "_ZTIRKN4aidl7android8hardware5radio4data11PcoDataInfoE",
   "size" : 8,
   "source_file" : "out/soong/.intermediates/hardware/interfaces/radio/aidl/android.hardware.radio.data-V1-ndk-source/gen/include/aidl/android/hardware/radio/data/PcoDataInfo.h"
  },
  {
   "alignment" : 8,
   "linker_set_key" : "_ZTIRKN4aidl7android8hardware5radio4data12QosBandwidthE",
   "name" : "const aidl::android::hardware::radio::data::QosBandwidth &",
   "referenced_type" : "_ZTIKN4aidl7android8hardware5radio4data12QosBandwidthE",
   "self_type" : "_ZTIRKN4aidl7android8hardware5radio4data12QosBandwidthE",
   "size" : 8,
   "source_file" : "frameworks/native/libs/binder/ndk/include_cpp/android/binder_to_string.h"
  },
  {
   "alignment" : 8,
   "linker_set_key" : "_ZTIRKN4aidl7android8hardware5radio4data13SlicingConfigE",
   "name" : "const aidl::android::hardware::radio::data::SlicingConfig &",
   "referenced_type" : "_ZTIKN4aidl7android8hardware5radio4data13SlicingConfigE",
   "self_type" : "_ZTIRKN4aidl7android8hardware5radio4data13SlicingConfigE",
   "size" : 8,
   "source_file" : "out/soong/.intermediates/hardware/interfaces/radio/aidl/android.hardware.radio.data-V1-ndk-source/gen/include/aidl/android/hardware/radio/data/SlicingConfig.h"
  },
  {
   "alignment" : 8,
   "linker_set_key" : "_ZTIRKN4aidl7android8hardware5radio4data15DataProfileInfoE",
   "name" : "const aidl::android::hardware::radio::data::DataProfileInfo &",
   "referenced_type" : "_ZTIKN4aidl7android8hardware5radio4data15DataProfileInfoE",
   "self_type" : "_ZTIRKN4aidl7android8hardware5radio4data15DataProfileInfoE",
   "size" : 8,
   "source_file" : "out/soong/.intermediates/hardware/interfaces/radio/aidl/android.hardware.radio.data-V1-ndk-source/gen/include/aidl/android/hardware/radio/data/DataProfileInfo.h"
  },
  {
   "alignment" : 8,
   "linker_set_key" : "_ZTIRKN4aidl7android8hardware5radio4data15KeepaliveStatusE",
   "name" : "const aidl::android::hardware::radio::data::KeepaliveStatus &",
   "referenced_type" : "_ZTIKN4aidl7android8hardware5radio4data15KeepaliveStatusE",
   "self_type" : "_ZTIRKN4aidl7android8hardware5radio4data15KeepaliveStatusE",
   "size" : 8,
   "source_file" : "out/soong/.intermediates/hardware/interfaces/radio/aidl/android.hardware.radio.data-V1-ndk-source/gen/include/aidl/android/hardware/radio/data/KeepaliveStatus.h"
  },
  {
   "alignment" : 8,
   "linker_set_key" : "_ZTIRKN4aidl7android8hardware5radio4data15PdpProtocolTypeE",
   "name" : "const aidl::android::hardware::radio::data::PdpProtocolType &",
   "referenced_type" : "_ZTIKN4aidl7android8hardware5radio4data15PdpProtocolTypeE",
   "self_type" : "_ZTIRKN4aidl7android8hardware5radio4data15PdpProtocolTypeE",
   "size" : 8,
   "source_file" : "frameworks/native/libs/binder/ndk/include_cpp/android/binder_to_string.h"
  },
  {
   "alignment" : 8,
   "linker_set_key" : "_ZTIRKN4aidl7android8hardware5radio4data16KeepaliveRequestE",
   "name" : "const aidl::android::hardware::radio::data::KeepaliveRequest &",
   "referenced_type" : "_ZTIKN4aidl7android8hardware5radio4data16KeepaliveRequestE",
   "self_type" : "_ZTIRKN4aidl7android8hardware5radio4data16KeepaliveRequestE",
   "size" : 8,
   "source_file" : "out/soong/.intermediates/hardware/interfaces/radio/aidl/android.hardware.radio.data-V1-ndk-source/gen/include/aidl/android/hardware/radio/data/KeepaliveRequest.h"
  },
  {
   "alignment" : 8,
   "linker_set_key" : "_ZTIRKN4aidl7android8hardware5radio4data17DataCallFailCauseE",
   "name" : "const aidl::android::hardware::radio::data::DataCallFailCause &",
   "referenced_type" : "_ZTIKN4aidl7android8hardware5radio4data17DataCallFailCauseE",
   "self_type" : "_ZTIRKN4aidl7android8hardware5radio4data17DataCallFailCauseE",
   "size" : 8,
   "source_file" : "frameworks/native/libs/binder/ndk/include_cpp/android/binder_to_string.h"
  },
  {
   "alignment" : 8,
   "linker_set_key" : "_ZTIRKN4aidl7android8hardware5radio4data17QosFilterIpsecSpiE",
   "name" : "const aidl::android::hardware::radio::data::QosFilterIpsecSpi &",
   "referenced_type" : "_ZTIKN4aidl7android8hardware5radio4data17QosFilterIpsecSpiE",
   "self_type" : "_ZTIRKN4aidl7android8hardware5radio4data17QosFilterIpsecSpiE",
   "size" : 8,
   "source_file" : "frameworks/native/libs/binder/ndk/include_cpp/android/binder_to_string.h"
  },
  {
   "alignment" : 8,
   "linker_set_key" : "_ZTIRKN4aidl7android8hardware5radio4data17TrafficDescriptorE",
   "name" : "const aidl::android::hardware::radio::data::TrafficDescriptor &",
   "referenced_type" : "_ZTIKN4aidl7android8hardware5radio4data17TrafficDescriptorE",
   "self_type" : "_ZTIRKN4aidl7android8hardware5radio4data17TrafficDescriptorE",
   "size" : 8,
   "source_file" : "frameworks/native/libs/binder/ndk/include_cpp/android/binder_to_string.h"
  },
  {
   "alignment" : 8,
   "linker_set_key" : "_ZTIRKN4aidl7android8hardware5radio4data19SetupDataCallResultE",
   "name" : "const aidl::android::hardware::radio::data::SetupDataCallResult &",
   "referenced_type" : "_ZTIKN4aidl7android8hardware5radio4data19SetupDataCallResultE",
   "self_type" : "_ZTIRKN4aidl7android8hardware5radio4data19SetupDataCallResultE",
   "size" : 8,
   "source_file" : "out/soong/.intermediates/hardware/interfaces/radio/aidl/android.hardware.radio.data-V1-ndk-source/gen/include/aidl/android/hardware/radio/data/SetupDataCallResult.h"
  },
  {
   "alignment" : 8,
   "linker_set_key" : "_ZTIRKN4aidl7android8hardware5radio4data22QosFilterIpv6FlowLabelE",
   "name" : "const aidl::android::hardware::radio::data::QosFilterIpv6FlowLabel &",
   "referenced_type" : "_ZTIKN4aidl7android8hardware5radio4data22QosFilterIpv6FlowLabelE",
   "self_type" : "_ZTIRKN4aidl7android8hardware5radio4data22QosFilterIpv6FlowLabelE",
   "size" : 8,
   "source_file" : "frameworks/native/libs/binder/ndk/include_cpp/android/binder_to_string.h"
  },
  {
   "alignment" : 8,
   "linker_set_key" : "_ZTIRKN4aidl7android8hardware5radio4data22QosFilterTypeOfServiceE",
   "name" : "const aidl::android::hardware::radio::data::QosFilterTypeOfService &",
   "referenced_type" : "_ZTIKN4aidl7android8hardware5radio4data22QosFilterTypeOfServiceE",
   "self_type" : "_ZTIRKN4aidl7android8hardware5radio4data22QosFilterTypeOfServiceE",
   "size" : 8,
   "source_file" : "frameworks/native/libs/binder/ndk/include_cpp/android/binder_to_string.h"
  },
  {
   "alignment" : 8,
   "linker_set_key" : "_ZTIRKN4aidl7android8hardware5radio4data24RouteSelectionDescriptorE",
   "name" : "const aidl::android::hardware::radio::data::RouteSelectionDescriptor &",
   "referenced_type" : "_ZTIKN4aidl7android8hardware5radio4data24RouteSelectionDescriptorE",
   "self_type" : "_ZTIRKN4aidl7android8hardware5radio4data24RouteSelectionDescriptorE",
   "size" : 8,
   "source_file" : "frameworks/native/libs/binder/ndk/include_cpp/android/binder_to_string.h"
  },
  {
   "alignment" : 8,
   "linker_set_key" : "_ZTIRKN4aidl7android8hardware5radio4data3QosE",
   "name" : "const aidl::android::hardware::radio::data::Qos &",
   "referenced_type" : "_ZTIKN4aidl7android8hardware5radio4data3QosE",
   "self_type" : "_ZTIRKN4aidl7android8hardware5radio4data3QosE",
   "size" : 8,
   "source_file" : "frameworks/native/libs/binder/ndk/include_cpp/android/binder_to_string.h"
  },
  {
   "alignment" : 8,
   "linker_set_key" : "_ZTIRKN4aidl7android8hardware5radio4data5NrQosE",
   "name" : "const aidl::android::hardware::radio::data::NrQos &",
   "referenced_type" : "_ZTIKN4aidl7android8hardware5radio4data5NrQosE",
   "self_type" : "_ZTIRKN4aidl7android8hardware5radio4data5NrQosE",
   "size" : 8,
   "source_file" : "frameworks/native/libs/binder/ndk/include_cpp/android/binder_to_string.h"
  },
  {
   "alignment" : 8,
   "linker_set_key" : "_ZTIRKN4aidl7android8hardware5radio4data6EpsQosE",
   "name" : "const aidl::android::hardware::radio::data::EpsQos &",
   "referenced_type" : "_ZTIKN4aidl7android8hardware5radio4data6EpsQosE",
   "self_type" : "_ZTIRKN4aidl7android8hardware5radio4data6EpsQosE",
   "size" : 8,
   "source_file" : "out/soong/.intermediates/hardware/interfaces/radio/aidl/android.hardware.radio.data-V1-ndk-source/gen/include/aidl/android/hardware/radio/data/EpsQos.h"
  },
  {
   "alignment" : 8,
   "linker_set_key" : "_ZTIRKN4aidl7android8hardware5radio4data7OsAppIdE",
   "name" : "const aidl::android::hardware::radio::data::OsAppId &",
   "referenced_type" : "_ZTIKN4aidl7android8hardware5radio4data7OsAppIdE",
   "self_type" : "_ZTIRKN4aidl7android8hardware5radio4data7OsAppIdE",
   "size" : 8,
   "source_file" : "frameworks/native/libs/binder/ndk/include_cpp/android/binder_to_string.h"
  },
  {
   "alignment" : 8,
   "linker_set_key" : "_ZTIRKN4aidl7android8hardware5radio4data8UrspRuleE",
   "name" : "const aidl::android::hardware::radio::data::UrspRule &",
   "referenced_type" : "_ZTIKN4aidl7android8hardware5radio4data8UrspRuleE",
   "self_type" : "_ZTIRKN4aidl7android8hardware5radio4data8UrspRuleE",
   "size" : 8,
   "source_file" : "frameworks/native/libs/binder/ndk/include_cpp/android/binder_to_string.h"
  },
  {
   "alignment" : 8,
   "linker_set_key" : "_ZTIRKN4aidl7android8hardware5radio4data9PortRangeE",
   "name" : "const aidl::android::hardware::radio::data::PortRange &",
   "referenced_type" : "_ZTIKN4aidl7android8hardware5radio4data9PortRangeE",
   "self_type" : "_ZTIRKN4aidl7android8hardware5radio4data9PortRangeE",
   "size" : 8,
   "source_file" : "frameworks/native/libs/binder/ndk/include_cpp/android/binder_to_string.h"
  },
  {
   "alignment" : 8,
   "linker_set_key" : "_ZTIRKN4aidl7android8hardware5radio4data9QosFilterE",
   "name" : "const aidl::android::hardware::radio::data::QosFilter &",
   "referenced_type" : "_ZTIKN4aidl7android8hardware5radio4data9QosFilterE",
   "self_type" : "_ZTIRKN4aidl7android8hardware5radio4data9QosFilterE",
   "size" : 8,
   "source_file" : "frameworks/native/libs/binder/ndk/include_cpp/android/binder_to_string.h"
  },
  {
   "alignment" : 8,
   "linker_set_key" : "_ZTIRKN4aidl7android8hardware5radio4data9SliceInfoE",
   "name" : "const aidl::android::hardware::radio::data::SliceInfo &",
   "referenced_type" : "_ZTIKN4aidl7android8hardware5radio4data9SliceInfoE",
   "self_type" : "_ZTIRKN4aidl7android8hardware5radio4data9SliceInfoE",
   "size" : 8,
   "source_file" : "frameworks/native/libs/binder/ndk/include_cpp/android/binder_to_string.h"
  },
  {
   "alignment" : 8,
   "linker_set_key" : "_ZTIRKNSt3__110shared_ptrIN4aidl7android8hardware5radio4data10IRadioDataEEE",
   "name" : "const std::shared_ptr<aidl::android::hardware::radio::data::IRadioData> &",
   "referenced_type" : "_ZTIKNSt3__110shared_ptrIN4aidl7android8hardware5radio4data10IRadioDataEEE",
   "self_type" : "_ZTIRKNSt3__110shared_ptrIN4aidl7android8hardware5radio4data10IRadioDataEEE",
   "size" : 8,
   "source_file" : "out/soong/.intermediates/hardware/interfaces/radio/aidl/android.hardware.radio.data-V1-ndk-source/gen/include/aidl/android/hardware/radio/data/IRadioData.h"
  },
  {
   "alignment" : 8,
   "linker_set_key" : "_ZTIRKNSt3__110shared_ptrIN4aidl7android8hardware5radio4data18IRadioDataResponseEEE",
   "name" : "const std::shared_ptr<aidl::android::hardware::radio::data::IRadioDataResponse> &",
   "referenced_type" : "_ZTIKNSt3__110shared_ptrIN4aidl7android8hardware5radio4data18IRadioDataResponseEEE",
   "self_type" : "_ZTIRKNSt3__110shared_ptrIN4aidl7android8hardware5radio4data18IRadioDataResponseEEE",
   "size" : 8,
   "source_file" : "out/soong/.intermediates/hardware/interfaces/radio/aidl/android.hardware.radio.data-V1-ndk-source/gen/include/aidl/android/hardware/radio/data/IRadioData.h"
  },
  {
   "alignment" : 8,
   "linker_set_key" : "_ZTIRKNSt3__110shared_ptrIN4aidl7android8hardware5radio4data20IRadioDataIndicationEEE",
   "name" : "const std::shared_ptr<aidl::android::hardware::radio::data::IRadioDataIndication> &",
   "referenced_type" : "_ZTIKNSt3__110shared_ptrIN4aidl7android8hardware5radio4data20IRadioDataIndicationEEE",
   "self_type" : "_ZTIRKNSt3__110shared_ptrIN4aidl7android8hardware5radio4data20IRadioDataIndicationEEE",
   "size" : 8,
   "source_file" : "out/soong/.intermediates/hardware/interfaces/radio/aidl/android.hardware.radio.data-V1-ndk-source/gen/include/aidl/android/hardware/radio/data/IRadioData.h"
  },
  {
   "alignment" : 8,
   "linker_set_key" : "_ZTIRKNSt3__112basic_stringIcNS_11char_traitsIcEENS_9allocatorIcEEEE",
   "name" : "const std::basic_string<char, std::char_traits<char>, std::allocator<char>> &",
   "referenced_type" : "_ZTIKNSt3__112basic_stringIcNS_11char_traitsIcEENS_9allocatorIcEEEE",
   "self_type" : "_ZTIRKNSt3__112basic_stringIcNS_11char_traitsIcEENS_9allocatorIcEEEE",
   "size" : 8,
   "source_file" : "frameworks/native/libs/binder/ndk/include_cpp/android/binder_to_string.h"
  },
  {
   "alignment" : 8,
   "linker_set_key" : "_ZTIRKNSt3__16vectorIDsNS_9allocatorIDsEEEE",
   "name" : "const std::vector<char16_t, std::allocator<char16_t>> &",
   "referenced_type" : "_ZTIKNSt3__16vectorIDsNS_9allocatorIDsEEEE",
   "self_type" : "_ZTIRKNSt3__16vectorIDsNS_9allocatorIDsEEEE",
   "size" : 8,
   "source_file" : "frameworks/native/libs/binder/ndk/include_cpp/android/binder_parcel_utils.h"
  },
  {
   "alignment" : 8,
   "linker_set_key" : "_ZTIRKNSt3__16vectorIN4aidl7android8hardware5radio4data10QosSessionENS_9allocatorIS6_EEEE",
   "name" : "const std::vector<aidl::android::hardware::radio::data::QosSession, std::allocator<aidl::android::hardware::radio::data::QosSession>> &",
   "referenced_type" : "_ZTIKNSt3__16vectorIN4aidl7android8hardware5radio4data10QosSessionENS_9allocatorIS6_EEEE",
   "self_type" : "_ZTIRKNSt3__16vectorIN4aidl7android8hardware5radio4data10QosSessionENS_9allocatorIS6_EEEE",
   "size" : 8,
   "source_file" : "frameworks/native/libs/binder/ndk/include_cpp/android/binder_to_string.h"
  },
  {
   "alignment" : 8,
   "linker_set_key" : "_ZTIRKNSt3__16vectorIN4aidl7android8hardware5radio4data11LinkAddressENS_9allocatorIS6_EEEE",
   "name" : "const std::vector<aidl::android::hardware::radio::data::LinkAddress, std::allocator<aidl::android::hardware::radio::data::LinkAddress>> &",
   "referenced_type" : "_ZTIKNSt3__16vectorIN4aidl7android8hardware5radio4data11LinkAddressENS_9allocatorIS6_EEEE",
   "self_type" : "_ZTIRKNSt3__16vectorIN4aidl7android8hardware5radio4data11LinkAddressENS_9allocatorIS6_EEEE",
   "size" : 8,
   "source_file" : "frameworks/native/libs/binder/ndk/include_cpp/android/binder_to_string.h"
  },
  {
   "alignment" : 8,
   "linker_set_key" : "_ZTIRKNSt3__16vectorIN4aidl7android8hardware5radio4data15DataProfileInfoENS_9allocatorIS6_EEEE",
   "name" : "const std::vector<aidl::android::hardware::radio::data::DataProfileInfo, std::allocator<aidl::android::hardware::radio::data::DataProfileInfo>> &",
   "referenced_type" : "_ZTIKNSt3__16vectorIN4aidl7android8hardware5radio4data15DataProfileInfoENS_9allocatorIS6_EEEE",
   "self_type" : "_ZTIRKNSt3__16vectorIN4aidl7android8hardware5radio4data15DataProfileInfoENS_9allocatorIS6_EEEE",
   "size" : 8,
   "source_file" : "out/soong/.intermediates/hardware/interfaces/radio/aidl/android.hardware.radio.data-V1-ndk-source/gen/include/aidl/android/hardware/radio/data/IRadioData.h"
  },
  {
   "alignment" : 8,
   "linker_set_key" : "_ZTIRKNSt3__16vectorIN4aidl7android8hardware5radio4data17TrafficDescriptorENS_9allocatorIS6_EEEE",
   "name" : "const std::vector<aidl::android::hardware::radio::data::TrafficDescriptor, std::allocator<aidl::android::hardware::radio::data::TrafficDescriptor>> &",
   "referenced_type" : "_ZTIKNSt3__16vectorIN4aidl7android8hardware5radio4data17TrafficDescriptorENS_9allocatorIS6_EEEE",
   "self_type" : "_ZTIRKNSt3__16vectorIN4aidl7android8hardware5radio4data17TrafficDescriptorENS_9allocatorIS6_EEEE",
   "size" : 8,
   "source_file" : "frameworks/native/libs/binder/ndk/include_cpp/android/binder_to_string.h"
  },
  {
   "alignment" : 8,
   "linker_set_key" : "_ZTIRKNSt3__16vectorIN4aidl7android8hardware5radio4data19SetupDataCallResultENS_9allocatorIS6_EEEE",
   "name" : "const std::vector<aidl::android::hardware::radio::data::SetupDataCallResult, std::allocator<aidl::android::hardware::radio::data::SetupDataCallResult>> &",
   "referenced_type" : "_ZTIKNSt3__16vectorIN4aidl7android8hardware5radio4data19SetupDataCallResultENS_9allocatorIS6_EEEE",
   "self_type" : "_ZTIRKNSt3__16vectorIN4aidl7android8hardware5radio4data19SetupDataCallResultENS_9allocatorIS6_EEEE",
   "size" : 8,
   "source_file" : "out/soong/.intermediates/hardware/interfaces/radio/aidl/android.hardware.radio.data-V1-ndk-source/gen/include/aidl/android/hardware/radio/data/BnRadioDataIndication.h"
  },
  {
   "alignment" : 8,
   "linker_set_key" : "_ZTIRKNSt3__16vectorIN4aidl7android8hardware5radio4data24RouteSelectionDescriptorENS_9allocatorIS6_EEEE",
   "name" : "const std::vector<aidl::android::hardware::radio::data::RouteSelectionDescriptor, std::allocator<aidl::android::hardware::radio::data::RouteSelectionDescriptor>> &",
   "referenced_type" : "_ZTIKNSt3__16vectorIN4aidl7android8hardware5radio4data24RouteSelectionDescriptorENS_9allocatorIS6_EEEE",
   "self_type" : "_ZTIRKNSt3__16vectorIN4aidl7android8hardware5radio4data24RouteSelectionDescriptorENS_9allocatorIS6_EEEE",
   "size" : 8,
   "source_file" : "frameworks/native/libs/binder/ndk/include_cpp/android/binder_to_string.h"
  },
  {
   "alignment" : 8,
   "linker_set_key" : "_ZTIRKNSt3__16vectorIN4aidl7android8hardware5radio4data8UrspRuleENS_9allocatorIS6_EEEE",
   "name" : "const std::vector<aidl::android::hardware::radio::data::UrspRule, std::allocator<aidl::android::hardware::radio::data::UrspRule>> &",
   "referenced_type" : "_ZTIKNSt3__16vectorIN4aidl7android8hardware5radio4data8UrspRuleENS_9allocatorIS6_EEEE",
   "self_type" : "_ZTIRKNSt3__16vectorIN4aidl7android8hardware5radio4data8UrspRuleENS_9allocatorIS6_EEEE",
   "size" : 8,
   "source_file" : "frameworks/native/libs/binder/ndk/include_cpp/android/binder_to_string.h"
  },
  {
   "alignment" : 8,
   "linker_set_key" : "_ZTIRKNSt3__16vectorIN4aidl7android8hardware5radio4data9QosFilterENS_9allocatorIS6_EEEE",
   "name" : "const std::vector<aidl::android::hardware::radio::data::QosFilter, std::allocator<aidl::android::hardware::radio::data::QosFilter>> &",
   "referenced_type" : "_ZTIKNSt3__16vectorIN4aidl7android8hardware5radio4data9QosFilterENS_9allocatorIS6_EEEE",
   "self_type" : "_ZTIRKNSt3__16vectorIN4aidl7android8hardware5radio4data9QosFilterENS_9allocatorIS6_EEEE",
   "size" : 8,
   "source_file" : "frameworks/native/libs/binder/ndk/include_cpp/android/binder_to_string.h"
  },
  {
   "alignment" : 8,
   "linker_set_key" : "_ZTIRKNSt3__16vectorIN4aidl7android8hardware5radio4data9SliceInfoENS_9allocatorIS6_EEEE",
   "name" : "const std::vector<aidl::android::hardware::radio::data::SliceInfo, std::allocator<aidl::android::hardware::radio::data::SliceInfo>> &",
   "referenced_type" : "_ZTIKNSt3__16vectorIN4aidl7android8hardware5radio4data9SliceInfoENS_9allocatorIS6_EEEE",
   "self_type" : "_ZTIRKNSt3__16vectorIN4aidl7android8hardware5radio4data9SliceInfoENS_9allocatorIS6_EEEE",
   "size" : 8,
   "source_file" : "frameworks/native/libs/binder/ndk/include_cpp/android/binder_to_string.h"
  },
  {
   "alignment" : 8,
   "linker_set_key" : "_ZTIRKNSt3__16vectorINS_12basic_stringIcNS_11char_traitsIcEENS_9allocatorIcEEEENS4_IS6_EEEE",
   "name" : "const std::vector<std::basic_string<char, std::char_traits<char>, std::allocator<char>>, std::allocator<std::basic_string<char, std::char_traits<char>, std::allocator<char>>>> &",
   "referenced_type" : "_ZTIKNSt3__16vectorINS_12basic_stringIcNS_11char_traitsIcEENS_9allocatorIcEEEENS4_IS6_EEEE",
   "self_type" : "_ZTIRKNSt3__16vectorINS_12basic_stringIcNS_11char_traitsIcEENS_9allocatorIcEEEENS4_IS6_EEEE",
   "size" : 8,
   "source_file" : "frameworks/native/libs/binder/ndk/include_cpp/android/binder_to_string.h"
  },
  {
   "alignment" : 8,
   "linker_set_key" : "_ZTIRKNSt3__16vectorIbNS_9allocatorIbEEEE",
   "name" : "const std::vector<bool, std::allocator<bool>> &",
   "referenced_type" : "_ZTIKNSt3__16vectorIbNS_9allocatorIbEEEE",
   "self_type" : "_ZTIRKNSt3__16vectorIbNS_9allocatorIbEEEE",
   "size" : 8,
   "source_file" : "frameworks/native/libs/binder/ndk/include_cpp/android/binder_parcel_utils.h"
  },
  {
   "alignment" : 8,
   "linker_set_key" : "_ZTIRKNSt3__16vectorIdNS_9allocatorIdEEEE",
   "name" : "const std::vector<double, std::allocator<double>> &",
   "referenced_type" : "_ZTIKNSt3__16vectorIdNS_9allocatorIdEEEE",
   "self_type" : "_ZTIRKNSt3__16vectorIdNS_9allocatorIdEEEE",
   "size" : 8,
   "source_file" : "frameworks/native/libs/binder/ndk/include_cpp/android/binder_parcel_utils.h"
  },
  {
   "alignment" : 8,
   "linker_set_key" : "_ZTIRKNSt3__16vectorIfNS_9allocatorIfEEEE",
   "name" : "const std::vector<float, std::allocator<float>> &",
   "referenced_type" : "_ZTIKNSt3__16vectorIfNS_9allocatorIfEEEE",
   "self_type" : "_ZTIRKNSt3__16vectorIfNS_9allocatorIfEEEE",
   "size" : 8,
   "source_file" : "frameworks/native/libs/binder/ndk/include_cpp/android/binder_parcel_utils.h"
  },
  {
   "alignment" : 8,
   "linker_set_key" : "_ZTIRKNSt3__16vectorIhNS_9allocatorIhEEEE",
   "name" : "const std::vector<unsigned char, std::allocator<unsigned char>> &",
   "referenced_type" : "_ZTIKNSt3__16vectorIhNS_9allocatorIhEEEE",
   "self_type" : "_ZTIRKNSt3__16vectorIhNS_9allocatorIhEEEE",
   "size" : 8,
   "source_file" : "frameworks/native/libs/binder/ndk/include_cpp/android/binder_parcel_utils.h"
  },
  {
   "alignment" : 8,
   "linker_set_key" : "_ZTIRKNSt3__16vectorIiNS_9allocatorIiEEEE",
   "name" : "const std::vector<int, std::allocator<int>> &",
   "referenced_type" : "_ZTIKNSt3__16vectorIiNS_9allocatorIiEEEE",
   "self_type" : "_ZTIRKNSt3__16vectorIiNS_9allocatorIiEEEE",
   "size" : 8,
   "source_file" : "frameworks/native/libs/binder/ndk/include_cpp/android/binder_parcel_utils.h"
  },
  {
   "alignment" : 8,
   "linker_set_key" : "_ZTIRKNSt3__16vectorIjNS_9allocatorIjEEEE",
   "name" : "const std::vector<unsigned int, std::allocator<unsigned int>> &",
   "referenced_type" : "_ZTIKNSt3__16vectorIjNS_9allocatorIjEEEE",
   "self_type" : "_ZTIRKNSt3__16vectorIjNS_9allocatorIjEEEE",
   "size" : 8,
   "source_file" : "frameworks/native/libs/binder/ndk/include_cpp/android/binder_parcel_utils.h"
  },
  {
   "alignment" : 8,
   "linker_set_key" : "_ZTIRKNSt3__16vectorIlNS_9allocatorIlEEEE",
   "name" : "const std::vector<long, std::allocator<long>> &",
   "referenced_type" : "_ZTIKNSt3__16vectorIlNS_9allocatorIlEEEE",
   "self_type" : "_ZTIRKNSt3__16vectorIlNS_9allocatorIlEEEE",
   "size" : 8,
   "source_file" : "frameworks/native/libs/binder/ndk/include_cpp/android/binder_parcel_utils.h"
  },
  {
   "alignment" : 8,
   "linker_set_key" : "_ZTIRKNSt3__16vectorImNS_9allocatorImEEEE",
   "name" : "const std::vector<unsigned long, std::allocator<unsigned long>> &",
   "referenced_type" : "_ZTIKNSt3__16vectorImNS_9allocatorImEEEE",
   "self_type" : "_ZTIRKNSt3__16vectorImNS_9allocatorImEEEE",
   "size" : 8,
   "source_file" : "frameworks/native/libs/binder/ndk/include_cpp/android/binder_parcel_utils.h"
  },
  {
   "alignment" : 8,
   "linker_set_key" : "_ZTIRKNSt3__18optionalIN4aidl7android8hardware5radio4data15DataProfileInfoEEE",
   "name" : "const std::optional<aidl::android::hardware::radio::data::DataProfileInfo> &",
   "referenced_type" : "_ZTIKNSt3__18optionalIN4aidl7android8hardware5radio4data15DataProfileInfoEEE",
   "self_type" : "_ZTIRKNSt3__18optionalIN4aidl7android8hardware5radio4data15DataProfileInfoEEE",
   "size" : 8,
   "source_file" : "out/soong/.intermediates/hardware/interfaces/radio/aidl/android.hardware.radio.data-V1-ndk-source/gen/include/aidl/android/hardware/radio/data/IRadioData.h"
  },
  {
   "alignment" : 8,
   "linker_set_key" : "_ZTIRKNSt3__18optionalIN4aidl7android8hardware5radio4data7OsAppIdEEE",
   "name" : "const std::optional<aidl::android::hardware::radio::data::OsAppId> &",
   "referenced_type" : "_ZTIKNSt3__18optionalIN4aidl7android8hardware5radio4data7OsAppIdEEE",
   "self_type" : "_ZTIRKNSt3__18optionalIN4aidl7android8hardware5radio4data7OsAppIdEEE",
   "size" : 8,
   "source_file" : "frameworks/native/libs/binder/ndk/include_cpp/android/binder_to_string.h"
  },
  {
   "alignment" : 8,
   "linker_set_key" : "_ZTIRKNSt3__18optionalIN4aidl7android8hardware5radio4data9PortRangeEEE",
   "name" : "const std::optional<aidl::android::hardware::radio::data::PortRange> &",
   "referenced_type" : "_ZTIKNSt3__18optionalIN4aidl7android8hardware5radio4data9PortRangeEEE",
   "self_type" : "_ZTIRKNSt3__18optionalIN4aidl7android8hardware5radio4data9PortRangeEEE",
   "size" : 8,
   "source_file" : "frameworks/native/libs/binder/ndk/include_cpp/android/binder_to_string.h"
  },
  {
   "alignment" : 8,
   "linker_set_key" : "_ZTIRKNSt3__18optionalIN4aidl7android8hardware5radio4data9SliceInfoEEE",
   "name" : "const std::optional<aidl::android::hardware::radio::data::SliceInfo> &",
   "referenced_type" : "_ZTIKNSt3__18optionalIN4aidl7android8hardware5radio4data9SliceInfoEEE",
   "self_type" : "_ZTIRKNSt3__18optionalIN4aidl7android8hardware5radio4data9SliceInfoEEE",
   "size" : 8,
   "source_file" : "frameworks/native/libs/binder/ndk/include_cpp/android/binder_to_string.h"
  },
  {
   "alignment" : 8,
   "linker_set_key" : "_ZTIRKNSt3__18optionalINS_12basic_stringIcNS_11char_traitsIcEENS_9allocatorIcEEEEEE",
   "name" : "const std::optional<std::basic_string<char, std::char_traits<char>, std::allocator<char>>> &",
   "referenced_type" : "_ZTIKNSt3__18optionalINS_12basic_stringIcNS_11char_traitsIcEENS_9allocatorIcEEEEEE",
   "self_type" : "_ZTIRKNSt3__18optionalINS_12basic_stringIcNS_11char_traitsIcEENS_9allocatorIcEEEEEE",
   "size" : 8,
   "source_file" : "frameworks/native/libs/binder/ndk/include_cpp/android/binder_to_string.h"
  },
  {
   "alignment" : 8,
   "linker_set_key" : "_ZTIRKNSt3__18optionalINS_6vectorIDsNS_9allocatorIDsEEEEEE",
   "name" : "const std::optional<std::vector<char16_t, std::allocator<char16_t>>> &",
   "referenced_type" : "_ZTIKNSt3__18optionalINS_6vectorIDsNS_9allocatorIDsEEEEEE",
   "self_type" : "_ZTIRKNSt3__18optionalINS_6vectorIDsNS_9allocatorIDsEEEEEE",
   "size" : 8,
   "source_file" : "frameworks/native/libs/binder/ndk/include_cpp/android/binder_parcel_utils.h"
  },
  {
   "alignment" : 8,
   "linker_set_key" : "_ZTIRKNSt3__18optionalINS_6vectorIbNS_9allocatorIbEEEEEE",
   "name" : "const std::optional<std::vector<bool, std::allocator<bool>>> &",
   "referenced_type" : "_ZTIKNSt3__18optionalINS_6vectorIbNS_9allocatorIbEEEEEE",
   "self_type" : "_ZTIRKNSt3__18optionalINS_6vectorIbNS_9allocatorIbEEEEEE",
   "size" : 8,
   "source_file" : "frameworks/native/libs/binder/ndk/include_cpp/android/binder_parcel_utils.h"
  },
  {
   "alignment" : 8,
   "linker_set_key" : "_ZTIRKNSt3__18optionalINS_6vectorIdNS_9allocatorIdEEEEEE",
   "name" : "const std::optional<std::vector<double, std::allocator<double>>> &",
   "referenced_type" : "_ZTIKNSt3__18optionalINS_6vectorIdNS_9allocatorIdEEEEEE",
   "self_type" : "_ZTIRKNSt3__18optionalINS_6vectorIdNS_9allocatorIdEEEEEE",
   "size" : 8,
   "source_file" : "frameworks/native/libs/binder/ndk/include_cpp/android/binder_parcel_utils.h"
  },
  {
   "alignment" : 8,
   "linker_set_key" : "_ZTIRKNSt3__18optionalINS_6vectorIfNS_9allocatorIfEEEEEE",
   "name" : "const std::optional<std::vector<float, std::allocator<float>>> &",
   "referenced_type" : "_ZTIKNSt3__18optionalINS_6vectorIfNS_9allocatorIfEEEEEE",
   "self_type" : "_ZTIRKNSt3__18optionalINS_6vectorIfNS_9allocatorIfEEEEEE",
   "size" : 8,
   "source_file" : "frameworks/native/libs/binder/ndk/include_cpp/android/binder_parcel_utils.h"
  },
  {
   "alignment" : 8,
   "linker_set_key" : "_ZTIRKNSt3__18optionalINS_6vectorIhNS_9allocatorIhEEEEEE",
   "name" : "const std::optional<std::vector<unsigned char, std::allocator<unsigned char>>> &",
   "referenced_type" : "_ZTIKNSt3__18optionalINS_6vectorIhNS_9allocatorIhEEEEEE",
   "self_type" : "_ZTIRKNSt3__18optionalINS_6vectorIhNS_9allocatorIhEEEEEE",
   "size" : 8,
   "source_file" : "frameworks/native/libs/binder/ndk/include_cpp/android/binder_parcel_utils.h"
  },
  {
   "alignment" : 8,
   "linker_set_key" : "_ZTIRKNSt3__18optionalINS_6vectorIiNS_9allocatorIiEEEEEE",
   "name" : "const std::optional<std::vector<int, std::allocator<int>>> &",
   "referenced_type" : "_ZTIKNSt3__18optionalINS_6vectorIiNS_9allocatorIiEEEEEE",
   "self_type" : "_ZTIRKNSt3__18optionalINS_6vectorIiNS_9allocatorIiEEEEEE",
   "size" : 8,
   "source_file" : "frameworks/native/libs/binder/ndk/include_cpp/android/binder_parcel_utils.h"
  },
  {
   "alignment" : 8,
   "linker_set_key" : "_ZTIRKNSt3__18optionalINS_6vectorIjNS_9allocatorIjEEEEEE",
   "name" : "const std::optional<std::vector<unsigned int, std::allocator<unsigned int>>> &",
   "referenced_type" : "_ZTIKNSt3__18optionalINS_6vectorIjNS_9allocatorIjEEEEEE",
   "self_type" : "_ZTIRKNSt3__18optionalINS_6vectorIjNS_9allocatorIjEEEEEE",
   "size" : 8,
   "source_file" : "frameworks/native/libs/binder/ndk/include_cpp/android/binder_parcel_utils.h"
  },
  {
   "alignment" : 8,
   "linker_set_key" : "_ZTIRKNSt3__18optionalINS_6vectorIlNS_9allocatorIlEEEEEE",
   "name" : "const std::optional<std::vector<long, std::allocator<long>>> &",
   "referenced_type" : "_ZTIKNSt3__18optionalINS_6vectorIlNS_9allocatorIlEEEEEE",
   "self_type" : "_ZTIRKNSt3__18optionalINS_6vectorIlNS_9allocatorIlEEEEEE",
   "size" : 8,
   "source_file" : "frameworks/native/libs/binder/ndk/include_cpp/android/binder_parcel_utils.h"
  },
  {
   "alignment" : 8,
   "linker_set_key" : "_ZTIRKNSt3__18optionalINS_6vectorImNS_9allocatorImEEEEEE",
   "name" : "const std::optional<std::vector<unsigned long, std::allocator<unsigned long>>> &",
   "referenced_type" : "_ZTIKNSt3__18optionalINS_6vectorImNS_9allocatorImEEEEEE",
   "self_type" : "_ZTIRKNSt3__18optionalINS_6vectorImNS_9allocatorImEEEEEE",
   "size" : 8,
   "source_file" : "frameworks/native/libs/binder/ndk/include_cpp/android/binder_parcel_utils.h"
  },
  {
   "alignment" : 8,
   "linker_set_key" : "_ZTIRKa",
   "name" : "const signed char &",
   "referenced_type" : "_ZTIKa",
   "self_type" : "_ZTIRKa",
   "size" : 8,
   "source_file" : "frameworks/native/libs/binder/ndk/include_cpp/android/binder_to_string.h"
  },
  {
   "alignment" : 8,
   "linker_set_key" : "_ZTIRKb",
   "name" : "const bool &",
   "referenced_type" : "_ZTIKb",
   "self_type" : "_ZTIRKb",
   "size" : 8,
   "source_file" : "frameworks/native/libs/binder/ndk/include_cpp/android/binder_to_string.h"
  },
  {
   "alignment" : 8,
   "linker_set_key" : "_ZTIRKh",
   "name" : "const unsigned char &",
   "referenced_type" : "_ZTIKh",
   "self_type" : "_ZTIRKh",
   "size" : 8,
   "source_file" : "frameworks/native/libs/binder/ndk/include_cpp/android/binder_to_string.h"
  },
  {
   "alignment" : 8,
   "linker_set_key" : "_ZTIRKi",
   "name" : "const int &",
   "referenced_type" : "_ZTIKi",
   "self_type" : "_ZTIRKi",
   "size" : 8,
   "source_file" : "frameworks/native/libs/binder/ndk/include_cpp/android/binder_to_string.h"
  },
  {
   "alignment" : 8,
   "linker_set_key" : "_ZTIRKl",
   "name" : "const long &",
   "referenced_type" : "_ZTIKl",
   "self_type" : "_ZTIRKl",
   "size" : 8,
   "source_file" : "frameworks/native/libs/binder/ndk/include_cpp/android/binder_to_string.h"
  },
  {
   "alignment" : 8,
   "linker_set_key" : "_ZTIRN3ndk10SpAIBinderE",
   "name" : "ndk::SpAIBinder &",
   "referenced_type" : "_ZTIN3ndk10SpAIBinderE",
   "self_type" : "_ZTIRN3ndk10SpAIBinderE",
   "size" : 8,
   "source_file" : "frameworks/native/libs/binder/ndk/include_cpp/android/binder_auto_utils.h"
  },
  {
   "alignment" : 8,
   "linker_set_key" : "_ZTIRN3ndk13ScopedAParcelE",
   "name" : "ndk::ScopedAParcel &",
   "referenced_type" : "_ZTIN3ndk13ScopedAParcelE",
   "self_type" : "_ZTIRN3ndk13ScopedAParcelE",
   "size" : 8,
   "source_file" : "frameworks/native/libs/binder/ndk/include_cpp/android/binder_auto_utils.h"
  },
  {
   "alignment" : 8,
   "linker_set_key" : "_ZTIRN3ndk13ScopedAStatusE",
   "name" : "ndk::ScopedAStatus &",
   "referenced_type" : "_ZTIN3ndk13ScopedAStatusE",
   "self_type" : "_ZTIRN3ndk13ScopedAStatusE",
   "size" : 8,
   "source_file" : "frameworks/native/libs/binder/ndk/include_cpp/android/binder_auto_utils.h"
  },
  {
   "alignment" : 8,
   "linker_set_key" : "_ZTIRN3ndk19ScopedAIBinder_WeakE",
   "name" : "ndk::ScopedAIBinder_Weak &",
   "referenced_type" : "_ZTIN3ndk19ScopedAIBinder_WeakE",
   "self_type" : "_ZTIRN3ndk19ScopedAIBinder_WeakE",
   "size" : 8,
   "source_file" : "frameworks/native/libs/binder/ndk/include_cpp/android/binder_auto_utils.h"
  },
  {
   "alignment" : 8,
   "linker_set_key" : "_ZTIRN3ndk20ScopedFileDescriptorE",
   "name" : "ndk::ScopedFileDescriptor &",
   "referenced_type" : "_ZTIN3ndk20ScopedFileDescriptorE",
   "self_type" : "_ZTIRN3ndk20ScopedFileDescriptorE",
   "size" : 8,
   "source_file" : "frameworks/native/libs/binder/ndk/include_cpp/android/binder_auto_utils.h"
  },
  {
   "alignment" : 8,
   "linker_set_key" : "_ZTIRN3ndk29ScopedAIBinder_DeathRecipientE",
   "name" : "ndk::ScopedAIBinder_DeathRecipient &",
   "referenced_type" : "_ZTIN3ndk29ScopedAIBinder_DeathRecipientE",
   "self_type" : "_ZTIRN3ndk29ScopedAIBinder_DeathRecipientE",
   "size" : 8,
   "source_file" : "frameworks/native/libs/binder/ndk/include_cpp/android/binder_auto_utils.h"
  },
  {
   "alignment" : 8,
   "linker_set_key" : "_ZTIRN3ndk4impl15ScopedAResourceIP7AStatusXadL_Z14AStatus_deleteEELS3_0EEE",
   "name" : "ndk::impl::ScopedAResource<AStatus *, &AStatus_delete, nullptr> &",
   "referenced_type" : "_ZTIN3ndk4impl15ScopedAResourceIP7AStatusXadL_Z14AStatus_deleteEELS3_0EEE",
   "self_type" : "_ZTIRN3ndk4impl15ScopedAResourceIP7AStatusXadL_Z14AStatus_deleteEELS3_0EEE",
   "size" : 8,
   "source_file" : "frameworks/native/libs/binder/ndk/include_cpp/android/binder_auto_utils.h"
  },
  {
   "alignment" : 8,
   "linker_set_key" : "_ZTIRN4aidl7android8hardware5radio4data5NrQosE",
   "name" : "aidl::android::hardware::radio::data::NrQos &",
   "referenced_type" : "_ZTIN4aidl7android8hardware5radio4data5NrQosE",
   "self_type" : "_ZTIRN4aidl7android8hardware5radio4data5NrQosE",
   "size" : 8,
   "source_file" : "out/soong/.intermediates/hardware/interfaces/radio/aidl/android.hardware.radio.data-V1-ndk-source/gen/include/aidl/android/hardware/radio/data/Qos.h"
  },
  {
   "alignment" : 8,
   "linker_set_key" : "_ZTIRN4aidl7android8hardware5radio4data6EpsQosE",
   "name" : "aidl::android::hardware::radio::data::EpsQos &",
   "referenced_type" : "_ZTIN4aidl7android8hardware5radio4data6EpsQosE",
   "self_type" : "_ZTIRN4aidl7android8hardware5radio4data6EpsQosE",
   "size" : 8,
   "source_file" : "out/soong/.intermediates/hardware/interfaces/radio/aidl/android.hardware.radio.data-V1-ndk-source/gen/include/aidl/android/hardware/radio/data/Qos.h"
  },
  {
   "alignment" : 8,
   "linker_set_key" : "_ZTIRa",
   "name" : "signed char &",
   "referenced_type" : "_ZTIa",
   "self_type" : "_ZTIRa",
   "size" : 8,
   "source_file" : "out/soong/.intermediates/hardware/interfaces/radio/aidl/android.hardware.radio.data-V1-ndk-source/gen/include/aidl/android/hardware/radio/data/QosFilterTypeOfService.h"
  },
  {
   "alignment" : 8,
   "linker_set_key" : "_ZTIRb",
   "name" : "bool &",
   "referenced_type" : "_ZTIb",
   "self_type" : "_ZTIRb",
   "size" : 8,
   "source_file" : "out/soong/.intermediates/hardware/interfaces/radio/aidl/android.hardware.radio.data-V1-ndk-source/gen/include/aidl/android/hardware/radio/data/Qos.h"
  },
  {
   "alignment" : 8,
   "linker_set_key" : "_ZTIRi",
   "name" : "int &",
   "referenced_type" : "_ZTIi",
   "self_type" : "_ZTIRi",
   "size" : 8,
   "source_file" : "out/soong/.intermediates/hardware/interfaces/radio/aidl/android.hardware.radio.data-V1-ndk-source/gen/include/aidl/android/hardware/radio/data/QosFilterIpsecSpi.h"
  }
 ],
 "pointer_types" :
 [
  {
   "alignment" : 8,
   "linker_set_key" : "_ZTIP13AIBinder_Weak",
   "name" : "AIBinder_Weak *",
   "referenced_type" : "_ZTI13AIBinder_Weak",
   "self_type" : "_ZTIP13AIBinder_Weak",
   "size" : 8,
   "source_file" : "frameworks/native/libs/binder/ndk/include_cpp/android/binder_auto_utils.h"
  },
  {
   "alignment" : 8,
   "linker_set_key" : "_ZTIP14AIBinder_Class",
   "name" : "AIBinder_Class *",
   "referenced_type" : "_ZTI14AIBinder_Class",
   "self_type" : "_ZTIP14AIBinder_Class",
   "size" : 8,
   "source_file" : "frameworks/native/libs/binder/ndk/include_cpp/android/binder_interface_utils.h"
  },
  {
   "alignment" : 8,
   "linker_set_key" : "_ZTIP23AIBinder_DeathRecipient",
   "name" : "AIBinder_DeathRecipient *",
   "referenced_type" : "_ZTI23AIBinder_DeathRecipient",
   "self_type" : "_ZTIP23AIBinder_DeathRecipient",
   "size" : 8,
   "source_file" : "frameworks/native/libs/binder/ndk/include_cpp/android/binder_auto_utils.h"
  },
  {
   "alignment" : 8,
   "linker_set_key" : "_ZTIP7AParcel",
   "name" : "AParcel *",
   "referenced_type" : "_ZTI7AParcel",
   "self_type" : "_ZTIP7AParcel",
   "size" : 8,
   "source_file" : "frameworks/native/libs/binder/ndk/include_cpp/android/binder_auto_utils.h"
  },
  {
   "alignment" : 8,
   "linker_set_key" : "_ZTIP7AStatus",
   "name" : "AStatus *",
   "referenced_type" : "_ZTI7AStatus",
   "self_type" : "_ZTIP7AStatus",
   "size" : 8,
   "source_file" : "frameworks/native/libs/binder/ndk/include_cpp/android/binder_auto_utils.h"
  },
  {
   "alignment" : 8,
   "linker_set_key" : "_ZTIP8AIBinder",
   "name" : "AIBinder *",
   "referenced_type" : "_ZTI8AIBinder",
   "self_type" : "_ZTIP8AIBinder",
   "size" : 8,
   "source_file" : "frameworks/native/libs/binder/ndk/include_cpp/android/binder_auto_utils.h"
  },
  {
   "alignment" : 8,
   "linker_set_key" : "_ZTIPFiP8AIBinderjPK7AParcelPS1_E",
   "name" : "int (*)(AIBinder *, unsigned int, const AParcel *, AParcel *)",
   "referenced_type" : "_ZTIFiP8AIBinderjPK7AParcelPS1_E",
   "self_type" : "_ZTIPFiP8AIBinderjPK7AParcelPS1_E",
   "size" : 8,
   "source_file" : "frameworks/native/libs/binder/ndk/include_cpp/android/binder_interface_utils.h"
  },
  {
   "alignment" : 8,
   "linker_set_key" : "_ZTIPK7AParcel",
   "name" : "const AParcel *",
   "referenced_type" : "_ZTIK7AParcel",
   "self_type" : "_ZTIPK7AParcel",
   "size" : 8,
   "source_file" : "frameworks/native/libs/binder/ndk/include_cpp/android/binder_interface_utils.h"
  },
  {
   "alignment" : 8,
   "linker_set_key" : "_ZTIPKN3ndk10SpAIBinderE",
   "name" : "const ndk::SpAIBinder *",
   "referenced_type" : "_ZTIKN3ndk10SpAIBinderE",
   "self_type" : "_ZTIPKN3ndk10SpAIBinderE",
   "size" : 8,
   "source_file" : "frameworks/native/libs/binder/ndk/include_cpp/android/binder_auto_utils.h"
  },
  {
   "alignment" : 8,
   "linker_set_key" : "_ZTIPKN3ndk13ScopedAParcelE",
   "name" : "const ndk::ScopedAParcel *",
   "referenced_type" : "_ZTIKN3ndk13ScopedAParcelE",
   "self_type" : "_ZTIPKN3ndk13ScopedAParcelE",
   "size" : 8,
   "source_file" : "frameworks/native/libs/binder/ndk/include_cpp/android/binder_auto_utils.h"
  },
  {
   "alignment" : 8,
   "linker_set_key" : "_ZTIPKN3ndk13ScopedAStatusE",
   "name" : "const ndk::ScopedAStatus *",
   "referenced_type" : "_ZTIKN3ndk13ScopedAStatusE",
   "self_type" : "_ZTIPKN3ndk13ScopedAStatusE",
   "size" : 8,
   "source_file" : "frameworks/native/libs/binder/ndk/include_cpp/android/binder_auto_utils.h"
  },
  {
   "alignment" : 8,
   "linker_set_key" : "_ZTIPKN3ndk17AParcelableHolderE",
   "name" : "const ndk::AParcelableHolder *",
   "referenced_type" : "_ZTIKN3ndk17AParcelableHolderE",
   "self_type" : "_ZTIPKN3ndk17AParcelableHolderE",
   "size" : 8,
   "source_file" : "frameworks/native/libs/binder/ndk/include_cpp/android/binder_parcelable_utils.h"
  },
  {
   "alignment" : 8,
   "linker_set_key" : "_ZTIPKN3ndk20ScopedFileDescriptorE",
   "name" : "const ndk::ScopedFileDescriptor *",
   "referenced_type" : "_ZTIKN3ndk20ScopedFileDescriptorE",
   "self_type" : "_ZTIPKN3ndk20ScopedFileDescriptorE",
   "size" : 8,
   "source_file" : "frameworks/native/libs/binder/ndk/include_cpp/android/binder_auto_utils.h"
  },
  {
   "alignment" : 8,
   "linker_set_key" : "_ZTIPKN3ndk4impl15ScopedAResourceIP7AParcelXadL_Z14AParcel_deleteEELS3_0EEE",
   "name" : "const ndk::impl::ScopedAResource<AParcel *, &AParcel_delete, nullptr> *",
   "referenced_type" : "_ZTIKN3ndk4impl15ScopedAResourceIP7AParcelXadL_Z14AParcel_deleteEELS3_0EEE",
   "self_type" : "_ZTIPKN3ndk4impl15ScopedAResourceIP7AParcelXadL_Z14AParcel_deleteEELS3_0EEE",
   "size" : 8,
   "source_file" : "frameworks/native/libs/binder/ndk/include_cpp/android/binder_auto_utils.h"
  },
  {
   "alignment" : 8,
   "linker_set_key" : "_ZTIPKN3ndk4impl15ScopedAResourceIP7AStatusXadL_Z14AStatus_deleteEELS3_0EEE",
   "name" : "const ndk::impl::ScopedAResource<AStatus *, &AStatus_delete, nullptr> *",
   "referenced_type" : "_ZTIKN3ndk4impl15ScopedAResourceIP7AStatusXadL_Z14AStatus_deleteEELS3_0EEE",
   "self_type" : "_ZTIPKN3ndk4impl15ScopedAResourceIP7AStatusXadL_Z14AStatus_deleteEELS3_0EEE",
   "size" : 8,
   "source_file" : "frameworks/native/libs/binder/ndk/include_cpp/android/binder_auto_utils.h"
  },
  {
   "alignment" : 8,
   "linker_set_key" : "_ZTIPKN4aidl7android8hardware5radio17RadioResponseInfoE",
   "name" : "const aidl::android::hardware::radio::RadioResponseInfo *",
   "referenced_type" : "_ZTIKN4aidl7android8hardware5radio17RadioResponseInfoE",
   "self_type" : "_ZTIPKN4aidl7android8hardware5radio17RadioResponseInfoE",
   "size" : 8,
   "source_file" : "out/soong/.intermediates/hardware/interfaces/radio/aidl/android.hardware.radio-V1-ndk-source/gen/include/aidl/android/hardware/radio/RadioResponseInfo.h"
  },
  {
   "alignment" : 8,
   "linker_set_key" : "_ZTIPKN4aidl7android8hardware5radio4data10QosSessionE",
   "name" : "const aidl::android::hardware::radio::data::QosSession *",
   "referenced_type" : "_ZTIKN4aidl7android8hardware5radio4data10QosSessionE",
   "self_type" : "_ZTIPKN4aidl7android8hardware5radio4data10QosSessionE",
   "size" : 8,
