{
 "array_types" : [],
 "builtin_types" :
 [
  {
   "alignment" : 4,
   "linker_set_key" : "_ZTIDn",
   "name" : "std::nullptr_t",
   "referenced_type" : "_ZTIDn",
   "self_type" : "_ZTIDn",
   "size" : 4
  },
  {
   "alignment" : 1,
   "is_integral" : true,
   "is_unsigned" : true,
   "linker_set_key" : "_ZTIb",
   "name" : "bool",
   "referenced_type" : "_ZTIb",
   "self_type" : "_ZTIb",
   "size" : 1
  },
  {
   "alignment" : 1,
   "is_integral" : true,
   "is_unsigned" : true,
   "linker_set_key" : "_ZTIc",
   "name" : "char",
   "referenced_type" : "_ZTIc",
   "self_type" : "_ZTIc",
   "size" : 1
  },
  {
   "alignment" : 1,
   "is_integral" : true,
   "is_unsigned" : true,
   "linker_set_key" : "_ZTIh",
   "name" : "unsigned char",
   "referenced_type" : "_ZTIh",
   "self_type" : "_ZTIh",
   "size" : 1
  },
  {
   "alignment" : 4,
   "is_integral" : true,
   "linker_set_key" : "_ZTIi",
   "name" : "int",
   "referenced_type" : "_ZTIi",
   "self_type" : "_ZTIi",
   "size" : 4
  },
  {
   "alignment" : 4,
   "is_integral" : true,
   "is_unsigned" : true,
   "linker_set_key" : "_ZTIj",
   "name" : "unsigned int",
   "referenced_type" : "_ZTIj",
   "self_type" : "_ZTIj",
   "size" : 4
  },
  {
   "linker_set_key" : "_ZTIv",
   "name" : "void",
   "referenced_type" : "_ZTIv",
   "self_type" : "_ZTIv"
  }
 ],
 "elf_functions" :
 [
  {
   "binding" : "weak",
   "name" : "_ZN3ndk12BnCInterfaceIN4aidl7android8hardware5radio9messaging15IRadioMessagingEE8asBinderEv"
  },
  {
   "binding" : "weak",
   "name" : "_ZN3ndk12BnCInterfaceIN4aidl7android8hardware5radio9messaging23IRadioMessagingResponseEE8asBinderEv"
  },
  {
   "binding" : "weak",
   "name" : "_ZN3ndk12BnCInterfaceIN4aidl7android8hardware5radio9messaging25IRadioMessagingIndicationEE8asBinderEv"
  },
  {
   "binding" : "weak",
   "name" : "_ZN3ndk12BpCInterfaceIN4aidl7android8hardware5radio9messaging15IRadioMessagingEE8asBinderEv"
  },
  {
   "binding" : "weak",
   "name" : "_ZN3ndk12BpCInterfaceIN4aidl7android8hardware5radio9messaging23IRadioMessagingResponseEE8asBinderEv"
  },
  {
   "binding" : "weak",
   "name" : "_ZN3ndk12BpCInterfaceIN4aidl7android8hardware5radio9messaging25IRadioMessagingIndicationEE8asBinderEv"
  },
  {
   "binding" : "weak",
   "name" : "_ZN3ndk38AParcel_readStdVectorParcelableElementIN4aidl7android8hardware5radio9messaging13GsmSmsMessageEEEiPK7AParcelPvj"
  },
  {
   "binding" : "weak",
   "name" : "_ZN3ndk38AParcel_readStdVectorParcelableElementIN4aidl7android8hardware5radio9messaging14CdmaSmsMessageEEEiPK7AParcelPvj"
  },
  {
   "binding" : "weak",
   "name" : "_ZN3ndk38AParcel_readStdVectorParcelableElementIN4aidl7android8hardware5radio9messaging25GsmBroadcastSmsConfigInfoEEEiPK7AParcelPvj"
  },
  {
   "binding" : "weak",
   "name" : "_ZN3ndk38AParcel_readStdVectorParcelableElementIN4aidl7android8hardware5radio9messaging26CdmaBroadcastSmsConfigInfoEEEiPK7AParcelPvj"
  },
  {
   "binding" : "weak",
   "name" : "_ZN3ndk39AParcel_writeStdVectorParcelableElementIN4aidl7android8hardware5radio9messaging13GsmSmsMessageEEEiP7AParcelPKvj"
  },
  {
   "binding" : "weak",
   "name" : "_ZN3ndk39AParcel_writeStdVectorParcelableElementIN4aidl7android8hardware5radio9messaging14CdmaSmsMessageEEEiP7AParcelPKvj"
  },
  {
   "binding" : "weak",
   "name" : "_ZN3ndk39AParcel_writeStdVectorParcelableElementIN4aidl7android8hardware5radio9messaging25GsmBroadcastSmsConfigInfoEEEiP7AParcelPKvj"
  },
  {
   "binding" : "weak",
   "name" : "_ZN3ndk39AParcel_writeStdVectorParcelableElementIN4aidl7android8hardware5radio9messaging26CdmaBroadcastSmsConfigInfoEEEiP7AParcelPKvj"
  },
  {
   "name" : "_ZN4aidl7android8hardware5radio9messaging10CdmaSmsAck14readFromParcelEPK7AParcel"
  },
  {
   "name" : "_ZN4aidl7android8hardware5radio9messaging12SmsWriteArgs14readFromParcelEPK7AParcel"
  },
  {
   "name" : "_ZN4aidl7android8hardware5radio9messaging13GsmSmsMessage14readFromParcelEPK7AParcel"
  },
  {
   "name" : "_ZN4aidl7android8hardware5radio9messaging13ImsSmsMessage14readFromParcelEPK7AParcel"
  },
  {
   "name" : "_ZN4aidl7android8hardware5radio9messaging13SendSmsResult14readFromParcelEPK7AParcel"
  },
  {
   "name" : "_ZN4aidl7android8hardware5radio9messaging14CdmaSmsAddress14readFromParcelEPK7AParcel"
  },
  {
   "name" : "_ZN4aidl7android8hardware5radio9messaging14CdmaSmsMessage14readFromParcelEPK7AParcel"
  },
  {
   "name" : "_ZN4aidl7android8hardware5radio9messaging15IRadioMessaging10fromBinderERKN3ndk10SpAIBinderE"
  },
  {
   "name" : "_ZN4aidl7android8hardware5radio9messaging15IRadioMessaging13writeToParcelEP7AParcelRKNSt3__110shared_ptrIS4_EE"
  },
  {
   "name" : "_ZN4aidl7android8hardware5radio9messaging15IRadioMessaging14getDefaultImplEv"
  },
  {
   "name" : "_ZN4aidl7android8hardware5radio9messaging15IRadioMessaging14readFromParcelEPK7AParcelPNSt3__110shared_ptrIS4_EE"
  },
  {
   "name" : "_ZN4aidl7android8hardware5radio9messaging15IRadioMessaging14setDefaultImplERKNSt3__110shared_ptrIS4_EE"
  },
  {
   "name" : "_ZN4aidl7android8hardware5radio9messaging15IRadioMessagingC2Ev"
  },
  {
   "name" : "_ZN4aidl7android8hardware5radio9messaging15IRadioMessagingD0Ev"
  },
  {
   "name" : "_ZN4aidl7android8hardware5radio9messaging15IRadioMessagingD1Ev"
  },
  {
   "name" : "_ZN4aidl7android8hardware5radio9messaging15IRadioMessagingD2Ev"
  },
  {
   "name" : "_ZN4aidl7android8hardware5radio9messaging16BnRadioMessaging12createBinderEv"
  },
  {
   "name" : "_ZN4aidl7android8hardware5radio9messaging16BnRadioMessaging16getInterfaceHashEPNSt3__112basic_stringIcNS5_11char_traitsIcEENS5_9allocatorIcEEEE"
  },
  {
   "name" : "_ZN4aidl7android8hardware5radio9messaging16BnRadioMessaging19getInterfaceVersionEPi"
  },
  {
   "name" : "_ZN4aidl7android8hardware5radio9messaging16BnRadioMessagingC2Ev"
  },
  {
   "name" : "_ZN4aidl7android8hardware5radio9messaging16BnRadioMessagingD0Ev"
  },
  {
   "name" : "_ZN4aidl7android8hardware5radio9messaging16BnRadioMessagingD1Ev"
  },
  {
   "name" : "_ZN4aidl7android8hardware5radio9messaging16BnRadioMessagingD2Ev"
  },
  {
   "name" : "_ZN4aidl7android8hardware5radio9messaging16BpRadioMessaging10sendImsSmsEiRKNS3_13ImsSmsMessageE"
  },
  {
   "name" : "_ZN4aidl7android8hardware5radio9messaging16BpRadioMessaging11sendCdmaSmsEiRKNS3_14CdmaSmsMessageE"
  },
  {
   "name" : "_ZN4aidl7android8hardware5radio9messaging16BpRadioMessaging13writeSmsToSimEiRKNS3_12SmsWriteArgsE"
  },
  {
   "name" : "_ZN4aidl7android8hardware5radio9messaging16BpRadioMessaging14deleteSmsOnSimEii"
  },
  {
   "name" : "_ZN4aidl7android8hardware5radio9messaging16BpRadioMessaging14getSmscAddressEi"
  },
  {
   "name" : "_ZN4aidl7android8hardware5radio9messaging16BpRadioMessaging14setSmscAddressEiRKNSt3__112basic_stringIcNS5_11char_traitsIcEENS5_9allocatorIcEEEE"
  },
  {
   "name" : "_ZN4aidl7android8hardware5radio9messaging16BpRadioMessaging14writeSmsToRuimEiRKNS3_16CdmaSmsWriteArgsE"
  },
  {
   "name" : "_ZN4aidl7android8hardware5radio9messaging16BpRadioMessaging15deleteSmsOnRuimEii"
  },
  {
   "name" : "_ZN4aidl7android8hardware5radio9messaging16BpRadioMessaging16getInterfaceHashEPNSt3__112basic_stringIcNS5_11char_traitsIcEENS5_9allocatorIcEEEE"
  },
  {
   "name" : "_ZN4aidl7android8hardware5radio9messaging16BpRadioMessaging17sendSmsExpectMoreEiRKNS3_13GsmSmsMessageE"
  },
  {
   "name" : "_ZN4aidl7android8hardware5radio9messaging16BpRadioMessaging19getInterfaceVersionEPi"
  },
  {
   "name" : "_ZN4aidl7android8hardware5radio9messaging16BpRadioMessaging20setResponseFunctionsERKNSt3__110shared_ptrINS3_23IRadioMessagingResponseEEERKNS6_INS3_25IRadioMessagingIndicationEEE"
  },
  {
   "name" : "_ZN4aidl7android8hardware5radio9messaging16BpRadioMessaging21getGsmBroadcastConfigEi"
  },
  {
   "name" : "_ZN4aidl7android8hardware5radio9messaging16BpRadioMessaging21reportSmsMemoryStatusEib"
  },
  {
   "name" : "_ZN4aidl7android8hardware5radio9messaging16BpRadioMessaging21sendCdmaSmsExpectMoreEiRKNS3_14CdmaSmsMessageE"
  },
  {
   "name" : "_ZN4aidl7android8hardware5radio9messaging16BpRadioMessaging21setGsmBroadcastConfigEiRKNSt3__16vectorINS3_25GsmBroadcastSmsConfigInfoENS5_9allocatorIS7_EEEE"
  },
  {
   "name" : "_ZN4aidl7android8hardware5radio9messaging16BpRadioMessaging22getCdmaBroadcastConfigEi"
  },
  {
   "name" : "_ZN4aidl7android8hardware5radio9messaging16BpRadioMessaging22setCdmaBroadcastConfigEiRKNSt3__16vectorINS3_26CdmaBroadcastSmsConfigInfoENS5_9allocatorIS7_EEEE"
  },
  {
   "name" : "_ZN4aidl7android8hardware5radio9messaging16BpRadioMessaging23responseAcknowledgementEv"
  },
  {
   "name" : "_ZN4aidl7android8hardware5radio9messaging16BpRadioMessaging25setGsmBroadcastActivationEib"
  },
  {
   "name" : "_ZN4aidl7android8hardware5radio9messaging16BpRadioMessaging26setCdmaBroadcastActivationEib"
  },
  {
   "name" : "_ZN4aidl7android8hardware5radio9messaging16BpRadioMessaging29acknowledgeLastIncomingGsmSmsEibNS3_23SmsAcknowledgeFailCauseE"
  },
  {
   "name" : "_ZN4aidl7android8hardware5radio9messaging16BpRadioMessaging30acknowledgeLastIncomingCdmaSmsEiRKNS3_10CdmaSmsAckE"
  },
  {
   "name" : "_ZN4aidl7android8hardware5radio9messaging16BpRadioMessaging32acknowledgeIncomingGsmSmsWithPduEibRKNSt3__112basic_stringIcNS5_11char_traitsIcEENS5_9allocatorIcEEEE"
  },
  {
   "name" : "_ZN4aidl7android8hardware5radio9messaging16BpRadioMessaging7sendSmsEiRKNS3_13GsmSmsMessageE"
  },
  {
   "name" : "_ZN4aidl7android8hardware5radio9messaging16BpRadioMessagingC1ERKN3ndk10SpAIBinderE"
  },
  {
   "name" : "_ZN4aidl7android8hardware5radio9messaging16BpRadioMessagingC2ERKN3ndk10SpAIBinderE"
  },
  {
   "name" : "_ZN4aidl7android8hardware5radio9messaging16BpRadioMessagingD0Ev"
  },
  {
   "name" : "_ZN4aidl7android8hardware5radio9messaging16BpRadioMessagingD1Ev"
  },
  {
   "name" : "_ZN4aidl7android8hardware5radio9messaging16BpRadioMessagingD2Ev"
  },
  {
   "name" : "_ZN4aidl7android8hardware5radio9messaging16CdmaSmsWriteArgs14readFromParcelEPK7AParcel"
  },
  {
   "name" : "_ZN4aidl7android8hardware5radio9messaging17CdmaSmsSubaddress14readFromParcelEPK7AParcel"
  },
  {
   "name" : "_ZN4aidl7android8hardware5radio9messaging22IRadioMessagingDefault10sendImsSmsEiRKNS3_13ImsSmsMessageE"
  },
  {
   "name" : "_ZN4aidl7android8hardware5radio9messaging22IRadioMessagingDefault11sendCdmaSmsEiRKNS3_14CdmaSmsMessageE"
  },
  {
   "name" : "_ZN4aidl7android8hardware5radio9messaging22IRadioMessagingDefault13writeSmsToSimEiRKNS3_12SmsWriteArgsE"
  },
  {
   "name" : "_ZN4aidl7android8hardware5radio9messaging22IRadioMessagingDefault14deleteSmsOnSimEii"
  },
  {
   "name" : "_ZN4aidl7android8hardware5radio9messaging22IRadioMessagingDefault14getSmscAddressEi"
  },
  {
   "name" : "_ZN4aidl7android8hardware5radio9messaging22IRadioMessagingDefault14setSmscAddressEiRKNSt3__112basic_stringIcNS5_11char_traitsIcEENS5_9allocatorIcEEEE"
  },
  {
   "name" : "_ZN4aidl7android8hardware5radio9messaging22IRadioMessagingDefault14writeSmsToRuimEiRKNS3_16CdmaSmsWriteArgsE"
  },
  {
   "name" : "_ZN4aidl7android8hardware5radio9messaging22IRadioMessagingDefault15deleteSmsOnRuimEii"
  },
  {
   "name" : "_ZN4aidl7android8hardware5radio9messaging22IRadioMessagingDefault16getInterfaceHashEPNSt3__112basic_stringIcNS5_11char_traitsIcEENS5_9allocatorIcEEEE"
  },
  {
   "name" : "_ZN4aidl7android8hardware5radio9messaging22IRadioMessagingDefault17sendSmsExpectMoreEiRKNS3_13GsmSmsMessageE"
  },
  {
   "name" : "_ZN4aidl7android8hardware5radio9messaging22IRadioMessagingDefault19getInterfaceVersionEPi"
  },
  {
   "name" : "_ZN4aidl7android8hardware5radio9messaging22IRadioMessagingDefault20setResponseFunctionsERKNSt3__110shared_ptrINS3_23IRadioMessagingResponseEEERKNS6_INS3_25IRadioMessagingIndicationEEE"
  },
  {
   "name" : "_ZN4aidl7android8hardware5radio9messaging22IRadioMessagingDefault21getGsmBroadcastConfigEi"
  },
  {
   "name" : "_ZN4aidl7android8hardware5radio9messaging22IRadioMessagingDefault21reportSmsMemoryStatusEib"
  },
  {
   "name" : "_ZN4aidl7android8hardware5radio9messaging22IRadioMessagingDefault21sendCdmaSmsExpectMoreEiRKNS3_14CdmaSmsMessageE"
  },
  {
   "name" : "_ZN4aidl7android8hardware5radio9messaging22IRadioMessagingDefault21setGsmBroadcastConfigEiRKNSt3__16vectorINS3_25GsmBroadcastSmsConfigInfoENS5_9allocatorIS7_EEEE"
  },
  {
   "name" : "_ZN4aidl7android8hardware5radio9messaging22IRadioMessagingDefault22getCdmaBroadcastConfigEi"
  },
  {
   "name" : "_ZN4aidl7android8hardware5radio9messaging22IRadioMessagingDefault22setCdmaBroadcastConfigEiRKNSt3__16vectorINS3_26CdmaBroadcastSmsConfigInfoENS5_9allocatorIS7_EEEE"
  },
  {
   "name" : "_ZN4aidl7android8hardware5radio9messaging22IRadioMessagingDefault23responseAcknowledgementEv"
  },
  {
   "name" : "_ZN4aidl7android8hardware5radio9messaging22IRadioMessagingDefault25setGsmBroadcastActivationEib"
  },
  {
   "name" : "_ZN4aidl7android8hardware5radio9messaging22IRadioMessagingDefault26setCdmaBroadcastActivationEib"
  },
  {
   "name" : "_ZN4aidl7android8hardware5radio9messaging22IRadioMessagingDefault29acknowledgeLastIncomingGsmSmsEibNS3_23SmsAcknowledgeFailCauseE"
  },
  {
   "name" : "_ZN4aidl7android8hardware5radio9messaging22IRadioMessagingDefault30acknowledgeLastIncomingCdmaSmsEiRKNS3_10CdmaSmsAckE"
  },
  {
   "name" : "_ZN4aidl7android8hardware5radio9messaging22IRadioMessagingDefault32acknowledgeIncomingGsmSmsWithPduEibRKNSt3__112basic_stringIcNS5_11char_traitsIcEENS5_9allocatorIcEEEE"
  },
  {
   "name" : "_ZN4aidl7android8hardware5radio9messaging22IRadioMessagingDefault7sendSmsEiRKNS3_13GsmSmsMessageE"
  },
  {
   "name" : "_ZN4aidl7android8hardware5radio9messaging22IRadioMessagingDefault8asBinderEv"
  },
  {
   "name" : "_ZN4aidl7android8hardware5radio9messaging22IRadioMessagingDefault8isRemoteEv"
  },
  {
   "name" : "_ZN4aidl7android8hardware5radio9messaging23IRadioMessagingResponse10fromBinderERKN3ndk10SpAIBinderE"
  },
  {
   "name" : "_ZN4aidl7android8hardware5radio9messaging23IRadioMessagingResponse13writeToParcelEP7AParcelRKNSt3__110shared_ptrIS4_EE"
  },
  {
   "name" : "_ZN4aidl7android8hardware5radio9messaging23IRadioMessagingResponse14getDefaultImplEv"
  },
  {
   "name" : "_ZN4aidl7android8hardware5radio9messaging23IRadioMessagingResponse14readFromParcelEPK7AParcelPNSt3__110shared_ptrIS4_EE"
  },
  {
   "name" : "_ZN4aidl7android8hardware5radio9messaging23IRadioMessagingResponse14setDefaultImplERKNSt3__110shared_ptrIS4_EE"
  },
  {
   "name" : "_ZN4aidl7android8hardware5radio9messaging23IRadioMessagingResponseC2Ev"
  },
  {
   "name" : "_ZN4aidl7android8hardware5radio9messaging23IRadioMessagingResponseD0Ev"
  },
  {
   "name" : "_ZN4aidl7android8hardware5radio9messaging23IRadioMessagingResponseD1Ev"
  },
  {
   "name" : "_ZN4aidl7android8hardware5radio9messaging23IRadioMessagingResponseD2Ev"
  },
  {
   "name" : "_ZN4aidl7android8hardware5radio9messaging24BnRadioMessagingResponse12createBinderEv"
  },
  {
   "name" : "_ZN4aidl7android8hardware5radio9messaging24BnRadioMessagingResponse16getInterfaceHashEPNSt3__112basic_stringIcNS5_11char_traitsIcEENS5_9allocatorIcEEEE"
  },
  {
   "name" : "_ZN4aidl7android8hardware5radio9messaging24BnRadioMessagingResponse19getInterfaceVersionEPi"
  },
  {
   "name" : "_ZN4aidl7android8hardware5radio9messaging24BnRadioMessagingResponseC2Ev"
  },
  {
   "name" : "_ZN4aidl7android8hardware5radio9messaging24BnRadioMessagingResponseD0Ev"
  },
  {
   "name" : "_ZN4aidl7android8hardware5radio9messaging24BnRadioMessagingResponseD1Ev"
  },
  {
   "name" : "_ZN4aidl7android8hardware5radio9messaging24BnRadioMessagingResponseD2Ev"
  },
  {
   "name" : "_ZN4aidl7android8hardware5radio9messaging24BpRadioMessagingResponse15sendSmsResponseERKNS2_17RadioResponseInfoERKNS3_13SendSmsResultE"
  },
  {
   "name" : "_ZN4aidl7android8hardware5radio9messaging24BpRadioMessagingResponse16getInterfaceHashEPNSt3__112basic_stringIcNS5_11char_traitsIcEENS5_9allocatorIcEEEE"
  },
  {
   "name" : "_ZN4aidl7android8hardware5radio9messaging24BpRadioMessagingResponse18acknowledgeRequestEi"
  },
  {
   "name" : "_ZN4aidl7android8hardware5radio9messaging24BpRadioMessagingResponse18sendImsSmsResponseERKNS2_17RadioResponseInfoERKNS3_13SendSmsResultE"
  },
  {
   "name" : "_ZN4aidl7android8hardware5radio9messaging24BpRadioMessagingResponse19getInterfaceVersionEPi"
  },
  {
   "name" : "_ZN4aidl7android8hardware5radio9messaging24BpRadioMessagingResponse19sendCdmaSmsResponseERKNS2_17RadioResponseInfoERKNS3_13SendSmsResultE"
  },
  {
   "name" : "_ZN4aidl7android8hardware5radio9messaging24BpRadioMessagingResponse21writeSmsToSimResponseERKNS2_17RadioResponseInfoEi"
  },
  {
   "name" : "_ZN4aidl7android8hardware5radio9messaging24BpRadioMessagingResponse22deleteSmsOnSimResponseERKNS2_17RadioResponseInfoE"
  },
  {
   "name" : "_ZN4aidl7android8hardware5radio9messaging24BpRadioMessagingResponse22getSmscAddressResponseERKNS2_17RadioResponseInfoERKNSt3__112basic_stringIcNS8_11char_traitsIcEENS8_9allocatorIcEEEE"
  },
  {
   "name" : "_ZN4aidl7android8hardware5radio9messaging24BpRadioMessagingResponse22setSmscAddressResponseERKNS2_17RadioResponseInfoE"
  },
  {
   "name" : "_ZN4aidl7android8hardware5radio9messaging24BpRadioMessagingResponse22writeSmsToRuimResponseERKNS2_17RadioResponseInfoEi"
  },
  {
   "name" : "_ZN4aidl7android8hardware5radio9messaging24BpRadioMessagingResponse23deleteSmsOnRuimResponseERKNS2_17RadioResponseInfoE"
  },
  {
   "name" : "_ZN4aidl7android8hardware5radio9messaging24BpRadioMessagingResponse25sendSmsExpectMoreResponseERKNS2_17RadioResponseInfoERKNS3_13SendSmsResultE"
  },
  {
   "name" : "_ZN4aidl7android8hardware5radio9messaging24BpRadioMessagingResponse29getGsmBroadcastConfigResponseERKNS2_17RadioResponseInfoERKNSt3__16vectorINS3_25GsmBroadcastSmsConfigInfoENS8_9allocatorISA_EEEE"
  },
  {
   "name" : "_ZN4aidl7android8hardware5radio9messaging24BpRadioMessagingResponse29reportSmsMemoryStatusResponseERKNS2_17RadioResponseInfoE"
  },
  {
   "name" : "_ZN4aidl7android8hardware5radio9messaging24BpRadioMessagingResponse29sendCdmaSmsExpectMoreResponseERKNS2_17RadioResponseInfoERKNS3_13SendSmsResultE"
  },
  {
   "name" : "_ZN4aidl7android8hardware5radio9messaging24BpRadioMessagingResponse29setGsmBroadcastConfigResponseERKNS2_17RadioResponseInfoE"
  },
  {
   "name" : "_ZN4aidl7android8hardware5radio9messaging24BpRadioMessagingResponse30getCdmaBroadcastConfigResponseERKNS2_17RadioResponseInfoERKNSt3__16vectorINS3_26CdmaBroadcastSmsConfigInfoENS8_9allocatorISA_EEEE"
  },
  {
   "name" : "_ZN4aidl7android8hardware5radio9messaging24BpRadioMessagingResponse30setCdmaBroadcastConfigResponseERKNS2_17RadioResponseInfoE"
  },
  {
   "name" : "_ZN4aidl7android8hardware5radio9messaging24BpRadioMessagingResponse33setGsmBroadcastActivationResponseERKNS2_17RadioResponseInfoE"
  },
  {
   "name" : "_ZN4aidl7android8hardware5radio9messaging24BpRadioMessagingResponse34setCdmaBroadcastActivationResponseERKNS2_17RadioResponseInfoE"
  },
  {
   "name" : "_ZN4aidl7android8hardware5radio9messaging24BpRadioMessagingResponse37acknowledgeLastIncomingGsmSmsResponseERKNS2_17RadioResponseInfoE"
  },
  {
   "name" : "_ZN4aidl7android8hardware5radio9messaging24BpRadioMessagingResponse38acknowledgeLastIncomingCdmaSmsResponseERKNS2_17RadioResponseInfoE"
  },
  {
   "name" : "_ZN4aidl7android8hardware5radio9messaging24BpRadioMessagingResponse40acknowledgeIncomingGsmSmsWithPduResponseERKNS2_17RadioResponseInfoE"
  },
  {
   "name" : "_ZN4aidl7android8hardware5radio9messaging24BpRadioMessagingResponseC1ERKN3ndk10SpAIBinderE"
  },
  {
   "name" : "_ZN4aidl7android8hardware5radio9messaging24BpRadioMessagingResponseC2ERKN3ndk10SpAIBinderE"
  },
  {
   "name" : "_ZN4aidl7android8hardware5radio9messaging24BpRadioMessagingResponseD0Ev"
  },
  {
   "name" : "_ZN4aidl7android8hardware5radio9messaging24BpRadioMessagingResponseD1Ev"
  },
  {
   "name" : "_ZN4aidl7android8hardware5radio9messaging24BpRadioMessagingResponseD2Ev"
  },
  {
   "name" : "_ZN4aidl7android8hardware5radio9messaging25GsmBroadcastSmsConfigInfo14readFromParcelEPK7AParcel"
  },
  {
   "name" : "_ZN4aidl7android8hardware5radio9messaging25IRadioMessagingIndication10fromBinderERKN3ndk10SpAIBinderE"
  },
  {
   "name" : "_ZN4aidl7android8hardware5radio9messaging25IRadioMessagingIndication13writeToParcelEP7AParcelRKNSt3__110shared_ptrIS4_EE"
  },
  {
   "name" : "_ZN4aidl7android8hardware5radio9messaging25IRadioMessagingIndication14getDefaultImplEv"
  },
  {
   "name" : "_ZN4aidl7android8hardware5radio9messaging25IRadioMessagingIndication14readFromParcelEPK7AParcelPNSt3__110shared_ptrIS4_EE"
  },
  {
   "name" : "_ZN4aidl7android8hardware5radio9messaging25IRadioMessagingIndication14setDefaultImplERKNSt3__110shared_ptrIS4_EE"
  },
  {
   "name" : "_ZN4aidl7android8hardware5radio9messaging25IRadioMessagingIndicationC2Ev"
  },
  {
   "name" : "_ZN4aidl7android8hardware5radio9messaging25IRadioMessagingIndicationD0Ev"
  },
  {
   "name" : "_ZN4aidl7android8hardware5radio9messaging25IRadioMessagingIndicationD1Ev"
  },
  {
   "name" : "_ZN4aidl7android8hardware5radio9messaging25IRadioMessagingIndicationD2Ev"
  },
  {
   "name" : "_ZN4aidl7android8hardware5radio9messaging26BnRadioMessagingIndication12createBinderEv"
  },
  {
   "name" : "_ZN4aidl7android8hardware5radio9messaging26BnRadioMessagingIndication16getInterfaceHashEPNSt3__112basic_stringIcNS5_11char_traitsIcEENS5_9allocatorIcEEEE"
  },
  {
   "name" : "_ZN4aidl7android8hardware5radio9messaging26BnRadioMessagingIndication19getInterfaceVersionEPi"
  },
  {
   "name" : "_ZN4aidl7android8hardware5radio9messaging26BnRadioMessagingIndicationC2Ev"
  },
  {
   "name" : "_ZN4aidl7android8hardware5radio9messaging26BnRadioMessagingIndicationD0Ev"
  },
  {
   "name" : "_ZN4aidl7android8hardware5radio9messaging26BnRadioMessagingIndicationD1Ev"
  },
  {
   "name" : "_ZN4aidl7android8hardware5radio9messaging26BnRadioMessagingIndicationD2Ev"
  },
  {
   "name" : "_ZN4aidl7android8hardware5radio9messaging26BpRadioMessagingIndication10cdmaNewSmsENS2_19RadioIndicationTypeERKNS3_14CdmaSmsMessageE"
  },
  {
   "name" : "_ZN4aidl7android8hardware5radio9messaging26BpRadioMessagingIndication11newSmsOnSimENS2_19RadioIndicationTypeEi"
  },
  {
   "name" : "_ZN4aidl7android8hardware5radio9messaging26BpRadioMessagingIndication15newBroadcastSmsENS2_19RadioIndicationTypeERKNSt3__16vectorIhNS6_9allocatorIhEEEE"
  },
  {
   "name" : "_ZN4aidl7android8hardware5radio9messaging26BpRadioMessagingIndication16getInterfaceHashEPNSt3__112basic_stringIcNS5_11char_traitsIcEENS5_9allocatorIcEEEE"
  },
  {
   "name" : "_ZN4aidl7android8hardware5radio9messaging26BpRadioMessagingIndication17simSmsStorageFullENS2_19RadioIndicationTypeE"
  },
  {
   "name" : "_ZN4aidl7android8hardware5radio9messaging26BpRadioMessagingIndication18newSmsStatusReportENS2_19RadioIndicationTypeERKNSt3__16vectorIhNS6_9allocatorIhEEEE"
  },
  {
   "name" : "_ZN4aidl7android8hardware5radio9messaging26BpRadioMessagingIndication19getInterfaceVersionEPi"
  },
  {
   "name" : "_ZN4aidl7android8hardware5radio9messaging26BpRadioMessagingIndication22cdmaRuimSmsStorageFullENS2_19RadioIndicationTypeE"
  },
  {
   "name" : "_ZN4aidl7android8hardware5radio9messaging26BpRadioMessagingIndication6newSmsENS2_19RadioIndicationTypeERKNSt3__16vectorIhNS6_9allocatorIhEEEE"
  },
  {
   "name" : "_ZN4aidl7android8hardware5radio9messaging26BpRadioMessagingIndicationC1ERKN3ndk10SpAIBinderE"
  },
  {
   "name" : "_ZN4aidl7android8hardware5radio9messaging26BpRadioMessagingIndicationC2ERKN3ndk10SpAIBinderE"
  },
  {
   "name" : "_ZN4aidl7android8hardware5radio9messaging26BpRadioMessagingIndicationD0Ev"
  },
  {
   "name" : "_ZN4aidl7android8hardware5radio9messaging26BpRadioMessagingIndicationD1Ev"
  },
  {
   "name" : "_ZN4aidl7android8hardware5radio9messaging26BpRadioMessagingIndicationD2Ev"
  },
  {
   "name" : "_ZN4aidl7android8hardware5radio9messaging26CdmaBroadcastSmsConfigInfo14readFromParcelEPK7AParcel"
  },
  {
   "name" : "_ZN4aidl7android8hardware5radio9messaging30IRadioMessagingResponseDefault15sendSmsResponseERKNS2_17RadioResponseInfoERKNS3_13SendSmsResultE"
  },
  {
   "name" : "_ZN4aidl7android8hardware5radio9messaging30IRadioMessagingResponseDefault16getInterfaceHashEPNSt3__112basic_stringIcNS5_11char_traitsIcEENS5_9allocatorIcEEEE"
  },
  {
   "name" : "_ZN4aidl7android8hardware5radio9messaging30IRadioMessagingResponseDefault18acknowledgeRequestEi"
  },
  {
   "name" : "_ZN4aidl7android8hardware5radio9messaging30IRadioMessagingResponseDefault18sendImsSmsResponseERKNS2_17RadioResponseInfoERKNS3_13SendSmsResultE"
  },
  {
   "name" : "_ZN4aidl7android8hardware5radio9messaging30IRadioMessagingResponseDefault19getInterfaceVersionEPi"
  },
  {
   "name" : "_ZN4aidl7android8hardware5radio9messaging30IRadioMessagingResponseDefault19sendCdmaSmsResponseERKNS2_17RadioResponseInfoERKNS3_13SendSmsResultE"
  },
  {
   "name" : "_ZN4aidl7android8hardware5radio9messaging30IRadioMessagingResponseDefault21writeSmsToSimResponseERKNS2_17RadioResponseInfoEi"
  },
  {
   "name" : "_ZN4aidl7android8hardware5radio9messaging30IRadioMessagingResponseDefault22deleteSmsOnSimResponseERKNS2_17RadioResponseInfoE"
  },
  {
   "name" : "_ZN4aidl7android8hardware5radio9messaging30IRadioMessagingResponseDefault22getSmscAddressResponseERKNS2_17RadioResponseInfoERKNSt3__112basic_stringIcNS8_11char_traitsIcEENS8_9allocatorIcEEEE"
  },
  {
   "name" : "_ZN4aidl7android8hardware5radio9messaging30IRadioMessagingResponseDefault22setSmscAddressResponseERKNS2_17RadioResponseInfoE"
  },
  {
   "name" : "_ZN4aidl7android8hardware5radio9messaging30IRadioMessagingResponseDefault22writeSmsToRuimResponseERKNS2_17RadioResponseInfoEi"
  },
  {
   "name" : "_ZN4aidl7android8hardware5radio9messaging30IRadioMessagingResponseDefault23deleteSmsOnRuimResponseERKNS2_17RadioResponseInfoE"
  },
  {
   "name" : "_ZN4aidl7android8hardware5radio9messaging30IRadioMessagingResponseDefault25sendSmsExpectMoreResponseERKNS2_17RadioResponseInfoERKNS3_13SendSmsResultE"
  },
  {
   "name" : "_ZN4aidl7android8hardware5radio9messaging30IRadioMessagingResponseDefault29getGsmBroadcastConfigResponseERKNS2_17RadioResponseInfoERKNSt3__16vectorINS3_25GsmBroadcastSmsConfigInfoENS8_9allocatorISA_EEEE"
  },
  {
   "name" : "_ZN4aidl7android8hardware5radio9messaging30IRadioMessagingResponseDefault29reportSmsMemoryStatusResponseERKNS2_17RadioResponseInfoE"
  },
  {
   "name" : "_ZN4aidl7android8hardware5radio9messaging30IRadioMessagingResponseDefault29sendCdmaSmsExpectMoreResponseERKNS2_17RadioResponseInfoERKNS3_13SendSmsResultE"
  },
  {
   "name" : "_ZN4aidl7android8hardware5radio9messaging30IRadioMessagingResponseDefault29setGsmBroadcastConfigResponseERKNS2_17RadioResponseInfoE"
  },
  {
   "name" : "_ZN4aidl7android8hardware5radio9messaging30IRadioMessagingResponseDefault30getCdmaBroadcastConfigResponseERKNS2_17RadioResponseInfoERKNSt3__16vectorINS3_26CdmaBroadcastSmsConfigInfoENS8_9allocatorISA_EEEE"
  },
  {
   "name" : "_ZN4aidl7android8hardware5radio9messaging30IRadioMessagingResponseDefault30setCdmaBroadcastConfigResponseERKNS2_17RadioResponseInfoE"
  },
  {
   "name" : "_ZN4aidl7android8hardware5radio9messaging30IRadioMessagingResponseDefault33setGsmBroadcastActivationResponseERKNS2_17RadioResponseInfoE"
  },
  {
   "name" : "_ZN4aidl7android8hardware5radio9messaging30IRadioMessagingResponseDefault34setCdmaBroadcastActivationResponseERKNS2_17RadioResponseInfoE"
  },
  {
   "name" : "_ZN4aidl7android8hardware5radio9messaging30IRadioMessagingResponseDefault37acknowledgeLastIncomingGsmSmsResponseERKNS2_17RadioResponseInfoE"
  },
  {
   "name" : "_ZN4aidl7android8hardware5radio9messaging30IRadioMessagingResponseDefault38acknowledgeLastIncomingCdmaSmsResponseERKNS2_17RadioResponseInfoE"
  },
  {
   "name" : "_ZN4aidl7android8hardware5radio9messaging30IRadioMessagingResponseDefault40acknowledgeIncomingGsmSmsWithPduResponseERKNS2_17RadioResponseInfoE"
  },
  {
   "name" : "_ZN4aidl7android8hardware5radio9messaging30IRadioMessagingResponseDefault8asBinderEv"
  },
  {
   "name" : "_ZN4aidl7android8hardware5radio9messaging30IRadioMessagingResponseDefault8isRemoteEv"
  },
  {
   "name" : "_ZN4aidl7android8hardware5radio9messaging32IRadioMessagingIndicationDefault10cdmaNewSmsENS2_19RadioIndicationTypeERKNS3_14CdmaSmsMessageE"
  },
  {
   "name" : "_ZN4aidl7android8hardware5radio9messaging32IRadioMessagingIndicationDefault11newSmsOnSimENS2_19RadioIndicationTypeEi"
  },
  {
   "name" : "_ZN4aidl7android8hardware5radio9messaging32IRadioMessagingIndicationDefault15newBroadcastSmsENS2_19RadioIndicationTypeERKNSt3__16vectorIhNS6_9allocatorIhEEEE"
  },
  {
   "name" : "_ZN4aidl7android8hardware5radio9messaging32IRadioMessagingIndicationDefault16getInterfaceHashEPNSt3__112basic_stringIcNS5_11char_traitsIcEENS5_9allocatorIcEEEE"
  },
  {
   "name" : "_ZN4aidl7android8hardware5radio9messaging32IRadioMessagingIndicationDefault17simSmsStorageFullENS2_19RadioIndicationTypeE"
  },
  {
   "name" : "_ZN4aidl7android8hardware5radio9messaging32IRadioMessagingIndicationDefault18newSmsStatusReportENS2_19RadioIndicationTypeERKNSt3__16vectorIhNS6_9allocatorIhEEEE"
  },
  {
   "name" : "_ZN4aidl7android8hardware5radio9messaging32IRadioMessagingIndicationDefault19getInterfaceVersionEPi"
  },
  {
   "name" : "_ZN4aidl7android8hardware5radio9messaging32IRadioMessagingIndicationDefault22cdmaRuimSmsStorageFullENS2_19RadioIndicationTypeE"
  },
  {
   "name" : "_ZN4aidl7android8hardware5radio9messaging32IRadioMessagingIndicationDefault6newSmsENS2_19RadioIndicationTypeERKNSt3__16vectorIhNS6_9allocatorIhEEEE"
  },
  {
   "name" : "_ZN4aidl7android8hardware5radio9messaging32IRadioMessagingIndicationDefault8asBinderEv"
  },
  {
   "name" : "_ZN4aidl7android8hardware5radio9messaging32IRadioMessagingIndicationDefault8isRemoteEv"
  },
  {
   "name" : "_ZNK4aidl7android8hardware5radio9messaging10CdmaSmsAck13writeToParcelEP7AParcel"
  },
  {
   "name" : "_ZNK4aidl7android8hardware5radio9messaging12SmsWriteArgs13writeToParcelEP7AParcel"
  },
  {
   "name" : "_ZNK4aidl7android8hardware5radio9messaging13GsmSmsMessage13writeToParcelEP7AParcel"
  },
  {
   "name" : "_ZNK4aidl7android8hardware5radio9messaging13ImsSmsMessage13writeToParcelEP7AParcel"
  },
  {
   "name" : "_ZNK4aidl7android8hardware5radio9messaging13SendSmsResult13writeToParcelEP7AParcel"
  },
  {
   "name" : "_ZNK4aidl7android8hardware5radio9messaging14CdmaSmsAddress13writeToParcelEP7AParcel"
  },
  {
   "name" : "_ZNK4aidl7android8hardware5radio9messaging14CdmaSmsMessage13writeToParcelEP7AParcel"
  },
  {
   "name" : "_ZNK4aidl7android8hardware5radio9messaging16CdmaSmsWriteArgs13writeToParcelEP7AParcel"
  },
  {
   "name" : "_ZNK4aidl7android8hardware5radio9messaging17CdmaSmsSubaddress13writeToParcelEP7AParcel"
  },
  {
   "name" : "_ZNK4aidl7android8hardware5radio9messaging25GsmBroadcastSmsConfigInfo13writeToParcelEP7AParcel"
  },
  {
   "name" : "_ZNK4aidl7android8hardware5radio9messaging26CdmaBroadcastSmsConfigInfo13writeToParcelEP7AParcel"
  },
  {
   "binding" : "weak",
   "name" : "_ZNSt3__110shared_ptrIN4aidl7android8hardware5radio9messaging15IRadioMessagingEED2Ev"
  },
  {
   "binding" : "weak",
   "name" : "_ZNSt3__110shared_ptrIN4aidl7android8hardware5radio9messaging23IRadioMessagingResponseEED2Ev"
  },
  {
   "binding" : "weak",
   "name" : "_ZNSt3__110shared_ptrIN4aidl7android8hardware5radio9messaging25IRadioMessagingIndicationEED2Ev"
  },
  {
   "binding" : "weak",
   "name" : "_ZNSt3__120__shared_ptr_pointerIPN3ndk13SharedRefBaseENS_14default_deleteIS2_EENS_9allocatorIS2_EEE16__on_zero_sharedEv"
  },
  {
   "binding" : "weak",
   "name" : "_ZNSt3__120__shared_ptr_pointerIPN3ndk13SharedRefBaseENS_14default_deleteIS2_EENS_9allocatorIS2_EEE21__on_zero_shared_weakEv"
  },
  {
   "binding" : "weak",
   "name" : "_ZNSt3__16vectorIN4aidl7android8hardware5radio9messaging13GsmSmsMessageENS_9allocatorIS6_EEE8__appendEj"
  },
  {
   "binding" : "weak",
   "name" : "_ZNSt3__16vectorIN4aidl7android8hardware5radio9messaging14CdmaSmsMessageENS_9allocatorIS6_EEE8__appendEj"
  },
  {
   "binding" : "weak",
   "name" : "_ZNSt3__16vectorIN4aidl7android8hardware5radio9messaging25GsmBroadcastSmsConfigInfoENS_9allocatorIS6_EEE8__appendEj"
  },
  {
   "binding" : "weak",
   "name" : "_ZNSt3__16vectorIN4aidl7android8hardware5radio9messaging26CdmaBroadcastSmsConfigInfoENS_9allocatorIS6_EEE8__appendEj"
  },
  {
   "binding" : "weak",
   "name" : "_ZNSt3__16vectorIaNS_9allocatorIaEEE8__appendEj"
  }
 ],
 "elf_objects" :
 [
  {
   "binding" : "weak",
   "name" : "_ZGVN4aidl7android8hardware5radio9messaging15IRadioMessaging4hashE"
  },
  {
   "binding" : "weak",
   "name" : "_ZGVN4aidl7android8hardware5radio9messaging23IRadioMessagingResponse4hashE"
  },
  {
   "binding" : "weak",
   "name" : "_ZGVN4aidl7android8hardware5radio9messaging25IRadioMessagingIndication4hashE"
  },
  {
   "name" : "_ZN4aidl7android8hardware5radio9messaging10CdmaSmsAck10descriptorE"
  },
  {
   "name" : "_ZN4aidl7android8hardware5radio9messaging12SmsWriteArgs10descriptorE"
  },
  {
   "name" : "_ZN4aidl7android8hardware5radio9messaging13GsmSmsMessage10descriptorE"
  },
  {
   "name" : "_ZN4aidl7android8hardware5radio9messaging13ImsSmsMessage10descriptorE"
  },
  {
   "name" : "_ZN4aidl7android8hardware5radio9messaging13SendSmsResult10descriptorE"
  },
  {
   "name" : "_ZN4aidl7android8hardware5radio9messaging14CdmaSmsAddress10descriptorE"
  },
  {
   "name" : "_ZN4aidl7android8hardware5radio9messaging14CdmaSmsMessage10descriptorE"
  },
  {
   "name" : "_ZN4aidl7android8hardware5radio9messaging15IRadioMessaging10descriptorE"
  },
  {
   "name" : "_ZN4aidl7android8hardware5radio9messaging15IRadioMessaging12default_implE"
  },
  {
   "binding" : "weak",
   "name" : "_ZN4aidl7android8hardware5radio9messaging15IRadioMessaging4hashE"
  },
  {
   "name" : "_ZN4aidl7android8hardware5radio9messaging16CdmaSmsWriteArgs10descriptorE"
  },
  {
   "name" : "_ZN4aidl7android8hardware5radio9messaging17CdmaSmsSubaddress10descriptorE"
  },
  {
   "name" : "_ZN4aidl7android8hardware5radio9messaging23IRadioMessagingResponse10descriptorE"
  },
  {
   "name" : "_ZN4aidl7android8hardware5radio9messaging23IRadioMessagingResponse12default_implE"
  },
  {
   "binding" : "weak",
   "name" : "_ZN4aidl7android8hardware5radio9messaging23IRadioMessagingResponse4hashE"
  },
  {
   "name" : "_ZN4aidl7android8hardware5radio9messaging25GsmBroadcastSmsConfigInfo10descriptorE"
  },
  {
   "name" : "_ZN4aidl7android8hardware5radio9messaging25IRadioMessagingIndication10descriptorE"
  },
  {
   "name" : "_ZN4aidl7android8hardware5radio9messaging25IRadioMessagingIndication12default_implE"
  },
  {
   "binding" : "weak",
   "name" : "_ZN4aidl7android8hardware5radio9messaging25IRadioMessagingIndication4hashE"
  },
  {
   "name" : "_ZN4aidl7android8hardware5radio9messaging26CdmaBroadcastSmsConfigInfo10descriptorE"
  },
  {
   "binding" : "weak",
   "name" : "_ZTVN3ndk12BnCInterfaceIN4aidl7android8hardware5radio9messaging15IRadioMessagingEEE"
  },
  {
   "binding" : "weak",
   "name" : "_ZTVN3ndk12BnCInterfaceIN4aidl7android8hardware5radio9messaging23IRadioMessagingResponseEEE"
  },
  {
   "binding" : "weak",
   "name" : "_ZTVN3ndk12BnCInterfaceIN4aidl7android8hardware5radio9messaging25IRadioMessagingIndicationEEE"
  },
  {
   "binding" : "weak",
   "name" : "_ZTVN3ndk12BpCInterfaceIN4aidl7android8hardware5radio9messaging15IRadioMessagingEEE"
  },
  {
   "binding" : "weak",
   "name" : "_ZTVN3ndk12BpCInterfaceIN4aidl7android8hardware5radio9messaging23IRadioMessagingResponseEEE"
  },
  {
   "binding" : "weak",
   "name" : "_ZTVN3ndk12BpCInterfaceIN4aidl7android8hardware5radio9messaging25IRadioMessagingIndicationEEE"
  },
  {
   "binding" : "weak",
   "name" : "_ZTVN3ndk13SharedRefBaseE"
  },
  {
   "name" : "_ZTVN4aidl7android8hardware5radio9messaging15IRadioMessagingE"
  },
  {
   "name" : "_ZTVN4aidl7android8hardware5radio9messaging16BnRadioMessagingE"
  },
  {
   "name" : "_ZTVN4aidl7android8hardware5radio9messaging16BpRadioMessagingE"
  },
  {
   "name" : "_ZTVN4aidl7android8hardware5radio9messaging22IRadioMessagingDefaultE"
  },
  {
   "name" : "_ZTVN4aidl7android8hardware5radio9messaging23IRadioMessagingResponseE"
  },
  {
   "name" : "_ZTVN4aidl7android8hardware5radio9messaging24BnRadioMessagingResponseE"
  },
  {
   "name" : "_ZTVN4aidl7android8hardware5radio9messaging24BpRadioMessagingResponseE"
  },
  {
   "name" : "_ZTVN4aidl7android8hardware5radio9messaging25IRadioMessagingIndicationE"
  },
  {
   "name" : "_ZTVN4aidl7android8hardware5radio9messaging26BnRadioMessagingIndicationE"
  },
  {
   "name" : "_ZTVN4aidl7android8hardware5radio9messaging26BpRadioMessagingIndicationE"
  },
  {
   "name" : "_ZTVN4aidl7android8hardware5radio9messaging30IRadioMessagingResponseDefaultE"
  },
  {
   "name" : "_ZTVN4aidl7android8hardware5radio9messaging32IRadioMessagingIndicationDefaultE"
  },
  {
   "binding" : "weak",
   "name" : "_ZTVNSt3__120__shared_ptr_pointerIPN3ndk13SharedRefBaseENS_14default_deleteIS2_EENS_9allocatorIS2_EEEE"
  }
 ],
 "enum_types" :
 [
  {
   "alignment" : 4,
   "enum_fields" :
   [
    {
     "enum_field_value" : 1,
     "name" : "FLAG_ONEWAY"
    }
   ],
   "linker_set_key" : "_ZTI12$FLAG_ONEWAY",
   "name" : "(unnamed enum at frameworks/native/libs/binder/ndk/include_ndk/android/binder_ibinder.h:43:1)",
   "referenced_type" : "_ZTI12$FLAG_ONEWAY",
   "self_type" : "_ZTI12$FLAG_ONEWAY",
   "size" : 4,
   "source_file" : "frameworks/native/libs/binder/ndk/include_ndk/android/binder_ibinder.h",
   "underlying_type" : "_ZTIj"
  },
  {
   "alignment" : 4,
   "enum_fields" :
   [
    {
     "enum_field_value" : 0,
     "name" : "EX_NONE"
    },
    {
     "enum_field_value" : -1,
     "name" : "EX_SECURITY"
    },
    {
     "enum_field_value" : -2,
     "name" : "EX_BAD_PARCELABLE"
    },
    {
     "enum_field_value" : -3,
     "name" : "EX_ILLEGAL_ARGUMENT"
    },
    {
     "enum_field_value" : -4,
     "name" : "EX_NULL_POINTER"
    },
    {
     "enum_field_value" : -5,
     "name" : "EX_ILLEGAL_STATE"
    },
    {
     "enum_field_value" : -6,
     "name" : "EX_NETWORK_MAIN_THREAD"
    },
    {
     "enum_field_value" : -7,
     "name" : "EX_UNSUPPORTED_OPERATION"
    },
    {
     "enum_field_value" : -8,
     "name" : "EX_SERVICE_SPECIFIC"
    },
    {
     "enum_field_value" : -9,
     "name" : "EX_PARCELABLE"
    },
    {
     "enum_field_value" : -129,
     "name" : "EX_TRANSACTION_FAILED"
    }
   ],
   "linker_set_key" : "_ZTI18$EX_BAD_PARCELABLE",
   "name" : "(unnamed enum at frameworks/native/libs/binder/ndk/include_ndk/android/binder_status.h:94:1)",
   "referenced_type" : "_ZTI18$EX_BAD_PARCELABLE",
   "self_type" : "_ZTI18$EX_BAD_PARCELABLE",
   "size" : 4,
   "source_file" : "frameworks/native/libs/binder/ndk/include_ndk/android/binder_status.h",
   "underlying_type" : "_ZTIi"
  },
  {
   "alignment" : 4,
   "enum_fields" :
   [
    {
     "enum_field_value" : 268435456,
     "name" : "FLAG_PRIVATE_LOCAL"
    }
   ],
   "linker_set_key" : "_ZTI19$FLAG_PRIVATE_LOCAL",
   "name" : "(unnamed enum at frameworks/native/libs/binder/ndk/include_platform/android/binder_stability.h:35:1)",
   "referenced_type" : "_ZTI19$FLAG_PRIVATE_LOCAL",
   "self_type" : "_ZTI19$FLAG_PRIVATE_LOCAL",
   "size" : 4,
   "source_file" : "frameworks/native/libs/binder/ndk/include_platform/android/binder_stability.h",
   "underlying_type" : "_ZTIj"
  },
  {
   "alignment" : 4,
   "enum_fields" :
   [
    {
     "enum_field_value" : 268435456,
     "name" : "FLAG_PRIVATE_VENDOR"
    }
   ],
   "linker_set_key" : "_ZTI20$FLAG_PRIVATE_VENDOR",
   "name" : "(unnamed enum at frameworks/native/libs/binder/ndk/include_platform/android/binder_stability.h:26:1)",
   "referenced_type" : "_ZTI20$FLAG_PRIVATE_VENDOR",
   "self_type" : "_ZTI20$FLAG_PRIVATE_VENDOR",
   "size" : 4,
   "source_file" : "frameworks/native/libs/binder/ndk/include_platform/android/binder_stability.h",
   "underlying_type" : "_ZTIj"
  },
  {
   "alignment" : 4,
   "enum_fields" :
   [
    {
     "enum_field_value" : 0,
     "name" : "STATUS_OK"
    },
    {
     "enum_field_value" : -2147483648,
     "name" : "STATUS_UNKNOWN_ERROR"
    },
    {
     "enum_field_value" : -12,
     "name" : "STATUS_NO_MEMORY"
    },
    {
     "enum_field_value" : -38,
     "name" : "STATUS_INVALID_OPERATION"
    },
    {
     "enum_field_value" : -22,
     "name" : "STATUS_BAD_VALUE"
    },
    {
     "enum_field_value" : -2147483647,
     "name" : "STATUS_BAD_TYPE"
    },
    {
     "enum_field_value" : -2,
     "name" : "STATUS_NAME_NOT_FOUND"
    },
    {
     "enum_field_value" : -1,
     "name" : "STATUS_PERMISSION_DENIED"
    },
    {
     "enum_field_value" : -19,
     "name" : "STATUS_NO_INIT"
    },
    {
     "enum_field_value" : -17,
     "name" : "STATUS_ALREADY_EXISTS"
    },
    {
     "enum_field_value" : -32,
     "name" : "STATUS_DEAD_OBJECT"
    },
    {
     "enum_field_value" : -2147483646,
     "name" : "STATUS_FAILED_TRANSACTION"
    },
    {
     "enum_field_value" : -75,
     "name" : "STATUS_BAD_INDEX"
    },
    {
     "enum_field_value" : -61,
     "name" : "STATUS_NOT_ENOUGH_DATA"
    },
    {
     "enum_field_value" : -11,
     "name" : "STATUS_WOULD_BLOCK"
    },
    {
     "enum_field_value" : -110,
     "name" : "STATUS_TIMED_OUT"
    },
    {
     "enum_field_value" : -74,
     "name" : "STATUS_UNKNOWN_TRANSACTION"
    },
    {
     "enum_field_value" : -2147483641,
     "name" : "STATUS_FDS_NOT_ALLOWED"
    },
    {
     "enum_field_value" : -2147483640,
     "name" : "STATUS_UNEXPECTED_NULL"
    }
   ],
   "linker_set_key" : "_ZTI22$STATUS_ALREADY_EXISTS",
   "name" : "(unnamed enum at frameworks/native/libs/binder/ndk/include_ndk/android/binder_status.h:60:1)",
   "referenced_type" : "_ZTI22$STATUS_ALREADY_EXISTS",
   "self_type" : "_ZTI22$STATUS_ALREADY_EXISTS",
   "size" : 4,
   "source_file" : "frameworks/native/libs/binder/ndk/include_ndk/android/binder_status.h",
   "underlying_type" : "_ZTIi"
  },
  {
   "alignment" : 4,
   "enum_fields" :
   [
    {
     "enum_field_value" : 1,
     "name" : "FIRST_CALL_TRANSACTION"
    },
    {
     "enum_field_value" : 16777215,
     "name" : "LAST_CALL_TRANSACTION"
    }
   ],
   "linker_set_key" : "_ZTI23$FIRST_CALL_TRANSACTION",
   "name" : "(unnamed enum at frameworks/native/libs/binder/ndk/include_ndk/android/binder_ibinder.h:58:1)",
   "referenced_type" : "_ZTI23$FIRST_CALL_TRANSACTION",
   "self_type" : "_ZTI23$FIRST_CALL_TRANSACTION",
   "size" : 4,
   "source_file" : "frameworks/native/libs/binder/ndk/include_ndk/android/binder_ibinder.h",
   "underlying_type" : "_ZTIj"
  },
  {
   "alignment" : 4,
   "enum_fields" :
   [
    {
     "enum_field_value" : 0,
     "name" : "ndk::STABILITY_LOCAL"
    },
    {
     "enum_field_value" : 1,
     "name" : "ndk::STABILITY_VINTF"
    }
   ],
   "linker_set_key" : "_ZTIN3ndk16$STABILITY_LOCALE",
   "name" : "ndk::(unnamed enum at frameworks/native/libs/binder/ndk/include_cpp/android/binder_parcelable_utils.h:34:1)",
   "referenced_type" : "_ZTIN3ndk16$STABILITY_LOCALE",
   "self_type" : "_ZTIN3ndk16$STABILITY_LOCALE",
   "size" : 4,
   "source_file" : "frameworks/native/libs/binder/ndk/include_cpp/android/binder_parcelable_utils.h",
   "underlying_type" : "_ZTIj"
  },
  {
   "alignment" : 4,
   "enum_fields" :
   [
    {
     "enum_field_value" : 0,
     "name" : "aidl::android::hardware::radio::RadioError::NONE"
    },
    {
     "enum_field_value" : 1,
     "name" : "aidl::android::hardware::radio::RadioError::RADIO_NOT_AVAILABLE"
    },
    {
     "enum_field_value" : 2,
     "name" : "aidl::android::hardware::radio::RadioError::GENERIC_FAILURE"
    },
    {
     "enum_field_value" : 3,
     "name" : "aidl::android::hardware::radio::RadioError::PASSWORD_INCORRECT"
    },
    {
     "enum_field_value" : 4,
     "name" : "aidl::android::hardware::radio::RadioError::SIM_PIN2"
    },
    {
     "enum_field_value" : 5,
     "name" : "aidl::android::hardware::radio::RadioError::SIM_PUK2"
    },
    {
     "enum_field_value" : 6,
     "name" : "aidl::android::hardware::radio::RadioError::REQUEST_NOT_SUPPORTED"
    },
    {
     "enum_field_value" : 7,
     "name" : "aidl::android::hardware::radio::RadioError::CANCELLED"
    },
    {
     "enum_field_value" : 8,
     "name" : "aidl::android::hardware::radio::RadioError::OP_NOT_ALLOWED_DURING_VOICE_CALL"
    },
    {
     "enum_field_value" : 9,
     "name" : "aidl::android::hardware::radio::RadioError::OP_NOT_ALLOWED_BEFORE_REG_TO_NW"
    },
    {
     "enum_field_value" : 10,
     "name" : "aidl::android::hardware::radio::RadioError::SMS_SEND_FAIL_RETRY"
    },
    {
     "enum_field_value" : 11,
     "name" : "aidl::android::hardware::radio::RadioError::SIM_ABSENT"
    },
    {
     "enum_field_value" : 12,
     "name" : "aidl::android::hardware::radio::RadioError::SUBSCRIPTION_NOT_AVAILABLE"
    },
    {
     "enum_field_value" : 13,
     "name" : "aidl::android::hardware::radio::RadioError::MODE_NOT_SUPPORTED"
    },
    {
     "enum_field_value" : 14,
     "name" : "aidl::android::hardware::radio::RadioError::FDN_CHECK_FAILURE"
    },
    {
     "enum_field_value" : 15,
     "name" : "aidl::android::hardware::radio::RadioError::ILLEGAL_SIM_OR_ME"
    },
    {
     "enum_field_value" : 16,
     "name" : "aidl::android::hardware::radio::RadioError::MISSING_RESOURCE"
    },
    {
     "enum_field_value" : 17,
     "name" : "aidl::android::hardware::radio::RadioError::NO_SUCH_ELEMENT"
    },
    {
     "enum_field_value" : 18,
     "name" : "aidl::android::hardware::radio::RadioError::DIAL_MODIFIED_TO_USSD"
    },
    {
     "enum_field_value" : 19,
     "name" : "aidl::android::hardware::radio::RadioError::DIAL_MODIFIED_TO_SS"
    },
    {
     "enum_field_value" : 20,
     "name" : "aidl::android::hardware::radio::RadioError::DIAL_MODIFIED_TO_DIAL"
    },
    {
     "enum_field_value" : 21,
     "name" : "aidl::android::hardware::radio::RadioError::USSD_MODIFIED_TO_DIAL"
    },
    {
     "enum_field_value" : 22,
     "name" : "aidl::android::hardware::radio::RadioError::USSD_MODIFIED_TO_SS"
    },
    {
     "enum_field_value" : 23,
     "name" : "aidl::android::hardware::radio::RadioError::USSD_MODIFIED_TO_USSD"
    },
    {
     "enum_field_value" : 24,
     "name" : "aidl::android::hardware::radio::RadioError::SS_MODIFIED_TO_DIAL"
    },
    {
     "enum_field_value" : 25,
     "name" : "aidl::android::hardware::radio::RadioError::SS_MODIFIED_TO_USSD"
    },
    {
     "enum_field_value" : 26,
     "name" : "aidl::android::hardware::radio::RadioError::SUBSCRIPTION_NOT_SUPPORTED"
    },
    {
     "enum_field_value" : 27,
     "name" : "aidl::android::hardware::radio::RadioError::SS_MODIFIED_TO_SS"
    },
    {
     "enum_field_value" : 36,
     "name" : "aidl::android::hardware::radio::RadioError::LCE_NOT_SUPPORTED"
    },
    {
     "enum_field_value" : 37,
     "name" : "aidl::android::hardware::radio::RadioError::NO_MEMORY"
    },
    {
     "enum_field_value" : 38,
     "name" : "aidl::android::hardware::radio::RadioError::INTERNAL_ERR"
    },
    {
     "enum_field_value" : 39,
     "name" : "aidl::android::hardware::radio::RadioError::SYSTEM_ERR"
    },
    {
     "enum_field_value" : 40,
     "name" : "aidl::android::hardware::radio::RadioError::MODEM_ERR"
    },
    {
     "enum_field_value" : 41,
     "name" : "aidl::android::hardware::radio::RadioError::INVALID_STATE"
    },
    {
     "enum_field_value" : 42,
     "name" : "aidl::android::hardware::radio::RadioError::NO_RESOURCES"
    },
    {
     "enum_field_value" : 43,
     "name" : "aidl::android::hardware::radio::RadioError::SIM_ERR"
    },
    {
     "enum_field_value" : 44,
     "name" : "aidl::android::hardware::radio::RadioError::INVALID_ARGUMENTS"
    },
    {
     "enum_field_value" : 45,
     "name" : "aidl::android::hardware::radio::RadioError::INVALID_SIM_STATE"
    },
    {
     "enum_field_value" : 46,
     "name" : "aidl::android::hardware::radio::RadioError::INVALID_MODEM_STATE"
    },
    {
     "enum_field_value" : 47,
     "name" : "aidl::android::hardware::radio::RadioError::INVALID_CALL_ID"
    },
    {
     "enum_field_value" : 48,
     "name" : "aidl::android::hardware::radio::RadioError::NO_SMS_TO_ACK"
    },
    {
     "enum_field_value" : 49,
     "name" : "aidl::android::hardware::radio::RadioError::NETWORK_ERR"
    },
    {
     "enum_field_value" : 50,
     "name" : "aidl::android::hardware::radio::RadioError::REQUEST_RATE_LIMITED"
    },
    {
     "enum_field_value" : 51,
     "name" : "aidl::android::hardware::radio::RadioError::SIM_BUSY"
    },
    {
     "enum_field_value" : 52,
     "name" : "aidl::android::hardware::radio::RadioError::SIM_FULL"
    },
    {
     "enum_field_value" : 53,
     "name" : "aidl::android::hardware::radio::RadioError::NETWORK_REJECT"
    },
    {
     "enum_field_value" : 54,
     "name" : "aidl::android::hardware::radio::RadioError::OPERATION_NOT_ALLOWED"
    },
    {
     "enum_field_value" : 55,
     "name" : "aidl::android::hardware::radio::RadioError::EMPTY_RECORD"
    },
    {
     "enum_field_value" : 56,
     "name" : "aidl::android::hardware::radio::RadioError::INVALID_SMS_FORMAT"
    },
    {
     "enum_field_value" : 57,
     "name" : "aidl::android::hardware::radio::RadioError::ENCODING_ERR"
    },
    {
     "enum_field_value" : 58,
     "name" : "aidl::android::hardware::radio::RadioError::INVALID_SMSC_ADDRESS"
    },
    {
     "enum_field_value" : 59,
     "name" : "aidl::android::hardware::radio::RadioError::NO_SUCH_ENTRY"
    },
    {
     "enum_field_value" : 60,
     "name" : "aidl::android::hardware::radio::RadioError::NETWORK_NOT_READY"
    },
    {
     "enum_field_value" : 61,
     "name" : "aidl::android::hardware::radio::RadioError::NOT_PROVISIONED"
    },
    {
     "enum_field_value" : 62,
     "name" : "aidl::android::hardware::radio::RadioError::NO_SUBSCRIPTION"
    },
    {
     "enum_field_value" : 63,
     "name" : "aidl::android::hardware::radio::RadioError::NO_NETWORK_FOUND"
    },
    {
     "enum_field_value" : 64,
     "name" : "aidl::android::hardware::radio::RadioError::DEVICE_IN_USE"
    },
    {
     "enum_field_value" : 65,
     "name" : "aidl::android::hardware::radio::RadioError::ABORTED"
    },
    {
     "enum_field_value" : 66,
     "name" : "aidl::android::hardware::radio::RadioError::INVALID_RESPONSE"
    },
    {
     "enum_field_value" : 501,
     "name" : "aidl::android::hardware::radio::RadioError::OEM_ERROR_1"
    },
    {
     "enum_field_value" : 502,
     "name" : "aidl::android::hardware::radio::RadioError::OEM_ERROR_2"
    },
    {
     "enum_field_value" : 503,
     "name" : "aidl::android::hardware::radio::RadioError::OEM_ERROR_3"
    },
    {
     "enum_field_value" : 504,
     "name" : "aidl::android::hardware::radio::RadioError::OEM_ERROR_4"
    },
    {
     "enum_field_value" : 505,
     "name" : "aidl::android::hardware::radio::RadioError::OEM_ERROR_5"
    },
    {
     "enum_field_value" : 506,
     "name" : "aidl::android::hardware::radio::RadioError::OEM_ERROR_6"
    },
    {
     "enum_field_value" : 507,
     "name" : "aidl::android::hardware::radio::RadioError::OEM_ERROR_7"
    },
    {
     "enum_field_value" : 508,
     "name" : "aidl::android::hardware::radio::RadioError::OEM_ERROR_8"
    },
    {
     "enum_field_value" : 509,
     "name" : "aidl::android::hardware::radio::RadioError::OEM_ERROR_9"
    },
    {
     "enum_field_value" : 510,
     "name" : "aidl::android::hardware::radio::RadioError::OEM_ERROR_10"
    },
    {
     "enum_field_value" : 511,
     "name" : "aidl::android::hardware::radio::RadioError::OEM_ERROR_11"
    },
    {
     "enum_field_value" : 512,
     "name" : "aidl::android::hardware::radio::RadioError::OEM_ERROR_12"
    },
    {
     "enum_field_value" : 513,
     "name" : "aidl::android::hardware::radio::RadioError::OEM_ERROR_13"
    },
    {
     "enum_field_value" : 514,
     "name" : "aidl::android::hardware::radio::RadioError::OEM_ERROR_14"
    },
    {
     "enum_field_value" : 515,
     "name" : "aidl::android::hardware::radio::RadioError::OEM_ERROR_15"
    },
    {
     "enum_field_value" : 516,
     "name" : "aidl::android::hardware::radio::RadioError::OEM_ERROR_16"
    },
    {
     "enum_field_value" : 517,
     "name" : "aidl::android::hardware::radio::RadioError::OEM_ERROR_17"
    },
    {
     "enum_field_value" : 518,
     "name" : "aidl::android::hardware::radio::RadioError::OEM_ERROR_18"
    },
    {
     "enum_field_value" : 519,
     "name" : "aidl::android::hardware::radio::RadioError::OEM_ERROR_19"
    },
    {
     "enum_field_value" : 520,
     "name" : "aidl::android::hardware::radio::RadioError::OEM_ERROR_20"
    },
    {
     "enum_field_value" : 521,
     "name" : "aidl::android::hardware::radio::RadioError::OEM_ERROR_21"
    },
    {
     "enum_field_value" : 522,
     "name" : "aidl::android::hardware::radio::RadioError::OEM_ERROR_22"
    },
    {
     "enum_field_value" : 523,
     "name" : "aidl::android::hardware::radio::RadioError::OEM_ERROR_23"
    },
    {
     "enum_field_value" : 524,
     "name" : "aidl::android::hardware::radio::RadioError::OEM_ERROR_24"
    },
    {
     "enum_field_value" : 525,
     "name" : "aidl::android::hardware::radio::RadioError::OEM_ERROR_25"
    },
    {
     "enum_field_value" : 67,
     "name" : "aidl::android::hardware::radio::RadioError::SIMULTANEOUS_SMS_AND_CALL_NOT_ALLOWED"
    },
    {
     "enum_field_value" : 68,
     "name" : "aidl::android::hardware::radio::RadioError::ACCESS_BARRED"
    },
    {
     "enum_field_value" : 69,
     "name" : "aidl::android::hardware::radio::RadioError::BLOCKED_DUE_TO_CALL"
    },
    {
     "enum_field_value" : 70,
     "name" : "aidl::android::hardware::radio::RadioError::RF_HARDWARE_ISSUE"
    },
    {
     "enum_field_value" : 71,
     "name" : "aidl::android::hardware::radio::RadioError::NO_RF_CALIBRATION_INFO"
    }
   ],
   "linker_set_key" : "_ZTIN4aidl7android8hardware5radio10RadioErrorE",
   "name" : "aidl::android::hardware::radio::RadioError",
   "referenced_type" : "_ZTIN4aidl7android8hardware5radio10RadioErrorE",
   "self_type" : "_ZTIN4aidl7android8hardware5radio10RadioErrorE",
   "size" : 4,
   "source_file" : "out/soong/.intermediates/hardware/interfaces/radio/aidl/android.hardware.radio-V1-ndk-source/gen/include/aidl/android/hardware/radio/RadioError.h",
   "underlying_type" : "_ZTIi"
  },
  {
   "alignment" : 4,
   "enum_fields" :
   [
    {
     "enum_field_value" : 0,
     "name" : "aidl::android::hardware::radio::RadioResponseType::SOLICITED"
    },
    {
     "enum_field_value" : 1,
     "name" : "aidl::android::hardware::radio::RadioResponseType::SOLICITED_ACK"
    },
    {
     "enum_field_value" : 2,
     "name" : "aidl::android::hardware::radio::RadioResponseType::SOLICITED_ACK_EXP"
    }
   ],
   "linker_set_key" : "_ZTIN4aidl7android8hardware5radio17RadioResponseTypeE",
   "name" : "aidl::android::hardware::radio::RadioResponseType",
   "referenced_type" : "_ZTIN4aidl7android8hardware5radio17RadioResponseTypeE",
   "self_type" : "_ZTIN4aidl7android8hardware5radio17RadioResponseTypeE",
   "size" : 4,
   "source_file" : "out/soong/.intermediates/hardware/interfaces/radio/aidl/android.hardware.radio-V1-ndk-source/gen/include/aidl/android/hardware/radio/RadioResponseType.h",
   "underlying_type" : "_ZTIi"
  },
  {
   "alignment" : 4,
   "enum_fields" :
   [
    {
     "enum_field_value" : 0,
     "name" : "aidl::android::hardware::radio::RadioIndicationType::UNSOLICITED"
    },
    {
     "enum_field_value" : 1,
     "name" : "aidl::android::hardware::radio::RadioIndicationType::UNSOLICITED_ACK_EXP"
    }
   ],
   "linker_set_key" : "_ZTIN4aidl7android8hardware5radio19RadioIndicationTypeE",
   "name" : "aidl::android::hardware::radio::RadioIndicationType",
   "referenced_type" : "_ZTIN4aidl7android8hardware5radio19RadioIndicationTypeE",
   "self_type" : "_ZTIN4aidl7android8hardware5radio19RadioIndicationTypeE",
   "size" : 4,
   "source_file" : "out/soong/.intermediates/hardware/interfaces/radio/aidl/android.hardware.radio-V1-ndk-source/gen/include/aidl/android/hardware/radio/RadioIndicationType.h",
   "underlying_type" : "_ZTIi"
  },
  {
   "alignment" : 4,
   "enum_fields" :
   [
    {
     "enum_field_value" : 0,
     "name" : "aidl::android::hardware::radio::RadioTechnologyFamily::THREE_GPP"
    },
    {
     "enum_field_value" : 1,
     "name" : "aidl::android::hardware::radio::RadioTechnologyFamily::THREE_GPP2"
    }
   ],
   "linker_set_key" : "_ZTIN4aidl7android8hardware5radio21RadioTechnologyFamilyE",
   "name" : "aidl::android::hardware::radio::RadioTechnologyFamily",
   "referenced_type" : "_ZTIN4aidl7android8hardware5radio21RadioTechnologyFamilyE",
   "self_type" : "_ZTIN4aidl7android8hardware5radio21RadioTechnologyFamilyE",
   "size" : 4,
   "source_file" : "out/soong/.intermediates/hardware/interfaces/radio/aidl/android.hardware.radio-V1-ndk-source/gen/include/aidl/android/hardware/radio/RadioTechnologyFamily.h",
   "underlying_type" : "_ZTIi"
  },
  {
   "alignment" : 4,
   "enum_fields" :
   [
    {
     "enum_field_value" : 1,
     "name" : "aidl::android::hardware::radio::messaging::SmsWriteArgs::STATUS_REC_READ"
    }
   ],
   "linker_set_key" : "_ZTIN4aidl7android8hardware5radio9messaging12SmsWriteArgs16$STATUS_REC_READE",
   "name" : "aidl::android::hardware::radio::messaging::SmsWriteArgs::(unnamed enum at out/soong/.intermediates/hardware/interfaces/radio/aidl/android.hardware.radio.messaging-V1-ndk-source/gen/include/aidl/android/hardware/radio/messaging/SmsWriteArgs.h:53:3)",
   "referenced_type" : "_ZTIN4aidl7android8hardware5radio9messaging12SmsWriteArgs16$STATUS_REC_READE",
   "self_type" : "_ZTIN4aidl7android8hardware5radio9messaging12SmsWriteArgs16$STATUS_REC_READE",
   "size" : 4,
   "source_file" : "out/soong/.intermediates/hardware/interfaces/radio/aidl/android.hardware.radio.messaging-V1-ndk-source/gen/include/aidl/android/hardware/radio/messaging/SmsWriteArgs.h",
   "underlying_type" : "_ZTIi"
  },
  {
   "alignment" : 4,
   "enum_fields" :
   [
    {
     "enum_field_value" : 3,
     "name" : "aidl::android::hardware::radio::messaging::SmsWriteArgs::STATUS_STO_SENT"
    }
   ],
   "linker_set_key" : "_ZTIN4aidl7android8hardware5radio9messaging12SmsWriteArgs16$STATUS_STO_SENTE",
   "name" : "aidl::android::hardware::radio::messaging::SmsWriteArgs::(unnamed enum at out/soong/.intermediates/hardware/interfaces/radio/aidl/android.hardware.radio.messaging-V1-ndk-source/gen/include/aidl/android/hardware/radio/messaging/SmsWriteArgs.h:55:3)",
   "referenced_type" : "_ZTIN4aidl7android8hardware5radio9messaging12SmsWriteArgs16$STATUS_STO_SENTE",
   "self_type" : "_ZTIN4aidl7android8hardware5radio9messaging12SmsWriteArgs16$STATUS_STO_SENTE",
   "size" : 4,
   "source_file" : "out/soong/.intermediates/hardware/interfaces/radio/aidl/android.hardware.radio.messaging-V1-ndk-source/gen/include/aidl/android/hardware/radio/messaging/SmsWriteArgs.h",
   "underlying_type" : "_ZTIi"
  },
  {
   "alignment" : 4,
   "enum_fields" :
   [
    {
     "enum_field_value" : 0,
     "name" : "aidl::android::hardware::radio::messaging::SmsWriteArgs::STATUS_REC_UNREAD"
    }
   ],
   "linker_set_key" : "_ZTIN4aidl7android8hardware5radio9messaging12SmsWriteArgs18$STATUS_REC_UNREADE",
   "name" : "aidl::android::hardware::radio::messaging::SmsWriteArgs::(unnamed enum at out/soong/.intermediates/hardware/interfaces/radio/aidl/android.hardware.radio.messaging-V1-ndk-source/gen/include/aidl/android/hardware/radio/messaging/SmsWriteArgs.h:52:3)",
   "referenced_type" : "_ZTIN4aidl7android8hardware5radio9messaging12SmsWriteArgs18$STATUS_REC_UNREADE",
   "self_type" : "_ZTIN4aidl7android8hardware5radio9messaging12SmsWriteArgs18$STATUS_REC_UNREADE",
   "size" : 4,
   "source_file" : "out/soong/.intermediates/hardware/interfaces/radio/aidl/android.hardware.radio.messaging-V1-ndk-source/gen/include/aidl/android/hardware/radio/messaging/SmsWriteArgs.h",
   "underlying_type" : "_ZTIi"
  },
  {
   "alignment" : 4,
   "enum_fields" :
   [
    {
     "enum_field_value" : 2,
     "name" : "aidl::android::hardware::radio::messaging::SmsWriteArgs::STATUS_STO_UNSENT"
    }
   ],
   "linker_set_key" : "_ZTIN4aidl7android8hardware5radio9messaging12SmsWriteArgs18$STATUS_STO_UNSENTE",
   "name" : "aidl::android::hardware::radio::messaging::SmsWriteArgs::(unnamed enum at out/soong/.intermediates/hardware/interfaces/radio/aidl/android.hardware.radio.messaging-V1-ndk-source/gen/include/aidl/android/hardware/radio/messaging/SmsWriteArgs.h:54:3)",
   "referenced_type" : "_ZTIN4aidl7android8hardware5radio9messaging12SmsWriteArgs18$STATUS_STO_UNSENTE",
   "self_type" : "_ZTIN4aidl7android8hardware5radio9messaging12SmsWriteArgs18$STATUS_STO_UNSENTE",
   "size" : 4,
   "source_file" : "out/soong/.intermediates/hardware/interfaces/radio/aidl/android.hardware.radio.messaging-V1-ndk-source/gen/include/aidl/android/hardware/radio/messaging/SmsWriteArgs.h",
   "underlying_type" : "_ZTIi"
  },
  {
   "alignment" : 4,
   "enum_fields" :
   [
    {
     "enum_field_value" : 3,
     "name" : "aidl::android::hardware::radio::messaging::CdmaSmsAddress::NUMBER_PLAN_DATA"
    }
   ],
   "linker_set_key" : "_ZTIN4aidl7android8hardware5radio9messaging14CdmaSmsAddress17$NUMBER_PLAN_DATAE",
   "name" : "aidl::android::hardware::radio::messaging::CdmaSmsAddress::(unnamed enum at out/soong/.intermediates/hardware/interfaces/radio/aidl/android.hardware.radio.messaging-V1-ndk-source/gen/include/aidl/android/hardware/radio/messaging/CdmaSmsAddress.h:59:3)",
   "referenced_type" : "_ZTIN4aidl7android8hardware5radio9messaging14CdmaSmsAddress17$NUMBER_PLAN_DATAE",
   "self_type" : "_ZTIN4aidl7android8hardware5radio9messaging14CdmaSmsAddress17$NUMBER_PLAN_DATAE",
   "size" : 4,
   "source_file" : "out/soong/.intermediates/hardware/interfaces/radio/aidl/android.hardware.radio.messaging-V1-ndk-source/gen/include/aidl/android/hardware/radio/messaging/CdmaSmsAddress.h",
   "underlying_type" : "_ZTIi"
  },
  {
   "alignment" : 4,
   "enum_fields" :
   [
    {
     "enum_field_value" : 4,
     "name" : "aidl::android::hardware::radio::messaging::CdmaSmsAddress::NUMBER_PLAN_TELEX"
    }
   ],
   "linker_set_key" : "_ZTIN4aidl7android8hardware5radio9messaging14CdmaSmsAddress18$NUMBER_PLAN_TELEXE",
   "name" : "aidl::android::hardware::radio::messaging::CdmaSmsAddress::(unnamed enum at out/soong/.intermediates/hardware/interfaces/radio/aidl/android.hardware.radio.messaging-V1-ndk-source/gen/include/aidl/android/hardware/radio/messaging/CdmaSmsAddress.h:60:3)",
   "referenced_type" : "_ZTIN4aidl7android8hardware5radio9messaging14CdmaSmsAddress18$NUMBER_PLAN_TELEXE",
   "self_type" : "_ZTIN4aidl7android8hardware5radio9messaging14CdmaSmsAddress18$NUMBER_PLAN_TELEXE",
   "size" : 4,
   "source_file" : "out/soong/.intermediates/hardware/interfaces/radio/aidl/android.hardware.radio.messaging-V1-ndk-source/gen/include/aidl/android/hardware/radio/messaging/CdmaSmsAddress.h",
   "underlying_type" : "_ZTIi"
  },
  {
   "alignment" : 4,
   "enum_fields" :
   [
    {
     "enum_field_value" : 0,
     "name" : "aidl::android::hardware::radio::messaging::CdmaSmsAddress::DIGIT_MODE_FOUR_BIT"
    }
   ],
   "linker_set_key" : "_ZTIN4aidl7android8hardware5radio9messaging14CdmaSmsAddress20$DIGIT_MODE_FOUR_BITE",
   "name" : "aidl::android::hardware::radio::messaging::CdmaSmsAddress::(unnamed enum at out/soong/.intermediates/hardware/interfaces/radio/aidl/android.hardware.radio.messaging-V1-ndk-source/gen/include/aidl/android/hardware/radio/messaging/CdmaSmsAddress.h:54:3)",
   "referenced_type" : "_ZTIN4aidl7android8hardware5radio9messaging14CdmaSmsAddress20$DIGIT_MODE_FOUR_BITE",
   "self_type" : "_ZTIN4aidl7android8hardware5radio9messaging14CdmaSmsAddress20$DIGIT_MODE_FOUR_BITE",
   "size" : 4,
   "source_file" : "out/soong/.intermediates/hardware/interfaces/radio/aidl/android.hardware.radio.messaging-V1-ndk-source/gen/include/aidl/android/hardware/radio/messaging/CdmaSmsAddress.h",
   "underlying_type" : "_ZTIi"
  },
  {
   "alignment" : 4,
   "enum_fields" :
   [
    {
     "enum_field_value" : 9,
     "name" : "aidl::android::hardware::radio::messaging::CdmaSmsAddress::NUMBER_PLAN_PRIVATE"
    }
   ],
   "linker_set_key" : "_ZTIN4aidl7android8hardware5radio9messaging14CdmaSmsAddress20$NUMBER_PLAN_PRIVATEE",
   "name" : "aidl::android::hardware::radio::messaging::CdmaSmsAddress::(unnamed enum at out/soong/.intermediates/hardware/interfaces/radio/aidl/android.hardware.radio.messaging-V1-ndk-source/gen/include/aidl/android/hardware/radio/messaging/CdmaSmsAddress.h:65:3)",
   "referenced_type" : "_ZTIN4aidl7android8hardware5radio9messaging14CdmaSmsAddress20$NUMBER_PLAN_PRIVATEE",
   "self_type" : "_ZTIN4aidl7android8hardware5radio9messaging14CdmaSmsAddress20$NUMBER_PLAN_PRIVATEE",
   "size" : 4,
   "source_file" : "out/soong/.intermediates/hardware/interfaces/radio/aidl/android.hardware.radio.messaging-V1-ndk-source/gen/include/aidl/android/hardware/radio/messaging/CdmaSmsAddress.h",
   "underlying_type" : "_ZTIi"
  },
  {
   "alignment" : 4,
   "enum_fields" :
   [
    {
     "enum_field_value" : 0,
     "name" : "aidl::android::hardware::radio::messaging::CdmaSmsAddress::NUMBER_PLAN_UNKNOWN"
    }
   ],
   "linker_set_key" : "_ZTIN4aidl7android8hardware5radio9messaging14CdmaSmsAddress20$NUMBER_PLAN_UNKNOWNE",
   "name" : "aidl::android::hardware::radio::messaging::CdmaSmsAddress::(unnamed enum at out/soong/.intermediates/hardware/interfaces/radio/aidl/android.hardware.radio.messaging-V1-ndk-source/gen/include/aidl/android/hardware/radio/messaging/CdmaSmsAddress.h:56:3)",
   "referenced_type" : "_ZTIN4aidl7android8hardware5radio9messaging14CdmaSmsAddress20$NUMBER_PLAN_UNKNOWNE",
   "self_type" : "_ZTIN4aidl7android8hardware5radio9messaging14CdmaSmsAddress20$NUMBER_PLAN_UNKNOWNE",
   "size" : 4,
   "source_file" : "out/soong/.intermediates/hardware/interfaces/radio/aidl/android.hardware.radio.messaging-V1-ndk-source/gen/include/aidl/android/hardware/radio/messaging/CdmaSmsAddress.h",
   "underlying_type" : "_ZTIi"
  },
  {
   "alignment" : 4,
   "enum_fields" :
   [
    {
     "enum_field_value" : 3,
     "name" : "aidl::android::hardware::radio::messaging::CdmaSmsAddress::NUMBER_TYPE_NETWORK"
    }
   ],
   "linker_set_key" : "_ZTIN4aidl7android8hardware5radio9messaging14CdmaSmsAddress20$NUMBER_TYPE_NETWORKE",
   "name" : "aidl::android::hardware::radio::messaging::CdmaSmsAddress::(unnamed enum at out/soong/.intermediates/hardware/interfaces/radio/aidl/android.hardware.radio.messaging-V1-ndk-source/gen/include/aidl/android/hardware/radio/messaging/CdmaSmsAddress.h:75:3)",
   "referenced_type" : "_ZTIN4aidl7android8hardware5radio9messaging14CdmaSmsAddress20$NUMBER_TYPE_NETWORKE",
   "self_type" : "_ZTIN4aidl7android8hardware5radio9messaging14CdmaSmsAddress20$NUMBER_TYPE_NETWORKE",
   "size" : 4,
   "source_file" : "out/soong/.intermediates/hardware/interfaces/radio/aidl/android.hardware.radio.messaging-V1-ndk-source/gen/include/aidl/android/hardware/radio/messaging/CdmaSmsAddress.h",
   "underlying_type" : "_ZTIi"
  },
  {
   "alignment" : 4,
   "enum_fields" :
   [
    {
     "enum_field_value" : 0,
     "name" : "aidl::android::hardware::radio::messaging::CdmaSmsAddress::NUMBER_TYPE_UNKNOWN"
    }
   ],
   "linker_set_key" : "_ZTIN4aidl7android8hardware5radio9messaging14CdmaSmsAddress20$NUMBER_TYPE_UNKNOWNE",
   "name" : "aidl::android::hardware::radio::messaging::CdmaSmsAddress::(unnamed enum at out/soong/.intermediates/hardware/interfaces/radio/aidl/android.hardware.radio.messaging-V1-ndk-source/gen/include/aidl/android/hardware/radio/messaging/CdmaSmsAddress.h:72:3)",
   "referenced_type" : "_ZTIN4aidl7android8hardware5radio9messaging14CdmaSmsAddress20$NUMBER_TYPE_UNKNOWNE",
   "self_type" : "_ZTIN4aidl7android8hardware5radio9messaging14CdmaSmsAddress20$NUMBER_TYPE_UNKNOWNE",
   "size" : 4,
   "source_file" : "out/soong/.intermediates/hardware/interfaces/radio/aidl/android.hardware.radio.messaging-V1-ndk-source/gen/include/aidl/android/hardware/radio/messaging/CdmaSmsAddress.h",
   "underlying_type" : "_ZTIi"
  },
  {
   "alignment" : 4,
   "enum_fields" :
   [
    {
     "enum_field_value" : 1,
     "name" : "aidl::android::hardware::radio::messaging::CdmaSmsAddress::DIGIT_MODE_EIGHT_BIT"
    }
   ],
   "linker_set_key" : "_ZTIN4aidl7android8hardware5radio9messaging14CdmaSmsAddress21$DIGIT_MODE_EIGHT_BITE",
   "name" : "aidl::android::hardware::radio::messaging::CdmaSmsAddress::(unnamed enum at out/soong/.intermediates/hardware/interfaces/radio/aidl/android.hardware.radio.messaging-V1-ndk-source/gen/include/aidl/android/hardware/radio/messaging/CdmaSmsAddress.h:55:3)",
   "referenced_type" : "_ZTIN4aidl7android8hardware5radio9messaging14CdmaSmsAddress21$DIGIT_MODE_EIGHT_BITE",
   "self_type" : "_ZTIN4aidl7android8hardware5radio9messaging14CdmaSmsAddress21$DIGIT_MODE_EIGHT_BITE",
   "size" : 4,
   "source_file" : "out/soong/.intermediates/hardware/interfaces/radio/aidl/android.hardware.radio.messaging-V1-ndk-source/gen/include/aidl/android/hardware/radio/messaging/CdmaSmsAddress.h",
   "underlying_type" : "_ZTIi"
  },
  {
   "alignment" : 4,
   "enum_fields" :
   [
    {
     "enum_field_value" : 1,
     "name" : "aidl::android::hardware::radio::messaging::CdmaSmsAddress::NUMBER_PLAN_TELEPHONY"
    }
   ],
   "linker_set_key" : "_ZTIN4aidl7android8hardware5radio9messaging14CdmaSmsAddress22$NUMBER_PLAN_TELEPHONYE",
   "name" : "aidl::android::hardware::radio::messaging::CdmaSmsAddress::(unnamed enum at out/soong/.intermediates/hardware/interfaces/radio/aidl/android.hardware.radio.messaging-V1-ndk-source/gen/include/aidl/android/hardware/radio/messaging/CdmaSmsAddress.h:57:3)",
   "referenced_type" : "_ZTIN4aidl7android8hardware5radio9messaging14CdmaSmsAddress22$NUMBER_PLAN_TELEPHONYE",
   "self_type" : "_ZTIN4aidl7android8hardware5radio9messaging14CdmaSmsAddress22$NUMBER_PLAN_TELEPHONYE",
   "size" : 4,
   "source_file" : "out/soong/.intermediates/hardware/interfaces/radio/aidl/android.hardware.radio.messaging-V1-ndk-source/gen/include/aidl/android/hardware/radio/messaging/CdmaSmsAddress.h",
   "underlying_type" : "_ZTIi"
  },
  {
   "alignment" : 4,
   "enum_fields" :
   [
    {
     "enum_field_value" : 2,
     "name" : "aidl::android::hardware::radio::messaging::CdmaSmsAddress::NUMBER_PLAN_RESERVED_2"
    }
   ],
   "linker_set_key" : "_ZTIN4aidl7android8hardware5radio9messaging14CdmaSmsAddress23$NUMBER_PLAN_RESERVED_2E",
   "name" : "aidl::android::hardware::radio::messaging::CdmaSmsAddress::(unnamed enum at out/soong/.intermediates/hardware/interfaces/radio/aidl/android.hardware.radio.messaging-V1-ndk-source/gen/include/aidl/android/hardware/radio/messaging/CdmaSmsAddress.h:58:3)",
   "referenced_type" : "_ZTIN4aidl7android8hardware5radio9messaging14CdmaSmsAddress23$NUMBER_PLAN_RESERVED_2E",
   "self_type" : "_ZTIN4aidl7android8hardware5radio9messaging14CdmaSmsAddress23$NUMBER_PLAN_RESERVED_2E",
   "size" : 4,
   "source_file" : "out/soong/.intermediates/hardware/interfaces/radio/aidl/android.hardware.radio.messaging-V1-ndk-source/gen/include/aidl/android/hardware/radio/messaging/CdmaSmsAddress.h",
   "underlying_type" : "_ZTIi"
  },
  {
   "alignment" : 4,
   "enum_fields" :
   [
    {
     "enum_field_value" : 5,
     "name" : "aidl::android::hardware::radio::messaging::CdmaSmsAddress::NUMBER_PLAN_RESERVED_5"
    }
   ],
   "linker_set_key" : "_ZTIN4aidl7android8hardware5radio9messaging14CdmaSmsAddress23$NUMBER_PLAN_RESERVED_5E",
   "name" : "aidl::android::hardware::radio::messaging::CdmaSmsAddress::(unnamed enum at out/soong/.intermediates/hardware/interfaces/radio/aidl/android.hardware.radio.messaging-V1-ndk-source/gen/include/aidl/android/hardware/radio/messaging/CdmaSmsAddress.h:61:3)",
   "referenced_type" : "_ZTIN4aidl7android8hardware5radio9messaging14CdmaSmsAddress23$NUMBER_PLAN_RESERVED_5E",
   "self_type" : "_ZTIN4aidl7android8hardware5radio9messaging14CdmaSmsAddress23$NUMBER_PLAN_RESERVED_5E",
   "size" : 4,
   "source_file" : "out/soong/.intermediates/hardware/interfaces/radio/aidl/android.hardware.radio.messaging-V1-ndk-source/gen/include/aidl/android/hardware/radio/messaging/CdmaSmsAddress.h",
   "underlying_type" : "_ZTIi"
  },
  {
   "alignment" : 4,
   "enum_fields" :
   [
    {
     "enum_field_value" : 6,
     "name" : "aidl::android::hardware::radio::messaging::CdmaSmsAddress::NUMBER_PLAN_RESERVED_6"
    }
   ],
   "linker_set_key" : "_ZTIN4aidl7android8hardware5radio9messaging14CdmaSmsAddress23$NUMBER_PLAN_RESERVED_6E",
   "name" : "aidl::android::hardware::radio::messaging::CdmaSmsAddress::(unnamed enum at out/soong/.intermediates/hardware/interfaces/radio/aidl/android.hardware.radio.messaging-V1-ndk-source/gen/include/aidl/android/hardware/radio/messaging/CdmaSmsAddress.h:62:3)",
   "referenced_type" : "_ZTIN4aidl7android8hardware5radio9messaging14CdmaSmsAddress23$NUMBER_PLAN_RESERVED_6E",
   "self_type" : "_ZTIN4aidl7android8hardware5radio9messaging14CdmaSmsAddress23$NUMBER_PLAN_RESERVED_6E",
   "size" : 4,
   "source_file" : "out/soong/.intermediates/hardware/interfaces/radio/aidl/android.hardware.radio.messaging-V1-ndk-source/gen/include/aidl/android/hardware/radio/messaging/CdmaSmsAddress.h",
   "underlying_type" : "_ZTIi"
  },
  {
   "alignment" : 4,
   "enum_fields" :
   [
    {
     "enum_field_value" : 7,
     "name" : "aidl::android::hardware::radio::messaging::CdmaSmsAddress::NUMBER_PLAN_RESERVED_7"
    }
   ],
   "linker_set_key" : "_ZTIN4aidl7android8hardware5radio9messaging14CdmaSmsAddress23$NUMBER_PLAN_RESERVED_7E",
   "name" : "aidl::android::hardware::radio::messaging::CdmaSmsAddress::(unnamed enum at out/soong/.intermediates/hardware/interfaces/radio/aidl/android.hardware.radio.messaging-V1-ndk-source/gen/include/aidl/android/hardware/radio/messaging/CdmaSmsAddress.h:63:3)",
   "referenced_type" : "_ZTIN4aidl7android8hardware5radio9messaging14CdmaSmsAddress23$NUMBER_PLAN_RESERVED_7E",
   "self_type" : "_ZTIN4aidl7android8hardware5radio9messaging14CdmaSmsAddress23$NUMBER_PLAN_RESERVED_7E",
   "size" : 4,
   "source_file" : "out/soong/.intermediates/hardware/interfaces/radio/aidl/android.hardware.radio.messaging-V1-ndk-source/gen/include/aidl/android/hardware/radio/messaging/CdmaSmsAddress.h",
   "underlying_type" : "_ZTIi"
  },
  {
   "alignment" : 4,
   "enum_fields" :
   [
    {
     "enum_field_value" : 8,
     "name" : "aidl::android::hardware::radio::messaging::CdmaSmsAddress::NUMBER_PLAN_RESERVED_8"
    }
   ],
   "linker_set_key" : "_ZTIN4aidl7android8hardware5radio9messaging14CdmaSmsAddress23$NUMBER_PLAN_RESERVED_8E",
   "name" : "aidl::android::hardware::radio::messaging::CdmaSmsAddress::(unnamed enum at out/soong/.intermediates/hardware/interfaces/radio/aidl/android.hardware.radio.messaging-V1-ndk-source/gen/include/aidl/android/hardware/radio/messaging/CdmaSmsAddress.h:64:3)",
   "referenced_type" : "_ZTIN4aidl7android8hardware5radio9messaging14CdmaSmsAddress23$NUMBER_PLAN_RESERVED_8E",
   "self_type" : "_ZTIN4aidl7android8hardware5radio9messaging14CdmaSmsAddress23$NUMBER_PLAN_RESERVED_8E",
   "size" : 4,
   "source_file" : "out/soong/.intermediates/hardware/interfaces/radio/aidl/android.hardware.radio.messaging-V1-ndk-source/gen/include/aidl/android/hardware/radio/messaging/CdmaSmsAddress.h",
   "underlying_type" : "_ZTIi"
  },
  {
   "alignment" : 4,
   "enum_fields" :
   [
    {
     "enum_field_value" : 7,
     "name" : "aidl::android::hardware::radio::messaging::CdmaSmsAddress::NUMBER_TYPE_RESERVED_7"
    }
   ],
   "linker_set_key" : "_ZTIN4aidl7android8hardware5radio9messaging14CdmaSmsAddress23$NUMBER_TYPE_RESERVED_7E",
   "name" : "aidl::android::hardware::radio::messaging::CdmaSmsAddress::(unnamed enum at out/soong/.intermediates/hardware/interfaces/radio/aidl/android.hardware.radio.messaging-V1-ndk-source/gen/include/aidl/android/hardware/radio/messaging/CdmaSmsAddress.h:79:3)",
   "referenced_type" : "_ZTIN4aidl7android8hardware5radio9messaging14CdmaSmsAddress23$NUMBER_TYPE_RESERVED_7E",
   "self_type" : "_ZTIN4aidl7android8hardware5radio9messaging14CdmaSmsAddress23$NUMBER_TYPE_RESERVED_7E",
   "size" : 4,
   "source_file" : "out/soong/.intermediates/hardware/interfaces/radio/aidl/android.hardware.radio.messaging-V1-ndk-source/gen/include/aidl/android/hardware/radio/messaging/CdmaSmsAddress.h",
   "underlying_type" : "_ZTIi"
  },
  {
   "alignment" : 4,
   "enum_fields" :
   [
    {
     "enum_field_value" : 4,
     "name" : "aidl::android::hardware::radio::messaging::CdmaSmsAddress::NUMBER_TYPE_SUBSCRIBER"
    }
   ],
   "linker_set_key" : "_ZTIN4aidl7android8hardware5radio9messaging14CdmaSmsAddress23$NUMBER_TYPE_SUBSCRIBERE",
   "name" : "aidl::android::hardware::radio::messaging::CdmaSmsAddress::(unnamed enum at out/soong/.intermediates/hardware/interfaces/radio/aidl/android.hardware.radio.messaging-V1-ndk-source/gen/include/aidl/android/hardware/radio/messaging/CdmaSmsAddress.h:76:3)",
   "referenced_type" : "_ZTIN4aidl7android8hardware5radio9messaging14CdmaSmsAddress23$NUMBER_TYPE_SUBSCRIBERE",
   "self_type" : "_ZTIN4aidl7android8hardware5radio9messaging14CdmaSmsAddress23$NUMBER_TYPE_SUBSCRIBERE",
   "size" : 4,
   "source_file" : "out/soong/.intermediates/hardware/interfaces/radio/aidl/android.hardware.radio.messaging-V1-ndk-source/gen/include/aidl/android/hardware/radio/messaging/CdmaSmsAddress.h",
   "underlying_type" : "_ZTIi"
  },
  {
   "alignment" : 4,
   "enum_fields" :
   [
    {
     "enum_field_value" : 10,
     "name" : "aidl::android::hardware::radio::messaging::CdmaSmsAddress::NUMBER_PLAN_RESERVED_10"
    }
   ],
   "linker_set_key" : "_ZTIN4aidl7android8hardware5radio9messaging14CdmaSmsAddress24$NUMBER_PLAN_RESERVED_10E",
   "name" : "aidl::android::hardware::radio::messaging::CdmaSmsAddress::(unnamed enum at out/soong/.intermediates/hardware/interfaces/radio/aidl/android.hardware.radio.messaging-V1-ndk-source/gen/include/aidl/android/hardware/radio/messaging/CdmaSmsAddress.h:66:3)",
   "referenced_type" : "_ZTIN4aidl7android8hardware5radio9messaging14CdmaSmsAddress24$NUMBER_PLAN_RESERVED_10E",
   "self_type" : "_ZTIN4aidl7android8hardware5radio9messaging14CdmaSmsAddress24$NUMBER_PLAN_RESERVED_10E",
   "size" : 4,
   "source_file" : "out/soong/.intermediates/hardware/interfaces/radio/aidl/android.hardware.radio.messaging-V1-ndk-source/gen/include/aidl/android/hardware/radio/messaging/CdmaSmsAddress.h",
   "underlying_type" : "_ZTIi"
  },
  {
   "alignment" : 4,
   "enum_fields" :
   [
    {
     "enum_field_value" : 11,
     "name" : "aidl::android::hardware::radio::messaging::CdmaSmsAddress::NUMBER_PLAN_RESERVED_11"
    }
   ],
   "linker_set_key" : "_ZTIN4aidl7android8hardware5radio9messaging14CdmaSmsAddress24$NUMBER_PLAN_RESERVED_11E",
   "name" : "aidl::android::hardware::radio::messaging::CdmaSmsAddress::(unnamed enum at out/soong/.intermediates/hardware/interfaces/radio/aidl/android.hardware.radio.messaging-V1-ndk-source/gen/include/aidl/android/hardware/radio/messaging/CdmaSmsAddress.h:67:3)",
   "referenced_type" : "_ZTIN4aidl7android8hardware5radio9messaging14CdmaSmsAddress24$NUMBER_PLAN_RESERVED_11E",
   "self_type" : "_ZTIN4aidl7android8hardware5radio9messaging14CdmaSmsAddress24$NUMBER_PLAN_RESERVED_11E",
   "size" : 4,
   "source_file" : "out/soong/.intermediates/hardware/interfaces/radio/aidl/android.hardware.radio.messaging-V1-ndk-source/gen/include/aidl/android/hardware/radio/messaging/CdmaSmsAddress.h",
   "underlying_type" : "_ZTIi"
  },
  {
   "alignment" : 4,
   "enum_fields" :
   [
    {
     "enum_field_value" : 12,
     "name" : "aidl::android::hardware::radio::messaging::CdmaSmsAddress::NUMBER_PLAN_RESERVED_12"
    }
   ],
   "linker_set_key" : "_ZTIN4aidl7android8hardware5radio9messaging14CdmaSmsAddress24$NUMBER_PLAN_RESERVED_12E",
   "name" : "aidl::android::hardware::radio::messaging::CdmaSmsAddress::(unnamed enum at out/soong/.intermediates/hardware/interfaces/radio/aidl/android.hardware.radio.messaging-V1-ndk-source/gen/include/aidl/android/hardware/radio/messaging/CdmaSmsAddress.h:68:3)",
   "referenced_type" : "_ZTIN4aidl7android8hardware5radio9messaging14CdmaSmsAddress24$NUMBER_PLAN_RESERVED_12E",
   "self_type" : "_ZTIN4aidl7android8hardware5radio9messaging14CdmaSmsAddress24$NUMBER_PLAN_RESERVED_12E",
   "size" : 4,
   "source_file" : "out/soong/.intermediates/hardware/interfaces/radio/aidl/android.hardware.radio.messaging-V1-ndk-source/gen/include/aidl/android/hardware/radio/messaging/CdmaSmsAddress.h",
   "underlying_type" : "_ZTIi"
  },
  {
   "alignment" : 4,
   "enum_fields" :
   [
    {
     "enum_field_value" : 13,
     "name" : "aidl::android::hardware::radio::messaging::CdmaSmsAddress::NUMBER_PLAN_RESERVED_13"
    }
   ],
   "linker_set_key" : "_ZTIN4aidl7android8hardware5radio9messaging14CdmaSmsAddress24$NUMBER_PLAN_RESERVED_13E",
   "name" : "aidl::android::hardware::radio::messaging::CdmaSmsAddress::(unnamed enum at out/soong/.intermediates/hardware/interfaces/radio/aidl/android.hardware.radio.messaging-V1-ndk-source/gen/include/aidl/android/hardware/radio/messaging/CdmaSmsAddress.h:69:3)",
   "referenced_type" : "_ZTIN4aidl7android8hardware5radio9messaging14CdmaSmsAddress24$NUMBER_PLAN_RESERVED_13E",
   "self_type" : "_ZTIN4aidl7android8hardware5radio9messaging14CdmaSmsAddress24$NUMBER_PLAN_RESERVED_13E",
   "size" : 4,
   "source_file" : "out/soong/.intermediates/hardware/interfaces/radio/aidl/android.hardware.radio.messaging-V1-ndk-source/gen/include/aidl/android/hardware/radio/messaging/CdmaSmsAddress.h",
   "underlying_type" : "_ZTIi"
  },
  {
   "alignment" : 4,
   "enum_fields" :
   [
    {
     "enum_field_value" : 14,
     "name" : "aidl::android::hardware::radio::messaging::CdmaSmsAddress::NUMBER_PLAN_RESERVED_14"
    }
   ],
   "linker_set_key" : "_ZTIN4aidl7android8hardware5radio9messaging14CdmaSmsAddress24$NUMBER_PLAN_RESERVED_14E",
   "name" : "aidl::android::hardware::radio::messaging::CdmaSmsAddress::(unnamed enum at out/soong/.intermediates/hardware/interfaces/radio/aidl/android.hardware.radio.messaging-V1-ndk-source/gen/include/aidl/android/hardware/radio/messaging/CdmaSmsAddress.h:70:3)",
   "referenced_type" : "_ZTIN4aidl7android8hardware5radio9messaging14CdmaSmsAddress24$NUMBER_PLAN_RESERVED_14E",
   "self_type" : "_ZTIN4aidl7android8hardware5radio9messaging14CdmaSmsAddress24$NUMBER_PLAN_RESERVED_14E",
   "size" : 4,
   "source_file" : "out/soong/.intermediates/hardware/interfaces/radio/aidl/android.hardware.radio.messaging-V1-ndk-source/gen/include/aidl/android/hardware/radio/messaging/CdmaSmsAddress.h",
   "underlying_type" : "_ZTIi"
  },
  {
   "alignment" : 4,
   "enum_fields" :
   [
    {
     "enum_field_value" : 15,
     "name" : "aidl::android::hardware::radio::messaging::CdmaSmsAddress::NUMBER_PLAN_RESERVED_15"
    }
   ],
   "linker_set_key" : "_ZTIN4aidl7android8hardware5radio9messaging14CdmaSmsAddress24$NUMBER_PLAN_RESERVED_15E",
   "name" : "aidl::android::hardware::radio::messaging::CdmaSmsAddress::(unnamed enum at out/soong/.intermediates/hardware/interfaces/radio/aidl/android.hardware.radio.messaging-V1-ndk-source/gen/include/aidl/android/hardware/radio/messaging/CdmaSmsAddress.h:71:3)",
   "referenced_type" : "_ZTIN4aidl7android8hardware5radio9messaging14CdmaSmsAddress24$NUMBER_PLAN_RESERVED_15E",
   "self_type" : "_ZTIN4aidl7android8hardware5radio9messaging14CdmaSmsAddress24$NUMBER_PLAN_RESERVED_15E",
   "size" : 4,
   "source_file" : "out/soong/.intermediates/hardware/interfaces/radio/aidl/android.hardware.radio.messaging-V1-ndk-source/gen/include/aidl/android/hardware/radio/messaging/CdmaSmsAddress.h",
   "underlying_type" : "_ZTIi"
  },
  {
   "alignment" : 4,
   "enum_fields" :
   [
    {
     "enum_field_value" : 6,
     "name" : "aidl::android::hardware::radio::messaging::CdmaSmsAddress::NUMBER_TYPE_ABBREVIATED"
    }
   ],
   "linker_set_key" : "_ZTIN4aidl7android8hardware5radio9messaging14CdmaSmsAddress24$NUMBER_TYPE_ABBREVIATEDE",
   "name" : "aidl::android::hardware::radio::messaging::CdmaSmsAddress::(unnamed enum at out/soong/.intermediates/hardware/interfaces/radio/aidl/android.hardware.radio.messaging-V1-ndk-source/gen/include/aidl/android/hardware/radio/messaging/CdmaSmsAddress.h:78:3)",
   "referenced_type" : "_ZTIN4aidl7android8hardware5radio9messaging14CdmaSmsAddress24$NUMBER_TYPE_ABBREVIATEDE",
   "self_type" : "_ZTIN4aidl7android8hardware5radio9messaging14CdmaSmsAddress24$NUMBER_TYPE_ABBREVIATEDE",
   "size" : 4,
   "source_file" : "out/soong/.intermediates/hardware/interfaces/radio/aidl/android.hardware.radio.messaging-V1-ndk-source/gen/include/aidl/android/hardware/radio/messaging/CdmaSmsAddress.h",
   "underlying_type" : "_ZTIi"
  },
  {
   "alignment" : 4,
   "enum_fields" :
   [
    {
     "enum_field_value" : 5,
     "name" : "aidl::android::hardware::radio::messaging::CdmaSmsAddress::NUMBER_TYPE_ALPHANUMERIC"
    }
   ],
   "linker_set_key" : "_ZTIN4aidl7android8hardware5radio9messaging14CdmaSmsAddress25$NUMBER_TYPE_ALPHANUMERICE",
   "name" : "aidl::android::hardware::radio::messaging::CdmaSmsAddress::(unnamed enum at out/soong/.intermediates/hardware/interfaces/radio/aidl/android.hardware.radio.messaging-V1-ndk-source/gen/include/aidl/android/hardware/radio/messaging/CdmaSmsAddress.h:77:3)",
   "referenced_type" : "_ZTIN4aidl7android8hardware5radio9messaging14CdmaSmsAddress25$NUMBER_TYPE_ALPHANUMERICE",
   "self_type" : "_ZTIN4aidl7android8hardware5radio9messaging14CdmaSmsAddress25$NUMBER_TYPE_ALPHANUMERICE",
   "size" : 4,
   "source_file" : "out/soong/.intermediates/hardware/interfaces/radio/aidl/android.hardware.radio.messaging-V1-ndk-source/gen/include/aidl/android/hardware/radio/messaging/CdmaSmsAddress.h",
   "underlying_type" : "_ZTIi"
  },
  {
   "alignment" : 4,
   "enum_fields" :
   [
    {
     "enum_field_value" : 1,
     "name" : "aidl::android::hardware::radio::messaging::CdmaSmsAddress::NUMBER_TYPE_INTERNATIONAL_OR_DATA_IP"
    }
   ],
   "linker_set_key" : "_ZTIN4aidl7android8hardware5radio9messaging14CdmaSmsAddress37$NUMBER_TYPE_INTERNATIONAL_OR_DATA_IPE",
   "name" : "aidl::android::hardware::radio::messaging::CdmaSmsAddress::(unnamed enum at out/soong/.intermediates/hardware/interfaces/radio/aidl/android.hardware.radio.messaging-V1-ndk-source/gen/include/aidl/android/hardware/radio/messaging/CdmaSmsAddress.h:73:3)",
   "referenced_type" : "_ZTIN4aidl7android8hardware5radio9messaging14CdmaSmsAddress37$NUMBER_TYPE_INTERNATIONAL_OR_DATA_IPE",
   "self_type" : "_ZTIN4aidl7android8hardware5radio9messaging14CdmaSmsAddress37$NUMBER_TYPE_INTERNATIONAL_OR_DATA_IPE",
   "size" : 4,
   "source_file" : "out/soong/.intermediates/hardware/interfaces/radio/aidl/android.hardware.radio.messaging-V1-ndk-source/gen/include/aidl/android/hardware/radio/messaging/CdmaSmsAddress.h",
   "underlying_type" : "_ZTIi"
  },
  {
   "alignment" : 4,
   "enum_fields" :
   [
    {
     "enum_field_value" : 2,
     "name" : "aidl::android::hardware::radio::messaging::CdmaSmsAddress::NUMBER_TYPE_NATIONAL_OR_INTERNET_MAIL"
    }
   ],
   "linker_set_key" : "_ZTIN4aidl7android8hardware5radio9messaging14CdmaSmsAddress38$NUMBER_TYPE_NATIONAL_OR_INTERNET_MAILE",
   "name" : "aidl::android::hardware::radio::messaging::CdmaSmsAddress::(unnamed enum at out/soong/.intermediates/hardware/interfaces/radio/aidl/android.hardware.radio.messaging-V1-ndk-source/gen/include/aidl/android/hardware/radio/messaging/CdmaSmsAddress.h:74:3)",
   "referenced_type" : "_ZTIN4aidl7android8hardware5radio9messaging14CdmaSmsAddress38$NUMBER_TYPE_NATIONAL_OR_INTERNET_MAILE",
   "self_type" : "_ZTIN4aidl7android8hardware5radio9messaging14CdmaSmsAddress38$NUMBER_TYPE_NATIONAL_OR_INTERNET_MAILE",
   "size" : 4,
   "source_file" : "out/soong/.intermediates/hardware/interfaces/radio/aidl/android.hardware.radio.messaging-V1-ndk-source/gen/include/aidl/android/hardware/radio/messaging/CdmaSmsAddress.h",
   "underlying_type" : "_ZTIi"
  },
  {
   "alignment" : 4,
   "enum_fields" :
   [
    {
     "enum_field_value" : 1,
     "name" : "aidl::android::hardware::radio::messaging::CdmaSmsWriteArgs::STATUS_REC_READ"
    }
   ],
   "linker_set_key" : "_ZTIN4aidl7android8hardware5radio9messaging16CdmaSmsWriteArgs16$STATUS_REC_READE",
   "name" : "aidl::android::hardware::radio::messaging::CdmaSmsWriteArgs::(unnamed enum at out/soong/.intermediates/hardware/interfaces/radio/aidl/android.hardware.radio.messaging-V1-ndk-source/gen/include/aidl/android/hardware/radio/messaging/CdmaSmsWriteArgs.h:53:3)",
   "referenced_type" : "_ZTIN4aidl7android8hardware5radio9messaging16CdmaSmsWriteArgs16$STATUS_REC_READE",
   "self_type" : "_ZTIN4aidl7android8hardware5radio9messaging16CdmaSmsWriteArgs16$STATUS_REC_READE",
   "size" : 4,
   "source_file" : "out/soong/.intermediates/hardware/interfaces/radio/aidl/android.hardware.radio.messaging-V1-ndk-source/gen/include/aidl/android/hardware/radio/messaging/CdmaSmsWriteArgs.h",
   "underlying_type" : "_ZTIi"
  },
  {
   "alignment" : 4,
   "enum_fields" :
   [
    {
     "enum_field_value" : 3,
     "name" : "aidl::android::hardware::radio::messaging::CdmaSmsWriteArgs::STATUS_STO_SENT"
    }
   ],
   "linker_set_key" : "_ZTIN4aidl7android8hardware5radio9messaging16CdmaSmsWriteArgs16$STATUS_STO_SENTE",
   "name" : "aidl::android::hardware::radio::messaging::CdmaSmsWriteArgs::(unnamed enum at out/soong/.intermediates/hardware/interfaces/radio/aidl/android.hardware.radio.messaging-V1-ndk-source/gen/include/aidl/android/hardware/radio/messaging/CdmaSmsWriteArgs.h:55:3)",
   "referenced_type" : "_ZTIN4aidl7android8hardware5radio9messaging16CdmaSmsWriteArgs16$STATUS_STO_SENTE",
   "self_type" : "_ZTIN4aidl7android8hardware5radio9messaging16CdmaSmsWriteArgs16$STATUS_STO_SENTE",
   "size" : 4,
   "source_file" : "out/soong/.intermediates/hardware/interfaces/radio/aidl/android.hardware.radio.messaging-V1-ndk-source/gen/include/aidl/android/hardware/radio/messaging/CdmaSmsWriteArgs.h",
   "underlying_type" : "_ZTIi"
  },
  {
   "alignment" : 4,
   "enum_fields" :
   [
    {
     "enum_field_value" : 0,
     "name" : "aidl::android::hardware::radio::messaging::CdmaSmsWriteArgs::STATUS_REC_UNREAD"
    }
   ],
   "linker_set_key" : "_ZTIN4aidl7android8hardware5radio9messaging16CdmaSmsWriteArgs18$STATUS_REC_UNREADE",
   "name" : "aidl::android::hardware::radio::messaging::CdmaSmsWriteArgs::(unnamed enum at out/soong/.intermediates/hardware/interfaces/radio/aidl/android.hardware.radio.messaging-V1-ndk-source/gen/include/aidl/android/hardware/radio/messaging/CdmaSmsWriteArgs.h:52:3)",
   "referenced_type" : "_ZTIN4aidl7android8hardware5radio9messaging16CdmaSmsWriteArgs18$STATUS_REC_UNREADE",
   "self_type" : "_ZTIN4aidl7android8hardware5radio9messaging16CdmaSmsWriteArgs18$STATUS_REC_UNREADE",
   "size" : 4,
   "source_file" : "out/soong/.intermediates/hardware/interfaces/radio/aidl/android.hardware.radio.messaging-V1-ndk-source/gen/include/aidl/android/hardware/radio/messaging/CdmaSmsWriteArgs.h",
   "underlying_type" : "_ZTIi"
  },
  {
   "alignment" : 4,
   "enum_fields" :
   [
    {
     "enum_field_value" : 2,
     "name" : "aidl::android::hardware::radio::messaging::CdmaSmsWriteArgs::STATUS_STO_UNSENT"
    }
   ],
   "linker_set_key" : "_ZTIN4aidl7android8hardware5radio9messaging16CdmaSmsWriteArgs18$STATUS_STO_UNSENTE",
   "name" : "aidl::android::hardware::radio::messaging::CdmaSmsWriteArgs::(unnamed enum at out/soong/.intermediates/hardware/interfaces/radio/aidl/android.hardware.radio.messaging-V1-ndk-source/gen/include/aidl/android/hardware/radio/messaging/CdmaSmsWriteArgs.h:54:3)",
   "referenced_type" : "_ZTIN4aidl7android8hardware5radio9messaging16CdmaSmsWriteArgs18$STATUS_STO_UNSENTE",
   "self_type" : "_ZTIN4aidl7android8hardware5radio9messaging16CdmaSmsWriteArgs18$STATUS_STO_UNSENTE",
   "size" : 4,
   "source_file" : "out/soong/.intermediates/hardware/interfaces/radio/aidl/android.hardware.radio.messaging-V1-ndk-source/gen/include/aidl/android/hardware/radio/messaging/CdmaSmsWriteArgs.h",
   "underlying_type" : "_ZTIi"
  },
  {
   "alignment" : 4,
   "enum_fields" :
   [
    {
     "enum_field_value" : 0,
     "name" : "aidl::android::hardware::radio::messaging::CdmaSmsSubaddress::SUBADDRESS_TYPE_NSAP"
    }
   ],
   "linker_set_key" : "_ZTIN4aidl7android8hardware5radio9messaging17CdmaSmsSubaddress21$SUBADDRESS_TYPE_NSAPE",
   "name" : "aidl::android::hardware::radio::messaging::CdmaSmsSubaddress::(unnamed enum at out/soong/.intermediates/hardware/interfaces/radio/aidl/android.hardware.radio.messaging-V1-ndk-source/gen/include/aidl/android/hardware/radio/messaging/CdmaSmsSubaddress.h:52:3)",
   "referenced_type" : "_ZTIN4aidl7android8hardware5radio9messaging17CdmaSmsSubaddress21$SUBADDRESS_TYPE_NSAPE",
   "self_type" : "_ZTIN4aidl7android8hardware5radio9messaging17CdmaSmsSubaddress21$SUBADDRESS_TYPE_NSAPE",
   "size" : 4,
   "source_file" : "out/soong/.intermediates/hardware/interfaces/radio/aidl/android.hardware.radio.messaging-V1-ndk-source/gen/include/aidl/android/hardware/radio/messaging/CdmaSmsSubaddress.h",
   "underlying_type" : "_ZTIi"
  },
  {
   "alignment" : 4,
   "enum_fields" :
   [
    {
     "enum_field_value" : 1,
     "name" : "aidl::android::hardware::radio::messaging::CdmaSmsSubaddress::SUBADDRESS_TYPE_USER_SPECIFIED"
    }
   ],
   "linker_set_key" : "_ZTIN4aidl7android8hardware5radio9messaging17CdmaSmsSubaddress31$SUBADDRESS_TYPE_USER_SPECIFIEDE",
   "name" : "aidl::android::hardware::radio::messaging::CdmaSmsSubaddress::(unnamed enum at out/soong/.intermediates/hardware/interfaces/radio/aidl/android.hardware.radio.messaging-V1-ndk-source/gen/include/aidl/android/hardware/radio/messaging/CdmaSmsSubaddress.h:53:3)",
   "referenced_type" : "_ZTIN4aidl7android8hardware5radio9messaging17CdmaSmsSubaddress31$SUBADDRESS_TYPE_USER_SPECIFIEDE",
   "self_type" : "_ZTIN4aidl7android8hardware5radio9messaging17CdmaSmsSubaddress31$SUBADDRESS_TYPE_USER_SPECIFIEDE",
   "size" : 4,
   "source_file" : "out/soong/.intermediates/hardware/interfaces/radio/aidl/android.hardware.radio.messaging-V1-ndk-source/gen/include/aidl/android/hardware/radio/messaging/CdmaSmsSubaddress.h",
   "underlying_type" : "_ZTIi"
  },
  {
   "alignment" : 4,
   "enum_fields" :
   [
    {
     "enum_field_value" : 211,
     "name" : "aidl::android::hardware::radio::messaging::SmsAcknowledgeFailCause::MEMORY_CAPACITY_EXCEEDED"
    },
    {
     "enum_field_value" : 255,
     "name" : "aidl::android::hardware::radio::messaging::SmsAcknowledgeFailCause::UNSPECIFIED_ERROR"
    }
   ],
   "linker_set_key" : "_ZTIN4aidl7android8hardware5radio9messaging23SmsAcknowledgeFailCauseE",
   "name" : "aidl::android::hardware::radio::messaging::SmsAcknowledgeFailCause",
   "referenced_type" : "_ZTIN4aidl7android8hardware5radio9messaging23SmsAcknowledgeFailCauseE",
   "self_type" : "_ZTIN4aidl7android8hardware5radio9messaging23SmsAcknowledgeFailCauseE",
   "size" : 4,
   "source_file" : "out/soong/.intermediates/hardware/interfaces/radio/aidl/android.hardware.radio.messaging-V1-ndk-source/gen/include/aidl/android/hardware/radio/messaging/SmsAcknowledgeFailCause.h",
   "underlying_type" : "_ZTIi"
  },
  {
   "alignment" : 4,
   "enum_fields" :
   [
    {
     "enum_field_value" : 1,
     "name" : "android::internal::details::IsIterable<std::vector<aidl::android::hardware::radio::messaging::GsmSmsMessage>>::value"
    }
   ],
   "linker_set_key" : "_ZTIN7android8internal7details10IsIterableINSt3__16vectorIN4aidl7android8hardware5radio9messaging13GsmSmsMessageENS3_9allocatorISA_EEEEE6$valueE",
   "name" : "android::internal::details::IsIterable<std::vector<aidl::android::hardware::radio::messaging::GsmSmsMessage, std::allocator<aidl::android::hardware::radio::messaging::GsmSmsMessage>>>::(unnamed enum at frameworks/native/libs/binder/ndk/include_cpp/android/binder_to_string.h:131:5)",
   "referenced_type" : "_ZTIN7android8internal7details10IsIterableINSt3__16vectorIN4aidl7android8hardware5radio9messaging13GsmSmsMessageENS3_9allocatorISA_EEEEE6$valueE",
   "self_type" : "_ZTIN7android8internal7details10IsIterableINSt3__16vectorIN4aidl7android8hardware5radio9messaging13GsmSmsMessageENS3_9allocatorISA_EEEEE6$valueE",
   "size" : 4,
   "source_file" : "frameworks/native/libs/binder/ndk/include_cpp/android/binder_to_string.h",
   "underlying_type" : "_ZTIj"
  },
  {
   "alignment" : 4,
   "enum_fields" :
   [
    {
     "enum_field_value" : 1,
     "name" : "android::internal::details::IsIterable<std::vector<aidl::android::hardware::radio::messaging::CdmaSmsMessage>>::value"
    }
   ],
   "linker_set_key" : "_ZTIN7android8internal7details10IsIterableINSt3__16vectorIN4aidl7android8hardware5radio9messaging14CdmaSmsMessageENS3_9allocatorISA_EEEEE6$valueE",
   "name" : "android::internal::details::IsIterable<std::vector<aidl::android::hardware::radio::messaging::CdmaSmsMessage, std::allocator<aidl::android::hardware::radio::messaging::CdmaSmsMessage>>>::(unnamed enum at frameworks/native/libs/binder/ndk/include_cpp/android/binder_to_string.h:131:5)",
   "referenced_type" : "_ZTIN7android8internal7details10IsIterableINSt3__16vectorIN4aidl7android8hardware5radio9messaging14CdmaSmsMessageENS3_9allocatorISA_EEEEE6$valueE",
   "self_type" : "_ZTIN7android8internal7details10IsIterableINSt3__16vectorIN4aidl7android8hardware5radio9messaging14CdmaSmsMessageENS3_9allocatorISA_EEEEE6$valueE",
   "size" : 4,
   "source_file" : "frameworks/native/libs/binder/ndk/include_cpp/android/binder_to_string.h",
   "underlying_type" : "_ZTIj"
  },
  {
   "alignment" : 4,
   "enum_fields" :
   [
    {
     "enum_field_value" : 1,
     "name" : "android::internal::details::IsIterable<std::vector<unsigned char>>::value"
    }
   ],
   "linker_set_key" : "_ZTIN7android8internal7details10IsIterableINSt3__16vectorIhNS3_9allocatorIhEEEEE6$valueE",
   "name" : "android::internal::details::IsIterable<std::vector<unsigned char, std::allocator<unsigned char>>>::(unnamed enum at frameworks/native/libs/binder/ndk/include_cpp/android/binder_to_string.h:131:5)",
   "referenced_type" : "_ZTIN7android8internal7details10IsIterableINSt3__16vectorIhNS3_9allocatorIhEEEEE6$valueE",
   "self_type" : "_ZTIN7android8internal7details10IsIterableINSt3__16vectorIhNS3_9allocatorIhEEEEE6$valueE",
   "size" : 4,
   "source_file" : "frameworks/native/libs/binder/ndk/include_cpp/android/binder_to_string.h",
   "underlying_type" : "_ZTIj"
  },
  {
   "alignment" : 4,
   "enum_fields" :
   [
    {
     "enum_field_value" : 0,
     "name" : "android::internal::details::IsPointerLike<aidl::android::hardware::radio::RadioError>::value"
    }
   ],
   "linker_set_key" : "_ZTIN7android8internal7details13IsPointerLikeIN4aidl7android8hardware5radio10RadioErrorEE6$valueE",
   "name" : "android::internal::details::IsPointerLike<aidl::android::hardware::radio::RadioError>::(unnamed enum at frameworks/native/libs/binder/ndk/include_cpp/android/binder_to_string.h:118:5)",
   "referenced_type" : "_ZTIN7android8internal7details13IsPointerLikeIN4aidl7android8hardware5radio10RadioErrorEE6$valueE",
   "self_type" : "_ZTIN7android8internal7details13IsPointerLikeIN4aidl7android8hardware5radio10RadioErrorEE6$valueE",
   "size" : 4,
   "source_file" : "frameworks/native/libs/binder/ndk/include_cpp/android/binder_to_string.h",
   "underlying_type" : "_ZTIj"
  },
  {
   "alignment" : 4,
   "enum_fields" :
   [
    {
     "enum_field_value" : 0,
     "name" : "android::internal::details::IsPointerLike<aidl::android::hardware::radio::RadioResponseType>::value"
    }
   ],
   "linker_set_key" : "_ZTIN7android8internal7details13IsPointerLikeIN4aidl7android8hardware5radio17RadioResponseTypeEE6$valueE",
   "name" : "android::internal::details::IsPointerLike<aidl::android::hardware::radio::RadioResponseType>::(unnamed enum at frameworks/native/libs/binder/ndk/include_cpp/android/binder_to_string.h:118:5)",
   "referenced_type" : "_ZTIN7android8internal7details13IsPointerLikeIN4aidl7android8hardware5radio17RadioResponseTypeEE6$valueE",
   "self_type" : "_ZTIN7android8internal7details13IsPointerLikeIN4aidl7android8hardware5radio17RadioResponseTypeEE6$valueE",
   "size" : 4,
   "source_file" : "frameworks/native/libs/binder/ndk/include_cpp/android/binder_to_string.h",
   "underlying_type" : "_ZTIj"
  },
  {
   "alignment" : 4,
   "enum_fields" :
   [
    {
     "enum_field_value" : 0,
     "name" : "android::internal::details::IsPointerLike<aidl::android::hardware::radio::RadioTechnologyFamily>::value"
    }
   ],
   "linker_set_key" : "_ZTIN7android8internal7details13IsPointerLikeIN4aidl7android8hardware5radio21RadioTechnologyFamilyEE6$valueE",
   "name" : "android::internal::details::IsPointerLike<aidl::android::hardware::radio::RadioTechnologyFamily>::(unnamed enum at frameworks/native/libs/binder/ndk/include_cpp/android/binder_to_string.h:118:5)",
   "referenced_type" : "_ZTIN7android8internal7details13IsPointerLikeIN4aidl7android8hardware5radio21RadioTechnologyFamilyEE6$valueE",
   "self_type" : "_ZTIN7android8internal7details13IsPointerLikeIN4aidl7android8hardware5radio21RadioTechnologyFamilyEE6$valueE",
   "size" : 4,
   "source_file" : "frameworks/native/libs/binder/ndk/include_cpp/android/binder_to_string.h",
   "underlying_type" : "_ZTIj"
  },
  {
   "alignment" : 4,
   "enum_fields" :
   [
    {
     "enum_field_value" : 0,
     "name" : "android::internal::details::IsPointerLike<aidl::android::hardware::radio::messaging::GsmSmsMessage>::value"
    }
   ],
   "linker_set_key" : "_ZTIN7android8internal7details13IsPointerLikeIN4aidl7android8hardware5radio9messaging13GsmSmsMessageEE6$valueE",
   "name" : "android::internal::details::IsPointerLike<aidl::android::hardware::radio::messaging::GsmSmsMessage>::(unnamed enum at frameworks/native/libs/binder/ndk/include_cpp/android/binder_to_string.h:118:5)",
   "referenced_type" : "_ZTIN7android8internal7details13IsPointerLikeIN4aidl7android8hardware5radio9messaging13GsmSmsMessageEE6$valueE",
   "self_type" : "_ZTIN7android8internal7details13IsPointerLikeIN4aidl7android8hardware5radio9messaging13GsmSmsMessageEE6$valueE",
   "size" : 4,
   "source_file" : "frameworks/native/libs/binder/ndk/include_cpp/android/binder_to_string.h",
   "underlying_type" : "_ZTIj"
  },
  {
   "alignment" : 4,
   "enum_fields" :
   [
    {
     "enum_field_value" : 0,
     "name" : "android::internal::details::IsPointerLike<aidl::android::hardware::radio::messaging::CdmaSmsAddress>::value"
    }
   ],
   "linker_set_key" : "_ZTIN7android8internal7details13IsPointerLikeIN4aidl7android8hardware5radio9messaging14CdmaSmsAddressEE6$valueE",
   "name" : "android::internal::details::IsPointerLike<aidl::android::hardware::radio::messaging::CdmaSmsAddress>::(unnamed enum at frameworks/native/libs/binder/ndk/include_cpp/android/binder_to_string.h:118:5)",
   "referenced_type" : "_ZTIN7android8internal7details13IsPointerLikeIN4aidl7android8hardware5radio9messaging14CdmaSmsAddressEE6$valueE",
   "self_type" : "_ZTIN7android8internal7details13IsPointerLikeIN4aidl7android8hardware5radio9messaging14CdmaSmsAddressEE6$valueE",
   "size" : 4,
   "source_file" : "frameworks/native/libs/binder/ndk/include_cpp/android/binder_to_string.h",
   "underlying_type" : "_ZTIj"
  },
  {
   "alignment" : 4,
   "enum_fields" :
   [
    {
     "enum_field_value" : 0,
     "name" : "android::internal::details::IsPointerLike<aidl::android::hardware::radio::messaging::CdmaSmsMessage>::value"
    }
   ],
   "linker_set_key" : "_ZTIN7android8internal7details13IsPointerLikeIN4aidl7android8hardware5radio9messaging14CdmaSmsMessageEE6$valueE",
   "name" : "android::internal::details::IsPointerLike<aidl::android::hardware::radio::messaging::CdmaSmsMessage>::(unnamed enum at frameworks/native/libs/binder/ndk/include_cpp/android/binder_to_string.h:118:5)",
   "referenced_type" : "_ZTIN7android8internal7details13IsPointerLikeIN4aidl7android8hardware5radio9messaging14CdmaSmsMessageEE6$valueE",
   "self_type" : "_ZTIN7android8internal7details13IsPointerLikeIN4aidl7android8hardware5radio9messaging14CdmaSmsMessageEE6$valueE",
   "size" : 4,
   "source_file" : "frameworks/native/libs/binder/ndk/include_cpp/android/binder_to_string.h",
   "underlying_type" : "_ZTIj"
  },
  {
   "alignment" : 4,
   "enum_fields" :
   [
    {
     "enum_field_value" : 0,
     "name" : "android::internal::details::IsPointerLike<aidl::android::hardware::radio::messaging::CdmaSmsSubaddress>::value"
    }
   ],
   "linker_set_key" : "_ZTIN7android8internal7details13IsPointerLikeIN4aidl7android8hardware5radio9messaging17CdmaSmsSubaddressEE6$valueE",
   "name" : "android::internal::details::IsPointerLike<aidl::android::hardware::radio::messaging::CdmaSmsSubaddress>::(unnamed enum at frameworks/native/libs/binder/ndk/include_cpp/android/binder_to_string.h:118:5)",
   "referenced_type" : "_ZTIN7android8internal7details13IsPointerLikeIN4aidl7android8hardware5radio9messaging17CdmaSmsSubaddressEE6$valueE",
   "self_type" : "_ZTIN7android8internal7details13IsPointerLikeIN4aidl7android8hardware5radio9messaging17CdmaSmsSubaddressEE6$valueE",
   "size" : 4,
   "source_file" : "frameworks/native/libs/binder/ndk/include_cpp/android/binder_to_string.h",
   "underlying_type" : "_ZTIj"
  },
  {
   "alignment" : 4,
   "enum_fields" :
   [
    {
     "enum_field_value" : 0,
     "name" : "android::internal::details::IsPointerLike<std::vector<aidl::android::hardware::radio::messaging::GsmSmsMessage>>::value"
    }
   ],
   "linker_set_key" : "_ZTIN7android8internal7details13IsPointerLikeINSt3__16vectorIN4aidl7android8hardware5radio9messaging13GsmSmsMessageENS3_9allocatorISA_EEEEE6$valueE",
   "name" : "android::internal::details::IsPointerLike<std::vector<aidl::android::hardware::radio::messaging::GsmSmsMessage, std::allocator<aidl::android::hardware::radio::messaging::GsmSmsMessage>>>::(unnamed enum at frameworks/native/libs/binder/ndk/include_cpp/android/binder_to_string.h:118:5)",
   "referenced_type" : "_ZTIN7android8internal7details13IsPointerLikeINSt3__16vectorIN4aidl7android8hardware5radio9messaging13GsmSmsMessageENS3_9allocatorISA_EEEEE6$valueE",
   "self_type" : "_ZTIN7android8internal7details13IsPointerLikeINSt3__16vectorIN4aidl7android8hardware5radio9messaging13GsmSmsMessageENS3_9allocatorISA_EEEEE6$valueE",
   "size" : 4,
   "source_file" : "frameworks/native/libs/binder/ndk/include_cpp/android/binder_to_string.h",
   "underlying_type" : "_ZTIj"
  },
  {
   "alignment" : 4,
   "enum_fields" :
   [
    {
     "enum_field_value" : 0,
     "name" : "android::internal::details::IsPointerLike<std::vector<aidl::android::hardware::radio::messaging::CdmaSmsMessage>>::value"
    }
   ],
   "linker_set_key" : "_ZTIN7android8internal7details13IsPointerLikeINSt3__16vectorIN4aidl7android8hardware5radio9messaging14CdmaSmsMessageENS3_9allocatorISA_EEEEE6$valueE",
   "name" : "android::internal::details::IsPointerLike<std::vector<aidl::android::hardware::radio::messaging::CdmaSmsMessage, std::allocator<aidl::android::hardware::radio::messaging::CdmaSmsMessage>>>::(unnamed enum at frameworks/native/libs/binder/ndk/include_cpp/android/binder_to_string.h:118:5)",
   "referenced_type" : "_ZTIN7android8internal7details13IsPointerLikeINSt3__16vectorIN4aidl7android8hardware5radio9messaging14CdmaSmsMessageENS3_9allocatorISA_EEEEE6$valueE",
   "self_type" : "_ZTIN7android8internal7details13IsPointerLikeINSt3__16vectorIN4aidl7android8hardware5radio9messaging14CdmaSmsMessageENS3_9allocatorISA_EEEEE6$valueE",
   "size" : 4,
   "source_file" : "frameworks/native/libs/binder/ndk/include_cpp/android/binder_to_string.h",
   "underlying_type" : "_ZTIj"
  },
  {
   "alignment" : 4,
   "enum_fields" :
   [
    {
     "enum_field_value" : 0,
     "name" : "android::internal::details::IsPointerLike<std::vector<unsigned char>>::value"
    }
   ],
   "linker_set_key" : "_ZTIN7android8internal7details13IsPointerLikeINSt3__16vectorIhNS3_9allocatorIhEEEEE6$valueE",
   "name" : "android::internal::details::IsPointerLike<std::vector<unsigned char, std::allocator<unsigned char>>>::(unnamed enum at frameworks/native/libs/binder/ndk/include_cpp/android/binder_to_string.h:118:5)",
   "referenced_type" : "_ZTIN7android8internal7details13IsPointerLikeINSt3__16vectorIhNS3_9allocatorIhEEEEE6$valueE",
   "self_type" : "_ZTIN7android8internal7details13IsPointerLikeINSt3__16vectorIhNS3_9allocatorIhEEEEE6$valueE",
   "size" : 4,
   "source_file" : "frameworks/native/libs/binder/ndk/include_cpp/android/binder_to_string.h",
   "underlying_type" : "_ZTIj"
  },
  {
   "alignment" : 4,
   "enum_fields" :
   [
    {
     "enum_field_value" : 0,
     "name" : "android::internal::details::ToEmptyString<aidl::android::hardware::radio::RadioError>::value"
    }
   ],
   "linker_set_key" : "_ZTIN7android8internal7details13ToEmptyStringIN4aidl7android8hardware5radio10RadioErrorEE6$valueE",
   "name" : "android::internal::details::ToEmptyString<aidl::android::hardware::radio::RadioError>::(unnamed enum at frameworks/native/libs/binder/ndk/include_cpp/android/binder_to_string.h:153:5)",
   "referenced_type" : "_ZTIN7android8internal7details13ToEmptyStringIN4aidl7android8hardware5radio10RadioErrorEE6$valueE",
   "self_type" : "_ZTIN7android8internal7details13ToEmptyStringIN4aidl7android8hardware5radio10RadioErrorEE6$valueE",
   "size" : 4,
   "source_file" : "frameworks/native/libs/binder/ndk/include_cpp/android/binder_to_string.h",
   "underlying_type" : "_ZTIj"
  },
  {
   "alignment" : 4,
   "enum_fields" :
   [
    {
     "enum_field_value" : 0,
     "name" : "android::internal::details::ToEmptyString<aidl::android::hardware::radio::RadioResponseType>::value"
    }
   ],
   "linker_set_key" : "_ZTIN7android8internal7details13ToEmptyStringIN4aidl7android8hardware5radio17RadioResponseTypeEE6$valueE",
   "name" : "android::internal::details::ToEmptyString<aidl::android::hardware::radio::RadioResponseType>::(unnamed enum at frameworks/native/libs/binder/ndk/include_cpp/android/binder_to_string.h:153:5)",
   "referenced_type" : "_ZTIN7android8internal7details13ToEmptyStringIN4aidl7android8hardware5radio17RadioResponseTypeEE6$valueE",
   "self_type" : "_ZTIN7android8internal7details13ToEmptyStringIN4aidl7android8hardware5radio17RadioResponseTypeEE6$valueE",
   "size" : 4,
   "source_file" : "frameworks/native/libs/binder/ndk/include_cpp/android/binder_to_string.h",
   "underlying_type" : "_ZTIj"
  },
  {
   "alignment" : 4,
   "enum_fields" :
   [
    {
     "enum_field_value" : 0,
     "name" : "android::internal::details::ToEmptyString<aidl::android::hardware::radio::RadioTechnologyFamily>::value"
    }
   ],
   "linker_set_key" : "_ZTIN7android8internal7details13ToEmptyStringIN4aidl7android8hardware5radio21RadioTechnologyFamilyEE6$valueE",
   "name" : "android::internal::details::ToEmptyString<aidl::android::hardware::radio::RadioTechnologyFamily>::(unnamed enum at frameworks/native/libs/binder/ndk/include_cpp/android/binder_to_string.h:153:5)",
   "referenced_type" : "_ZTIN7android8internal7details13ToEmptyStringIN4aidl7android8hardware5radio21RadioTechnologyFamilyEE6$valueE",
   "self_type" : "_ZTIN7android8internal7details13ToEmptyStringIN4aidl7android8hardware5radio21RadioTechnologyFamilyEE6$valueE",
   "size" : 4,
   "source_file" : "frameworks/native/libs/binder/ndk/include_cpp/android/binder_to_string.h",
   "underlying_type" : "_ZTIj"
  },
  {
   "alignment" : 4,
   "enum_fields" :
   [
    {
     "enum_field_value" : 0,
     "name" : "android::internal::details::ToEmptyString<aidl::android::hardware::radio::messaging::GsmSmsMessage>::value"
    }
   ],
   "linker_set_key" : "_ZTIN7android8internal7details13ToEmptyStringIN4aidl7android8hardware5radio9messaging13GsmSmsMessageEE6$valueE",
   "name" : "android::internal::details::ToEmptyString<aidl::android::hardware::radio::messaging::GsmSmsMessage>::(unnamed enum at frameworks/native/libs/binder/ndk/include_cpp/android/binder_to_string.h:153:5)",
   "referenced_type" : "_ZTIN7android8internal7details13ToEmptyStringIN4aidl7android8hardware5radio9messaging13GsmSmsMessageEE6$valueE",
   "self_type" : "_ZTIN7android8internal7details13ToEmptyStringIN4aidl7android8hardware5radio9messaging13GsmSmsMessageEE6$valueE",
   "size" : 4,
   "source_file" : "frameworks/native/libs/binder/ndk/include_cpp/android/binder_to_string.h",
   "underlying_type" : "_ZTIj"
  },
  {
   "alignment" : 4,
   "enum_fields" :
   [
    {
     "enum_field_value" : 0,
     "name" : "android::internal::details::ToEmptyString<aidl::android::hardware::radio::messaging::CdmaSmsAddress>::value"
    }
   ],
   "linker_set_key" : "_ZTIN7android8internal7details13ToEmptyStringIN4aidl7android8hardware5radio9messaging14CdmaSmsAddressEE6$valueE",
   "name" : "android::internal::details::ToEmptyString<aidl::android::hardware::radio::messaging::CdmaSmsAddress>::(unnamed enum at frameworks/native/libs/binder/ndk/include_cpp/android/binder_to_string.h:153:5)",
   "referenced_type" : "_ZTIN7android8internal7details13ToEmptyStringIN4aidl7android8hardware5radio9messaging14CdmaSmsAddressEE6$valueE",
   "self_type" : "_ZTIN7android8internal7details13ToEmptyStringIN4aidl7android8hardware5radio9messaging14CdmaSmsAddressEE6$valueE",
   "size" : 4,
   "source_file" : "frameworks/native/libs/binder/ndk/include_cpp/android/binder_to_string.h",
   "underlying_type" : "_ZTIj"
  },
  {
   "alignment" : 4,
   "enum_fields" :
   [
    {
     "enum_field_value" : 0,
     "name" : "android::internal::details::ToEmptyString<aidl::android::hardware::radio::messaging::CdmaSmsMessage>::value"
    }
   ],
   "linker_set_key" : "_ZTIN7android8internal7details13ToEmptyStringIN4aidl7android8hardware5radio9messaging14CdmaSmsMessageEE6$valueE",
   "name" : "android::internal::details::ToEmptyString<aidl::android::hardware::radio::messaging::CdmaSmsMessage>::(unnamed enum at frameworks/native/libs/binder/ndk/include_cpp/android/binder_to_string.h:153:5)",
   "referenced_type" : "_ZTIN7android8internal7details13ToEmptyStringIN4aidl7android8hardware5radio9messaging14CdmaSmsMessageEE6$valueE",
   "self_type" : "_ZTIN7android8internal7details13ToEmptyStringIN4aidl7android8hardware5radio9messaging14CdmaSmsMessageEE6$valueE",
   "size" : 4,
   "source_file" : "frameworks/native/libs/binder/ndk/include_cpp/android/binder_to_string.h",
   "underlying_type" : "_ZTIj"
  },
  {
   "alignment" : 4,
   "enum_fields" :
   [
    {
     "enum_field_value" : 0,
     "name" : "android::internal::details::ToEmptyString<aidl::android::hardware::radio::messaging::CdmaSmsSubaddress>::value"
    }
   ],
   "linker_set_key" : "_ZTIN7android8internal7details13ToEmptyStringIN4aidl7android8hardware5radio9messaging17CdmaSmsSubaddressEE6$valueE",
   "name" : "android::internal::details::ToEmptyString<aidl::android::hardware::radio::messaging::CdmaSmsSubaddress>::(unnamed enum at frameworks/native/libs/binder/ndk/include_cpp/android/binder_to_string.h:153:5)",
   "referenced_type" : "_ZTIN7android8internal7details13ToEmptyStringIN4aidl7android8hardware5radio9messaging17CdmaSmsSubaddressEE6$valueE",
   "self_type" : "_ZTIN7android8internal7details13ToEmptyStringIN4aidl7android8hardware5radio9messaging17CdmaSmsSubaddressEE6$valueE",
   "size" : 4,
   "source_file" : "frameworks/native/libs/binder/ndk/include_cpp/android/binder_to_string.h",
   "underlying_type" : "_ZTIj"
  },
  {
   "alignment" : 4,
   "enum_fields" :
   [
    {
     "enum_field_value" : 0,
     "name" : "android::internal::details::ToEmptyString<std::basic_string<char>>::value"
    }
   ],
   "linker_set_key" : "_ZTIN7android8internal7details13ToEmptyStringINSt3__112basic_stringIcNS3_11char_traitsIcEENS3_9allocatorIcEEEEE6$valueE",
   "name" : "android::internal::details::ToEmptyString<std::basic_string<char, std::char_traits<char>, std::allocator<char>>>::(unnamed enum at frameworks/native/libs/binder/ndk/include_cpp/android/binder_to_string.h:153:5)",
   "referenced_type" : "_ZTIN7android8internal7details13ToEmptyStringINSt3__112basic_stringIcNS3_11char_traitsIcEENS3_9allocatorIcEEEEE6$valueE",
   "self_type" : "_ZTIN7android8internal7details13ToEmptyStringINSt3__112basic_stringIcNS3_11char_traitsIcEENS3_9allocatorIcEEEEE6$valueE",
   "size" : 4,
   "source_file" : "frameworks/native/libs/binder/ndk/include_cpp/android/binder_to_string.h",
   "underlying_type" : "_ZTIj"
  },
  {
   "alignment" : 4,
   "enum_fields" :
   [
    {
     "enum_field_value" : 0,
     "name" : "android::internal::details::ToEmptyString<std::vector<aidl::android::hardware::radio::messaging::GsmSmsMessage>>::value"
    }
   ],
   "linker_set_key" : "_ZTIN7android8internal7details13ToEmptyStringINSt3__16vectorIN4aidl7android8hardware5radio9messaging13GsmSmsMessageENS3_9allocatorISA_EEEEE6$valueE",
   "name" : "android::internal::details::ToEmptyString<std::vector<aidl::android::hardware::radio::messaging::GsmSmsMessage, std::allocator<aidl::android::hardware::radio::messaging::GsmSmsMessage>>>::(unnamed enum at frameworks/native/libs/binder/ndk/include_cpp/android/binder_to_string.h:153:5)",
   "referenced_type" : "_ZTIN7android8internal7details13ToEmptyStringINSt3__16vectorIN4aidl7android8hardware5radio9messaging13GsmSmsMessageENS3_9allocatorISA_EEEEE6$valueE",
   "self_type" : "_ZTIN7android8internal7details13ToEmptyStringINSt3__16vectorIN4aidl7android8hardware5radio9messaging13GsmSmsMessageENS3_9allocatorISA_EEEEE6$valueE",
   "size" : 4,
   "source_file" : "frameworks/native/libs/binder/ndk/include_cpp/android/binder_to_string.h",
   "underlying_type" : "_ZTIj"
  },
  {
   "alignment" : 4,
   "enum_fields" :
   [
    {
     "enum_field_value" : 0,
     "name" : "android::internal::details::ToEmptyString<std::vector<aidl::android::hardware::radio::messaging::CdmaSmsMessage>>::value"
    }
   ],
   "linker_set_key" : "_ZTIN7android8internal7details13ToEmptyStringINSt3__16vectorIN4aidl7android8hardware5radio9messaging14CdmaSmsMessageENS3_9allocatorISA_EEEEE6$valueE",
   "name" : "android::internal::details::ToEmptyString<std::vector<aidl::android::hardware::radio::messaging::CdmaSmsMessage, std::allocator<aidl::android::hardware::radio::messaging::CdmaSmsMessage>>>::(unnamed enum at frameworks/native/libs/binder/ndk/include_cpp/android/binder_to_string.h:153:5)",
   "referenced_type" : "_ZTIN7android8internal7details13ToEmptyStringINSt3__16vectorIN4aidl7android8hardware5radio9messaging14CdmaSmsMessageENS3_9allocatorISA_EEEEE6$valueE",
   "self_type" : "_ZTIN7android8internal7details13ToEmptyStringINSt3__16vectorIN4aidl7android8hardware5radio9messaging14CdmaSmsMessageENS3_9allocatorISA_EEEEE6$valueE",
   "size" : 4,
   "source_file" : "frameworks/native/libs/binder/ndk/include_cpp/android/binder_to_string.h",
   "underlying_type" : "_ZTIj"
  },
  {
   "alignment" : 4,
   "enum_fields" :
   [
    {
     "enum_field_value" : 0,
     "name" : "android::internal::details::ToEmptyString<std::vector<unsigned char>>::value"
    }
   ],
   "linker_set_key" : "_ZTIN7android8internal7details13ToEmptyStringINSt3__16vectorIhNS3_9allocatorIhEEEEE6$valueE",
   "name" : "android::internal::details::ToEmptyString<std::vector<unsigned char, std::allocator<unsigned char>>>::(unnamed enum at frameworks/native/libs/binder/ndk/include_cpp/android/binder_to_string.h:153:5)",
   "referenced_type" : "_ZTIN7android8internal7details13ToEmptyStringINSt3__16vectorIhNS3_9allocatorIhEEEEE6$valueE",
   "self_type" : "_ZTIN7android8internal7details13ToEmptyStringINSt3__16vectorIhNS3_9allocatorIhEEEEE6$valueE",
   "size" : 4,
   "source_file" : "frameworks/native/libs/binder/ndk/include_cpp/android/binder_to_string.h",
   "underlying_type" : "_ZTIj"
  },
  {
   "alignment" : 4,
   "enum_fields" :
   [
    {
     "enum_field_value" : 0,
     "name" : "android::internal::details::ToEmptyString<bool>::value"
    }
   ],
   "linker_set_key" : "_ZTIN7android8internal7details13ToEmptyStringIbE6$valueE",
   "name" : "android::internal::details::ToEmptyString<bool>::(unnamed enum at frameworks/native/libs/binder/ndk/include_cpp/android/binder_to_string.h:153:5)",
   "referenced_type" : "_ZTIN7android8internal7details13ToEmptyStringIbE6$valueE",
   "self_type" : "_ZTIN7android8internal7details13ToEmptyStringIbE6$valueE",
   "size" : 4,
   "source_file" : "frameworks/native/libs/binder/ndk/include_cpp/android/binder_to_string.h",
   "underlying_type" : "_ZTIj"
  },
  {
   "alignment" : 4,
   "enum_fields" :
   [
    {
     "enum_field_value" : 0,
     "name" : "android::internal::details::ToEmptyString<unsigned char>::value"
    }
   ],
   "linker_set_key" : "_ZTIN7android8internal7details13ToEmptyStringIhE6$valueE",
   "name" : "android::internal::details::ToEmptyString<unsigned char>::(unnamed enum at frameworks/native/libs/binder/ndk/include_cpp/android/binder_to_string.h:153:5)",
   "referenced_type" : "_ZTIN7android8internal7details13ToEmptyStringIhE6$valueE",
   "self_type" : "_ZTIN7android8internal7details13ToEmptyStringIhE6$valueE",
   "size" : 4,
   "source_file" : "frameworks/native/libs/binder/ndk/include_cpp/android/binder_to_string.h",
   "underlying_type" : "_ZTIj"
  },
  {
   "alignment" : 4,
   "enum_fields" :
   [
    {
     "enum_field_value" : 0,
     "name" : "android::internal::details::ToEmptyString<int>::value"
    }
   ],
   "linker_set_key" : "_ZTIN7android8internal7details13ToEmptyStringIiE6$valueE",
   "name" : "android::internal::details::ToEmptyString<int>::(unnamed enum at frameworks/native/libs/binder/ndk/include_cpp/android/binder_to_string.h:153:5)",
   "referenced_type" : "_ZTIN7android8internal7details13ToEmptyStringIiE6$valueE",
   "self_type" : "_ZTIN7android8internal7details13ToEmptyStringIiE6$valueE",
   "size" : 4,
   "source_file" : "frameworks/native/libs/binder/ndk/include_cpp/android/binder_to_string.h",
   "underlying_type" : "_ZTIj"
  },
  {
   "alignment" : 4,
   "enum_fields" :
   [
    {
     "enum_field_value" : 0,
     "name" : "android::internal::details::HasToStringMethod<aidl::android::hardware::radio::RadioError>::value"
    }
   ],
   "linker_set_key" : "_ZTIN7android8internal7details17HasToStringMethodIN4aidl7android8hardware5radio10RadioErrorEE6$valueE",
   "name" : "android::internal::details::HasToStringMethod<aidl::android::hardware::radio::RadioError>::(unnamed enum at frameworks/native/libs/binder/ndk/include_cpp/android/binder_to_string.h:77:5)",
   "referenced_type" : "_ZTIN7android8internal7details17HasToStringMethodIN4aidl7android8hardware5radio10RadioErrorEE6$valueE",
   "self_type" : "_ZTIN7android8internal7details17HasToStringMethodIN4aidl7android8hardware5radio10RadioErrorEE6$valueE",
   "size" : 4,
   "source_file" : "frameworks/native/libs/binder/ndk/include_cpp/android/binder_to_string.h",
   "underlying_type" : "_ZTIj"
  },
  {
   "alignment" : 4,
   "enum_fields" :
   [
    {
     "enum_field_value" : 0,
     "name" : "android::internal::details::HasToStringMethod<aidl::android::hardware::radio::RadioResponseType>::value"
    }
   ],
   "linker_set_key" : "_ZTIN7android8internal7details17HasToStringMethodIN4aidl7android8hardware5radio17RadioResponseTypeEE6$valueE",
   "name" : "android::internal::details::HasToStringMethod<aidl::android::hardware::radio::RadioResponseType>::(unnamed enum at frameworks/native/libs/binder/ndk/include_cpp/android/binder_to_string.h:77:5)",
   "referenced_type" : "_ZTIN7android8internal7details17HasToStringMethodIN4aidl7android8hardware5radio17RadioResponseTypeEE6$valueE",
   "self_type" : "_ZTIN7android8internal7details17HasToStringMethodIN4aidl7android8hardware5radio17RadioResponseTypeEE6$valueE",
   "size" : 4,
   "source_file" : "frameworks/native/libs/binder/ndk/include_cpp/android/binder_to_string.h",
   "underlying_type" : "_ZTIj"
  },
  {
   "alignment" : 4,
   "enum_fields" :
   [
    {
     "enum_field_value" : 0,
     "name" : "android::internal::details::HasToStringMethod<aidl::android::hardware::radio::RadioTechnologyFamily>::value"
    }
   ],
   "linker_set_key" : "_ZTIN7android8internal7details17HasToStringMethodIN4aidl7android8hardware5radio21RadioTechnologyFamilyEE6$valueE",
   "name" : "android::internal::details::HasToStringMethod<aidl::android::hardware::radio::RadioTechnologyFamily>::(unnamed enum at frameworks/native/libs/binder/ndk/include_cpp/android/binder_to_string.h:77:5)",
   "referenced_type" : "_ZTIN7android8internal7details17HasToStringMethodIN4aidl7android8hardware5radio21RadioTechnologyFamilyEE6$valueE",
   "self_type" : "_ZTIN7android8internal7details17HasToStringMethodIN4aidl7android8hardware5radio21RadioTechnologyFamilyEE6$valueE",
   "size" : 4,
   "source_file" : "frameworks/native/libs/binder/ndk/include_cpp/android/binder_to_string.h",
   "underlying_type" : "_ZTIj"
  },
  {
   "alignment" : 4,
   "enum_fields" :
   [
    {
     "enum_field_value" : 1,
     "name" : "android::internal::details::HasToStringMethod<aidl::android::hardware::radio::messaging::GsmSmsMessage>::value"
    }
   ],
   "linker_set_key" : "_ZTIN7android8internal7details17HasToStringMethodIN4aidl7android8hardware5radio9messaging13GsmSmsMessageEE6$valueE",
   "name" : "android::internal::details::HasToStringMethod<aidl::android::hardware::radio::messaging::GsmSmsMessage>::(unnamed enum at frameworks/native/libs/binder/ndk/include_cpp/android/binder_to_string.h:77:5)",
   "referenced_type" : "_ZTIN7android8internal7details17HasToStringMethodIN4aidl7android8hardware5radio9messaging13GsmSmsMessageEE6$valueE",
   "self_type" : "_ZTIN7android8internal7details17HasToStringMethodIN4aidl7android8hardware5radio9messaging13GsmSmsMessageEE6$valueE",
   "size" : 4,
   "source_file" : "frameworks/native/libs/binder/ndk/include_cpp/android/binder_to_string.h",
   "underlying_type" : "_ZTIj"
  },
  {
   "alignment" : 4,
   "enum_fields" :
   [
    {
     "enum_field_value" : 1,
     "name" : "android::internal::details::HasToStringMethod<aidl::android::hardware::radio::messaging::CdmaSmsAddress>::value"
    }
   ],
   "linker_set_key" : "_ZTIN7android8internal7details17HasToStringMethodIN4aidl7android8hardware5radio9messaging14CdmaSmsAddressEE6$valueE",
   "name" : "android::internal::details::HasToStringMethod<aidl::android::hardware::radio::messaging::CdmaSmsAddress>::(unnamed enum at frameworks/native/libs/binder/ndk/include_cpp/android/binder_to_string.h:77:5)",
   "referenced_type" : "_ZTIN7android8internal7details17HasToStringMethodIN4aidl7android8hardware5radio9messaging14CdmaSmsAddressEE6$valueE",
   "self_type" : "_ZTIN7android8internal7details17HasToStringMethodIN4aidl7android8hardware5radio9messaging14CdmaSmsAddressEE6$valueE",
   "size" : 4,
   "source_file" : "frameworks/native/libs/binder/ndk/include_cpp/android/binder_to_string.h",
   "underlying_type" : "_ZTIj"
  },
  {
   "alignment" : 4,
   "enum_fields" :
   [
    {
     "enum_field_value" : 1,
     "name" : "android::internal::details::HasToStringMethod<aidl::android::hardware::radio::messaging::CdmaSmsMessage>::value"
    }
   ],
   "linker_set_key" : "_ZTIN7android8internal7details17HasToStringMethodIN4aidl7android8hardware5radio9messaging14CdmaSmsMessageEE6$valueE",
   "name" : "android::internal::details::HasToStringMethod<aidl::android::hardware::radio::messaging::CdmaSmsMessage>::(unnamed enum at frameworks/native/libs/binder/ndk/include_cpp/android/binder_to_string.h:77:5)",
   "referenced_type" : "_ZTIN7android8internal7details17HasToStringMethodIN4aidl7android8hardware5radio9messaging14CdmaSmsMessageEE6$valueE",
   "self_type" : "_ZTIN7android8internal7details17HasToStringMethodIN4aidl7android8hardware5radio9messaging14CdmaSmsMessageEE6$valueE",
   "size" : 4,
   "source_file" : "frameworks/native/libs/binder/ndk/include_cpp/android/binder_to_string.h",
   "underlying_type" : "_ZTIj"
  },
  {
   "alignment" : 4,
   "enum_fields" :
   [
    {
     "enum_field_value" : 1,
     "name" : "android::internal::details::HasToStringMethod<aidl::android::hardware::radio::messaging::CdmaSmsSubaddress>::value"
    }
   ],
   "linker_set_key" : "_ZTIN7android8internal7details17HasToStringMethodIN4aidl7android8hardware5radio9messaging17CdmaSmsSubaddressEE6$valueE",
   "name" : "android::internal::details::HasToStringMethod<aidl::android::hardware::radio::messaging::CdmaSmsSubaddress>::(unnamed enum at frameworks/native/libs/binder/ndk/include_cpp/android/binder_to_string.h:77:5)",
   "referenced_type" : "_ZTIN7android8internal7details17HasToStringMethodIN4aidl7android8hardware5radio9messaging17CdmaSmsSubaddressEE6$valueE",
   "self_type" : "_ZTIN7android8internal7details17HasToStringMethodIN4aidl7android8hardware5radio9messaging17CdmaSmsSubaddressEE6$valueE",
   "size" : 4,
   "source_file" : "frameworks/native/libs/binder/ndk/include_cpp/android/binder_to_string.h",
   "underlying_type" : "_ZTIj"
  },
  {
   "alignment" : 4,
   "enum_fields" :
   [
    {
     "enum_field_value" : 0,
     "name" : "android::internal::details::HasToStringMethod<std::vector<aidl::android::hardware::radio::messaging::GsmSmsMessage>>::value"
    }
   ],
   "linker_set_key" : "_ZTIN7android8internal7details17HasToStringMethodINSt3__16vectorIN4aidl7android8hardware5radio9messaging13GsmSmsMessageENS3_9allocatorISA_EEEEE6$valueE",
   "name" : "android::internal::details::HasToStringMethod<std::vector<aidl::android::hardware::radio::messaging::GsmSmsMessage, std::allocator<aidl::android::hardware::radio::messaging::GsmSmsMessage>>>::(unnamed enum at frameworks/native/libs/binder/ndk/include_cpp/android/binder_to_string.h:77:5)",
   "referenced_type" : "_ZTIN7android8internal7details17HasToStringMethodINSt3__16vectorIN4aidl7android8hardware5radio9messaging13GsmSmsMessageENS3_9allocatorISA_EEEEE6$valueE",
   "self_type" : "_ZTIN7android8internal7details17HasToStringMethodINSt3__16vectorIN4aidl7android8hardware5radio9messaging13GsmSmsMessageENS3_9allocatorISA_EEEEE6$valueE",
   "size" : 4,
   "source_file" : "frameworks/native/libs/binder/ndk/include_cpp/android/binder_to_string.h",
   "underlying_type" : "_ZTIj"
  },
  {
   "alignment" : 4,
   "enum_fields" :
   [
    {
     "enum_field_value" : 0,
     "name" : "android::internal::details::HasToStringMethod<std::vector<aidl::android::hardware::radio::messaging::CdmaSmsMessage>>::value"
    }
   ],
   "linker_set_key" : "_ZTIN7android8internal7details17HasToStringMethodINSt3__16vectorIN4aidl7android8hardware5radio9messaging14CdmaSmsMessageENS3_9allocatorISA_EEEEE6$valueE",
   "name" : "android::internal::details::HasToStringMethod<std::vector<aidl::android::hardware::radio::messaging::CdmaSmsMessage, std::allocator<aidl::android::hardware::radio::messaging::CdmaSmsMessage>>>::(unnamed enum at frameworks/native/libs/binder/ndk/include_cpp/android/binder_to_string.h:77:5)",
   "referenced_type" : "_ZTIN7android8internal7details17HasToStringMethodINSt3__16vectorIN4aidl7android8hardware5radio9messaging14CdmaSmsMessageENS3_9allocatorISA_EEEEE6$valueE",
   "self_type" : "_ZTIN7android8internal7details17HasToStringMethodINSt3__16vectorIN4aidl7android8hardware5radio9messaging14CdmaSmsMessageENS3_9allocatorISA_EEEEE6$valueE",
   "size" : 4,
   "source_file" : "frameworks/native/libs/binder/ndk/include_cpp/android/binder_to_string.h",
   "underlying_type" : "_ZTIj"
  },
  {
   "alignment" : 4,
   "enum_fields" :
   [
    {
     "enum_field_value" : 0,
     "name" : "android::internal::details::HasToStringMethod<std::vector<unsigned char>>::value"
    }
   ],
   "linker_set_key" : "_ZTIN7android8internal7details17HasToStringMethodINSt3__16vectorIhNS3_9allocatorIhEEEEE6$valueE",
   "name" : "android::internal::details::HasToStringMethod<std::vector<unsigned char, std::allocator<unsigned char>>>::(unnamed enum at frameworks/native/libs/binder/ndk/include_cpp/android/binder_to_string.h:77:5)",
   "referenced_type" : "_ZTIN7android8internal7details17HasToStringMethodINSt3__16vectorIhNS3_9allocatorIhEEEEE6$valueE",
   "self_type" : "_ZTIN7android8internal7details17HasToStringMethodINSt3__16vectorIhNS3_9allocatorIhEEEEE6$valueE",
   "size" : 4,
   "source_file" : "frameworks/native/libs/binder/ndk/include_cpp/android/binder_to_string.h",
   "underlying_type" : "_ZTIj"
  },
  {
   "alignment" : 4,
   "enum_fields" :
   [
    {
     "enum_field_value" : 1,
     "name" : "android::internal::details::HasToStringFunction<aidl::android::hardware::radio::RadioError>::value"
    }
   ],
   "linker_set_key" : "_ZTIN7android8internal7details19HasToStringFunctionIN4aidl7android8hardware5radio10RadioErrorEE6$valueE",
   "name" : "android::internal::details::HasToStringFunction<aidl::android::hardware::radio::RadioError>::(unnamed enum at frameworks/native/libs/binder/ndk/include_cpp/android/binder_to_string.h:89:5)",
   "referenced_type" : "_ZTIN7android8internal7details19HasToStringFunctionIN4aidl7android8hardware5radio10RadioErrorEE6$valueE",
   "self_type" : "_ZTIN7android8internal7details19HasToStringFunctionIN4aidl7android8hardware5radio10RadioErrorEE6$valueE",
   "size" : 4,
   "source_file" : "frameworks/native/libs/binder/ndk/include_cpp/android/binder_to_string.h",
   "underlying_type" : "_ZTIj"
  },
  {
   "alignment" : 4,
   "enum_fields" :
   [
    {
     "enum_field_value" : 1,
     "name" : "android::internal::details::HasToStringFunction<aidl::android::hardware::radio::RadioResponseType>::value"
    }
   ],
   "linker_set_key" : "_ZTIN7android8internal7details19HasToStringFunctionIN4aidl7android8hardware5radio17RadioResponseTypeEE6$valueE",
   "name" : "android::internal::details::HasToStringFunction<aidl::android::hardware::radio::RadioResponseType>::(unnamed enum at frameworks/native/libs/binder/ndk/include_cpp/android/binder_to_string.h:89:5)",
   "referenced_type" : "_ZTIN7android8internal7details19HasToStringFunctionIN4aidl7android8hardware5radio17RadioResponseTypeEE6$valueE",
   "self_type" : "_ZTIN7android8internal7details19HasToStringFunctionIN4aidl7android8hardware5radio17RadioResponseTypeEE6$valueE",
   "size" : 4,
   "source_file" : "frameworks/native/libs/binder/ndk/include_cpp/android/binder_to_string.h",
   "underlying_type" : "_ZTIj"
  },
  {
   "alignment" : 4,
   "enum_fields" :
   [
    {
     "enum_field_value" : 1,
     "name" : "android::internal::details::HasToStringFunction<aidl::android::hardware::radio::RadioTechnologyFamily>::value"
    }
   ],
   "linker_set_key" : "_ZTIN7android8internal7details19HasToStringFunctionIN4aidl7android8hardware5radio21RadioTechnologyFamilyEE6$valueE",
   "name" : "android::internal::details::HasToStringFunction<aidl::android::hardware::radio::RadioTechnologyFamily>::(unnamed enum at frameworks/native/libs/binder/ndk/include_cpp/android/binder_to_string.h:89:5)",
   "referenced_type" : "_ZTIN7android8internal7details19HasToStringFunctionIN4aidl7android8hardware5radio21RadioTechnologyFamilyEE6$valueE",
   "self_type" : "_ZTIN7android8internal7details19HasToStringFunctionIN4aidl7android8hardware5radio21RadioTechnologyFamilyEE6$valueE",
   "size" : 4,
   "source_file" : "frameworks/native/libs/binder/ndk/include_cpp/android/binder_to_string.h",
   "underlying_type" : "_ZTIj"
  },
  {
   "alignment" : 4,
   "enum_fields" :
   [
    {
     "enum_field_value" : 0,
     "name" : "android::internal::details::HasToStringFunction<std::vector<aidl::android::hardware::radio::messaging::GsmSmsMessage>>::value"
    }
   ],
   "linker_set_key" : "_ZTIN7android8internal7details19HasToStringFunctionINSt3__16vectorIN4aidl7android8hardware5radio9messaging13GsmSmsMessageENS3_9allocatorISA_EEEEE6$valueE",
   "name" : "android::internal::details::HasToStringFunction<std::vector<aidl::android::hardware::radio::messaging::GsmSmsMessage, std::allocator<aidl::android::hardware::radio::messaging::GsmSmsMessage>>>::(unnamed enum at frameworks/native/libs/binder/ndk/include_cpp/android/binder_to_string.h:89:5)",
   "referenced_type" : "_ZTIN7android8internal7details19HasToStringFunctionINSt3__16vectorIN4aidl7android8hardware5radio9messaging13GsmSmsMessageENS3_9allocatorISA_EEEEE6$valueE",
   "self_type" : "_ZTIN7android8internal7details19HasToStringFunctionINSt3__16vectorIN4aidl7android8hardware5radio9messaging13GsmSmsMessageENS3_9allocatorISA_EEEEE6$valueE",
   "size" : 4,
   "source_file" : "frameworks/native/libs/binder/ndk/include_cpp/android/binder_to_string.h",
   "underlying_type" : "_ZTIj"
  },
  {
   "alignment" : 4,
   "enum_fields" :
   [
    {
     "enum_field_value" : 0,
     "name" : "android::internal::details::HasToStringFunction<std::vector<aidl::android::hardware::radio::messaging::CdmaSmsMessage>>::value"
    }
   ],
   "linker_set_key" : "_ZTIN7android8internal7details19HasToStringFunctionINSt3__16vectorIN4aidl7android8hardware5radio9messaging14CdmaSmsMessageENS3_9allocatorISA_EEEEE6$valueE",
   "name" : "android::internal::details::HasToStringFunction<std::vector<aidl::android::hardware::radio::messaging::CdmaSmsMessage, std::allocator<aidl::android::hardware::radio::messaging::CdmaSmsMessage>>>::(unnamed enum at frameworks/native/libs/binder/ndk/include_cpp/android/binder_to_string.h:89:5)",
   "referenced_type" : "_ZTIN7android8internal7details19HasToStringFunctionINSt3__16vectorIN4aidl7android8hardware5radio9messaging14CdmaSmsMessageENS3_9allocatorISA_EEEEE6$valueE",
   "self_type" : "_ZTIN7android8internal7details19HasToStringFunctionINSt3__16vectorIN4aidl7android8hardware5radio9messaging14CdmaSmsMessageENS3_9allocatorISA_EEEEE6$valueE",
   "size" : 4,
   "source_file" : "frameworks/native/libs/binder/ndk/include_cpp/android/binder_to_string.h",
   "underlying_type" : "_ZTIj"
  },
  {
   "alignment" : 4,
   "enum_fields" :
   [
    {
     "enum_field_value" : 0,
     "name" : "android::internal::details::HasToStringFunction<std::vector<unsigned char>>::value"
    }
   ],
   "linker_set_key" : "_ZTIN7android8internal7details19HasToStringFunctionINSt3__16vectorIhNS3_9allocatorIhEEEEE6$valueE",
   "name" : "android::internal::details::HasToStringFunction<std::vector<unsigned char, std::allocator<unsigned char>>>::(unnamed enum at frameworks/native/libs/binder/ndk/include_cpp/android/binder_to_string.h:89:5)",
   "referenced_type" : "_ZTIN7android8internal7details19HasToStringFunctionINSt3__16vectorIhNS3_9allocatorIhEEEEE6$valueE",
   "self_type" : "_ZTIN7android8internal7details19HasToStringFunctionINSt3__16vectorIhNS3_9allocatorIhEEEEE6$valueE",
   "size" : 4,
   "source_file" : "frameworks/native/libs/binder/ndk/include_cpp/android/binder_to_string.h",
   "underlying_type" : "_ZTIj"
  }
 ],
 "function_types" :
 [
  {
   "alignment" : 4,
   "linker_set_key" : "_ZTIFiP8AIBinderjPK7AParcelPS1_E",
   "name" : "int (AIBinder *, unsigned int, const AParcel *, AParcel *)",
   "parameters" :
   [
    {
     "referenced_type" : "_ZTIP8AIBinder"
    },
    {
     "referenced_type" : "_ZTIj"
    },
    {
     "referenced_type" : "_ZTIPK7AParcel"
    },
    {
     "referenced_type" : "_ZTIP7AParcel"
    }
   ],
   "referenced_type" : "_ZTIFiP8AIBinderjPK7AParcelPS1_E",
   "return_type" : "_ZTIi",
   "self_type" : "_ZTIFiP8AIBinderjPK7AParcelPS1_E",
   "source_file" : "frameworks/native/libs/binder/ndk/include_cpp/android/binder_interface_utils.h"
  }
 ],
 "functions" :
 [
  {
   "function_name" : "ndk::BnCInterface<aidl::android::hardware::radio::messaging::IRadioMessaging>::asBinder",
   "linker_set_key" : "_ZN3ndk12BnCInterfaceIN4aidl7android8hardware5radio9messaging15IRadioMessagingEE8asBinderEv",
   "parameters" :
   [
    {
     "is_this_ptr" : true,
     "referenced_type" : "_ZTIPN3ndk12BnCInterfaceIN4aidl7android8hardware5radio9messaging15IRadioMessagingEEE"
    }
   ],
   "return_type" : "_ZTIN3ndk10SpAIBinderE",
   "source_file" : "frameworks/native/libs/binder/ndk/include_cpp/android/binder_interface_utils.h"
  },
  {
   "function_name" : "ndk::BnCInterface<aidl::android::hardware::radio::messaging::IRadioMessagingResponse>::asBinder",
   "linker_set_key" : "_ZN3ndk12BnCInterfaceIN4aidl7android8hardware5radio9messaging23IRadioMessagingResponseEE8asBinderEv",
   "parameters" :
   [
    {
     "is_this_ptr" : true,
     "referenced_type" : "_ZTIPN3ndk12BnCInterfaceIN4aidl7android8hardware5radio9messaging23IRadioMessagingResponseEEE"
    }
   ],
   "return_type" : "_ZTIN3ndk10SpAIBinderE",
   "source_file" : "frameworks/native/libs/binder/ndk/include_cpp/android/binder_interface_utils.h"
  },
  {
   "function_name" : "ndk::BnCInterface<aidl::android::hardware::radio::messaging::IRadioMessagingIndication>::asBinder",
   "linker_set_key" : "_ZN3ndk12BnCInterfaceIN4aidl7android8hardware5radio9messaging25IRadioMessagingIndicationEE8asBinderEv",
   "parameters" :
   [
    {
     "is_this_ptr" : true,
     "referenced_type" : "_ZTIPN3ndk12BnCInterfaceIN4aidl7android8hardware5radio9messaging25IRadioMessagingIndicationEEE"
    }
   ],
   "return_type" : "_ZTIN3ndk10SpAIBinderE",
   "source_file" : "frameworks/native/libs/binder/ndk/include_cpp/android/binder_interface_utils.h"
  },
  {
   "function_name" : "ndk::BpCInterface<aidl::android::hardware::radio::messaging::IRadioMessaging>::asBinder",
   "linker_set_key" : "_ZN3ndk12BpCInterfaceIN4aidl7android8hardware5radio9messaging15IRadioMessagingEE8asBinderEv",
   "parameters" :
   [
    {
     "is_this_ptr" : true,
     "referenced_type" : "_ZTIPN3ndk12BpCInterfaceIN4aidl7android8hardware5radio9messaging15IRadioMessagingEEE"
    }
   ],
   "return_type" : "_ZTIN3ndk10SpAIBinderE",
   "source_file" : "frameworks/native/libs/binder/ndk/include_cpp/android/binder_interface_utils.h"
  },
  {
   "function_name" : "ndk::BpCInterface<aidl::android::hardware::radio::messaging::IRadioMessagingResponse>::asBinder",
   "linker_set_key" : "_ZN3ndk12BpCInterfaceIN4aidl7android8hardware5radio9messaging23IRadioMessagingResponseEE8asBinderEv",
   "parameters" :
   [
    {
     "is_this_ptr" : true,
     "referenced_type" : "_ZTIPN3ndk12BpCInterfaceIN4aidl7android8hardware5radio9messaging23IRadioMessagingResponseEEE"
    }
   ],
   "return_type" : "_ZTIN3ndk10SpAIBinderE",
   "source_file" : "frameworks/native/libs/binder/ndk/include_cpp/android/binder_interface_utils.h"
  },
  {
   "function_name" : "ndk::BpCInterface<aidl::android::hardware::radio::messaging::IRadioMessagingIndication>::asBinder",
   "linker_set_key" : "_ZN3ndk12BpCInterfaceIN4aidl7android8hardware5radio9messaging25IRadioMessagingIndicationEE8asBinderEv",
   "parameters" :
   [
    {
     "is_this_ptr" : true,
     "referenced_type" : "_ZTIPN3ndk12BpCInterfaceIN4aidl7android8hardware5radio9messaging25IRadioMessagingIndicationEEE"
    }
   ],
   "return_type" : "_ZTIN3ndk10SpAIBinderE",
   "source_file" : "frameworks/native/libs/binder/ndk/include_cpp/android/binder_interface_utils.h"
  },
  {
   "function_name" : "ndk::AParcel_readStdVectorParcelableElement",
   "linker_set_key" : "_ZN3ndk38AParcel_readStdVectorParcelableElementIN4aidl7android8hardware5radio9messaging13GsmSmsMessageEEEiPK7AParcelPvj",
   "parameters" :
   [
    {
     "referenced_type" : "_ZTIPK7AParcel"
    },
    {
     "referenced_type" : "_ZTIPv"
    },
    {
     "referenced_type" : "_ZTIj"
    }
   ],
   "return_type" : "_ZTIi",
   "source_file" : "frameworks/native/libs/binder/ndk/include_cpp/android/binder_parcel_utils.h",
   "template_args" :
   [
    "_ZTIN4aidl7android8hardware5radio9messaging13GsmSmsMessageE"
   ]
  },
  {
   "function_name" : "ndk::AParcel_readStdVectorParcelableElement",
   "linker_set_key" : "_ZN3ndk38AParcel_readStdVectorParcelableElementIN4aidl7android8hardware5radio9messaging14CdmaSmsMessageEEEiPK7AParcelPvj",
   "parameters" :
   [
    {
     "referenced_type" : "_ZTIPK7AParcel"
    },
    {
     "referenced_type" : "_ZTIPv"
    },
    {
     "referenced_type" : "_ZTIj"
    }
   ],
   "return_type" : "_ZTIi",
   "source_file" : "frameworks/native/libs/binder/ndk/include_cpp/android/binder_parcel_utils.h",
   "template_args" :
   [
    "_ZTIN4aidl7android8hardware5radio9messaging14CdmaSmsMessageE"
   ]
  },
  {
   "function_name" : "ndk::AParcel_readStdVectorParcelableElement",
   "linker_set_key" : "_ZN3ndk38AParcel_readStdVectorParcelableElementIN4aidl7android8hardware5radio9messaging25GsmBroadcastSmsConfigInfoEEEiPK7AParcelPvj",
   "parameters" :
   [
    {
     "referenced_type" : "_ZTIPK7AParcel"
    },
    {
     "referenced_type" : "_ZTIPv"
    },
    {
     "referenced_type" : "_ZTIj"
    }
   ],
   "return_type" : "_ZTIi",
   "source_file" : "frameworks/native/libs/binder/ndk/include_cpp/android/binder_parcel_utils.h",
   "template_args" :
   [
    "_ZTIN4aidl7android8hardware5radio9messaging25GsmBroadcastSmsConfigInfoE"
   ]
  },
  {
   "function_name" : "ndk::AParcel_readStdVectorParcelableElement",
   "linker_set_key" : "_ZN3ndk38AParcel_readStdVectorParcelableElementIN4aidl7android8hardware5radio9messaging26CdmaBroadcastSmsConfigInfoEEEiPK7AParcelPvj",
   "parameters" :
   [
    {
     "referenced_type" : "_ZTIPK7AParcel"
    },
    {
     "referenced_type" : "_ZTIPv"
    },
    {
     "referenced_type" : "_ZTIj"
    }
   ],
   "return_type" : "_ZTIi",
   "source_file" : "frameworks/native/libs/binder/ndk/include_cpp/android/binder_parcel_utils.h",
   "template_args" :
   [
    "_ZTIN4aidl7android8hardware5radio9messaging26CdmaBroadcastSmsConfigInfoE"
   ]
  },
  {
   "function_name" : "ndk::AParcel_writeStdVectorParcelableElement",
   "linker_set_key" : "_ZN3ndk39AParcel_writeStdVectorParcelableElementIN4aidl7android8hardware5radio9messaging13GsmSmsMessageEEEiP7AParcelPKvj",
   "parameters" :
   [
    {
     "referenced_type" : "_ZTIP7AParcel"
    },
    {
     "referenced_type" : "_ZTIPKv"
    },
    {
     "referenced_type" : "_ZTIj"
    }
   ],
   "return_type" : "_ZTIi",
   "source_file" : "frameworks/native/libs/binder/ndk/include_cpp/android/binder_parcel_utils.h",
   "template_args" :
   [
    "_ZTIN4aidl7android8hardware5radio9messaging13GsmSmsMessageE"
   ]
  },
  {
   "function_name" : "ndk::AParcel_writeStdVectorParcelableElement",
   "linker_set_key" : "_ZN3ndk39AParcel_writeStdVectorParcelableElementIN4aidl7android8hardware5radio9messaging14CdmaSmsMessageEEEiP7AParcelPKvj",
   "parameters" :
   [
    {
     "referenced_type" : "_ZTIP7AParcel"
    },
    {
     "referenced_type" : "_ZTIPKv"
    },
    {
     "referenced_type" : "_ZTIj"
    }
   ],
   "return_type" : "_ZTIi",
   "source_file" : "frameworks/native/libs/binder/ndk/include_cpp/android/binder_parcel_utils.h",
   "template_args" :
   [
    "_ZTIN4aidl7android8hardware5radio9messaging14CdmaSmsMessageE"
   ]
  },
  {
   "function_name" : "ndk::AParcel_writeStdVectorParcelableElement",
   "linker_set_key" : "_ZN3ndk39AParcel_writeStdVectorParcelableElementIN4aidl7android8hardware5radio9messaging25GsmBroadcastSmsConfigInfoEEEiP7AParcelPKvj",
   "parameters" :
   [
    {
     "referenced_type" : "_ZTIP7AParcel"
    },
    {
     "referenced_type" : "_ZTIPKv"
    },
    {
     "referenced_type" : "_ZTIj"
    }
   ],
   "return_type" : "_ZTIi",
   "source_file" : "frameworks/native/libs/binder/ndk/include_cpp/android/binder_parcel_utils.h",
   "template_args" :
   [
    "_ZTIN4aidl7android8hardware5radio9messaging25GsmBroadcastSmsConfigInfoE"
   ]
  },
  {
   "function_name" : "ndk::AParcel_writeStdVectorParcelableElement",
   "linker_set_key" : "_ZN3ndk39AParcel_writeStdVectorParcelableElementIN4aidl7android8hardware5radio9messaging26CdmaBroadcastSmsConfigInfoEEEiP7AParcelPKvj",
   "parameters" :
   [
    {
     "referenced_type" : "_ZTIP7AParcel"
    },
    {
     "referenced_type" : "_ZTIPKv"
    },
    {
     "referenced_type" : "_ZTIj"
    }
   ],
   "return_type" : "_ZTIi",
   "source_file" : "frameworks/native/libs/binder/ndk/include_cpp/android/binder_parcel_utils.h",
   "template_args" :
   [
    "_ZTIN4aidl7android8hardware5radio9messaging26CdmaBroadcastSmsConfigInfoE"
   ]
  },
  {
   "function_name" : "aidl::android::hardware::radio::messaging::CdmaSmsAck::readFromParcel",
   "linker_set_key" : "_ZN4aidl7android8hardware5radio9messaging10CdmaSmsAck14readFromParcelEPK7AParcel",
   "parameters" :
   [
    {
     "is_this_ptr" : true,
     "referenced_type" : "_ZTIPN4aidl7android8hardware5radio9messaging10CdmaSmsAckE"
    },
    {
     "referenced_type" : "_ZTIPK7AParcel"
    }
   ],
   "return_type" : "_ZTIi",
   "source_file" : "out/soong/.intermediates/hardware/interfaces/radio/aidl/android.hardware.radio.messaging-V1-ndk-source/gen/include/aidl/android/hardware/radio/messaging/CdmaSmsAck.h"
  },
  {
   "function_name" : "aidl::android::hardware::radio::messaging::SmsWriteArgs::readFromParcel",
   "linker_set_key" : "_ZN4aidl7android8hardware5radio9messaging12SmsWriteArgs14readFromParcelEPK7AParcel",
   "parameters" :
   [
    {
     "is_this_ptr" : true,
     "referenced_type" : "_ZTIPN4aidl7android8hardware5radio9messaging12SmsWriteArgsE"
    },
    {
     "referenced_type" : "_ZTIPK7AParcel"
    }
   ],
   "return_type" : "_ZTIi",
   "source_file" : "out/soong/.intermediates/hardware/interfaces/radio/aidl/android.hardware.radio.messaging-V1-ndk-source/gen/include/aidl/android/hardware/radio/messaging/SmsWriteArgs.h"
  },
  {
   "function_name" : "aidl::android::hardware::radio::messaging::GsmSmsMessage::readFromParcel",
   "linker_set_key" : "_ZN4aidl7android8hardware5radio9messaging13GsmSmsMessage14readFromParcelEPK7AParcel",
   "parameters" :
   [
    {
     "is_this_ptr" : true,
     "referenced_type" : "_ZTIPN4aidl7android8hardware5radio9messaging13GsmSmsMessageE"
    },
    {
     "referenced_type" : "_ZTIPK7AParcel"
    }
   ],
   "return_type" : "_ZTIi",
   "source_file" : "out/soong/.intermediates/hardware/interfaces/radio/aidl/android.hardware.radio.messaging-V1-ndk-source/gen/include/aidl/android/hardware/radio/messaging/GsmSmsMessage.h"
  },
  {
   "function_name" : "aidl::android::hardware::radio::messaging::ImsSmsMessage::readFromParcel",
   "linker_set_key" : "_ZN4aidl7android8hardware5radio9messaging13ImsSmsMessage14readFromParcelEPK7AParcel",
   "parameters" :
   [
    {
     "is_this_ptr" : true,
     "referenced_type" : "_ZTIPN4aidl7android8hardware5radio9messaging13ImsSmsMessageE"
    },
    {
     "referenced_type" : "_ZTIPK7AParcel"
    }
   ],
   "return_type" : "_ZTIi",
   "source_file" : "out/soong/.intermediates/hardware/interfaces/radio/aidl/android.hardware.radio.messaging-V1-ndk-source/gen/include/aidl/android/hardware/radio/messaging/ImsSmsMessage.h"
  },
  {
   "function_name" : "aidl::android::hardware::radio::messaging::SendSmsResult::readFromParcel",
   "linker_set_key" : "_ZN4aidl7android8hardware5radio9messaging13SendSmsResult14readFromParcelEPK7AParcel",
   "parameters" :
   [
    {
     "is_this_ptr" : true,
     "referenced_type" : "_ZTIPN4aidl7android8hardware5radio9messaging13SendSmsResultE"
    },
    {
     "referenced_type" : "_ZTIPK7AParcel"
    }
   ],
   "return_type" : "_ZTIi",
   "source_file" : "out/soong/.intermediates/hardware/interfaces/radio/aidl/android.hardware.radio.messaging-V1-ndk-source/gen/include/aidl/android/hardware/radio/messaging/SendSmsResult.h"
  },
  {
   "function_name" : "aidl::android::hardware::radio::messaging::CdmaSmsAddress::readFromParcel",
   "linker_set_key" : "_ZN4aidl7android8hardware5radio9messaging14CdmaSmsAddress14readFromParcelEPK7AParcel",
   "parameters" :
   [
    {
     "is_this_ptr" : true,
     "referenced_type" : "_ZTIPN4aidl7android8hardware5radio9messaging14CdmaSmsAddressE"
    },
    {
     "referenced_type" : "_ZTIPK7AParcel"
    }
   ],
   "return_type" : "_ZTIi",
   "source_file" : "out/soong/.intermediates/hardware/interfaces/radio/aidl/android.hardware.radio.messaging-V1-ndk-source/gen/include/aidl/android/hardware/radio/messaging/CdmaSmsAddress.h"
  },
  {
   "function_name" : "aidl::android::hardware::radio::messaging::CdmaSmsMessage::readFromParcel",
   "linker_set_key" : "_ZN4aidl7android8hardware5radio9messaging14CdmaSmsMessage14readFromParcelEPK7AParcel",
   "parameters" :
   [
    {
     "is_this_ptr" : true,
     "referenced_type" : "_ZTIPN4aidl7android8hardware5radio9messaging14CdmaSmsMessageE"
    },
    {
     "referenced_type" : "_ZTIPK7AParcel"
    }
   ],
   "return_type" : "_ZTIi",
   "source_file" : "out/soong/.intermediates/hardware/interfaces/radio/aidl/android.hardware.radio.messaging-V1-ndk-source/gen/include/aidl/android/hardware/radio/messaging/CdmaSmsMessage.h"
  },
  {
   "function_name" : "aidl::android::hardware::radio::messaging::IRadioMessaging::fromBinder",
   "linker_set_key" : "_ZN4aidl7android8hardware5radio9messaging15IRadioMessaging10fromBinderERKN3ndk10SpAIBinderE",
   "parameters" :
   [
    {
     "referenced_type" : "_ZTIRKN3ndk10SpAIBinderE"
    }
   ],
   "return_type" : "_ZTINSt3__110shared_ptrIN4aidl7android8hardware5radio9messaging15IRadioMessagingEEE",
   "source_file" : "out/soong/.intermediates/hardware/interfaces/radio/aidl/android.hardware.radio.messaging-V1-ndk-source/gen/include/aidl/android/hardware/radio/messaging/IRadioMessaging.h"
  },
  {
   "function_name" : "aidl::android::hardware::radio::messaging::IRadioMessaging::writeToParcel",
   "linker_set_key" : "_ZN4aidl7android8hardware5radio9messaging15IRadioMessaging13writeToParcelEP7AParcelRKNSt3__110shared_ptrIS4_EE",
   "parameters" :
   [
    {
     "referenced_type" : "_ZTIP7AParcel"
    },
    {
     "referenced_type" : "_ZTIRKNSt3__110shared_ptrIN4aidl7android8hardware5radio9messaging15IRadioMessagingEEE"
    }
   ],
   "return_type" : "_ZTIi",
   "source_file" : "out/soong/.intermediates/hardware/interfaces/radio/aidl/android.hardware.radio.messaging-V1-ndk-source/gen/include/aidl/android/hardware/radio/messaging/IRadioMessaging.h"
  },
  {
   "function_name" : "aidl::android::hardware::radio::messaging::IRadioMessaging::getDefaultImpl",
   "linker_set_key" : "_ZN4aidl7android8hardware5radio9messaging15IRadioMessaging14getDefaultImplEv",
   "return_type" : "_ZTIRKNSt3__110shared_ptrIN4aidl7android8hardware5radio9messaging15IRadioMessagingEEE",
   "source_file" : "out/soong/.intermediates/hardware/interfaces/radio/aidl/android.hardware.radio.messaging-V1-ndk-source/gen/include/aidl/android/hardware/radio/messaging/IRadioMessaging.h"
  },
  {
   "function_name" : "aidl::android::hardware::radio::messaging::IRadioMessaging::readFromParcel",
   "linker_set_key" : "_ZN4aidl7android8hardware5radio9messaging15IRadioMessaging14readFromParcelEPK7AParcelPNSt3__110shared_ptrIS4_EE",
   "parameters" :
   [
    {
     "referenced_type" : "_ZTIPK7AParcel"
    },
    {
     "referenced_type" : "_ZTIPNSt3__110shared_ptrIN4aidl7android8hardware5radio9messaging15IRadioMessagingEEE"
    }
   ],
   "return_type" : "_ZTIi",
   "source_file" : "out/soong/.intermediates/hardware/interfaces/radio/aidl/android.hardware.radio.messaging-V1-ndk-source/gen/include/aidl/android/hardware/radio/messaging/IRadioMessaging.h"
  },
  {
   "function_name" : "aidl::android::hardware::radio::messaging::IRadioMessaging::setDefaultImpl",
   "linker_set_key" : "_ZN4aidl7android8hardware5radio9messaging15IRadioMessaging14setDefaultImplERKNSt3__110shared_ptrIS4_EE",
   "parameters" :
   [
    {
     "referenced_type" : "_ZTIRKNSt3__110shared_ptrIN4aidl7android8hardware5radio9messaging15IRadioMessagingEEE"
    }
   ],
   "return_type" : "_ZTIb",
   "source_file" : "out/soong/.intermediates/hardware/interfaces/radio/aidl/android.hardware.radio.messaging-V1-ndk-source/gen/include/aidl/android/hardware/radio/messaging/IRadioMessaging.h"
  },
  {
   "function_name" : "aidl::android::hardware::radio::messaging::IRadioMessaging::IRadioMessaging",
   "linker_set_key" : "_ZN4aidl7android8hardware5radio9messaging15IRadioMessagingC2Ev",
   "parameters" :
   [
    {
     "is_this_ptr" : true,
     "referenced_type" : "_ZTIPN4aidl7android8hardware5radio9messaging15IRadioMessagingE"
    }
   ],
   "return_type" : "_ZTIv",
   "source_file" : "out/soong/.intermediates/hardware/interfaces/radio/aidl/android.hardware.radio.messaging-V1-ndk-source/gen/include/aidl/android/hardware/radio/messaging/IRadioMessaging.h"
  },
  {
   "function_name" : "aidl::android::hardware::radio::messaging::IRadioMessaging::~IRadioMessaging",
   "linker_set_key" : "_ZN4aidl7android8hardware5radio9messaging15IRadioMessagingD0Ev",
   "parameters" :
   [
    {
     "is_this_ptr" : true,
     "referenced_type" : "_ZTIPN4aidl7android8hardware5radio9messaging15IRadioMessagingE"
    }
   ],
   "return_type" : "_ZTIv",
   "source_file" : "out/soong/.intermediates/hardware/interfaces/radio/aidl/android.hardware.radio.messaging-V1-ndk-source/gen/include/aidl/android/hardware/radio/messaging/IRadioMessaging.h"
  },
  {
   "function_name" : "aidl::android::hardware::radio::messaging::IRadioMessaging::~IRadioMessaging",
   "linker_set_key" : "_ZN4aidl7android8hardware5radio9messaging15IRadioMessagingD1Ev",
   "parameters" :
   [
    {
     "is_this_ptr" : true,
     "referenced_type" : "_ZTIPN4aidl7android8hardware5radio9messaging15IRadioMessagingE"
    }
   ],
   "return_type" : "_ZTIv",
   "source_file" : "out/soong/.intermediates/hardware/interfaces/radio/aidl/android.hardware.radio.messaging-V1-ndk-source/gen/include/aidl/android/hardware/radio/messaging/IRadioMessaging.h"
  },
  {
   "function_name" : "aidl::android::hardware::radio::messaging::IRadioMessaging::~IRadioMessaging",
   "linker_set_key" : "_ZN4aidl7android8hardware5radio9messaging15IRadioMessagingD2Ev",
   "parameters" :
   [
    {
     "is_this_ptr" : true,
     "referenced_type" : "_ZTIPN4aidl7android8hardware5radio9messaging15IRadioMessagingE"
    }
   ],
   "return_type" : "_ZTIv",
   "source_file" : "out/soong/.intermediates/hardware/interfaces/radio/aidl/android.hardware.radio.messaging-V1-ndk-source/gen/include/aidl/android/hardware/radio/messaging/IRadioMessaging.h"
  },
  {
   "access" : "protected",
   "function_name" : "aidl::android::hardware::radio::messaging::BnRadioMessaging::createBinder",
   "linker_set_key" : "_ZN4aidl7android8hardware5radio9messaging16BnRadioMessaging12createBinderEv",
   "parameters" :
   [
    {
     "is_this_ptr" : true,
     "referenced_type" : "_ZTIPN4aidl7android8hardware5radio9messaging16BnRadioMessagingE"
    }
   ],
   "return_type" : "_ZTIN3ndk10SpAIBinderE",
   "source_file" : "out/soong/.intermediates/hardware/interfaces/radio/aidl/android.hardware.radio.messaging-V1-ndk-source/gen/include/aidl/android/hardware/radio/messaging/BnRadioMessaging.h"
  },
  {
   "function_name" : "aidl::android::hardware::radio::messaging::BnRadioMessaging::getInterfaceHash",
   "linker_set_key" : "_ZN4aidl7android8hardware5radio9messaging16BnRadioMessaging16getInterfaceHashEPNSt3__112basic_stringIcNS5_11char_traitsIcEENS5_9allocatorIcEEEE",
   "parameters" :
   [
    {
     "is_this_ptr" : true,
     "referenced_type" : "_ZTIPN4aidl7android8hardware5radio9messaging16BnRadioMessagingE"
    },
    {
     "referenced_type" : "_ZTIPNSt3__112basic_stringIcNS_11char_traitsIcEENS_9allocatorIcEEEE"
    }
   ],
   "return_type" : "_ZTIN3ndk13ScopedAStatusE",
   "source_file" : "out/soong/.intermediates/hardware/interfaces/radio/aidl/android.hardware.radio.messaging-V1-ndk-source/gen/include/aidl/android/hardware/radio/messaging/BnRadioMessaging.h"
  },
  {
   "function_name" : "aidl::android::hardware::radio::messaging::BnRadioMessaging::getInterfaceVersion",
   "linker_set_key" : "_ZN4aidl7android8hardware5radio9messaging16BnRadioMessaging19getInterfaceVersionEPi",
   "parameters" :
   [
    {
     "is_this_ptr" : true,
     "referenced_type" : "_ZTIPN4aidl7android8hardware5radio9messaging16BnRadioMessagingE"
    },
    {
     "referenced_type" : "_ZTIPi"
    }
   ],
   "return_type" : "_ZTIN3ndk13ScopedAStatusE",
   "source_file" : "out/soong/.intermediates/hardware/interfaces/radio/aidl/android.hardware.radio.messaging-V1-ndk-source/gen/include/aidl/android/hardware/radio/messaging/BnRadioMessaging.h"
  },
  {
   "function_name" : "aidl::android::hardware::radio::messaging::BnRadioMessaging::BnRadioMessaging",
   "linker_set_key" : "_ZN4aidl7android8hardware5radio9messaging16BnRadioMessagingC2Ev",
   "parameters" :
   [
    {
     "is_this_ptr" : true,
     "referenced_type" : "_ZTIPN4aidl7android8hardware5radio9messaging16BnRadioMessagingE"
    }
   ],
   "return_type" : "_ZTIv",
   "source_file" : "out/soong/.intermediates/hardware/interfaces/radio/aidl/android.hardware.radio.messaging-V1-ndk-source/gen/include/aidl/android/hardware/radio/messaging/BnRadioMessaging.h"
  },
  {
   "function_name" : "aidl::android::hardware::radio::messaging::BnRadioMessaging::~BnRadioMessaging",
   "linker_set_key" : "_ZN4aidl7android8hardware5radio9messaging16BnRadioMessagingD0Ev",
   "parameters" :
   [
    {
     "is_this_ptr" : true,
     "referenced_type" : "_ZTIPN4aidl7android8hardware5radio9messaging16BnRadioMessagingE"
    }
   ],
   "return_type" : "_ZTIv",
   "source_file" : "out/soong/.intermediates/hardware/interfaces/radio/aidl/android.hardware.radio.messaging-V1-ndk-source/gen/include/aidl/android/hardware/radio/messaging/BnRadioMessaging.h"
  },
  {
   "function_name" : "aidl::android::hardware::radio::messaging::BnRadioMessaging::~BnRadioMessaging",
   "linker_set_key" : "_ZN4aidl7android8hardware5radio9messaging16BnRadioMessagingD1Ev",
   "parameters" :
   [
    {
     "is_this_ptr" : true,
     "referenced_type" : "_ZTIPN4aidl7android8hardware5radio9messaging16BnRadioMessagingE"
    }
   ],
   "return_type" : "_ZTIv",
   "source_file" : "out/soong/.intermediates/hardware/interfaces/radio/aidl/android.hardware.radio.messaging-V1-ndk-source/gen/include/aidl/android/hardware/radio/messaging/BnRadioMessaging.h"
  },
  {
   "function_name" : "aidl::android::hardware::radio::messaging::BnRadioMessaging::~BnRadioMessaging",
   "linker_set_key" : "_ZN4aidl7android8hardware5radio9messaging16BnRadioMessagingD2Ev",
   "parameters" :
   [
    {
     "is_this_ptr" : true,
     "referenced_type" : "_ZTIPN4aidl7android8hardware5radio9messaging16BnRadioMessagingE"
    }
   ],
   "return_type" : "_ZTIv",
   "source_file" : "out/soong/.intermediates/hardware/interfaces/radio/aidl/android.hardware.radio.messaging-V1-ndk-source/gen/include/aidl/android/hardware/radio/messaging/BnRadioMessaging.h"
  },
  {
   "function_name" : "aidl::android::hardware::radio::messaging::BpRadioMessaging::sendImsSms",
   "linker_set_key" : "_ZN4aidl7android8hardware5radio9messaging16BpRadioMessaging10sendImsSmsEiRKNS3_13ImsSmsMessageE",
   "parameters" :
   [
    {
     "is_this_ptr" : true,
     "referenced_type" : "_ZTIPN4aidl7android8hardware5radio9messaging16BpRadioMessagingE"
    },
    {
     "referenced_type" : "_ZTIi"
    },
    {
     "referenced_type" : "_ZTIRKN4aidl7android8hardware5radio9messaging13ImsSmsMessageE"
    }
   ],
   "return_type" : "_ZTIN3ndk13ScopedAStatusE",
   "source_file" : "out/soong/.intermediates/hardware/interfaces/radio/aidl/android.hardware.radio.messaging-V1-ndk-source/gen/include/aidl/android/hardware/radio/messaging/BpRadioMessaging.h"
  },
  {
   "function_name" : "aidl::android::hardware::radio::messaging::BpRadioMessaging::sendCdmaSms",
   "linker_set_key" : "_ZN4aidl7android8hardware5radio9messaging16BpRadioMessaging11sendCdmaSmsEiRKNS3_14CdmaSmsMessageE",
   "parameters" :
   [
    {
     "is_this_ptr" : true,
     "referenced_type" : "_ZTIPN4aidl7android8hardware5radio9messaging16BpRadioMessagingE"
    },
    {
     "referenced_type" : "_ZTIi"
    },
    {
     "referenced_type" : "_ZTIRKN4aidl7android8hardware5radio9messaging14CdmaSmsMessageE"
    }
   ],
   "return_type" : "_ZTIN3ndk13ScopedAStatusE",
   "source_file" : "out/soong/.intermediates/hardware/interfaces/radio/aidl/android.hardware.radio.messaging-V1-ndk-source/gen/include/aidl/android/hardware/radio/messaging/BpRadioMessaging.h"
  },
  {
   "function_name" : "aidl::android::hardware::radio::messaging::BpRadioMessaging::writeSmsToSim",
   "linker_set_key" : "_ZN4aidl7android8hardware5radio9messaging16BpRadioMessaging13writeSmsToSimEiRKNS3_12SmsWriteArgsE",
   "parameters" :
   [
    {
     "is_this_ptr" : true,
     "referenced_type" : "_ZTIPN4aidl7android8hardware5radio9messaging16BpRadioMessagingE"
    },
    {
     "referenced_type" : "_ZTIi"
    },
    {
     "referenced_type" : "_ZTIRKN4aidl7android8hardware5radio9messaging12SmsWriteArgsE"
    }
   ],
   "return_type" : "_ZTIN3ndk13ScopedAStatusE",
   "source_file" : "out/soong/.intermediates/hardware/interfaces/radio/aidl/android.hardware.radio.messaging-V1-ndk-source/gen/include/aidl/android/hardware/radio/messaging/BpRadioMessaging.h"
  },
  {
   "function_name" : "aidl::android::hardware::radio::messaging::BpRadioMessaging::deleteSmsOnSim",
   "linker_set_key" : "_ZN4aidl7android8hardware5radio9messaging16BpRadioMessaging14deleteSmsOnSimEii",
   "parameters" :
   [
    {
     "is_this_ptr" : true,
     "referenced_type" : "_ZTIPN4aidl7android8hardware5radio9messaging16BpRadioMessagingE"
    },
    {
     "referenced_type" : "_ZTIi"
    },
    {
     "referenced_type" : "_ZTIi"
    }
   ],
   "return_type" : "_ZTIN3ndk13ScopedAStatusE",
   "source_file" : "out/soong/.intermediates/hardware/interfaces/radio/aidl/android.hardware.radio.messaging-V1-ndk-source/gen/include/aidl/android/hardware/radio/messaging/BpRadioMessaging.h"
  },
  {
   "function_name" : "aidl::android::hardware::radio::messaging::BpRadioMessaging::getSmscAddress",
   "linker_set_key" : "_ZN4aidl7android8hardware5radio9messaging16BpRadioMessaging14getSmscAddressEi",
   "parameters" :
   [
    {
     "is_this_ptr" : true,
     "referenced_type" : "_ZTIPN4aidl7android8hardware5radio9messaging16BpRadioMessagingE"
    },
    {
     "referenced_type" : "_ZTIi"
    }
   ],
   "return_type" : "_ZTIN3ndk13ScopedAStatusE",
   "source_file" : "out/soong/.intermediates/hardware/interfaces/radio/aidl/android.hardware.radio.messaging-V1-ndk-source/gen/include/aidl/android/hardware/radio/messaging/BpRadioMessaging.h"
  },
  {
   "function_name" : "aidl::android::hardware::radio::messaging::BpRadioMessaging::setSmscAddress",
   "linker_set_key" : "_ZN4aidl7android8hardware5radio9messaging16BpRadioMessaging14setSmscAddressEiRKNSt3__112basic_stringIcNS5_11char_traitsIcEENS5_9allocatorIcEEEE",
   "parameters" :
   [
    {
     "is_this_ptr" : true,
     "referenced_type" : "_ZTIPN4aidl7android8hardware5radio9messaging16BpRadioMessagingE"
    },
    {
     "referenced_type" : "_ZTIi"
    },
    {
     "referenced_type" : "_ZTIRKNSt3__112basic_stringIcNS_11char_traitsIcEENS_9allocatorIcEEEE"
    }
   ],
   "return_type" : "_ZTIN3ndk13ScopedAStatusE",
   "source_file" : "out/soong/.intermediates/hardware/interfaces/radio/aidl/android.hardware.radio.messaging-V1-ndk-source/gen/include/aidl/android/hardware/radio/messaging/BpRadioMessaging.h"
  },
  {
   "function_name" : "aidl::android::hardware::radio::messaging::BpRadioMessaging::writeSmsToRuim",
   "linker_set_key" : "_ZN4aidl7android8hardware5radio9messaging16BpRadioMessaging14writeSmsToRuimEiRKNS3_16CdmaSmsWriteArgsE",
   "parameters" :
   [
    {
     "is_this_ptr" : true,
     "referenced_type" : "_ZTIPN4aidl7android8hardware5radio9messaging16BpRadioMessagingE"
    },
    {
     "referenced_type" : "_ZTIi"
    },
    {
     "referenced_type" : "_ZTIRKN4aidl7android8hardware5radio9messaging16CdmaSmsWriteArgsE"
    }
   ],
   "return_type" : "_ZTIN3ndk13ScopedAStatusE",
   "source_file" : "out/soong/.intermediates/hardware/interfaces/radio/aidl/android.hardware.radio.messaging-V1-ndk-source/gen/include/aidl/android/hardware/radio/messaging/BpRadioMessaging.h"
  },
  {
   "function_name" : "aidl::android::hardware::radio::messaging::BpRadioMessaging::deleteSmsOnRuim",
   "linker_set_key" : "_ZN4aidl7android8hardware5radio9messaging16BpRadioMessaging15deleteSmsOnRuimEii",
   "parameters" :
   [
    {
     "is_this_ptr" : true,
     "referenced_type" : "_ZTIPN4aidl7android8hardware5radio9messaging16BpRadioMessagingE"
    },
    {
     "referenced_type" : "_ZTIi"
    },
    {
     "referenced_type" : "_ZTIi"
    }
   ],
   "return_type" : "_ZTIN3ndk13ScopedAStatusE",
   "source_file" : "out/soong/.intermediates/hardware/interfaces/radio/aidl/android.hardware.radio.messaging-V1-ndk-source/gen/include/aidl/android/hardware/radio/messaging/BpRadioMessaging.h"
  },
  {
   "function_name" : "aidl::android::hardware::radio::messaging::BpRadioMessaging::getInterfaceHash",
   "linker_set_key" : "_ZN4aidl7android8hardware5radio9messaging16BpRadioMessaging16getInterfaceHashEPNSt3__112basic_stringIcNS5_11char_traitsIcEENS5_9allocatorIcEEEE",
   "parameters" :
   [
    {
     "is_this_ptr" : true,
     "referenced_type" : "_ZTIPN4aidl7android8hardware5radio9messaging16BpRadioMessagingE"
    },
    {
     "referenced_type" : "_ZTIPNSt3__112basic_stringIcNS_11char_traitsIcEENS_9allocatorIcEEEE"
    }
   ],
   "return_type" : "_ZTIN3ndk13ScopedAStatusE",
   "source_file" : "out/soong/.intermediates/hardware/interfaces/radio/aidl/android.hardware.radio.messaging-V1-ndk-source/gen/include/aidl/android/hardware/radio/messaging/BpRadioMessaging.h"
  },
  {
   "function_name" : "aidl::android::hardware::radio::messaging::BpRadioMessaging::sendSmsExpectMore",
   "linker_set_key" : "_ZN4aidl7android8hardware5radio9messaging16BpRadioMessaging17sendSmsExpectMoreEiRKNS3_13GsmSmsMessageE",
   "parameters" :
   [
    {
     "is_this_ptr" : true,
     "referenced_type" : "_ZTIPN4aidl7android8hardware5radio9messaging16BpRadioMessagingE"
    },
    {
     "referenced_type" : "_ZTIi"
    },
    {
     "referenced_type" : "_ZTIRKN4aidl7android8hardware5radio9messaging13GsmSmsMessageE"
    }
   ],
   "return_type" : "_ZTIN3ndk13ScopedAStatusE",
   "source_file" : "out/soong/.intermediates/hardware/interfaces/radio/aidl/android.hardware.radio.messaging-V1-ndk-source/gen/include/aidl/android/hardware/radio/messaging/BpRadioMessaging.h"
  },
  {
   "function_name" : "aidl::android::hardware::radio::messaging::BpRadioMessaging::getInterfaceVersion",
   "linker_set_key" : "_ZN4aidl7android8hardware5radio9messaging16BpRadioMessaging19getInterfaceVersionEPi",
   "parameters" :
   [
    {
     "is_this_ptr" : true,
     "referenced_type" : "_ZTIPN4aidl7android8hardware5radio9messaging16BpRadioMessagingE"
    },
    {
     "referenced_type" : "_ZTIPi"
    }
   ],
   "return_type" : "_ZTIN3ndk13ScopedAStatusE",
   "source_file" : "out/soong/.intermediates/hardware/interfaces/radio/aidl/android.hardware.radio.messaging-V1-ndk-source/gen/include/aidl/android/hardware/radio/messaging/BpRadioMessaging.h"
  },
  {
   "function_name" : "aidl::android::hardware::radio::messaging::BpRadioMessaging::setResponseFunctions",
   "linker_set_key" : "_ZN4aidl7android8hardware5radio9messaging16BpRadioMessaging20setResponseFunctionsERKNSt3__110shared_ptrINS3_23IRadioMessagingResponseEEERKNS6_INS3_25IRadioMessagingIndicationEEE",
   "parameters" :
   [
    {
     "is_this_ptr" : true,
     "referenced_type" : "_ZTIPN4aidl7android8hardware5radio9messaging16BpRadioMessagingE"
    },
    {
     "referenced_type" : "_ZTIRKNSt3__110shared_ptrIN4aidl7android8hardware5radio9messaging23IRadioMessagingResponseEEE"
    },
    {
     "referenced_type" : "_ZTIRKNSt3__110shared_ptrIN4aidl7android8hardware5radio9messaging25IRadioMessagingIndicationEEE"
    }
   ],
   "return_type" : "_ZTIN3ndk13ScopedAStatusE",
   "source_file" : "out/soong/.intermediates/hardware/interfaces/radio/aidl/android.hardware.radio.messaging-V1-ndk-source/gen/include/aidl/android/hardware/radio/messaging/BpRadioMessaging.h"
  },
  {
   "function_name" : "aidl::android::hardware::radio::messaging::BpRadioMessaging::getGsmBroadcastConfig",
   "linker_set_key" : "_ZN4aidl7android8hardware5radio9messaging16BpRadioMessaging21getGsmBroadcastConfigEi",
   "parameters" :
   [
    {
     "is_this_ptr" : true,
     "referenced_type" : "_ZTIPN4aidl7android8hardware5radio9messaging16BpRadioMessagingE"
    },
    {
     "referenced_type" : "_ZTIi"
    }
   ],
   "return_type" : "_ZTIN3ndk13ScopedAStatusE",
   "source_file" : "out/soong/.intermediates/hardware/interfaces/radio/aidl/android.hardware.radio.messaging-V1-ndk-source/gen/include/aidl/android/hardware/radio/messaging/BpRadioMessaging.h"
  },
  {
   "function_name" : "aidl::android::hardware::radio::messaging::BpRadioMessaging::reportSmsMemoryStatus",
   "linker_set_key" : "_ZN4aidl7android8hardware5radio9messaging16BpRadioMessaging21reportSmsMemoryStatusEib",
   "parameters" :
   [
    {
     "is_this_ptr" : true,
     "referenced_type" : "_ZTIPN4aidl7android8hardware5radio9messaging16BpRadioMessagingE"
    },
    {
     "referenced_type" : "_ZTIi"
    },
    {
     "referenced_type" : "_ZTIb"
    }
   ],
   "return_type" : "_ZTIN3ndk13ScopedAStatusE",
   "source_file" : "out/soong/.intermediates/hardware/interfaces/radio/aidl/android.hardware.radio.messaging-V1-ndk-source/gen/include/aidl/android/hardware/radio/messaging/BpRadioMessaging.h"
  },
  {
   "function_name" : "aidl::android::hardware::radio::messaging::BpRadioMessaging::sendCdmaSmsExpectMore",
   "linker_set_key" : "_ZN4aidl7android8hardware5radio9messaging16BpRadioMessaging21sendCdmaSmsExpectMoreEiRKNS3_14CdmaSmsMessageE",
   "parameters" :
   [
    {
     "is_this_ptr" : true,
     "referenced_type" : "_ZTIPN4aidl7android8hardware5radio9messaging16BpRadioMessagingE"
    },
    {
     "referenced_type" : "_ZTIi"
    },
    {
     "referenced_type" : "_ZTIRKN4aidl7android8hardware5radio9messaging14CdmaSmsMessageE"
    }
   ],
   "return_type" : "_ZTIN3ndk13ScopedAStatusE",
   "source_file" : "out/soong/.intermediates/hardware/interfaces/radio/aidl/android.hardware.radio.messaging-V1-ndk-source/gen/include/aidl/android/hardware/radio/messaging/BpRadioMessaging.h"
  },
  {
   "function_name" : "aidl::android::hardware::radio::messaging::BpRadioMessaging::setGsmBroadcastConfig",
   "linker_set_key" : "_ZN4aidl7android8hardware5radio9messaging16BpRadioMessaging21setGsmBroadcastConfigEiRKNSt3__16vectorINS3_25GsmBroadcastSmsConfigInfoENS5_9allocatorIS7_EEEE",
   "parameters" :
   [
    {
     "is_this_ptr" : true,
     "referenced_type" : "_ZTIPN4aidl7android8hardware5radio9messaging16BpRadioMessagingE"
    },
    {
     "referenced_type" : "_ZTIi"
    },
    {
     "referenced_type" : "_ZTIRKNSt3__16vectorIN4aidl7android8hardware5radio9messaging25GsmBroadcastSmsConfigInfoENS_9allocatorIS6_EEEE"
    }
   ],
   "return_type" : "_ZTIN3ndk13ScopedAStatusE",
   "source_file" : "out/soong/.intermediates/hardware/interfaces/radio/aidl/android.hardware.radio.messaging-V1-ndk-source/gen/include/aidl/android/hardware/radio/messaging/BpRadioMessaging.h"
  },
  {
   "function_name" : "aidl::android::hardware::radio::messaging::BpRadioMessaging::getCdmaBroadcastConfig",
   "linker_set_key" : "_ZN4aidl7android8hardware5radio9messaging16BpRadioMessaging22getCdmaBroadcastConfigEi",
   "parameters" :
   [
    {
     "is_this_ptr" : true,
     "referenced_type" : "_ZTIPN4aidl7android8hardware5radio9messaging16BpRadioMessagingE"
    },
    {
     "referenced_type" : "_ZTIi"
    }
   ],
   "return_type" : "_ZTIN3ndk13ScopedAStatusE",
   "source_file" : "out/soong/.intermediates/hardware/interfaces/radio/aidl/android.hardware.radio.messaging-V1-ndk-source/gen/include/aidl/android/hardware/radio/messaging/BpRadioMessaging.h"
  },
  {
   "function_name" : "aidl::android::hardware::radio::messaging::BpRadioMessaging::setCdmaBroadcastConfig",
   "linker_set_key" : "_ZN4aidl7android8hardware5radio9messaging16BpRadioMessaging22setCdmaBroadcastConfigEiRKNSt3__16vectorINS3_26CdmaBroadcastSmsConfigInfoENS5_9allocatorIS7_EEEE",
   "parameters" :
   [
    {
     "is_this_ptr" : true,
     "referenced_type" : "_ZTIPN4aidl7android8hardware5radio9messaging16BpRadioMessagingE"
    },
    {
     "referenced_type" : "_ZTIi"
    },
    {
     "referenced_type" : "_ZTIRKNSt3__16vectorIN4aidl7android8hardware5radio9messaging26CdmaBroadcastSmsConfigInfoENS_9allocatorIS6_EEEE"
    }
   ],
   "return_type" : "_ZTIN3ndk13ScopedAStatusE",
   "source_file" : "out/soong/.intermediates/hardware/interfaces/radio/aidl/android.hardware.radio.messaging-V1-ndk-source/gen/include/aidl/android/hardware/radio/messaging/BpRadioMessaging.h"
  },
  {
   "function_name" : "aidl::android::hardware::radio::messaging::BpRadioMessaging::responseAcknowledgement",
   "linker_set_key" : "_ZN4aidl7android8hardware5radio9messaging16BpRadioMessaging23responseAcknowledgementEv",
   "parameters" :
   [
    {
     "is_this_ptr" : true,
     "referenced_type" : "_ZTIPN4aidl7android8hardware5radio9messaging16BpRadioMessagingE"
    }
   ],
   "return_type" : "_ZTIN3ndk13ScopedAStatusE",
   "source_file" : "out/soong/.intermediates/hardware/interfaces/radio/aidl/android.hardware.radio.messaging-V1-ndk-source/gen/include/aidl/android/hardware/radio/messaging/BpRadioMessaging.h"
  },
  {
   "function_name" : "aidl::android::hardware::radio::messaging::BpRadioMessaging::setGsmBroadcastActivation",
   "linker_set_key" : "_ZN4aidl7android8hardware5radio9messaging16BpRadioMessaging25setGsmBroadcastActivationEib",
   "parameters" :
   [
    {
     "is_this_ptr" : true,
     "referenced_type" : "_ZTIPN4aidl7android8hardware5radio9messaging16BpRadioMessagingE"
    },
    {
     "referenced_type" : "_ZTIi"
    },
    {
     "referenced_type" : "_ZTIb"
    }
   ],
   "return_type" : "_ZTIN3ndk13ScopedAStatusE",
   "source_file" : "out/soong/.intermediates/hardware/interfaces/radio/aidl/android.hardware.radio.messaging-V1-ndk-source/gen/include/aidl/android/hardware/radio/messaging/BpRadioMessaging.h"
  },
  {
   "function_name" : "aidl::android::hardware::radio::messaging::BpRadioMessaging::setCdmaBroadcastActivation",
   "linker_set_key" : "_ZN4aidl7android8hardware5radio9messaging16BpRadioMessaging26setCdmaBroadcastActivationEib",
   "parameters" :
   [
    {
     "is_this_ptr" : true,
     "referenced_type" : "_ZTIPN4aidl7android8hardware5radio9messaging16BpRadioMessagingE"
    },
    {
     "referenced_type" : "_ZTIi"
    },
    {
     "referenced_type" : "_ZTIb"
    }
   ],
   "return_type" : "_ZTIN3ndk13ScopedAStatusE",
   "source_file" : "out/soong/.intermediates/hardware/interfaces/radio/aidl/android.hardware.radio.messaging-V1-ndk-source/gen/include/aidl/android/hardware/radio/messaging/BpRadioMessaging.h"
  },
  {
   "function_name" : "aidl::android::hardware::radio::messaging::BpRadioMessaging::acknowledgeLastIncomingGsmSms",
   "linker_set_key" : "_ZN4aidl7android8hardware5radio9messaging16BpRadioMessaging29acknowledgeLastIncomingGsmSmsEibNS3_23SmsAcknowledgeFailCauseE",
   "parameters" :
   [
    {
     "is_this_ptr" : true,
     "referenced_type" : "_ZTIPN4aidl7android8hardware5radio9messaging16BpRadioMessagingE"
    },
    {
     "referenced_type" : "_ZTIi"
    },
    {
     "referenced_type" : "_ZTIb"
    },
    {
     "referenced_type" : "_ZTIN4aidl7android8hardware5radio9messaging23SmsAcknowledgeFailCauseE"
    }
   ],
   "return_type" : "_ZTIN3ndk13ScopedAStatusE",
   "source_file" : "out/soong/.intermediates/hardware/interfaces/radio/aidl/android.hardware.radio.messaging-V1-ndk-source/gen/include/aidl/android/hardware/radio/messaging/BpRadioMessaging.h"
  },
  {
   "function_name" : "aidl::android::hardware::radio::messaging::BpRadioMessaging::acknowledgeLastIncomingCdmaSms",
   "linker_set_key" : "_ZN4aidl7android8hardware5radio9messaging16BpRadioMessaging30acknowledgeLastIncomingCdmaSmsEiRKNS3_10CdmaSmsAckE",
   "parameters" :
   [
    {
     "is_this_ptr" : true,
     "referenced_type" : "_ZTIPN4aidl7android8hardware5radio9messaging16BpRadioMessagingE"
    },
    {
     "referenced_type" : "_ZTIi"
    },
    {
     "referenced_type" : "_ZTIRKN4aidl7android8hardware5radio9messaging10CdmaSmsAckE"
    }
   ],
   "return_type" : "_ZTIN3ndk13ScopedAStatusE",
   "source_file" : "out/soong/.intermediates/hardware/interfaces/radio/aidl/android.hardware.radio.messaging-V1-ndk-source/gen/include/aidl/android/hardware/radio/messaging/BpRadioMessaging.h"
  },
  {
   "function_name" : "aidl::android::hardware::radio::messaging::BpRadioMessaging::acknowledgeIncomingGsmSmsWithPdu",
   "linker_set_key" : "_ZN4aidl7android8hardware5radio9messaging16BpRadioMessaging32acknowledgeIncomingGsmSmsWithPduEibRKNSt3__112basic_stringIcNS5_11char_traitsIcEENS5_9allocatorIcEEEE",
   "parameters" :
   [
    {
     "is_this_ptr" : true,
     "referenced_type" : "_ZTIPN4aidl7android8hardware5radio9messaging16BpRadioMessagingE"
    },
    {
     "referenced_type" : "_ZTIi"
    },
    {
     "referenced_type" : "_ZTIb"
    },
    {
     "referenced_type" : "_ZTIRKNSt3__112basic_stringIcNS_11char_traitsIcEENS_9allocatorIcEEEE"
    }
   ],
   "return_type" : "_ZTIN3ndk13ScopedAStatusE",
   "source_file" : "out/soong/.intermediates/hardware/interfaces/radio/aidl/android.hardware.radio.messaging-V1-ndk-source/gen/include/aidl/android/hardware/radio/messaging/BpRadioMessaging.h"
  },
  {
   "function_name" : "aidl::android::hardware::radio::messaging::BpRadioMessaging::sendSms",
   "linker_set_key" : "_ZN4aidl7android8hardware5radio9messaging16BpRadioMessaging7sendSmsEiRKNS3_13GsmSmsMessageE",
   "parameters" :
   [
    {
     "is_this_ptr" : true,
     "referenced_type" : "_ZTIPN4aidl7android8hardware5radio9messaging16BpRadioMessagingE"
    },
    {
     "referenced_type" : "_ZTIi"
    },
    {
     "referenced_type" : "_ZTIRKN4aidl7android8hardware5radio9messaging13GsmSmsMessageE"
    }
   ],
   "return_type" : "_ZTIN3ndk13ScopedAStatusE",
   "source_file" : "out/soong/.intermediates/hardware/interfaces/radio/aidl/android.hardware.radio.messaging-V1-ndk-source/gen/include/aidl/android/hardware/radio/messaging/BpRadioMessaging.h"
  },
  {
   "function_name" : "aidl::android::hardware::radio::messaging::BpRadioMessaging::BpRadioMessaging",
   "linker_set_key" : "_ZN4aidl7android8hardware5radio9messaging16BpRadioMessagingC1ERKN3ndk10SpAIBinderE",
   "parameters" :
   [
    {
     "is_this_ptr" : true,
     "referenced_type" : "_ZTIPN4aidl7android8hardware5radio9messaging16BpRadioMessagingE"
    },
    {
     "referenced_type" : "_ZTIRKN3ndk10SpAIBinderE"
    }
   ],
   "return_type" : "_ZTIv",
   "source_file" : "out/soong/.intermediates/hardware/interfaces/radio/aidl/android.hardware.radio.messaging-V1-ndk-source/gen/include/aidl/android/hardware/radio/messaging/BpRadioMessaging.h"
  },
  {
   "function_name" : "aidl::android::hardware::radio::messaging::BpRadioMessaging::BpRadioMessaging",
   "linker_set_key" : "_ZN4aidl7android8hardware5radio9messaging16BpRadioMessagingC2ERKN3ndk10SpAIBinderE",
   "parameters" :
   [
    {
     "is_this_ptr" : true,
     "referenced_type" : "_ZTIPN4aidl7android8hardware5radio9messaging16BpRadioMessagingE"
    },
    {
     "referenced_type" : "_ZTIRKN3ndk10SpAIBinderE"
    }
   ],
   "return_type" : "_ZTIv",
   "source_file" : "out/soong/.intermediates/hardware/interfaces/radio/aidl/android.hardware.radio.messaging-V1-ndk-source/gen/include/aidl/android/hardware/radio/messaging/BpRadioMessaging.h"
  },
  {
   "function_name" : "aidl::android::hardware::radio::messaging::BpRadioMessaging::~BpRadioMessaging",
   "linker_set_key" : "_ZN4aidl7android8hardware5radio9messaging16BpRadioMessagingD0Ev",
   "parameters" :
   [
    {
     "is_this_ptr" : true,
     "referenced_type" : "_ZTIPN4aidl7android8hardware5radio9messaging16BpRadioMessagingE"
    }
   ],
   "return_type" : "_ZTIv",
   "source_file" : "out/soong/.intermediates/hardware/interfaces/radio/aidl/android.hardware.radio.messaging-V1-ndk-source/gen/include/aidl/android/hardware/radio/messaging/BpRadioMessaging.h"
  },
  {
   "function_name" : "aidl::android::hardware::radio::messaging::BpRadioMessaging::~BpRadioMessaging",
   "linker_set_key" : "_ZN4aidl7android8hardware5radio9messaging16BpRadioMessagingD1Ev",
   "parameters" :
   [
    {
     "is_this_ptr" : true,
     "referenced_type" : "_ZTIPN4aidl7android8hardware5radio9messaging16BpRadioMessagingE"
    }
   ],
   "return_type" : "_ZTIv",
   "source_file" : "out/soong/.intermediates/hardware/interfaces/radio/aidl/android.hardware.radio.messaging-V1-ndk-source/gen/include/aidl/android/hardware/radio/messaging/BpRadioMessaging.h"
  },
  {
   "function_name" : "aidl::android::hardware::radio::messaging::BpRadioMessaging::~BpRadioMessaging",
   "linker_set_key" : "_ZN4aidl7android8hardware5radio9messaging16BpRadioMessagingD2Ev",
   "parameters" :
   [
    {
     "is_this_ptr" : true,
     "referenced_type" : "_ZTIPN4aidl7android8hardware5radio9messaging16BpRadioMessagingE"
    }
   ],
   "return_type" : "_ZTIv",
   "source_file" : "out/soong/.intermediates/hardware/interfaces/radio/aidl/android.hardware.radio.messaging-V1-ndk-source/gen/include/aidl/android/hardware/radio/messaging/BpRadioMessaging.h"
  },
  {
   "function_name" : "aidl::android::hardware::radio::messaging::CdmaSmsWriteArgs::readFromParcel",
   "linker_set_key" : "_ZN4aidl7android8hardware5radio9messaging16CdmaSmsWriteArgs14readFromParcelEPK7AParcel",
   "parameters" :
   [
    {
     "is_this_ptr" : true,
     "referenced_type" : "_ZTIPN4aidl7android8hardware5radio9messaging16CdmaSmsWriteArgsE"
    },
    {
     "referenced_type" : "_ZTIPK7AParcel"
    }
   ],
   "return_type" : "_ZTIi",
   "source_file" : "out/soong/.intermediates/hardware/interfaces/radio/aidl/android.hardware.radio.messaging-V1-ndk-source/gen/include/aidl/android/hardware/radio/messaging/CdmaSmsWriteArgs.h"
  },
  {
   "function_name" : "aidl::android::hardware::radio::messaging::CdmaSmsSubaddress::readFromParcel",
   "linker_set_key" : "_ZN4aidl7android8hardware5radio9messaging17CdmaSmsSubaddress14readFromParcelEPK7AParcel",
   "parameters" :
   [
    {
     "is_this_ptr" : true,
     "referenced_type" : "_ZTIPN4aidl7android8hardware5radio9messaging17CdmaSmsSubaddressE"
    },
    {
     "referenced_type" : "_ZTIPK7AParcel"
    }
   ],
   "return_type" : "_ZTIi",
   "source_file" : "out/soong/.intermediates/hardware/interfaces/radio/aidl/android.hardware.radio.messaging-V1-ndk-source/gen/include/aidl/android/hardware/radio/messaging/CdmaSmsSubaddress.h"
  },
  {
   "function_name" : "aidl::android::hardware::radio::messaging::IRadioMessagingDefault::sendImsSms",
   "linker_set_key" : "_ZN4aidl7android8hardware5radio9messaging22IRadioMessagingDefault10sendImsSmsEiRKNS3_13ImsSmsMessageE",
   "parameters" :
   [
    {
     "is_this_ptr" : true,
     "referenced_type" : "_ZTIPN4aidl7android8hardware5radio9messaging22IRadioMessagingDefaultE"
    },
    {
     "referenced_type" : "_ZTIi"
    },
    {
     "referenced_type" : "_ZTIRKN4aidl7android8hardware5radio9messaging13ImsSmsMessageE"
    }
   ],
   "return_type" : "_ZTIN3ndk13ScopedAStatusE",
   "source_file" : "out/soong/.intermediates/hardware/interfaces/radio/aidl/android.hardware.radio.messaging-V1-ndk-source/gen/include/aidl/android/hardware/radio/messaging/IRadioMessaging.h"
  },
  {
   "function_name" : "aidl::android::hardware::radio::messaging::IRadioMessagingDefault::sendCdmaSms",
   "linker_set_key" : "_ZN4aidl7android8hardware5radio9messaging22IRadioMessagingDefault11sendCdmaSmsEiRKNS3_14CdmaSmsMessageE",
   "parameters" :
   [
    {
     "is_this_ptr" : true,
     "referenced_type" : "_ZTIPN4aidl7android8hardware5radio9messaging22IRadioMessagingDefaultE"
    },
    {
     "referenced_type" : "_ZTIi"
    },
    {
     "referenced_type" : "_ZTIRKN4aidl7android8hardware5radio9messaging14CdmaSmsMessageE"
    }
   ],
   "return_type" : "_ZTIN3ndk13ScopedAStatusE",
   "source_file" : "out/soong/.intermediates/hardware/interfaces/radio/aidl/android.hardware.radio.messaging-V1-ndk-source/gen/include/aidl/android/hardware/radio/messaging/IRadioMessaging.h"
  },
  {
   "function_name" : "aidl::android::hardware::radio::messaging::IRadioMessagingDefault::writeSmsToSim",
   "linker_set_key" : "_ZN4aidl7android8hardware5radio9messaging22IRadioMessagingDefault13writeSmsToSimEiRKNS3_12SmsWriteArgsE",
   "parameters" :
   [
    {
     "is_this_ptr" : true,
     "referenced_type" : "_ZTIPN4aidl7android8hardware5radio9messaging22IRadioMessagingDefaultE"
    },
    {
     "referenced_type" : "_ZTIi"
    },
    {
     "referenced_type" : "_ZTIRKN4aidl7android8hardware5radio9messaging12SmsWriteArgsE"
    }
   ],
   "return_type" : "_ZTIN3ndk13ScopedAStatusE",
   "source_file" : "out/soong/.intermediates/hardware/interfaces/radio/aidl/android.hardware.radio.messaging-V1-ndk-source/gen/include/aidl/android/hardware/radio/messaging/IRadioMessaging.h"
  },
  {
   "function_name" : "aidl::android::hardware::radio::messaging::IRadioMessagingDefault::deleteSmsOnSim",
   "linker_set_key" : "_ZN4aidl7android8hardware5radio9messaging22IRadioMessagingDefault14deleteSmsOnSimEii",
   "parameters" :
   [
    {
     "is_this_ptr" : true,
     "referenced_type" : "_ZTIPN4aidl7android8hardware5radio9messaging22IRadioMessagingDefaultE"
    },
    {
     "referenced_type" : "_ZTIi"
    },
    {
     "referenced_type" : "_ZTIi"
    }
   ],
   "return_type" : "_ZTIN3ndk13ScopedAStatusE",
   "source_file" : "out/soong/.intermediates/hardware/interfaces/radio/aidl/android.hardware.radio.messaging-V1-ndk-source/gen/include/aidl/android/hardware/radio/messaging/IRadioMessaging.h"
  },
  {
   "function_name" : "aidl::android::hardware::radio::messaging::IRadioMessagingDefault::getSmscAddress",
   "linker_set_key" : "_ZN4aidl7android8hardware5radio9messaging22IRadioMessagingDefault14getSmscAddressEi",
   "parameters" :
   [
    {
     "is_this_ptr" : true,
     "referenced_type" : "_ZTIPN4aidl7android8hardware5radio9messaging22IRadioMessagingDefaultE"
    },
    {
     "referenced_type" : "_ZTIi"
    }
   ],
   "return_type" : "_ZTIN3ndk13ScopedAStatusE",
   "source_file" : "out/soong/.intermediates/hardware/interfaces/radio/aidl/android.hardware.radio.messaging-V1-ndk-source/gen/include/aidl/android/hardware/radio/messaging/IRadioMessaging.h"
  },
  {
   "function_name" : "aidl::android::hardware::radio::messaging::IRadioMessagingDefault::setSmscAddress",
   "linker_set_key" : "_ZN4aidl7android8hardware5radio9messaging22IRadioMessagingDefault14setSmscAddressEiRKNSt3__112basic_stringIcNS5_11char_traitsIcEENS5_9allocatorIcEEEE",
   "parameters" :
   [
    {
     "is_this_ptr" : true,
     "referenced_type" : "_ZTIPN4aidl7android8hardware5radio9messaging22IRadioMessagingDefaultE"
    },
    {
     "referenced_type" : "_ZTIi"
    },
    {
     "referenced_type" : "_ZTIRKNSt3__112basic_stringIcNS_11char_traitsIcEENS_9allocatorIcEEEE"
    }
   ],
   "return_type" : "_ZTIN3ndk13ScopedAStatusE",
   "source_file" : "out/soong/.intermediates/hardware/interfaces/radio/aidl/android.hardware.radio.messaging-V1-ndk-source/gen/include/aidl/android/hardware/radio/messaging/IRadioMessaging.h"
  },
  {
   "function_name" : "aidl::android::hardware::radio::messaging::IRadioMessagingDefault::writeSmsToRuim",
   "linker_set_key" : "_ZN4aidl7android8hardware5radio9messaging22IRadioMessagingDefault14writeSmsToRuimEiRKNS3_16CdmaSmsWriteArgsE",
   "parameters" :
   [
    {
     "is_this_ptr" : true,
     "referenced_type" : "_ZTIPN4aidl7android8hardware5radio9messaging22IRadioMessagingDefaultE"
    },
    {
     "referenced_type" : "_ZTIi"
    },
    {
     "referenced_type" : "_ZTIRKN4aidl7android8hardware5radio9messaging16CdmaSmsWriteArgsE"
    }
   ],
   "return_type" : "_ZTIN3ndk13ScopedAStatusE",
   "source_file" : "out/soong/.intermediates/hardware/interfaces/radio/aidl/android.hardware.radio.messaging-V1-ndk-source/gen/include/aidl/android/hardware/radio/messaging/IRadioMessaging.h"
  },
  {
   "function_name" : "aidl::android::hardware::radio::messaging::IRadioMessagingDefault::deleteSmsOnRuim",
   "linker_set_key" : "_ZN4aidl7android8hardware5radio9messaging22IRadioMessagingDefault15deleteSmsOnRuimEii",
   "parameters" :
   [
    {
     "is_this_ptr" : true,
     "referenced_type" : "_ZTIPN4aidl7android8hardware5radio9messaging22IRadioMessagingDefaultE"
    },
    {
     "referenced_type" : "_ZTIi"
    },
    {
     "referenced_type" : "_ZTIi"
    }
   ],
   "return_type" : "_ZTIN3ndk13ScopedAStatusE",
   "source_file" : "out/soong/.intermediates/hardware/interfaces/radio/aidl/android.hardware.radio.messaging-V1-ndk-source/gen/include/aidl/android/hardware/radio/messaging/IRadioMessaging.h"
  },
  {
   "function_name" : "aidl::android::hardware::radio::messaging::IRadioMessagingDefault::getInterfaceHash",
   "linker_set_key" : "_ZN4aidl7android8hardware5radio9messaging22IRadioMessagingDefault16getInterfaceHashEPNSt3__112basic_stringIcNS5_11char_traitsIcEENS5_9allocatorIcEEEE",
   "parameters" :
   [
    {
     "is_this_ptr" : true,
     "referenced_type" : "_ZTIPN4aidl7android8hardware5radio9messaging22IRadioMessagingDefaultE"
    },
    {
     "referenced_type" : "_ZTIPNSt3__112basic_stringIcNS_11char_traitsIcEENS_9allocatorIcEEEE"
    }
   ],
   "return_type" : "_ZTIN3ndk13ScopedAStatusE",
   "source_file" : "out/soong/.intermediates/hardware/interfaces/radio/aidl/android.hardware.radio.messaging-V1-ndk-source/gen/include/aidl/android/hardware/radio/messaging/IRadioMessaging.h"
  },
  {
   "function_name" : "aidl::android::hardware::radio::messaging::IRadioMessagingDefault::sendSmsExpectMore",
   "linker_set_key" : "_ZN4aidl7android8hardware5radio9messaging22IRadioMessagingDefault17sendSmsExpectMoreEiRKNS3_13GsmSmsMessageE",
   "parameters" :
   [
    {
     "is_this_ptr" : true,
     "referenced_type" : "_ZTIPN4aidl7android8hardware5radio9messaging22IRadioMessagingDefaultE"
    },
    {
     "referenced_type" : "_ZTIi"
    },
    {
     "referenced_type" : "_ZTIRKN4aidl7android8hardware5radio9messaging13GsmSmsMessageE"
    }
   ],
   "return_type" : "_ZTIN3ndk13ScopedAStatusE",
   "source_file" : "out/soong/.intermediates/hardware/interfaces/radio/aidl/android.hardware.radio.messaging-V1-ndk-source/gen/include/aidl/android/hardware/radio/messaging/IRadioMessaging.h"
  },
  {
   "function_name" : "aidl::android::hardware::radio::messaging::IRadioMessagingDefault::getInterfaceVersion",
   "linker_set_key" : "_ZN4aidl7android8hardware5radio9messaging22IRadioMessagingDefault19getInterfaceVersionEPi",
   "parameters" :
   [
    {
     "is_this_ptr" : true,
     "referenced_type" : "_ZTIPN4aidl7android8hardware5radio9messaging22IRadioMessagingDefaultE"
    },
    {
     "referenced_type" : "_ZTIPi"
    }
   ],
   "return_type" : "_ZTIN3ndk13ScopedAStatusE",
   "source_file" : "out/soong/.intermediates/hardware/interfaces/radio/aidl/android.hardware.radio.messaging-V1-ndk-source/gen/include/aidl/android/hardware/radio/messaging/IRadioMessaging.h"
  },
  {
   "function_name" : "aidl::android::hardware::radio::messaging::IRadioMessagingDefault::setResponseFunctions",
   "linker_set_key" : "_ZN4aidl7android8hardware5radio9messaging22IRadioMessagingDefault20setResponseFunctionsERKNSt3__110shared_ptrINS3_23IRadioMessagingResponseEEERKNS6_INS3_25IRadioMessagingIndicationEEE",
   "parameters" :
   [
    {
     "is_this_ptr" : true,
     "referenced_type" : "_ZTIPN4aidl7android8hardware5radio9messaging22IRadioMessagingDefaultE"
    },
    {
     "referenced_type" : "_ZTIRKNSt3__110shared_ptrIN4aidl7android8hardware5radio9messaging23IRadioMessagingResponseEEE"
    },
    {
     "referenced_type" : "_ZTIRKNSt3__110shared_ptrIN4aidl7android8hardware5radio9messaging25IRadioMessagingIndicationEEE"
    }
   ],
   "return_type" : "_ZTIN3ndk13ScopedAStatusE",
   "source_file" : "out/soong/.intermediates/hardware/interfaces/radio/aidl/android.hardware.radio.messaging-V1-ndk-source/gen/include/aidl/android/hardware/radio/messaging/IRadioMessaging.h"
  },
  {
   "function_name" : "aidl::android::hardware::radio::messaging::IRadioMessagingDefault::getGsmBroadcastConfig",
   "linker_set_key" : "_ZN4aidl7android8hardware5radio9messaging22IRadioMessagingDefault21getGsmBroadcastConfigEi",
   "parameters" :
   [
    {
     "is_this_ptr" : true,
     "referenced_type" : "_ZTIPN4aidl7android8hardware5radio9messaging22IRadioMessagingDefaultE"
    },
    {
     "referenced_type" : "_ZTIi"
    }
   ],
   "return_type" : "_ZTIN3ndk13ScopedAStatusE",
   "source_file" : "out/soong/.intermediates/hardware/interfaces/radio/aidl/android.hardware.radio.messaging-V1-ndk-source/gen/include/aidl/android/hardware/radio/messaging/IRadioMessaging.h"
  },
  {
   "function_name" : "aidl::android::hardware::radio::messaging::IRadioMessagingDefault::reportSmsMemoryStatus",
   "linker_set_key" : "_ZN4aidl7android8hardware5radio9messaging22IRadioMessagingDefault21reportSmsMemoryStatusEib",
   "parameters" :
   [
    {
     "is_this_ptr" : true,
     "referenced_type" : "_ZTIPN4aidl7android8hardware5radio9messaging22IRadioMessagingDefaultE"
    },
    {
     "referenced_type" : "_ZTIi"
    },
    {
     "referenced_type" : "_ZTIb"
    }
   ],
   "return_type" : "_ZTIN3ndk13ScopedAStatusE",
   "source_file" : "out/soong/.intermediates/hardware/interfaces/radio/aidl/android.hardware.radio.messaging-V1-ndk-source/gen/include/aidl/android/hardware/radio/messaging/IRadioMessaging.h"
  },
  {
   "function_name" : "aidl::android::hardware::radio::messaging::IRadioMessagingDefault::sendCdmaSmsExpectMore",
   "linker_set_key" : "_ZN4aidl7android8hardware5radio9messaging22IRadioMessagingDefault21sendCdmaSmsExpectMoreEiRKNS3_14CdmaSmsMessageE",
   "parameters" :
   [
    {
     "is_this_ptr" : true,
     "referenced_type" : "_ZTIPN4aidl7android8hardware5radio9messaging22IRadioMessagingDefaultE"
    },
    {
     "referenced_type" : "_ZTIi"
    },
    {
     "referenced_type" : "_ZTIRKN4aidl7android8hardware5radio9messaging14CdmaSmsMessageE"
    }
   ],
   "return_type" : "_ZTIN3ndk13ScopedAStatusE",
   "source_file" : "out/soong/.intermediates/hardware/interfaces/radio/aidl/android.hardware.radio.messaging-V1-ndk-source/gen/include/aidl/android/hardware/radio/messaging/IRadioMessaging.h"
  },
  {
   "function_name" : "aidl::android::hardware::radio::messaging::IRadioMessagingDefault::setGsmBroadcastConfig",
   "linker_set_key" : "_ZN4aidl7android8hardware5radio9messaging22IRadioMessagingDefault21setGsmBroadcastConfigEiRKNSt3__16vectorINS3_25GsmBroadcastSmsConfigInfoENS5_9allocatorIS7_EEEE",
   "parameters" :
   [
    {
     "is_this_ptr" : true,
     "referenced_type" : "_ZTIPN4aidl7android8hardware5radio9messaging22IRadioMessagingDefaultE"
    },
    {
     "referenced_type" : "_ZTIi"
    },
    {
     "referenced_type" : "_ZTIRKNSt3__16vectorIN4aidl7android8hardware5radio9messaging25GsmBroadcastSmsConfigInfoENS_9allocatorIS6_EEEE"
    }
   ],
   "return_type" : "_ZTIN3ndk13ScopedAStatusE",
   "source_file" : "out/soong/.intermediates/hardware/interfaces/radio/aidl/android.hardware.radio.messaging-V1-ndk-source/gen/include/aidl/android/hardware/radio/messaging/IRadioMessaging.h"
  },
  {
   "function_name" : "aidl::android::hardware::radio::messaging::IRadioMessagingDefault::getCdmaBroadcastConfig",
   "linker_set_key" : "_ZN4aidl7android8hardware5radio9messaging22IRadioMessagingDefault22getCdmaBroadcastConfigEi",
   "parameters" :
   [
    {
     "is_this_ptr" : true,
     "referenced_type" : "_ZTIPN4aidl7android8hardware5radio9messaging22IRadioMessagingDefaultE"
    },
    {
     "referenced_type" : "_ZTIi"
    }
   ],
   "return_type" : "_ZTIN3ndk13ScopedAStatusE",
   "source_file" : "out/soong/.intermediates/hardware/interfaces/radio/aidl/android.hardware.radio.messaging-V1-ndk-source/gen/include/aidl/android/hardware/radio/messaging/IRadioMessaging.h"
  },
  {
   "function_name" : "aidl::android::hardware::radio::messaging::IRadioMessagingDefault::setCdmaBroadcastConfig",
   "linker_set_key" : "_ZN4aidl7android8hardware5radio9messaging22IRadioMessagingDefault22setCdmaBroadcastConfigEiRKNSt3__16vectorINS3_26CdmaBroadcastSmsConfigInfoENS5_9allocatorIS7_EEEE",
   "parameters" :
   [
    {
     "is_this_ptr" : true,
     "referenced_type" : "_ZTIPN4aidl7android8hardware5radio9messaging22IRadioMessagingDefaultE"
    },
    {
     "referenced_type" : "_ZTIi"
    },
    {
     "referenced_type" : "_ZTIRKNSt3__16vectorIN4aidl7android8hardware5radio9messaging26CdmaBroadcastSmsConfigInfoENS_9allocatorIS6_EEEE"
    }
   ],
   "return_type" : "_ZTIN3ndk13ScopedAStatusE",
   "source_file" : "out/soong/.intermediates/hardware/interfaces/radio/aidl/android.hardware.radio.messaging-V1-ndk-source/gen/include/aidl/android/hardware/radio/messaging/IRadioMessaging.h"
  },
  {
   "function_name" : "aidl::android::hardware::radio::messaging::IRadioMessagingDefault::responseAcknowledgement",
   "linker_set_key" : "_ZN4aidl7android8hardware5radio9messaging22IRadioMessagingDefault23responseAcknowledgementEv",
   "parameters" :
   [
    {
     "is_this_ptr" : true,
     "referenced_type" : "_ZTIPN4aidl7android8hardware5radio9messaging22IRadioMessagingDefaultE"
    }
   ],
   "return_type" : "_ZTIN3ndk13ScopedAStatusE",
   "source_file" : "out/soong/.intermediates/hardware/interfaces/radio/aidl/android.hardware.radio.messaging-V1-ndk-source/gen/include/aidl/android/hardware/radio/messaging/IRadioMessaging.h"
  },
  {
   "function_name" : "aidl::android::hardware::radio::messaging::IRadioMessagingDefault::setGsmBroadcastActivation",
   "linker_set_key" : "_ZN4aidl7android8hardware5radio9messaging22IRadioMessagingDefault25setGsmBroadcastActivationEib",
   "parameters" :
   [
    {
     "is_this_ptr" : true,
     "referenced_type" : "_ZTIPN4aidl7android8hardware5radio9messaging22IRadioMessagingDefaultE"
    },
    {
     "referenced_type" : "_ZTIi"
    },
    {
     "referenced_type" : "_ZTIb"
    }
   ],
   "return_type" : "_ZTIN3ndk13ScopedAStatusE",
   "source_file" : "out/soong/.intermediates/hardware/interfaces/radio/aidl/android.hardware.radio.messaging-V1-ndk-source/gen/include/aidl/android/hardware/radio/messaging/IRadioMessaging.h"
  },
  {
   "function_name" : "aidl::android::hardware::radio::messaging::IRadioMessagingDefault::setCdmaBroadcastActivation",
   "linker_set_key" : "_ZN4aidl7android8hardware5radio9messaging22IRadioMessagingDefault26setCdmaBroadcastActivationEib",
   "parameters" :
   [
    {
     "is_this_ptr" : true,
     "referenced_type" : "_ZTIPN4aidl7android8hardware5radio9messaging22IRadioMessagingDefaultE"
    },
    {
     "referenced_type" : "_ZTIi"
    },
    {
     "referenced_type" : "_ZTIb"
    }
   ],
   "return_type" : "_ZTIN3ndk13ScopedAStatusE",
   "source_file" : "out/soong/.intermediates/hardware/interfaces/radio/aidl/android.hardware.radio.messaging-V1-ndk-source/gen/include/aidl/android/hardware/radio/messaging/IRadioMessaging.h"
  },
  {
   "function_name" : "aidl::android::hardware::radio::messaging::IRadioMessagingDefault::acknowledgeLastIncomingGsmSms",
   "linker_set_key" : "_ZN4aidl7android8hardware5radio9messaging22IRadioMessagingDefault29acknowledgeLastIncomingGsmSmsEibNS3_23SmsAcknowledgeFailCauseE",
   "parameters" :
   [
    {
     "is_this_ptr" : true,
     "referenced_type" : "_ZTIPN4aidl7android8hardware5radio9messaging22IRadioMessagingDefaultE"
    },
    {
     "referenced_type" : "_ZTIi"
    },
    {
     "referenced_type" : "_ZTIb"
    },
    {
     "referenced_type" : "_ZTIN4aidl7android8hardware5radio9messaging23SmsAcknowledgeFailCauseE"
    }
   ],
   "return_type" : "_ZTIN3ndk13ScopedAStatusE",
   "source_file" : "out/soong/.intermediates/hardware/interfaces/radio/aidl/android.hardware.radio.messaging-V1-ndk-source/gen/include/aidl/android/hardware/radio/messaging/IRadioMessaging.h"
  },
  {
   "function_name" : "aidl::android::hardware::radio::messaging::IRadioMessagingDefault::acknowledgeLastIncomingCdmaSms",
   "linker_set_key" : "_ZN4aidl7android8hardware5radio9messaging22IRadioMessagingDefault30acknowledgeLastIncomingCdmaSmsEiRKNS3_10CdmaSmsAckE",
   "parameters" :
   [
    {
     "is_this_ptr" : true,
     "referenced_type" : "_ZTIPN4aidl7android8hardware5radio9messaging22IRadioMessagingDefaultE"
    },
    {
     "referenced_type" : "_ZTIi"
    },
    {
     "referenced_type" : "_ZTIRKN4aidl7android8hardware5radio9messaging10CdmaSmsAckE"
    }
   ],
   "return_type" : "_ZTIN3ndk13ScopedAStatusE",
   "source_file" : "out/soong/.intermediates/hardware/interfaces/radio/aidl/android.hardware.radio.messaging-V1-ndk-source/gen/include/aidl/android/hardware/radio/messaging/IRadioMessaging.h"
  },
  {
   "function_name" : "aidl::android::hardware::radio::messaging::IRadioMessagingDefault::acknowledgeIncomingGsmSmsWithPdu",
   "linker_set_key" : "_ZN4aidl7android8hardware5radio9messaging22IRadioMessagingDefault32acknowledgeIncomingGsmSmsWithPduEibRKNSt3__112basic_stringIcNS5_11char_traitsIcEENS5_9allocatorIcEEEE",
   "parameters" :
   [
    {
     "is_this_ptr" : true,
     "referenced_type" : "_ZTIPN4aidl7android8hardware5radio9messaging22IRadioMessagingDefaultE"
    },
    {
     "referenced_type" : "_ZTIi"
    },
    {
     "referenced_type" : "_ZTIb"
    },
    {
     "referenced_type" : "_ZTIRKNSt3__112basic_stringIcNS_11char_traitsIcEENS_9allocatorIcEEEE"
    }
   ],
   "return_type" : "_ZTIN3ndk13ScopedAStatusE",
   "source_file" : "out/soong/.intermediates/hardware/interfaces/radio/aidl/android.hardware.radio.messaging-V1-ndk-source/gen/include/aidl/android/hardware/radio/messaging/IRadioMessaging.h"
  },
  {
   "function_name" : "aidl::android::hardware::radio::messaging::IRadioMessagingDefault::sendSms",
   "linker_set_key" : "_ZN4aidl7android8hardware5radio9messaging22IRadioMessagingDefault7sendSmsEiRKNS3_13GsmSmsMessageE",
   "parameters" :
   [
    {
     "is_this_ptr" : true,
     "referenced_type" : "_ZTIPN4aidl7android8hardware5radio9messaging22IRadioMessagingDefaultE"
    },
    {
     "referenced_type" : "_ZTIi"
    },
    {
     "referenced_type" : "_ZTIRKN4aidl7android8hardware5radio9messaging13GsmSmsMessageE"
    }
   ],
   "return_type" : "_ZTIN3ndk13ScopedAStatusE",
   "source_file" : "out/soong/.intermediates/hardware/interfaces/radio/aidl/android.hardware.radio.messaging-V1-ndk-source/gen/include/aidl/android/hardware/radio/messaging/IRadioMessaging.h"
  },
  {
   "function_name" : "aidl::android::hardware::radio::messaging::IRadioMessagingDefault::asBinder",
   "linker_set_key" : "_ZN4aidl7android8hardware5radio9messaging22IRadioMessagingDefault8asBinderEv",
   "parameters" :
   [
    {
     "is_this_ptr" : true,
     "referenced_type" : "_ZTIPN4aidl7android8hardware5radio9messaging22IRadioMessagingDefaultE"
    }
   ],
   "return_type" : "_ZTIN3ndk10SpAIBinderE",
   "source_file" : "out/soong/.intermediates/hardware/interfaces/radio/aidl/android.hardware.radio.messaging-V1-ndk-source/gen/include/aidl/android/hardware/radio/messaging/IRadioMessaging.h"
  },
  {
   "function_name" : "aidl::android::hardware::radio::messaging::IRadioMessagingDefault::isRemote",
   "linker_set_key" : "_ZN4aidl7android8hardware5radio9messaging22IRadioMessagingDefault8isRemoteEv",
   "parameters" :
   [
    {
     "is_this_ptr" : true,
     "referenced_type" : "_ZTIPN4aidl7android8hardware5radio9messaging22IRadioMessagingDefaultE"
    }
   ],
   "return_type" : "_ZTIb",
   "source_file" : "out/soong/.intermediates/hardware/interfaces/radio/aidl/android.hardware.radio.messaging-V1-ndk-source/gen/include/aidl/android/hardware/radio/messaging/IRadioMessaging.h"
  },
  {
   "function_name" : "aidl::android::hardware::radio::messaging::IRadioMessagingResponse::fromBinder",
   "linker_set_key" : "_ZN4aidl7android8hardware5radio9messaging23IRadioMessagingResponse10fromBinderERKN3ndk10SpAIBinderE",
   "parameters" :
   [
    {
     "referenced_type" : "_ZTIRKN3ndk10SpAIBinderE"
    }
   ],
   "return_type" : "_ZTINSt3__110shared_ptrIN4aidl7android8hardware5radio9messaging23IRadioMessagingResponseEEE",
   "source_file" : "out/soong/.intermediates/hardware/interfaces/radio/aidl/android.hardware.radio.messaging-V1-ndk-source/gen/include/aidl/android/hardware/radio/messaging/IRadioMessagingResponse.h"
  },
  {
   "function_name" : "aidl::android::hardware::radio::messaging::IRadioMessagingResponse::writeToParcel",
   "linker_set_key" : "_ZN4aidl7android8hardware5radio9messaging23IRadioMessagingResponse13writeToParcelEP7AParcelRKNSt3__110shared_ptrIS4_EE",
   "parameters" :
   [
    {
     "referenced_type" : "_ZTIP7AParcel"
    },
    {
     "referenced_type" : "_ZTIRKNSt3__110shared_ptrIN4aidl7android8hardware5radio9messaging23IRadioMessagingResponseEEE"
    }
   ],
   "return_type" : "_ZTIi",
   "source_file" : "out/soong/.intermediates/hardware/interfaces/radio/aidl/android.hardware.radio.messaging-V1-ndk-source/gen/include/aidl/android/hardware/radio/messaging/IRadioMessagingResponse.h"
  },
  {
   "function_name" : "aidl::android::hardware::radio::messaging::IRadioMessagingResponse::getDefaultImpl",
   "linker_set_key" : "_ZN4aidl7android8hardware5radio9messaging23IRadioMessagingResponse14getDefaultImplEv",
   "return_type" : "_ZTIRKNSt3__110shared_ptrIN4aidl7android8hardware5radio9messaging23IRadioMessagingResponseEEE",
   "source_file" : "out/soong/.intermediates/hardware/interfaces/radio/aidl/android.hardware.radio.messaging-V1-ndk-source/gen/include/aidl/android/hardware/radio/messaging/IRadioMessagingResponse.h"
  },
  {
   "function_name" : "aidl::android::hardware::radio::messaging::IRadioMessagingResponse::readFromParcel",
   "linker_set_key" : "_ZN4aidl7android8hardware5radio9messaging23IRadioMessagingResponse14readFromParcelEPK7AParcelPNSt3__110shared_ptrIS4_EE",
   "parameters" :
   [
    {
     "referenced_type" : "_ZTIPK7AParcel"
    },
    {
     "referenced_type" : "_ZTIPNSt3__110shared_ptrIN4aidl7android8hardware5radio9messaging23IRadioMessagingResponseEEE"
    }
   ],
   "return_type" : "_ZTIi",
   "source_file" : "out/soong/.intermediates/hardware/interfaces/radio/aidl/android.hardware.radio.messaging-V1-ndk-source/gen/include/aidl/android/hardware/radio/messaging/IRadioMessagingResponse.h"
  },
  {
   "function_name" : "aidl::android::hardware::radio::messaging::IRadioMessagingResponse::setDefaultImpl",
   "linker_set_key" : "_ZN4aidl7android8hardware5radio9messaging23IRadioMessagingResponse14setDefaultImplERKNSt3__110shared_ptrIS4_EE",
   "parameters" :
   [
    {
     "referenced_type" : "_ZTIRKNSt3__110shared_ptrIN4aidl7android8hardware5radio9messaging23IRadioMessagingResponseEEE"
    }
   ],
   "return_type" : "_ZTIb",
   "source_file" : "out/soong/.intermediates/hardware/interfaces/radio/aidl/android.hardware.radio.messaging-V1-ndk-source/gen/include/aidl/android/hardware/radio/messaging/IRadioMessagingResponse.h"
  },
  {
   "function_name" : "aidl::android::hardware::radio::messaging::IRadioMessagingResponse::IRadioMessagingResponse",
   "linker_set_key" : "_ZN4aidl7android8hardware5radio9messaging23IRadioMessagingResponseC2Ev",
   "parameters" :
   [
    {
     "is_this_ptr" : true,
     "referenced_type" : "_ZTIPN4aidl7android8hardware5radio9messaging23IRadioMessagingResponseE"
    }
   ],
   "return_type" : "_ZTIv",
   "source_file" : "out/soong/.intermediates/hardware/interfaces/radio/aidl/android.hardware.radio.messaging-V1-ndk-source/gen/include/aidl/android/hardware/radio/messaging/IRadioMessagingResponse.h"
  },
  {
   "function_name" : "aidl::android::hardware::radio::messaging::IRadioMessagingResponse::~IRadioMessagingResponse",
   "linker_set_key" : "_ZN4aidl7android8hardware5radio9messaging23IRadioMessagingResponseD0Ev",
   "parameters" :
   [
    {
     "is_this_ptr" : true,
     "referenced_type" : "_ZTIPN4aidl7android8hardware5radio9messaging23IRadioMessagingResponseE"
    }
   ],
   "return_type" : "_ZTIv",
   "source_file" : "out/soong/.intermediates/hardware/interfaces/radio/aidl/android.hardware.radio.messaging-V1-ndk-source/gen/include/aidl/android/hardware/radio/messaging/IRadioMessagingResponse.h"
  },
  {
   "function_name" : "aidl::android::hardware::radio::messaging::IRadioMessagingResponse::~IRadioMessagingResponse",
   "linker_set_key" : "_ZN4aidl7android8hardware5radio9messaging23IRadioMessagingResponseD1Ev",
   "parameters" :
   [
    {
     "is_this_ptr" : true,
     "referenced_type" : "_ZTIPN4aidl7android8hardware5radio9messaging23IRadioMessagingResponseE"
    }
   ],
   "return_type" : "_ZTIv",
   "source_file" : "out/soong/.intermediates/hardware/interfaces/radio/aidl/android.hardware.radio.messaging-V1-ndk-source/gen/include/aidl/android/hardware/radio/messaging/IRadioMessagingResponse.h"
  },
  {
   "function_name" : "aidl::android::hardware::radio::messaging::IRadioMessagingResponse::~IRadioMessagingResponse",
   "linker_set_key" : "_ZN4aidl7android8hardware5radio9messaging23IRadioMessagingResponseD2Ev",
   "parameters" :
   [
    {
     "is_this_ptr" : true,
     "referenced_type" : "_ZTIPN4aidl7android8hardware5radio9messaging23IRadioMessagingResponseE"
    }
   ],
   "return_type" : "_ZTIv",
   "source_file" : "out/soong/.intermediates/hardware/interfaces/radio/aidl/android.hardware.radio.messaging-V1-ndk-source/gen/include/aidl/android/hardware/radio/messaging/IRadioMessagingResponse.h"
  },
  {
   "access" : "protected",
   "function_name" : "aidl::android::hardware::radio::messaging::BnRadioMessagingResponse::createBinder",
   "linker_set_key" : "_ZN4aidl7android8hardware5radio9messaging24BnRadioMessagingResponse12createBinderEv",
   "parameters" :
   [
    {
     "is_this_ptr" : true,
     "referenced_type" : "_ZTIPN4aidl7android8hardware5radio9messaging24BnRadioMessagingResponseE"
    }
   ],
   "return_type" : "_ZTIN3ndk10SpAIBinderE",
   "source_file" : "out/soong/.intermediates/hardware/interfaces/radio/aidl/android.hardware.radio.messaging-V1-ndk-source/gen/include/aidl/android/hardware/radio/messaging/BnRadioMessagingResponse.h"
  },
  {
   "function_name" : "aidl::android::hardware::radio::messaging::BnRadioMessagingResponse::getInterfaceHash",
   "linker_set_key" : "_ZN4aidl7android8hardware5radio9messaging24BnRadioMessagingResponse16getInterfaceHashEPNSt3__112basic_stringIcNS5_11char_traitsIcEENS5_9allocatorIcEEEE",
   "parameters" :
   [
    {
     "is_this_ptr" : true,
     "referenced_type" : "_ZTIPN4aidl7android8hardware5radio9messaging24BnRadioMessagingResponseE"
    },
    {
     "referenced_type" : "_ZTIPNSt3__112basic_stringIcNS_11char_traitsIcEENS_9allocatorIcEEEE"
    }
   ],
   "return_type" : "_ZTIN3ndk13ScopedAStatusE",
   "source_file" : "out/soong/.intermediates/hardware/interfaces/radio/aidl/android.hardware.radio.messaging-V1-ndk-source/gen/include/aidl/android/hardware/radio/messaging/BnRadioMessagingResponse.h"
  },
  {
   "function_name" : "aidl::android::hardware::radio::messaging::BnRadioMessagingResponse::getInterfaceVersion",
   "linker_set_key" : "_ZN4aidl7android8hardware5radio9messaging24BnRadioMessagingResponse19getInterfaceVersionEPi",
   "parameters" :
   [
    {
     "is_this_ptr" : true,
     "referenced_type" : "_ZTIPN4aidl7android8hardware5radio9messaging24BnRadioMessagingResponseE"
    },
    {
     "referenced_type" : "_ZTIPi"
    }
   ],
   "return_type" : "_ZTIN3ndk13ScopedAStatusE",
   "source_file" : "out/soong/.intermediates/hardware/interfaces/radio/aidl/android.hardware.radio.messaging-V1-ndk-source/gen/include/aidl/android/hardware/radio/messaging/BnRadioMessagingResponse.h"
  },
  {
   "function_name" : "aidl::android::hardware::radio::messaging::BnRadioMessagingResponse::BnRadioMessagingResponse",
   "linker_set_key" : "_ZN4aidl7android8hardware5radio9messaging24BnRadioMessagingResponseC2Ev",
   "parameters" :
   [
    {
     "is_this_ptr" : true,
     "referenced_type" : "_ZTIPN4aidl7android8hardware5radio9messaging24BnRadioMessagingResponseE"
    }
   ],
   "return_type" : "_ZTIv",
   "source_file" : "out/soong/.intermediates/hardware/interfaces/radio/aidl/android.hardware.radio.messaging-V1-ndk-source/gen/include/aidl/android/hardware/radio/messaging/BnRadioMessagingResponse.h"
  },
  {
   "function_name" : "aidl::android::hardware::radio::messaging::BnRadioMessagingResponse::~BnRadioMessagingResponse",
   "linker_set_key" : "_ZN4aidl7android8hardware5radio9messaging24BnRadioMessagingResponseD0Ev",
   "parameters" :
   [
    {
     "is_this_ptr" : true,
     "referenced_type" : "_ZTIPN4aidl7android8hardware5radio9messaging24BnRadioMessagingResponseE"
    }
   ],
   "return_type" : "_ZTIv",
   "source_file" : "out/soong/.intermediates/hardware/interfaces/radio/aidl/android.hardware.radio.messaging-V1-ndk-source/gen/include/aidl/android/hardware/radio/messaging/BnRadioMessagingResponse.h"
  },
  {
   "function_name" : "aidl::android::hardware::radio::messaging::BnRadioMessagingResponse::~BnRadioMessagingResponse",
   "linker_set_key" : "_ZN4aidl7android8hardware5radio9messaging24BnRadioMessagingResponseD1Ev",
   "parameters" :
   [
    {
     "is_this_ptr" : true,
     "referenced_type" : "_ZTIPN4aidl7android8hardware5radio9messaging24BnRadioMessagingResponseE"
    }
   ],
   "return_type" : "_ZTIv",
   "source_file" : "out/soong/.intermediates/hardware/interfaces/radio/aidl/android.hardware.radio.messaging-V1-ndk-source/gen/include/aidl/android/hardware/radio/messaging/BnRadioMessagingResponse.h"
  },
  {
   "function_name" : "aidl::android::hardware::radio::messaging::BnRadioMessagingResponse::~BnRadioMessagingResponse",
   "linker_set_key" : "_ZN4aidl7android8hardware5radio9messaging24BnRadioMessagingResponseD2Ev",
   "parameters" :
   [
    {
     "is_this_ptr" : true,
     "referenced_type" : "_ZTIPN4aidl7android8hardware5radio9messaging24BnRadioMessagingResponseE"
    }
   ],
   "return_type" : "_ZTIv",
   "source_file" : "out/soong/.intermediates/hardware/interfaces/radio/aidl/android.hardware.radio.messaging-V1-ndk-source/gen/include/aidl/android/hardware/radio/messaging/BnRadioMessagingResponse.h"
  },
  {
   "function_name" : "aidl::android::hardware::radio::messaging::BpRadioMessagingResponse::sendSmsResponse",
   "linker_set_key" : "_ZN4aidl7android8hardware5radio9messaging24BpRadioMessagingResponse15sendSmsResponseERKNS2_17RadioResponseInfoERKNS3_13SendSmsResultE",
   "parameters" :
   [
    {
     "is_this_ptr" : true,
     "referenced_type" : "_ZTIPN4aidl7android8hardware5radio9messaging24BpRadioMessagingResponseE"
    },
    {
     "referenced_type" : "_ZTIRKN4aidl7android8hardware5radio17RadioResponseInfoE"
    },
    {
     "referenced_type" : "_ZTIRKN4aidl7android8hardware5radio9messaging13SendSmsResultE"
    }
   ],
   "return_type" : "_ZTIN3ndk13ScopedAStatusE",
   "source_file" : "out/soong/.intermediates/hardware/interfaces/radio/aidl/android.hardware.radio.messaging-V1-ndk-source/gen/include/aidl/android/hardware/radio/messaging/BpRadioMessagingResponse.h"
  },
  {
   "function_name" : "aidl::android::hardware::radio::messaging::BpRadioMessagingResponse::getInterfaceHash",
   "linker_set_key" : "_ZN4aidl7android8hardware5radio9messaging24BpRadioMessagingResponse16getInterfaceHashEPNSt3__112basic_stringIcNS5_11char_traitsIcEENS5_9allocatorIcEEEE",
   "parameters" :
   [
    {
     "is_this_ptr" : true,
     "referenced_type" : "_ZTIPN4aidl7android8hardware5radio9messaging24BpRadioMessagingResponseE"
    },
    {
     "referenced_type" : "_ZTIPNSt3__112basic_stringIcNS_11char_traitsIcEENS_9allocatorIcEEEE"
    }
   ],
   "return_type" : "_ZTIN3ndk13ScopedAStatusE",
   "source_file" : "out/soong/.intermediates/hardware/interfaces/radio/aidl/android.hardware.radio.messaging-V1-ndk-source/gen/include/aidl/android/hardware/radio/messaging/BpRadioMessagingResponse.h"
  },
  {
   "function_name" : "aidl::android::hardware::radio::messaging::BpRadioMessagingResponse::acknowledgeRequest",
   "linker_set_key" : "_ZN4aidl7android8hardware5radio9messaging24BpRadioMessagingResponse18acknowledgeRequestEi",
   "parameters" :
   [
    {
     "is_this_ptr" : true,
     "referenced_type" : "_ZTIPN4aidl7android8hardware5radio9messaging24BpRadioMessagingResponseE"
    },
    {
     "referenced_type" : "_ZTIi"
    }
   ],
   "return_type" : "_ZTIN3ndk13ScopedAStatusE",
   "source_file" : "out/soong/.intermediates/hardware/interfaces/radio/aidl/android.hardware.radio.messaging-V1-ndk-source/gen/include/aidl/android/hardware/radio/messaging/BpRadioMessagingResponse.h"
  },
  {
   "function_name" : "aidl::android::hardware::radio::messaging::BpRadioMessagingResponse::sendImsSmsResponse",
   "linker_set_key" : "_ZN4aidl7android8hardware5radio9messaging24BpRadioMessagingResponse18sendImsSmsResponseERKNS2_17RadioResponseInfoERKNS3_13SendSmsResultE",
   "parameters" :
   [
    {
     "is_this_ptr" : true,
     "referenced_type" : "_ZTIPN4aidl7android8hardware5radio9messaging24BpRadioMessagingResponseE"
    },
    {
     "referenced_type" : "_ZTIRKN4aidl7android8hardware5radio17RadioResponseInfoE"
    },
    {
     "referenced_type" : "_ZTIRKN4aidl7android8hardware5radio9messaging13SendSmsResultE"
    }
   ],
   "return_type" : "_ZTIN3ndk13ScopedAStatusE",
   "source_file" : "out/soong/.intermediates/hardware/interfaces/radio/aidl/android.hardware.radio.messaging-V1-ndk-source/gen/include/aidl/android/hardware/radio/messaging/BpRadioMessagingResponse.h"
  },
  {
   "function_name" : "aidl::android::hardware::radio::messaging::BpRadioMessagingResponse::getInterfaceVersion",
   "linker_set_key" : "_ZN4aidl7android8hardware5radio9messaging24BpRadioMessagingResponse19getInterfaceVersionEPi",
   "parameters" :
   [
    {
     "is_this_ptr" : true,
     "referenced_type" : "_ZTIPN4aidl7android8hardware5radio9messaging24BpRadioMessagingResponseE"
    },
    {
     "referenced_type" : "_ZTIPi"
    }
   ],
   "return_type" : "_ZTIN3ndk13ScopedAStatusE",
   "source_file" : "out/soong/.intermediates/hardware/interfaces/radio/aidl/android.hardware.radio.messaging-V1-ndk-source/gen/include/aidl/android/hardware/radio/messaging/BpRadioMessagingResponse.h"
  },
  {
   "function_name" : "aidl::android::hardware::radio::messaging::BpRadioMessagingResponse::sendCdmaSmsResponse",
   "linker_set_key" : "_ZN4aidl7android8hardware5radio9messaging24BpRadioMessagingResponse19sendCdmaSmsResponseERKNS2_17RadioResponseInfoERKNS3_13SendSmsResultE",
   "parameters" :
   [
    {
     "is_this_ptr" : true,
     "referenced_type" : "_ZTIPN4aidl7android8hardware5radio9messaging24BpRadioMessagingResponseE"
    },
    {
     "referenced_type" : "_ZTIRKN4aidl7android8hardware5radio17RadioResponseInfoE"
    },
    {
     "referenced_type" : "_ZTIRKN4aidl7android8hardware5radio9messaging13SendSmsResultE"
    }
   ],
   "return_type" : "_ZTIN3ndk13ScopedAStatusE",
   "source_file" : "out/soong/.intermediates/hardware/interfaces/radio/aidl/android.hardware.radio.messaging-V1-ndk-source/gen/include/aidl/android/hardware/radio/messaging/BpRadioMessagingResponse.h"
  },
  {
   "function_name" : "aidl::android::hardware::radio::messaging::BpRadioMessagingResponse::writeSmsToSimResponse",
   "linker_set_key" : "_ZN4aidl7android8hardware5radio9messaging24BpRadioMessagingResponse21writeSmsToSimResponseERKNS2_17RadioResponseInfoEi",
   "parameters" :
   [
    {
     "is_this_ptr" : true,
     "referenced_type" : "_ZTIPN4aidl7android8hardware5radio9messaging24BpRadioMessagingResponseE"
    },
    {
     "referenced_type" : "_ZTIRKN4aidl7android8hardware5radio17RadioResponseInfoE"
    },
    {
     "referenced_type" : "_ZTIi"
    }
   ],
   "return_type" : "_ZTIN3ndk13ScopedAStatusE",
   "source_file" : "out/soong/.intermediates/hardware/interfaces/radio/aidl/android.hardware.radio.messaging-V1-ndk-source/gen/include/aidl/android/hardware/radio/messaging/BpRadioMessagingResponse.h"
  },
  {
   "function_name" : "aidl::android::hardware::radio::messaging::BpRadioMessagingResponse::deleteSmsOnSimResponse",
   "linker_set_key" : "_ZN4aidl7android8hardware5radio9messaging24BpRadioMessagingResponse22deleteSmsOnSimResponseERKNS2_17RadioResponseInfoE",
   "parameters" :
   [
    {
     "is_this_ptr" : true,
     "referenced_type" : "_ZTIPN4aidl7android8hardware5radio9messaging24BpRadioMessagingResponseE"
    },
    {
     "referenced_type" : "_ZTIRKN4aidl7android8hardware5radio17RadioResponseInfoE"
    }
   ],
   "return_type" : "_ZTIN3ndk13ScopedAStatusE",
   "source_file" : "out/soong/.intermediates/hardware/interfaces/radio/aidl/android.hardware.radio.messaging-V1-ndk-source/gen/include/aidl/android/hardware/radio/messaging/BpRadioMessagingResponse.h"
  },
  {
   "function_name" : "aidl::android::hardware::radio::messaging::BpRadioMessagingResponse::getSmscAddressResponse",
   "linker_set_key" : "_ZN4aidl7android8hardware5radio9messaging24BpRadioMessagingResponse22getSmscAddressResponseERKNS2_17RadioResponseInfoERKNSt3__112basic_stringIcNS8_11char_traitsIcEENS8_9allocatorIcEEEE",
   "parameters" :
   [
    {
     "is_this_ptr" : true,
     "referenced_type" : "_ZTIPN4aidl7android8hardware5radio9messaging24BpRadioMessagingResponseE"
    },
    {
     "referenced_type" : "_ZTIRKN4aidl7android8hardware5radio17RadioResponseInfoE"
    },
    {
     "referenced_type" : "_ZTIRKNSt3__112basic_stringIcNS_11char_traitsIcEENS_9allocatorIcEEEE"
    }
   ],
   "return_type" : "_ZTIN3ndk13ScopedAStatusE",
   "source_file" : "out/soong/.intermediates/hardware/interfaces/radio/aidl/android.hardware.radio.messaging-V1-ndk-source/gen/include/aidl/android/hardware/radio/messaging/BpRadioMessagingResponse.h"
  },
  {
   "function_name" : "aidl::android::hardware::radio::messaging::BpRadioMessagingResponse::setSmscAddressResponse",
   "linker_set_key" : "_ZN4aidl7android8hardware5radio9messaging24BpRadioMessagingResponse22setSmscAddressResponseERKNS2_17RadioResponseInfoE",
   "parameters" :
   [
    {
     "is_this_ptr" : true,
     "referenced_type" : "_ZTIPN4aidl7android8hardware5radio9messaging24BpRadioMessagingResponseE"
    },
    {
     "referenced_type" : "_ZTIRKN4aidl7android8hardware5radio17RadioResponseInfoE"
    }
   ],
   "return_type" : "_ZTIN3ndk13ScopedAStatusE",
   "source_file" : "out/soong/.intermediates/hardware/interfaces/radio/aidl/android.hardware.radio.messaging-V1-ndk-source/gen/include/aidl/android/hardware/radio/messaging/BpRadioMessagingResponse.h"
  },
  {
   "function_name" : "aidl::android::hardware::radio::messaging::BpRadioMessagingResponse::writeSmsToRuimResponse",
   "linker_set_key" : "_ZN4aidl7android8hardware5radio9messaging24BpRadioMessagingResponse22writeSmsToRuimResponseERKNS2_17RadioResponseInfoEi",
   "parameters" :
   [
    {
     "is_this_ptr" : true,
     "referenced_type" : "_ZTIPN4aidl7android8hardware5radio9messaging24BpRadioMessagingResponseE"
    },
    {
     "referenced_type" : "_ZTIRKN4aidl7android8hardware5radio17RadioResponseInfoE"
    },
    {
     "referenced_type" : "_ZTIi"
    }
   ],
   "return_type" : "_ZTIN3ndk13ScopedAStatusE",
   "source_file" : "out/soong/.intermediates/hardware/interfaces/radio/aidl/android.hardware.radio.messaging-V1-ndk-source/gen/include/aidl/android/hardware/radio/messaging/BpRadioMessagingResponse.h"
  },
  {
   "function_name" : "aidl::android::hardware::radio::messaging::BpRadioMessagingResponse::deleteSmsOnRuimResponse",
   "linker_set_key" : "_ZN4aidl7android8hardware5radio9messaging24BpRadioMessagingResponse23deleteSmsOnRuimResponseERKNS2_17RadioResponseInfoE",
   "parameters" :
   [
    {
     "is_this_ptr" : true,
     "referenced_type" : "_ZTIPN4aidl7android8hardware5radio9messaging24BpRadioMessagingResponseE"
    },
    {
     "referenced_type" : "_ZTIRKN4aidl7android8hardware5radio17RadioResponseInfoE"
    }
   ],
   "return_type" : "_ZTIN3ndk13ScopedAStatusE",
   "source_file" : "out/soong/.intermediates/hardware/interfaces/radio/aidl/android.hardware.radio.messaging-V1-ndk-source/gen/include/aidl/android/hardware/radio/messaging/BpRadioMessagingResponse.h"
  },
  {
   "function_name" : "aidl::android::hardware::radio::messaging::BpRadioMessagingResponse::sendSmsExpectMoreResponse",
   "linker_set_key" : "_ZN4aidl7android8hardware5radio9messaging24BpRadioMessagingResponse25sendSmsExpectMoreResponseERKNS2_17RadioResponseInfoERKNS3_13SendSmsResultE",
   "parameters" :
   [
    {
     "is_this_ptr" : true,
     "referenced_type" : "_ZTIPN4aidl7android8hardware5radio9messaging24BpRadioMessagingResponseE"
    },
    {
     "referenced_type" : "_ZTIRKN4aidl7android8hardware5radio17RadioResponseInfoE"
    },
    {
     "referenced_type" : "_ZTIRKN4aidl7android8hardware5radio9messaging13SendSmsResultE"
    }
   ],
   "return_type" : "_ZTIN3ndk13ScopedAStatusE",
   "source_file" : "out/soong/.intermediates/hardware/interfaces/radio/aidl/android.hardware.radio.messaging-V1-ndk-source/gen/include/aidl/android/hardware/radio/messaging/BpRadioMessagingResponse.h"
  },
  {
   "function_name" : "aidl::android::hardware::radio::messaging::BpRadioMessagingResponse::getGsmBroadcastConfigResponse",
   "linker_set_key" : "_ZN4aidl7android8hardware5radio9messaging24BpRadioMessagingResponse29getGsmBroadcastConfigResponseERKNS2_17RadioResponseInfoERKNSt3__16vectorINS3_25GsmBroadcastSmsConfigInfoENS8_9allocatorISA_EEEE",
   "parameters" :
   [
    {
     "is_this_ptr" : true,
     "referenced_type" : "_ZTIPN4aidl7android8hardware5radio9messaging24BpRadioMessagingResponseE"
    },
    {
     "referenced_type" : "_ZTIRKN4aidl7android8hardware5radio17RadioResponseInfoE"
    },
    {
     "referenced_type" : "_ZTIRKNSt3__16vectorIN4aidl7android8hardware5radio9messaging25GsmBroadcastSmsConfigInfoENS_9allocatorIS6_EEEE"
    }
   ],
   "return_type" : "_ZTIN3ndk13ScopedAStatusE",
   "source_file" : "out/soong/.intermediates/hardware/interfaces/radio/aidl/android.hardware.radio.messaging-V1-ndk-source/gen/include/aidl/android/hardware/radio/messaging/BpRadioMessagingResponse.h"
  },
  {
   "function_name" : "aidl::android::hardware::radio::messaging::BpRadioMessagingResponse::reportSmsMemoryStatusResponse",
   "linker_set_key" : "_ZN4aidl7android8hardware5radio9messaging24BpRadioMessagingResponse29reportSmsMemoryStatusResponseERKNS2_17RadioResponseInfoE",
   "parameters" :
   [
    {
     "is_this_ptr" : true,
     "referenced_type" : "_ZTIPN4aidl7android8hardware5radio9messaging24BpRadioMessagingResponseE"
    },
    {
     "referenced_type" : "_ZTIRKN4aidl7android8hardware5radio17RadioResponseInfoE"
    }
   ],
   "return_type" : "_ZTIN3ndk13ScopedAStatusE",
   "source_file" : "out/soong/.intermediates/hardware/interfaces/radio/aidl/android.hardware.radio.messaging-V1-ndk-source/gen/include/aidl/android/hardware/radio/messaging/BpRadioMessagingResponse.h"
  },
  {
   "function_name" : "aidl::android::hardware::radio::messaging::BpRadioMessagingResponse::sendCdmaSmsExpectMoreResponse",
   "linker_set_key" : "_ZN4aidl7android8hardware5radio9messaging24BpRadioMessagingResponse29sendCdmaSmsExpectMoreResponseERKNS2_17RadioResponseInfoERKNS3_13SendSmsResultE",
   "parameters" :
   [
    {
     "is_this_ptr" : true,
     "referenced_type" : "_ZTIPN4aidl7android8hardware5radio9messaging24BpRadioMessagingResponseE"
    },
    {
     "referenced_type" : "_ZTIRKN4aidl7android8hardware5radio17RadioResponseInfoE"
    },
    {
     "referenced_type" : "_ZTIRKN4aidl7android8hardware5radio9messaging13SendSmsResultE"
    }
   ],
   "return_type" : "_ZTIN3ndk13ScopedAStatusE",
   "source_file" : "out/soong/.intermediates/hardware/interfaces/radio/aidl/android.hardware.radio.messaging-V1-ndk-source/gen/include/aidl/android/hardware/radio/messaging/BpRadioMessagingResponse.h"
  },
  {
   "function_name" : "aidl::android::hardware::radio::messaging::BpRadioMessagingResponse::setGsmBroadcastConfigResponse",
   "linker_set_key" : "_ZN4aidl7android8hardware5radio9messaging24BpRadioMessagingResponse29setGsmBroadcastConfigResponseERKNS2_17RadioResponseInfoE",
   "parameters" :
   [
    {
     "is_this_ptr" : true,
     "referenced_type" : "_ZTIPN4aidl7android8hardware5radio9messaging24BpRadioMessagingResponseE"
    },
    {
     "referenced_type" : "_ZTIRKN4aidl7android8hardware5radio17RadioResponseInfoE"
    }
   ],
   "return_type" : "_ZTIN3ndk13ScopedAStatusE",
   "source_file" : "out/soong/.intermediates/hardware/interfaces/radio/aidl/android.hardware.radio.messaging-V1-ndk-source/gen/include/aidl/android/hardware/radio/messaging/BpRadioMessagingResponse.h"
  },
  {
   "function_name" : "aidl::android::hardware::radio::messaging::BpRadioMessagingResponse::getCdmaBroadcastConfigResponse",
   "linker_set_key" : "_ZN4aidl7android8hardware5radio9messaging24BpRadioMessagingResponse30getCdmaBroadcastConfigResponseERKNS2_17RadioResponseInfoERKNSt3__16vectorINS3_26CdmaBroadcastSmsConfigInfoENS8_9allocatorISA_EEEE",
   "parameters" :
   [
    {
     "is_this_ptr" : true,
     "referenced_type" : "_ZTIPN4aidl7android8hardware5radio9messaging24BpRadioMessagingResponseE"
    },
    {
     "referenced_type" : "_ZTIRKN4aidl7android8hardware5radio17RadioResponseInfoE"
    },
    {
     "referenced_type" : "_ZTIRKNSt3__16vectorIN4aidl7android8hardware5radio9messaging26CdmaBroadcastSmsConfigInfoENS_9allocatorIS6_EEEE"
    }
   ],
   "return_type" : "_ZTIN3ndk13ScopedAStatusE",
   "source_file" : "out/soong/.intermediates/hardware/interfaces/radio/aidl/android.hardware.radio.messaging-V1-ndk-source/gen/include/aidl/android/hardware/radio/messaging/BpRadioMessagingResponse.h"
  },
  {
   "function_name" : "aidl::android::hardware::radio::messaging::BpRadioMessagingResponse::setCdmaBroadcastConfigResponse",
   "linker_set_key" : "_ZN4aidl7android8hardware5radio9messaging24BpRadioMessagingResponse30setCdmaBroadcastConfigResponseERKNS2_17RadioResponseInfoE",
   "parameters" :
   [
    {
     "is_this_ptr" : true,
     "referenced_type" : "_ZTIPN4aidl7android8hardware5radio9messaging24BpRadioMessagingResponseE"
    },
    {
     "referenced_type" : "_ZTIRKN4aidl7android8hardware5radio17RadioResponseInfoE"
    }
   ],
   "return_type" : "_ZTIN3ndk13ScopedAStatusE",
   "source_file" : "out/soong/.intermediates/hardware/interfaces/radio/aidl/android.hardware.radio.messaging-V1-ndk-source/gen/include/aidl/android/hardware/radio/messaging/BpRadioMessagingResponse.h"
  },
  {
   "function_name" : "aidl::android::hardware::radio::messaging::BpRadioMessagingResponse::setGsmBroadcastActivationResponse",
   "linker_set_key" : "_ZN4aidl7android8hardware5radio9messaging24BpRadioMessagingResponse33setGsmBroadcastActivationResponseERKNS2_17RadioResponseInfoE",
   "parameters" :
   [
    {
     "is_this_ptr" : true,
     "referenced_type" : "_ZTIPN4aidl7android8hardware5radio9messaging24BpRadioMessagingResponseE"
    },
    {
     "referenced_type" : "_ZTIRKN4aidl7android8hardware5radio17RadioResponseInfoE"
    }
   ],
   "return_type" : "_ZTIN3ndk13ScopedAStatusE",
   "source_file" : "out/soong/.intermediates/hardware/interfaces/radio/aidl/android.hardware.radio.messaging-V1-ndk-source/gen/include/aidl/android/hardware/radio/messaging/BpRadioMessagingResponse.h"
  },
  {
   "function_name" : "aidl::android::hardware::radio::messaging::BpRadioMessagingResponse::setCdmaBroadcastActivationResponse",
   "linker_set_key" : "_ZN4aidl7android8hardware5radio9messaging24BpRadioMessagingResponse34setCdmaBroadcastActivationResponseERKNS2_17RadioResponseInfoE",
   "parameters" :
   [
    {
     "is_this_ptr" : true,
     "referenced_type" : "_ZTIPN4aidl7android8hardware5radio9messaging24BpRadioMessagingResponseE"
    },
    {
     "referenced_type" : "_ZTIRKN4aidl7android8hardware5radio17RadioResponseInfoE"
    }
   ],
   "return_type" : "_ZTIN3ndk13ScopedAStatusE",
   "source_file" : "out/soong/.intermediates/hardware/interfaces/radio/aidl/android.hardware.radio.messaging-V1-ndk-source/gen/include/aidl/android/hardware/radio/messaging/BpRadioMessagingResponse.h"
  },
  {
   "function_name" : "aidl::android::hardware::radio::messaging::BpRadioMessagingResponse::acknowledgeLastIncomingGsmSmsResponse",
   "linker_set_key" : "_ZN4aidl7android8hardware5radio9messaging24BpRadioMessagingResponse37acknowledgeLastIncomingGsmSmsResponseERKNS2_17RadioResponseInfoE",
   "parameters" :
   [
    {
     "is_this_ptr" : true,
     "referenced_type" : "_ZTIPN4aidl7android8hardware5radio9messaging24BpRadioMessagingResponseE"
    },
    {
     "referenced_type" : "_ZTIRKN4aidl7android8hardware5radio17RadioResponseInfoE"
    }
   ],
   "return_type" : "_ZTIN3ndk13ScopedAStatusE",
   "source_file" : "out/soong/.intermediates/hardware/interfaces/radio/aidl/android.hardware.radio.messaging-V1-ndk-source/gen/include/aidl/android/hardware/radio/messaging/BpRadioMessagingResponse.h"
  },
  {
   "function_name" : "aidl::android::hardware::radio::messaging::BpRadioMessagingResponse::acknowledgeLastIncomingCdmaSmsResponse",
   "linker_set_key" : "_ZN4aidl7android8hardware5radio9messaging24BpRadioMessagingResponse38acknowledgeLastIncomingCdmaSmsResponseERKNS2_17RadioResponseInfoE",
   "parameters" :
   [
    {
     "is_this_ptr" : true,
     "referenced_type" : "_ZTIPN4aidl7android8hardware5radio9messaging24BpRadioMessagingResponseE"
    },
    {
     "referenced_type" : "_ZTIRKN4aidl7android8hardware5radio17RadioResponseInfoE"
    }
   ],
   "return_type" : "_ZTIN3ndk13ScopedAStatusE",
   "source_file" : "out/soong/.intermediates/hardware/interfaces/radio/aidl/android.hardware.radio.messaging-V1-ndk-source/gen/include/aidl/android/hardware/radio/messaging/BpRadioMessagingResponse.h"
  },
  {
   "function_name" : "aidl::android::hardware::radio::messaging::BpRadioMessagingResponse::acknowledgeIncomingGsmSmsWithPduResponse",
   "linker_set_key" : "_ZN4aidl7android8hardware5radio9messaging24BpRadioMessagingResponse40acknowledgeIncomingGsmSmsWithPduResponseERKNS2_17RadioResponseInfoE",
   "parameters" :
   [
    {
     "is_this_ptr" : true,
     "referenced_type" : "_ZTIPN4aidl7android8hardware5radio9messaging24BpRadioMessagingResponseE"
    },
    {
     "referenced_type" : "_ZTIRKN4aidl7android8hardware5radio17RadioResponseInfoE"
    }
   ],
   "return_type" : "_ZTIN3ndk13ScopedAStatusE",
   "source_file" : "out/soong/.intermediates/hardware/interfaces/radio/aidl/android.hardware.radio.messaging-V1-ndk-source/gen/include/aidl/android/hardware/radio/messaging/BpRadioMessagingResponse.h"
  },
  {
   "function_name" : "aidl::android::hardware::radio::messaging::BpRadioMessagingResponse::BpRadioMessagingResponse",
   "linker_set_key" : "_ZN4aidl7android8hardware5radio9messaging24BpRadioMessagingResponseC1ERKN3ndk10SpAIBinderE",
   "parameters" :
   [
    {
     "is_this_ptr" : true,
     "referenced_type" : "_ZTIPN4aidl7android8hardware5radio9messaging24BpRadioMessagingResponseE"
    },
    {
     "referenced_type" : "_ZTIRKN3ndk10SpAIBinderE"
    }
   ],
   "return_type" : "_ZTIv",
   "source_file" : "out/soong/.intermediates/hardware/interfaces/radio/aidl/android.hardware.radio.messaging-V1-ndk-source/gen/include/aidl/android/hardware/radio/messaging/BpRadioMessagingResponse.h"
  },
  {
   "function_name" : "aidl::android::hardware::radio::messaging::BpRadioMessagingResponse::BpRadioMessagingResponse",
   "linker_set_key" : "_ZN4aidl7android8hardware5radio9messaging24BpRadioMessagingResponseC2ERKN3ndk10SpAIBinderE",
   "parameters" :
   [
    {
     "is_this_ptr" : true,
     "referenced_type" : "_ZTIPN4aidl7android8hardware5radio9messaging24BpRadioMessagingResponseE"
    },
    {
     "referenced_type" : "_ZTIRKN3ndk10SpAIBinderE"
    }
   ],
   "return_type" : "_ZTIv",
   "source_file" : "out/soong/.intermediates/hardware/interfaces/radio/aidl/android.hardware.radio.messaging-V1-ndk-source/gen/include/aidl/android/hardware/radio/messaging/BpRadioMessagingResponse.h"
  },
  {
   "function_name" : "aidl::android::hardware::radio::messaging::BpRadioMessagingResponse::~BpRadioMessagingResponse",
   "linker_set_key" : "_ZN4aidl7android8hardware5radio9messaging24BpRadioMessagingResponseD0Ev",
   "parameters" :
   [
    {
     "is_this_ptr" : true,
     "referenced_type" : "_ZTIPN4aidl7android8hardware5radio9messaging24BpRadioMessagingResponseE"
    }
   ],
   "return_type" : "_ZTIv",
   "source_file" : "out/soong/.intermediates/hardware/interfaces/radio/aidl/android.hardware.radio.messaging-V1-ndk-source/gen/include/aidl/android/hardware/radio/messaging/BpRadioMessagingResponse.h"
  },
  {
   "function_name" : "aidl::android::hardware::radio::messaging::BpRadioMessagingResponse::~BpRadioMessagingResponse",
   "linker_set_key" : "_ZN4aidl7android8hardware5radio9messaging24BpRadioMessagingResponseD1Ev",
   "parameters" :
   [
    {
     "is_this_ptr" : true,
     "referenced_type" : "_ZTIPN4aidl7android8hardware5radio9messaging24BpRadioMessagingResponseE"
    }
   ],
   "return_type" : "_ZTIv",
   "source_file" : "out/soong/.intermediates/hardware/interfaces/radio/aidl/android.hardware.radio.messaging-V1-ndk-source/gen/include/aidl/android/hardware/radio/messaging/BpRadioMessagingResponse.h"
  },
  {
   "function_name" : "aidl::android::hardware::radio::messaging::BpRadioMessagingResponse::~BpRadioMessagingResponse",
   "linker_set_key" : "_ZN4aidl7android8hardware5radio9messaging24BpRadioMessagingResponseD2Ev",
   "parameters" :
   [
    {
     "is_this_ptr" : true,
     "referenced_type" : "_ZTIPN4aidl7android8hardware5radio9messaging24BpRadioMessagingResponseE"
    }
   ],
   "return_type" : "_ZTIv",
   "source_file" : "out/soong/.intermediates/hardware/interfaces/radio/aidl/android.hardware.radio.messaging-V1-ndk-source/gen/include/aidl/android/hardware/radio/messaging/BpRadioMessagingResponse.h"
  },
  {
   "function_name" : "aidl::android::hardware::radio::messaging::GsmBroadcastSmsConfigInfo::readFromParcel",
   "linker_set_key" : "_ZN4aidl7android8hardware5radio9messaging25GsmBroadcastSmsConfigInfo14readFromParcelEPK7AParcel",
   "parameters" :
   [
    {
     "is_this_ptr" : true,
     "referenced_type" : "_ZTIPN4aidl7android8hardware5radio9messaging25GsmBroadcastSmsConfigInfoE"
    },
    {
     "referenced_type" : "_ZTIPK7AParcel"
    }
   ],
   "return_type" : "_ZTIi",
   "source_file" : "out/soong/.intermediates/hardware/interfaces/radio/aidl/android.hardware.radio.messaging-V1-ndk-source/gen/include/aidl/android/hardware/radio/messaging/GsmBroadcastSmsConfigInfo.h"
  },
  {
   "function_name" : "aidl::android::hardware::radio::messaging::IRadioMessagingIndication::fromBinder",
   "linker_set_key" : "_ZN4aidl7android8hardware5radio9messaging25IRadioMessagingIndication10fromBinderERKN3ndk10SpAIBinderE",
   "parameters" :
   [
    {
     "referenced_type" : "_ZTIRKN3ndk10SpAIBinderE"
    }
   ],
   "return_type" : "_ZTINSt3__110shared_ptrIN4aidl7android8hardware5radio9messaging25IRadioMessagingIndicationEEE",
   "source_file" : "out/soong/.intermediates/hardware/interfaces/radio/aidl/android.hardware.radio.messaging-V1-ndk-source/gen/include/aidl/android/hardware/radio/messaging/IRadioMessagingIndication.h"
  },
  {
   "function_name" : "aidl::android::hardware::radio::messaging::IRadioMessagingIndication::writeToParcel",
   "linker_set_key" : "_ZN4aidl7android8hardware5radio9messaging25IRadioMessagingIndication13writeToParcelEP7AParcelRKNSt3__110shared_ptrIS4_EE",
   "parameters" :
   [
    {
     "referenced_type" : "_ZTIP7AParcel"
    },
    {
     "referenced_type" : "_ZTIRKNSt3__110shared_ptrIN4aidl7android8hardware5radio9messaging25IRadioMessagingIndicationEEE"
    }
   ],
   "return_type" : "_ZTIi",
   "source_file" : "out/soong/.intermediates/hardware/interfaces/radio/aidl/android.hardware.radio.messaging-V1-ndk-source/gen/include/aidl/android/hardware/radio/messaging/IRadioMessagingIndication.h"
  },
  {
   "function_name" : "aidl::android::hardware::radio::messaging::IRadioMessagingIndication::getDefaultImpl",
   "linker_set_key" : "_ZN4aidl7android8hardware5radio9messaging25IRadioMessagingIndication14getDefaultImplEv",
   "return_type" : "_ZTIRKNSt3__110shared_ptrIN4aidl7android8hardware5radio9messaging25IRadioMessagingIndicationEEE",
   "source_file" : "out/soong/.intermediates/hardware/interfaces/radio/aidl/android.hardware.radio.messaging-V1-ndk-source/gen/include/aidl/android/hardware/radio/messaging/IRadioMessagingIndication.h"
  },
  {
   "function_name" : "aidl::android::hardware::radio::messaging::IRadioMessagingIndication::readFromParcel",
   "linker_set_key" : "_ZN4aidl7android8hardware5radio9messaging25IRadioMessagingIndication14readFromParcelEPK7AParcelPNSt3__110shared_ptrIS4_EE",
   "parameters" :
   [
    {
     "referenced_type" : "_ZTIPK7AParcel"
    },
    {
     "referenced_type" : "_ZTIPNSt3__110shared_ptrIN4aidl7android8hardware5radio9messaging25IRadioMessagingIndicationEEE"
    }
   ],
   "return_type" : "_ZTIi",
   "source_file" : "out/soong/.intermediates/hardware/interfaces/radio/aidl/android.hardware.radio.messaging-V1-ndk-source/gen/include/aidl/android/hardware/radio/messaging/IRadioMessagingIndication.h"
  },
  {
   "function_name" : "aidl::android::hardware::radio::messaging::IRadioMessagingIndication::setDefaultImpl",
   "linker_set_key" : "_ZN4aidl7android8hardware5radio9messaging25IRadioMessagingIndication14setDefaultImplERKNSt3__110shared_ptrIS4_EE",
   "parameters" :
   [
    {
     "referenced_type" : "_ZTIRKNSt3__110shared_ptrIN4aidl7android8hardware5radio9messaging25IRadioMessagingIndicationEEE"
    }
   ],
   "return_type" : "_ZTIb",
   "source_file" : "out/soong/.intermediates/hardware/interfaces/radio/aidl/android.hardware.radio.messaging-V1-ndk-source/gen/include/aidl/android/hardware/radio/messaging/IRadioMessagingIndication.h"
  },
  {
   "function_name" : "aidl::android::hardware::radio::messaging::IRadioMessagingIndication::IRadioMessagingIndication",
   "linker_set_key" : "_ZN4aidl7android8hardware5radio9messaging25IRadioMessagingIndicationC2Ev",
   "parameters" :
   [
    {
     "is_this_ptr" : true,
     "referenced_type" : "_ZTIPN4aidl7android8hardware5radio9messaging25IRadioMessagingIndicationE"
    }
   ],
   "return_type" : "_ZTIv",
   "source_file" : "out/soong/.intermediates/hardware/interfaces/radio/aidl/android.hardware.radio.messaging-V1-ndk-source/gen/include/aidl/android/hardware/radio/messaging/IRadioMessagingIndication.h"
  },
  {
   "function_name" : "aidl::android::hardware::radio::messaging::IRadioMessagingIndication::~IRadioMessagingIndication",
   "linker_set_key" : "_ZN4aidl7android8hardware5radio9messaging25IRadioMessagingIndicationD0Ev",
   "parameters" :
   [
    {
     "is_this_ptr" : true,
     "referenced_type" : "_ZTIPN4aidl7android8hardware5radio9messaging25IRadioMessagingIndicationE"
    }
   ],
   "return_type" : "_ZTIv",
   "source_file" : "out/soong/.intermediates/hardware/interfaces/radio/aidl/android.hardware.radio.messaging-V1-ndk-source/gen/include/aidl/android/hardware/radio/messaging/IRadioMessagingIndication.h"
  },
  {
   "function_name" : "aidl::android::hardware::radio::messaging::IRadioMessagingIndication::~IRadioMessagingIndication",
   "linker_set_key" : "_ZN4aidl7android8hardware5radio9messaging25IRadioMessagingIndicationD1Ev",
   "parameters" :
   [
    {
     "is_this_ptr" : true,
     "referenced_type" : "_ZTIPN4aidl7android8hardware5radio9messaging25IRadioMessagingIndicationE"
    }
   ],
   "return_type" : "_ZTIv",
   "source_file" : "out/soong/.intermediates/hardware/interfaces/radio/aidl/android.hardware.radio.messaging-V1-ndk-source/gen/include/aidl/android/hardware/radio/messaging/IRadioMessagingIndication.h"
  },
  {
   "function_name" : "aidl::android::hardware::radio::messaging::IRadioMessagingIndication::~IRadioMessagingIndication",
   "linker_set_key" : "_ZN4aidl7android8hardware5radio9messaging25IRadioMessagingIndicationD2Ev",
   "parameters" :
   [
    {
     "is_this_ptr" : true,
     "referenced_type" : "_ZTIPN4aidl7android8hardware5radio9messaging25IRadioMessagingIndicationE"
    }
   ],
   "return_type" : "_ZTIv",
   "source_file" : "out/soong/.intermediates/hardware/interfaces/radio/aidl/android.hardware.radio.messaging-V1-ndk-source/gen/include/aidl/android/hardware/radio/messaging/IRadioMessagingIndication.h"
  },
  {
   "access" : "protected",
   "function_name" : "aidl::android::hardware::radio::messaging::BnRadioMessagingIndication::createBinder",
   "linker_set_key" : "_ZN4aidl7android8hardware5radio9messaging26BnRadioMessagingIndication12createBinderEv",
   "parameters" :
   [
    {
     "is_this_ptr" : true,
     "referenced_type" : "_ZTIPN4aidl7android8hardware5radio9messaging26BnRadioMessagingIndicationE"
    }
   ],
   "return_type" : "_ZTIN3ndk10SpAIBinderE",
   "source_file" : "out/soong/.intermediates/hardware/interfaces/radio/aidl/android.hardware.radio.messaging-V1-ndk-source/gen/include/aidl/android/hardware/radio/messaging/BnRadioMessagingIndication.h"
  },
  {
   "function_name" : "aidl::android::hardware::radio::messaging::BnRadioMessagingIndication::getInterfaceHash",
   "linker_set_key" : "_ZN4aidl7android8hardware5radio9messaging26BnRadioMessagingIndication16getInterfaceHashEPNSt3__112basic_stringIcNS5_11char_traitsIcEENS5_9allocatorIcEEEE",
   "parameters" :
   [
    {
     "is_this_ptr" : true,
     "referenced_type" : "_ZTIPN4aidl7android8hardware5radio9messaging26BnRadioMessagingIndicationE"
    },
    {
     "referenced_type" : "_ZTIPNSt3__112basic_stringIcNS_11char_traitsIcEENS_9allocatorIcEEEE"
    }
   ],
   "return_type" : "_ZTIN3ndk13ScopedAStatusE",
   "source_file" : "out/soong/.intermediates/hardware/interfaces/radio/aidl/android.hardware.radio.messaging-V1-ndk-source/gen/include/aidl/android/hardware/radio/messaging/BnRadioMessagingIndication.h"
  },
  {
   "function_name" : "aidl::android::hardware::radio::messaging::BnRadioMessagingIndication::getInterfaceVersion",
   "linker_set_key" : "_ZN4aidl7android8hardware5radio9messaging26BnRadioMessagingIndication19getInterfaceVersionEPi",
   "parameters" :
   [
    {
     "is_this_ptr" : true,
     "referenced_type" : "_ZTIPN4aidl7android8hardware5radio9messaging26BnRadioMessagingIndicationE"
    },
    {
     "referenced_type" : "_ZTIPi"
    }
   ],
   "return_type" : "_ZTIN3ndk13ScopedAStatusE",
   "source_file" : "out/soong/.intermediates/hardware/interfaces/radio/aidl/android.hardware.radio.messaging-V1-ndk-source/gen/include/aidl/android/hardware/radio/messaging/BnRadioMessagingIndication.h"
  },
  {
   "function_name" : "aidl::android::hardware::radio::messaging::BnRadioMessagingIndication::BnRadioMessagingIndication",
   "linker_set_key" : "_ZN4aidl7android8hardware5radio9messaging26BnRadioMessagingIndicationC2Ev",
   "parameters" :
   [
    {
     "is_this_ptr" : true,
     "referenced_type" : "_ZTIPN4aidl7android8hardware5radio9messaging26BnRadioMessagingIndicationE"
    }
   ],
   "return_type" : "_ZTIv",
   "source_file" : "out/soong/.intermediates/hardware/interfaces/radio/aidl/android.hardware.radio.messaging-V1-ndk-source/gen/include/aidl/android/hardware/radio/messaging/BnRadioMessagingIndication.h"
  },
  {
   "function_name" : "aidl::android::hardware::radio::messaging::BnRadioMessagingIndication::~BnRadioMessagingIndication",
   "linker_set_key" : "_ZN4aidl7android8hardware5radio9messaging26BnRadioMessagingIndicationD0Ev",
   "parameters" :
   [
    {
     "is_this_ptr" : true,
     "referenced_type" : "_ZTIPN4aidl7android8hardware5radio9messaging26BnRadioMessagingIndicationE"
    }
   ],
   "return_type" : "_ZTIv",
   "source_file" : "out/soong/.intermediates/hardware/interfaces/radio/aidl/android.hardware.radio.messaging-V1-ndk-source/gen/include/aidl/android/hardware/radio/messaging/BnRadioMessagingIndication.h"
  },
  {
   "function_name" : "aidl::android::hardware::radio::messaging::BnRadioMessagingIndication::~BnRadioMessagingIndication",
   "linker_set_key" : "_ZN4aidl7android8hardware5radio9messaging26BnRadioMessagingIndicationD1Ev",
   "parameters" :
   [
    {
     "is_this_ptr" : true,
     "referenced_type" : "_ZTIPN4aidl7android8hardware5radio9messaging26BnRadioMessagingIndicationE"
    }
   ],
   "return_type" : "_ZTIv",
   "source_file" : "out/soong/.intermediates/hardware/interfaces/radio/aidl/android.hardware.radio.messaging-V1-ndk-source/gen/include/aidl/android/hardware/radio/messaging/BnRadioMessagingIndication.h"
  },
  {
   "function_name" : "aidl::android::hardware::radio::messaging::BnRadioMessagingIndication::~BnRadioMessagingIndication",
   "linker_set_key" : "_ZN4aidl7android8hardware5radio9messaging26BnRadioMessagingIndicationD2Ev",
   "parameters" :
   [
    {
     "is_this_ptr" : true,
     "referenced_type" : "_ZTIPN4aidl7android8hardware5radio9messaging26BnRadioMessagingIndicationE"
    }
   ],
   "return_type" : "_ZTIv",
   "source_file" : "out/soong/.intermediates/hardware/interfaces/radio/aidl/android.hardware.radio.messaging-V1-ndk-source/gen/include/aidl/android/hardware/radio/messaging/BnRadioMessagingIndication.h"
  },
  {
   "function_name" : "aidl::android::hardware::radio::messaging::BpRadioMessagingIndication::cdmaNewSms",
   "linker_set_key" : "_ZN4aidl7android8hardware5radio9messaging26BpRadioMessagingIndication10cdmaNewSmsENS2_19RadioIndicationTypeERKNS3_14CdmaSmsMessageE",
   "parameters" :
   [
    {
     "is_this_ptr" : true,
     "referenced_type" : "_ZTIPN4aidl7android8hardware5radio9messaging26BpRadioMessagingIndicationE"
    },
    {
     "referenced_type" : "_ZTIN4aidl7android8hardware5radio19RadioIndicationTypeE"
    },
    {
     "referenced_type" : "_ZTIRKN4aidl7android8hardware5radio9messaging14CdmaSmsMessageE"
    }
   ],
   "return_type" : "_ZTIN3ndk13ScopedAStatusE",
   "source_file" : "out/soong/.intermediates/hardware/interfaces/radio/aidl/android.hardware.radio.messaging-V1-ndk-source/gen/include/aidl/android/hardware/radio/messaging/BpRadioMessagingIndication.h"
  },
  {
   "function_name" : "aidl::android::hardware::radio::messaging::BpRadioMessagingIndication::newSmsOnSim",
   "linker_set_key" : "_ZN4aidl7android8hardware5radio9messaging26BpRadioMessagingIndication11newSmsOnSimENS2_19RadioIndicationTypeEi",
   "parameters" :
   [
    {
     "is_this_ptr" : true,
     "referenced_type" : "_ZTIPN4aidl7android8hardware5radio9messaging26BpRadioMessagingIndicationE"
    },
    {
     "referenced_type" : "_ZTIN4aidl7android8hardware5radio19RadioIndicationTypeE"
    },
    {
     "referenced_type" : "_ZTIi"
    }
   ],
   "return_type" : "_ZTIN3ndk13ScopedAStatusE",
   "source_file" : "out/soong/.intermediates/hardware/interfaces/radio/aidl/android.hardware.radio.messaging-V1-ndk-source/gen/include/aidl/android/hardware/radio/messaging/BpRadioMessagingIndication.h"
  },
  {
   "function_name" : "aidl::android::hardware::radio::messaging::BpRadioMessagingIndication::newBroadcastSms",
   "linker_set_key" : "_ZN4aidl7android8hardware5radio9messaging26BpRadioMessagingIndication15newBroadcastSmsENS2_19RadioIndicationTypeERKNSt3__16vectorIhNS6_9allocatorIhEEEE",
   "parameters" :
   [
    {
     "is_this_ptr" : true,
     "referenced_type" : "_ZTIPN4aidl7android8hardware5radio9messaging26BpRadioMessagingIndicationE"
    },
    {
     "referenced_type" : "_ZTIN4aidl7android8hardware5radio19RadioIndicationTypeE"
    },
    {
     "referenced_type" : "_ZTIRKNSt3__16vectorIhNS_9allocatorIhEEEE"
    }
   ],
   "return_type" : "_ZTIN3ndk13ScopedAStatusE",
   "source_file" : "out/soong/.intermediates/hardware/interfaces/radio/aidl/android.hardware.radio.messaging-V1-ndk-source/gen/include/aidl/android/hardware/radio/messaging/BpRadioMessagingIndication.h"
  },
  {
   "function_name" : "aidl::android::hardware::radio::messaging::BpRadioMessagingIndication::getInterfaceHash",
   "linker_set_key" : "_ZN4aidl7android8hardware5radio9messaging26BpRadioMessagingIndication16getInterfaceHashEPNSt3__112basic_stringIcNS5_11char_traitsIcEENS5_9allocatorIcEEEE",
   "parameters" :
   [
    {
     "is_this_ptr" : true,
     "referenced_type" : "_ZTIPN4aidl7android8hardware5radio9messaging26BpRadioMessagingIndicationE"
    },
    {
     "referenced_type" : "_ZTIPNSt3__112basic_stringIcNS_11char_traitsIcEENS_9allocatorIcEEEE"
    }
   ],
   "return_type" : "_ZTIN3ndk13ScopedAStatusE",
   "source_file" : "out/soong/.intermediates/hardware/interfaces/radio/aidl/android.hardware.radio.messaging-V1-ndk-source/gen/include/aidl/android/hardware/radio/messaging/BpRadioMessagingIndication.h"
  },
  {
   "function_name" : "aidl::android::hardware::radio::messaging::BpRadioMessagingIndication::simSmsStorageFull",
   "linker_set_key" : "_ZN4aidl7android8hardware5radio9messaging26BpRadioMessagingIndication17simSmsStorageFullENS2_19RadioIndicationTypeE",
   "parameters" :
   [
    {
     "is_this_ptr" : true,
     "referenced_type" : "_ZTIPN4aidl7android8hardware5radio9messaging26BpRadioMessagingIndicationE"
    },
    {
     "referenced_type" : "_ZTIN4aidl7android8hardware5radio19RadioIndicationTypeE"
    }
   ],
   "return_type" : "_ZTIN3ndk13ScopedAStatusE",
   "source_file" : "out/soong/.intermediates/hardware/interfaces/radio/aidl/android.hardware.radio.messaging-V1-ndk-source/gen/include/aidl/android/hardware/radio/messaging/BpRadioMessagingIndication.h"
  },
  {
   "function_name" : "aidl::android::hardware::radio::messaging::BpRadioMessagingIndication::newSmsStatusReport",
   "linker_set_key" : "_ZN4aidl7android8hardware5radio9messaging26BpRadioMessagingIndication18newSmsStatusReportENS2_19RadioIndicationTypeERKNSt3__16vectorIhNS6_9allocatorIhEEEE",
   "parameters" :
   [
    {
     "is_this_ptr" : true,
     "referenced_type" : "_ZTIPN4aidl7android8hardware5radio9messaging26BpRadioMessagingIndicationE"
    },
    {
     "referenced_type" : "_ZTIN4aidl7android8hardware5radio19RadioIndicationTypeE"
    },
    {
     "referenced_type" : "_ZTIRKNSt3__16vectorIhNS_9allocatorIhEEEE"
    }
   ],
   "return_type" : "_ZTIN3ndk13ScopedAStatusE",
   "source_file" : "out/soong/.intermediates/hardware/interfaces/radio/aidl/android.hardware.radio.messaging-V1-ndk-source/gen/include/aidl/android/hardware/radio/messaging/BpRadioMessagingIndication.h"
  },
  {
   "function_name" : "aidl::android::hardware::radio::messaging::BpRadioMessagingIndication::getInterfaceVersion",
   "linker_set_key" : "_ZN4aidl7android8hardware5radio9messaging26BpRadioMessagingIndication19getInterfaceVersionEPi",
   "parameters" :
   [
    {
     "is_this_ptr" : true,
     "referenced_type" : "_ZTIPN4aidl7android8hardware5radio9messaging26BpRadioMessagingIndicationE"
    },
    {
     "referenced_type" : "_ZTIPi"
    }
   ],
   "return_type" : "_ZTIN3ndk13ScopedAStatusE",
   "source_file" : "out/soong/.intermediates/hardware/interfaces/radio/aidl/android.hardware.radio.messaging-V1-ndk-source/gen/include/aidl/android/hardware/radio/messaging/BpRadioMessagingIndication.h"
  },
  {
   "function_name" : "aidl::android::hardware::radio::messaging::BpRadioMessagingIndication::cdmaRuimSmsStorageFull",
   "linker_set_key" : "_ZN4aidl7android8hardware5radio9messaging26BpRadioMessagingIndication22cdmaRuimSmsStorageFullENS2_19RadioIndicationTypeE",
   "parameters" :
   [
    {
     "is_this_ptr" : true,
     "referenced_type" : "_ZTIPN4aidl7android8hardware5radio9messaging26BpRadioMessagingIndicationE"
    },
    {
     "referenced_type" : "_ZTIN4aidl7android8hardware5radio19RadioIndicationTypeE"
    }
   ],
   "return_type" : "_ZTIN3ndk13ScopedAStatusE",
   "source_file" : "out/soong/.intermediates/hardware/interfaces/radio/aidl/android.hardware.radio.messaging-V1-ndk-source/gen/include/aidl/android/hardware/radio/messaging/BpRadioMessagingIndication.h"
  },
  {
   "function_name" : "aidl::android::hardware::radio::messaging::BpRadioMessagingIndication::newSms",
   "linker_set_key" : "_ZN4aidl7android8hardware5radio9messaging26BpRadioMessagingIndication6newSmsENS2_19RadioIndicationTypeERKNSt3__16vectorIhNS6_9allocatorIhEEEE",
   "parameters" :
   [
    {
     "is_this_ptr" : true,
     "referenced_type" : "_ZTIPN4aidl7android8hardware5radio9messaging26BpRadioMessagingIndicationE"
    },
    {
     "referenced_type" : "_ZTIN4aidl7android8hardware5radio19RadioIndicationTypeE"
    },
    {
     "referenced_type" : "_ZTIRKNSt3__16vectorIhNS_9allocatorIhEEEE"
    }
   ],
   "return_type" : "_ZTIN3ndk13ScopedAStatusE",
   "source_file" : "out/soong/.intermediates/hardware/interfaces/radio/aidl/android.hardware.radio.messaging-V1-ndk-source/gen/include/aidl/android/hardware/radio/messaging/BpRadioMessagingIndication.h"
  },
  {
   "function_name" : "aidl::android::hardware::radio::messaging::BpRadioMessagingIndication::BpRadioMessagingIndication",
   "linker_set_key" : "_ZN4aidl7android8hardware5radio9messaging26BpRadioMessagingIndicationC1ERKN3ndk10SpAIBinderE",
   "parameters" :
   [
    {
     "is_this_ptr" : true,
     "referenced_type" : "_ZTIPN4aidl7android8hardware5radio9messaging26BpRadioMessagingIndicationE"
    },
    {
     "referenced_type" : "_ZTIRKN3ndk10SpAIBinderE"
    }
   ],
   "return_type" : "_ZTIv",
   "source_file" : "out/soong/.intermediates/hardware/interfaces/radio/aidl/android.hardware.radio.messaging-V1-ndk-source/gen/include/aidl/android/hardware/radio/messaging/BpRadioMessagingIndication.h"
  },
  {
   "function_name" : "aidl::android::hardware::radio::messaging::BpRadioMessagingIndication::BpRadioMessagingIndication",
   "linker_set_key" : "_ZN4aidl7android8hardware5radio9messaging26BpRadioMessagingIndicationC2ERKN3ndk10SpAIBinderE",
   "parameters" :
   [
    {
     "is_this_ptr" : true,
     "referenced_type" : "_ZTIPN4aidl7android8hardware5radio9messaging26BpRadioMessagingIndicationE"
    },
    {
     "referenced_type" : "_ZTIRKN3ndk10SpAIBinderE"
    }
   ],
   "return_type" : "_ZTIv",
   "source_file" : "out/soong/.intermediates/hardware/interfaces/radio/aidl/android.hardware.radio.messaging-V1-ndk-source/gen/include/aidl/android/hardware/radio/messaging/BpRadioMessagingIndication.h"
  },
  {
   "function_name" : "aidl::android::hardware::radio::messaging::BpRadioMessagingIndication::~BpRadioMessagingIndication",
   "linker_set_key" : "_ZN4aidl7android8hardware5radio9messaging26BpRadioMessagingIndicationD0Ev",
   "parameters" :
   [
    {
     "is_this_ptr" : true,
     "referenced_type" : "_ZTIPN4aidl7android8hardware5radio9messaging26BpRadioMessagingIndicationE"
    }
   ],
   "return_type" : "_ZTIv",
   "source_file" : "out/soong/.intermediates/hardware/interfaces/radio/aidl/android.hardware.radio.messaging-V1-ndk-source/gen/include/aidl/android/hardware/radio/messaging/BpRadioMessagingIndication.h"
  },
  {
   "function_name" : "aidl::android::hardware::radio::messaging::BpRadioMessagingIndication::~BpRadioMessagingIndication",
   "linker_set_key" : "_ZN4aidl7android8hardware5radio9messaging26BpRadioMessagingIndicationD1Ev",
   "parameters" :
   [
    {
     "is_this_ptr" : true,
     "referenced_type" : "_ZTIPN4aidl7android8hardware5radio9messaging26BpRadioMessagingIndicationE"
    }
   ],
   "return_type" : "_ZTIv",
   "source_file" : "out/soong/.intermediates/hardware/interfaces/radio/aidl/android.hardware.radio.messaging-V1-ndk-source/gen/include/aidl/android/hardware/radio/messaging/BpRadioMessagingIndication.h"
  },
  {
   "function_name" : "aidl::android::hardware::radio::messaging::BpRadioMessagingIndication::~BpRadioMessagingIndication",
   "linker_set_key" : "_ZN4aidl7android8hardware5radio9messaging26BpRadioMessagingIndicationD2Ev",
   "parameters" :
   [
    {
     "is_this_ptr" : true,
     "referenced_type" : "_ZTIPN4aidl7android8hardware5radio9messaging26BpRadioMessagingIndicationE"
    }
   ],
   "return_type" : "_ZTIv",
   "source_file" : "out/soong/.intermediates/hardware/interfaces/radio/aidl/android.hardware.radio.messaging-V1-ndk-source/gen/include/aidl/android/hardware/radio/messaging/BpRadioMessagingIndication.h"
  },
  {
   "function_name" : "aidl::android::hardware::radio::messaging::CdmaBroadcastSmsConfigInfo::readFromParcel",
   "linker_set_key" : "_ZN4aidl7android8hardware5radio9messaging26CdmaBroadcastSmsConfigInfo14readFromParcelEPK7AParcel",
   "parameters" :
   [
    {
     "is_this_ptr" : true,
     "referenced_type" : "_ZTIPN4aidl7android8hardware5radio9messaging26CdmaBroadcastSmsConfigInfoE"
    },
    {
     "referenced_type" : "_ZTIPK7AParcel"
    }
   ],
   "return_type" : "_ZTIi",
   "source_file" : "out/soong/.intermediates/hardware/interfaces/radio/aidl/android.hardware.radio.messaging-V1-ndk-source/gen/include/aidl/android/hardware/radio/messaging/CdmaBroadcastSmsConfigInfo.h"
  },
  {
   "function_name" : "aidl::android::hardware::radio::messaging::IRadioMessagingResponseDefault::sendSmsResponse",
   "linker_set_key" : "_ZN4aidl7android8hardware5radio9messaging30IRadioMessagingResponseDefault15sendSmsResponseERKNS2_17RadioResponseInfoERKNS3_13SendSmsResultE",
   "parameters" :
   [
    {
     "is_this_ptr" : true,
     "referenced_type" : "_ZTIPN4aidl7android8hardware5radio9messaging30IRadioMessagingResponseDefaultE"
    },
    {
     "referenced_type" : "_ZTIRKN4aidl7android8hardware5radio17RadioResponseInfoE"
    },
    {
     "referenced_type" : "_ZTIRKN4aidl7android8hardware5radio9messaging13SendSmsResultE"
    }
   ],
   "return_type" : "_ZTIN3ndk13ScopedAStatusE",
   "source_file" : "out/soong/.intermediates/hardware/interfaces/radio/aidl/android.hardware.radio.messaging-V1-ndk-source/gen/include/aidl/android/hardware/radio/messaging/IRadioMessagingResponse.h"
  },
  {
   "function_name" : "aidl::android::hardware::radio::messaging::IRadioMessagingResponseDefault::getInterfaceHash",
   "linker_set_key" : "_ZN4aidl7android8hardware5radio9messaging30IRadioMessagingResponseDefault16getInterfaceHashEPNSt3__112basic_stringIcNS5_11char_traitsIcEENS5_9allocatorIcEEEE",
   "parameters" :
   [
    {
     "is_this_ptr" : true,
     "referenced_type" : "_ZTIPN4aidl7android8hardware5radio9messaging30IRadioMessagingResponseDefaultE"
    },
    {
     "referenced_type" : "_ZTIPNSt3__112basic_stringIcNS_11char_traitsIcEENS_9allocatorIcEEEE"
    }
   ],
   "return_type" : "_ZTIN3ndk13ScopedAStatusE",
   "source_file" : "out/soong/.intermediates/hardware/interfaces/radio/aidl/android.hardware.radio.messaging-V1-ndk-source/gen/include/aidl/android/hardware/radio/messaging/IRadioMessagingResponse.h"
  },
  {
   "function_name" : "aidl::android::hardware::radio::messaging::IRadioMessagingResponseDefault::acknowledgeRequest",
   "linker_set_key" : "_ZN4aidl7android8hardware5radio9messaging30IRadioMessagingResponseDefault18acknowledgeRequestEi",
   "parameters" :
   [
    {
     "is_this_ptr" : true,
     "referenced_type" : "_ZTIPN4aidl7android8hardware5radio9messaging30IRadioMessagingResponseDefaultE"
    },
    {
     "referenced_type" : "_ZTIi"
    }
   ],
   "return_type" : "_ZTIN3ndk13ScopedAStatusE",
   "source_file" : "out/soong/.intermediates/hardware/interfaces/radio/aidl/android.hardware.radio.messaging-V1-ndk-source/gen/include/aidl/android/hardware/radio/messaging/IRadioMessagingResponse.h"
  },
  {
   "function_name" : "aidl::android::hardware::radio::messaging::IRadioMessagingResponseDefault::sendImsSmsResponse",
   "linker_set_key" : "_ZN4aidl7android8hardware5radio9messaging30IRadioMessagingResponseDefault18sendImsSmsResponseERKNS2_17RadioResponseInfoERKNS3_13SendSmsResultE",
   "parameters" :
   [
    {
     "is_this_ptr" : true,
     "referenced_type" : "_ZTIPN4aidl7android8hardware5radio9messaging30IRadioMessagingResponseDefaultE"
    },
    {
     "referenced_type" : "_ZTIRKN4aidl7android8hardware5radio17RadioResponseInfoE"
    },
    {
     "referenced_type" : "_ZTIRKN4aidl7android8hardware5radio9messaging13SendSmsResultE"
    }
   ],
   "return_type" : "_ZTIN3ndk13ScopedAStatusE",
   "source_file" : "out/soong/.intermediates/hardware/interfaces/radio/aidl/android.hardware.radio.messaging-V1-ndk-source/gen/include/aidl/android/hardware/radio/messaging/IRadioMessagingResponse.h"
  },
  {
   "function_name" : "aidl::android::hardware::radio::messaging::IRadioMessagingResponseDefault::getInterfaceVersion",
   "linker_set_key" : "_ZN4aidl7android8hardware5radio9messaging30IRadioMessagingResponseDefault19getInterfaceVersionEPi",
   "parameters" :
   [
    {
     "is_this_ptr" : true,
     "referenced_type" : "_ZTIPN4aidl7android8hardware5radio9messaging30IRadioMessagingResponseDefaultE"
    },
    {
     "referenced_type" : "_ZTIPi"
    }
   ],
   "return_type" : "_ZTIN3ndk13ScopedAStatusE",
   "source_file" : "out/soong/.intermediates/hardware/interfaces/radio/aidl/android.hardware.radio.messaging-V1-ndk-source/gen/include/aidl/android/hardware/radio/messaging/IRadioMessagingResponse.h"
  },
  {
   "function_name" : "aidl::android::hardware::radio::messaging::IRadioMessagingResponseDefault::sendCdmaSmsResponse",
   "linker_set_key" : "_ZN4aidl7android8hardware5radio9messaging30IRadioMessagingResponseDefault19sendCdmaSmsResponseERKNS2_17RadioResponseInfoERKNS3_13SendSmsResultE",
   "parameters" :
   [
    {
     "is_this_ptr" : true,
     "referenced_type" : "_ZTIPN4aidl7android8hardware5radio9messaging30IRadioMessagingResponseDefaultE"
    },
    {
     "referenced_type" : "_ZTIRKN4aidl7android8hardware5radio17RadioResponseInfoE"
    },
    {
     "referenced_type" : "_ZTIRKN4aidl7android8hardware5radio9messaging13SendSmsResultE"
    }
   ],
   "return_type" : "_ZTIN3ndk13ScopedAStatusE",
   "source_file" : "out/soong/.intermediates/hardware/interfaces/radio/aidl/android.hardware.radio.messaging-V1-ndk-source/gen/include/aidl/android/hardware/radio/messaging/IRadioMessagingResponse.h"
  },
  {
   "function_name" : "aidl::android::hardware::radio::messaging::IRadioMessagingResponseDefault::writeSmsToSimResponse",
   "linker_set_key" : "_ZN4aidl7android8hardware5radio9messaging30IRadioMessagingResponseDefault21writeSmsToSimResponseERKNS2_17RadioResponseInfoEi",
   "parameters" :
   [
    {
     "is_this_ptr" : true,
     "referenced_type" : "_ZTIPN4aidl7android8hardware5radio9messaging30IRadioMessagingResponseDefaultE"
    },
    {
     "referenced_type" : "_ZTIRKN4aidl7android8hardware5radio17RadioResponseInfoE"
    },
    {
     "referenced_type" : "_ZTIi"
    }
   ],
   "return_type" : "_ZTIN3ndk13ScopedAStatusE",
   "source_file" : "out/soong/.intermediates/hardware/interfaces/radio/aidl/android.hardware.radio.messaging-V1-ndk-source/gen/include/aidl/android/hardware/radio/messaging/IRadioMessagingResponse.h"
  },
  {
   "function_name" : "aidl::android::hardware::radio::messaging::IRadioMessagingResponseDefault::deleteSmsOnSimResponse",
   "linker_set_key" : "_ZN4aidl7android8hardware5radio9messaging30IRadioMessagingResponseDefault22deleteSmsOnSimResponseERKNS2_17RadioResponseInfoE",
   "parameters" :
   [
    {
     "is_this_ptr" : true,
     "referenced_type" : "_ZTIPN4aidl7android8hardware5radio9messaging30IRadioMessagingResponseDefaultE"
    },
    {
     "referenced_type" : "_ZTIRKN4aidl7android8hardware5radio17RadioResponseInfoE"
    }
   ],
   "return_type" : "_ZTIN3ndk13ScopedAStatusE",
   "source_file" : "out/soong/.intermediates/hardware/interfaces/radio/aidl/android.hardware.radio.messaging-V1-ndk-source/gen/include/aidl/android/hardware/radio/messaging/IRadioMessagingResponse.h"
  },
  {
   "function_name" : "aidl::android::hardware::radio::messaging::IRadioMessagingResponseDefault::getSmscAddressResponse",
   "linker_set_key" : "_ZN4aidl7android8hardware5radio9messaging30IRadioMessagingResponseDefault22getSmscAddressResponseERKNS2_17RadioResponseInfoERKNSt3__112basic_stringIcNS8_11char_traitsIcEENS8_9allocatorIcEEEE",
   "parameters" :
   [
    {
     "is_this_ptr" : true,
     "referenced_type" : "_ZTIPN4aidl7android8hardware5radio9messaging30IRadioMessagingResponseDefaultE"
    },
    {
     "referenced_type" : "_ZTIRKN4aidl7android8hardware5radio17RadioResponseInfoE"
    },
    {
     "referenced_type" : "_ZTIRKNSt3__112basic_stringIcNS_11char_traitsIcEENS_9allocatorIcEEEE"
    }
   ],
   "return_type" : "_ZTIN3ndk13ScopedAStatusE",
   "source_file" : "out/soong/.intermediates/hardware/interfaces/radio/aidl/android.hardware.radio.messaging-V1-ndk-source/gen/include/aidl/android/hardware/radio/messaging/IRadioMessagingResponse.h"
  },
  {
   "function_name" : "aidl::android::hardware::radio::messaging::IRadioMessagingResponseDefault::setSmscAddressResponse",
   "linker_set_key" : "_ZN4aidl7android8hardware5radio9messaging30IRadioMessagingResponseDefault22setSmscAddressResponseERKNS2_17RadioResponseInfoE",
   "parameters" :
   [
    {
     "is_this_ptr" : true,
     "referenced_type" : "_ZTIPN4aidl7android8hardware5radio9messaging30IRadioMessagingResponseDefaultE"
    },
    {
     "referenced_type" : "_ZTIRKN4aidl7android8hardware5radio17RadioResponseInfoE"
    }
   ],
   "return_type" : "_ZTIN3ndk13ScopedAStatusE",
   "source_file" : "out/soong/.intermediates/hardware/interfaces/radio/aidl/android.hardware.radio.messaging-V1-ndk-source/gen/include/aidl/android/hardware/radio/messaging/IRadioMessagingResponse.h"
  },
  {
   "function_name" : "aidl::android::hardware::radio::messaging::IRadioMessagingResponseDefault::writeSmsToRuimResponse",
   "linker_set_key" : "_ZN4aidl7android8hardware5radio9messaging30IRadioMessagingResponseDefault22writeSmsToRuimResponseERKNS2_17RadioResponseInfoEi",
   "parameters" :
   [
    {
     "is_this_ptr" : true,
     "referenced_type" : "_ZTIPN4aidl7android8hardware5radio9messaging30IRadioMessagingResponseDefaultE"
    },
    {
     "referenced_type" : "_ZTIRKN4aidl7android8hardware5radio17RadioResponseInfoE"
    },
    {
     "referenced_type" : "_ZTIi"
    }
   ],
   "return_type" : "_ZTIN3ndk13ScopedAStatusE",
   "source_file" : "out/soong/.intermediates/hardware/interfaces/radio/aidl/android.hardware.radio.messaging-V1-ndk-source/gen/include/aidl/android/hardware/radio/messaging/IRadioMessagingResponse.h"
  },
  {
   "function_name" : "aidl::android::hardware::radio::messaging::IRadioMessagingResponseDefault::deleteSmsOnRuimResponse",
   "linker_set_key" : "_ZN4aidl7android8hardware5radio9messaging30IRadioMessagingResponseDefault23deleteSmsOnRuimResponseERKNS2_17RadioResponseInfoE",
   "parameters" :
   [
    {
     "is_this_ptr" : true,
     "referenced_type" : "_ZTIPN4aidl7android8hardware5radio9messaging30IRadioMessagingResponseDefaultE"
    },
    {
     "referenced_type" : "_ZTIRKN4aidl7android8hardware5radio17RadioResponseInfoE"
    }
   ],
   "return_type" : "_ZTIN3ndk13ScopedAStatusE",
   "source_file" : "out/soong/.intermediates/hardware/interfaces/radio/aidl/android.hardware.radio.messaging-V1-ndk-source/gen/include/aidl/android/hardware/radio/messaging/IRadioMessagingResponse.h"
  },
  {
   "function_name" : "aidl::android::hardware::radio::messaging::IRadioMessagingResponseDefault::sendSmsExpectMoreResponse",
   "linker_set_key" : "_ZN4aidl7android8hardware5radio9messaging30IRadioMessagingResponseDefault25sendSmsExpectMoreResponseERKNS2_17RadioResponseInfoERKNS3_13SendSmsResultE",
   "parameters" :
   [
    {
     "is_this_ptr" : true,
     "referenced_type" : "_ZTIPN4aidl7android8hardware5radio9messaging30IRadioMessagingResponseDefaultE"
    },
    {
     "referenced_type" : "_ZTIRKN4aidl7android8hardware5radio17RadioResponseInfoE"
    },
    {
     "referenced_type" : "_ZTIRKN4aidl7android8hardware5radio9messaging13SendSmsResultE"
    }
   ],
   "return_type" : "_ZTIN3ndk13ScopedAStatusE",
   "source_file" : "out/soong/.intermediates/hardware/interfaces/radio/aidl/android.hardware.radio.messaging-V1-ndk-source/gen/include/aidl/android/hardware/radio/messaging/IRadioMessagingResponse.h"
  },
  {
   "function_name" : "aidl::android::hardware::radio::messaging::IRadioMessagingResponseDefault::getGsmBroadcastConfigResponse",
   "linker_set_key" : "_ZN4aidl7android8hardware5radio9messaging30IRadioMessagingResponseDefault29getGsmBroadcastConfigResponseERKNS2_17RadioResponseInfoERKNSt3__16vectorINS3_25GsmBroadcastSmsConfigInfoENS8_9allocatorISA_EEEE",
   "parameters" :
   [
    {
     "is_this_ptr" : true,
     "referenced_type" : "_ZTIPN4aidl7android8hardware5radio9messaging30IRadioMessagingResponseDefaultE"
    },
    {
     "referenced_type" : "_ZTIRKN4aidl7android8hardware5radio17RadioResponseInfoE"
    },
    {
     "referenced_type" : "_ZTIRKNSt3__16vectorIN4aidl7android8hardware5radio9messaging25GsmBroadcastSmsConfigInfoENS_9allocatorIS6_EEEE"
    }
   ],
   "return_type" : "_ZTIN3ndk13ScopedAStatusE",
   "source_file" : "out/soong/.intermediates/hardware/interfaces/radio/aidl/android.hardware.radio.messaging-V1-ndk-source/gen/include/aidl/android/hardware/radio/messaging/IRadioMessagingResponse.h"
  },
  {
   "function_name" : "aidl::android::hardware::radio::messaging::IRadioMessagingResponseDefault::reportSmsMemoryStatusResponse",
   "linker_set_key" : "_ZN4aidl7android8hardware5radio9messaging30IRadioMessagingResponseDefault29reportSmsMemoryStatusResponseERKNS2_17RadioResponseInfoE",
   "parameters" :
   [
    {
     "is_this_ptr" : true,
     "referenced_type" : "_ZTIPN4aidl7android8hardware5radio9messaging30IRadioMessagingResponseDefaultE"
    },
    {
     "referenced_type" : "_ZTIRKN4aidl7android8hardware5radio17RadioResponseInfoE"
    }
   ],
   "return_type" : "_ZTIN3ndk13ScopedAStatusE",
   "source_file" : "out/soong/.intermediates/hardware/interfaces/radio/aidl/android.hardware.radio.messaging-V1-ndk-source/gen/include/aidl/android/hardware/radio/messaging/IRadioMessagingResponse.h"
  },
  {
   "function_name" : "aidl::android::hardware::radio::messaging::IRadioMessagingResponseDefault::sendCdmaSmsExpectMoreResponse",
   "linker_set_key" : "_ZN4aidl7android8hardware5radio9messaging30IRadioMessagingResponseDefault29sendCdmaSmsExpectMoreResponseERKNS2_17RadioResponseInfoERKNS3_13SendSmsResultE",
   "parameters" :
   [
    {
     "is_this_ptr" : true,
     "referenced_type" : "_ZTIPN4aidl7android8hardware5radio9messaging30IRadioMessagingResponseDefaultE"
    },
    {
     "referenced_type" : "_ZTIRKN4aidl7android8hardware5radio17RadioResponseInfoE"
    },
    {
     "referenced_type" : "_ZTIRKN4aidl7android8hardware5radio9messaging13SendSmsResultE"
    }
   ],
   "return_type" : "_ZTIN3ndk13ScopedAStatusE",
   "source_file" : "out/soong/.intermediates/hardware/interfaces/radio/aidl/android.hardware.radio.messaging-V1-ndk-source/gen/include/aidl/android/hardware/radio/messaging/IRadioMessagingResponse.h"
  },
  {
   "function_name" : "aidl::android::hardware::radio::messaging::IRadioMessagingResponseDefault::setGsmBroadcastConfigResponse",
   "linker_set_key" : "_ZN4aidl7android8hardware5radio9messaging30IRadioMessagingResponseDefault29setGsmBroadcastConfigResponseERKNS2_17RadioResponseInfoE",
   "parameters" :
   [
    {
     "is_this_ptr" : true,
     "referenced_type" : "_ZTIPN4aidl7android8hardware5radio9messaging30IRadioMessagingResponseDefaultE"
    },
    {
     "referenced_type" : "_ZTIRKN4aidl7android8hardware5radio17RadioResponseInfoE"
    }
   ],
   "return_type" : "_ZTIN3ndk13ScopedAStatusE",
   "source_file" : "out/soong/.intermediates/hardware/interfaces/radio/aidl/android.hardware.radio.messaging-V1-ndk-source/gen/include/aidl/android/hardware/radio/messaging/IRadioMessagingResponse.h"
  },
  {
   "function_name" : "aidl::android::hardware::radio::messaging::IRadioMessagingResponseDefault::getCdmaBroadcastConfigResponse",
   "linker_set_key" : "_ZN4aidl7android8hardware5radio9messaging30IRadioMessagingResponseDefault30getCdmaBroadcastConfigResponseERKNS2_17RadioResponseInfoERKNSt3__16vectorINS3_26CdmaBroadcastSmsConfigInfoENS8_9allocatorISA_EEEE",
   "parameters" :
   [
    {
     "is_this_ptr" : true,
     "referenced_type" : "_ZTIPN4aidl7android8hardware5radio9messaging30IRadioMessagingResponseDefaultE"
    },
    {
     "referenced_type" : "_ZTIRKN4aidl7android8hardware5radio17RadioResponseInfoE"
    },
    {
     "referenced_type" : "_ZTIRKNSt3__16vectorIN4aidl7android8hardware5radio9messaging26CdmaBroadcastSmsConfigInfoENS_9allocatorIS6_EEEE"
    }
   ],
   "return_type" : "_ZTIN3ndk13ScopedAStatusE",
   "source_file" : "out/soong/.intermediates/hardware/interfaces/radio/aidl/android.hardware.radio.messaging-V1-ndk-source/gen/include/aidl/android/hardware/radio/messaging/IRadioMessagingResponse.h"
  },
  {
   "function_name" : "aidl::android::hardware::radio::messaging::IRadioMessagingResponseDefault::setCdmaBroadcastConfigResponse",
   "linker_set_key" : "_ZN4aidl7android8hardware5radio9messaging30IRadioMessagingResponseDefault30setCdmaBroadcastConfigResponseERKNS2_17RadioResponseInfoE",
   "parameters" :
   [
    {
     "is_this_ptr" : true,
     "referenced_type" : "_ZTIPN4aidl7android8hardware5radio9messaging30IRadioMessagingResponseDefaultE"
    },
    {
     "referenced_type" : "_ZTIRKN4aidl7android8hardware5radio17RadioResponseInfoE"
    }
   ],
   "return_type" : "_ZTIN3ndk13ScopedAStatusE",
   "source_file" : "out/soong/.intermediates/hardware/interfaces/radio/aidl/android.hardware.radio.messaging-V1-ndk-source/gen/include/aidl/android/hardware/radio/messaging/IRadioMessagingResponse.h"
  },
  {
   "function_name" : "aidl::android::hardware::radio::messaging::IRadioMessagingResponseDefault::setGsmBroadcastActivationResponse",
   "linker_set_key" : "_ZN4aidl7android8hardware5radio9messaging30IRadioMessagingResponseDefault33setGsmBroadcastActivationResponseERKNS2_17RadioResponseInfoE",
   "parameters" :
   [
    {
     "is_this_ptr" : true,
     "referenced_type" : "_ZTIPN4aidl7android8hardware5radio9messaging30IRadioMessagingResponseDefaultE"
    },
    {
     "referenced_type" : "_ZTIRKN4aidl7android8hardware5radio17RadioResponseInfoE"
    }
   ],
   "return_type" : "_ZTIN3ndk13ScopedAStatusE",
   "source_file" : "out/soong/.intermediates/hardware/interfaces/radio/aidl/android.hardware.radio.messaging-V1-ndk-source/gen/include/aidl/android/hardware/radio/messaging/IRadioMessagingResponse.h"
  },
  {
   "function_name" : "aidl::android::hardware::radio::messaging::IRadioMessagingResponseDefault::setCdmaBroadcastActivationResponse",
   "linker_set_key" : "_ZN4aidl7android8hardware5radio9messaging30IRadioMessagingResponseDefault34setCdmaBroadcastActivationResponseERKNS2_17RadioResponseInfoE",
   "parameters" :
   [
    {
     "is_this_ptr" : true,
     "referenced_type" : "_ZTIPN4aidl7android8hardware5radio9messaging30IRadioMessagingResponseDefaultE"
    },
    {
     "referenced_type" : "_ZTIRKN4aidl7android8hardware5radio17RadioResponseInfoE"
    }
   ],
   "return_type" : "_ZTIN3ndk13ScopedAStatusE",
   "source_file" : "out/soong/.intermediates/hardware/interfaces/radio/aidl/android.hardware.radio.messaging-V1-ndk-source/gen/include/aidl/android/hardware/radio/messaging/IRadioMessagingResponse.h"
  },
  {
   "function_name" : "aidl::android::hardware::radio::messaging::IRadioMessagingResponseDefault::acknowledgeLastIncomingGsmSmsResponse",
   "linker_set_key" : "_ZN4aidl7android8hardware5radio9messaging30IRadioMessagingResponseDefault37acknowledgeLastIncomingGsmSmsResponseERKNS2_17RadioResponseInfoE",
   "parameters" :
   [
    {
     "is_this_ptr" : true,
     "referenced_type" : "_ZTIPN4aidl7android8hardware5radio9messaging30IRadioMessagingResponseDefaultE"
    },
    {
     "referenced_type" : "_ZTIRKN4aidl7android8hardware5radio17RadioResponseInfoE"
    }
   ],
   "return_type" : "_ZTIN3ndk13ScopedAStatusE",
   "source_file" : "out/soong/.intermediates/hardware/interfaces/radio/aidl/android.hardware.radio.messaging-V1-ndk-source/gen/include/aidl/android/hardware/radio/messaging/IRadioMessagingResponse.h"
  },
  {
   "function_name" : "aidl::android::hardware::radio::messaging::IRadioMessagingResponseDefault::acknowledgeLastIncomingCdmaSmsResponse",
   "linker_set_key" : "_ZN4aidl7android8hardware5radio9messaging30IRadioMessagingResponseDefault38acknowledgeLastIncomingCdmaSmsResponseERKNS2_17RadioResponseInfoE",
   "parameters" :
   [
    {
     "is_this_ptr" : true,
     "referenced_type" : "_ZTIPN4aidl7android8hardware5radio9messaging30IRadioMessagingResponseDefaultE"
    },
    {
     "referenced_type" : "_ZTIRKN4aidl7android8hardware5radio17RadioResponseInfoE"
    }
   ],
   "return_type" : "_ZTIN3ndk13ScopedAStatusE",
   "source_file" : "out/soong/.intermediates/hardware/interfaces/radio/aidl/android.hardware.radio.messaging-V1-ndk-source/gen/include/aidl/android/hardware/radio/messaging/IRadioMessagingResponse.h"
  },
  {
   "function_name" : "aidl::android::hardware::radio::messaging::IRadioMessagingResponseDefault::acknowledgeIncomingGsmSmsWithPduResponse",
   "linker_set_key" : "_ZN4aidl7android8hardware5radio9messaging30IRadioMessagingResponseDefault40acknowledgeIncomingGsmSmsWithPduResponseERKNS2_17RadioResponseInfoE",
   "parameters" :
   [
    {
     "is_this_ptr" : true,
     "referenced_type" : "_ZTIPN4aidl7android8hardware5radio9messaging30IRadioMessagingResponseDefaultE"
    },
    {
     "referenced_type" : "_ZTIRKN4aidl7android8hardware5radio17RadioResponseInfoE"
    }
   ],
   "return_type" : "_ZTIN3ndk13ScopedAStatusE",
   "source_file" : "out/soong/.intermediates/hardware/interfaces/radio/aidl/android.hardware.radio.messaging-V1-ndk-source/gen/include/aidl/android/hardware/radio/messaging/IRadioMessagingResponse.h"
  },
  {
   "function_name" : "aidl::android::hardware::radio::messaging::IRadioMessagingResponseDefault::asBinder",
   "linker_set_key" : "_ZN4aidl7android8hardware5radio9messaging30IRadioMessagingResponseDefault8asBinderEv",
   "parameters" :
   [
    {
     "is_this_ptr" : true,
     "referenced_type" : "_ZTIPN4aidl7android8hardware5radio9messaging30IRadioMessagingResponseDefaultE"
    }
   ],
   "return_type" : "_ZTIN3ndk10SpAIBinderE",
   "source_file" : "out/soong/.intermediates/hardware/interfaces/radio/aidl/android.hardware.radio.messaging-V1-ndk-source/gen/include/aidl/android/hardware/radio/messaging/IRadioMessagingResponse.h"
  },
  {
   "function_name" : "aidl::android::hardware::radio::messaging::IRadioMessagingResponseDefault::isRemote",
   "linker_set_key" : "_ZN4aidl7android8hardware5radio9messaging30IRadioMessagingResponseDefault8isRemoteEv",
   "parameters" :
   [
    {
     "is_this_ptr" : true,
     "referenced_type" : "_ZTIPN4aidl7android8hardware5radio9messaging30IRadioMessagingResponseDefaultE"
    }
   ],
   "return_type" : "_ZTIb",
   "source_file" : "out/soong/.intermediates/hardware/interfaces/radio/aidl/android.hardware.radio.messaging-V1-ndk-source/gen/include/aidl/android/hardware/radio/messaging/IRadioMessagingResponse.h"
  },
  {
   "function_name" : "aidl::android::hardware::radio::messaging::IRadioMessagingIndicationDefault::cdmaNewSms",
   "linker_set_key" : "_ZN4aidl7android8hardware5radio9messaging32IRadioMessagingIndicationDefault10cdmaNewSmsENS2_19RadioIndicationTypeERKNS3_14CdmaSmsMessageE",
   "parameters" :
   [
    {
     "is_this_ptr" : true,
     "referenced_type" : "_ZTIPN4aidl7android8hardware5radio9messaging32IRadioMessagingIndicationDefaultE"
    },
    {
     "referenced_type" : "_ZTIN4aidl7android8hardware5radio19RadioIndicationTypeE"
    },
    {
     "referenced_type" : "_ZTIRKN4aidl7android8hardware5radio9messaging14CdmaSmsMessageE"
    }
   ],
   "return_type" : "_ZTIN3ndk13ScopedAStatusE",
   "source_file" : "out/soong/.intermediates/hardware/interfaces/radio/aidl/android.hardware.radio.messaging-V1-ndk-source/gen/include/aidl/android/hardware/radio/messaging/IRadioMessagingIndication.h"
  },
  {
   "function_name" : "aidl::android::hardware::radio::messaging::IRadioMessagingIndicationDefault::newSmsOnSim",
   "linker_set_key" : "_ZN4aidl7android8hardware5radio9messaging32IRadioMessagingIndicationDefault11newSmsOnSimENS2_19RadioIndicationTypeEi",
   "parameters" :
   [
    {
     "is_this_ptr" : true,
     "referenced_type" : "_ZTIPN4aidl7android8hardware5radio9messaging32IRadioMessagingIndicationDefaultE"
    },
    {
     "referenced_type" : "_ZTIN4aidl7android8hardware5radio19RadioIndicationTypeE"
    },
    {
     "referenced_type" : "_ZTIi"
    }
   ],
   "return_type" : "_ZTIN3ndk13ScopedAStatusE",
   "source_file" : "out/soong/.intermediates/hardware/interfaces/radio/aidl/android.hardware.radio.messaging-V1-ndk-source/gen/include/aidl/android/hardware/radio/messaging/IRadioMessagingIndication.h"
  },
  {
   "function_name" : "aidl::android::hardware::radio::messaging::IRadioMessagingIndicationDefault::newBroadcastSms",
   "linker_set_key" : "_ZN4aidl7android8hardware5radio9messaging32IRadioMessagingIndicationDefault15newBroadcastSmsENS2_19RadioIndicationTypeERKNSt3__16vectorIhNS6_9allocatorIhEEEE",
   "parameters" :
   [
    {
     "is_this_ptr" : true,
     "referenced_type" : "_ZTIPN4aidl7android8hardware5radio9messaging32IRadioMessagingIndicationDefaultE"
    },
    {
     "referenced_type" : "_ZTIN4aidl7android8hardware5radio19RadioIndicationTypeE"
    },
    {
     "referenced_type" : "_ZTIRKNSt3__16vectorIhNS_9allocatorIhEEEE"
    }
   ],
   "return_type" : "_ZTIN3ndk13ScopedAStatusE",
   "source_file" : "out/soong/.intermediates/hardware/interfaces/radio/aidl/android.hardware.radio.messaging-V1-ndk-source/gen/include/aidl/android/hardware/radio/messaging/IRadioMessagingIndication.h"
  },
  {
   "function_name" : "aidl::android::hardware::radio::messaging::IRadioMessagingIndicationDefault::getInterfaceHash",
   "linker_set_key" : "_ZN4aidl7android8hardware5radio9messaging32IRadioMessagingIndicationDefault16getInterfaceHashEPNSt3__112basic_stringIcNS5_11char_traitsIcEENS5_9allocatorIcEEEE",
   "parameters" :
   [
    {
     "is_this_ptr" : true,
     "referenced_type" : "_ZTIPN4aidl7android8hardware5radio9messaging32IRadioMessagingIndicationDefaultE"
    },
    {
     "referenced_type" : "_ZTIPNSt3__112basic_stringIcNS_11char_traitsIcEENS_9allocatorIcEEEE"
    }
   ],
   "return_type" : "_ZTIN3ndk13ScopedAStatusE",
   "source_file" : "out/soong/.intermediates/hardware/interfaces/radio/aidl/android.hardware.radio.messaging-V1-ndk-source/gen/include/aidl/android/hardware/radio/messaging/IRadioMessagingIndication.h"
  },
  {
   "function_name" : "aidl::android::hardware::radio::messaging::IRadioMessagingIndicationDefault::simSmsStorageFull",
   "linker_set_key" : "_ZN4aidl7android8hardware5radio9messaging32IRadioMessagingIndicationDefault17simSmsStorageFullENS2_19RadioIndicationTypeE",
   "parameters" :
   [
    {
     "is_this_ptr" : true,
     "referenced_type" : "_ZTIPN4aidl7android8hardware5radio9messaging32IRadioMessagingIndicationDefaultE"
    },
    {
     "referenced_type" : "_ZTIN4aidl7android8hardware5radio19RadioIndicationTypeE"
    }
   ],
   "return_type" : "_ZTIN3ndk13ScopedAStatusE",
   "source_file" : "out/soong/.intermediates/hardware/interfaces/radio/aidl/android.hardware.radio.messaging-V1-ndk-source/gen/include/aidl/android/hardware/radio/messaging/IRadioMessagingIndication.h"
  },
  {
   "function_name" : "aidl::android::hardware::radio::messaging::IRadioMessagingIndicationDefault::newSmsStatusReport",
   "linker_set_key" : "_ZN4aidl7android8hardware5radio9messaging32IRadioMessagingIndicationDefault18newSmsStatusReportENS2_19RadioIndicationTypeERKNSt3__16vectorIhNS6_9allocatorIhEEEE",
   "parameters" :
   [
    {
     "is_this_ptr" : true,
     "referenced_type" : "_ZTIPN4aidl7android8hardware5radio9messaging32IRadioMessagingIndicationDefaultE"
    },
    {
     "referenced_type" : "_ZTIN4aidl7android8hardware5radio19RadioIndicationTypeE"
    },
    {
     "referenced_type" : "_ZTIRKNSt3__16vectorIhNS_9allocatorIhEEEE"
    }
   ],
   "return_type" : "_ZTIN3ndk13ScopedAStatusE",
   "source_file" : "out/soong/.intermediates/hardware/interfaces/radio/aidl/android.hardware.radio.messaging-V1-ndk-source/gen/include/aidl/android/hardware/radio/messaging/IRadioMessagingIndication.h"
  },
  {
   "function_name" : "aidl::android::hardware::radio::messaging::IRadioMessagingIndicationDefault::getInterfaceVersion",
   "linker_set_key" : "_ZN4aidl7android8hardware5radio9messaging32IRadioMessagingIndicationDefault19getInterfaceVersionEPi",
   "parameters" :
   [
    {
     "is_this_ptr" : true,
     "referenced_type" : "_ZTIPN4aidl7android8hardware5radio9messaging32IRadioMessagingIndicationDefaultE"
    },
    {
     "referenced_type" : "_ZTIPi"
    }
   ],
   "return_type" : "_ZTIN3ndk13ScopedAStatusE",
   "source_file" : "out/soong/.intermediates/hardware/interfaces/radio/aidl/android.hardware.radio.messaging-V1-ndk-source/gen/include/aidl/android/hardware/radio/messaging/IRadioMessagingIndication.h"
  },
  {
   "function_name" : "aidl::android::hardware::radio::messaging::IRadioMessagingIndicationDefault::cdmaRuimSmsStorageFull",
   "linker_set_key" : "_ZN4aidl7android8hardware5radio9messaging32IRadioMessagingIndicationDefault22cdmaRuimSmsStorageFullENS2_19RadioIndicationTypeE",
   "parameters" :
   [
    {
     "is_this_ptr" : true,
     "referenced_type" : "_ZTIPN4aidl7android8hardware5radio9messaging32IRadioMessagingIndicationDefaultE"
    },
    {
     "referenced_type" : "_ZTIN4aidl7android8hardware5radio19RadioIndicationTypeE"
    }
   ],
   "return_type" : "_ZTIN3ndk13ScopedAStatusE",
   "source_file" : "out/soong/.intermediates/hardware/interfaces/radio/aidl/android.hardware.radio.messaging-V1-ndk-source/gen/include/aidl/android/hardware/radio/messaging/IRadioMessagingIndication.h"
  },
  {
   "function_name" : "aidl::android::hardware::radio::messaging::IRadioMessagingIndicationDefault::newSms",
   "linker_set_key" : "_ZN4aidl7android8hardware5radio9messaging32IRadioMessagingIndicationDefault6newSmsENS2_19RadioIndicationTypeERKNSt3__16vectorIhNS6_9allocatorIhEEEE",
   "parameters" :
   [
    {
     "is_this_ptr" : true,
     "referenced_type" : "_ZTIPN4aidl7android8hardware5radio9messaging32IRadioMessagingIndicationDefaultE"
    },
    {
     "referenced_type" : "_ZTIN4aidl7android8hardware5radio19RadioIndicationTypeE"
    },
    {
     "referenced_type" : "_ZTIRKNSt3__16vectorIhNS_9allocatorIhEEEE"
    }
   ],
   "return_type" : "_ZTIN3ndk13ScopedAStatusE",
   "source_file" : "out/soong/.intermediates/hardware/interfaces/radio/aidl/android.hardware.radio.messaging-V1-ndk-source/gen/include/aidl/android/hardware/radio/messaging/IRadioMessagingIndication.h"
  },
  {
   "function_name" : "aidl::android::hardware::radio::messaging::IRadioMessagingIndicationDefault::asBinder",
   "linker_set_key" : "_ZN4aidl7android8hardware5radio9messaging32IRadioMessagingIndicationDefault8asBinderEv",
   "parameters" :
   [
    {
     "is_this_ptr" : true,
     "referenced_type" : "_ZTIPN4aidl7android8hardware5radio9messaging32IRadioMessagingIndicationDefaultE"
    }
   ],
   "return_type" : "_ZTIN3ndk10SpAIBinderE",
   "source_file" : "out/soong/.intermediates/hardware/interfaces/radio/aidl/android.hardware.radio.messaging-V1-ndk-source/gen/include/aidl/android/hardware/radio/messaging/IRadioMessagingIndication.h"
  },
  {
   "function_name" : "aidl::android::hardware::radio::messaging::IRadioMessagingIndicationDefault::isRemote",
   "linker_set_key" : "_ZN4aidl7android8hardware5radio9messaging32IRadioMessagingIndicationDefault8isRemoteEv",
   "parameters" :
   [
    {
     "is_this_ptr" : true,
     "referenced_type" : "_ZTIPN4aidl7android8hardware5radio9messaging32IRadioMessagingIndicationDefaultE"
    }
   ],
   "return_type" : "_ZTIb",
   "source_file" : "out/soong/.intermediates/hardware/interfaces/radio/aidl/android.hardware.radio.messaging-V1-ndk-source/gen/include/aidl/android/hardware/radio/messaging/IRadioMessagingIndication.h"
  },
  {
   "function_name" : "aidl::android::hardware::radio::messaging::CdmaSmsAck::writeToParcel",
   "linker_set_key" : "_ZNK4aidl7android8hardware5radio9messaging10CdmaSmsAck13writeToParcelEP7AParcel",
   "parameters" :
   [
    {
     "is_this_ptr" : true,
     "referenced_type" : "_ZTIPKN4aidl7android8hardware5radio9messaging10CdmaSmsAckE"
    },
    {
     "referenced_type" : "_ZTIP7AParcel"
    }
   ],
   "return_type" : "_ZTIi",
   "source_file" : "out/soong/.intermediates/hardware/interfaces/radio/aidl/android.hardware.radio.messaging-V1-ndk-source/gen/include/aidl/android/hardware/radio/messaging/CdmaSmsAck.h"
  },
  {
   "function_name" : "aidl::android::hardware::radio::messaging::SmsWriteArgs::writeToParcel",
   "linker_set_key" : "_ZNK4aidl7android8hardware5radio9messaging12SmsWriteArgs13writeToParcelEP7AParcel",
   "parameters" :
   [
    {
     "is_this_ptr" : true,
     "referenced_type" : "_ZTIPKN4aidl7android8hardware5radio9messaging12SmsWriteArgsE"
    },
    {
     "referenced_type" : "_ZTIP7AParcel"
    }
   ],
   "return_type" : "_ZTIi",
   "source_file" : "out/soong/.intermediates/hardware/interfaces/radio/aidl/android.hardware.radio.messaging-V1-ndk-source/gen/include/aidl/android/hardware/radio/messaging/SmsWriteArgs.h"
  },
  {
   "function_name" : "aidl::android::hardware::radio::messaging::GsmSmsMessage::writeToParcel",
   "linker_set_key" : "_ZNK4aidl7android8hardware5radio9messaging13GsmSmsMessage13writeToParcelEP7AParcel",
   "parameters" :
   [
    {
     "is_this_ptr" : true,
     "referenced_type" : "_ZTIPKN4aidl7android8hardware5radio9messaging13GsmSmsMessageE"
    },
    {
     "referenced_type" : "_ZTIP7AParcel"
    }
   ],
   "return_type" : "_ZTIi",
   "source_file" : "out/soong/.intermediates/hardware/interfaces/radio/aidl/android.hardware.radio.messaging-V1-ndk-source/gen/include/aidl/android/hardware/radio/messaging/GsmSmsMessage.h"
  },
  {
   "function_name" : "aidl::android::hardware::radio::messaging::ImsSmsMessage::writeToParcel",
   "linker_set_key" : "_ZNK4aidl7android8hardware5radio9messaging13ImsSmsMessage13writeToParcelEP7AParcel",
   "parameters" :
   [
    {
     "is_this_ptr" : true,
     "referenced_type" : "_ZTIPKN4aidl7android8hardware5radio9messaging13ImsSmsMessageE"
    },
    {
     "referenced_type" : "_ZTIP7AParcel"
    }
   ],
   "return_type" : "_ZTIi",
   "source_file" : "out/soong/.intermediates/hardware/interfaces/radio/aidl/android.hardware.radio.messaging-V1-ndk-source/gen/include/aidl/android/hardware/radio/messaging/ImsSmsMessage.h"
  },
  {
   "function_name" : "aidl::android::hardware::radio::messaging::SendSmsResult::writeToParcel",
   "linker_set_key" : "_ZNK4aidl7android8hardware5radio9messaging13SendSmsResult13writeToParcelEP7AParcel",
   "parameters" :
   [
    {
     "is_this_ptr" : true,
     "referenced_type" : "_ZTIPKN4aidl7android8hardware5radio9messaging13SendSmsResultE"
    },
    {
     "referenced_type" : "_ZTIP7AParcel"
    }
   ],
   "return_type" : "_ZTIi",
   "source_file" : "out/soong/.intermediates/hardware/interfaces/radio/aidl/android.hardware.radio.messaging-V1-ndk-source/gen/include/aidl/android/hardware/radio/messaging/SendSmsResult.h"
  },
  {
   "function_name" : "aidl::android::hardware::radio::messaging::CdmaSmsAddress::writeToParcel",
   "linker_set_key" : "_ZNK4aidl7android8hardware5radio9messaging14CdmaSmsAddress13writeToParcelEP7AParcel",
   "parameters" :
   [
    {
     "is_this_ptr" : true,
     "referenced_type" : "_ZTIPKN4aidl7android8hardware5radio9messaging14CdmaSmsAddressE"
    },
    {
     "referenced_type" : "_ZTIP7AParcel"
    }
   ],
   "return_type" : "_ZTIi",
   "source_file" : "out/soong/.intermediates/hardware/interfaces/radio/aidl/android.hardware.radio.messaging-V1-ndk-source/gen/include/aidl/android/hardware/radio/messaging/CdmaSmsAddress.h"
  },
  {
   "function_name" : "aidl::android::hardware::radio::messaging::CdmaSmsMessage::writeToParcel",
   "linker_set_key" : "_ZNK4aidl7android8hardware5radio9messaging14CdmaSmsMessage13writeToParcelEP7AParcel",
   "parameters" :
   [
    {
     "is_this_ptr" : true,
     "referenced_type" : "_ZTIPKN4aidl7android8hardware5radio9messaging14CdmaSmsMessageE"
    },
    {
     "referenced_type" : "_ZTIP7AParcel"
    }
   ],
   "return_type" : "_ZTIi",
   "source_file" : "out/soong/.intermediates/hardware/interfaces/radio/aidl/android.hardware.radio.messaging-V1-ndk-source/gen/include/aidl/android/hardware/radio/messaging/CdmaSmsMessage.h"
  },
  {
   "function_name" : "aidl::android::hardware::radio::messaging::CdmaSmsWriteArgs::writeToParcel",
   "linker_set_key" : "_ZNK4aidl7android8hardware5radio9messaging16CdmaSmsWriteArgs13writeToParcelEP7AParcel",
   "parameters" :
   [
    {
     "is_this_ptr" : true,
     "referenced_type" : "_ZTIPKN4aidl7android8hardware5radio9messaging16CdmaSmsWriteArgsE"
    },
    {
     "referenced_type" : "_ZTIP7AParcel"
    }
   ],
   "return_type" : "_ZTIi",
   "source_file" : "out/soong/.intermediates/hardware/interfaces/radio/aidl/android.hardware.radio.messaging-V1-ndk-source/gen/include/aidl/android/hardware/radio/messaging/CdmaSmsWriteArgs.h"
  },
  {
   "function_name" : "aidl::android::hardware::radio::messaging::CdmaSmsSubaddress::writeToParcel",
   "linker_set_key" : "_ZNK4aidl7android8hardware5radio9messaging17CdmaSmsSubaddress13writeToParcelEP7AParcel",
   "parameters" :
   [
    {
     "is_this_ptr" : true,
     "referenced_type" : "_ZTIPKN4aidl7android8hardware5radio9messaging17CdmaSmsSubaddressE"
    },
    {
     "referenced_type" : "_ZTIP7AParcel"
    }
   ],
   "return_type" : "_ZTIi",
   "source_file" : "out/soong/.intermediates/hardware/interfaces/radio/aidl/android.hardware.radio.messaging-V1-ndk-source/gen/include/aidl/android/hardware/radio/messaging/CdmaSmsSubaddress.h"
  },
  {
   "function_name" : "aidl::android::hardware::radio::messaging::GsmBroadcastSmsConfigInfo::writeToParcel",
   "linker_set_key" : "_ZNK4aidl7android8hardware5radio9messaging25GsmBroadcastSmsConfigInfo13writeToParcelEP7AParcel",
   "parameters" :
   [
    {
     "is_this_ptr" : true,
     "referenced_type" : "_ZTIPKN4aidl7android8hardware5radio9messaging25GsmBroadcastSmsConfigInfoE"
    },
    {
     "referenced_type" : "_ZTIP7AParcel"
    }
   ],
   "return_type" : "_ZTIi",
   "source_file" : "out/soong/.intermediates/hardware/interfaces/radio/aidl/android.hardware.radio.messaging-V1-ndk-source/gen/include/aidl/android/hardware/radio/messaging/GsmBroadcastSmsConfigInfo.h"
  },
  {
   "function_name" : "aidl::android::hardware::radio::messaging::CdmaBroadcastSmsConfigInfo::writeToParcel",
   "linker_set_key" : "_ZNK4aidl7android8hardware5radio9messaging26CdmaBroadcastSmsConfigInfo13writeToParcelEP7AParcel",
   "parameters" :
   [
    {
     "is_this_ptr" : true,
     "referenced_type" : "_ZTIPKN4aidl7android8hardware5radio9messaging26CdmaBroadcastSmsConfigInfoE"
    },
    {
     "referenced_type" : "_ZTIP7AParcel"
    }
   ],
   "return_type" : "_ZTIi",
   "source_file" : "out/soong/.intermediates/hardware/interfaces/radio/aidl/android.hardware.radio.messaging-V1-ndk-source/gen/include/aidl/android/hardware/radio/messaging/CdmaBroadcastSmsConfigInfo.h"
  }
 ],
 "global_vars" :
 [
  {
   "linker_set_key" : "_ZN4aidl7android8hardware5radio9messaging10CdmaSmsAck10descriptorE",
   "name" : "aidl::android::hardware::radio::messaging::CdmaSmsAck::descriptor",
   "referenced_type" : "_ZTIPKc",
   "source_file" : "out/soong/.intermediates/hardware/interfaces/radio/aidl/android.hardware.radio.messaging-V1-ndk-source/gen/include/aidl/android/hardware/radio/messaging/CdmaSmsAck.h"
  },
  {
   "linker_set_key" : "_ZN4aidl7android8hardware5radio9messaging12SmsWriteArgs10descriptorE",
   "name" : "aidl::android::hardware::radio::messaging::SmsWriteArgs::descriptor",
   "referenced_type" : "_ZTIPKc",
   "source_file" : "out/soong/.intermediates/hardware/interfaces/radio/aidl/android.hardware.radio.messaging-V1-ndk-source/gen/include/aidl/android/hardware/radio/messaging/SmsWriteArgs.h"
  },
  {
   "linker_set_key" : "_ZN4aidl7android8hardware5radio9messaging13GsmSmsMessage10descriptorE",
   "name" : "aidl::android::hardware::radio::messaging::GsmSmsMessage::descriptor",
   "referenced_type" : "_ZTIPKc",
   "source_file" : "out/soong/.intermediates/hardware/interfaces/radio/aidl/android.hardware.radio.messaging-V1-ndk-source/gen/include/aidl/android/hardware/radio/messaging/GsmSmsMessage.h"
  },
  {
   "linker_set_key" : "_ZN4aidl7android8hardware5radio9messaging13ImsSmsMessage10descriptorE",
   "name" : "aidl::android::hardware::radio::messaging::ImsSmsMessage::descriptor",
   "referenced_type" : "_ZTIPKc",
   "source_file" : "out/soong/.intermediates/hardware/interfaces/radio/aidl/android.hardware.radio.messaging-V1-ndk-source/gen/include/aidl/android/hardware/radio/messaging/ImsSmsMessage.h"
  },
  {
   "linker_set_key" : "_ZN4aidl7android8hardware5radio9messaging13SendSmsResult10descriptorE",
   "name" : "aidl::android::hardware::radio::messaging::SendSmsResult::descriptor",
   "referenced_type" : "_ZTIPKc",
   "source_file" : "out/soong/.intermediates/hardware/interfaces/radio/aidl/android.hardware.radio.messaging-V1-ndk-source/gen/include/aidl/android/hardware/radio/messaging/SendSmsResult.h"
  },
  {
   "linker_set_key" : "_ZN4aidl7android8hardware5radio9messaging14CdmaSmsAddress10descriptorE",
   "name" : "aidl::android::hardware::radio::messaging::CdmaSmsAddress::descriptor",
   "referenced_type" : "_ZTIPKc",
   "source_file" : "out/soong/.intermediates/hardware/interfaces/radio/aidl/android.hardware.radio.messaging-V1-ndk-source/gen/include/aidl/android/hardware/radio/messaging/CdmaSmsAddress.h"
  },
  {
   "linker_set_key" : "_ZN4aidl7android8hardware5radio9messaging14CdmaSmsMessage10descriptorE",
   "name" : "aidl::android::hardware::radio::messaging::CdmaSmsMessage::descriptor",
   "referenced_type" : "_ZTIPKc",
   "source_file" : "out/soong/.intermediates/hardware/interfaces/radio/aidl/android.hardware.radio.messaging-V1-ndk-source/gen/include/aidl/android/hardware/radio/messaging/CdmaSmsMessage.h"
  },
  {
   "linker_set_key" : "_ZN4aidl7android8hardware5radio9messaging15IRadioMessaging10descriptorE",
   "name" : "aidl::android::hardware::radio::messaging::IRadioMessaging::descriptor",
   "referenced_type" : "_ZTIPKc",
   "source_file" : "out/soong/.intermediates/hardware/interfaces/radio/aidl/android.hardware.radio.messaging-V1-ndk-source/gen/include/aidl/android/hardware/radio/messaging/IRadioMessaging.h"
  },
  {
   "access" : "private",
   "linker_set_key" : "_ZN4aidl7android8hardware5radio9messaging15IRadioMessaging12default_implE",
   "name" : "aidl::android::hardware::radio::messaging::IRadioMessaging::default_impl",
   "referenced_type" : "_ZTINSt3__110shared_ptrIN4aidl7android8hardware5radio9messaging15IRadioMessagingEEE",
   "source_file" : "out/soong/.intermediates/hardware/interfaces/radio/aidl/android.hardware.radio.messaging-V1-ndk-source/gen/include/aidl/android/hardware/radio/messaging/IRadioMessaging.h"
  },
  {
   "linker_set_key" : "_ZN4aidl7android8hardware5radio9messaging15IRadioMessaging4hashE",
   "name" : "aidl::android::hardware::radio::messaging::IRadioMessaging::hash",
   "referenced_type" : "_ZTIKNSt3__112basic_stringIcNS_11char_traitsIcEENS_9allocatorIcEEEE",
   "source_file" : "out/soong/.intermediates/hardware/interfaces/radio/aidl/android.hardware.radio.messaging-V1-ndk-source/gen/include/aidl/android/hardware/radio/messaging/IRadioMessaging.h"
  },
  {
   "linker_set_key" : "_ZN4aidl7android8hardware5radio9messaging16CdmaSmsWriteArgs10descriptorE",
   "name" : "aidl::android::hardware::radio::messaging::CdmaSmsWriteArgs::descriptor",
   "referenced_type" : "_ZTIPKc",
   "source_file" : "out/soong/.intermediates/hardware/interfaces/radio/aidl/android.hardware.radio.messaging-V1-ndk-source/gen/include/aidl/android/hardware/radio/messaging/CdmaSmsWriteArgs.h"
  },
  {
   "linker_set_key" : "_ZN4aidl7android8hardware5radio9messaging17CdmaSmsSubaddress10descriptorE",
   "name" : "aidl::android::hardware::radio::messaging::CdmaSmsSubaddress::descriptor",
   "referenced_type" : "_ZTIPKc",
   "source_file" : "out/soong/.intermediates/hardware/interfaces/radio/aidl/android.hardware.radio.messaging-V1-ndk-source/gen/include/aidl/android/hardware/radio/messaging/CdmaSmsSubaddress.h"
  },
  {
   "linker_set_key" : "_ZN4aidl7android8hardware5radio9messaging23IRadioMessagingResponse10descriptorE",
   "name" : "aidl::android::hardware::radio::messaging::IRadioMessagingResponse::descriptor",
   "referenced_type" : "_ZTIPKc",
   "source_file" : "out/soong/.intermediates/hardware/interfaces/radio/aidl/android.hardware.radio.messaging-V1-ndk-source/gen/include/aidl/android/hardware/radio/messaging/IRadioMessagingResponse.h"
  },
  {
   "access" : "private",
   "linker_set_key" : "_ZN4aidl7android8hardware5radio9messaging23IRadioMessagingResponse12default_implE",
   "name" : "aidl::android::hardware::radio::messaging::IRadioMessagingResponse::default_impl",
   "referenced_type" : "_ZTINSt3__110shared_ptrIN4aidl7android8hardware5radio9messaging23IRadioMessagingResponseEEE",
   "source_file" : "out/soong/.intermediates/hardware/interfaces/radio/aidl/android.hardware.radio.messaging-V1-ndk-source/gen/include/aidl/android/hardware/radio/messaging/IRadioMessagingResponse.h"
  },
  {
   "linker_set_key" : "_ZN4aidl7android8hardware5radio9messaging23IRadioMessagingResponse4hashE",
   "name" : "aidl::android::hardware::radio::messaging::IRadioMessagingResponse::hash",
   "referenced_type" : "_ZTIKNSt3__112basic_stringIcNS_11char_traitsIcEENS_9allocatorIcEEEE",
   "source_file" : "out/soong/.intermediates/hardware/interfaces/radio/aidl/android.hardware.radio.messaging-V1-ndk-source/gen/include/aidl/android/hardware/radio/messaging/IRadioMessagingResponse.h"
  },
  {
   "linker_set_key" : "_ZN4aidl7android8hardware5radio9messaging25GsmBroadcastSmsConfigInfo10descriptorE",
   "name" : "aidl::android::hardware::radio::messaging::GsmBroadcastSmsConfigInfo::descriptor",
   "referenced_type" : "_ZTIPKc",
   "source_file" : "out/soong/.intermediates/hardware/interfaces/radio/aidl/android.hardware.radio.messaging-V1-ndk-source/gen/include/aidl/android/hardware/radio/messaging/GsmBroadcastSmsConfigInfo.h"
  },
  {
   "linker_set_key" : "_ZN4aidl7android8hardware5radio9messaging25IRadioMessagingIndication10descriptorE",
   "name" : "aidl::android::hardware::radio::messaging::IRadioMessagingIndication::descriptor",
   "referenced_type" : "_ZTIPKc",
   "source_file" : "out/soong/.intermediates/hardware/interfaces/radio/aidl/android.hardware.radio.messaging-V1-ndk-source/gen/include/aidl/android/hardware/radio/messaging/IRadioMessagingIndication.h"
  },
  {
   "access" : "private",
   "linker_set_key" : "_ZN4aidl7android8hardware5radio9messaging25IRadioMessagingIndication12default_implE",
   "name" : "aidl::android::hardware::radio::messaging::IRadioMessagingIndication::default_impl",
   "referenced_type" : "_ZTINSt3__110shared_ptrIN4aidl7android8hardware5radio9messaging25IRadioMessagingIndicationEEE",
   "source_file" : "out/soong/.intermediates/hardware/interfaces/radio/aidl/android.hardware.radio.messaging-V1-ndk-source/gen/include/aidl/android/hardware/radio/messaging/IRadioMessagingIndication.h"
  },
  {
   "linker_set_key" : "_ZN4aidl7android8hardware5radio9messaging25IRadioMessagingIndication4hashE",
   "name" : "aidl::android::hardware::radio::messaging::IRadioMessagingIndication::hash",
   "referenced_type" : "_ZTIKNSt3__112basic_stringIcNS_11char_traitsIcEENS_9allocatorIcEEEE",
   "source_file" : "out/soong/.intermediates/hardware/interfaces/radio/aidl/android.hardware.radio.messaging-V1-ndk-source/gen/include/aidl/android/hardware/radio/messaging/IRadioMessagingIndication.h"
  },
  {
   "linker_set_key" : "_ZN4aidl7android8hardware5radio9messaging26CdmaBroadcastSmsConfigInfo10descriptorE",
   "name" : "aidl::android::hardware::radio::messaging::CdmaBroadcastSmsConfigInfo::descriptor",
   "referenced_type" : "_ZTIPKc",
   "source_file" : "out/soong/.intermediates/hardware/interfaces/radio/aidl/android.hardware.radio.messaging-V1-ndk-source/gen/include/aidl/android/hardware/radio/messaging/CdmaBroadcastSmsConfigInfo.h"
  }
 ],
 "lvalue_reference_types" :
 [
  {
   "alignment" : 4,
   "linker_set_key" : "_ZTIRKN3ndk10SpAIBinderE",
   "name" : "const ndk::SpAIBinder &",
   "referenced_type" : "_ZTIKN3ndk10SpAIBinderE",
   "self_type" : "_ZTIRKN3ndk10SpAIBinderE",
   "size" : 4,
   "source_file" : "frameworks/native/libs/binder/ndk/include_cpp/android/binder_auto_utils.h"
  },
  {
   "alignment" : 4,
   "linker_set_key" : "_ZTIRKN3ndk13ScopedAParcelE",
   "name" : "const ndk::ScopedAParcel &",
   "referenced_type" : "_ZTIKN3ndk13ScopedAParcelE",
   "self_type" : "_ZTIRKN3ndk13ScopedAParcelE",
   "size" : 4,
   "source_file" : "frameworks/native/libs/binder/ndk/include_cpp/android/binder_auto_utils.h"
  },
  {
   "alignment" : 4,
   "linker_set_key" : "_ZTIRKN3ndk17AParcelableHolderE",
   "name" : "const ndk::AParcelableHolder &",
   "referenced_type" : "_ZTIKN3ndk17AParcelableHolderE",
   "self_type" : "_ZTIRKN3ndk17AParcelableHolderE",
   "size" : 4,
   "source_file" : "frameworks/native/libs/binder/ndk/include_cpp/android/binder_parcelable_utils.h"
  },
  {
   "alignment" : 4,
   "linker_set_key" : "_ZTIRKN3ndk20ScopedFileDescriptorE",
   "name" : "const ndk::ScopedFileDescriptor &",
   "referenced_type" : "_ZTIKN3ndk20ScopedFileDescriptorE",
   "self_type" : "_ZTIRKN3ndk20ScopedFileDescriptorE",
   "size" : 4,
   "source_file" : "frameworks/native/libs/binder/ndk/include_cpp/android/binder_auto_utils.h"
  },
  {
   "alignment" : 4,
   "linker_set_key" : "_ZTIRKN4aidl7android8hardware5radio10RadioErrorE",
   "name" : "const aidl::android::hardware::radio::RadioError &",
   "referenced_type" : "_ZTIKN4aidl7android8hardware5radio10RadioErrorE",
   "self_type" : "_ZTIRKN4aidl7android8hardware5radio10RadioErrorE",
   "size" : 4,
   "source_file" : "frameworks/native/libs/binder/ndk/include_cpp/android/binder_to_string.h"
  },
  {
   "alignment" : 4,
   "linker_set_key" : "_ZTIRKN4aidl7android8hardware5radio17RadioResponseInfoE",
   "name" : "const aidl::android::hardware::radio::RadioResponseInfo &",
   "referenced_type" : "_ZTIKN4aidl7android8hardware5radio17RadioResponseInfoE",
   "self_type" : "_ZTIRKN4aidl7android8hardware5radio17RadioResponseInfoE",
   "size" : 4,
   "source_file" : "out/soong/.intermediates/hardware/interfaces/radio/aidl/android.hardware.radio-V1-ndk-source/gen/include/aidl/android/hardware/radio/RadioResponseInfo.h"
  },
  {
   "alignment" : 4,
   "linker_set_key" : "_ZTIRKN4aidl7android8hardware5radio17RadioResponseTypeE",
   "name" : "const aidl::android::hardware::radio::RadioResponseType &",
   "referenced_type" : "_ZTIKN4aidl7android8hardware5radio17RadioResponseTypeE",
   "self_type" : "_ZTIRKN4aidl7android8hardware5radio17RadioResponseTypeE",
   "size" : 4,
   "source_file" : "frameworks/native/libs/binder/ndk/include_cpp/android/binder_to_string.h"
  },
  {
   "alignment" : 4,
   "linker_set_key" : "_ZTIRKN4aidl7android8hardware5radio21RadioTechnologyFamilyE",
   "name" : "const aidl::android::hardware::radio::RadioTechnologyFamily &",
   "referenced_type" : "_ZTIKN4aidl7android8hardware5radio21RadioTechnologyFamilyE",
   "self_type" : "_ZTIRKN4aidl7android8hardware5radio21RadioTechnologyFamilyE",
   "size" : 4,
   "source_file" : "frameworks/native/libs/binder/ndk/include_cpp/android/binder_to_string.h"
  },
  {
   "alignment" : 4,
   "linker_set_key" : "_ZTIRKN4aidl7android8hardware5radio9messaging10CdmaSmsAckE",
   "name" : "const aidl::android::hardware::radio::messaging::CdmaSmsAck &",
   "referenced_type" : "_ZTIKN4aidl7android8hardware5radio9messaging10CdmaSmsAckE",
   "self_type" : "_ZTIRKN4aidl7android8hardware5radio9messaging10CdmaSmsAckE",
   "size" : 4,
   "source_file" : "out/soong/.intermediates/hardware/interfaces/radio/aidl/android.hardware.radio.messaging-V1-ndk-source/gen/include/aidl/android/hardware/radio/messaging/CdmaSmsAck.h"
  },
  {
   "alignment" : 4,
   "linker_set_key" : "_ZTIRKN4aidl7android8hardware5radio9messaging12SmsWriteArgsE",
   "name" : "const aidl::android::hardware::radio::messaging::SmsWriteArgs &",
   "referenced_type" : "_ZTIKN4aidl7android8hardware5radio9messaging12SmsWriteArgsE",
   "self_type" : "_ZTIRKN4aidl7android8hardware5radio9messaging12SmsWriteArgsE",
   "size" : 4,
   "source_file" : "out/soong/.intermediates/hardware/interfaces/radio/aidl/android.hardware.radio.messaging-V1-ndk-source/gen/include/aidl/android/hardware/radio/messaging/SmsWriteArgs.h"
  },
  {
   "alignment" : 4,
   "linker_set_key" : "_ZTIRKN4aidl7android8hardware5radio9messaging13GsmSmsMessageE",
   "name" : "const aidl::android::hardware::radio::messaging::GsmSmsMessage &",
   "referenced_type" : "_ZTIKN4aidl7android8hardware5radio9messaging13GsmSmsMessageE",
   "self_type" : "_ZTIRKN4aidl7android8hardware5radio9messaging13GsmSmsMessageE",
   "size" : 4,
   "source_file" : "out/soong/.intermediates/hardware/interfaces/radio/aidl/android.hardware.radio.messaging-V1-ndk-source/gen/include/aidl/android/hardware/radio/messaging/GsmSmsMessage.h"
  },
  {
   "alignment" : 4,
   "linker_set_key" : "_ZTIRKN4aidl7android8hardware5radio9messaging13ImsSmsMessageE",
   "name" : "const aidl::android::hardware::radio::messaging::ImsSmsMessage &",
   "referenced_type" : "_ZTIKN4aidl7android8hardware5radio9messaging13ImsSmsMessageE",
   "self_type" : "_ZTIRKN4aidl7android8hardware5radio9messaging13ImsSmsMessageE",
   "size" : 4,
   "source_file" : "out/soong/.intermediates/hardware/interfaces/radio/aidl/android.hardware.radio.messaging-V1-ndk-source/gen/include/aidl/android/hardware/radio/messaging/ImsSmsMessage.h"
  },
  {
   "alignment" : 4,
   "linker_set_key" : "_ZTIRKN4aidl7android8hardware5radio9messaging13SendSmsResultE",
   "name" : "const aidl::android::hardware::radio::messaging::SendSmsResult &",
   "referenced_type" : "_ZTIKN4aidl7android8hardware5radio9messaging13SendSmsResultE",
   "self_type" : "_ZTIRKN4aidl7android8hardware5radio9messaging13SendSmsResultE",
   "size" : 4,
   "source_file" : "out/soong/.intermediates/hardware/interfaces/radio/aidl/android.hardware.radio.messaging-V1-ndk-source/gen/include/aidl/android/hardware/radio/messaging/SendSmsResult.h"
  },
  {
   "alignment" : 4,
   "linker_set_key" : "_ZTIRKN4aidl7android8hardware5radio9messaging14CdmaSmsAddressE",
   "name" : "const aidl::android::hardware::radio::messaging::CdmaSmsAddress &",
   "referenced_type" : "_ZTIKN4aidl7android8hardware5radio9messaging14CdmaSmsAddressE",
   "self_type" : "_ZTIRKN4aidl7android8hardware5radio9messaging14CdmaSmsAddressE",
   "size" : 4,
   "source_file" : "out/soong/.intermediates/hardware/interfaces/radio/aidl/android.hardware.radio.messaging-V1-ndk-source/gen/include/aidl/android/hardware/radio/messaging/CdmaSmsAddress.h"
  },
  {
   "alignment" : 4,
   "linker_set_key" : "_ZTIRKN4aidl7android8hardware5radio9messaging14CdmaSmsMessageE",
   "name" : "const aidl::android::hardware::radio::messaging::CdmaSmsMessage &",
   "referenced_type" : "_ZTIKN4aidl7android8hardware5radio9messaging14CdmaSmsMessageE",
   "self_type" : "_ZTIRKN4aidl7android8hardware5radio9messaging14CdmaSmsMessageE",
   "size" : 4,
   "source_file" : "out/soong/.intermediates/hardware/interfaces/radio/aidl/android.hardware.radio.messaging-V1-ndk-source/gen/include/aidl/android/hardware/radio/messaging/CdmaSmsMessage.h"
  },
  {
   "alignment" : 4,
   "linker_set_key" : "_ZTIRKN4aidl7android8hardware5radio9messaging16CdmaSmsWriteArgsE",
   "name" : "const aidl::android::hardware::radio::messaging::CdmaSmsWriteArgs &",
   "referenced_type" : "_ZTIKN4aidl7android8hardware5radio9messaging16CdmaSmsWriteArgsE",
   "self_type" : "_ZTIRKN4aidl7android8hardware5radio9messaging16CdmaSmsWriteArgsE",
   "size" : 4,
   "source_file" : "out/soong/.intermediates/hardware/interfaces/radio/aidl/android.hardware.radio.messaging-V1-ndk-source/gen/include/aidl/android/hardware/radio/messaging/CdmaSmsWriteArgs.h"
  },
  {
   "alignment" : 4,
   "linker_set_key" : "_ZTIRKN4aidl7android8hardware5radio9messaging17CdmaSmsSubaddressE",
   "name" : "const aidl::android::hardware::radio::messaging::CdmaSmsSubaddress &",
   "referenced_type" : "_ZTIKN4aidl7android8hardware5radio9messaging17CdmaSmsSubaddressE",
   "self_type" : "_ZTIRKN4aidl7android8hardware5radio9messaging17CdmaSmsSubaddressE",
   "size" : 4,
   "source_file" : "frameworks/native/libs/binder/ndk/include_cpp/android/binder_to_string.h"
  },
  {
   "alignment" : 4,
   "linker_set_key" : "_ZTIRKN4aidl7android8hardware5radio9messaging25GsmBroadcastSmsConfigInfoE",
   "name" : "const aidl::android::hardware::radio::messaging::GsmBroadcastSmsConfigInfo &",
   "referenced_type" : "_ZTIKN4aidl7android8hardware5radio9messaging25GsmBroadcastSmsConfigInfoE",
   "self_type" : "_ZTIRKN4aidl7android8hardware5radio9messaging25GsmBroadcastSmsConfigInfoE",
   "size" : 4,
   "source_file" : "out/soong/.intermediates/hardware/interfaces/radio/aidl/android.hardware.radio.messaging-V1-ndk-source/gen/include/aidl/android/hardware/radio/messaging/GsmBroadcastSmsConfigInfo.h"
  },
  {
   "alignment" : 4,
   "linker_set_key" : "_ZTIRKN4aidl7android8hardware5radio9messaging26CdmaBroadcastSmsConfigInfoE",
   "name" : "const aidl::android::hardware::radio::messaging::CdmaBroadcastSmsConfigInfo &",
   "referenced_type" : "_ZTIKN4aidl7android8hardware5radio9messaging26CdmaBroadcastSmsConfigInfoE",
   "self_type" : "_ZTIRKN4aidl7android8hardware5radio9messaging26CdmaBroadcastSmsConfigInfoE",
   "size" : 4,
   "source_file" : "out/soong/.intermediates/hardware/interfaces/radio/aidl/android.hardware.radio.messaging-V1-ndk-source/gen/include/aidl/android/hardware/radio/messaging/CdmaBroadcastSmsConfigInfo.h"
  },
  {
   "alignment" : 4,
   "linker_set_key" : "_ZTIRKNSt3__110shared_ptrIN4aidl7android8hardware5radio9messaging15IRadioMessagingEEE",
   "name" : "const std::shared_ptr<aidl::android::hardware::radio::messaging::IRadioMessaging> &",
   "referenced_type" : "_ZTIKNSt3__110shared_ptrIN4aidl7android8hardware5radio9messaging15IRadioMessagingEEE",
   "self_type" : "_ZTIRKNSt3__110shared_ptrIN4aidl7android8hardware5radio9messaging15IRadioMessagingEEE",
   "size" : 4,
   "source_file" : "out/soong/.intermediates/hardware/interfaces/radio/aidl/android.hardware.radio.messaging-V1-ndk-source/gen/include/aidl/android/hardware/radio/messaging/IRadioMessaging.h"
  },
  {
   "alignment" : 4,
   "linker_set_key" : "_ZTIRKNSt3__110shared_ptrIN4aidl7android8hardware5radio9messaging23IRadioMessagingResponseEEE",
   "name" : "const std::shared_ptr<aidl::android::hardware::radio::messaging::IRadioMessagingResponse> &",
   "referenced_type" : "_ZTIKNSt3__110shared_ptrIN4aidl7android8hardware5radio9messaging23IRadioMessagingResponseEEE",
   "self_type" : "_ZTIRKNSt3__110shared_ptrIN4aidl7android8hardware5radio9messaging23IRadioMessagingResponseEEE",
   "size" : 4,
   "source_file" : "out/soong/.intermediates/hardware/interfaces/radio/aidl/android.hardware.radio.messaging-V1-ndk-source/gen/include/aidl/android/hardware/radio/messaging/IRadioMessaging.h"
  },
  {
   "alignment" : 4,
   "linker_set_key" : "_ZTIRKNSt3__110shared_ptrIN4aidl7android8hardware5radio9messaging25IRadioMessagingIndicationEEE",
   "name" : "const std::shared_ptr<aidl::android::hardware::radio::messaging::IRadioMessagingIndication> &",
   "referenced_type" : "_ZTIKNSt3__110shared_ptrIN4aidl7android8hardware5radio9messaging25IRadioMessagingIndicationEEE",
   "self_type" : "_ZTIRKNSt3__110shared_ptrIN4aidl7android8hardware5radio9messaging25IRadioMessagingIndicationEEE",
   "size" : 4,
   "source_file" : "out/soong/.intermediates/hardware/interfaces/radio/aidl/android.hardware.radio.messaging-V1-ndk-source/gen/include/aidl/android/hardware/radio/messaging/IRadioMessaging.h"
  },
  {
   "alignment" : 4,
   "linker_set_key" : "_ZTIRKNSt3__112basic_stringIcNS_11char_traitsIcEENS_9allocatorIcEEEE",
   "name" : "const std::basic_string<char, std::char_traits<char>, std::allocator<char>> &",
   "referenced_type" : "_ZTIKNSt3__112basic_stringIcNS_11char_traitsIcEENS_9allocatorIcEEEE",
   "self_type" : "_ZTIRKNSt3__112basic_stringIcNS_11char_traitsIcEENS_9allocatorIcEEEE",
   "size" : 4,
   "source_file" : "frameworks/native/libs/binder/ndk/include_cpp/android/binder_to_string.h"
  },
  {
   "alignment" : 4,
   "linker_set_key" : "_ZTIRKNSt3__16vectorIDsNS_9allocatorIDsEEEE",
   "name" : "const std::vector<char16_t, std::allocator<char16_t>> &",
   "referenced_type" : "_ZTIKNSt3__16vectorIDsNS_9allocatorIDsEEEE",
   "self_type" : "_ZTIRKNSt3__16vectorIDsNS_9allocatorIDsEEEE",
   "size" : 4,
   "source_file" : "frameworks/native/libs/binder/ndk/include_cpp/android/binder_parcel_utils.h"
  },
  {
   "alignment" : 4,
   "linker_set_key" : "_ZTIRKNSt3__16vectorIN4aidl7android8hardware5radio9messaging13GsmSmsMessageENS_9allocatorIS6_EEEE",
   "name" : "const std::vector<aidl::android::hardware::radio::messaging::GsmSmsMessage, std::allocator<aidl::android::hardware::radio::messaging::GsmSmsMessage>> &",
   "referenced_type" : "_ZTIKNSt3__16vectorIN4aidl7android8hardware5radio9messaging13GsmSmsMessageENS_9allocatorIS6_EEEE",
   "self_type" : "_ZTIRKNSt3__16vectorIN4aidl7android8hardware5radio9messaging13GsmSmsMessageENS_9allocatorIS6_EEEE",
   "size" : 4,
   "source_file" : "frameworks/native/libs/binder/ndk/include_cpp/android/binder_to_string.h"
  },
  {
   "alignment" : 4,
   "linker_set_key" : "_ZTIRKNSt3__16vectorIN4aidl7android8hardware5radio9messaging14CdmaSmsMessageENS_9allocatorIS6_EEEE",
   "name" : "const std::vector<aidl::android::hardware::radio::messaging::CdmaSmsMessage, std::allocator<aidl::android::hardware::radio::messaging::CdmaSmsMessage>> &",
   "referenced_type" : "_ZTIKNSt3__16vectorIN4aidl7android8hardware5radio9messaging14CdmaSmsMessageENS_9allocatorIS6_EEEE",
   "self_type" : "_ZTIRKNSt3__16vectorIN4aidl7android8hardware5radio9messaging14CdmaSmsMessageENS_9allocatorIS6_EEEE",
   "size" : 4,
   "source_file" : "frameworks/native/libs/binder/ndk/include_cpp/android/binder_to_string.h"
  },
  {
   "alignment" : 4,
   "linker_set_key" : "_ZTIRKNSt3__16vectorIN4aidl7android8hardware5radio9messaging25GsmBroadcastSmsConfigInfoENS_9allocatorIS6_EEEE",
   "name" : "const std::vector<aidl::android::hardware::radio::messaging::GsmBroadcastSmsConfigInfo, std::allocator<aidl::android::hardware::radio::messaging::GsmBroadcastSmsConfigInfo>> &",
   "referenced_type" : "_ZTIKNSt3__16vectorIN4aidl7android8hardware5radio9messaging25GsmBroadcastSmsConfigInfoENS_9allocatorIS6_EEEE",
   "self_type" : "_ZTIRKNSt3__16vectorIN4aidl7android8hardware5radio9messaging25GsmBroadcastSmsConfigInfoENS_9allocatorIS6_EEEE",
   "size" : 4,
   "source_file" : "out/soong/.intermediates/hardware/interfaces/radio/aidl/android.hardware.radio.messaging-V1-ndk-source/gen/include/aidl/android/hardware/radio/messaging/IRadioMessaging.h"
  },
  {
   "alignment" : 4,
   "linker_set_key" : "_ZTIRKNSt3__16vectorIN4aidl7android8hardware5radio9messaging26CdmaBroadcastSmsConfigInfoENS_9allocatorIS6_EEEE",
   "name" : "const std::vector<aidl::android::hardware::radio::messaging::CdmaBroadcastSmsConfigInfo, std::allocator<aidl::android::hardware::radio::messaging::CdmaBroadcastSmsConfigInfo>> &",
   "referenced_type" : "_ZTIKNSt3__16vectorIN4aidl7android8hardware5radio9messaging26CdmaBroadcastSmsConfigInfoENS_9allocatorIS6_EEEE",
   "self_type" : "_ZTIRKNSt3__16vectorIN4aidl7android8hardware5radio9messaging26CdmaBroadcastSmsConfigInfoENS_9allocatorIS6_EEEE",
   "size" : 4,
   "source_file" : "out/soong/.intermediates/hardware/interfaces/radio/aidl/android.hardware.radio.messaging-V1-ndk-source/gen/include/aidl/android/hardware/radio/messaging/IRadioMessaging.h"
  },
  {
   "alignment" : 4,
   "linker_set_key" : "_ZTIRKNSt3__16vectorIbNS_9allocatorIbEEEE",
   "name" : "const std::vector<bool, std::allocator<bool>> &",
   "referenced_type" : "_ZTIKNSt3__16vectorIbNS_9allocatorIbEEEE",
   "self_type" : "_ZTIRKNSt3__16vectorIbNS_9allocatorIbEEEE",
   "size" : 4,
   "source_file" : "frameworks/native/libs/binder/ndk/include_cpp/android/binder_parcel_utils.h"
  },
  {
   "alignment" : 4,
   "linker_set_key" : "_ZTIRKNSt3__16vectorIdNS_9allocatorIdEEEE",
   "name" : "const std::vector<double, std::allocator<double>> &",
   "referenced_type" : "_ZTIKNSt3__16vectorIdNS_9allocatorIdEEEE",
   "self_type" : "_ZTIRKNSt3__16vectorIdNS_9allocatorIdEEEE",
   "size" : 4,
   "source_file" : "frameworks/native/libs/binder/ndk/include_cpp/android/binder_parcel_utils.h"
  },
  {
   "alignment" : 4,
   "linker_set_key" : "_ZTIRKNSt3__16vectorIfNS_9allocatorIfEEEE",
   "name" : "const std::vector<float, std::allocator<float>> &",
   "referenced_type" : "_ZTIKNSt3__16vectorIfNS_9allocatorIfEEEE",
   "self_type" : "_ZTIRKNSt3__16vectorIfNS_9allocatorIfEEEE",
   "size" : 4,
   "source_file" : "frameworks/native/libs/binder/ndk/include_cpp/android/binder_parcel_utils.h"
  },
  {
   "alignment" : 4,
   "linker_set_key" : "_ZTIRKNSt3__16vectorIhNS_9allocatorIhEEEE",
   "name" : "const std::vector<unsigned char, std::allocator<unsigned char>> &",
   "referenced_type" : "_ZTIKNSt3__16vectorIhNS_9allocatorIhEEEE",
   "self_type" : "_ZTIRKNSt3__16vectorIhNS_9allocatorIhEEEE",
   "size" : 4,
   "source_file" : "frameworks/native/libs/binder/ndk/include_cpp/android/binder_parcel_utils.h"
  },
  {
   "alignment" : 4,
   "linker_set_key" : "_ZTIRKNSt3__16vectorIiNS_9allocatorIiEEEE",
   "name" : "const std::vector<int, std::allocator<int>> &",
   "referenced_type" : "_ZTIKNSt3__16vectorIiNS_9allocatorIiEEEE",
   "self_type" : "_ZTIRKNSt3__16vectorIiNS_9allocatorIiEEEE",
   "size" : 4,
   "source_file" : "frameworks/native/libs/binder/ndk/include_cpp/android/binder_parcel_utils.h"
  },
  {
   "alignment" : 4,
   "linker_set_key" : "_ZTIRKNSt3__16vectorIjNS_9allocatorIjEEEE",
   "name" : "const std::vector<unsigned int, std::allocator<unsigned int>> &",
   "referenced_type" : "_ZTIKNSt3__16vectorIjNS_9allocatorIjEEEE",
   "self_type" : "_ZTIRKNSt3__16vectorIjNS_9allocatorIjEEEE",
   "size" : 4,
   "source_file" : "frameworks/native/libs/binder/ndk/include_cpp/android/binder_parcel_utils.h"
  },
  {
   "alignment" : 4,
   "linker_set_key" : "_ZTIRKNSt3__16vectorIxNS_9allocatorIxEEEE",
   "name" : "const std::vector<long long, std::allocator<long long>> &",
   "referenced_type" : "_ZTIKNSt3__16vectorIxNS_9allocatorIxEEEE",
   "self_type" : "_ZTIRKNSt3__16vectorIxNS_9allocatorIxEEEE",
   "size" : 4,
   "source_file" : "frameworks/native/libs/binder/ndk/include_cpp/android/binder_parcel_utils.h"
  },
  {
   "alignment" : 4,
   "linker_set_key" : "_ZTIRKNSt3__16vectorIyNS_9allocatorIyEEEE",
   "name" : "const std::vector<unsigned long long, std::allocator<unsigned long long>> &",
   "referenced_type" : "_ZTIKNSt3__16vectorIyNS_9allocatorIyEEEE",
   "self_type" : "_ZTIRKNSt3__16vectorIyNS_9allocatorIyEEEE",
   "size" : 4,
   "source_file" : "frameworks/native/libs/binder/ndk/include_cpp/android/binder_parcel_utils.h"
  },
  {
   "alignment" : 4,
   "linker_set_key" : "_ZTIRKNSt3__18optionalINS_6vectorIDsNS_9allocatorIDsEEEEEE",
   "name" : "const std::optional<std::vector<char16_t, std::allocator<char16_t>>> &",
   "referenced_type" : "_ZTIKNSt3__18optionalINS_6vectorIDsNS_9allocatorIDsEEEEEE",
   "self_type" : "_ZTIRKNSt3__18optionalINS_6vectorIDsNS_9allocatorIDsEEEEEE",
   "size" : 4,
   "source_file" : "frameworks/native/libs/binder/ndk/include_cpp/android/binder_parcel_utils.h"
  },
  {
   "alignment" : 4,
   "linker_set_key" : "_ZTIRKNSt3__18optionalINS_6vectorIbNS_9allocatorIbEEEEEE",
   "name" : "const std::optional<std::vector<bool, std::allocator<bool>>> &",
   "referenced_type" : "_ZTIKNSt3__18optionalINS_6vectorIbNS_9allocatorIbEEEEEE",
   "self_type" : "_ZTIRKNSt3__18optionalINS_6vectorIbNS_9allocatorIbEEEEEE",
   "size" : 4,
   "source_file" : "frameworks/native/libs/binder/ndk/include_cpp/android/binder_parcel_utils.h"
  },
  {
   "alignment" : 4,
   "linker_set_key" : "_ZTIRKNSt3__18optionalINS_6vectorIdNS_9allocatorIdEEEEEE",
   "name" : "const std::optional<std::vector<double, std::allocator<double>>> &",
   "referenced_type" : "_ZTIKNSt3__18optionalINS_6vectorIdNS_9allocatorIdEEEEEE",
   "self_type" : "_ZTIRKNSt3__18optionalINS_6vectorIdNS_9allocatorIdEEEEEE",
   "size" : 4,
   "source_file" : "frameworks/native/libs/binder/ndk/include_cpp/android/binder_parcel_utils.h"
  },
  {
   "alignment" : 4,
   "linker_set_key" : "_ZTIRKNSt3__18optionalINS_6vectorIfNS_9allocatorIfEEEEEE",
   "name" : "const std::optional<std::vector<float, std::allocator<float>>> &",
   "referenced_type" : "_ZTIKNSt3__18optionalINS_6vectorIfNS_9allocatorIfEEEEEE",
   "self_type" : "_ZTIRKNSt3__18optionalINS_6vectorIfNS_9allocatorIfEEEEEE",
   "size" : 4,
   "source_file" : "frameworks/native/libs/binder/ndk/include_cpp/android/binder_parcel_utils.h"
  },
  {
   "alignment" : 4,
   "linker_set_key" : "_ZTIRKNSt3__18optionalINS_6vectorIhNS_9allocatorIhEEEEEE",
   "name" : "const std::optional<std::vector<unsigned char, std::allocator<unsigned char>>> &",
   "referenced_type" : "_ZTIKNSt3__18optionalINS_6vectorIhNS_9allocatorIhEEEEEE",
   "self_type" : "_ZTIRKNSt3__18optionalINS_6vectorIhNS_9allocatorIhEEEEEE",
   "size" : 4,
   "source_file" : "frameworks/native/libs/binder/ndk/include_cpp/android/binder_parcel_utils.h"
  },
  {
   "alignment" : 4,
   "linker_set_key" : "_ZTIRKNSt3__18optionalINS_6vectorIiNS_9allocatorIiEEEEEE",
   "name" : "const std::optional<std::vector<int, std::allocator<int>>> &",
   "referenced_type" : "_ZTIKNSt3__18optionalINS_6vectorIiNS_9allocatorIiEEEEEE",
   "self_type" : "_ZTIRKNSt3__18optionalINS_6vectorIiNS_9allocatorIiEEEEEE",
   "size" : 4,
   "source_file" : "frameworks/native/libs/binder/ndk/include_cpp/android/binder_parcel_utils.h"
  },
  {
   "alignment" : 4,
   "linker_set_key" : "_ZTIRKNSt3__18optionalINS_6vectorIjNS_9allocatorIjEEEEEE",
   "name" : "const std::optional<std::vector<unsigned int, std::allocator<unsigned int>>> &",
   "referenced_type" : "_ZTIKNSt3__18optionalINS_6vectorIjNS_9allocatorIjEEEEEE",
   "self_type" : "_ZTIRKNSt3__18optionalINS_6vectorIjNS_9allocatorIjEEEEEE",
   "size" : 4,
   "source_file" : "frameworks/native/libs/binder/ndk/include_cpp/android/binder_parcel_utils.h"
  },
  {
   "alignment" : 4,
   "linker_set_key" : "_ZTIRKNSt3__18optionalINS_6vectorIxNS_9allocatorIxEEEEEE",
   "name" : "const std::optional<std::vector<long long, std::allocator<long long>>> &",
   "referenced_type" : "_ZTIKNSt3__18optionalINS_6vectorIxNS_9allocatorIxEEEEEE",
   "self_type" : "_ZTIRKNSt3__18optionalINS_6vectorIxNS_9allocatorIxEEEEEE",
   "size" : 4,
   "source_file" : "frameworks/native/libs/binder/ndk/include_cpp/android/binder_parcel_utils.h"
  },
  {
   "alignment" : 4,
   "linker_set_key" : "_ZTIRKNSt3__18optionalINS_6vectorIyNS_9allocatorIyEEEEEE",
   "name" : "const std::optional<std::vector<unsigned long long, std::allocator<unsigned long long>>> &",
   "referenced_type" : "_ZTIKNSt3__18optionalINS_6vectorIyNS_9allocatorIyEEEEEE",
   "self_type" : "_ZTIRKNSt3__18optionalINS_6vectorIyNS_9allocatorIyEEEEEE",
   "size" : 4,
   "source_file" : "frameworks/native/libs/binder/ndk/include_cpp/android/binder_parcel_utils.h"
  },
  {
   "alignment" : 4,
   "linker_set_key" : "_ZTIRKb",
   "name" : "const bool &",
   "referenced_type" : "_ZTIKb",
   "self_type" : "_ZTIRKb",
   "size" : 4,
   "source_file" : "frameworks/native/libs/binder/ndk/include_cpp/android/binder_to_string.h"
  },
  {
   "alignment" : 4,
   "linker_set_key" : "_ZTIRKh",
   "name" : "const unsigned char &",
   "referenced_type" : "_ZTIKh",
   "self_type" : "_ZTIRKh",
   "size" : 4,
   "source_file" : "frameworks/native/libs/binder/ndk/include_cpp/android/binder_to_string.h"
  },
  {
   "alignment" : 4,
   "linker_set_key" : "_ZTIRKi",
   "name" : "const int &",
   "referenced_type" : "_ZTIKi",
   "self_type" : "_ZTIRKi",
   "size" : 4,
   "source_file" : "frameworks/native/libs/binder/ndk/include_cpp/android/binder_to_string.h"
  },
  {
   "alignment" : 4,
   "linker_set_key" : "_ZTIRN3ndk10SpAIBinderE",
   "name" : "ndk::SpAIBinder &",
   "referenced_type" : "_ZTIN3ndk10SpAIBinderE",
   "self_type" : "_ZTIRN3ndk10SpAIBinderE",
   "size" : 4,
   "source_file" : "frameworks/native/libs/binder/ndk/include_cpp/android/binder_auto_utils.h"
  },
  {
   "alignment" : 4,
   "linker_set_key" : "_ZTIRN3ndk13ScopedAParcelE",
   "name" : "ndk::ScopedAParcel &",
   "referenced_type" : "_ZTIN3ndk13ScopedAParcelE",
   "self_type" : "_ZTIRN3ndk13ScopedAParcelE",
   "size" : 4,
   "source_file" : "frameworks/native/libs/binder/ndk/include_cpp/android/binder_auto_utils.h"
  },
  {
   "alignment" : 4,
   "linker_set_key" : "_ZTIRN3ndk13ScopedAStatusE",
   "name" : "ndk::ScopedAStatus &",
   "referenced_type" : "_ZTIN3ndk13ScopedAStatusE",
   "self_type" : "_ZTIRN3ndk13ScopedAStatusE",
   "size" : 4,
   "source_file" : "frameworks/native/libs/binder/ndk/include_cpp/android/binder_auto_utils.h"
  },
  {
   "alignment" : 4,
   "linker_set_key" : "_ZTIRN3ndk19ScopedAIBinder_WeakE",
   "name" : "ndk::ScopedAIBinder_Weak &",
   "referenced_type" : "_ZTIN3ndk19ScopedAIBinder_WeakE",
   "self_type" : "_ZTIRN3ndk19ScopedAIBinder_WeakE",
   "size" : 4,
   "source_file" : "frameworks/native/libs/binder/ndk/include_cpp/android/binder_auto_utils.h"
  },
  {
   "alignment" : 4,
   "linker_set_key" : "_ZTIRN3ndk20ScopedFileDescriptorE",
   "name" : "ndk::ScopedFileDescriptor &",
   "referenced_type" : "_ZTIN3ndk20ScopedFileDescriptorE",
   "self_type" : "_ZTIRN3ndk20ScopedFileDescriptorE",
   "size" : 4,
   "source_file" : "frameworks/native/libs/binder/ndk/include_cpp/android/binder_auto_utils.h"
  },
  {
   "alignment" : 4,
   "linker_set_key" : "_ZTIRN3ndk29ScopedAIBinder_DeathRecipientE",
   "name" : "ndk::ScopedAIBinder_DeathRecipient &",
   "referenced_type" : "_ZTIN3ndk29ScopedAIBinder_DeathRecipientE",
   "self_type" : "_ZTIRN3ndk29ScopedAIBinder_DeathRecipientE",
   "size" : 4,
   "source_file" : "frameworks/native/libs/binder/ndk/include_cpp/android/binder_auto_utils.h"
  },
  {
   "alignment" : 4,
   "linker_set_key" : "_ZTIRN3ndk4impl15ScopedAResourceIP7AStatusXadL_Z14AStatus_deleteEELS3_0EEE",
   "name" : "ndk::impl::ScopedAResource<AStatus *, &AStatus_delete, nullptr> &",
   "referenced_type" : "_ZTIN3ndk4impl15ScopedAResourceIP7AStatusXadL_Z14AStatus_deleteEELS3_0EEE",
   "self_type" : "_ZTIRN3ndk4impl15ScopedAResourceIP7AStatusXadL_Z14AStatus_deleteEELS3_0EEE",
   "size" : 4,
   "source_file" : "frameworks/native/libs/binder/ndk/include_cpp/android/binder_auto_utils.h"
  }
 ],
 "pointer_types" :
 [
  {
   "alignment" : 4,
   "linker_set_key" : "_ZTIP13AIBinder_Weak",
   "name" : "AIBinder_Weak *",
   "referenced_type" : "_ZTI13AIBinder_Weak",
   "self_type" : "_ZTIP13AIBinder_Weak",
   "size" : 4,
   "source_file" : "frameworks/native/libs/binder/ndk/include_cpp/android/binder_auto_utils.h"
  },
  {
   "alignment" : 4,
   "linker_set_key" : "_ZTIP14AIBinder_Class",
   "name" : "AIBinder_Class *",
   "referenced_type" : "_ZTI14AIBinder_Class",
   "self_type" : "_ZTIP14AIBinder_Class",
   "size" : 4,
   "source_file" : "frameworks/native/libs/binder/ndk/include_cpp/android/binder_interface_utils.h"
  },
  {
   "alignment" : 4,
   "linker_set_key" : "_ZTIP23AIBinder_DeathRecipient",
   "name" : "AIBinder_DeathRecipient *",
   "referenced_type" : "_ZTI23AIBinder_DeathRecipient",
   "self_type" : "_ZTIP23AIBinder_DeathRecipient",
   "size" : 4,
   "source_file" : "frameworks/native/libs/binder/ndk/include_cpp/android/binder_auto_utils.h"
  },
  {
   "alignment" : 4,
   "linker_set_key" : "_ZTIP7AParcel",
   "name" : "AParcel *",
   "referenced_type" : "_ZTI7AParcel",
   "self_type" : "_ZTIP7AParcel",
   "size" : 4,
   "source_file" : "frameworks/native/libs/binder/ndk/include_cpp/android/binder_auto_utils.h"
  },
  {
   "alignment" : 4,
   "linker_set_key" : "_ZTIP7AStatus",
   "name" : "AStatus *",
   "referenced_type" : "_ZTI7AStatus",
   "self_type" : "_ZTIP7AStatus",
   "size" : 4,
   "source_file" : "frameworks/native/libs/binder/ndk/include_cpp/android/binder_auto_utils.h"
  },
  {
   "alignment" : 4,
   "linker_set_key" : "_ZTIP8AIBinder",
   "name" : "AIBinder *",
   "referenced_type" : "_ZTI8AIBinder",
   "self_type" : "_ZTIP8AIBinder",
   "size" : 4,
   "source_file" : "frameworks/native/libs/binder/ndk/include_cpp/android/binder_auto_utils.h"
  },
  {
   "alignment" : 4,
   "linker_set_key" : "_ZTIPFiP8AIBinderjPK7AParcelPS1_E",
   "name" : "int (*)(AIBinder *, unsigned int, const AParcel *, AParcel *)",
   "referenced_type" : "_ZTIFiP8AIBinderjPK7AParcelPS1_E",
   "self_type" : "_ZTIPFiP8AIBinderjPK7AParcelPS1_E",
   "size" : 4,
   "source_file" : "frameworks/native/libs/binder/ndk/include_cpp/android/binder_interface_utils.h"
  },
  {
   "alignment" : 4,
   "linker_set_key" : "_ZTIPK7AParcel",
   "name" : "const AParcel *",
   "referenced_type" : "_ZTIK7AParcel",
   "self_type" : "_ZTIPK7AParcel",
   "size" : 4,
   "source_file" : "frameworks/native/libs/binder/ndk/include_cpp/android/binder_interface_utils.h"
  },
  {
   "alignment" : 4,
   "linker_set_key" : "_ZTIPKN3ndk10SpAIBinderE",
   "name" : "const ndk::SpAIBinder *",
   "referenced_type" : "_ZTIKN3ndk10SpAIBinderE",
   "self_type" : "_ZTIPKN3ndk10SpAIBinderE",
   "size" : 4,
   "source_file" : "frameworks/native/libs/binder/ndk/include_cpp/android/binder_auto_utils.h"
  },
  {
   "alignment" : 4,
   "linker_set_key" : "_ZTIPKN3ndk13ScopedAParcelE",
   "name" : "const ndk::ScopedAParcel *",
   "referenced_type" : "_ZTIKN3ndk13ScopedAParcelE",
   "self_type" : "_ZTIPKN3ndk13ScopedAParcelE",
   "size" : 4,
   "source_file" : "frameworks/native/libs/binder/ndk/include_cpp/android/binder_auto_utils.h"
  },
  {
   "alignment" : 4,
   "linker_set_key" : "_ZTIPKN3ndk13ScopedAStatusE",
   "name" : "const ndk::ScopedAStatus *",
   "referenced_type" : "_ZTIKN3ndk13ScopedAStatusE",
   "self_type" : "_ZTIPKN3ndk13ScopedAStatusE",
   "size" : 4,
   "source_file" : "frameworks/native/libs/binder/ndk/include_cpp/android/binder_auto_utils.h"
  },
  {
   "alignment" : 4,
   "linker_set_key" : "_ZTIPKN3ndk17AParcelableHolderE",
   "name" : "const ndk::AParcelableHolder *",
   "referenced_type" : "_ZTIKN3ndk17AParcelableHolderE",
   "self_type" : "_ZTIPKN3ndk17AParcelableHolderE",
   "size" : 4,
   "source_file" : "frameworks/native/libs/binder/ndk/include_cpp/android/binder_parcelable_utils.h"
  },
  {
   "alignment" : 4,
   "linker_set_key" : "_ZTIPKN3ndk20ScopedFileDescriptorE",
   "name" : "const ndk::ScopedFileDescriptor *",
   "referenced_type" : "_ZTIKN3ndk20ScopedFileDescriptorE",
   "self_type" : "_ZTIPKN3ndk20ScopedFileDescriptorE",
   "size" : 4,
   "source_file" : "frameworks/native/libs/binder/ndk/include_cpp/android/binder_auto_utils.h"
  },
  {
   "alignment" : 4,
   "linker_set_key" : "_ZTIPKN3ndk4impl15ScopedAResourceIP7AParcelXadL_Z14AParcel_deleteEELS3_0EEE",
   "name" : "const ndk::impl::ScopedAResource<AParcel *, &AParcel_delete, nullptr> *",
   "referenced_type" : "_ZTIKN3ndk4impl15ScopedAResourceIP7AParcelXadL_Z14AParcel_deleteEELS3_0EEE",
   "self_type" : "_ZTIPKN3ndk4impl15ScopedAResourceIP7AParcelXadL_Z14AParcel_deleteEELS3_0EEE",
   "size" : 4,
   "source_file" : "frameworks/native/libs/binder/ndk/include_cpp/android/binder_auto_utils.h"
  },
  {
   "alignment" : 4,
   "linker_set_key" : "_ZTIPKN3ndk4impl15ScopedAResourceIP7AStatusXadL_Z14AStatus_deleteEELS3_0EEE",
   "name" : "const ndk::impl::ScopedAResource<AStatus *, &AStatus_delete, nullptr> *",
   "referenced_type" : "_ZTIKN3ndk4impl15ScopedAResourceIP7AStatusXadL_Z14AStatus_deleteEELS3_0EEE",
   "self_type" : "_ZTIPKN3ndk4impl15ScopedAResourceIP7AStatusXadL_Z14AStatus_deleteEELS3_0EEE",
   "size" : 4,
   "source_file" : "frameworks/native/libs/binder/ndk/include_cpp/android/binder_auto_utils.h"
  },
  {
   "alignment" : 4,
   "linker_set_key" : "_ZTIPKN4aidl7android8hardware5radio17RadioResponseInfoE",
   "name" : "const aidl::android::hardware::radio::RadioResponseInfo *",
   "referenced_type" : "_ZTIKN4aidl7android8hardware5radio17RadioResponseInfoE",
   "self_type" : "_ZTIPKN4aidl7android8hardware5radio17RadioResponseInfoE",
   "size" : 4,
   "source_file" : "out/soong/.intermediates/hardware/interfaces/radio/aidl/android.hardware.radio-V1-ndk-source/gen/include/aidl/android/hardware/radio/RadioResponseInfo.h"
  },
  {
   "alignment" : 4,
   "linker_set_key" : "_ZTIPKN4aidl7android8hardware5radio9messaging10CdmaSmsAckE",
   "name" : "const aidl::android::hardware::radio::messaging::CdmaSmsAck *",
   "referenced_type" : "_ZTIKN4aidl7android8hardware5radio9messaging10CdmaSmsAckE",
   "self_type" : "_ZTIPKN4aidl7android8hardware5radio9messaging10CdmaSmsAckE",
   "size" : 4,
   "source_file" : "out/soong/.intermediates/hardware/interfaces/radio/aidl/android.hardware.radio.messaging-V1-ndk-source/gen/include/aidl/android/hardware/radio/messaging/CdmaSmsAck.h"
  },
  {
   "alignment" : 4,
   "linker_set_key" : "_ZTIPKN4aidl7android8hardware5radio9messaging12SmsWriteArgsE",
   "name" : "const aidl::android::hardware::radio::messaging::SmsWriteArgs *",
   "referenced_type" : "_ZTIKN4aidl7android8hardware5radio9messaging12SmsWriteArgsE",
   "self_type" : "_ZTIPKN4aidl7android8hardware5radio9messaging12SmsWriteArgsE",
   "size" : 4,
   "source_file" : "out/soong/.intermediates/hardware/interfaces/radio/aidl/android.hardware.radio.messaging-V1-ndk-source/gen/include/aidl/android/hardware/radio/messaging/SmsWriteArgs.h"
  },
  {
   "alignment" : 4,
   "linker_set_key" : "_ZTIPKN4aidl7android8hardware5radio9messaging13GsmSmsMessageE",
   "name" : "const aidl::android::hardware::radio::messaging::GsmSmsMessage *",
   "referenced_type" : "_ZTIKN4aidl7android8hardware5radio9messaging13GsmSmsMessageE",
   "self_type" : "_ZTIPKN4aidl7android8hardware5radio9messaging13GsmSmsMessageE",
   "size" : 4,
   "source_file" : "out/soong/.intermediates/hardware/interfaces/radio/aidl/android.hardware.radio.messaging-V1-ndk-source/gen/include/aidl/android/hardware/radio/messaging/GsmSmsMessage.h"
  },
  {
   "alignment" : 4,
   "linker_set_key" : "_ZTIPKN4aidl7android8hardware5radio9messaging13ImsSmsMessageE",
   "name" : "const aidl::android::hardware::radio::messaging::ImsSmsMessage *",
   "referenced_type" : "_ZTIKN4aidl7android8hardware5radio9messaging13ImsSmsMessageE",
   "self_type" : "_ZTIPKN4aidl7android8hardware5radio9messaging13ImsSmsMessageE",
   "size" : 4,
   "source_file" : "out/soong/.intermediates/hardware/interfaces/radio/aidl/android.hardware.radio.messaging-V1-ndk-source/gen/include/aidl/android/hardware/radio/messaging/ImsSmsMessage.h"
  },
  {
   "alignment" : 4,
   "linker_set_key" : "_ZTIPKN4aidl7android8hardware5radio9messaging13SendSmsResultE",
   "name" : "const aidl::android::hardware::radio::messaging::SendSmsResult *",
   "referenced_type" : "_ZTIKN4aidl7android8hardware5radio9messaging13SendSmsResultE",
   "self_type" : "_ZTIPKN4aidl7android8hardware5radio9messaging13SendSmsResultE",
   "size" : 4,
   "source_file" : "out/soong/.intermediates/hardware/interfaces/radio/aidl/android.hardware.radio.messaging-V1-ndk-source/gen/include/aidl/android/hardware/radio/messaging/SendSmsResult.h"
  },
  {
   "alignment" : 4,
   "linker_set_key" : "_ZTIPKN4aidl7android8hardware5radio9messaging14CdmaSmsAddressE",
   "name" : "const aidl::android::hardware::radio::messaging::CdmaSmsAddress *",
   "referenced_type" : "_ZTIKN4aidl7android8hardware5radio9messaging14CdmaSmsAddressE",
   "self_type" : "_ZTIPKN4aidl7android8hardware5radio9messaging14CdmaSmsAddressE",
   "size" : 4,
   "source_file" : "out/soong/.intermediates/hardware/interfaces/radio/aidl/android.hardware.radio.messaging-V1-ndk-source/gen/include/aidl/android/hardware/radio/messaging/CdmaSmsAddress.h"
  },
  {
   "alignment" : 4,
   "linker_set_key" : "_ZTIPKN4aidl7android8hardware5radio9messaging14CdmaSmsMessageE",
   "name" : "const aidl::android::hardware::radio::messaging::CdmaSmsMessage *",
   "referenced_type" : "_ZTIKN4aidl7android8hardware5radio9messaging14CdmaSmsMessageE",
   "self_type" : "_ZTIPKN4aidl7android8hardware5radio9messaging14CdmaSmsMessageE",
   "size" : 4,
   "source_file" : "out/soong/.intermediates/hardware/interfaces/radio/aidl/android.hardware.radio.messaging-V1-ndk-source/gen/include/aidl/android/hardware/radio/messaging/CdmaSmsMessage.h"
  },
  {
   "alignment" : 4,
   "linker_set_key" : "_ZTIPKN4aidl7android8hardware5radio9messaging16CdmaSmsWriteArgsE",
   "name" : "const aidl::android::hardware::radio::messaging::CdmaSmsWriteArgs *",
   "referenced_type" : "_ZTIKN4aidl7android8hardware5radio9messaging16CdmaSmsWriteArgsE",
   "self_type" : "_ZTIPKN4aidl7android8hardware5radio9messaging16CdmaSmsWriteArgsE",
   "size" : 4,
   "source_file" : "out/soong/.intermediates/hardware/interfaces/radio/aidl/android.hardware.radio.messaging-V1-ndk-source/gen/include/aidl/android/hardware/radio/messaging/CdmaSmsWriteArgs.h"
  },
  {
   "alignment" : 4,
   "linker_set_key" : "_ZTIPKN4aidl7android8hardware5radio9messaging17CdmaSmsSubaddressE",
   "name" : "const aidl::android::hardware::radio::messaging::CdmaSmsSubaddress *",
   "referenced_type" : "_ZTIKN4aidl7android8hardware5radio9messaging17CdmaSmsSubaddressE",
   "self_type" : "_ZTIPKN4aidl7android8hardware5radio9messaging17CdmaSmsSubaddressE",
   "size" : 4,
   "source_file" : "out/soong/.intermediates/hardware/interfaces/radio/aidl/android.hardware.radio.messaging-V1-ndk-source/gen/include/aidl/android/hardware/radio/messaging/CdmaSmsSubaddress.h"
  },
  {
   "alignment" : 4,
   "linker_set_key" : "_ZTIPKN4aidl7android8hardware5radio9messaging25GsmBroadcastSmsConfigInfoE",
   "name" : "const aidl::android::hardware::radio::messaging::GsmBroadcastSmsConfigInfo *",
   "referenced_type" : "_ZTIKN4aidl7android8hardware5radio9messaging25GsmBroadcastSmsConfigInfoE",
   "self_type" : "_ZTIPKN4aidl7android8hardware5radio9messaging25GsmBroadcastSmsConfigInfoE",
   "size" : 4,
   "source_file" : "out/soong/.intermediates/hardware/interfaces/radio/aidl/android.hardware.radio.messaging-V1-ndk-source/gen/include/aidl/android/hardware/radio/messaging/GsmBroadcastSmsConfigInfo.h"
  },
  {
   "alignment" : 4,
   "linker_set_key" : "_ZTIPKN4aidl7android8hardware5radio9messaging26CdmaBroadcastSmsConfigInfoE",
   "name" : "const aidl::android::hardware::radio::messaging::CdmaBroadcastSmsConfigInfo *",
   "referenced_type" : "_ZTIKN4aidl7android8hardware5radio9messaging26CdmaBroadcastSmsConfigInfoE",
   "self_type" : "_ZTIPKN4aidl7android8hardware5radio9messaging26CdmaBroadcastSmsConfigInfoE",
   "size" : 4,
   "source_file" : "out/soong/.intermediates/hardware/interfaces/radio/aidl/android.hardware.radio.messaging-V1-ndk-source/gen/include/aidl/android/hardware/radio/messaging/CdmaBroadcastSmsConfigInfo.h"
  },
  {
   "alignment" : 4,
   "linker_set_key" : "_ZTIPKc",
   "name" : "const char *",
   "referenced_type" : "_ZTIKc",
   "self_type" : "_ZTIPKc",
   "size" : 4,
   "source_file" : "frameworks/native/libs/binder/ndk/include_cpp/android/binder_auto_utils.h"
  },
  {
   "alignment" : 4,
   "linker_set_key" : "_ZTIPKv",
   "name" : "const void *",
   "referenced_type" : "_ZTIKv",
   "self_type" : "_ZTIPKv",
   "size" : 4,
   "source_file" : "frameworks/native/libs/binder/ndk/include_cpp/android/binder_parcel_utils.h"
  },
  {
   "alignment" : 4,
   "linker_set_key" : "_ZTIPN3ndk10SpAIBinderE",
   "name" : "ndk::SpAIBinder *",
   "referenced_type" : "_ZTIN3ndk10SpAIBinderE",
   "self_type" : "_ZTIPN3ndk10SpAIBinderE",
   "size" : 4,
   "source_file" : "frameworks/native/libs/binder/ndk/include_cpp/android/binder_auto_utils.h"
  },
  {
   "alignment" : 4,
   "linker_set_key" : "_ZTIPN3ndk11ICInterfaceE",
   "name" : "ndk::ICInterface *",
   "referenced_type" : "_ZTIN3ndk11ICInterfaceE",
   "self_type" : "_ZTIPN3ndk11ICInterfaceE",
   "size" : 4,
   "source_file" : "frameworks/native/libs/binder/ndk/include_cpp/android/binder_interface_utils.h"
  },
  {
   "alignment" : 4,
   "linker_set_key" : "_ZTIPN3ndk12BnCInterfaceIN4aidl7android8hardware5radio9messaging15IRadioMessagingEEE",
   "name" : "ndk::BnCInterface<aidl::android::hardware::radio::messaging::IRadioMessaging> *",
   "referenced_type" : "_ZTIN3ndk12BnCInterfaceIN4aidl7android8hardware5radio9messaging15IRadioMessagingEEE",
   "self_type" : "_ZTIPN3ndk12BnCInterfaceIN4aidl7android8hardware5radio9messaging15IRadioMessagingEEE",
   "size" : 4,
   "source_file" : "frameworks/native/libs/binder/ndk/include_cpp/android/binder_interface_utils.h"
  },
  {
   "alignment" : 4,
   "linker_set_key" : "_ZTIPN3ndk12BnCInterfaceIN4aidl7android8hardware5radio9messaging23IRadioMessagingResponseEEE",
   "name" : "ndk::BnCInterface<aidl::android::hardware::radio::messaging::IRadioMessagingResponse> *",
   "referenced_type" : "_ZTIN3ndk12BnCInterfaceIN4aidl7android8hardware5radio9messaging23IRadioMessagingResponseEEE",
   "self_type" : "_ZTIPN3ndk12BnCInterfaceIN4aidl7android8hardware5radio9messaging23IRadioMessagingResponseEEE",
   "size" : 4,
   "source_file" : "frameworks/native/libs/binder/ndk/include_cpp/android/binder_interface_utils.h"
  },
  {
   "alignment" : 4,
   "linker_set_key" : "_ZTIPN3ndk12BnCInterfaceIN4aidl7android8hardware5radio9messaging25IRadioMessagingIndicationEEE",
   "name" : "ndk::BnCInterface<aidl::android::hardware::radio::messaging::IRadioMessagingIndication> *",
   "referenced_type" : "_ZTIN3ndk12BnCInterfaceIN4aidl7android8hardware5radio9messaging25IRadioMessagingIndicationEEE",
   "self_type" : "_ZTIPN3ndk12BnCInterfaceIN4aidl7android8hardware5radio9messaging25IRadioMessagingIndicationEEE",
   "size" : 4,
   "source_file" : "frameworks/native/libs/binder/ndk/include_cpp/android/binder_interface_utils.h"
  },
  {
   "alignment" : 4,
   "linker_set_key" : "_ZTIPN3ndk12BpCInterfaceIN4aidl7android8hardware5radio9messaging15IRadioMessagingEEE",
   "name" : "ndk::BpCInterface<aidl::android::hardware::radio::messaging::IRadioMessaging> *",
   "referenced_type" : "_ZTIN3ndk12BpCInterfaceIN4aidl7android8hardware5radio9messaging15IRadioMessagingEEE",
   "self_type" : "_ZTIPN3ndk12BpCInterfaceIN4aidl7android8hardware5radio9messaging15IRadioMessagingEEE",
   "size" : 4,
   "source_file" : "frameworks/native/libs/binder/ndk/include_cpp/android/binder_interface_utils.h"
  },
  {
   "alignment" : 4,
   "linker_set_key" : "_ZTIPN3ndk12BpCInterfaceIN4aidl7android8hardware5radio9messaging23IRadioMessagingResponseEEE",
   "name" : "ndk::BpCInterface<aidl::android::hardware::radio::messaging::IRadioMessagingResponse> *",
   "referenced_type" : "_ZTIN3ndk12BpCInterfaceIN4aidl7android8hardware5radio9messaging23IRadioMessagingResponseEEE",
   "self_type" : "_ZTIPN3ndk12BpCInterfaceIN4aidl7android8hardware5radio9messaging23IRadioMessagingResponseEEE",
   "size" : 4,
   "source_file" : "frameworks/native/libs/binder/ndk/include_cpp/android/binder_interface_utils.h"
  },
  {
   "alignment" : 4,
   "linker_set_key" : "_ZTIPN3ndk12BpCInterfaceIN4aidl7android8hardware5radio9messaging25IRadioMessagingIndicationEEE",
   "name" : "ndk::BpCInterface<aidl::android::hardware::radio::messaging::IRadioMessagingIndication> *",
   "referenced_type" : "_ZTIN3ndk12BpCInterfaceIN4aidl7android8hardware5radio9messaging25IRadioMessagingIndicationEEE",
   "self_type" : "_ZTIPN3ndk12BpCInterfaceIN4aidl7android8hardware5radio9messaging25IRadioMessagingIndicationEEE",
   "size" : 4,
   "source_file" : "frameworks/native/libs/binder/ndk/include_cpp/android/binder_interface_utils.h"
  },
  {
   "alignment" : 4,
   "linker_set_key" : "_ZTIPN3ndk13ScopedAParcelE",
   "name" : "ndk::ScopedAParcel *",
   "referenced_type" : "_ZTIN3ndk13ScopedAParcelE",
   "self_type" : "_ZTIPN3ndk13ScopedAParcelE",
   "size" : 4,
   "source_file" : "frameworks/native/libs/binder/ndk/include_cpp/android/binder_auto_utils.h"
  },
  {
   "alignment" : 4,
   "linker_set_key" : "_ZTIPN3ndk13ScopedAStatusE",
   "name" : "ndk::ScopedAStatus *",
   "referenced_type" : "_ZTIN3ndk13ScopedAStatusE",
   "self_type" : "_ZTIPN3ndk13ScopedAStatusE",
   "size" : 4,
   "source_file" : "frameworks/native/libs/binder/ndk/include_cpp/android/binder_auto_utils.h"
  },
  {
   "alignment" : 4,
   "linker_set_key" : "_ZTIPN3ndk13SharedRefBaseE",
   "name" : "ndk::SharedRefBase *",
   "referenced_type" : "_ZTIN3ndk13SharedRefBaseE",
   "self_type" : "_ZTIPN3ndk13SharedRefBaseE",
   "size" : 4,
   "source_file" : "frameworks/native/libs/binder/ndk/include_cpp/android/binder_interface_utils.h"
  },
  {
   "alignment" : 4,
   "linker_set_key" : "_ZTIPN3ndk17AParcelableHolderE",
   "name" : "ndk::AParcelableHolder *",
   "referenced_type" : "_ZTIN3ndk17AParcelableHolderE",
   "self_type" : "_ZTIPN3ndk17AParcelableHolderE",
   "size" : 4,
   "source_file" : "frameworks/native/libs/binder/ndk/include_cpp/android/binder_parcelable_utils.h"
  },
  {
   "alignment" : 4,
   "linker_set_key" : "_ZTIPN3ndk19ScopedAIBinder_WeakE",
   "name" : "ndk::ScopedAIBinder_Weak *",
   "referenced_type" : "_ZTIN3ndk19ScopedAIBinder_WeakE",
   "self_type" : "_ZTIPN3ndk19ScopedAIBinder_WeakE",
   "size" : 4,
   "source_file" : "frameworks/native/libs/binder/ndk/include_cpp/android/binder_auto_utils.h"
  },
  {
   "alignment" : 4,
   "linker_set_key" : "_ZTIPN3ndk20ScopedFileDescriptorE",
   "name" : "ndk::ScopedFileDescriptor *",
   "referenced_type" : "_ZTIN3ndk20ScopedFileDescriptorE",
   "self_type" : "_ZTIPN3ndk20ScopedFileDescriptorE",
   "size" : 4,
   "source_file" : "frameworks/native/libs/binder/ndk/include_cpp/android/binder_auto_utils.h"
  },
  {
   "alignment" : 4,
   "linker_set_key" : "_ZTIPN3ndk29ScopedAIBinder_DeathRecipientE",
   "name" : "ndk::ScopedAIBinder_DeathRecipient *",
   "referenced_type" : "_ZTIN3ndk29ScopedAIBinder_DeathRecipientE",
   "self_type" : "_ZTIPN3ndk29ScopedAIBinder_DeathRecipientE",
   "size" : 4,
   "source_file" : "frameworks/native/libs/binder/ndk/include_cpp/android/binder_auto_utils.h"
  },
  {
   "alignment" : 4,
   "linker_set_key" : "_ZTIPN3ndk4impl15ScopedAResourceIP13AIBinder_WeakXadL_Z20AIBinder_Weak_deleteEELS3_0EEE",
   "name" : "ndk::impl::ScopedAResource<AIBinder_Weak *, &AIBinder_Weak_delete, nullptr> *",
   "referenced_type" : "_ZTIN3ndk4impl15ScopedAResourceIP13AIBinder_WeakXadL_Z20AIBinder_Weak_deleteEELS3_0EEE",
   "self_type" : "_ZTIPN3ndk4impl15ScopedAResourceIP13AIBinder_WeakXadL_Z20AIBinder_Weak_deleteEELS3_0EEE",
   "size" : 4,
   "source_file" : "frameworks/native/libs/binder/ndk/include_cpp/android/binder_auto_utils.h"
  },
  {
   "alignment" : 4,
   "linker_set_key" : "_ZTIPN3ndk4impl15ScopedAResourceIP23AIBinder_DeathRecipientXadL_Z30AIBinder_DeathRecipient_deleteEELS3_0EEE",
   "name" : "ndk::impl::ScopedAResource<AIBinder_DeathRecipient *, &AIBinder_DeathRecipient_delete, nullptr> *",
   "referenced_type" : "_ZTIN3ndk4impl15ScopedAResourceIP23AIBinder_DeathRecipientXadL_Z30AIBinder_DeathRecipient_deleteEELS3_0EEE",
   "self_type" : "_ZTIPN3ndk4impl15ScopedAResourceIP23AIBinder_DeathRecipientXadL_Z30AIBinder_DeathRecipient_deleteEELS3_0EEE",
   "size" : 4,
   "source_file" : "frameworks/native/libs/binder/ndk/include_cpp/android/binder_auto_utils.h"
  },
  {
   "alignment" : 4,
   "linker_set_key" : "_ZTIPN3ndk4impl15ScopedAResourceIP7AParcelXadL_Z14AParcel_deleteEELS3_0EEE",
   "name" : "ndk::impl::ScopedAResource<AParcel *, &AParcel_delete, nullptr> *",
   "referenced_type" : "_ZTIN3ndk4impl15ScopedAResourceIP7AParcelXadL_Z14AParcel_deleteEELS3_0EEE",
   "self_type" : "_ZTIPN3ndk4impl15ScopedAResourceIP7AParcelXadL_Z14AParcel_deleteEELS3_0EEE",
   "size" : 4,
   "source_file" : "frameworks/native/libs/binder/ndk/include_cpp/android/binder_auto_utils.h"
  },
  {
   "alignment" : 4,
   "linker_set_key" : "_ZTIPN3ndk4impl15ScopedAResourceIP7AStatusXadL_Z14AStatus_deleteEELS3_0EEE",
   "name" : "ndk::impl::ScopedAResource<AStatus *, &AStatus_delete, nullptr> *",
   "referenced_type" : "_ZTIN3ndk4impl15ScopedAResourceIP7AStatusXadL_Z14AStatus_deleteEELS3_0EEE",
   "self_type" : "_ZTIPN3ndk4impl15ScopedAResourceIP7AStatusXadL_Z14AStatus_deleteEELS3_0EEE",
   "size" : 4,
   "source_file" : "frameworks/native/libs/binder/ndk/include_cpp/android/binder_auto_utils.h"
  },
  {
   "alignment" : 4,
   "linker_set_key" : "_ZTIPN4aidl7android8hardware5radio9messaging10CdmaSmsAckE",
   "name" : "aidl::android::hardware::radio::messaging::CdmaSmsAck *",
   "referenced_type" : "_ZTIN4aidl7android8hardware5radio9messaging10CdmaSmsAckE",
   "self_type" : "_ZTIPN4aidl7android8hardware5radio9messaging10CdmaSmsAckE",
   "size" : 4,
   "source_file" : "out/soong/.intermediates/hardware/interfaces/radio/aidl/android.hardware.radio.messaging-V1-ndk-source/gen/include/aidl/android/hardware/radio/messaging/CdmaSmsAck.h"
  },
  {
   "alignment" : 4,
   "linker_set_key" : "_ZTIPN4aidl7android8hardware5radio9messaging12SmsWriteArgsE",
   "name" : "aidl::android::hardware::radio::messaging::SmsWriteArgs *",
   "referenced_type" : "_ZTIN4aidl7android8hardware5radio9messaging12SmsWriteArgsE",
   "self_type" : "_ZTIPN4aidl7android8hardware5radio9messaging12SmsWriteArgsE",
   "size" : 4,
   "source_file" : "out/soong/.intermediates/hardware/interfaces/radio/aidl/android.hardware.radio.messaging-V1-ndk-source/gen/include/aidl/android/hardware/radio/messaging/SmsWriteArgs.h"
  },
  {
   "alignment" : 4,
   "linker_set_key" : "_ZTIPN4aidl7android8hardware5radio9messaging13GsmSmsMessageE",
   "name" : "aidl::android::hardware::radio::messaging::GsmSmsMessage *",
   "referenced_type" : "_ZTIN4aidl7android8hardware5radio9messaging13GsmSmsMessageE",
   "self_type" : "_ZTIPN4aidl7android8hardware5radio9messaging13GsmSmsMessageE",
   "size" : 4,
   "source_file" : "out/soong/.intermediates/hardware/interfaces/radio/aidl/android.hardware.radio.messaging-V1-ndk-source/gen/include/aidl/android/hardware/radio/messaging/GsmSmsMessage.h"
  },
  {
   "alignment" : 4,
   "linker_set_key" : "_ZTIPN4aidl7android8hardware5radio9messaging13ImsSmsMessageE",
   "name" : "aidl::android::hardware::radio::messaging::ImsSmsMessage *",
   "referenced_type" : "_ZTIN4aidl7android8hardware5radio9messaging13ImsSmsMessageE",
   "self_type" : "_ZTIPN4aidl7android8hardware5radio9messaging13ImsSmsMessageE",
   "size" : 4,
   "source_file" : "out/soong/.intermediates/hardware/interfaces/radio/aidl/android.hardware.radio.messaging-V1-ndk-source/gen/include/aidl/android/hardware/radio/messaging/ImsSmsMessage.h"
  },
  {
   "alignment" : 4,
   "linker_set_key" : "_ZTIPN4aidl7android8hardware5radio9messaging13SendSmsResultE",
   "name" : "aidl::android::hardware::radio::messaging::SendSmsResult *",
   "referenced_type" : "_ZTIN4aidl7android8hardware5radio9messaging13SendSmsResultE",
   "self_type" : "_ZTIPN4aidl7android8hardware5radio9messaging13SendSmsResultE",
   "size" : 4,
   "source_file" : "out/soong/.intermediates/hardware/interfaces/radio/aidl/android.hardware.radio.messaging-V1-ndk-source/gen/include/aidl/android/hardware/radio/messaging/SendSmsResult.h"
  },
  {
   "alignment" : 4,
   "linker_set_key" : "_ZTIPN4aidl7android8hardware5radio9messaging14CdmaSmsAddressE",
   "name" : "aidl::android::hardware::radio::messaging::CdmaSmsAddress *",
   "referenced_type" : "_ZTIN4aidl7android8hardware5radio9messaging14CdmaSmsAddressE",
   "self_type" : "_ZTIPN4aidl7android8hardware5radio9messaging14CdmaSmsAddressE",
   "size" : 4,
   "source_file" : "out/soong/.intermediates/hardware/interfaces/radio/aidl/android.hardware.radio.messaging-V1-ndk-source/gen/include/aidl/android/hardware/radio/messaging/CdmaSmsAddress.h"
  },
  {
   "alignment" : 4,
   "linker_set_key" : "_ZTIPN4aidl7android8hardware5radio9messaging14CdmaSmsMessageE",
   "name" : "aidl::android::hardware::radio::messaging::CdmaSmsMessage *",
   "referenced_type" : "_ZTIN4aidl7android8hardware5radio9messaging14CdmaSmsMessageE",
   "self_type" : "_ZTIPN4aidl7android8hardware5radio9messaging14CdmaSmsMessageE",
   "size" : 4,
   "source_file" : "out/soong/.intermediates/hardware/interfaces/radio/aidl/android.hardware.radio.messaging-V1-ndk-source/gen/include/aidl/android/hardware/radio/messaging/CdmaSmsMessage.h"
  },
  {
   "alignment" : 4,
   "linker_set_key" : "_ZTIPN4aidl7android8hardware5radio9messaging15IRadioMessagingE",
   "name" : "aidl::android::hardware::radio::messaging::IRadioMessaging *",
   "referenced_type" : "_ZTIN4aidl7android8hardware5radio9messaging15IRadioMessagingE",
   "self_type" : "_ZTIPN4aidl7android8hardware5radio9messaging15IRadioMessagingE",
   "size" : 4,
   "source_file" : "out/soong/.intermediates/hardware/interfaces/radio/aidl/android.hardware.radio.messaging-V1-ndk-source/gen/include/aidl/android/hardware/radio/messaging/IRadioMessaging.h"
  },
  {
   "alignment" : 4,
   "linker_set_key" : "_ZTIPN4aidl7android8hardware5radio9messaging16BnRadioMessagingE",
   "name" : "aidl::android::hardware::radio::messaging::BnRadioMessaging *",
   "referenced_type" : "_ZTIN4aidl7android8hardware5radio9messaging16BnRadioMessagingE",
   "self_type" : "_ZTIPN4aidl7android8hardware5radio9messaging16BnRadioMessagingE",
   "size" : 4,
   "source_file" : "out/soong/.intermediates/hardware/interfaces/radio/aidl/android.hardware.radio.messaging-V1-ndk-source/gen/include/aidl/android/hardware/radio/messaging/BnRadioMessaging.h"
  },
  {
   "alignment" : 4,
   "linker_set_key" : "_ZTIPN4aidl7android8hardware5radio9messaging16BpRadioMessagingE",
   "name" : "aidl::android::hardware::radio::messaging::BpRadioMessaging *",
   "referenced_type" : "_ZTIN4aidl7android8hardware5radio9messaging16BpRadioMessagingE",
   "self_type" : "_ZTIPN4aidl7android8hardware5radio9messaging16BpRadioMessagingE",
   "size" : 4,
   "source_file" : "out/soong/.intermediates/hardware/interfaces/radio/aidl/android.hardware.radio.messaging-V1-ndk-source/gen/include/aidl/android/hardware/radio/messaging/BpRadioMessaging.h"
  },
  {
   "alignment" : 4,
   "linker_set_key" : "_ZTIPN4aidl7android8hardware5radio9messaging16CdmaSmsWriteArgsE",
   "name" : "aidl::android::hardware::radio::messaging::CdmaSmsWriteArgs *",
   "referenced_type" : "_ZTIN4aidl7android8hardware5radio9messaging16CdmaSmsWriteArgsE",
   "self_type" : "_ZTIPN4aidl7android8hardware5radio9messaging16CdmaSmsWriteArgsE",
   "size" : 4,
   "source_file" : "out/soong/.intermediates/hardware/interfaces/radio/aidl/android.hardware.radio.messaging-V1-ndk-source/gen/include/aidl/android/hardware/radio/messaging/CdmaSmsWriteArgs.h"
  },
  {
   "alignment" : 4,
   "linker_set_key" : "_ZTIPN4aidl7android8hardware5radio9messaging17CdmaSmsSubaddressE",
   "name" : "aidl::android::hardware::radio::messaging::CdmaSmsSubaddress *",
   "referenced_type" : "_ZTIN4aidl7android8hardware5radio9messaging17CdmaSmsSubaddressE",
   "self_type" : "_ZTIPN4aidl7android8hardware5radio9messaging17CdmaSmsSubaddressE",
   "size" : 4,
   "source_file" : "out/soong/.intermediates/hardware/interfaces/radio/aidl/android.hardware.radio.messaging-V1-ndk-source/gen/include/aidl/android/hardware/radio/messaging/CdmaSmsSubaddress.h"
  },
  {
   "alignment" : 4,
   "linker_set_key" : "_ZTIPN4aidl7android8hardware5radio9messaging22IRadioMessagingDefaultE",
   "name" : "aidl::android::hardware::radio::messaging::IRadioMessagingDefault *",
   "referenced_type" : "_ZTIN4aidl7android8hardware5radio9messaging22IRadioMessagingDefaultE",
   "self_type" : "_ZTIPN4aidl7android8hardware5radio9messaging22IRadioMessagingDefaultE",
   "size" : 4,
   "source_file" : "out/soong/.intermediates/hardware/interfaces/radio/aidl/android.hardware.radio.messaging-V1-ndk-source/gen/include/aidl/android/hardware/radio/messaging/IRadioMessaging.h"
  },
  {
   "alignment" : 4,
   "linker_set_key" : "_ZTIPN4aidl7android8hardware5radio9messaging23IRadioMessagingResponseE",
   "name" : "aidl::android::hardware::radio::messaging::IRadioMessagingResponse *",
   "referenced_type" : "_ZTIN4aidl7android8hardware5radio9messaging23IRadioMessagingResponseE",
   "self_type" : "_ZTIPN4aidl7android8hardware5radio9messaging23IRadioMessagingResponseE",
   "size" : 4,
   "source_file" : "out/soong/.intermediates/hardware/interfaces/radio/aidl/android.hardware.radio.messaging-V1-ndk-source/gen/include/aidl/android/hardware/radio/messaging/IRadioMessagingResponse.h"
  },
  {
   "alignment" : 4,
   "linker_set_key" : "_ZTIPN4aidl7android8hardware5radio9messaging24BnRadioMessagingResponseE",
   "name" : "aidl::android::hardware::radio::messaging::BnRadioMessagingResponse *",
   "referenced_type" : "_ZTIN4aidl7android8hardware5radio9messaging24BnRadioMessagingResponseE",
   "self_type" : "_ZTIPN4aidl7android8hardware5radio9messaging24BnRadioMessagingResponseE",
   "size" : 4,
   "source_file" : "out/soong/.intermediates/hardware/interfaces/radio/aidl/android.hardware.radio.messaging-V1-ndk-source/gen/include/aidl/android/hardware/radio/messaging/BnRadioMessagingResponse.h"
  },
  {
   "alignment" : 4,
   "linker_set_key" : "_ZTIPN4aidl7android8hardware5radio9messaging24BpRadioMessagingResponseE",
   "name" : "aidl::android::hardware::radio::messaging::BpRadioMessagingResponse *",
   "referenced_type" : "_ZTIN4aidl7android8hardware5radio9messaging24BpRadioMessagingResponseE",
   "self_type" : "_ZTIPN4aidl7android8hardware5radio9messaging24BpRadioMessagingResponseE",
   "size" : 4,
   "source_file" : "out/soong/.intermediates/hardware/interfaces/radio/aidl/android.hardware.radio.messaging-V1-ndk-source/gen/include/aidl/android/hardware/radio/messaging/BpRadioMessagingResponse.h"
  },
  {
   "alignment" : 4,
   "linker_set_key" : "_ZTIPN4aidl7android8hardware5radio9messaging24IRadioMessagingDelegatorE",
   "name" : "aidl::android::hardware::radio::messaging::IRadioMessagingDelegator *",
   "referenced_type" : "_ZTIN4aidl7android8hardware5radio9messaging24IRadioMessagingDelegatorE",
   "self_type" : "_ZTIPN4aidl7android8hardware5radio9messaging24IRadioMessagingDelegatorE",
   "size" : 4,
   "source_file" : "out/soong/.intermediates/hardware/interfaces/radio/aidl/android.hardware.radio.messaging-V1-ndk-source/gen/include/aidl/android/hardware/radio/messaging/BnRadioMessaging.h"
  },
  {
   "alignment" : 4,
   "linker_set_key" : "_ZTIPN4aidl7android8hardware5radio9messaging25GsmBroadcastSmsConfigInfoE",
   "name" : "aidl::android::hardware::radio::messaging::GsmBroadcastSmsConfigInfo *",
   "referenced_type" : "_ZTIN4aidl7android8hardware5radio9messaging25GsmBroadcastSmsConfigInfoE",
   "self_type" : "_ZTIPN4aidl7android8hardware5radio9messaging25GsmBroadcastSmsConfigInfoE",
   "size" : 4,
   "source_file" : "out/soong/.intermediates/hardware/interfaces/radio/aidl/android.hardware.radio.messaging-V1-ndk-source/gen/include/aidl/android/hardware/radio/messaging/GsmBroadcastSmsConfigInfo.h"
  },
  {
   "alignment" : 4,
   "linker_set_key" : "_ZTIPN4aidl7android8hardware5radio9messaging25IRadioMessagingIndicationE",
   "name" : "aidl::android::hardware::radio::messaging::IRadioMessagingIndication *",
   "referenced_type" : "_ZTIN4aidl7android8hardware5radio9messaging25IRadioMessagingIndicationE",
   "self_type" : "_ZTIPN4aidl7android8hardware5radio9messaging25IRadioMessagingIndicationE",
   "size" : 4,
   "source_file" : "out/soong/.intermediates/hardware/interfaces/radio/aidl/android.hardware.radio.messaging-V1-ndk-source/gen/include/aidl/android/hardware/radio/messaging/IRadioMessagingIndication.h"
  },
  {
   "alignment" : 4,
   "linker_set_key" : "_ZTIPN4aidl7android8hardware5radio9messaging26BnRadioMessagingIndicationE",
   "name" : "aidl::android::hardware::radio::messaging::BnRadioMessagingIndication *",
   "referenced_type" : "_ZTIN4aidl7android8hardware5radio9messaging26BnRadioMessagingIndicationE",
   "self_type" : "_ZTIPN4aidl7android8hardware5radio9messaging26BnRadioMessagingIndicationE",
   "size" : 4,
   "source_file" : "out/soong/.intermediates/hardware/interfaces/radio/aidl/android.hardware.radio.messaging-V1-ndk-source/gen/include/aidl/android/hardware/radio/messaging/BnRadioMessagingIndication.h"
  },
  {
   "alignment" : 4,
   "linker_set_key" : "_ZTIPN4aidl7android8hardware5radio9messaging26BpRadioMessagingIndicationE",
   "name" : "aidl::android::hardware::radio::messaging::BpRadioMessagingIndication *",
   "referenced_type" : "_ZTIN4aidl7android8hardware5radio9messaging26BpRadioMessagingIndicationE",
   "self_type" : "_ZTIPN4aidl7android8hardware5radio9messaging26BpRadioMessagingIndicationE",
   "size" : 4,
   "source_file" : "out/soong/.intermediates/hardware/interfaces/radio/aidl/android.hardware.radio.messaging-V1-ndk-source/gen/include/aidl/android/hardware/radio/messaging/BpRadioMessagingIndication.h"
  },
  {
   "alignment" : 4,
   "linker_set_key" : "_ZTIPN4aidl7android8hardware5radio9messaging26CdmaBroadcastSmsConfigInfoE",
   "name" : "aidl::android::hardware::radio::messaging::CdmaBroadcastSmsConfigInfo *",
   "referenced_type" : "_ZTIN4aidl7android8hardware5radio9messaging26CdmaBroadcastSmsConfigInfoE",
   "self_type" : "_ZTIPN4aidl7android8hardware5radio9messaging26CdmaBroadcastSmsConfigInfoE",
   "size" : 4,
   "source_file" : "out/soong/.intermediates/hardware/interfaces/radio/aidl/android.hardware.radio.messaging-V1-ndk-source/gen/include/aidl/android/hardware/radio/messaging/CdmaBroadcastSmsConfigInfo.h"
  },
  {
   "alignment" : 4,
   "linker_set_key" : "_ZTIPN4aidl7android8hardware5radio9messaging30IRadioMessagingResponseDefaultE",
   "name" : "aidl::android::hardware::radio::messaging::IRadioMessagingResponseDefault *",
   "referenced_type" : "_ZTIN4aidl7android8hardware5radio9messaging30IRadioMessagingResponseDefaultE",
   "self_type" : "_ZTIPN4aidl7android8hardware5radio9messaging30IRadioMessagingResponseDefaultE",
   "size" : 4,
   "source_file" : "out/soong/.intermediates/hardware/interfaces/radio/aidl/android.hardware.radio.messaging-V1-ndk-source/gen/include/aidl/android/hardware/radio/messaging/IRadioMessagingResponse.h"
  },
  {
   "alignment" : 4,
   "linker_set_key" : "_ZTIPN4aidl7android8hardware5radio9messaging32IRadioMessagingIndicationDefaultE",
   "name" : "aidl::android::hardware::radio::messaging::IRadioMessagingIndicationDefault *",
   "referenced_type" : "_ZTIN4aidl7android8hardware5radio9messaging32IRadioMessagingIndicationDefaultE",
   "self_type" : "_ZTIPN4aidl7android8hardware5radio9messaging32IRadioMessagingIndicationDefaultE",
   "size" : 4,
   "source_file" : "out/soong/.intermediates/hardware/interfaces/radio/aidl/android.hardware.radio.messaging-V1-ndk-source/gen/include/aidl/android/hardware/radio/messaging/IRadioMessagingIndication.h"
  },
  {
   "alignment" : 4,
   "linker_set_key" : "_ZTIPN4aidl7android8hardware5radio9messaging32IRadioMessagingResponseDelegatorE",
   "name" : "aidl::android::hardware::radio::messaging::IRadioMessagingResponseDelegator *",
   "referenced_type" : "_ZTIN4aidl7android8hardware5radio9messaging32IRadioMessagingResponseDelegatorE",
   "self_type" : "_ZTIPN4aidl7android8hardware5radio9messaging32IRadioMessagingResponseDelegatorE",
   "size" : 4,
   "source_file" : "out/soong/.intermediates/hardware/interfaces/radio/aidl/android.hardware.radio.messaging-V1-ndk-source/gen/include/aidl/android/hardware/radio/messaging/BnRadioMessagingResponse.h"
  },
  {
   "alignment" : 4,
   "linker_set_key" : "_ZTIPN4aidl7android8hardware5radio9messaging34IRadioMessagingIndicationDelegatorE",
   "name" : "aidl::android::hardware::radio::messaging::IRadioMessagingIndicationDelegator *",
   "referenced_type" : "_ZTIN4aidl7android8hardware5radio9messaging34IRadioMessagingIndicationDelegatorE",
   "self_type" : "_ZTIPN4aidl7android8hardware5radio9messaging34IRadioMessagingIndicationDelegatorE",
   "size" : 4,
   "source_file" : "out/soong/.intermediates/hardware/interfaces/radio/aidl/android.hardware.radio.messaging-V1-ndk-source/gen/include/aidl/android/hardware/radio/messaging/BnRadioMessagingIndication.h"
  },
  {
   "alignment" : 4,
   "linker_set_key" : "_ZTIPNSt3__110shared_ptrIN4aidl7android8hardware5radio9messaging15IRadioMessagingEEE",
   "name" : "std::shared_ptr<aidl::android::hardware::radio::messaging::IRadioMessaging> *",
   "referenced_type" : "_ZTINSt3__110shared_ptrIN4aidl7android8hardware5radio9messaging15IRadioMessagingEEE",
   "self_type" : "_ZTIPNSt3__110shared_ptrIN4aidl7android8hardware5radio9messaging15IRadioMessagingEEE",
   "size" : 4,
   "source_file" : "out/soong/.intermediates/hardware/interfaces/radio/aidl/android.hardware.radio.messaging-V1-ndk-source/gen/include/aidl/android/hardware/radio/messaging/IRadioMessaging.h"
  },
  {
   "alignment" : 4,
   "linker_set_key" : "_ZTIPNSt3__110shared_ptrIN4aidl7android8hardware5radio9messaging23IRadioMessagingResponseEEE",
   "name" : "std::shared_ptr<aidl::android::hardware::radio::messaging::IRadioMessagingResponse> *",
   "referenced_type" : "_ZTINSt3__110shared_ptrIN4aidl7android8hardware5radio9messaging23IRadioMessagingResponseEEE",
   "self_type" : "_ZTIPNSt3__110shared_ptrIN4aidl7android8hardware5radio9messaging23IRadioMessagingResponseEEE",
   "size" : 4,
   "source_file" : "out/soong/.intermediates/hardware/interfaces/radio/aidl/android.hardware.radio.messaging-V1-ndk-source/gen/include/aidl/android/hardware/radio/messaging/IRadioMessagingResponse.h"
  },
  {
   "alignment" : 4,
   "linker_set_key" : "_ZTIPNSt3__110shared_ptrIN4aidl7android8hardware5radio9messaging25IRadioMessagingIndicationEEE",
   "name" : "std::shared_ptr<aidl::android::hardware::radio::messaging::IRadioMessagingIndication> *",
   "referenced_type" : "_ZTINSt3__110shared_ptrIN4aidl7android8hardware5radio9messaging25IRadioMessagingIndicationEEE",
   "self_type" : "_ZTIPNSt3__110shared_ptrIN4aidl7android8hardware5radio9messaging25IRadioMessagingIndicationEEE",
   "size" : 4,
   "source_file" : "out/soong/.intermediates/hardware/interfaces/radio/aidl/android.hardware.radio.messaging-V1-ndk-source/gen/include/aidl/android/hardware/radio/messaging/IRadioMessagingIndication.h"
  },
  {
   "alignment" : 4,
   "linker_set_key" : "_ZTIPNSt3__112basic_stringIcNS_11char_traitsIcEENS_9allocatorIcEEEE",
   "name" : "std::basic_string<char, std::char_traits<char>, std::allocator<char>> *",
   "referenced_type" : "_ZTINSt3__112basic_stringIcNS_11char_traitsIcEENS_9allocatorIcEEEE",
   "self_type" : "_ZTIPNSt3__112basic_stringIcNS_11char_traitsIcEENS_9allocatorIcEEEE",
   "size" : 4,
   "source_file" : "out/soong/.intermediates/hardware/interfaces/radio/aidl/android.hardware.radio.messaging-V1-ndk-source/gen/include/aidl/android/hardware/radio/messaging/IRadioMessaging.h"
  },
  {
   "alignment" : 4,
   "linker_set_key" : "_ZTIPNSt3__16vectorIDsNS_9allocatorIDsEEEE",
   "name" : "std::vector<char16_t, std::allocator<char16_t>> *",
   "referenced_type" : "_ZTINSt3__16vectorIDsNS_9allocatorIDsEEEE",
   "self_type" : "_ZTIPNSt3__16vectorIDsNS_9allocatorIDsEEEE",
   "size" : 4,
   "source_file" : "frameworks/native/libs/binder/ndk/include_cpp/android/binder_parcel_utils.h"
  },
  {
   "alignment" : 4,
   "linker_set_key" : "_ZTIPNSt3__16vectorIbNS_9allocatorIbEEEE",
   "name" : "std::vector<bool, std::allocator<bool>> *",
   "referenced_type" : "_ZTINSt3__16vectorIbNS_9allocatorIbEEEE",
   "self_type" : "_ZTIPNSt3__16vectorIbNS_9allocatorIbEEEE",
   "size" : 4,
   "source_file" : "frameworks/native/libs/binder/ndk/include_cpp/android/binder_parcel_utils.h"
  },
  {
   "alignment" : 4,
   "linker_set_key" : "_ZTIPNSt3__16vectorIdNS_9allocatorIdEEEE",
   "name" : "std::vector<double, std::allocator<double>> *",
   "referenced_type" : "_ZTINSt3__16vectorIdNS_9allocatorIdEEEE",
   "self_type" : "_ZTIPNSt3__16vectorIdNS_9allocatorIdEEEE",
   "size" : 4,
   "source_file" : "frameworks/native/libs/binder/ndk/include_cpp/android/binder_parcel_utils.h"
  },
  {
   "alignment" : 4,
   "linker_set_key" : "_ZTIPNSt3__16vectorIfNS_9allocatorIfEEEE",
   "name" : "std::vector<float, std::allocator<float>> *",
   "referenced_type" : "_ZTINSt3__16vectorIfNS_9allocatorIfEEEE",
   "self_type" : "_ZTIPNSt3__16vectorIfNS_9allocatorIfEEEE",
   "size" : 4,
   "source_file" : "frameworks/native/libs/binder/ndk/include_cpp/android/binder_parcel_utils.h"
  },
  {
   "alignment" : 4,
   "linker_set_key" : "_ZTIPNSt3__16vectorIhNS_9allocatorIhEEEE",
   "name" : "std::vector<unsigned char, std::allocator<unsigned char>> *",
   "referenced_type" : "_ZTINSt3__16vectorIhNS_9allocatorIhEEEE",
   "self_type" : "_ZTIPNSt3__16vectorIhNS_9allocatorIhEEEE",
   "size" : 4,
   "source_file" : "frameworks/native/libs/binder/ndk/include_cpp/android/binder_parcel_utils.h"
  },
  {
   "alignment" : 4,
   "linker_set_key" : "_ZTIPNSt3__16vectorIiNS_9allocatorIiEEEE",
   "name" : "std::vector<int, std::allocator<int>> *",
   "referenced_type" : "_ZTINSt3__16vectorIiNS_9allocatorIiEEEE",
   "self_type" : "_ZTIPNSt3__16vectorIiNS_9allocatorIiEEEE",
   "size" : 4,
   "source_file" : "frameworks/native/libs/binder/ndk/include_cpp/android/binder_parcel_utils.h"
  },
  {
   "alignment" : 4,
   "linker_set_key" : "_ZTIPNSt3__16vectorIjNS_9allocatorIjEEEE",
   "name" : "std::vector<unsigned int, std::allocator<unsigned int>> *",
   "referenced_type" : "_ZTINSt3__16vectorIjNS_9allocatorIjEEEE",
   "self_type" : "_ZTIPNSt3__16vectorIjNS_9allocatorIjEEEE",
   "size" : 4,
   "source_file" : "frameworks/native/libs/binder/ndk/include_cpp/android/binder_parcel_utils.h"
  },
  {
   "alignment" : 4,
   "linker_set_key" : "_ZTIPNSt3__16vectorIxNS_9allocatorIxEEEE",
   "name" : "std::vector<long long, std::allocator<long long>> *",
   "referenced_type" : "_ZTINSt3__16vectorIxNS_9allocatorIxEEEE",
   "self_type" : "_ZTIPNSt3__16vectorIxNS_9allocatorIxEEEE",
   "size" : 4,
   "source_file" : "frameworks/native/libs/binder/ndk/include_cpp/android/binder_parcel_utils.h"
  },
  {
   "alignment" : 4,
   "linker_set_key" : "_ZTIPNSt3__16vectorIyNS_9allocatorIyEEEE",
   "name" : "std::vector<unsigned long long, std::allocator<unsigned long long>> *",
   "referenced_type" : "_ZTINSt3__16vectorIyNS_9allocatorIyEEEE",
   "self_type" : "_ZTIPNSt3__16vectorIyNS_9allocatorIyEEEE",
   "size" : 4,
   "source_file" : "frameworks/native/libs/binder/ndk/include_cpp/android/binder_parcel_utils.h"
  },
  {
   "alignment" : 4,
   "linker_set_key" : "_ZTIPNSt3__18optionalINS_6vectorIDsNS_9allocatorIDsEEEEEE",
   "name" : "std::optional<std::vector<char16_t, std::allocator<char16_t>>> *",
   "referenced_type" : "_ZTINSt3__18optionalINS_6vectorIDsNS_9allocatorIDsEEEEEE",
   "self_type" : "_ZTIPNSt3__18optionalINS_6vectorIDsNS_9allocatorIDsEEEEEE",
   "size" : 4,
   "source_file" : "frameworks/native/libs/binder/ndk/include_cpp/android/binder_parcel_utils.h"
  },
  {
   "alignment" : 4,
   "linker_set_key" : "_ZTIPNSt3__18optionalINS_6vectorIbNS_9allocatorIbEEEEEE",
   "name" : "std::optional<std::vector<bool, std::allocator<bool>>> *",
   "referenced_type" : "_ZTINSt3__18optionalINS_6vectorIbNS_9allocatorIbEEEEEE",
   "self_type" : "_ZTIPNSt3__18optionalINS_6vectorIbNS_9allocatorIbEEEEEE",
   "size" : 4,
   "source_file" : "frameworks/native/libs/binder/ndk/include_cpp/android/binder_parcel_utils.h"
  },
  {
   "alignment" : 4,
   "linker_set_key" : "_ZTIPNSt3__18optionalINS_6vectorIdNS_9allocatorIdEEEEEE",
   "name" : "std::optional<std::vector<double, std::allocator<double>>> *",
   "referenced_type" : "_ZTINSt3__18optionalINS_6vectorIdNS_9allocatorIdEEEEEE",
   "self_type" : "_ZTIPNSt3__18optionalINS_6vectorIdNS_9allocatorIdEEEEEE",
   "size" : 4,
   "source_file" : "frameworks/native/libs/binder/ndk/include_cpp/android/binder_parcel_utils.h"
  },
  {
   "alignment" : 4,
   "linker_set_key" : "_ZTIPNSt3__18optionalINS_6vectorIfNS_9allocatorIfEEEEEE",
   "name" : "std::optional<std::vector<float, std::allocator<float>>> *",
   "referenced_type" : "_ZTINSt3__18optionalINS_6vectorIfNS_9allocatorIfEEEEEE",
   "self_type" : "_ZTIPNSt3__18optionalINS_6vectorIfNS_9allocatorIfEEEEEE",
   "size" : 4,
   "source_file" : "frameworks/native/libs/binder/ndk/include_cpp/android/binder_parcel_utils.h"
  },
  {
   "alignment" : 4,
   "linker_set_key" : "_ZTIPNSt3__18optionalINS_6vectorIhNS_9allocatorIhEEEEEE",
   "name" : "std::optional<std::vector<unsigned char, std::allocator<unsigned char>>> *",
   "referenced_type" : "_ZTINSt3__18optionalINS_6vectorIhNS_9allocatorIhEEEEEE",
   "self_type" : "_ZTIPNSt3__18optionalINS_6vectorIhNS_9allocatorIhEEEEEE",
   "size" : 4,
   "source_file" : "frameworks/native/libs/binder/ndk/include_cpp/android/binder_parcel_utils.h"
  },
  {
   "alignment" : 4,
   "linker_set_key" : "_ZTIPNSt3__18optionalINS_6vectorIiNS_9allocatorIiEEEEEE",
   "name" : "std::optional<std::vector<int, std::allocator<int>>> *",
   "referenced_type" : "_ZTINSt3__18optionalINS_6vectorIiNS_9allocatorIiEEEEEE",
   "self_type" : "_ZTIPNSt3__18optionalINS_6vectorIiNS_9allocatorIiEEEEEE",
   "size" : 4,
   "source_file" : "frameworks/native/libs/binder/ndk/include_cpp/android/binder_parcel_utils.h"
  },
  {
   "alignment" : 4,
   "linker_set_key" : "_ZTIPNSt3__18optionalINS_6vectorIjNS_9allocatorIjEEEEEE",
   "name" : "std::optional<std::vector<unsigned int, std::allocator<unsigned int>>> *",
   "referenced_type" : "_ZTINSt3__18optionalINS_6vectorIjNS_9allocatorIjEEEEEE",
   "self_type" : "_ZTIPNSt3__18optionalINS_6vectorIjNS_9allocatorIjEEEEEE",
   "size" : 4,
   "source_file" : "frameworks/native/libs/binder/ndk/include_cpp/android/binder_parcel_utils.h"
  },
  {
   "alignment" : 4,
   "linker_set_key" : "_ZTIPNSt3__18optionalINS_6vectorIxNS_9allocatorIxEEEEEE",
   "name" : "std::optional<std::vector<long long, std::allocator<long long>>> *",
   "referenced_type" : "_ZTINSt3__18optionalINS_6vectorIxNS_9allocatorIxEEEEEE",
   "self_type" : "_ZTIPNSt3__18optionalINS_6vectorIxNS_9allocatorIxEEEEEE",
   "size" : 4,
   "source_file" : "frameworks/native/libs/binder/ndk/include_cpp/android/binder_parcel_utils.h"
  },
  {
   "alignment" : 4,
   "linker_set_key" : "_ZTIPNSt3__18optionalINS_6vectorIyNS_9allocatorIyEEEEEE",
   "name" : "std::optional<std::vector<unsigned long long, std::allocator<unsigned long long>>> *",
   "referenced_type" : "_ZTINSt3__18optionalINS_6vectorIyNS_9allocatorIyEEEEEE",
   "self_type" : "_ZTIPNSt3__18optionalINS_6vectorIyNS_9allocatorIyEEEEEE",
   "size" : 4,
   "source_file" : "frameworks/native/libs/binder/ndk/include_cpp/android/binder_parcel_utils.h"
  },
  {
   "alignment" : 4,
   "linker_set_key" : "_ZTIPP7AParcel",
   "name" : "AParcel **",
   "referenced_type" : "_ZTIP7AParcel",
   "self_type" : "_ZTIPP7AParcel",
   "size" : 4,
   "source_file" : "frameworks/native/libs/binder/ndk/include_cpp/android/binder_auto_utils.h"
  },
  {
   "alignment" : 4,
   "linker_set_key" : "_ZTIPP7AStatus",
   "name" : "AStatus **",
   "referenced_type" : "_ZTIP7AStatus",
   "self_type" : "_ZTIPP7AStatus",
   "size" : 4,
   "source_file" : "frameworks/native/libs/binder/ndk/include_cpp/android/binder_auto_utils.h"
  },
  {
   "alignment" : 4,
   "linker_set_key" : "_ZTIPP8AIBinder",
   "name" : "AIBinder **",
   "referenced_type" : "_ZTIP8AIBinder",
   "self_type" : "_ZTIPP8AIBinder",
   "size" : 4,
   "source_file" : "frameworks/native/libs/binder/ndk/include_cpp/android/binder_auto_utils.h"
  },
  {
   "alignment" : 4,
   "linker_set_key" : "_ZTIPPKc",
   "name" : "const char **",
   "referenced_type" : "_ZTIPKc",
   "self_type" : "_ZTIPPKc",
   "size" : 4,
   "source_file" : "frameworks/native/libs/binder/ndk/include_cpp/android/binder_interface_utils.h"
  },
  {
   "alignment" : 4,
   "linker_set_key" : "_ZTIPi",
   "name" : "int *",
   "referenced_type" : "_ZTIi",
   "self_type" : "_ZTIPi",
   "size" : 4,
   "source_file" : "out/soong/.intermediates/hardware/interfaces/radio/aidl/android.hardware.radio.messaging-V1-ndk-source/gen/include/aidl/android/hardware/radio/messaging/IRadioMessaging.h"
  },
  {
   "alignment" : 4,
   "linker_set_key" : "_ZTIPv",
   "name" : "void *",
   "referenced_type" : "_ZTIv",
   "self_type" : "_ZTIPv",
   "size" : 4,
   "source_file" : "frameworks/native/libs/binder/ndk/include_cpp/android/binder_interface_utils.h"
  }
 ],
 "qualified_types" :
 [
  {
   "is_const" : true,
   "linker_set_key" : "_ZTIK7AParcel",
   "name" : "const AParcel",
   "referenced_type" : "_ZTI7AParcel",
   "self_type" : "_ZTIK7AParcel",
   "source_file" : "frameworks/native/libs/binder/ndk/include_cpp/android/binder_interface_utils.h"
  },
  {
   "alignment" : 4,
   "is_const" : true,
   "linker_set_key" : "_ZTIKN3ndk10SpAIBinderE",
   "name" : "const ndk::SpAIBinder",
   "referenced_type" : "_ZTIN3ndk10SpAIBinderE",
   "self_type" : "_ZTIKN3ndk10SpAIBinderE",
   "size" : 4,
   "source_file" : "frameworks/native/libs/binder/ndk/include_cpp/android/binder_auto_utils.h"
  },
  {
   "alignment" : 4,
   "is_const" : true,
   "linker_set_key" : "_ZTIKN3ndk13ScopedAParcelE",
   "name" : "const ndk::ScopedAParcel",
   "referenced_type" : "_ZTIN3ndk13ScopedAParcelE",
   "self_type" : "_ZTIKN3ndk13ScopedAParcelE",
   "size" : 4,
   "source_file" : "frameworks/native/libs/binder/ndk/include_cpp/android/binder_auto_utils.h"
  },
  {
   "alignment" : 4,
   "is_const" : true,
   "linker_set_key" : "_ZTIKN3ndk13ScopedAStatusE",
   "name" : "const ndk::ScopedAStatus",
   "referenced_type" : "_ZTIN3ndk13ScopedAStatusE",
   "self_type" : "_ZTIKN3ndk13ScopedAStatusE",
   "size" : 4,
   "source_file" : "frameworks/native/libs/binder/ndk/include_cpp/android/binder_auto_utils.h"
  },
  {
   "alignment" : 4,
   "is_const" : true,
   "linker_set_key" : "_ZTIKN3ndk17AParcelableHolderE",
   "name" : "const ndk::AParcelableHolder",
   "referenced_type" : "_ZTIN3ndk17AParcelableHolderE",
   "self_type" : "_ZTIKN3ndk17AParcelableHolderE",
   "size" : 12,
   "source_file" : "frameworks/native/libs/binder/ndk/include_cpp/android/binder_parcelable_utils.h"
  },
  {
   "alignment" : 4,
   "is_const" : true,
   "linker_set_key" : "_ZTIKN3ndk20ScopedFileDescriptorE",
   "name" : "const ndk::ScopedFileDescriptor",
   "referenced_type" : "_ZTIN3ndk20ScopedFileDescriptorE",
   "self_type" : "_ZTIKN3ndk20ScopedFileDescriptorE",
   "size" : 4,
   "source_file" : "frameworks/native/libs/binder/ndk/include_cpp/android/binder_auto_utils.h"
  },
  {
   "alignment" : 4,
   "is_const" : true,
   "linker_set_key" : "_ZTIKN3ndk4impl15ScopedAResourceIP7AParcelXadL_Z14AParcel_deleteEELS3_0EEE",
   "name" : "const ndk::impl::ScopedAResource<AParcel *, &AParcel_delete, nullptr>",
   "referenced_type" : "_ZTIN3ndk4impl15ScopedAResourceIP7AParcelXadL_Z14AParcel_deleteEELS3_0EEE",
   "self_type" : "_ZTIKN3ndk4impl15ScopedAResourceIP7AParcelXadL_Z14AParcel_deleteEELS3_0EEE",
   "size" : 4,
   "source_file" : "frameworks/native/libs/binder/ndk/include_cpp/android/binder_auto_utils.h"
  },
  {
   "alignment" : 4,
   "is_const" : true,
   "linker_set_key" : "_ZTIKN3ndk4impl15ScopedAResourceIP7AStatusXadL_Z14AStatus_deleteEELS3_0EEE",
   "name" : "const ndk::impl::ScopedAResource<AStatus *, &AStatus_delete, nullptr>",
   "referenced_type" : "_ZTIN3ndk4impl15ScopedAResourceIP7AStatusXadL_Z14AStatus_deleteEELS3_0EEE",
   "self_type" : "_ZTIKN3ndk4impl15ScopedAResourceIP7AStatusXadL_Z14AStatus_deleteEELS3_0EEE",
   "size" : 4,
   "source_file" : "frameworks/native/libs/binder/ndk/include_cpp/android/binder_auto_utils.h"
  },
  {
   "alignment" : 4,
   "is_const" : true,
   "linker_set_key" : "_ZTIKN4aidl7android8hardware5radio10RadioErrorE",
   "name" : "const aidl::android::hardware::radio::RadioError",
   "referenced_type" : "_ZTIN4aidl7android8hardware5radio10RadioErrorE",
   "self_type" : "_ZTIKN4aidl7android8hardware5radio10RadioErrorE",
   "size" : 4,
   "source_file" : "frameworks/native/libs/binder/ndk/include_cpp/android/binder_to_string.h"
  },
  {
   "alignment" : 4,
   "is_const" : true,
   "linker_set_key" : "_ZTIKN4aidl7android8hardware5radio17RadioResponseInfoE",
   "name" : "const aidl::android::hardware::radio::RadioResponseInfo",
   "referenced_type" : "_ZTIN4aidl7android8hardware5radio17RadioResponseInfoE",
   "self_type" : "_ZTIKN4aidl7android8hardware5radio17RadioResponseInfoE",
   "size" : 12,
   "source_file" : "out/soong/.intermediates/hardware/interfaces/radio/aidl/android.hardware.radio-V1-ndk-source/gen/include/aidl/android/hardware/radio/RadioResponseInfo.h"
  },
  {
   "alignment" : 4,
   "is_const" : true,
   "linker_set_key" : "_ZTIKN4aidl7android8hardware5radio17RadioResponseTypeE",
   "name" : "const aidl::android::hardware::radio::RadioResponseType",
   "referenced_type" : "_ZTIN4aidl7android8hardware5radio17RadioResponseTypeE",
   "self_type" : "_ZTIKN4aidl7android8hardware5radio17RadioResponseTypeE",
   "size" : 4,
   "source_file" : "frameworks/native/libs/binder/ndk/include_cpp/android/binder_to_string.h"
  },
  {
   "alignment" : 4,
   "is_const" : true,
   "linker_set_key" : "_ZTIKN4aidl7android8hardware5radio21RadioTechnologyFamilyE",
   "name" : "const aidl::android::hardware::radio::RadioTechnologyFamily",
   "referenced_type" : "_ZTIN4aidl7android8hardware5radio21RadioTechnologyFamilyE",
   "self_type" : "_ZTIKN4aidl7android8hardware5radio21RadioTechnologyFamilyE",
   "size" : 4,
   "source_file" : "frameworks/native/libs/binder/ndk/include_cpp/android/binder_to_string.h"
  },
  {
   "alignment" : 4,
   "is_const" : true,
   "linker_set_key" : "_ZTIKN4aidl7android8hardware5radio9messaging10CdmaSmsAckE",
   "name" : "const aidl::android::hardware::radio::messaging::CdmaSmsAck",
   "referenced_type" : "_ZTIN4aidl7android8hardware5radio9messaging10CdmaSmsAckE",
   "self_type" : "_ZTIKN4aidl7android8hardware5radio9messaging10CdmaSmsAckE",
   "size" : 8,
   "source_file" : "out/soong/.intermediates/hardware/interfaces/radio/aidl/android.hardware.radio.messaging-V1-ndk-source/gen/include/aidl/android/hardware/radio/messaging/CdmaSmsAck.h"
  },
  {
   "alignment" : 4,
   "is_const" : true,
   "linker_set_key" : "_ZTIKN4aidl7android8hardware5radio9messaging12SmsWriteArgsE",
   "name" : "const aidl::android::hardware::radio::messaging::SmsWriteArgs",
   "referenced_type" : "_ZTIN4aidl7android8hardware5radio9messaging12SmsWriteArgsE",
   "self_type" : "_ZTIKN4aidl7android8hardware5radio9messaging12SmsWriteArgsE",
   "size" : 28,
   "source_file" : "out/soong/.intermediates/hardware/interfaces/radio/aidl/android.hardware.radio.messaging-V1-ndk-source/gen/include/aidl/android/hardware/radio/messaging/SmsWriteArgs.h"
  },
  {
   "alignment" : 4,
   "is_const" : true,
   "linker_set_key" : "_ZTIKN4aidl7android8hardware5radio9messaging13GsmSmsMessageE",
   "name" : "const aidl::android::hardware::radio::messaging::GsmSmsMessage",
   "referenced_type" : "_ZTIN4aidl7android8hardware5radio9messaging13GsmSmsMessageE",
   "self_type" : "_ZTIKN4aidl7android8hardware5radio9messaging13GsmSmsMessageE",
   "size" : 24,
   "source_file" : "out/soong/.intermediates/hardware/interfaces/radio/aidl/android.hardware.radio.messaging-V1-ndk-source/gen/include/aidl/android/hardware/radio/messaging/GsmSmsMessage.h"
  },
  {
   "alignment" : 4,
   "is_const" : true,
   "linker_set_key" : "_ZTIKN4aidl7android8hardware5radio9messaging13ImsSmsMessageE",
   "name" : "const aidl::android::hardware::radio::messaging::ImsSmsMessage",
   "referenced_type" : "_ZTIN4aidl7android8hardware5radio9messaging13ImsSmsMessageE",
   "self_type" : "_ZTIKN4aidl7android8hardware5radio9messaging13ImsSmsMessageE",
   "size" : 36,
   "source_file" : "out/soong/.intermediates/hardware/interfaces/radio/aidl/android.hardware.radio.messaging-V1-ndk-source/gen/include/aidl/android/hardware/radio/messaging/ImsSmsMessage.h"
  },
  {
   "alignment" : 4,
   "is_const" : true,
   "linker_set_key" : "_ZTIKN4aidl7android8hardware5radio9messaging13SendSmsResultE",
   "name" : "const aidl::android::hardware::radio::messaging::SendSmsResult",
   "referenced_type" : "_ZTIN4aidl7android8hardware5radio9messaging13SendSmsResultE",
   "self_type" : "_ZTIKN4aidl7android8hardware5radio9messaging13SendSmsResultE",
   "size" : 20,
   "source_file" : "out/soong/.intermediates/hardware/interfaces/radio/aidl/android.hardware.radio.messaging-V1-ndk-source/gen/include/aidl/android/hardware/radio/messaging/SendSmsResult.h"
  },
  {
   "alignment" : 4,
   "is_const" : true,
   "linker_set_key" : "_ZTIKN4aidl7android8hardware5radio9messaging14CdmaSmsAddressE",
   "name" : "const aidl::android::hardware::radio::messaging::CdmaSmsAddress",
   "referenced_type" : "_ZTIN4aidl7android8hardware5radio9messaging14CdmaSmsAddressE",
   "self_type" : "_ZTIKN4aidl7android8hardware5radio9messaging14CdmaSmsAddressE",
   "size" : 28,
   "source_file" : "out/soong/.intermediates/hardware/interfaces/radio/aidl/android.hardware.radio.messaging-V1-ndk-source/gen/include/aidl/android/hardware/radio/messaging/CdmaSmsAddress.h"
  },
  {
   "alignment" : 4,
   "is_const" : true,
   "linker_set_key" : "_ZTIKN4aidl7android8hardware5radio9messaging14CdmaSmsMessageE",
   "name" : "const aidl::android::hardware::radio::messaging::CdmaSmsMessage",
   "referenced_type" : "_ZTIN4aidl7android8hardware5radio9messaging14CdmaSmsMessageE",
   "self_type" : "_ZTIKN4aidl7android8hardware5radio9messaging14CdmaSmsMessageE",
   "size" : 72,
   "source_file" : "out/soong/.intermediates/hardware/interfaces/radio/aidl/android.hardware.radio.messaging-V1-ndk-source/gen/include/aidl/android/hardware/radio/messaging/CdmaSmsMessage.h"
  },
  {
   "alignment" : 4,
   "is_const" : true,
   "linker_set_key" : "_ZTIKN4aidl7android8hardware5radio9messaging16CdmaSmsWriteArgsE",
   "name" : "const aidl::android::hardware::radio::messaging::CdmaSmsWriteArgs",
   "referenced_type" : "_ZTIN4aidl7android8hardware5radio9messaging16CdmaSmsWriteArgsE",
   "self_type" : "_ZTIKN4aidl7android8hardware5radio9messaging16CdmaSmsWriteArgsE",
   "size" : 76,
   "source_file" : "out/soong/.intermediates/hardware/interfaces/radio/aidl/android.hardware.radio.messaging-V1-ndk-source/gen/include/aidl/android/hardware/radio/messaging/CdmaSmsWriteArgs.h"
  },
  {
   "alignment" : 4,
   "is_const" : true,
   "linker_set_key" : "_ZTIKN4aidl7android8hardware5radio9messaging17CdmaSmsSubaddressE",
   "name" : "const aidl::android::hardware::radio::messaging::CdmaSmsSubaddress",
   "referenced_type" : "_ZTIN4aidl7android8hardware5radio9messaging17CdmaSmsSubaddressE",
   "self_type" : "_ZTIKN4aidl7android8hardware5radio9messaging17CdmaSmsSubaddressE",
   "size" : 20,
   "source_file" : "frameworks/native/libs/binder/ndk/include_cpp/android/binder_to_string.h"
  },
  {
   "alignment" : 4,
   "is_const" : true,
   "linker_set_key" : "_ZTIKN4aidl7android8hardware5radio9messaging25GsmBroadcastSmsConfigInfoE",
   "name" : "const aidl::android::hardware::radio::messaging::GsmBroadcastSmsConfigInfo",
   "referenced_type" : "_ZTIN4aidl7android8hardware5radio9messaging25GsmBroadcastSmsConfigInfoE",
   "self_type" : "_ZTIKN4aidl7android8hardware5radio9messaging25GsmBroadcastSmsConfigInfoE",
   "size" : 20,
   "source_file" : "out/soong/.intermediates/hardware/interfaces/radio/aidl/android.hardware.radio.messaging-V1-ndk-source/gen/include/aidl/android/hardware/radio/messaging/GsmBroadcastSmsConfigInfo.h"
  },
  {
   "alignment" : 4,
   "is_const" : true,
   "linker_set_key" : "_ZTIKN4aidl7android8hardware5radio9messaging26CdmaBroadcastSmsConfigInfoE",
   "name" : "const aidl::android::hardware::radio::messaging::CdmaBroadcastSmsConfigInfo",
   "referenced_type" : "_ZTIN4aidl7android8hardware5radio9messaging26CdmaBroadcastSmsConfigInfoE",
   "self_type" : "_ZTIKN4aidl7android8hardware5radio9messaging26CdmaBroadcastSmsConfigInfoE",
   "size" : 12,
   "source_file" : "out/soong/.intermediates/hardware/interfaces/radio/aidl/android.hardware.radio.messaging-V1-ndk-source/gen/include/aidl/android/hardware/radio/messaging/CdmaBroadcastSmsConfigInfo.h"
  },
  {
   "alignment" : 4,
   "is_const" : true,
   "linker_set_key" : "_ZTIKNSt3__110shared_ptrIN4aidl7android8hardware5radio9messaging15IRadioMessagingEEE",
   "name" : "const std::shared_ptr<aidl::android::hardware::radio::messaging::IRadioMessaging>",
   "referenced_type" : "_ZTINSt3__110shared_ptrIN4aidl7android8hardware5radio9messaging15IRadioMessagingEEE",
   "self_type" : "_ZTIKNSt3__110shared_ptrIN4aidl7android8hardware5radio9messaging15IRadioMessagingEEE",
   "size" : 8,
   "source_file" : "out/soong/.intermediates/hardware/interfaces/radio/aidl/android.hardware.radio.messaging-V1-ndk-source/gen/include/aidl/android/hardware/radio/messaging/IRadioMessaging.h"
  },
  {
   "alignment" : 4,
   "is_const" : true,
   "linker_set_key" : "_ZTIKNSt3__110shared_ptrIN4aidl7android8hardware5radio9messaging23IRadioMessagingResponseEEE",
   "name" : "const std::shared_ptr<aidl::android::hardware::radio::messaging::IRadioMessagingResponse>",
   "referenced_type" : "_ZTINSt3__110shared_ptrIN4aidl7android8hardware5radio9messaging23IRadioMessagingResponseEEE",
   "self_type" : "_ZTIKNSt3__110shared_ptrIN4aidl7android8hardware5radio9messaging23IRadioMessagingResponseEEE",
   "size" : 8,
   "source_file" : "out/soong/.intermediates/hardware/interfaces/radio/aidl/android.hardware.radio.messaging-V1-ndk-source/gen/include/aidl/android/hardware/radio/messaging/IRadioMessaging.h"
  },
  {
   "alignment" : 4,
   "is_const" : true,
   "linker_set_key" : "_ZTIKNSt3__110shared_ptrIN4aidl7android8hardware5radio9messaging25IRadioMessagingIndicationEEE",
   "name" : "const std::shared_ptr<aidl::android::hardware::radio::messaging::IRadioMessagingIndication>",
   "referenced_type" : "_ZTINSt3__110shared_ptrIN4aidl7android8hardware5radio9messaging25IRadioMessagingIndicationEEE",
   "self_type" : "_ZTIKNSt3__110shared_ptrIN4aidl7android8hardware5radio9messaging25IRadioMessagingIndicationEEE",
   "size" : 8,
   "source_file" : "out/soong/.intermediates/hardware/interfaces/radio/aidl/android.hardware.radio.messaging-V1-ndk-source/gen/include/aidl/android/hardware/radio/messaging/IRadioMessaging.h"
  },
  {
   "alignment" : 4,
   "is_const" : true,
   "linker_set_key" : "_ZTIKNSt3__112basic_stringIcNS_11char_traitsIcEENS_9allocatorIcEEEE",
   "name" : "const std::basic_string<char, std::char_traits<char>, std::allocator<char>>",
   "referenced_type" : "_ZTINSt3__112basic_stringIcNS_11char_traitsIcEENS_9allocatorIcEEEE",
   "self_type" : "_ZTIKNSt3__112basic_stringIcNS_11char_traitsIcEENS_9allocatorIcEEEE",
   "size" : 12,
   "source_file" : "frameworks/native/libs/binder/ndk/include_cpp/android/binder_to_string.h"
  },
  {
   "alignment" : 4,
   "is_const" : true,
   "linker_set_key" : "_ZTIKNSt3__15arrayIN4aidl7android8hardware5radio10RadioErrorELj89EEE",
   "name" : "const std::array<aidl::android::hardware::radio::RadioError, 89U>",
   "referenced_type" : "_ZTINSt3__15arrayIN4aidl7android8hardware5radio10RadioErrorELj89EEE",
   "self_type" : "_ZTIKNSt3__15arrayIN4aidl7android8hardware5radio10RadioErrorELj89EEE",
   "size" : 356,
   "source_file" : "out/soong/.intermediates/hardware/interfaces/radio/aidl/android.hardware.radio-V1-ndk-source/gen/include/aidl/android/hardware/radio/RadioError.h"
  },
  {
   "alignment" : 4,
   "is_const" : true,
   "linker_set_key" : "_ZTIKNSt3__15arrayIN4aidl7android8hardware5radio17RadioResponseTypeELj3EEE",
   "name" : "const std::array<aidl::android::hardware::radio::RadioResponseType, 3U>",
   "referenced_type" : "_ZTINSt3__15arrayIN4aidl7android8hardware5radio17RadioResponseTypeELj3EEE",
   "self_type" : "_ZTIKNSt3__15arrayIN4aidl7android8hardware5radio17RadioResponseTypeELj3EEE",
   "size" : 12,
   "source_file" : "out/soong/.intermediates/hardware/interfaces/radio/aidl/android.hardware.radio-V1-ndk-source/gen/include/aidl/android/hardware/radio/RadioResponseType.h"
  },
  {
   "alignment" : 4,
   "is_const" : true,
   "linker_set_key" : "_ZTIKNSt3__15arrayIN4aidl7android8hardware5radio19RadioIndicationTypeELj2EEE",
   "name" : "const std::array<aidl::android::hardware::radio::RadioIndicationType, 2U>",
   "referenced_type" : "_ZTINSt3__15arrayIN4aidl7android8hardware5radio19RadioIndicationTypeELj2EEE",
   "self_type" : "_ZTIKNSt3__15arrayIN4aidl7android8hardware5radio19RadioIndicationTypeELj2EEE",
   "size" : 8,
   "source_file" : "out/soong/.intermediates/hardware/interfaces/radio/aidl/android.hardware.radio-V1-ndk-source/gen/include/aidl/android/hardware/radio/RadioIndicationType.h"
  },
  {
   "alignment" : 4,
   "is_const" : true,
   "linker_set_key" : "_ZTIKNSt3__15arrayIN4aidl7android8hardware5radio21RadioTechnologyFamilyELj2EEE",
   "name" : "const std::array<aidl::android::hardware::radio::RadioTechnologyFamily, 2U>",
   "referenced_type" : "_ZTINSt3__15arrayIN4aidl7android8hardware5radio21RadioTechnologyFamilyELj2EEE",
   "self_type" : "_ZTIKNSt3__15arrayIN4aidl7android8hardware5radio21RadioTechnologyFamilyELj2EEE",
   "size" : 8,
   "source_file" : "out/soong/.intermediates/hardware/interfaces/radio/aidl/android.hardware.radio-V1-ndk-source/gen/include/aidl/android/hardware/radio/RadioTechnologyFamily.h"
  },
  {
   "alignment" : 4,
   "is_const" : true,
   "linker_set_key" : "_ZTIKNSt3__15arrayIN4aidl7android8hardware5radio9messaging23SmsAcknowledgeFailCauseELj2EEE",
   "name" : "const std::array<aidl::android::hardware::radio::messaging::SmsAcknowledgeFailCause, 2U>",
   "referenced_type" : "_ZTINSt3__15arrayIN4aidl7android8hardware5radio9messaging23SmsAcknowledgeFailCauseELj2EEE",
   "self_type" : "_ZTIKNSt3__15arrayIN4aidl7android8hardware5radio9messaging23SmsAcknowledgeFailCauseELj2EEE",
   "size" : 8,
   "source_file" : "out/soong/.intermediates/hardware/interfaces/radio/aidl/android.hardware.radio.messaging-V1-ndk-source/gen/include/aidl/android/hardware/radio/messaging/SmsAcknowledgeFailCause.h"
  },
  {
   "alignment" : 4,
   "is_const" : true,
   "linker_set_key" : "_ZTIKNSt3__16vectorIDsNS_9allocatorIDsEEEE",
   "name" : "const std::vector<char16_t, std::allocator<char16_t>>",
   "referenced_type" : "_ZTINSt3__16vectorIDsNS_9allocatorIDsEEEE",
   "self_type" : "_ZTIKNSt3__16vectorIDsNS_9allocatorIDsEEEE",
   "size" : 12,
   "source_file" : "frameworks/native/libs/binder/ndk/include_cpp/android/binder_parcel_utils.h"
  },
  {
   "alignment" : 4,
   "is_const" : true,
   "linker_set_key" : "_ZTIKNSt3__16vectorIN4aidl7android8hardware5radio9messaging13GsmSmsMessageENS_9allocatorIS6_EEEE",
   "name" : "const std::vector<aidl::android::hardware::radio::messaging::GsmSmsMessage, std::allocator<aidl::android::hardware::radio::messaging::GsmSmsMessage>>",
   "referenced_type" : "_ZTINSt3__16vectorIN4aidl7android8hardware5radio9messaging13GsmSmsMessageENS_9allocatorIS6_EEEE",
   "self_type" : "_ZTIKNSt3__16vectorIN4aidl7android8hardware5radio9messaging13GsmSmsMessageENS_9allocatorIS6_EEEE",
   "size" : 12,
   "source_file" : "frameworks/native/libs/binder/ndk/include_cpp/android/binder_to_string.h"
  },
  {
   "alignment" : 4,
   "is_const" : true,
   "linker_set_key" : "_ZTIKNSt3__16vectorIN4aidl7android8hardware5radio9messaging14CdmaSmsMessageENS_9allocatorIS6_EEEE",
   "name" : "const std::vector<aidl::android::hardware::radio::messaging::CdmaSmsMessage, std::allocator<aidl::android::hardware::radio::messaging::CdmaSmsMessage>>",
   "referenced_type" : "_ZTINSt3__16vectorIN4aidl7android8hardware5radio9messaging14CdmaSmsMessageENS_9allocatorIS6_EEEE",
   "self_type" : "_ZTIKNSt3__16vectorIN4aidl7android8hardware5radio9messaging14CdmaSmsMessageENS_9allocatorIS6_EEEE",
   "size" : 12,
   "source_file" : "frameworks/native/libs/binder/ndk/include_cpp/android/binder_to_string.h"
  },
  {
   "alignment" : 4,
   "is_const" : true,
   "linker_set_key" : "_ZTIKNSt3__16vectorIN4aidl7android8hardware5radio9messaging25GsmBroadcastSmsConfigInfoENS_9allocatorIS6_EEEE",
   "name" : "const std::vector<aidl::android::hardware::radio::messaging::GsmBroadcastSmsConfigInfo, std::allocator<aidl::android::hardware::radio::messaging::GsmBroadcastSmsConfigInfo>>",
   "referenced_type" : "_ZTINSt3__16vectorIN4aidl7android8hardware5radio9messaging25GsmBroadcastSmsConfigInfoENS_9allocatorIS6_EEEE",
   "self_type" : "_ZTIKNSt3__16vectorIN4aidl7android8hardware5radio9messaging25GsmBroadcastSmsConfigInfoENS_9allocatorIS6_EEEE",
   "size" : 12,
   "source_file" : "out/soong/.intermediates/hardware/interfaces/radio/aidl/android.hardware.radio.messaging-V1-ndk-source/gen/include/aidl/android/hardware/radio/messaging/IRadioMessaging.h"
  },
  {
   "alignment" : 4,
   "is_const" : true,
   "linker_set_key" : "_ZTIKNSt3__16vectorIN4aidl7android8hardware5radio9messaging26CdmaBroadcastSmsConfigInfoENS_9allocatorIS6_EEEE",
   "name" : "const std::vector<aidl::android::hardware::radio::messaging::CdmaBroadcastSmsConfigInfo, std::allocator<aidl::android::hardware::radio::messaging::CdmaBroadcastSmsConfigInfo>>",
   "referenced_type" : "_ZTINSt3__16vectorIN4aidl7android8hardware5radio9messaging26CdmaBroadcastSmsConfigInfoENS_9allocatorIS6_EEEE",
   "self_type" : "_ZTIKNSt3__16vectorIN4aidl7android8hardware5radio9messaging26CdmaBroadcastSmsConfigInfoENS_9allocatorIS6_EEEE",
   "size" : 12,
   "source_file" : "out/soong/.intermediates/hardware/interfaces/radio/aidl/android.hardware.radio.messaging-V1-ndk-source/gen/include/aidl/android/hardware/radio/messaging/IRadioMessaging.h"
  },
  {
   "alignment" : 4,
   "is_const" : true,
   "linker_set_key" : "_ZTIKNSt3__16vectorIbNS_9allocatorIbEEEE",
   "name" : "const std::vector<bool, std::allocator<bool>>",
   "referenced_type" : "_ZTINSt3__16vectorIbNS_9allocatorIbEEEE",
   "self_type" : "_ZTIKNSt3__16vectorIbNS_9allocatorIbEEEE",
   "size" : 12,
   "source_file" : "frameworks/native/libs/binder/ndk/include_cpp/android/binder_parcel_utils.h"
  },
  {
   "alignment" : 4,
   "is_const" : true,
   "linker_set_key" : "_ZTIKNSt3__16vectorIdNS_9allocatorIdEEEE",
   "name" : "const std::vector<double, std::allocator<double>>",
   "referenced_type" : "_ZTINSt3__16vectorIdNS_9allocatorIdEEEE",
   "self_type" : "_ZTIKNSt3__16vectorIdNS_9allocatorIdEEEE",
   "size" : 12,
   "source_file" : "frameworks/native/libs/binder/ndk/include_cpp/android/binder_parcel_utils.h"
  },
  {
   "alignment" : 4,
   "is_const" : true,
   "linker_set_key" : "_ZTIKNSt3__16vectorIfNS_9allocatorIfEEEE",
   "name" : "const std::vector<float, std::allocator<float>>",
   "referenced_type" : "_ZTINSt3__16vectorIfNS_9allocatorIfEEEE",
   "self_type" : "_ZTIKNSt3__16vectorIfNS_9allocatorIfEEEE",
   "size" : 12,
   "source_file" : "frameworks/native/libs/binder/ndk/include_cpp/android/binder_parcel_utils.h"
  },
  {
   "alignment" : 4,
   "is_const" : true,
   "linker_set_key" : "_ZTIKNSt3__16vectorIhNS_9allocatorIhEEEE",
   "name" : "const std::vector<unsigned char, std::allocator<unsigned char>>",
   "referenced_type" : "_ZTINSt3__16vectorIhNS_9allocatorIhEEEE",
   "self_type" : "_ZTIKNSt3__16vectorIhNS_9allocatorIhEEEE",
   "size" : 12,
   "source_file" : "frameworks/native/libs/binder/ndk/include_cpp/android/binder_parcel_utils.h"
  },
  {
   "alignment" : 4,
   "is_const" : true,
   "linker_set_key" : "_ZTIKNSt3__16vectorIiNS_9allocatorIiEEEE",
   "name" : "const std::vector<int, std::allocator<int>>",
   "referenced_type" : "_ZTINSt3__16vectorIiNS_9allocatorIiEEEE",
   "self_type" : "_ZTIKNSt3__16vectorIiNS_9allocatorIiEEEE",
   "size" : 12,
   "source_file" : "frameworks/native/libs/binder/ndk/include_cpp/android/binder_parcel_utils.h"
  },
  {
   "alignment" : 4,
   "is_const" : true,
   "linker_set_key" : "_ZTIKNSt3__16vectorIjNS_9allocatorIjEEEE",
   "name" : "const std::vector<unsigned int, std::allocator<unsigned int>>",
   "referenced_type" : "_ZTINSt3__16vectorIjNS_9allocatorIjEEEE",
   "self_type" : "_ZTIKNSt3__16vectorIjNS_9allocatorIjEEEE",
   "size" : 12,
   "source_file" : "frameworks/native/libs/binder/ndk/include_cpp/android/binder_parcel_utils.h"
  },
  {
   "alignment" : 4,
   "is_const" : true,
   "linker_set_key" : "_ZTIKNSt3__16vectorIxNS_9allocatorIxEEEE",
   "name" : "const std::vector<long long, std::allocator<long long>>",
   "referenced_type" : "_ZTINSt3__16vectorIxNS_9allocatorIxEEEE",
   "self_type" : "_ZTIKNSt3__16vectorIxNS_9allocatorIxEEEE",
   "size" : 12,
   "source_file" : "frameworks/native/libs/binder/ndk/include_cpp/android/binder_parcel_utils.h"
  },
  {
   "alignment" : 4,
   "is_const" : true,
   "linker_set_key" : "_ZTIKNSt3__16vectorIyNS_9allocatorIyEEEE",
   "name" : "const std::vector<unsigned long long, std::allocator<unsigned long long>>",
   "referenced_type" : "_ZTINSt3__16vectorIyNS_9allocatorIyEEEE",
   "self_type" : "_ZTIKNSt3__16vectorIyNS_9allocatorIyEEEE",
   "size" : 12,
   "source_file" : "frameworks/native/libs/binder/ndk/include_cpp/android/binder_parcel_utils.h"
  },
  {
   "alignment" : 4,
   "is_const" : true,
   "linker_set_key" : "_ZTIKNSt3__18optionalINS_6vectorIDsNS_9allocatorIDsEEEEEE",
   "name" : "const std::optional<std::vector<char16_t, std::allocator<char16_t>>>",
   "referenced_type" : "_ZTINSt3__18optionalINS_6vectorIDsNS_9allocatorIDsEEEEEE",
   "self_type" : "_ZTIKNSt3__18optionalINS_6vectorIDsNS_9allocatorIDsEEEEEE",
   "size" : 16,
   "source_file" : "frameworks/native/libs/binder/ndk/include_cpp/android/binder_parcel_utils.h"
  },
  {
   "alignment" : 4,
   "is_const" : true,
   "linker_set_key" : "_ZTIKNSt3__18optionalINS_6vectorIbNS_9allocatorIbEEEEEE",
   "name" : "const std::optional<std::vector<bool, std::allocator<bool>>>",
   "referenced_type" : "_ZTINSt3__18optionalINS_6vectorIbNS_9allocatorIbEEEEEE",
   "self_type" : "_ZTIKNSt3__18optionalINS_6vectorIbNS_9allocatorIbEEEEEE",
   "size" : 16,
   "source_file" : "frameworks/native/libs/binder/ndk/include_cpp/android/binder_parcel_utils.h"
  },
  {
   "alignment" : 4,
   "is_const" : true,
   "linker_set_key" : "_ZTIKNSt3__18optionalINS_6vectorIdNS_9allocatorIdEEEEEE",
   "name" : "const std::optional<std::vector<double, std::allocator<double>>>",
   "referenced_type" : "_ZTINSt3__18optionalINS_6vectorIdNS_9allocatorIdEEEEEE",
   "self_type" : "_ZTIKNSt3__18optionalINS_6vectorIdNS_9allocatorIdEEEEEE",
   "size" : 16,
   "source_file" : "frameworks/native/libs/binder/ndk/include_cpp/android/binder_parcel_utils.h"
  },
  {
   "alignment" : 4,
   "is_const" : true,
   "linker_set_key" : "_ZTIKNSt3__18optionalINS_6vectorIfNS_9allocatorIfEEEEEE",
   "name" : "const std::optional<std::vector<float, std::allocator<float>>>",
   "referenced_type" : "_ZTINSt3__18optionalINS_6vectorIfNS_9allocatorIfEEEEEE",
   "self_type" : "_ZTIKNSt3__18optionalINS_6vectorIfNS_9allocatorIfEEEEEE",
   "size" : 16,
   "source_file" : "frameworks/native/libs/binder/ndk/include_cpp/android/binder_parcel_utils.h"
  },
  {
   "alignment" : 4,
   "is_const" : true,
   "linker_set_key" : "_ZTIKNSt3__18optionalINS_6vectorIhNS_9allocatorIhEEEEEE",
   "name" : "const std::optional<std::vector<unsigned char, std::allocator<unsigned char>>>",
   "referenced_type" : "_ZTINSt3__18optionalINS_6vectorIhNS_9allocatorIhEEEEEE",
   "self_type" : "_ZTIKNSt3__18optionalINS_6vectorIhNS_9allocatorIhEEEEEE",
   "size" : 16,
   "source_file" : "frameworks/native/libs/binder/ndk/include_cpp/android/binder_parcel_utils.h"
  },
  {
   "alignment" : 4,
   "is_const" : true,
   "linker_set_key" : "_ZTIKNSt3__18optionalINS_6vectorIiNS_9allocatorIiEEEEEE",
   "name" : "const std::optional<std::vector<int, std::allocator<int>>>",
   "referenced_type" : "_ZTINSt3__18optionalINS_6vectorIiNS_9allocatorIiEEEEEE",
   "self_type" : "_ZTIKNSt3__18optionalINS_6vectorIiNS_9allocatorIiEEEEEE",
   "size" : 16,
   "source_file" : "frameworks/native/libs/binder/ndk/include_cpp/android/binder_parcel_utils.h"
  },
  {
   "alignment" : 4,
   "is_const" : true,
   "linker_set_key" : "_ZTIKNSt3__18optionalINS_6vectorIjNS_9allocatorIjEEEEEE",
   "name" : "const std::optional<std::vector<unsigned int, std::allocator<unsigned int>>>",
   "referenced_type" : "_ZTINSt3__18optionalINS_6vectorIjNS_9allocatorIjEEEEEE",
   "self_type" : "_ZTIKNSt3__18optionalINS_6vectorIjNS_9allocatorIjEEEEEE",
   "size" : 16,
   "source_file" : "frameworks/native/libs/binder/ndk/include_cpp/android/binder_parcel_utils.h"
  },
  {
   "alignment" : 4,
   "is_const" : true,
   "linker_set_key" : "_ZTIKNSt3__18optionalINS_6vectorIxNS_9allocatorIxEEEEEE",
   "name" : "const std::optional<std::vector<long long, std::allocator<long long>>>",
   "referenced_type" : "_ZTINSt3__18optionalINS_6vectorIxNS_9allocatorIxEEEEEE",
   "self_type" : "_ZTIKNSt3__18optionalINS_6vectorIxNS_9allocatorIxEEEEEE",
   "size" : 16,
   "source_file" : "frameworks/native/libs/binder/ndk/include_cpp/android/binder_parcel_utils.h"
  },
  {
   "alignment" : 4,
   "is_const" : true,
   "linker_set_key" : "_ZTIKNSt3__18optionalINS_6vectorIyNS_9allocatorIyEEEEEE",
   "name" : "const std::optional<std::vector<unsigned long long, std::allocator<unsigned long long>>>",
   "referenced_type" : "_ZTINSt3__18optionalINS_6vectorIyNS_9allocatorIyEEEEEE",
   "self_type" : "_ZTIKNSt3__18optionalINS_6vectorIyNS_9allocatorIyEEEEEE",
   "size" : 16,
   "source_file" : "frameworks/native/libs/binder/ndk/include_cpp/android/binder_parcel_utils.h"
  },
  {
   "alignment" : 4,
   "is_const" : true,
   "linker_set_key" : "_ZTIKP7AParcel",
   "name" : "AParcel *const",
   "referenced_type" : "_ZTIP7AParcel",
   "self_type" : "_ZTIKP7AParcel",
   "size" : 4,
   "source_file" : "frameworks/native/libs/binder/ndk/include_cpp/android/binder_auto_utils.h"
  },
  {
   "alignment" : 4,
   "is_const" : true,
   "linker_set_key" : "_ZTIKP7AStatus",
   "name" : "AStatus *const",
   "referenced_type" : "_ZTIP7AStatus",
   "self_type" : "_ZTIKP7AStatus",
   "size" : 4,
   "source_file" : "frameworks/native/libs/binder/ndk/include_cpp/android/binder_auto_utils.h"
  },
  {
   "alignment" : 1,
   "is_const" : true,
   "linker_set_key" : "_ZTIKb",
   "name" : "const bool",
   "referenced_type" : "_ZTIb",
   "self_type" : "_ZTIKb",
   "size" : 1,
   "source_file" : "frameworks/native/libs/binder/ndk/include_cpp/android/binder_parcel_utils.h"
  },
  {
   "alignment" : 1,
   "is_const" : true,
   "linker_set_key" : "_ZTIKc",
   "name" : "const char",
   "referenced_type" : "_ZTIc",
   "self_type" : "_ZTIKc",
   "size" : 1,
   "source_file" : "frameworks/native/libs/binder/ndk/include_cpp/android/binder_auto_utils.h"
  },
  {
   "alignment" : 1,
   "is_const" : true,
   "linker_set_key" : "_ZTIKh",
   "name" : "const unsigned char",
   "referenced_type" : "_ZTIh",
   "self_type" : "_ZTIKh",
   "size" : 1,
   "source_file" : "frameworks/native/libs/binder/ndk/include_cpp/android/binder_to_string.h"
  },
  {
   "alignment" : 4,
   "is_const" : true,
   "linker_set_key" : "_ZTIKi",
   "name" : "const int",
   "referenced_type" : "_ZTIi",
   "self_type" : "_ZTIKi",
   "size" : 4,
   "source_file" : "frameworks/native/libs/binder/ndk/include_cpp/android/binder_to_string.h"
  },
  {
   "alignment" : 4,
   "is_const" : true,
   "linker_set_key" : "_ZTIKj",
   "name" : "const unsigned int",
   "referenced_type" : "_ZTIj",
   "self_type" : "_ZTIKj",
   "size" : 4,
   "source_file" : "out/soong/.intermediates/hardware/interfaces/radio/aidl/android.hardware.radio.messaging-V1-ndk-source/gen/include/aidl/android/hardware/radio/messaging/IRadioMessagingIndication.h"
  },
  {
   "is_const" : true,
   "linker_set_key" : "_ZTIKv",
   "name" : "const void",
   "referenced_type" : "_ZTIv",
   "self_type" : "_ZTIKv",
   "source_file" : "frameworks/native/libs/binder/ndk/include_cpp/android/binder_parcel_utils.h"
  }
 ],
 "record_types" :
 [
  {
   "alignment" : 4,
   "fields" :
   [
    {
     "access" : "private",
     "field_name" : "mBinder",
     "referenced_type" : "_ZTIP8AIBinder"
    }
   ],
   "linker_set_key" : "_ZTIN3ndk10SpAIBinderE",
   "name" : "ndk::SpAIBinder",
   "record_kind" : "class",
   "referenced_type" : "_ZTIN3ndk10SpAIBinderE",
   "self_type" : "_ZTIN3ndk10SpAIBinderE",
   "size" : 4,
   "source_file" : "frameworks/native/libs/binder/ndk/include_cpp/android/binder_auto_utils.h"
  },
  {
   "access" : "private",
   "alignment" : 4,
   "fields" :
   [
    {
     "field_name" : "interface",
     "referenced_type" : "_ZTINSt3__110shared_ptrIN3ndk11ICInterfaceEEE"
    }
   ],
   "linker_set_key" : "_ZTIN3ndk11ICInterface15ICInterfaceDataE",
   "name" : "ndk::ICInterface::ICInterfaceData",
   "record_kind" : "class",
   "referenced_type" : "_ZTIN3ndk11ICInterface15ICInterfaceDataE",
   "self_type" : "_ZTIN3ndk11ICInterface15ICInterfaceDataE",
   "size" : 8,
   "source_file" : "frameworks/native/libs/binder/ndk/include_cpp/android/binder_interface_utils.h"
  },
  {
   "alignment" : 4,
   "base_specifiers" :
   [
    {
     "referenced_type" : "_ZTIN3ndk13SharedRefBaseE"
    }
   ],
   "linker_set_key" : "_ZTIN3ndk11ICInterfaceE",
   "name" : "ndk::ICInterface",
   "record_kind" : "class",
   "referenced_type" : "_ZTIN3ndk11ICInterfaceE",
   "self_type" : "_ZTIN3ndk11ICInterfaceE",
   "size" : 16,
   "source_file" : "frameworks/native/libs/binder/ndk/include_cpp/android/binder_interface_utils.h",
   "vtable_components" :
   [
    {
     "kind" : "offset_to_top"
    },
    {
     "kind" : "rtti",
     "mangled_component_name" : "_ZTIN3ndk11ICInterfaceE"
    },
    {
     "kind" : "complete_dtor_pointer",
     "mangled_component_name" : "_ZN3ndk11ICInterfaceD1Ev"
    },
    {
     "kind" : "deleting_dtor_pointer",
     "mangled_component_name" : "_ZN3ndk11ICInterfaceD0Ev"
    },
    {
     "is_pure" : true,
     "mangled_component_name" : "_ZN3ndk11ICInterface8asBinderEv"
    },
    {
     "is_pure" : true,
     "mangled_component_name" : "_ZN3ndk11ICInterface8isRemoteEv"
    },
    {
     "mangled_component_name" : "_ZN3ndk11ICInterface4dumpEiPPKcj"
    },
    {
     "mangled_component_name" : "_ZN3ndk11ICInterface18handleShellCommandEiiiPPKcj"
    }
   ]
  },
  {
   "alignment" : 4,
   "base_specifiers" :
   [
    {
     "referenced_type" : "_ZTIN4aidl7android8hardware5radio9messaging15IRadioMessagingE"
    }
   ],
   "fields" :
   [
    {
     "access" : "private",
     "field_name" : "mMutex",
     "field_offset" : 128,
     "referenced_type" : "_ZTINSt3__15mutexE"
    },
    {
     "access" : "private",
     "field_name" : "mWeakBinder",
     "field_offset" : 160,
     "referenced_type" : "_ZTIN3ndk19ScopedAIBinder_WeakE"
    }
   ],
   "linker_set_key" : "_ZTIN3ndk12BnCInterfaceIN4aidl7android8hardware5radio9messaging15IRadioMessagingEEE",
   "name" : "ndk::BnCInterface<aidl::android::hardware::radio::messaging::IRadioMessaging>",
   "record_kind" : "class",
   "referenced_type" : "_ZTIN3ndk12BnCInterfaceIN4aidl7android8hardware5radio9messaging15IRadioMessagingEEE",
   "self_type" : "_ZTIN3ndk12BnCInterfaceIN4aidl7android8hardware5radio9messaging15IRadioMessagingEEE",
   "size" : 24,
   "source_file" : "frameworks/native/libs/binder/ndk/include_cpp/android/binder_interface_utils.h",
   "template_args" :
   [
    "_ZTIN4aidl7android8hardware5radio9messaging15IRadioMessagingE"
   ],
   "vtable_components" :
   [
    {
     "kind" : "offset_to_top"
    },
    {
     "kind" : "rtti",
     "mangled_component_name" : "_ZTIN3ndk12BnCInterfaceIN4aidl7android8hardware5radio9messaging15IRadioMessagingEEE"
    },
    {
     "kind" : "complete_dtor_pointer",
     "mangled_component_name" : "_ZN3ndk12BnCInterfaceIN4aidl7android8hardware5radio9messaging15IRadioMessagingEED1Ev"
    },
    {
     "kind" : "deleting_dtor_pointer",
     "mangled_component_name" : "_ZN3ndk12BnCInterfaceIN4aidl7android8hardware5radio9messaging15IRadioMessagingEED0Ev"
    },
    {
     "mangled_component_name" : "_ZN3ndk12BnCInterfaceIN4aidl7android8hardware5radio9messaging15IRadioMessagingEE8asBinderEv"
    },
    {
     "mangled_component_name" : "_ZN3ndk12BnCInterfaceIN4aidl7android8hardware5radio9messaging15IRadioMessagingEE8isRemoteEv"
    },
    {
     "mangled_component_name" : "_ZN3ndk11ICInterface4dumpEiPPKcj"
    },
    {
     "mangled_component_name" : "_ZN3ndk11ICInterface18handleShellCommandEiiiPPKcj"
    },
    {
     "is_pure" : true,
     "mangled_component_name" : "_ZN4aidl7android8hardware5radio9messaging15IRadioMessaging32acknowledgeIncomingGsmSmsWithPduEibRKNSt3__112basic_stringIcNS5_11char_traitsIcEENS5_9allocatorIcEEEE"
    },
    {
     "is_pure" : true,
     "mangled_component_name" : "_ZN4aidl7android8hardware5radio9messaging15IRadioMessaging30acknowledgeLastIncomingCdmaSmsEiRKNS3_10CdmaSmsAckE"
    },
    {
     "is_pure" : true,
     "mangled_component_name" : "_ZN4aidl7android8hardware5radio9messaging15IRadioMessaging29acknowledgeLastIncomingGsmSmsEibNS3_23SmsAcknowledgeFailCauseE"
    },
    {
     "is_pure" : true,
     "mangled_component_name" : "_ZN4aidl7android8hardware5radio9messaging15IRadioMessaging15deleteSmsOnRuimEii"
    },
    {
     "is_pure" : true,
     "mangled_component_name" : "_ZN4aidl7android8hardware5radio9messaging15IRadioMessaging14deleteSmsOnSimEii"
    },
    {
     "is_pure" : true,
     "mangled_component_name" : "_ZN4aidl7android8hardware5radio9messaging15IRadioMessaging22getCdmaBroadcastConfigEi"
    },
    {
     "is_pure" : true,
     "mangled_component_name" : "_ZN4aidl7android8hardware5radio9messaging15IRadioMessaging21getGsmBroadcastConfigEi"
    },
    {
     "is_pure" : true,
     "mangled_component_name" : "_ZN4aidl7android8hardware5radio9messaging15IRadioMessaging14getSmscAddressEi"
    },
    {
     "is_pure" : true,
     "mangled_component_name" : "_ZN4aidl7android8hardware5radio9messaging15IRadioMessaging21reportSmsMemoryStatusEib"
    },
    {
     "is_pure" : true,
     "mangled_component_name" : "_ZN4aidl7android8hardware5radio9messaging15IRadioMessaging23responseAcknowledgementEv"
    },
    {
     "is_pure" : true,
     "mangled_component_name" : "_ZN4aidl7android8hardware5radio9messaging15IRadioMessaging11sendCdmaSmsEiRKNS3_14CdmaSmsMessageE"
    },
    {
     "is_pure" : true,
     "mangled_component_name" : "_ZN4aidl7android8hardware5radio9messaging15IRadioMessaging21sendCdmaSmsExpectMoreEiRKNS3_14CdmaSmsMessageE"
    },
    {
     "is_pure" : true,
     "mangled_component_name" : "_ZN4aidl7android8hardware5radio9messaging15IRadioMessaging10sendImsSmsEiRKNS3_13ImsSmsMessageE"
    },
    {
     "is_pure" : true,
     "mangled_component_name" : "_ZN4aidl7android8hardware5radio9messaging15IRadioMessaging7sendSmsEiRKNS3_13GsmSmsMessageE"
    },
    {
     "is_pure" : true,
     "mangled_component_name" : "_ZN4aidl7android8hardware5radio9messaging15IRadioMessaging17sendSmsExpectMoreEiRKNS3_13GsmSmsMessageE"
    },
    {
     "is_pure" : true,
     "mangled_component_name" : "_ZN4aidl7android8hardware5radio9messaging15IRadioMessaging26setCdmaBroadcastActivationEib"
    },
    {
     "is_pure" : true,
     "mangled_component_name" : "_ZN4aidl7android8hardware5radio9messaging15IRadioMessaging22setCdmaBroadcastConfigEiRKNSt3__16vectorINS3_26CdmaBroadcastSmsConfigInfoENS5_9allocatorIS7_EEEE"
    },
    {
     "is_pure" : true,
     "mangled_component_name" : "_ZN4aidl7android8hardware5radio9messaging15IRadioMessaging25setGsmBroadcastActivationEib"
    },
    {
     "is_pure" : true,
     "mangled_component_name" : "_ZN4aidl7android8hardware5radio9messaging15IRadioMessaging21setGsmBroadcastConfigEiRKNSt3__16vectorINS3_25GsmBroadcastSmsConfigInfoENS5_9allocatorIS7_EEEE"
    },
    {
     "is_pure" : true,
     "mangled_component_name" : "_ZN4aidl7android8hardware5radio9messaging15IRadioMessaging20setResponseFunctionsERKNSt3__110shared_ptrINS3_23IRadioMessagingResponseEEERKNS6_INS3_25IRadioMessagingIndicationEEE"
    },
    {
     "is_pure" : true,
     "mangled_component_name" : "_ZN4aidl7android8hardware5radio9messaging15IRadioMessaging14setSmscAddressEiRKNSt3__112basic_stringIcNS5_11char_traitsIcEENS5_9allocatorIcEEEE"
    },
    {
     "is_pure" : true,
     "mangled_component_name" : "_ZN4aidl7android8hardware5radio9messaging15IRadioMessaging14writeSmsToRuimEiRKNS3_16CdmaSmsWriteArgsE"
    },
    {
     "is_pure" : true,
     "mangled_component_name" : "_ZN4aidl7android8hardware5radio9messaging15IRadioMessaging13writeSmsToSimEiRKNS3_12SmsWriteArgsE"
    },
    {
     "is_pure" : true,
     "mangled_component_name" : "_ZN4aidl7android8hardware5radio9messaging15IRadioMessaging19getInterfaceVersionEPi"
    },
    {
     "is_pure" : true,
     "mangled_component_name" : "_ZN4aidl7android8hardware5radio9messaging15IRadioMessaging16getInterfaceHashEPNSt3__112basic_stringIcNS5_11char_traitsIcEENS5_9allocatorIcEEEE"
    },
    {
     "is_pure" : true,
     "mangled_component_name" : "_ZN3ndk12BnCInterfaceIN4aidl7android8hardware5radio9messaging15IRadioMessagingEE12createBinderEv"
    }
   ]
  },
  {
   "alignment" : 4,
   "base_specifiers" :
   [
    {
     "referenced_type" : "_ZTIN4aidl7android8hardware5radio9messaging23IRadioMessagingResponseE"
    }
   ],
   "fields" :
   [
    {
     "access" : "private",
     "field_name" : "mMutex",
     "field_offset" : 128,
     "referenced_type" : "_ZTINSt3__15mutexE"
    },
    {
     "access" : "private",
     "field_name" : "mWeakBinder",
     "field_offset" : 160,
     "referenced_type" : "_ZTIN3ndk19ScopedAIBinder_WeakE"
    }
   ],
   "linker_set_key" : "_ZTIN3ndk12BnCInterfaceIN4aidl7android8hardware5radio9messaging23IRadioMessagingResponseEEE",
   "name" : "ndk::BnCInterface<aidl::android::hardware::radio::messaging::IRadioMessagingResponse>",
   "record_kind" : "class",
   "referenced_type" : "_ZTIN3ndk12BnCInterfaceIN4aidl7android8hardware5radio9messaging23IRadioMessagingResponseEEE",
   "self_type" : "_ZTIN3ndk12BnCInterfaceIN4aidl7android8hardware5radio9messaging23IRadioMessagingResponseEEE",
   "size" : 24,
   "source_file" : "frameworks/native/libs/binder/ndk/include_cpp/android/binder_interface_utils.h",
   "template_args" :
   [
    "_ZTIN4aidl7android8hardware5radio9messaging23IRadioMessagingResponseE"
   ],
   "vtable_components" :
   [
    {
     "kind" : "offset_to_top"
    },
    {
     "kind" : "rtti",
     "mangled_component_name" : "_ZTIN3ndk12BnCInterfaceIN4aidl7android8hardware5radio9messaging23IRadioMessagingResponseEEE"
    },
    {
     "kind" : "complete_dtor_pointer",
     "mangled_component_name" : "_ZN3ndk12BnCInterfaceIN4aidl7android8hardware5radio9messaging23IRadioMessagingResponseEED1Ev"
    },
    {
     "kind" : "deleting_dtor_pointer",
     "mangled_component_name" : "_ZN3ndk12BnCInterfaceIN4aidl7android8hardware5radio9messaging23IRadioMessagingResponseEED0Ev"
    },
    {
     "mangled_component_name" : "_ZN3ndk12BnCInterfaceIN4aidl7android8hardware5radio9messaging23IRadioMessagingResponseEE8asBinderEv"
    },
    {
     "mangled_component_name" : "_ZN3ndk12BnCInterfaceIN4aidl7android8hardware5radio9messaging23IRadioMessagingResponseEE8isRemoteEv"
    },
    {
     "mangled_component_name" : "_ZN3ndk11ICInterface4dumpEiPPKcj"
    },
    {
     "mangled_component_name" : "_ZN3ndk11ICInterface18handleShellCommandEiiiPPKcj"
    },
    {
     "is_pure" : true,
     "mangled_component_name" : "_ZN4aidl7android8hardware5radio9messaging23IRadioMessagingResponse40acknowledgeIncomingGsmSmsWithPduResponseERKNS2_17RadioResponseInfoE"
    },
    {
     "is_pure" : true,
     "mangled_component_name" : "_ZN4aidl7android8hardware5radio9messaging23IRadioMessagingResponse38acknowledgeLastIncomingCdmaSmsResponseERKNS2_17RadioResponseInfoE"
    },
    {
     "is_pure" : true,
     "mangled_component_name" : "_ZN4aidl7android8hardware5radio9messaging23IRadioMessagingResponse37acknowledgeLastIncomingGsmSmsResponseERKNS2_17RadioResponseInfoE"
    },
    {
     "is_pure" : true,
     "mangled_component_name" : "_ZN4aidl7android8hardware5radio9messaging23IRadioMessagingResponse18acknowledgeRequestEi"
    },
    {
     "is_pure" : true,
     "mangled_component_name" : "_ZN4aidl7android8hardware5radio9messaging23IRadioMessagingResponse23deleteSmsOnRuimResponseERKNS2_17RadioResponseInfoE"
    },
    {
     "is_pure" : true,
     "mangled_component_name" : "_ZN4aidl7android8hardware5radio9messaging23IRadioMessagingResponse22deleteSmsOnSimResponseERKNS2_17RadioResponseInfoE"
    },
    {
     "is_pure" : true,
     "mangled_component_name" : "_ZN4aidl7android8hardware5radio9messaging23IRadioMessagingResponse30getCdmaBroadcastConfigResponseERKNS2_17RadioResponseInfoERKNSt3__16vectorINS3_26CdmaBroadcastSmsConfigInfoENS8_9allocatorISA_EEEE"
    },
    {
     "is_pure" : true,
     "mangled_component_name" : "_ZN4aidl7android8hardware5radio9messaging23IRadioMessagingResponse29getGsmBroadcastConfigResponseERKNS2_17RadioResponseInfoERKNSt3__16vectorINS3_25GsmBroadcastSmsConfigInfoENS8_9allocatorISA_EEEE"
    },
    {
     "is_pure" : true,
     "mangled_component_name" : "_ZN4aidl7android8hardware5radio9messaging23IRadioMessagingResponse22getSmscAddressResponseERKNS2_17RadioResponseInfoERKNSt3__112basic_stringIcNS8_11char_traitsIcEENS8_9allocatorIcEEEE"
    },
    {
     "is_pure" : true,
     "mangled_component_name" : "_ZN4aidl7android8hardware5radio9messaging23IRadioMessagingResponse29reportSmsMemoryStatusResponseERKNS2_17RadioResponseInfoE"
    },
    {
     "is_pure" : true,
     "mangled_component_name" : "_ZN4aidl7android8hardware5radio9messaging23IRadioMessagingResponse29sendCdmaSmsExpectMoreResponseERKNS2_17RadioResponseInfoERKNS3_13SendSmsResultE"
    },
    {
     "is_pure" : true,
     "mangled_component_name" : "_ZN4aidl7android8hardware5radio9messaging23IRadioMessagingResponse19sendCdmaSmsResponseERKNS2_17RadioResponseInfoERKNS3_13SendSmsResultE"
    },
    {
     "is_pure" : true,
     "mangled_component_name" : "_ZN4aidl7android8hardware5radio9messaging23IRadioMessagingResponse18sendImsSmsResponseERKNS2_17RadioResponseInfoERKNS3_13SendSmsResultE"
    },
    {
     "is_pure" : true,
     "mangled_component_name" : "_ZN4aidl7android8hardware5radio9messaging23IRadioMessagingResponse25sendSmsExpectMoreResponseERKNS2_17RadioResponseInfoERKNS3_13SendSmsResultE"
    },
    {
     "is_pure" : true,
     "mangled_component_name" : "_ZN4aidl7android8hardware5radio9messaging23IRadioMessagingResponse15sendSmsResponseERKNS2_17RadioResponseInfoERKNS3_13SendSmsResultE"
    },
    {
     "is_pure" : true,
     "mangled_component_name" : "_ZN4aidl7android8hardware5radio9messaging23IRadioMessagingResponse34setCdmaBroadcastActivationResponseERKNS2_17RadioResponseInfoE"
    },
    {
     "is_pure" : true,
     "mangled_component_name" : "_ZN4aidl7android8hardware5radio9messaging23IRadioMessagingResponse30setCdmaBroadcastConfigResponseERKNS2_17RadioResponseInfoE"
    },
    {
     "is_pure" : true,
     "mangled_component_name" : "_ZN4aidl7android8hardware5radio9messaging23IRadioMessagingResponse33setGsmBroadcastActivationResponseERKNS2_17RadioResponseInfoE"
    },
    {
     "is_pure" : true,
     "mangled_component_name" : "_ZN4aidl7android8hardware5radio9messaging23IRadioMessagingResponse29setGsmBroadcastConfigResponseERKNS2_17RadioResponseInfoE"
    },
    {
     "is_pure" : true,
     "mangled_component_name" : "_ZN4aidl7android8hardware5radio9messaging23IRadioMessagingResponse22setSmscAddressResponseERKNS2_17RadioResponseInfoE"
    },
    {
     "is_pure" : true,
     "mangled_component_name" : "_ZN4aidl7android8hardware5radio9messaging23IRadioMessagingResponse22writeSmsToRuimResponseERKNS2_17RadioResponseInfoEi"
    },
    {
     "is_pure" : true,
     "mangled_component_name" : "_ZN4aidl7android8hardware5radio9messaging23IRadioMessagingResponse21writeSmsToSimResponseERKNS2_17RadioResponseInfoEi"
    },
    {
     "is_pure" : true,
     "mangled_component_name" : "_ZN4aidl7android8hardware5radio9messaging23IRadioMessagingResponse19getInterfaceVersionEPi"
    },
    {
     "is_pure" : true,
     "mangled_component_name" : "_ZN4aidl7android8hardware5radio9messaging23IRadioMessagingResponse16getInterfaceHashEPNSt3__112basic_stringIcNS5_11char_traitsIcEENS5_9allocatorIcEEEE"
    },
    {
     "is_pure" : true,
     "mangled_component_name" : "_ZN3ndk12BnCInterfaceIN4aidl7android8hardware5radio9messaging23IRadioMessagingResponseEE12createBinderEv"
    }
   ]
  },
  {
   "alignment" : 4,
   "base_specifiers" :
   [
    {
     "referenced_type" : "_ZTIN4aidl7android8hardware5radio9messaging25IRadioMessagingIndicationE"
    }
   ],
   "fields" :
   [
    {
     "access" : "private",
     "field_name" : "mMutex",
     "field_offset" : 128,
     "referenced_type" : "_ZTINSt3__15mutexE"
    },
    {
     "access" : "private",
     "field_name" : "mWeakBinder",
     "field_offset" : 160,
     "referenced_type" : "_ZTIN3ndk19ScopedAIBinder_WeakE"
    }
   ],
   "linker_set_key" : "_ZTIN3ndk12BnCInterfaceIN4aidl7android8hardware5radio9messaging25IRadioMessagingIndicationEEE",
   "name" : "ndk::BnCInterface<aidl::android::hardware::radio::messaging::IRadioMessagingIndication>",
   "record_kind" : "class",
   "referenced_type" : "_ZTIN3ndk12BnCInterfaceIN4aidl7android8hardware5radio9messaging25IRadioMessagingIndicationEEE",
   "self_type" : "_ZTIN3ndk12BnCInterfaceIN4aidl7android8hardware5radio9messaging25IRadioMessagingIndicationEEE",
   "size" : 24,
   "source_file" : "frameworks/native/libs/binder/ndk/include_cpp/android/binder_interface_utils.h",
   "template_args" :
   [
    "_ZTIN4aidl7android8hardware5radio9messaging25IRadioMessagingIndicationE"
   ],
   "vtable_components" :
   [
    {
     "kind" : "offset_to_top"
    },
    {
     "kind" : "rtti",
     "mangled_component_name" : "_ZTIN3ndk12BnCInterfaceIN4aidl7android8hardware5radio9messaging25IRadioMessagingIndicationEEE"
    },
    {
     "kind" : "complete_dtor_pointer",
     "mangled_component_name" : "_ZN3ndk12BnCInterfaceIN4aidl7android8hardware5radio9messaging25IRadioMessagingIndicationEED1Ev"
    },
    {
     "kind" : "deleting_dtor_pointer",
     "mangled_component_name" : "_ZN3ndk12BnCInterfaceIN4aidl7android8hardware5radio9messaging25IRadioMessagingIndicationEED0Ev"
    },
    {
     "mangled_component_name" : "_ZN3ndk12BnCInterfaceIN4aidl7android8hardware5radio9messaging25IRadioMessagingIndicationEE8asBinderEv"
    },
    {
     "mangled_component_name" : "_ZN3ndk12BnCInterfaceIN4aidl7android8hardware5radio9messaging25IRadioMessagingIndicationEE8isRemoteEv"
    },
    {
     "mangled_component_name" : "_ZN3ndk11ICInterface4dumpEiPPKcj"
    },
    {
     "mangled_component_name" : "_ZN3ndk11ICInterface18handleShellCommandEiiiPPKcj"
    },
    {
     "is_pure" : true,
     "mangled_component_name" : "_ZN4aidl7android8hardware5radio9messaging25IRadioMessagingIndication10cdmaNewSmsENS2_19RadioIndicationTypeERKNS3_14CdmaSmsMessageE"
    },
    {
     "is_pure" : true,
     "mangled_component_name" : "_ZN4aidl7android8hardware5radio9messaging25IRadioMessagingIndication22cdmaRuimSmsStorageFullENS2_19RadioIndicationTypeE"
    },
    {
     "is_pure" : true,
     "mangled_component_name" : "_ZN4aidl7android8hardware5radio9messaging25IRadioMessagingIndication15newBroadcastSmsENS2_19RadioIndicationTypeERKNSt3__16vectorIhNS6_9allocatorIhEEEE"
    },
    {
     "is_pure" : true,
     "mangled_component_name" : "_ZN4aidl7android8hardware5radio9messaging25IRadioMessagingIndication6newSmsENS2_19RadioIndicationTypeERKNSt3__16vectorIhNS6_9allocatorIhEEEE"
    },
    {
     "is_pure" : true,
     "mangled_component_name" : "_ZN4aidl7android8hardware5radio9messaging25IRadioMessagingIndication11newSmsOnSimENS2_19RadioIndicationTypeEi"
    },
    {
     "is_pure" : true,
     "mangled_component_name" : "_ZN4aidl7android8hardware5radio9messaging25IRadioMessagingIndication18newSmsStatusReportENS2_19RadioIndicationTypeERKNSt3__16vectorIhNS6_9allocatorIhEEEE"
    },
    {
     "is_pure" : true,
     "mangled_component_name" : "_ZN4aidl7android8hardware5radio9messaging25IRadioMessagingIndication17simSmsStorageFullENS2_19RadioIndicationTypeE"
    },
    {
     "is_pure" : true,
     "mangled_component_name" : "_ZN4aidl7android8hardware5radio9messaging25IRadioMessagingIndication19getInterfaceVersionEPi"
    },
    {
     "is_pure" : true,
     "mangled_component_name" : "_ZN4aidl7android8hardware5radio9messaging25IRadioMessagingIndication16getInterfaceHashEPNSt3__112basic_stringIcNS5_11char_traitsIcEENS5_9allocatorIcEEEE"
    },
    {
     "is_pure" : true,
     "mangled_component_name" : "_ZN3ndk12BnCInterfaceIN4aidl7android8hardware5radio9messaging25IRadioMessagingIndicationEE12createBinderEv"
    }
   ]
  },
  {
   "alignment" : 4,
   "base_specifiers" :
   [
    {
     "referenced_type" : "_ZTIN4aidl7android8hardware5radio9messaging15IRadioMessagingE"
    }
   ],
   "fields" :
   [
    {
     "access" : "private",
     "field_name" : "mBinder",
     "field_offset" : 128,
     "referenced_type" : "_ZTIN3ndk10SpAIBinderE"
    }
   ],
   "linker_set_key" : "_ZTIN3ndk12BpCInterfaceIN4aidl7android8hardware5radio9messaging15IRadioMessagingEEE",
   "name" : "ndk::BpCInterface<aidl::android::hardware::radio::messaging::IRadioMessaging>",
   "record_kind" : "class",
   "referenced_type" : "_ZTIN3ndk12BpCInterfaceIN4aidl7android8hardware5radio9messaging15IRadioMessagingEEE",
   "self_type" : "_ZTIN3ndk12BpCInterfaceIN4aidl7android8hardware5radio9messaging15IRadioMessagingEEE",
   "size" : 20,
   "source_file" : "frameworks/native/libs/binder/ndk/include_cpp/android/binder_interface_utils.h",
   "template_args" :
   [
    "_ZTIN4aidl7android8hardware5radio9messaging15IRadioMessagingE"
   ],
   "vtable_components" :
   [
    {
     "kind" : "offset_to_top"
    },
    {
     "kind" : "rtti",
     "mangled_component_name" : "_ZTIN3ndk12BpCInterfaceIN4aidl7android8hardware5radio9messaging15IRadioMessagingEEE"
    },
    {
     "kind" : "complete_dtor_pointer",
     "mangled_component_name" : "_ZN3ndk12BpCInterfaceIN4aidl7android8hardware5radio9messaging15IRadioMessagingEED1Ev"
    },
    {
     "kind" : "deleting_dtor_pointer",
     "mangled_component_name" : "_ZN3ndk12BpCInterfaceIN4aidl7android8hardware5radio9messaging15IRadioMessagingEED0Ev"
    },
    {
     "mangled_component_name" : "_ZN3ndk12BpCInterfaceIN4aidl7android8hardware5radio9messaging15IRadioMessagingEE8asBinderEv"
    },
    {
     "mangled_component_name" : "_ZN3ndk12BpCInterfaceIN4aidl7android8hardware5radio9messaging15IRadioMessagingEE8isRemoteEv"
    },
    {
     "mangled_component_name" : "_ZN3ndk12BpCInterfaceIN4aidl7android8hardware5radio9messaging15IRadioMessagingEE4dumpEiPPKcj"
    },
    {
     "mangled_component_name" : "_ZN3ndk11ICInterface18handleShellCommandEiiiPPKcj"
    },
    {
     "is_pure" : true,
     "mangled_component_name" : "_ZN4aidl7android8hardware5radio9messaging15IRadioMessaging32acknowledgeIncomingGsmSmsWithPduEibRKNSt3__112basic_stringIcNS5_11char_traitsIcEENS5_9allocatorIcEEEE"
    },
    {
     "is_pure" : true,
     "mangled_component_name" : "_ZN4aidl7android8hardware5radio9messaging15IRadioMessaging30acknowledgeLastIncomingCdmaSmsEiRKNS3_10CdmaSmsAckE"
    },
    {
     "is_pure" : true,
     "mangled_component_name" : "_ZN4aidl7android8hardware5radio9messaging15IRadioMessaging29acknowledgeLastIncomingGsmSmsEibNS3_23SmsAcknowledgeFailCauseE"
    },
    {
     "is_pure" : true,
     "mangled_component_name" : "_ZN4aidl7android8hardware5radio9messaging15IRadioMessaging15deleteSmsOnRuimEii"
    },
    {
     "is_pure" : true,
     "mangled_component_name" : "_ZN4aidl7android8hardware5radio9messaging15IRadioMessaging14deleteSmsOnSimEii"
    },
    {
     "is_pure" : true,
     "mangled_component_name" : "_ZN4aidl7android8hardware5radio9messaging15IRadioMessaging22getCdmaBroadcastConfigEi"
    },
    {
     "is_pure" : true,
     "mangled_component_name" : "_ZN4aidl7android8hardware5radio9messaging15IRadioMessaging21getGsmBroadcastConfigEi"
    },
    {
     "is_pure" : true,
     "mangled_component_name" : "_ZN4aidl7android8hardware5radio9messaging15IRadioMessaging14getSmscAddressEi"
    },
    {
     "is_pure" : true,
     "mangled_component_name" : "_ZN4aidl7android8hardware5radio9messaging15IRadioMessaging21reportSmsMemoryStatusEib"
    },
    {
     "is_pure" : true,
     "mangled_component_name" : "_ZN4aidl7android8hardware5radio9messaging15IRadioMessaging23responseAcknowledgementEv"
    },
    {
     "is_pure" : true,
     "mangled_component_name" : "_ZN4aidl7android8hardware5radio9messaging15IRadioMessaging11sendCdmaSmsEiRKNS3_14CdmaSmsMessageE"
    },
    {
     "is_pure" : true,
     "mangled_component_name" : "_ZN4aidl7android8hardware5radio9messaging15IRadioMessaging21sendCdmaSmsExpectMoreEiRKNS3_14CdmaSmsMessageE"
    },
    {
     "is_pure" : true,
     "mangled_component_name" : "_ZN4aidl7android8hardware5radio9messaging15IRadioMessaging10sendImsSmsEiRKNS3_13ImsSmsMessageE"
    },
    {
     "is_pure" : true,
     "mangled_component_name" : "_ZN4aidl7android8hardware5radio9messaging15IRadioMessaging7sendSmsEiRKNS3_13GsmSmsMessageE"
    },
    {
     "is_pure" : true,
     "mangled_component_name" : "_ZN4aidl7android8hardware5radio9messaging15IRadioMessaging17sendSmsExpectMoreEiRKNS3_13GsmSmsMessageE"
    },
    {
     "is_pure" : true,
     "mangled_component_name" : "_ZN4aidl7android8hardware5radio9messaging15IRadioMessaging26setCdmaBroadcastActivationEib"
    },
    {
     "is_pure" : true,
     "mangled_component_name" : "_ZN4aidl7android8hardware5radio9messaging15IRadioMessaging22setCdmaBroadcastConfigEiRKNSt3__16vectorINS3_26CdmaBroadcastSmsConfigInfoENS5_9allocatorIS7_EEEE"
    },
    {
     "is_pure" : true,
     "mangled_component_name" : "_ZN4aidl7android8hardware5radio9messaging15IRadioMessaging25setGsmBroadcastActivationEib"
    },
    {
     "is_pure" : true,
     "mangled_component_name" : "_ZN4aidl7android8hardware5radio9messaging15IRadioMessaging21setGsmBroadcastConfigEiRKNSt3__16vectorINS3_25GsmBroadcastSmsConfigInfoENS5_9allocatorIS7_EEEE"
    },
    {
     "is_pure" : true,
     "mangled_component_name" : "_ZN4aidl7android8hardware5radio9messaging15IRadioMessaging20setResponseFunctionsERKNSt3__110shared_ptrINS3_23IRadioMessagingResponseEEERKNS6_INS3_25IRadioMessagingIndicationEEE"
    },
    {
     "is_pure" : true,
     "mangled_component_name" : "_ZN4aidl7android8hardware5radio9messaging15IRadioMessaging14setSmscAddressEiRKNSt3__112basic_stringIcNS5_11char_traitsIcEENS5_9allocatorIcEEEE"
    },
    {
     "is_pure" : true,
     "mangled_component_name" : "_ZN4aidl7android8hardware5radio9messaging15IRadioMessaging14writeSmsToRuimEiRKNS3_16CdmaSmsWriteArgsE"
    },
    {
     "is_pure" : true,
     "mangled_component_name" : "_ZN4aidl7android8hardware5radio9messaging15IRadioMessaging13writeSmsToSimEiRKNS3_12SmsWriteArgsE"
    },
    {
     "is_pure" : true,
     "mangled_component_name" : "_ZN4aidl7android8hardware5radio9messaging15IRadioMessaging19getInterfaceVersionEPi"
    },
    {
     "is_pure" : true,
     "mangled_component_name" : "_ZN4aidl7android8hardware5radio9messaging15IRadioMessaging16getInterfaceHashEPNSt3__112basic_stringIcNS5_11char_traitsIcEENS5_9allocatorIcEEEE"
    }
   ]
  },
  {
   "alignment" : 4,
   "base_specifiers" :
   [
    {
     "referenced_type" : "_ZTIN4aidl7android8hardware5radio9messaging23IRadioMessagingResponseE"
    }
   ],
   "fields" :
   [
    {
     "access" : "private",
     "field_name" : "mBinder",
     "field_offset" : 128,
     "referenced_type" : "_ZTIN3ndk10SpAIBinderE"
    }
   ],
   "linker_set_key" : "_ZTIN3ndk12BpCInterfaceIN4aidl7android8hardware5radio9messaging23IRadioMessagingResponseEEE",
   "name" : "ndk::BpCInterface<aidl::android::hardware::radio::messaging::IRadioMessagingResponse>",
   "record_kind" : "class",
   "referenced_type" : "_ZTIN3ndk12BpCInterfaceIN4aidl7android8hardware5radio9messaging23IRadioMessagingResponseEEE",
   "self_type" : "_ZTIN3ndk12BpCInterfaceIN4aidl7android8hardware5radio9messaging23IRadioMessagingResponseEEE",
   "size" : 20,
   "source_file" : "frameworks/native/libs/binder/ndk/include_cpp/android/binder_interface_utils.h",
   "template_args" :
   [
    "_ZTIN4aidl7android8hardware5radio9messaging23IRadioMessagingResponseE"
   ],
   "vtable_components" :
   [
    {
     "kind" : "offset_to_top"
    },
    {
     "kind" : "rtti",
     "mangled_component_name" : "_ZTIN3ndk12BpCInterfaceIN4aidl7android8hardware5radio9messaging23IRadioMessagingResponseEEE"
    },
    {
     "kind" : "complete_dtor_pointer",
     "mangled_component_name" : "_ZN3ndk12BpCInterfaceIN4aidl7android8hardware5radio9messaging23IRadioMessagingResponseEED1Ev"
    },
    {
     "kind" : "deleting_dtor_pointer",
     "mangled_component_name" : "_ZN3ndk12BpCInterfaceIN4aidl7android8hardware5radio9messaging23IRadioMessagingResponseEED0Ev"
    },
    {
     "mangled_component_name" : "_ZN3ndk12BpCInterfaceIN4aidl7android8hardware5radio9messaging23IRadioMessagingResponseEE8asBinderEv"
    },
    {
     "mangled_component_name" : "_ZN3ndk12BpCInterfaceIN4aidl7android8hardware5radio9messaging23IRadioMessagingResponseEE8isRemoteEv"
    },
    {
     "mangled_component_name" : "_ZN3ndk12BpCInterfaceIN4aidl7android8hardware5radio9messaging23IRadioMessagingResponseEE4dumpEiPPKcj"
    },
    {
     "mangled_component_name" : "_ZN3ndk11ICInterface18handleShellCommandEiiiPPKcj"
    },
    {
     "is_pure" : true,
     "mangled_component_name" : "_ZN4aidl7android8hardware5radio9messaging23IRadioMessagingResponse40acknowledgeIncomingGsmSmsWithPduResponseERKNS2_17RadioResponseInfoE"
    },
    {
     "is_pure" : true,
     "mangled_component_name" : "_ZN4aidl7android8hardware5radio9messaging23IRadioMessagingResponse38acknowledgeLastIncomingCdmaSmsResponseERKNS2_17RadioResponseInfoE"
    },
    {
     "is_pure" : true,
     "mangled_component_name" : "_ZN4aidl7android8hardware5radio9messaging23IRadioMessagingResponse37acknowledgeLastIncomingGsmSmsResponseERKNS2_17RadioResponseInfoE"
    },
    {
     "is_pure" : true,
     "mangled_component_name" : "_ZN4aidl7android8hardware5radio9messaging23IRadioMessagingResponse18acknowledgeRequestEi"
    },
    {
     "is_pure" : true,
     "mangled_component_name" : "_ZN4aidl7android8hardware5radio9messaging23IRadioMessagingResponse23deleteSmsOnRuimResponseERKNS2_17RadioResponseInfoE"
    },
    {
     "is_pure" : true,
     "mangled_component_name" : "_ZN4aidl7android8hardware5radio9messaging23IRadioMessagingResponse22deleteSmsOnSimResponseERKNS2_17RadioResponseInfoE"
    },
    {
     "is_pure" : true,
     "mangled_component_name" : "_ZN4aidl7android8hardware5radio9messaging23IRadioMessagingResponse30getCdmaBroadcastConfigResponseERKNS2_17RadioResponseInfoERKNSt3__16vectorINS3_26CdmaBroadcastSmsConfigInfoENS8_9allocatorISA_EEEE"
    },
    {
     "is_pure" : true,
     "mangled_component_name" : "_ZN4aidl7android8hardware5radio9messaging23IRadioMessagingResponse29getGsmBroadcastConfigResponseERKNS2_17RadioResponseInfoERKNSt3__16vectorINS3_25GsmBroadcastSmsConfigInfoENS8_9allocatorISA_EEEE"
    },
    {
     "is_pure" : true,
     "mangled_component_name" : "_ZN4aidl7android8hardware5radio9messaging23IRadioMessagingResponse22getSmscAddressResponseERKNS2_17RadioResponseInfoERKNSt3__112basic_stringIcNS8_11char_traitsIcEENS8_9allocatorIcEEEE"
    },
    {
     "is_pure" : true,
     "mangled_component_name" : "_ZN4aidl7android8hardware5radio9messaging23IRadioMessagingResponse29reportSmsMemoryStatusResponseERKNS2_17RadioResponseInfoE"
    },
    {
     "is_pure" : true,
     "mangled_component_name" : "_ZN4aidl7android8hardware5radio9messaging23IRadioMessagingResponse29sendCdmaSmsExpectMoreResponseERKNS2_17RadioResponseInfoERKNS3_13SendSmsResultE"
    },
    {
     "is_pure" : true,
     "mangled_component_name" : "_ZN4aidl7android8hardware5radio9messaging23IRadioMessagingResponse19sendCdmaSmsResponseERKNS2_17RadioResponseInfoERKNS3_13SendSmsResultE"
    },
    {
     "is_pure" : true,
     "mangled_component_name" : "_ZN4aidl7android8hardware5radio9messaging23IRadioMessagingResponse18sendImsSmsResponseERKNS2_17RadioResponseInfoERKNS3_13SendSmsResultE"
    },
    {
     "is_pure" : true,
     "mangled_component_name" : "_ZN4aidl7android8hardware5radio9messaging23IRadioMessagingResponse25sendSmsExpectMoreResponseERKNS2_17RadioResponseInfoERKNS3_13SendSmsResultE"
    },
    {
     "is_pure" : true,
     "mangled_component_name" : "_ZN4aidl7android8hardware5radio9messaging23IRadioMessagingResponse15sendSmsResponseERKNS2_17RadioResponseInfoERKNS3_13SendSmsResultE"
    },
    {
     "is_pure" : true,
     "mangled_component_name" : "_ZN4aidl7android8hardware5radio9messaging23IRadioMessagingResponse34setCdmaBroadcastActivationResponseERKNS2_17RadioResponseInfoE"
    },
    {
     "is_pure" : true,
     "mangled_component_name" : "_ZN4aidl7android8hardware5radio9messaging23IRadioMessagingResponse30setCdmaBroadcastConfigResponseERKNS2_17RadioResponseInfoE"
    },
    {
     "is_pure" : true,
     "mangled_component_name" : "_ZN4aidl7android8hardware5radio9messaging23IRadioMessagingResponse33setGsmBroadcastActivationResponseERKNS2_17RadioResponseInfoE"
    },
    {
     "is_pure" : true,
     "mangled_component_name" : "_ZN4aidl7android8hardware5radio9messaging23IRadioMessagingResponse29setGsmBroadcastConfigResponseERKNS2_17RadioResponseInfoE"
    },
    {
     "is_pure" : true,
     "mangled_component_name" : "_ZN4aidl7android8hardware5radio9messaging23IRadioMessagingResponse22setSmscAddressResponseERKNS2_17RadioResponseInfoE"
    },
    {
     "is_pure" : true,
     "mangled_component_name" : "_ZN4aidl7android8hardware5radio9messaging23IRadioMessagingResponse22writeSmsToRuimResponseERKNS2_17RadioResponseInfoEi"
    },
    {
     "is_pure" : true,
     "mangled_component_name" : "_ZN4aidl7android8hardware5radio9messaging23IRadioMessagingResponse21writeSmsToSimResponseERKNS2_17RadioResponseInfoEi"
    },
    {
     "is_pure" : true,
     "mangled_component_name" : "_ZN4aidl7android8hardware5radio9messaging23IRadioMessagingResponse19getInterfaceVersionEPi"
    },
    {
     "is_pure" : true,
     "mangled_component_name" : "_ZN4aidl7android8hardware5radio9messaging23IRadioMessagingResponse16getInterfaceHashEPNSt3__112basic_stringIcNS5_11char_traitsIcEENS5_9allocatorIcEEEE"
    }
   ]
  },
  {
   "alignment" : 4,
   "base_specifiers" :
   [
    {
     "referenced_type" : "_ZTIN4aidl7android8hardware5radio9messaging25IRadioMessagingIndicationE"
    }
   ],
   "fields" :
   [
    {
     "access" : "private",
     "field_name" : "mBinder",
     "field_offset" : 128,
     "referenced_type" : "_ZTIN3ndk10SpAIBinderE"
    }
   ],
   "linker_set_key" : "_ZTIN3ndk12BpCInterfaceIN4aidl7android8hardware5radio9messaging25IRadioMessagingIndicationEEE",
   "name" : "ndk::BpCInterface<aidl::android::hardware::radio::messaging::IRadioMessagingIndication>",
   "record_kind" : "class",
   "referenced_type" : "_ZTIN3ndk12BpCInterfaceIN4aidl7android8hardware5radio9messaging25IRadioMessagingIndicationEEE",
   "self_type" : "_ZTIN3ndk12BpCInterfaceIN4aidl7android8hardware5radio9messaging25IRadioMessagingIndicationEEE",
   "size" : 20,
   "source_file" : "frameworks/native/libs/binder/ndk/include_cpp/android/binder_interface_utils.h",
   "template_args" :
   [
    "_ZTIN4aidl7android8hardware5radio9messaging25IRadioMessagingIndicationE"
   ],
   "vtable_components" :
   [
    {
     "kind" : "offset_to_top"
    },
    {
     "kind" : "rtti",
     "mangled_component_name" : "_ZTIN3ndk12BpCInterfaceIN4aidl7android8hardware5radio9messaging25IRadioMessagingIndicationEEE"
    },
    {
     "kind" : "complete_dtor_pointer",
     "mangled_component_name" : "_ZN3ndk12BpCInterfaceIN4aidl7android8hardware5radio9messaging25IRadioMessagingIndicationEED1Ev"
    },
    {
     "kind" : "deleting_dtor_pointer",
     "mangled_component_name" : "_ZN3ndk12BpCInterfaceIN4aidl7android8hardware5radio9messaging25IRadioMessagingIndicationEED0Ev"
    },
    {
     "mangled_component_name" : "_ZN3ndk12BpCInterfaceIN4aidl7android8hardware5radio9messaging25IRadioMessagingIndicationEE8asBinderEv"
    },
    {
     "mangled_component_name" : "_ZN3ndk12BpCInterfaceIN4aidl7android8hardware5radio9messaging25IRadioMessagingIndicationEE8isRemoteEv"
    },
    {
     "mangled_component_name" : "_ZN3ndk12BpCInterfaceIN4aidl7android8hardware5radio9messaging25IRadioMessagingIndicationEE4dumpEiPPKcj"
    },
    {
     "mangled_component_name" : "_ZN3ndk11ICInterface18handleShellCommandEiiiPPKcj"
    },
    {
     "is_pure" : true,
     "mangled_component_name" : "_ZN4aidl7android8hardware5radio9messaging25IRadioMessagingIndication10cdmaNewSmsENS2_19RadioIndicationTypeERKNS3_14CdmaSmsMessageE"
    },
    {
     "is_pure" : true,
     "mangled_component_name" : "_ZN4aidl7android8hardware5radio9messaging25IRadioMessagingIndication22cdmaRuimSmsStorageFullENS2_19RadioIndicationTypeE"
    },
    {
     "is_pure" : true,
     "mangled_component_name" : "_ZN4aidl7android8hardware5radio9messaging25IRadioMessagingIndication15newBroadcastSmsENS2_19RadioIndicationTypeERKNSt3__16vectorIhNS6_9allocatorIhEEEE"
    },
    {
     "is_pure" : true,
     "mangled_component_name" : "_ZN4aidl7android8hardware5radio9messaging25IRadioMessagingIndication6newSmsENS2_19RadioIndicationTypeERKNSt3__16vectorIhNS6_9allocatorIhEEEE"
    },
    {
     "is_pure" : true,
     "mangled_component_name" : "_ZN4aidl7android8hardware5radio9messaging25IRadioMessagingIndication11newSmsOnSimENS2_19RadioIndicationTypeEi"
    },
    {
     "is_pure" : true,
     "mangled_component_name" : "_ZN4aidl7android8hardware5radio9messaging25IRadioMessagingIndication18newSmsStatusReportENS2_19RadioIndicationTypeERKNSt3__16vectorIhNS6_9allocatorIhEEEE"
    },
    {
     "is_pure" : true,
     "mangled_component_name" : "_ZN4aidl7android8hardware5radio9messaging25IRadioMessagingIndication17simSmsStorageFullENS2_19RadioIndicationTypeE"
    },
    {
     "is_pure" : true,
     "mangled_component_name" : "_ZN4aidl7android8hardware5radio9messaging25IRadioMessagingIndication19getInterfaceVersionEPi"
    },
    {
     "is_pure" : true,
     "mangled_component_name" : "_ZN4aidl7android8hardware5radio9messaging25IRadioMessagingIndication16getInterfaceHashEPNSt3__112basic_stringIcNS5_11char_traitsIcEENS5_9allocatorIcEEEE"
    }
   ]
  },
  {
   "alignment" : 4,
   "base_specifiers" :
   [
    {
     "referenced_type" : "_ZTIN3ndk4impl15ScopedAResourceIP7AParcelXadL_Z14AParcel_deleteEELS3_0EEE"
    }
   ],
   "linker_set_key" : "_ZTIN3ndk13ScopedAParcelE",
   "name" : "ndk::ScopedAParcel",
   "record_kind" : "class",
   "referenced_type" : "_ZTIN3ndk13ScopedAParcelE",
   "self_type" : "_ZTIN3ndk13ScopedAParcelE",
   "size" : 4,
   "source_file" : "frameworks/native/libs/binder/ndk/include_cpp/android/binder_auto_utils.h"
  },
  {
   "alignment" : 4,
   "base_specifiers" :
   [
    {
     "referenced_type" : "_ZTIN3ndk4impl15ScopedAResourceIP7AStatusXadL_Z14AStatus_deleteEELS3_0EEE"
    }
   ],
   "linker_set_key" : "_ZTIN3ndk13ScopedAStatusE",
   "name" : "ndk::ScopedAStatus",
   "record_kind" : "class",
   "referenced_type" : "_ZTIN3ndk13ScopedAStatusE",
   "self_type" : "_ZTIN3ndk13ScopedAStatusE",
   "size" : 4,
   "source_file" : "frameworks/native/libs/binder/ndk/include_cpp/android/binder_auto_utils.h"
  },
  {
   "alignment" : 4,
   "fields" :
   [
    {
     "access" : "private",
     "field_name" : "mFlagThis",
     "field_offset" : 32,
     "referenced_type" : "_ZTINSt3__19once_flagE"
    },
    {
     "access" : "private",
     "field_name" : "mThis",
     "field_offset" : 64,
     "referenced_type" : "_ZTINSt3__18weak_ptrIN3ndk13SharedRefBaseEEE"
    }
   ],
   "linker_set_key" : "_ZTIN3ndk13SharedRefBaseE",
   "name" : "ndk::SharedRefBase",
   "record_kind" : "class",
   "referenced_type" : "_ZTIN3ndk13SharedRefBaseE",
   "self_type" : "_ZTIN3ndk13SharedRefBaseE",
   "size" : 16,
   "source_file" : "frameworks/native/libs/binder/ndk/include_cpp/android/binder_interface_utils.h",
   "vtable_components" :
   [
    {
     "kind" : "offset_to_top"
    },
    {
     "kind" : "rtti",
     "mangled_component_name" : "_ZTIN3ndk13SharedRefBaseE"
    },
    {
     "kind" : "complete_dtor_pointer",
     "mangled_component_name" : "_ZN3ndk13SharedRefBaseD1Ev"
    },
    {
     "kind" : "deleting_dtor_pointer",
     "mangled_component_name" : "_ZN3ndk13SharedRefBaseD0Ev"
    }
   ]
  },
  {
   "alignment" : 4,
   "fields" :
   [
    {
     "access" : "private",
     "field_name" : "mParcel",
     "field_offset" : 32,
     "referenced_type" : "_ZTIN3ndk13ScopedAParcelE"
    },
    {
     "access" : "private",
     "field_name" : "mStability",
     "field_offset" : 64,
     "referenced_type" : "_ZTIi"
    }
   ],
   "linker_set_key" : "_ZTIN3ndk17AParcelableHolderE",
   "name" : "ndk::AParcelableHolder",
   "record_kind" : "class",
   "referenced_type" : "_ZTIN3ndk17AParcelableHolderE",
   "self_type" : "_ZTIN3ndk17AParcelableHolderE",
   "size" : 12,
   "source_file" : "frameworks/native/libs/binder/ndk/include_cpp/android/binder_parcelable_utils.h",
   "vtable_components" :
   [
    {
     "kind" : "offset_to_top"
    },
    {
     "kind" : "rtti",
     "mangled_component_name" : "_ZTIN3ndk17AParcelableHolderE"
    },
    {
     "kind" : "complete_dtor_pointer",
     "mangled_component_name" : "_ZN3ndk17AParcelableHolderD1Ev"
    },
    {
     "kind" : "deleting_dtor_pointer",
     "mangled_component_name" : "_ZN3ndk17AParcelableHolderD0Ev"
    }
   ]
  },
  {
   "alignment" : 4,
   "base_specifiers" :
   [
    {
     "referenced_type" : "_ZTIN3ndk4impl15ScopedAResourceIP13AIBinder_WeakXadL_Z20AIBinder_Weak_deleteEELS3_0EEE"
    }
   ],
   "linker_set_key" : "_ZTIN3ndk19ScopedAIBinder_WeakE",
   "name" : "ndk::ScopedAIBinder_Weak",
   "record_kind" : "class",
   "referenced_type" : "_ZTIN3ndk19ScopedAIBinder_WeakE",
   "self_type" : "_ZTIN3ndk19ScopedAIBinder_WeakE",
   "size" : 4,
   "source_file" : "frameworks/native/libs/binder/ndk/include_cpp/android/binder_auto_utils.h"
  },
  {
   "alignment" : 4,
   "base_specifiers" :
   [
    {
     "referenced_type" : "_ZTIN3ndk4impl15ScopedAResourceIiXadL_ZNS_8internalL14closeWithErrorEiEELin1EEE"
    }
   ],
   "linker_set_key" : "_ZTIN3ndk20ScopedFileDescriptorE",
   "name" : "ndk::ScopedFileDescriptor",
   "record_kind" : "class",
   "referenced_type" : "_ZTIN3ndk20ScopedFileDescriptorE",
   "self_type" : "_ZTIN3ndk20ScopedFileDescriptorE",
   "size" : 4,
   "source_file" : "frameworks/native/libs/binder/ndk/include_cpp/android/binder_auto_utils.h"
  },
  {
   "alignment" : 4,
   "base_specifiers" :
   [
    {
     "referenced_type" : "_ZTIN3ndk4impl15ScopedAResourceIP23AIBinder_DeathRecipientXadL_Z30AIBinder_DeathRecipient_deleteEELS3_0EEE"
    }
   ],
   "linker_set_key" : "_ZTIN3ndk29ScopedAIBinder_DeathRecipientE",
   "name" : "ndk::ScopedAIBinder_DeathRecipient",
   "record_kind" : "class",
   "referenced_type" : "_ZTIN3ndk29ScopedAIBinder_DeathRecipientE",
   "self_type" : "_ZTIN3ndk29ScopedAIBinder_DeathRecipientE",
   "size" : 4,
   "source_file" : "frameworks/native/libs/binder/ndk/include_cpp/android/binder_auto_utils.h"
  },
  {
   "alignment" : 4,
   "fields" :
   [
    {
     "access" : "private",
     "field_name" : "mT",
     "referenced_type" : "_ZTIP13AIBinder_Weak"
    }
   ],
   "linker_set_key" : "_ZTIN3ndk4impl15ScopedAResourceIP13AIBinder_WeakXadL_Z20AIBinder_Weak_deleteEELS3_0EEE",
   "name" : "ndk::impl::ScopedAResource<AIBinder_Weak *, &AIBinder_Weak_delete, nullptr>",
   "record_kind" : "class",
   "referenced_type" : "_ZTIN3ndk4impl15ScopedAResourceIP13AIBinder_WeakXadL_Z20AIBinder_Weak_deleteEELS3_0EEE",
   "self_type" : "_ZTIN3ndk4impl15ScopedAResourceIP13AIBinder_WeakXadL_Z20AIBinder_Weak_deleteEELS3_0EEE",
   "size" : 4,
   "source_file" : "frameworks/native/libs/binder/ndk/include_cpp/android/binder_auto_utils.h",
   "template_args" :
   [
    "_ZTIP13AIBinder_Weak"
   ]
  },
  {
   "alignment" : 4,
   "fields" :
   [
    {
     "access" : "private",
     "field_name" : "mT",
     "referenced_type" : "_ZTIP23AIBinder_DeathRecipient"
    }
   ],
   "linker_set_key" : "_ZTIN3ndk4impl15ScopedAResourceIP23AIBinder_DeathRecipientXadL_Z30AIBinder_DeathRecipient_deleteEELS3_0EEE",
   "name" : "ndk::impl::ScopedAResource<AIBinder_DeathRecipient *, &AIBinder_DeathRecipient_delete, nullptr>",
   "record_kind" : "class",
   "referenced_type" : "_ZTIN3ndk4impl15ScopedAResourceIP23AIBinder_DeathRecipientXadL_Z30AIBinder_DeathRecipient_deleteEELS3_0EEE",
   "self_type" : "_ZTIN3ndk4impl15ScopedAResourceIP23AIBinder_DeathRecipientXadL_Z30AIBinder_DeathRecipient_deleteEELS3_0EEE",
   "size" : 4,
   "source_file" : "frameworks/native/libs/binder/ndk/include_cpp/android/binder_auto_utils.h",
   "template_args" :
   [
    "_ZTIP23AIBinder_DeathRecipient"
   ]
  },
  {
   "alignment" : 4,
   "fields" :
   [
    {
     "access" : "private",
     "field_name" : "mT",
     "referenced_type" : "_ZTIP7AParcel"
    }
   ],
   "linker_set_key" : "_ZTIN3ndk4impl15ScopedAResourceIP7AParcelXadL_Z14AParcel_deleteEELS3_0EEE",
   "name" : "ndk::impl::ScopedAResource<AParcel *, &AParcel_delete, nullptr>",
   "record_kind" : "class",
   "referenced_type" : "_ZTIN3ndk4impl15ScopedAResourceIP7AParcelXadL_Z14AParcel_deleteEELS3_0EEE",
   "self_type" : "_ZTIN3ndk4impl15ScopedAResourceIP7AParcelXadL_Z14AParcel_deleteEELS3_0EEE",
   "size" : 4,
   "source_file" : "frameworks/native/libs/binder/ndk/include_cpp/android/binder_auto_utils.h",
   "template_args" :
   [
    "_ZTIP7AParcel"
   ]
  },
  {
   "alignment" : 4,
   "fields" :
   [
    {
     "access" : "private",
     "field_name" : "mT",
     "referenced_type" : "_ZTIP7AStatus"
    }
   ],
   "linker_set_key" : "_ZTIN3ndk4impl15ScopedAResourceIP7AStatusXadL_Z14AStatus_deleteEELS3_0EEE",
   "name" : "ndk::impl::ScopedAResource<AStatus *, &AStatus_delete, nullptr>",
   "record_kind" : "class",
   "referenced_type" : "_ZTIN3ndk4impl15ScopedAResourceIP7AStatusXadL_Z14AStatus_deleteEELS3_0EEE",
   "self_type" : "_ZTIN3ndk4impl15ScopedAResourceIP7AStatusXadL_Z14AStatus_deleteEELS3_0EEE",
   "size" : 4,
   "source_file" : "frameworks/native/libs/binder/ndk/include_cpp/android/binder_auto_utils.h",
   "template_args" :
   [
    "_ZTIP7AStatus"
   ]
  },
  {
   "alignment" : 4,
   "fields" :
   [
    {
     "field_name" : "type",
     "referenced_type" : "_ZTIN4aidl7android8hardware5radio17RadioResponseTypeE"
    },
    {
     "field_name" : "serial",
     "field_offset" : 32,
     "referenced_type" : "_ZTIi"
    },
    {
     "field_name" : "error",
     "field_offset" : 64,
     "referenced_type" : "_ZTIN4aidl7android8hardware5radio10RadioErrorE"
    }
   ],
   "linker_set_key" : "_ZTIN4aidl7android8hardware5radio17RadioResponseInfoE",
   "name" : "aidl::android::hardware::radio::RadioResponseInfo",
   "record_kind" : "class",
   "referenced_type" : "_ZTIN4aidl7android8hardware5radio17RadioResponseInfoE",
   "self_type" : "_ZTIN4aidl7android8hardware5radio17RadioResponseInfoE",
   "size" : 12,
   "source_file" : "out/soong/.intermediates/hardware/interfaces/radio/aidl/android.hardware.radio-V1-ndk-source/gen/include/aidl/android/hardware/radio/RadioResponseInfo.h"
  },
  {
   "alignment" : 4,
   "fields" :
   [
    {
     "field_name" : "errorClass",
     "referenced_type" : "_ZTIb"
    },
    {
     "field_name" : "smsCauseCode",
     "field_offset" : 32,
     "referenced_type" : "_ZTIi"
    }
   ],
   "linker_set_key" : "_ZTIN4aidl7android8hardware5radio9messaging10CdmaSmsAckE",
   "name" : "aidl::android::hardware::radio::messaging::CdmaSmsAck",
   "record_kind" : "class",
   "referenced_type" : "_ZTIN4aidl7android8hardware5radio9messaging10CdmaSmsAckE",
   "self_type" : "_ZTIN4aidl7android8hardware5radio9messaging10CdmaSmsAckE",
   "size" : 8,
   "source_file" : "out/soong/.intermediates/hardware/interfaces/radio/aidl/android.hardware.radio.messaging-V1-ndk-source/gen/include/aidl/android/hardware/radio/messaging/CdmaSmsAck.h"
  },
  {
   "alignment" : 4,
   "fields" :
   [
    {
     "field_name" : "status",
     "referenced_type" : "_ZTIi"
    },
    {
     "field_name" : "pdu",
     "field_offset" : 32,
     "referenced_type" : "_ZTINSt3__112basic_stringIcNS_11char_traitsIcEENS_9allocatorIcEEEE"
    },
    {
     "field_name" : "smsc",
     "field_offset" : 128,
     "referenced_type" : "_ZTINSt3__112basic_stringIcNS_11char_traitsIcEENS_9allocatorIcEEEE"
    }
   ],
   "linker_set_key" : "_ZTIN4aidl7android8hardware5radio9messaging12SmsWriteArgsE",
   "name" : "aidl::android::hardware::radio::messaging::SmsWriteArgs",
   "record_kind" : "class",
   "referenced_type" : "_ZTIN4aidl7android8hardware5radio9messaging12SmsWriteArgsE",
   "self_type" : "_ZTIN4aidl7android8hardware5radio9messaging12SmsWriteArgsE",
   "size" : 28,
   "source_file" : "out/soong/.intermediates/hardware/interfaces/radio/aidl/android.hardware.radio.messaging-V1-ndk-source/gen/include/aidl/android/hardware/radio/messaging/SmsWriteArgs.h"
  },
  {
   "alignment" : 4,
   "fields" :
   [
    {
     "field_name" : "smscPdu",
     "referenced_type" : "_ZTINSt3__112basic_stringIcNS_11char_traitsIcEENS_9allocatorIcEEEE"
    },
    {
     "field_name" : "pdu",
     "field_offset" : 96,
     "referenced_type" : "_ZTINSt3__112basic_stringIcNS_11char_traitsIcEENS_9allocatorIcEEEE"
    }
   ],
   "linker_set_key" : "_ZTIN4aidl7android8hardware5radio9messaging13GsmSmsMessageE",
   "name" : "aidl::android::hardware::radio::messaging::GsmSmsMessage",
   "record_kind" : "class",
   "referenced_type" : "_ZTIN4aidl7android8hardware5radio9messaging13GsmSmsMessageE",
   "self_type" : "_ZTIN4aidl7android8hardware5radio9messaging13GsmSmsMessageE",
   "size" : 24,
   "source_file" : "out/soong/.intermediates/hardware/interfaces/radio/aidl/android.hardware.radio.messaging-V1-ndk-source/gen/include/aidl/android/hardware/radio/messaging/GsmSmsMessage.h"
  },
  {
   "alignment" : 4,
   "fields" :
   [
    {
     "field_name" : "tech",
     "referenced_type" : "_ZTIN4aidl7android8hardware5radio21RadioTechnologyFamilyE"
    },
    {
     "field_name" : "retry",
     "field_offset" : 32,
     "referenced_type" : "_ZTIb"
    },
    {
     "field_name" : "messageRef",
     "field_offset" : 64,
     "referenced_type" : "_ZTIi"
    },
    {
     "field_name" : "cdmaMessage",
     "field_offset" : 96,
     "referenced_type" : "_ZTINSt3__16vectorIN4aidl7android8hardware5radio9messaging14CdmaSmsMessageENS_9allocatorIS6_EEEE"
    },
    {
     "field_name" : "gsmMessage",
     "field_offset" : 192,
     "referenced_type" : "_ZTINSt3__16vectorIN4aidl7android8hardware5radio9messaging13GsmSmsMessageENS_9allocatorIS6_EEEE"
    }
   ],
   "linker_set_key" : "_ZTIN4aidl7android8hardware5radio9messaging13ImsSmsMessageE",
   "name" : "aidl::android::hardware::radio::messaging::ImsSmsMessage",
   "record_kind" : "class",
   "referenced_type" : "_ZTIN4aidl7android8hardware5radio9messaging13ImsSmsMessageE",
   "self_type" : "_ZTIN4aidl7android8hardware5radio9messaging13ImsSmsMessageE",
   "size" : 36,
   "source_file" : "out/soong/.intermediates/hardware/interfaces/radio/aidl/android.hardware.radio.messaging-V1-ndk-source/gen/include/aidl/android/hardware/radio/messaging/ImsSmsMessage.h"
  },
  {
   "alignment" : 4,
   "fields" :
   [
    {
     "field_name" : "messageRef",
     "referenced_type" : "_ZTIi"
    },
    {
     "field_name" : "ackPDU",
     "field_offset" : 32,
     "referenced_type" : "_ZTINSt3__112basic_stringIcNS_11char_traitsIcEENS_9allocatorIcEEEE"
    },
    {
     "field_name" : "errorCode",
     "field_offset" : 128,
     "referenced_type" : "_ZTIi"
    }
   ],
   "linker_set_key" : "_ZTIN4aidl7android8hardware5radio9messaging13SendSmsResultE",
   "name" : "aidl::android::hardware::radio::messaging::SendSmsResult",
   "record_kind" : "class",
   "referenced_type" : "_ZTIN4aidl7android8hardware5radio9messaging13SendSmsResultE",
   "self_type" : "_ZTIN4aidl7android8hardware5radio9messaging13SendSmsResultE",
   "size" : 20,
   "source_file" : "out/soong/.intermediates/hardware/interfaces/radio/aidl/android.hardware.radio.messaging-V1-ndk-source/gen/include/aidl/android/hardware/radio/messaging/SendSmsResult.h"
  },
  {
   "alignment" : 4,
   "fields" :
   [
    {
     "field_name" : "digitMode",
     "referenced_type" : "_ZTIi"
    },
    {
     "field_name" : "isNumberModeDataNetwork",
     "field_offset" : 32,
     "referenced_type" : "_ZTIb"
    },
    {
     "field_name" : "numberType",
     "field_offset" : 64,
     "referenced_type" : "_ZTIi"
    },
    {
     "field_name" : "numberPlan",
     "field_offset" : 96,
     "referenced_type" : "_ZTIi"
    },
    {
     "field_name" : "digits",
     "field_offset" : 128,
     "referenced_type" : "_ZTINSt3__16vectorIhNS_9allocatorIhEEEE"
    }
   ],
   "linker_set_key" : "_ZTIN4aidl7android8hardware5radio9messaging14CdmaSmsAddressE",
   "name" : "aidl::android::hardware::radio::messaging::CdmaSmsAddress",
   "record_kind" : "class",
   "referenced_type" : "_ZTIN4aidl7android8hardware5radio9messaging14CdmaSmsAddressE",
   "self_type" : "_ZTIN4aidl7android8hardware5radio9messaging14CdmaSmsAddressE",
   "size" : 28,
   "source_file" : "out/soong/.intermediates/hardware/interfaces/radio/aidl/android.hardware.radio.messaging-V1-ndk-source/gen/include/aidl/android/hardware/radio/messaging/CdmaSmsAddress.h"
  },
  {
   "alignment" : 4,
   "fields" :
   [
    {
     "field_name" : "teleserviceId",
     "referenced_type" : "_ZTIi"
    },
    {
     "field_name" : "isServicePresent",
     "field_offset" : 32,
     "referenced_type" : "_ZTIb"
    },
    {
     "field_name" : "serviceCategory",
     "field_offset" : 64,
     "referenced_type" : "_ZTIi"
    },
    {
     "field_name" : "address",
     "field_offset" : 96,
     "referenced_type" : "_ZTIN4aidl7android8hardware5radio9messaging14CdmaSmsAddressE"
    },
    {
     "field_name" : "subAddress",
     "field_offset" : 320,
     "referenced_type" : "_ZTIN4aidl7android8hardware5radio9messaging17CdmaSmsSubaddressE"
    },
    {
     "field_name" : "bearerData",
     "field_offset" : 480,
     "referenced_type" : "_ZTINSt3__16vectorIhNS_9allocatorIhEEEE"
    }
   ],
   "linker_set_key" : "_ZTIN4aidl7android8hardware5radio9messaging14CdmaSmsMessageE",
   "name" : "aidl::android::hardware::radio::messaging::CdmaSmsMessage",
   "record_kind" : "class",
   "referenced_type" : "_ZTIN4aidl7android8hardware5radio9messaging14CdmaSmsMessageE",
   "self_type" : "_ZTIN4aidl7android8hardware5radio9messaging14CdmaSmsMessageE",
   "size" : 72,
   "source_file" : "out/soong/.intermediates/hardware/interfaces/radio/aidl/android.hardware.radio.messaging-V1-ndk-source/gen/include/aidl/android/hardware/radio/messaging/CdmaSmsMessage.h"
  },
  {
   "alignment" : 4,
   "base_specifiers" :
   [
    {
     "referenced_type" : "_ZTIN3ndk11ICInterfaceE"
    }
   ],
   "linker_set_key" : "_ZTIN4aidl7android8hardware5radio9messaging15IRadioMessagingE",
   "name" : "aidl::android::hardware::radio::messaging::IRadioMessaging",
   "record_kind" : "class",
   "referenced_type" : "_ZTIN4aidl7android8hardware5radio9messaging15IRadioMessagingE",
   "self_type" : "_ZTIN4aidl7android8hardware5radio9messaging15IRadioMessagingE",
   "size" : 16,
   "source_file" : "out/soong/.intermediates/hardware/interfaces/radio/aidl/android.hardware.radio.messaging-V1-ndk-source/gen/include/aidl/android/hardware/radio/messaging/IRadioMessaging.h",
   "vtable_components" :
   [
    {
     "kind" : "offset_to_top"
    },
    {
     "kind" : "rtti",
     "mangled_component_name" : "_ZTIN4aidl7android8hardware5radio9messaging15IRadioMessagingE"
    },
    {
     "kind" : "complete_dtor_pointer",
     "mangled_component_name" : "_ZN4aidl7android8hardware5radio9messaging15IRadioMessagingD1Ev"
    },
    {
     "kind" : "deleting_dtor_pointer",
     "mangled_component_name" : "_ZN4aidl7android8hardware5radio9messaging15IRadioMessagingD0Ev"
    },
    {
     "is_pure" : true,
     "mangled_component_name" : "_ZN3ndk11ICInterface8asBinderEv"
    },
    {
     "is_pure" : true,
     "mangled_component_name" : "_ZN3ndk11ICInterface8isRemoteEv"
    },
    {
     "mangled_component_name" : "_ZN3ndk11ICInterface4dumpEiPPKcj"
    },
    {
     "mangled_component_name" : "_ZN3ndk11ICInterface18handleShellCommandEiiiPPKcj"
    },
    {
     "is_pure" : true,
     "mangled_component_name" : "_ZN4aidl7android8hardware5radio9messaging15IRadioMessaging32acknowledgeIncomingGsmSmsWithPduEibRKNSt3__112basic_stringIcNS5_11char_traitsIcEENS5_9allocatorIcEEEE"
    },
    {
     "is_pure" : true,
     "mangled_component_name" : "_ZN4aidl7android8hardware5radio9messaging15IRadioMessaging30acknowledgeLastIncomingCdmaSmsEiRKNS3_10CdmaSmsAckE"
    },
    {
     "is_pure" : true,
     "mangled_component_name" : "_ZN4aidl7android8hardware5radio9messaging15IRadioMessaging29acknowledgeLastIncomingGsmSmsEibNS3_23SmsAcknowledgeFailCauseE"
    },
    {
     "is_pure" : true,
     "mangled_component_name" : "_ZN4aidl7android8hardware5radio9messaging15IRadioMessaging15deleteSmsOnRuimEii"
    },
    {
     "is_pure" : true,
     "mangled_component_name" : "_ZN4aidl7android8hardware5radio9messaging15IRadioMessaging14deleteSmsOnSimEii"
    },
    {
     "is_pure" : true,
     "mangled_component_name" : "_ZN4aidl7android8hardware5radio9messaging15IRadioMessaging22getCdmaBroadcastConfigEi"
    },
    {
     "is_pure" : true,
     "mangled_component_name" : "_ZN4aidl7android8hardware5radio9messaging15IRadioMessaging21getGsmBroadcastConfigEi"
    },
    {
     "is_pure" : true,
     "mangled_component_name" : "_ZN4aidl7android8hardware5radio9messaging15IRadioMessaging14getSmscAddressEi"
    },
    {
     "is_pure" : true,
     "mangled_component_name" : "_ZN4aidl7android8hardware5radio9messaging15IRadioMessaging21reportSmsMemoryStatusEib"
    },
    {
     "is_pure" : true,
     "mangled_component_name" : "_ZN4aidl7android8hardware5radio9messaging15IRadioMessaging23responseAcknowledgementEv"
    },
    {
     "is_pure" : true,
     "mangled_component_name" : "_ZN4aidl7android8hardware5radio9messaging15IRadioMessaging11sendCdmaSmsEiRKNS3_14CdmaSmsMessageE"
    },
    {
     "is_pure" : true,
     "mangled_component_name" : "_ZN4aidl7android8hardware5radio9messaging15IRadioMessaging21sendCdmaSmsExpectMoreEiRKNS3_14CdmaSmsMessageE"
    },
    {
     "is_pure" : true,
     "mangled_component_name" : "_ZN4aidl7android8hardware5radio9messaging15IRadioMessaging10sendImsSmsEiRKNS3_13ImsSmsMessageE"
    },
    {
     "is_pure" : true,
     "mangled_component_name" : "_ZN4aidl7android8hardware5radio9messaging15IRadioMessaging7sendSmsEiRKNS3_13GsmSmsMessageE"
    },
    {
     "is_pure" : true,
     "mangled_component_name" : "_ZN4aidl7android8hardware5radio9messaging15IRadioMessaging17sendSmsExpectMoreEiRKNS3_13GsmSmsMessageE"
    },
    {
     "is_pure" : true,
     "mangled_component_name" : "_ZN4aidl7android8hardware5radio9messaging15IRadioMessaging26setCdmaBroadcastActivationEib"
    },
    {
     "is_pure" : true,
     "mangled_component_name" : "_ZN4aidl7android8hardware5radio9messaging15IRadioMessaging22setCdmaBroadcastConfigEiRKNSt3__16vectorINS3_26CdmaBroadcastSmsConfigInfoENS5_9allocatorIS7_EEEE"
    },
    {
     "is_pure" : true,
     "mangled_component_name" : "_ZN4aidl7android8hardware5radio9messaging15IRadioMessaging25setGsmBroadcastActivationEib"
    },
    {
     "is_pure" : true,
     "mangled_component_name" : "_ZN4aidl7android8hardware5radio9messaging15IRadioMessaging21setGsmBroadcastConfigEiRKNSt3__16vectorINS3_25GsmBroadcastSmsConfigInfoENS5_9allocatorIS7_EEEE"
    },
    {
     "is_pure" : true,
     "mangled_component_name" : "_ZN4aidl7android8hardware5radio9messaging15IRadioMessaging20setResponseFunctionsERKNSt3__110shared_ptrINS3_23IRadioMessagingResponseEEERKNS6_INS3_25IRadioMessagingIndicationEEE"
    },
    {
     "is_pure" : true,
     "mangled_component_name" : "_ZN4aidl7android8hardware5radio9messaging15IRadioMessaging14setSmscAddressEiRKNSt3__112basic_stringIcNS5_11char_traitsIcEENS5_9allocatorIcEEEE"
    },
    {
     "is_pure" : true,
     "mangled_component_name" : "_ZN4aidl7android8hardware5radio9messaging15IRadioMessaging14writeSmsToRuimEiRKNS3_16CdmaSmsWriteArgsE"
    },
    {
     "is_pure" : true,
     "mangled_component_name" : "_ZN4aidl7android8hardware5radio9messaging15IRadioMessaging13writeSmsToSimEiRKNS3_12SmsWriteArgsE"
    },
    {
     "is_pure" : true,
     "mangled_component_name" : "_ZN4aidl7android8hardware5radio9messaging15IRadioMessaging19getInterfaceVersionEPi"
    },
    {
     "is_pure" : true,
     "mangled_component_name" : "_ZN4aidl7android8hardware5radio9messaging15IRadioMessaging16getInterfaceHashEPNSt3__112basic_stringIcNS5_11char_traitsIcEENS5_9allocatorIcEEEE"
    }
   ]
  },
  {
   "alignment" : 4,
   "base_specifiers" :
   [
    {
     "referenced_type" : "_ZTIN3ndk12BnCInterfaceIN4aidl7android8hardware5radio9messaging15IRadioMessagingEEE"
    }
   ],
   "linker_set_key" : "_ZTIN4aidl7android8hardware5radio9messaging16BnRadioMessagingE",
   "name" : "aidl::android::hardware::radio::messaging::BnRadioMessaging",
   "record_kind" : "class",
   "referenced_type" : "_ZTIN4aidl7android8hardware5radio9messaging16BnRadioMessagingE",
   "self_type" : "_ZTIN4aidl7android8hardware5radio9messaging16BnRadioMessagingE",
   "size" : 24,
   "source_file" : "out/soong/.intermediates/hardware/interfaces/radio/aidl/android.hardware.radio.messaging-V1-ndk-source/gen/include/aidl/android/hardware/radio/messaging/BnRadioMessaging.h",
   "vtable_components" :
   [
    {
     "kind" : "offset_to_top"
    },
    {
     "kind" : "rtti",
     "mangled_component_name" : "_ZTIN4aidl7android8hardware5radio9messaging16BnRadioMessagingE"
    },
    {
     "kind" : "complete_dtor_pointer",
     "mangled_component_name" : "_ZN4aidl7android8hardware5radio9messaging16BnRadioMessagingD1Ev"
    },
    {
     "kind" : "deleting_dtor_pointer",
     "mangled_component_name" : "_ZN4aidl7android8hardware5radio9messaging16BnRadioMessagingD0Ev"
    },
    {
     "mangled_component_name" : "_ZN3ndk12BnCInterfaceIN4aidl7android8hardware5radio9messaging15IRadioMessagingEE8asBinderEv"
    },
    {
     "mangled_component_name" : "_ZN3ndk12BnCInterfaceIN4aidl7android8hardware5radio9messaging15IRadioMessagingEE8isRemoteEv"
    },
    {
     "mangled_component_name" : "_ZN3ndk11ICInterface4dumpEiPPKcj"
    },
    {
     "mangled_component_name" : "_ZN3ndk11ICInterface18handleShellCommandEiiiPPKcj"
    },
    {
     "is_pure" : true,
     "mangled_component_name" : "_ZN4aidl7android8hardware5radio9messaging15IRadioMessaging32acknowledgeIncomingGsmSmsWithPduEibRKNSt3__112basic_stringIcNS5_11char_traitsIcEENS5_9allocatorIcEEEE"
    },
    {
     "is_pure" : true,
     "mangled_component_name" : "_ZN4aidl7android8hardware5radio9messaging15IRadioMessaging30acknowledgeLastIncomingCdmaSmsEiRKNS3_10CdmaSmsAckE"
    },
    {
     "is_pure" : true,
     "mangled_component_name" : "_ZN4aidl7android8hardware5radio9messaging15IRadioMessaging29acknowledgeLastIncomingGsmSmsEibNS3_23SmsAcknowledgeFailCauseE"
    },
    {
     "is_pure" : true,
     "mangled_component_name" : "_ZN4aidl7android8hardware5radio9messaging15IRadioMessaging15deleteSmsOnRuimEii"
    },
    {
     "is_pure" : true,
     "mangled_component_name" : "_ZN4aidl7android8hardware5radio9messaging15IRadioMessaging14deleteSmsOnSimEii"
    },
    {
     "is_pure" : true,
     "mangled_component_name" : "_ZN4aidl7android8hardware5radio9messaging15IRadioMessaging22getCdmaBroadcastConfigEi"
    },
    {
     "is_pure" : true,
     "mangled_component_name" : "_ZN4aidl7android8hardware5radio9messaging15IRadioMessaging21getGsmBroadcastConfigEi"
    },
    {
     "is_pure" : true,
     "mangled_component_name" : "_ZN4aidl7android8hardware5radio9messaging15IRadioMessaging14getSmscAddressEi"
    },
    {
     "is_pure" : true,
     "mangled_component_name" : "_ZN4aidl7android8hardware5radio9messaging15IRadioMessaging21reportSmsMemoryStatusEib"
    },
    {
     "is_pure" : true,
     "mangled_component_name" : "_ZN4aidl7android8hardware5radio9messaging15IRadioMessaging23responseAcknowledgementEv"
    },
    {
     "is_pure" : true,
     "mangled_component_name" : "_ZN4aidl7android8hardware5radio9messaging15IRadioMessaging11sendCdmaSmsEiRKNS3_14CdmaSmsMessageE"
    },
    {
     "is_pure" : true,
     "mangled_component_name" : "_ZN4aidl7android8hardware5radio9messaging15IRadioMessaging21sendCdmaSmsExpectMoreEiRKNS3_14CdmaSmsMessageE"
    },
    {
     "is_pure" : true,
     "mangled_component_name" : "_ZN4aidl7android8hardware5radio9messaging15IRadioMessaging10sendImsSmsEiRKNS3_13ImsSmsMessageE"
    },
    {
     "is_pure" : true,
     "mangled_component_name" : "_ZN4aidl7android8hardware5radio9messaging15IRadioMessaging7sendSmsEiRKNS3_13GsmSmsMessageE"
    },
    {
     "is_pure" : true,
     "mangled_component_name" : "_ZN4aidl7android8hardware5radio9messaging15IRadioMessaging17sendSmsExpectMoreEiRKNS3_13GsmSmsMessageE"
    },
    {
     "is_pure" : true,
     "mangled_component_name" : "_ZN4aidl7android8hardware5radio9messaging15IRadioMessaging26setCdmaBroadcastActivationEib"
    },
    {
     "is_pure" : true,
     "mangled_component_name" : "_ZN4aidl7android8hardware5radio9messaging15IRadioMessaging22setCdmaBroadcastConfigEiRKNSt3__16vectorINS3_26CdmaBroadcastSmsConfigInfoENS5_9allocatorIS7_EEEE"
    },
    {
     "is_pure" : true,
     "mangled_component_name" : "_ZN4aidl7android8hardware5radio9messaging15IRadioMessaging25setGsmBroadcastActivationEib"
    },
    {
     "is_pure" : true,
     "mangled_component_name" : "_ZN4aidl7android8hardware5radio9messaging15IRadioMessaging21setGsmBroadcastConfigEiRKNSt3__16vectorINS3_25GsmBroadcastSmsConfigInfoENS5_9allocatorIS7_EEEE"
    },
    {
     "is_pure" : true,
     "mangled_component_name" : "_ZN4aidl7android8hardware5radio9messaging15IRadioMessaging20setResponseFunctionsERKNSt3__110shared_ptrINS3_23IRadioMessagingResponseEEERKNS6_INS3_25IRadioMessagingIndicationEEE"
    },
    {
     "is_pure" : true,
     "mangled_component_name" : "_ZN4aidl7android8hardware5radio9messaging15IRadioMessaging14setSmscAddressEiRKNSt3__112basic_stringIcNS5_11char_traitsIcEENS5_9allocatorIcEEEE"
    },
    {
     "is_pure" : true,
     "mangled_component_name" : "_ZN4aidl7android8hardware5radio9messaging15IRadioMessaging14writeSmsToRuimEiRKNS3_16CdmaSmsWriteArgsE"
    },
    {
     "is_pure" : true,
     "mangled_component_name" : "_ZN4aidl7android8hardware5radio9messaging15IRadioMessaging13writeSmsToSimEiRKNS3_12SmsWriteArgsE"
    },
    {
     "mangled_component_name" : "_ZN4aidl7android8hardware5radio9messaging16BnRadioMessaging19getInterfaceVersionEPi"
    },
    {
     "mangled_component_name" : "_ZN4aidl7android8hardware5radio9messaging16BnRadioMessaging16getInterfaceHashEPNSt3__112basic_stringIcNS5_11char_traitsIcEENS5_9allocatorIcEEEE"
    },
    {
     "mangled_component_name" : "_ZN4aidl7android8hardware5radio9messaging16BnRadioMessaging12createBinderEv"
    }
   ]
  },
  {
   "alignment" : 4,
   "base_specifiers" :
   [
    {
     "referenced_type" : "_ZTIN3ndk12BpCInterfaceIN4aidl7android8hardware5radio9messaging15IRadioMessagingEEE"
    }
   ],
   "fields" :
   [
    {
     "field_name" : "_aidl_cached_version",
     "field_offset" : 160,
     "referenced_type" : "_ZTIi"
    },
    {
     "field_name" : "_aidl_cached_hash",
     "field_offset" : 192,
     "referenced_type" : "_ZTINSt3__112basic_stringIcNS_11char_traitsIcEENS_9allocatorIcEEEE"
    },
    {
     "field_name" : "_aidl_cached_hash_mutex",
     "field_offset" : 288,
     "referenced_type" : "_ZTINSt3__15mutexE"
    }
   ],
   "linker_set_key" : "_ZTIN4aidl7android8hardware5radio9messaging16BpRadioMessagingE",
   "name" : "aidl::android::hardware::radio::messaging::BpRadioMessaging",
   "record_kind" : "class",
   "referenced_type" : "_ZTIN4aidl7android8hardware5radio9messaging16BpRadioMessagingE",
   "self_type" : "_ZTIN4aidl7android8hardware5radio9messaging16BpRadioMessagingE",
   "size" : 40,
   "source_file" : "out/soong/.intermediates/hardware/interfaces/radio/aidl/android.hardware.radio.messaging-V1-ndk-source/gen/include/aidl/android/hardware/radio/messaging/BpRadioMessaging.h",
   "vtable_components" :
   [
    {
     "kind" : "offset_to_top"
    },
    {
     "kind" : "rtti",
     "mangled_component_name" : "_ZTIN4aidl7android8hardware5radio9messaging16BpRadioMessagingE"
    },
    {
     "kind" : "complete_dtor_pointer",
     "mangled_component_name" : "_ZN4aidl7android8hardware5radio9messaging16BpRadioMessagingD1Ev"
    },
    {
     "kind" : "deleting_dtor_pointer",
     "mangled_component_name" : "_ZN4aidl7android8hardware5radio9messaging16BpRadioMessagingD0Ev"
    },
    {
     "mangled_component_name" : "_ZN3ndk12BpCInterfaceIN4aidl7android8hardware5radio9messaging15IRadioMessagingEE8asBinderEv"
    },
    {
     "mangled_component_name" : "_ZN3ndk12BpCInterfaceIN4aidl7android8hardware5radio9messaging15IRadioMessagingEE8isRemoteEv"
    },
    {
     "mangled_component_name" : "_ZN3ndk12BpCInterfaceIN4aidl7android8hardware5radio9messaging15IRadioMessagingEE4dumpEiPPKcj"
    },
    {
     "mangled_component_name" : "_ZN3ndk11ICInterface18handleShellCommandEiiiPPKcj"
    },
    {
     "mangled_component_name" : "_ZN4aidl7android8hardware5radio9messaging16BpRadioMessaging32acknowledgeIncomingGsmSmsWithPduEibRKNSt3__112basic_stringIcNS5_11char_traitsIcEENS5_9allocatorIcEEEE"
    },
    {
     "mangled_component_name" : "_ZN4aidl7android8hardware5radio9messaging16BpRadioMessaging30acknowledgeLastIncomingCdmaSmsEiRKNS3_10CdmaSmsAckE"
    },
    {
     "mangled_component_name" : "_ZN4aidl7android8hardware5radio9messaging16BpRadioMessaging29acknowledgeLastIncomingGsmSmsEibNS3_23SmsAcknowledgeFailCauseE"
    },
    {
     "mangled_component_name" : "_ZN4aidl7android8hardware5radio9messaging16BpRadioMessaging15deleteSmsOnRuimEii"
    },
    {
     "mangled_component_name" : "_ZN4aidl7android8hardware5radio9messaging16BpRadioMessaging14deleteSmsOnSimEii"
    },
    {
     "mangled_component_name" : "_ZN4aidl7android8hardware5radio9messaging16BpRadioMessaging22getCdmaBroadcastConfigEi"
    },
    {
     "mangled_component_name" : "_ZN4aidl7android8hardware5radio9messaging16BpRadioMessaging21getGsmBroadcastConfigEi"
    },
    {
     "mangled_component_name" : "_ZN4aidl7android8hardware5radio9messaging16BpRadioMessaging14getSmscAddressEi"
    },
    {
     "mangled_component_name" : "_ZN4aidl7android8hardware5radio9messaging16BpRadioMessaging21reportSmsMemoryStatusEib"
    },
    {
     "mangled_component_name" : "_ZN4aidl7android8hardware5radio9messaging16BpRadioMessaging23responseAcknowledgementEv"
    },
    {
     "mangled_component_name" : "_ZN4aidl7android8hardware5radio9messaging16BpRadioMessaging11sendCdmaSmsEiRKNS3_14CdmaSmsMessageE"
    },
    {
     "mangled_component_name" : "_ZN4aidl7android8hardware5radio9messaging16BpRadioMessaging21sendCdmaSmsExpectMoreEiRKNS3_14CdmaSmsMessageE"
    },
    {
     "mangled_component_name" : "_ZN4aidl7android8hardware5radio9messaging16BpRadioMessaging10sendImsSmsEiRKNS3_13ImsSmsMessageE"
    },
    {
     "mangled_component_name" : "_ZN4aidl7android8hardware5radio9messaging16BpRadioMessaging7sendSmsEiRKNS3_13GsmSmsMessageE"
    },
    {
     "mangled_component_name" : "_ZN4aidl7android8hardware5radio9messaging16BpRadioMessaging17sendSmsExpectMoreEiRKNS3_13GsmSmsMessageE"
    },
    {
     "mangled_component_name" : "_ZN4aidl7android8hardware5radio9messaging16BpRadioMessaging26setCdmaBroadcastActivationEib"
    },
    {
     "mangled_component_name" : "_ZN4aidl7android8hardware5radio9messaging16BpRadioMessaging22setCdmaBroadcastConfigEiRKNSt3__16vectorINS3_26CdmaBroadcastSmsConfigInfoENS5_9allocatorIS7_EEEE"
    },
    {
     "mangled_component_name" : "_ZN4aidl7android8hardware5radio9messaging16BpRadioMessaging25setGsmBroadcastActivationEib"
    },
    {
     "mangled_component_name" : "_ZN4aidl7android8hardware5radio9messaging16BpRadioMessaging21setGsmBroadcastConfigEiRKNSt3__16vectorINS3_25GsmBroadcastSmsConfigInfoENS5_9allocatorIS7_EEEE"
    },
    {
     "mangled_component_name" : "_ZN4aidl7android8hardware5radio9messaging16BpRadioMessaging20setResponseFunctionsERKNSt3__110shared_ptrINS3_23IRadioMessagingResponseEEERKNS6_INS3_25IRadioMessagingIndicationEEE"
    },
    {
     "mangled_component_name" : "_ZN4aidl7android8hardware5radio9messaging16BpRadioMessaging14setSmscAddressEiRKNSt3__112basic_stringIcNS5_11char_traitsIcEENS5_9allocatorIcEEEE"
    },
    {
     "mangled_component_name" : "_ZN4aidl7android8hardware5radio9messaging16BpRadioMessaging14writeSmsToRuimEiRKNS3_16CdmaSmsWriteArgsE"
    },
    {
     "mangled_component_name" : "_ZN4aidl7android8hardware5radio9messaging16BpRadioMessaging13writeSmsToSimEiRKNS3_12SmsWriteArgsE"
    },
    {
     "mangled_component_name" : "_ZN4aidl7android8hardware5radio9messaging16BpRadioMessaging19getInterfaceVersionEPi"
    },
    {
     "mangled_component_name" : "_ZN4aidl7android8hardware5radio9messaging16BpRadioMessaging16getInterfaceHashEPNSt3__112basic_stringIcNS5_11char_traitsIcEENS5_9allocatorIcEEEE"
    }
   ]
  },
  {
   "alignment" : 4,
   "fields" :
   [
    {
     "field_name" : "status",
     "referenced_type" : "_ZTIi"
    },
    {
     "field_name" : "message",
     "field_offset" : 32,
     "referenced_type" : "_ZTIN4aidl7android8hardware5radio9messaging14CdmaSmsMessageE"
    }
   ],
   "linker_set_key" : "_ZTIN4aidl7android8hardware5radio9messaging16CdmaSmsWriteArgsE",
   "name" : "aidl::android::hardware::radio::messaging::CdmaSmsWriteArgs",
   "record_kind" : "class",
   "referenced_type" : "_ZTIN4aidl7android8hardware5radio9messaging16CdmaSmsWriteArgsE",
   "self_type" : "_ZTIN4aidl7android8hardware5radio9messaging16CdmaSmsWriteArgsE",
   "size" : 76,
   "source_file" : "out/soong/.intermediates/hardware/interfaces/radio/aidl/android.hardware.radio.messaging-V1-ndk-source/gen/include/aidl/android/hardware/radio/messaging/CdmaSmsWriteArgs.h"
  },
  {
   "alignment" : 4,
   "fields" :
   [
    {
     "field_name" : "subaddressType",
     "referenced_type" : "_ZTIi"
    },
    {
     "field_name" : "odd",
     "field_offset" : 32,
     "referenced_type" : "_ZTIb"
    },
    {
     "field_name" : "digits",
     "field_offset" : 64,
     "referenced_type" : "_ZTINSt3__16vectorIhNS_9allocatorIhEEEE"
    }
   ],
   "linker_set_key" : "_ZTIN4aidl7android8hardware5radio9messaging17CdmaSmsSubaddressE",
   "name" : "aidl::android::hardware::radio::messaging::CdmaSmsSubaddress",
   "record_kind" : "class",
   "referenced_type" : "_ZTIN4aidl7android8hardware5radio9messaging17CdmaSmsSubaddressE",
   "self_type" : "_ZTIN4aidl7android8hardware5radio9messaging17CdmaSmsSubaddressE",
   "size" : 20,
   "source_file" : "out/soong/.intermediates/hardware/interfaces/radio/aidl/android.hardware.radio.messaging-V1-ndk-source/gen/include/aidl/android/hardware/radio/messaging/CdmaSmsSubaddress.h"
  },
  {
   "alignment" : 4,
   "base_specifiers" :
   [
    {
     "referenced_type" : "_ZTIN4aidl7android8hardware5radio9messaging15IRadioMessagingE"
    }
   ],
   "linker_set_key" : "_ZTIN4aidl7android8hardware5radio9messaging22IRadioMessagingDefaultE",
   "name" : "aidl::android::hardware::radio::messaging::IRadioMessagingDefault",
   "record_kind" : "class",
   "referenced_type" : "_ZTIN4aidl7android8hardware5radio9messaging22IRadioMessagingDefaultE",
   "self_type" : "_ZTIN4aidl7android8hardware5radio9messaging22IRadioMessagingDefaultE",
   "size" : 16,
   "source_file" : "out/soong/.intermediates/hardware/interfaces/radio/aidl/android.hardware.radio.messaging-V1-ndk-source/gen/include/aidl/android/hardware/radio/messaging/IRadioMessaging.h",
   "vtable_components" :
   [
    {
     "kind" : "offset_to_top"
    },
    {
     "kind" : "rtti",
     "mangled_component_name" : "_ZTIN4aidl7android8hardware5radio9messaging22IRadioMessagingDefaultE"
    },
    {
     "kind" : "complete_dtor_pointer",
     "mangled_component_name" : "_ZN4aidl7android8hardware5radio9messaging22IRadioMessagingDefaultD1Ev"
    },
    {
     "kind" : "deleting_dtor_pointer",
     "mangled_component_name" : "_ZN4aidl7android8hardware5radio9messaging22IRadioMessagingDefaultD0Ev"
    },
    {
     "mangled_component_name" : "_ZN4aidl7android8hardware5radio9messaging22IRadioMessagingDefault8asBinderEv"
    },
    {
     "mangled_component_name" : "_ZN4aidl7android8hardware5radio9messaging22IRadioMessagingDefault8isRemoteEv"
    },
    {
     "mangled_component_name" : "_ZN3ndk11ICInterface4dumpEiPPKcj"
    },
    {
     "mangled_component_name" : "_ZN3ndk11ICInterface18handleShellCommandEiiiPPKcj"
    },
    {
     "mangled_component_name" : "_ZN4aidl7android8hardware5radio9messaging22IRadioMessagingDefault32acknowledgeIncomingGsmSmsWithPduEibRKNSt3__112basic_stringIcNS5_11char_traitsIcEENS5_9allocatorIcEEEE"
    },
    {
     "mangled_component_name" : "_ZN4aidl7android8hardware5radio9messaging22IRadioMessagingDefault30acknowledgeLastIncomingCdmaSmsEiRKNS3_10CdmaSmsAckE"
    },
    {
     "mangled_component_name" : "_ZN4aidl7android8hardware5radio9messaging22IRadioMessagingDefault29acknowledgeLastIncomingGsmSmsEibNS3_23SmsAcknowledgeFailCauseE"
    },
    {
     "mangled_component_name" : "_ZN4aidl7android8hardware5radio9messaging22IRadioMessagingDefault15deleteSmsOnRuimEii"
    },
    {
     "mangled_component_name" : "_ZN4aidl7android8hardware5radio9messaging22IRadioMessagingDefault14deleteSmsOnSimEii"
    },
    {
     "mangled_component_name" : "_ZN4aidl7android8hardware5radio9messaging22IRadioMessagingDefault22getCdmaBroadcastConfigEi"
    },
    {
     "mangled_component_name" : "_ZN4aidl7android8hardware5radio9messaging22IRadioMessagingDefault21getGsmBroadcastConfigEi"
    },
    {
     "mangled_component_name" : "_ZN4aidl7android8hardware5radio9messaging22IRadioMessagingDefault14getSmscAddressEi"
    },
    {
     "mangled_component_name" : "_ZN4aidl7android8hardware5radio9messaging22IRadioMessagingDefault21reportSmsMemoryStatusEib"
    },
    {
     "mangled_component_name" : "_ZN4aidl7android8hardware5radio9messaging22IRadioMessagingDefault23responseAcknowledgementEv"
    },
    {
     "mangled_component_name" : "_ZN4aidl7android8hardware5radio9messaging22IRadioMessagingDefault11sendCdmaSmsEiRKNS3_14CdmaSmsMessageE"
    },
    {
     "mangled_component_name" : "_ZN4aidl7android8hardware5radio9messaging22IRadioMessagingDefault21sendCdmaSmsExpectMoreEiRKNS3_14CdmaSmsMessageE"
    },
    {
     "mangled_component_name" : "_ZN4aidl7android8hardware5radio9messaging22IRadioMessagingDefault10sendImsSmsEiRKNS3_13ImsSmsMessageE"
    },
    {
     "mangled_component_name" : "_ZN4aidl7android8hardware5radio9messaging22IRadioMessagingDefault7sendSmsEiRKNS3_13GsmSmsMessageE"
    },
    {
     "mangled_component_name" : "_ZN4aidl7android8hardware5radio9messaging22IRadioMessagingDefault17sendSmsExpectMoreEiRKNS3_13GsmSmsMessageE"
    },
    {
     "mangled_component_name" : "_ZN4aidl7android8hardware5radio9messaging22IRadioMessagingDefault26setCdmaBroadcastActivationEib"
    },
    {
     "mangled_component_name" : "_ZN4aidl7android8hardware5radio9messaging22IRadioMessagingDefault22setCdmaBroadcastConfigEiRKNSt3__16vectorINS3_26CdmaBroadcastSmsConfigInfoENS5_9allocatorIS7_EEEE"
    },
    {
     "mangled_component_name" : "_ZN4aidl7android8hardware5radio9messaging22IRadioMessagingDefault25setGsmBroadcastActivationEib"
    },
    {
     "mangled_component_name" : "_ZN4aidl7android8hardware5radio9messaging22IRadioMessagingDefault21setGsmBroadcastConfigEiRKNSt3__16vectorINS3_25GsmBroadcastSmsConfigInfoENS5_9allocatorIS7_EEEE"
    },
    {
     "mangled_component_name" : "_ZN4aidl7android8hardware5radio9messaging22IRadioMessagingDefault20setResponseFunctionsERKNSt3__110shared_ptrINS3_23IRadioMessagingResponseEEERKNS6_INS3_25IRadioMessagingIndicationEEE"
    },
    {
     "mangled_component_name" : "_ZN4aidl7android8hardware5radio9messaging22IRadioMessagingDefault14setSmscAddressEiRKNSt3__112basic_stringIcNS5_11char_traitsIcEENS5_9allocatorIcEEEE"
    },
    {
     "mangled_component_name" : "_ZN4aidl7android8hardware5radio9messaging22IRadioMessagingDefault14writeSmsToRuimEiRKNS3_16CdmaSmsWriteArgsE"
    },
    {
     "mangled_component_name" : "_ZN4aidl7android8hardware5radio9messaging22IRadioMessagingDefault13writeSmsToSimEiRKNS3_12SmsWriteArgsE"
    },
    {
     "mangled_component_name" : "_ZN4aidl7android8hardware5radio9messaging22IRadioMessagingDefault19getInterfaceVersionEPi"
    },
    {
     "mangled_component_name" : "_ZN4aidl7android8hardware5radio9messaging22IRadioMessagingDefault16getInterfaceHashEPNSt3__112basic_stringIcNS5_11char_traitsIcEENS5_9allocatorIcEEEE"
    }
   ]
  },
  {
   "alignment" : 4,
   "base_specifiers" :
   [
    {
     "referenced_type" : "_ZTIN3ndk11ICInterfaceE"
    }
   ],
   "linker_set_key" : "_ZTIN4aidl7android8hardware5radio9messaging23IRadioMessagingResponseE",
   "name" : "aidl::android::hardware::radio::messaging::IRadioMessagingResponse",
   "record_kind" : "class",
   "referenced_type" : "_ZTIN4aidl7android8hardware5radio9messaging23IRadioMessagingResponseE",
   "self_type" : "_ZTIN4aidl7android8hardware5radio9messaging23IRadioMessagingResponseE",
   "size" : 16,
   "source_file" : "out/soong/.intermediates/hardware/interfaces/radio/aidl/android.hardware.radio.messaging-V1-ndk-source/gen/include/aidl/android/hardware/radio/messaging/IRadioMessagingResponse.h",
   "vtable_components" :
   [
    {
     "kind" : "offset_to_top"
    },
    {
     "kind" : "rtti",
     "mangled_component_name" : "_ZTIN4aidl7android8hardware5radio9messaging23IRadioMessagingResponseE"
    },
    {
     "kind" : "complete_dtor_pointer",
     "mangled_component_name" : "_ZN4aidl7android8hardware5radio9messaging23IRadioMessagingResponseD1Ev"
    },
    {
     "kind" : "deleting_dtor_pointer",
     "mangled_component_name" : "_ZN4aidl7android8hardware5radio9messaging23IRadioMessagingResponseD0Ev"
    },
    {
     "is_pure" : true,
     "mangled_component_name" : "_ZN3ndk11ICInterface8asBinderEv"
    },
    {
     "is_pure" : true,
     "mangled_component_name" : "_ZN3ndk11ICInterface8isRemoteEv"
    },
    {
     "mangled_component_name" : "_ZN3ndk11ICInterface4dumpEiPPKcj"
    },
    {
     "mangled_component_name" : "_ZN3ndk11ICInterface18handleShellCommandEiiiPPKcj"
    },
    {
     "is_pure" : true,
     "mangled_component_name" : "_ZN4aidl7android8hardware5radio9messaging23IRadioMessagingResponse40acknowledgeIncomingGsmSmsWithPduResponseERKNS2_17RadioResponseInfoE"
    },
    {
     "is_pure" : true,
     "mangled_component_name" : "_ZN4aidl7android8hardware5radio9messaging23IRadioMessagingResponse38acknowledgeLastIncomingCdmaSmsResponseERKNS2_17RadioResponseInfoE"
    },
    {
     "is_pure" : true,
     "mangled_component_name" : "_ZN4aidl7android8hardware5radio9messaging23IRadioMessagingResponse37acknowledgeLastIncomingGsmSmsResponseERKNS2_17RadioResponseInfoE"
    },
    {
     "is_pure" : true,
     "mangled_component_name" : "_ZN4aidl7android8hardware5radio9messaging23IRadioMessagingResponse18acknowledgeRequestEi"
    },
    {
     "is_pure" : true,
     "mangled_component_name" : "_ZN4aidl7android8hardware5radio9messaging23IRadioMessagingResponse23deleteSmsOnRuimResponseERKNS2_17RadioResponseInfoE"
    },
    {
     "is_pure" : true,
