{
 "array_types" : [],
 "builtin_types" :
 [
  {
   "alignment" : 4,
   "linker_set_key" : "_ZTIDn",
   "name" : "std::nullptr_t",
   "referenced_type" : "_ZTIDn",
   "self_type" : "_ZTIDn",
   "size" : 4
  },
  {
   "alignment" : 1,
   "is_integral" : true,
   "is_unsigned" : true,
   "linker_set_key" : "_ZTIb",
   "name" : "bool",
   "referenced_type" : "_ZTIb",
   "self_type" : "_ZTIb",
   "size" : 1
  },
  {
   "alignment" : 1,
   "is_integral" : true,
   "is_unsigned" : true,
   "linker_set_key" : "_ZTIc",
   "name" : "char",
   "referenced_type" : "_ZTIc",
   "self_type" : "_ZTIc",
   "size" : 1
  },
  {
   "alignment" : 1,
   "is_integral" : true,
   "is_unsigned" : true,
   "linker_set_key" : "_ZTIh",
   "name" : "unsigned char",
   "referenced_type" : "_ZTIh",
   "self_type" : "_ZTIh",
   "size" : 1
  },
  {
   "alignment" : 4,
   "is_integral" : true,
   "linker_set_key" : "_ZTIi",
   "name" : "int",
   "referenced_type" : "_ZTIi",
   "self_type" : "_ZTIi",
   "size" : 4
  },
  {
   "alignment" : 4,
   "is_integral" : true,
   "is_unsigned" : true,
   "linker_set_key" : "_ZTIj",
   "name" : "unsigned int",
   "referenced_type" : "_ZTIj",
   "self_type" : "_ZTIj",
   "size" : 4
  },
  {
   "linker_set_key" : "_ZTIv",
   "name" : "void",
   "referenced_type" : "_ZTIv",
   "self_type" : "_ZTIv"
  }
 ],
 "elf_functions" :
 [
  {
   "binding" : "weak",
   "name" : "_ZN3ndk12BnCInterfaceIN4aidl7android8hardware4wifi7hostapd16IHostapdCallbackEE8asBinderEv"
  },
  {
   "binding" : "weak",
   "name" : "_ZN3ndk12BnCInterfaceIN4aidl7android8hardware4wifi7hostapd8IHostapdEE8asBinderEv"
  },
  {
   "binding" : "weak",
   "name" : "_ZN3ndk12BpCInterfaceIN4aidl7android8hardware4wifi7hostapd16IHostapdCallbackEE8asBinderEv"
  },
  {
   "binding" : "weak",
   "name" : "_ZN3ndk12BpCInterfaceIN4aidl7android8hardware4wifi7hostapd8IHostapdEE8asBinderEv"
  },
  {
   "binding" : "weak",
   "name" : "_ZN3ndk38AParcel_readStdVectorParcelableElementIN4aidl7android8hardware4wifi7hostapd13ChannelParamsEEEiPK7AParcelPvj"
  },
  {
   "binding" : "weak",
   "name" : "_ZN3ndk38AParcel_readStdVectorParcelableElementIN4aidl7android8hardware4wifi7hostapd14FrequencyRangeEEEiPK7AParcelPvj"
  },
  {
   "binding" : "weak",
   "name" : "_ZN3ndk39AParcel_writeStdVectorParcelableElementIN4aidl7android8hardware4wifi7hostapd13ChannelParamsEEEiP7AParcelPKvj"
  },
  {
   "binding" : "weak",
   "name" : "_ZN3ndk39AParcel_writeStdVectorParcelableElementIN4aidl7android8hardware4wifi7hostapd14FrequencyRangeEEEiP7AParcelPKvj"
  },
  {
   "name" : "_ZN4aidl7android8hardware4wifi7hostapd10ClientInfo14readFromParcelEPK7AParcel"
  },
  {
   "name" : "_ZN4aidl7android8hardware4wifi7hostapd11IfaceParams14readFromParcelEPK7AParcel"
  },
  {
   "name" : "_ZN4aidl7android8hardware4wifi7hostapd12HwModeParams14readFromParcelEPK7AParcel"
  },
  {
   "name" : "_ZN4aidl7android8hardware4wifi7hostapd13ChannelParams14readFromParcelEPK7AParcel"
  },
  {
   "name" : "_ZN4aidl7android8hardware4wifi7hostapd13NetworkParams14readFromParcelEPK7AParcel"
  },
  {
   "name" : "_ZN4aidl7android8hardware4wifi7hostapd14FrequencyRange14readFromParcelEPK7AParcel"
  },
  {
   "name" : "_ZN4aidl7android8hardware4wifi7hostapd15IHostapdDefault14addAccessPointERKNS3_11IfaceParamsERKNS3_13NetworkParamsE"
  },
  {
   "name" : "_ZN4aidl7android8hardware4wifi7hostapd15IHostapdDefault14setDebugParamsENS3_10DebugLevelE"
  },
  {
   "name" : "_ZN4aidl7android8hardware4wifi7hostapd15IHostapdDefault16getInterfaceHashEPNSt3__112basic_stringIcNS5_11char_traitsIcEENS5_9allocatorIcEEEE"
  },
  {
   "name" : "_ZN4aidl7android8hardware4wifi7hostapd15IHostapdDefault16registerCallbackERKNSt3__110shared_ptrINS3_16IHostapdCallbackEEE"
  },
  {
   "name" : "_ZN4aidl7android8hardware4wifi7hostapd15IHostapdDefault17removeAccessPointERKNSt3__112basic_stringIcNS5_11char_traitsIcEENS5_9allocatorIcEEEE"
  },
  {
   "name" : "_ZN4aidl7android8hardware4wifi7hostapd15IHostapdDefault19getInterfaceVersionEPi"
  },
  {
   "name" : "_ZN4aidl7android8hardware4wifi7hostapd15IHostapdDefault21forceClientDisconnectERKNSt3__112basic_stringIcNS5_11char_traitsIcEENS5_9allocatorIcEEEERKNS5_6vectorIhNS9_IhEEEENS3_19Ieee80211ReasonCodeE"
  },
  {
   "name" : "_ZN4aidl7android8hardware4wifi7hostapd15IHostapdDefault8asBinderEv"
  },
  {
   "name" : "_ZN4aidl7android8hardware4wifi7hostapd15IHostapdDefault8isRemoteEv"
  },
  {
   "name" : "_ZN4aidl7android8hardware4wifi7hostapd15IHostapdDefault9terminateEv"
  },
  {
   "name" : "_ZN4aidl7android8hardware4wifi7hostapd16IHostapdCallback10fromBinderERKN3ndk10SpAIBinderE"
  },
  {
   "name" : "_ZN4aidl7android8hardware4wifi7hostapd16IHostapdCallback13writeToParcelEP7AParcelRKNSt3__110shared_ptrIS4_EE"
  },
  {
   "name" : "_ZN4aidl7android8hardware4wifi7hostapd16IHostapdCallback14getDefaultImplEv"
  },
  {
   "name" : "_ZN4aidl7android8hardware4wifi7hostapd16IHostapdCallback14readFromParcelEPK7AParcelPNSt3__110shared_ptrIS4_EE"
  },
  {
   "name" : "_ZN4aidl7android8hardware4wifi7hostapd16IHostapdCallback14setDefaultImplERKNSt3__110shared_ptrIS4_EE"
  },
  {
   "name" : "_ZN4aidl7android8hardware4wifi7hostapd16IHostapdCallbackC2Ev"
  },
  {
   "name" : "_ZN4aidl7android8hardware4wifi7hostapd16IHostapdCallbackD0Ev"
  },
  {
   "name" : "_ZN4aidl7android8hardware4wifi7hostapd16IHostapdCallbackD1Ev"
  },
  {
   "name" : "_ZN4aidl7android8hardware4wifi7hostapd16IHostapdCallbackD2Ev"
  },
  {
   "name" : "_ZN4aidl7android8hardware4wifi7hostapd17BnHostapdCallback12createBinderEv"
  },
  {
   "name" : "_ZN4aidl7android8hardware4wifi7hostapd17BnHostapdCallback16getInterfaceHashEPNSt3__112basic_stringIcNS5_11char_traitsIcEENS5_9allocatorIcEEEE"
  },
  {
   "name" : "_ZN4aidl7android8hardware4wifi7hostapd17BnHostapdCallback19getInterfaceVersionEPi"
  },
  {
   "name" : "_ZN4aidl7android8hardware4wifi7hostapd17BnHostapdCallbackC2Ev"
  },
  {
   "name" : "_ZN4aidl7android8hardware4wifi7hostapd17BnHostapdCallbackD0Ev"
  },
  {
   "name" : "_ZN4aidl7android8hardware4wifi7hostapd17BnHostapdCallbackD1Ev"
  },
  {
   "name" : "_ZN4aidl7android8hardware4wifi7hostapd17BnHostapdCallbackD2Ev"
  },
  {
   "name" : "_ZN4aidl7android8hardware4wifi7hostapd17BpHostapdCallback16getInterfaceHashEPNSt3__112basic_stringIcNS5_11char_traitsIcEENS5_9allocatorIcEEEE"
  },
  {
   "name" : "_ZN4aidl7android8hardware4wifi7hostapd17BpHostapdCallback19getInterfaceVersionEPi"
  },
  {
   "name" : "_ZN4aidl7android8hardware4wifi7hostapd17BpHostapdCallback23onApInstanceInfoChangedERKNS3_6ApInfoE"
  },
  {
   "name" : "_ZN4aidl7android8hardware4wifi7hostapd17BpHostapdCallback25onConnectedClientsChangedERKNS3_10ClientInfoE"
  },
  {
   "name" : "_ZN4aidl7android8hardware4wifi7hostapd17BpHostapdCallback9onFailureERKNSt3__112basic_stringIcNS5_11char_traitsIcEENS5_9allocatorIcEEEESD_"
  },
  {
   "name" : "_ZN4aidl7android8hardware4wifi7hostapd17BpHostapdCallbackC1ERKN3ndk10SpAIBinderE"
  },
  {
   "name" : "_ZN4aidl7android8hardware4wifi7hostapd17BpHostapdCallbackC2ERKN3ndk10SpAIBinderE"
  },
  {
   "name" : "_ZN4aidl7android8hardware4wifi7hostapd17BpHostapdCallbackD0Ev"
  },
  {
   "name" : "_ZN4aidl7android8hardware4wifi7hostapd17BpHostapdCallbackD1Ev"
  },
  {
   "name" : "_ZN4aidl7android8hardware4wifi7hostapd17BpHostapdCallbackD2Ev"
  },
  {
   "name" : "_ZN4aidl7android8hardware4wifi7hostapd23IHostapdCallbackDefault16getInterfaceHashEPNSt3__112basic_stringIcNS5_11char_traitsIcEENS5_9allocatorIcEEEE"
  },
  {
   "name" : "_ZN4aidl7android8hardware4wifi7hostapd23IHostapdCallbackDefault19getInterfaceVersionEPi"
  },
  {
   "name" : "_ZN4aidl7android8hardware4wifi7hostapd23IHostapdCallbackDefault23onApInstanceInfoChangedERKNS3_6ApInfoE"
  },
  {
   "name" : "_ZN4aidl7android8hardware4wifi7hostapd23IHostapdCallbackDefault25onConnectedClientsChangedERKNS3_10ClientInfoE"
  },
  {
   "name" : "_ZN4aidl7android8hardware4wifi7hostapd23IHostapdCallbackDefault8asBinderEv"
  },
  {
   "name" : "_ZN4aidl7android8hardware4wifi7hostapd23IHostapdCallbackDefault8isRemoteEv"
  },
  {
   "name" : "_ZN4aidl7android8hardware4wifi7hostapd23IHostapdCallbackDefault9onFailureERKNSt3__112basic_stringIcNS5_11char_traitsIcEENS5_9allocatorIcEEEESD_"
  },
  {
   "name" : "_ZN4aidl7android8hardware4wifi7hostapd6ApInfo14readFromParcelEPK7AParcel"
  },
  {
   "name" : "_ZN4aidl7android8hardware4wifi7hostapd8IHostapd10fromBinderERKN3ndk10SpAIBinderE"
  },
  {
   "name" : "_ZN4aidl7android8hardware4wifi7hostapd8IHostapd13writeToParcelEP7AParcelRKNSt3__110shared_ptrIS4_EE"
  },
  {
   "name" : "_ZN4aidl7android8hardware4wifi7hostapd8IHostapd14getDefaultImplEv"
  },
  {
   "name" : "_ZN4aidl7android8hardware4wifi7hostapd8IHostapd14readFromParcelEPK7AParcelPNSt3__110shared_ptrIS4_EE"
  },
  {
   "name" : "_ZN4aidl7android8hardware4wifi7hostapd8IHostapd14setDefaultImplERKNSt3__110shared_ptrIS4_EE"
  },
  {
   "name" : "_ZN4aidl7android8hardware4wifi7hostapd8IHostapdC2Ev"
  },
  {
   "name" : "_ZN4aidl7android8hardware4wifi7hostapd8IHostapdD0Ev"
  },
  {
   "name" : "_ZN4aidl7android8hardware4wifi7hostapd8IHostapdD1Ev"
  },
  {
   "name" : "_ZN4aidl7android8hardware4wifi7hostapd8IHostapdD2Ev"
  },
  {
   "name" : "_ZN4aidl7android8hardware4wifi7hostapd9BnHostapd12createBinderEv"
  },
  {
   "name" : "_ZN4aidl7android8hardware4wifi7hostapd9BnHostapd16getInterfaceHashEPNSt3__112basic_stringIcNS5_11char_traitsIcEENS5_9allocatorIcEEEE"
  },
  {
   "name" : "_ZN4aidl7android8hardware4wifi7hostapd9BnHostapd19getInterfaceVersionEPi"
  },
  {
   "name" : "_ZN4aidl7android8hardware4wifi7hostapd9BnHostapdC2Ev"
  },
  {
   "name" : "_ZN4aidl7android8hardware4wifi7hostapd9BnHostapdD0Ev"
  },
  {
   "name" : "_ZN4aidl7android8hardware4wifi7hostapd9BnHostapdD1Ev"
  },
  {
   "name" : "_ZN4aidl7android8hardware4wifi7hostapd9BnHostapdD2Ev"
  },
  {
   "name" : "_ZN4aidl7android8hardware4wifi7hostapd9BpHostapd14addAccessPointERKNS3_11IfaceParamsERKNS3_13NetworkParamsE"
  },
  {
   "name" : "_ZN4aidl7android8hardware4wifi7hostapd9BpHostapd14setDebugParamsENS3_10DebugLevelE"
  },
  {
   "name" : "_ZN4aidl7android8hardware4wifi7hostapd9BpHostapd16getInterfaceHashEPNSt3__112basic_stringIcNS5_11char_traitsIcEENS5_9allocatorIcEEEE"
  },
  {
   "name" : "_ZN4aidl7android8hardware4wifi7hostapd9BpHostapd16registerCallbackERKNSt3__110shared_ptrINS3_16IHostapdCallbackEEE"
  },
  {
   "name" : "_ZN4aidl7android8hardware4wifi7hostapd9BpHostapd17removeAccessPointERKNSt3__112basic_stringIcNS5_11char_traitsIcEENS5_9allocatorIcEEEE"
  },
  {
   "name" : "_ZN4aidl7android8hardware4wifi7hostapd9BpHostapd19getInterfaceVersionEPi"
  },
  {
   "name" : "_ZN4aidl7android8hardware4wifi7hostapd9BpHostapd21forceClientDisconnectERKNSt3__112basic_stringIcNS5_11char_traitsIcEENS5_9allocatorIcEEEERKNS5_6vectorIhNS9_IhEEEENS3_19Ieee80211ReasonCodeE"
  },
  {
   "name" : "_ZN4aidl7android8hardware4wifi7hostapd9BpHostapd9terminateEv"
  },
  {
   "name" : "_ZN4aidl7android8hardware4wifi7hostapd9BpHostapdC1ERKN3ndk10SpAIBinderE"
  },
  {
   "name" : "_ZN4aidl7android8hardware4wifi7hostapd9BpHostapdC2ERKN3ndk10SpAIBinderE"
  },
  {
   "name" : "_ZN4aidl7android8hardware4wifi7hostapd9BpHostapdD0Ev"
  },
  {
   "name" : "_ZN4aidl7android8hardware4wifi7hostapd9BpHostapdD1Ev"
  },
  {
   "name" : "_ZN4aidl7android8hardware4wifi7hostapd9BpHostapdD2Ev"
  },
  {
   "name" : "_ZNK4aidl7android8hardware4wifi7hostapd10ClientInfo13writeToParcelEP7AParcel"
  },
  {
   "name" : "_ZNK4aidl7android8hardware4wifi7hostapd11IfaceParams13writeToParcelEP7AParcel"
  },
  {
   "name" : "_ZNK4aidl7android8hardware4wifi7hostapd12HwModeParams13writeToParcelEP7AParcel"
  },
  {
   "name" : "_ZNK4aidl7android8hardware4wifi7hostapd13ChannelParams13writeToParcelEP7AParcel"
  },
  {
   "name" : "_ZNK4aidl7android8hardware4wifi7hostapd13NetworkParams13writeToParcelEP7AParcel"
  },
  {
   "name" : "_ZNK4aidl7android8hardware4wifi7hostapd14FrequencyRange13writeToParcelEP7AParcel"
  },
  {
   "name" : "_ZNK4aidl7android8hardware4wifi7hostapd6ApInfo13writeToParcelEP7AParcel"
  },
  {
   "binding" : "weak",
   "name" : "_ZNSt3__110shared_ptrIN4aidl7android8hardware4wifi7hostapd16IHostapdCallbackEED2Ev"
  },
  {
   "binding" : "weak",
   "name" : "_ZNSt3__110shared_ptrIN4aidl7android8hardware4wifi7hostapd8IHostapdEED2Ev"
  },
  {
   "binding" : "weak",
   "name" : "_ZNSt3__120__shared_ptr_pointerIPN3ndk13SharedRefBaseENS_14default_deleteIS2_EENS_9allocatorIS2_EEE16__on_zero_sharedEv"
  },
  {
   "binding" : "weak",
   "name" : "_ZNSt3__120__shared_ptr_pointerIPN3ndk13SharedRefBaseENS_14default_deleteIS2_EENS_9allocatorIS2_EEE21__on_zero_shared_weakEv"
  },
  {
   "binding" : "weak",
   "name" : "_ZNSt3__16vectorIN4aidl7android8hardware4wifi7hostapd13ChannelParamsENS_9allocatorIS6_EEE8__appendEj"
  },
  {
   "binding" : "weak",
   "name" : "_ZNSt3__16vectorIN4aidl7android8hardware4wifi7hostapd14FrequencyRangeENS_9allocatorIS6_EEE8__appendEj"
  },
  {
   "binding" : "weak",
   "name" : "_ZNSt3__16vectorIaNS_9allocatorIaEEE8__appendEj"
  }
 ],
 "elf_objects" :
 [
  {
   "binding" : "weak",
   "name" : "_ZGVN4aidl7android8hardware4wifi7hostapd16IHostapdCallback4hashE"
  },
  {
   "binding" : "weak",
   "name" : "_ZGVN4aidl7android8hardware4wifi7hostapd8IHostapd4hashE"
  },
  {
   "name" : "_ZN4aidl7android8hardware4wifi7hostapd10ClientInfo10descriptorE"
  },
  {
   "name" : "_ZN4aidl7android8hardware4wifi7hostapd11IfaceParams10descriptorE"
  },
  {
   "name" : "_ZN4aidl7android8hardware4wifi7hostapd12HwModeParams10descriptorE"
  },
  {
   "name" : "_ZN4aidl7android8hardware4wifi7hostapd13ChannelParams10descriptorE"
  },
  {
   "name" : "_ZN4aidl7android8hardware4wifi7hostapd13NetworkParams10descriptorE"
  },
  {
   "name" : "_ZN4aidl7android8hardware4wifi7hostapd14FrequencyRange10descriptorE"
  },
  {
   "name" : "_ZN4aidl7android8hardware4wifi7hostapd16IHostapdCallback10descriptorE"
  },
  {
   "name" : "_ZN4aidl7android8hardware4wifi7hostapd16IHostapdCallback12default_implE"
  },
  {
   "binding" : "weak",
   "name" : "_ZN4aidl7android8hardware4wifi7hostapd16IHostapdCallback4hashE"
  },
  {
   "name" : "_ZN4aidl7android8hardware4wifi7hostapd6ApInfo10descriptorE"
  },
  {
   "name" : "_ZN4aidl7android8hardware4wifi7hostapd8IHostapd10descriptorE"
  },
  {
   "name" : "_ZN4aidl7android8hardware4wifi7hostapd8IHostapd12default_implE"
  },
  {
   "binding" : "weak",
   "name" : "_ZN4aidl7android8hardware4wifi7hostapd8IHostapd4hashE"
  },
  {
   "binding" : "weak",
   "name" : "_ZTVN3ndk12BnCInterfaceIN4aidl7android8hardware4wifi7hostapd16IHostapdCallbackEEE"
  },
  {
   "binding" : "weak",
   "name" : "_ZTVN3ndk12BnCInterfaceIN4aidl7android8hardware4wifi7hostapd8IHostapdEEE"
  },
  {
   "binding" : "weak",
   "name" : "_ZTVN3ndk12BpCInterfaceIN4aidl7android8hardware4wifi7hostapd16IHostapdCallbackEEE"
  },
  {
   "binding" : "weak",
   "name" : "_ZTVN3ndk12BpCInterfaceIN4aidl7android8hardware4wifi7hostapd8IHostapdEEE"
  },
  {
   "binding" : "weak",
   "name" : "_ZTVN3ndk13SharedRefBaseE"
  },
  {
   "name" : "_ZTVN4aidl7android8hardware4wifi7hostapd15IHostapdDefaultE"
  },
  {
   "name" : "_ZTVN4aidl7android8hardware4wifi7hostapd16IHostapdCallbackE"
  },
  {
   "name" : "_ZTVN4aidl7android8hardware4wifi7hostapd17BnHostapdCallbackE"
  },
  {
   "name" : "_ZTVN4aidl7android8hardware4wifi7hostapd17BpHostapdCallbackE"
  },
  {
   "name" : "_ZTVN4aidl7android8hardware4wifi7hostapd23IHostapdCallbackDefaultE"
  },
  {
   "name" : "_ZTVN4aidl7android8hardware4wifi7hostapd8IHostapdE"
  },
  {
   "name" : "_ZTVN4aidl7android8hardware4wifi7hostapd9BnHostapdE"
  },
  {
   "name" : "_ZTVN4aidl7android8hardware4wifi7hostapd9BpHostapdE"
  },
  {
   "binding" : "weak",
   "name" : "_ZTVNSt3__120__shared_ptr_pointerIPN3ndk13SharedRefBaseENS_14default_deleteIS2_EENS_9allocatorIS2_EEEE"
  }
 ],
 "enum_types" :
 [
  {
   "alignment" : 4,
   "enum_fields" :
   [
    {
     "enum_field_value" : 1,
     "name" : "FLAG_ONEWAY"
    }
   ],
   "linker_set_key" : "_ZTI12$FLAG_ONEWAY",
   "name" : "(unnamed enum at frameworks/native/libs/binder/ndk/include_ndk/android/binder_ibinder.h:43:1)",
   "referenced_type" : "_ZTI12$FLAG_ONEWAY",
   "self_type" : "_ZTI12$FLAG_ONEWAY",
   "size" : 4,
   "source_file" : "frameworks/native/libs/binder/ndk/include_ndk/android/binder_ibinder.h",
   "underlying_type" : "_ZTIj"
  },
  {
   "alignment" : 4,
   "enum_fields" :
   [
    {
     "enum_field_value" : 0,
     "name" : "EX_NONE"
    },
    {
     "enum_field_value" : -1,
     "name" : "EX_SECURITY"
    },
    {
     "enum_field_value" : -2,
     "name" : "EX_BAD_PARCELABLE"
    },
    {
     "enum_field_value" : -3,
     "name" : "EX_ILLEGAL_ARGUMENT"
    },
    {
     "enum_field_value" : -4,
     "name" : "EX_NULL_POINTER"
    },
    {
     "enum_field_value" : -5,
     "name" : "EX_ILLEGAL_STATE"
    },
    {
     "enum_field_value" : -6,
     "name" : "EX_NETWORK_MAIN_THREAD"
    },
    {
     "enum_field_value" : -7,
     "name" : "EX_UNSUPPORTED_OPERATION"
    },
    {
     "enum_field_value" : -8,
     "name" : "EX_SERVICE_SPECIFIC"
    },
    {
     "enum_field_value" : -9,
     "name" : "EX_PARCELABLE"
    },
    {
     "enum_field_value" : -129,
     "name" : "EX_TRANSACTION_FAILED"
    }
   ],
   "linker_set_key" : "_ZTI18$EX_BAD_PARCELABLE",
   "name" : "(unnamed enum at frameworks/native/libs/binder/ndk/include_ndk/android/binder_status.h:94:1)",
   "referenced_type" : "_ZTI18$EX_BAD_PARCELABLE",
   "self_type" : "_ZTI18$EX_BAD_PARCELABLE",
   "size" : 4,
   "source_file" : "frameworks/native/libs/binder/ndk/include_ndk/android/binder_status.h",
   "underlying_type" : "_ZTIi"
  },
  {
   "alignment" : 4,
   "enum_fields" :
   [
    {
     "enum_field_value" : 268435456,
     "name" : "FLAG_PRIVATE_LOCAL"
    }
   ],
   "linker_set_key" : "_ZTI19$FLAG_PRIVATE_LOCAL",
   "name" : "(unnamed enum at frameworks/native/libs/binder/ndk/include_platform/android/binder_stability.h:35:1)",
   "referenced_type" : "_ZTI19$FLAG_PRIVATE_LOCAL",
   "self_type" : "_ZTI19$FLAG_PRIVATE_LOCAL",
   "size" : 4,
   "source_file" : "frameworks/native/libs/binder/ndk/include_platform/android/binder_stability.h",
   "underlying_type" : "_ZTIj"
  },
  {
   "alignment" : 4,
   "enum_fields" :
   [
    {
     "enum_field_value" : 268435456,
     "name" : "FLAG_PRIVATE_VENDOR"
    }
   ],
   "linker_set_key" : "_ZTI20$FLAG_PRIVATE_VENDOR",
   "name" : "(unnamed enum at frameworks/native/libs/binder/ndk/include_platform/android/binder_stability.h:26:1)",
   "referenced_type" : "_ZTI20$FLAG_PRIVATE_VENDOR",
   "self_type" : "_ZTI20$FLAG_PRIVATE_VENDOR",
   "size" : 4,
   "source_file" : "frameworks/native/libs/binder/ndk/include_platform/android/binder_stability.h",
   "underlying_type" : "_ZTIj"
  },
  {
   "alignment" : 4,
   "enum_fields" :
   [
    {
     "enum_field_value" : 0,
     "name" : "STATUS_OK"
    },
    {
     "enum_field_value" : -2147483648,
     "name" : "STATUS_UNKNOWN_ERROR"
    },
    {
     "enum_field_value" : -12,
     "name" : "STATUS_NO_MEMORY"
    },
    {
     "enum_field_value" : -38,
     "name" : "STATUS_INVALID_OPERATION"
    },
    {
     "enum_field_value" : -22,
     "name" : "STATUS_BAD_VALUE"
    },
    {
     "enum_field_value" : -2147483647,
     "name" : "STATUS_BAD_TYPE"
    },
    {
     "enum_field_value" : -2,
     "name" : "STATUS_NAME_NOT_FOUND"
    },
    {
     "enum_field_value" : -1,
     "name" : "STATUS_PERMISSION_DENIED"
    },
    {
     "enum_field_value" : -19,
     "name" : "STATUS_NO_INIT"
    },
    {
     "enum_field_value" : -17,
     "name" : "STATUS_ALREADY_EXISTS"
    },
    {
     "enum_field_value" : -32,
     "name" : "STATUS_DEAD_OBJECT"
    },
    {
     "enum_field_value" : -2147483646,
     "name" : "STATUS_FAILED_TRANSACTION"
    },
    {
     "enum_field_value" : -75,
     "name" : "STATUS_BAD_INDEX"
    },
    {
     "enum_field_value" : -61,
     "name" : "STATUS_NOT_ENOUGH_DATA"
    },
    {
     "enum_field_value" : -11,
     "name" : "STATUS_WOULD_BLOCK"
    },
    {
     "enum_field_value" : -110,
     "name" : "STATUS_TIMED_OUT"
    },
    {
     "enum_field_value" : -74,
     "name" : "STATUS_UNKNOWN_TRANSACTION"
    },
    {
     "enum_field_value" : -2147483641,
     "name" : "STATUS_FDS_NOT_ALLOWED"
    },
    {
     "enum_field_value" : -2147483640,
     "name" : "STATUS_UNEXPECTED_NULL"
    }
   ],
   "linker_set_key" : "_ZTI22$STATUS_ALREADY_EXISTS",
   "name" : "(unnamed enum at frameworks/native/libs/binder/ndk/include_ndk/android/binder_status.h:60:1)",
   "referenced_type" : "_ZTI22$STATUS_ALREADY_EXISTS",
   "self_type" : "_ZTI22$STATUS_ALREADY_EXISTS",
   "size" : 4,
   "source_file" : "frameworks/native/libs/binder/ndk/include_ndk/android/binder_status.h",
   "underlying_type" : "_ZTIi"
  },
  {
   "alignment" : 4,
   "enum_fields" :
   [
    {
     "enum_field_value" : 1,
     "name" : "FIRST_CALL_TRANSACTION"
    },
    {
     "enum_field_value" : 16777215,
     "name" : "LAST_CALL_TRANSACTION"
    }
   ],
   "linker_set_key" : "_ZTI23$FIRST_CALL_TRANSACTION",
   "name" : "(unnamed enum at frameworks/native/libs/binder/ndk/include_ndk/android/binder_ibinder.h:58:1)",
   "referenced_type" : "_ZTI23$FIRST_CALL_TRANSACTION",
   "self_type" : "_ZTI23$FIRST_CALL_TRANSACTION",
   "size" : 4,
   "source_file" : "frameworks/native/libs/binder/ndk/include_ndk/android/binder_ibinder.h",
   "underlying_type" : "_ZTIj"
  },
  {
   "alignment" : 4,
   "enum_fields" :
   [
    {
     "enum_field_value" : 0,
     "name" : "ndk::STABILITY_LOCAL"
    },
    {
     "enum_field_value" : 1,
     "name" : "ndk::STABILITY_VINTF"
    }
   ],
   "linker_set_key" : "_ZTIN3ndk16$STABILITY_LOCALE",
   "name" : "ndk::(unnamed enum at frameworks/native/libs/binder/ndk/include_cpp/android/binder_parcelable_utils.h:34:1)",
   "referenced_type" : "_ZTIN3ndk16$STABILITY_LOCALE",
   "self_type" : "_ZTIN3ndk16$STABILITY_LOCALE",
   "size" : 4,
   "source_file" : "frameworks/native/libs/binder/ndk/include_cpp/android/binder_parcelable_utils.h",
   "underlying_type" : "_ZTIj"
  },
  {
   "alignment" : 4,
   "enum_fields" :
   [
    {
     "enum_field_value" : 0,
     "name" : "aidl::android::hardware::wifi::hostapd::DebugLevel::EXCESSIVE"
    },
    {
     "enum_field_value" : 1,
     "name" : "aidl::android::hardware::wifi::hostapd::DebugLevel::MSGDUMP"
    },
    {
     "enum_field_value" : 2,
     "name" : "aidl::android::hardware::wifi::hostapd::DebugLevel::DEBUG"
    },
    {
     "enum_field_value" : 3,
     "name" : "aidl::android::hardware::wifi::hostapd::DebugLevel::INFO"
    },
    {
     "enum_field_value" : 4,
     "name" : "aidl::android::hardware::wifi::hostapd::DebugLevel::WARNING"
    },
    {
     "enum_field_value" : 5,
     "name" : "aidl::android::hardware::wifi::hostapd::DebugLevel::ERROR"
    }
   ],
   "linker_set_key" : "_ZTIN4aidl7android8hardware4wifi7hostapd10DebugLevelE",
   "name" : "aidl::android::hardware::wifi::hostapd::DebugLevel",
   "referenced_type" : "_ZTIN4aidl7android8hardware4wifi7hostapd10DebugLevelE",
   "self_type" : "_ZTIN4aidl7android8hardware4wifi7hostapd10DebugLevelE",
   "size" : 4,
   "source_file" : "out/soong/.intermediates/hardware/interfaces/wifi/hostapd/aidl/android.hardware.wifi.hostapd-V1-ndk-source/gen/include/aidl/android/hardware/wifi/hostapd/DebugLevel.h",
   "underlying_type" : "_ZTIi"
  },
  {
   "alignment" : 4,
   "enum_fields" :
   [
    {
     "enum_field_value" : -1,
     "name" : "aidl::android::hardware::wifi::hostapd::Generation::WIFI_STANDARD_UNKNOWN"
    },
    {
     "enum_field_value" : 0,
     "name" : "aidl::android::hardware::wifi::hostapd::Generation::WIFI_STANDARD_LEGACY"
    },
    {
     "enum_field_value" : 1,
     "name" : "aidl::android::hardware::wifi::hostapd::Generation::WIFI_STANDARD_11N"
    },
    {
     "enum_field_value" : 2,
     "name" : "aidl::android::hardware::wifi::hostapd::Generation::WIFI_STANDARD_11AC"
    },
    {
     "enum_field_value" : 3,
     "name" : "aidl::android::hardware::wifi::hostapd::Generation::WIFI_STANDARD_11AD"
    },
    {
     "enum_field_value" : 4,
     "name" : "aidl::android::hardware::wifi::hostapd::Generation::WIFI_STANDARD_11AX"
    },
    {
     "enum_field_value" : 5,
     "name" : "aidl::android::hardware::wifi::hostapd::Generation::WIFI_STANDARD_11BE"
    }
   ],
   "linker_set_key" : "_ZTIN4aidl7android8hardware4wifi7hostapd10GenerationE",
   "name" : "aidl::android::hardware::wifi::hostapd::Generation",
   "referenced_type" : "_ZTIN4aidl7android8hardware4wifi7hostapd10GenerationE",
   "self_type" : "_ZTIN4aidl7android8hardware4wifi7hostapd10GenerationE",
   "size" : 4,
   "source_file" : "out/soong/.intermediates/hardware/interfaces/wifi/hostapd/aidl/android.hardware.wifi.hostapd-V1-ndk-source/gen/include/aidl/android/hardware/wifi/hostapd/Generation.h",
   "underlying_type" : "_ZTIi"
  },
  {
   "alignment" : 4,
   "enum_fields" :
   [
    {
     "enum_field_value" : 0,
     "name" : "aidl::android::hardware::wifi::hostapd::EncryptionType::NONE"
    },
    {
     "enum_field_value" : 1,
     "name" : "aidl::android::hardware::wifi::hostapd::EncryptionType::WPA"
    },
    {
     "enum_field_value" : 2,
     "name" : "aidl::android::hardware::wifi::hostapd::EncryptionType::WPA2"
    },
    {
     "enum_field_value" : 3,
     "name" : "aidl::android::hardware::wifi::hostapd::EncryptionType::WPA3_SAE_TRANSITION"
    },
    {
     "enum_field_value" : 4,
     "name" : "aidl::android::hardware::wifi::hostapd::EncryptionType::WPA3_SAE"
    },
    {
     "enum_field_value" : 5,
     "name" : "aidl::android::hardware::wifi::hostapd::EncryptionType::WPA3_OWE_TRANSITION"
    },
    {
     "enum_field_value" : 6,
     "name" : "aidl::android::hardware::wifi::hostapd::EncryptionType::WPA3_OWE"
    }
   ],
   "linker_set_key" : "_ZTIN4aidl7android8hardware4wifi7hostapd14EncryptionTypeE",
   "name" : "aidl::android::hardware::wifi::hostapd::EncryptionType",
   "referenced_type" : "_ZTIN4aidl7android8hardware4wifi7hostapd14EncryptionTypeE",
   "self_type" : "_ZTIN4aidl7android8hardware4wifi7hostapd14EncryptionTypeE",
   "size" : 4,
   "source_file" : "out/soong/.intermediates/hardware/interfaces/wifi/hostapd/aidl/android.hardware.wifi.hostapd-V1-ndk-source/gen/include/aidl/android/hardware/wifi/hostapd/EncryptionType.h",
   "underlying_type" : "_ZTIi"
  },
  {
   "alignment" : 4,
   "enum_fields" :
   [
    {
     "enum_field_value" : 0,
     "name" : "aidl::android::hardware::wifi::hostapd::ChannelBandwidth::BANDWIDTH_INVALID"
    },
    {
     "enum_field_value" : 1,
     "name" : "aidl::android::hardware::wifi::hostapd::ChannelBandwidth::BANDWIDTH_AUTO"
    },
    {
     "enum_field_value" : 2,
     "name" : "aidl::android::hardware::wifi::hostapd::ChannelBandwidth::BANDWIDTH_20_NOHT"
    },
    {
     "enum_field_value" : 3,
     "name" : "aidl::android::hardware::wifi::hostapd::ChannelBandwidth::BANDWIDTH_20"
    },
    {
     "enum_field_value" : 4,
     "name" : "aidl::android::hardware::wifi::hostapd::ChannelBandwidth::BANDWIDTH_40"
    },
    {
     "enum_field_value" : 5,
     "name" : "aidl::android::hardware::wifi::hostapd::ChannelBandwidth::BANDWIDTH_80"
    },
    {
     "enum_field_value" : 6,
     "name" : "aidl::android::hardware::wifi::hostapd::ChannelBandwidth::BANDWIDTH_80P80"
    },
    {
     "enum_field_value" : 7,
     "name" : "aidl::android::hardware::wifi::hostapd::ChannelBandwidth::BANDWIDTH_160"
    },
    {
     "enum_field_value" : 8,
     "name" : "aidl::android::hardware::wifi::hostapd::ChannelBandwidth::BANDWIDTH_320"
    },
    {
     "enum_field_value" : 9,
     "name" : "aidl::android::hardware::wifi::hostapd::ChannelBandwidth::BANDWIDTH_2160"
    },
    {
     "enum_field_value" : 10,
     "name" : "aidl::android::hardware::wifi::hostapd::ChannelBandwidth::BANDWIDTH_4320"
    },
    {
     "enum_field_value" : 11,
     "name" : "aidl::android::hardware::wifi::hostapd::ChannelBandwidth::BANDWIDTH_6480"
    },
    {
     "enum_field_value" : 12,
     "name" : "aidl::android::hardware::wifi::hostapd::ChannelBandwidth::BANDWIDTH_8640"
    }
   ],
   "linker_set_key" : "_ZTIN4aidl7android8hardware4wifi7hostapd16ChannelBandwidthE",
   "name" : "aidl::android::hardware::wifi::hostapd::ChannelBandwidth",
   "referenced_type" : "_ZTIN4aidl7android8hardware4wifi7hostapd16ChannelBandwidthE",
   "self_type" : "_ZTIN4aidl7android8hardware4wifi7hostapd16ChannelBandwidthE",
   "size" : 4,
   "source_file" : "out/soong/.intermediates/hardware/interfaces/wifi/hostapd/aidl/android.hardware.wifi.hostapd-V1-ndk-source/gen/include/aidl/android/hardware/wifi/hostapd/ChannelBandwidth.h",
   "underlying_type" : "_ZTIi"
  },
  {
   "alignment" : 4,
   "enum_fields" :
   [
    {
     "enum_field_value" : 1,
     "name" : "aidl::android::hardware::wifi::hostapd::Ieee80211ReasonCode::WLAN_REASON_UNSPECIFIED"
    },
    {
     "enum_field_value" : 2,
     "name" : "aidl::android::hardware::wifi::hostapd::Ieee80211ReasonCode::WLAN_REASON_PREV_AUTH_NOT_VALID"
    },
    {
     "enum_field_value" : 5,
     "name" : "aidl::android::hardware::wifi::hostapd::Ieee80211ReasonCode::WLAN_REASON_DISASSOC_AP_BUSY"
    }
   ],
   "linker_set_key" : "_ZTIN4aidl7android8hardware4wifi7hostapd19Ieee80211ReasonCodeE",
   "name" : "aidl::android::hardware::wifi::hostapd::Ieee80211ReasonCode",
   "referenced_type" : "_ZTIN4aidl7android8hardware4wifi7hostapd19Ieee80211ReasonCodeE",
   "self_type" : "_ZTIN4aidl7android8hardware4wifi7hostapd19Ieee80211ReasonCodeE",
   "size" : 4,
   "source_file" : "out/soong/.intermediates/hardware/interfaces/wifi/hostapd/aidl/android.hardware.wifi.hostapd-V1-ndk-source/gen/include/aidl/android/hardware/wifi/hostapd/Ieee80211ReasonCode.h",
   "underlying_type" : "_ZTIi"
  },
  {
   "alignment" : 4,
   "enum_fields" :
   [
    {
     "enum_field_value" : 1,
     "name" : "aidl::android::hardware::wifi::hostapd::BandMask::BAND_2_GHZ"
    },
    {
     "enum_field_value" : 2,
     "name" : "aidl::android::hardware::wifi::hostapd::BandMask::BAND_5_GHZ"
    },
    {
     "enum_field_value" : 4,
     "name" : "aidl::android::hardware::wifi::hostapd::BandMask::BAND_6_GHZ"
    },
    {
     "enum_field_value" : 8,
     "name" : "aidl::android::hardware::wifi::hostapd::BandMask::BAND_60_GHZ"
    }
   ],
   "linker_set_key" : "_ZTIN4aidl7android8hardware4wifi7hostapd8BandMaskE",
   "name" : "aidl::android::hardware::wifi::hostapd::BandMask",
   "referenced_type" : "_ZTIN4aidl7android8hardware4wifi7hostapd8BandMaskE",
   "self_type" : "_ZTIN4aidl7android8hardware4wifi7hostapd8BandMaskE",
   "size" : 4,
   "source_file" : "out/soong/.intermediates/hardware/interfaces/wifi/hostapd/aidl/android.hardware.wifi.hostapd-V1-ndk-source/gen/include/aidl/android/hardware/wifi/hostapd/BandMask.h",
   "underlying_type" : "_ZTIi"
  },
  {
   "alignment" : 4,
   "enum_fields" :
   [
    {
     "enum_field_value" : 1,
     "name" : "android::internal::details::IsIterable<std::vector<aidl::android::hardware::wifi::hostapd::ChannelParams>>::value"
    }
   ],
   "linker_set_key" : "_ZTIN7android8internal7details10IsIterableINSt3__16vectorIN4aidl7android8hardware4wifi7hostapd13ChannelParamsENS3_9allocatorISA_EEEEE6$valueE",
   "name" : "android::internal::details::IsIterable<std::vector<aidl::android::hardware::wifi::hostapd::ChannelParams, std::allocator<aidl::android::hardware::wifi::hostapd::ChannelParams>>>::(unnamed enum at frameworks/native/libs/binder/ndk/include_cpp/android/binder_to_string.h:131:5)",
   "referenced_type" : "_ZTIN7android8internal7details10IsIterableINSt3__16vectorIN4aidl7android8hardware4wifi7hostapd13ChannelParamsENS3_9allocatorISA_EEEEE6$valueE",
   "self_type" : "_ZTIN7android8internal7details10IsIterableINSt3__16vectorIN4aidl7android8hardware4wifi7hostapd13ChannelParamsENS3_9allocatorISA_EEEEE6$valueE",
   "size" : 4,
   "source_file" : "frameworks/native/libs/binder/ndk/include_cpp/android/binder_to_string.h",
   "underlying_type" : "_ZTIj"
  },
  {
   "alignment" : 4,
   "enum_fields" :
   [
    {
     "enum_field_value" : 1,
     "name" : "android::internal::details::IsIterable<std::vector<aidl::android::hardware::wifi::hostapd::FrequencyRange>>::value"
    }
   ],
   "linker_set_key" : "_ZTIN7android8internal7details10IsIterableINSt3__16vectorIN4aidl7android8hardware4wifi7hostapd14FrequencyRangeENS3_9allocatorISA_EEEEE6$valueE",
   "name" : "android::internal::details::IsIterable<std::vector<aidl::android::hardware::wifi::hostapd::FrequencyRange, std::allocator<aidl::android::hardware::wifi::hostapd::FrequencyRange>>>::(unnamed enum at frameworks/native/libs/binder/ndk/include_cpp/android/binder_to_string.h:131:5)",
   "referenced_type" : "_ZTIN7android8internal7details10IsIterableINSt3__16vectorIN4aidl7android8hardware4wifi7hostapd14FrequencyRangeENS3_9allocatorISA_EEEEE6$valueE",
   "self_type" : "_ZTIN7android8internal7details10IsIterableINSt3__16vectorIN4aidl7android8hardware4wifi7hostapd14FrequencyRangeENS3_9allocatorISA_EEEEE6$valueE",
   "size" : 4,
   "source_file" : "frameworks/native/libs/binder/ndk/include_cpp/android/binder_to_string.h",
   "underlying_type" : "_ZTIj"
  },
  {
   "alignment" : 4,
   "enum_fields" :
   [
    {
     "enum_field_value" : 1,
     "name" : "android::internal::details::IsIterable<std::vector<unsigned char>>::value"
    }
   ],
   "linker_set_key" : "_ZTIN7android8internal7details10IsIterableINSt3__16vectorIhNS3_9allocatorIhEEEEE6$valueE",
   "name" : "android::internal::details::IsIterable<std::vector<unsigned char, std::allocator<unsigned char>>>::(unnamed enum at frameworks/native/libs/binder/ndk/include_cpp/android/binder_to_string.h:131:5)",
   "referenced_type" : "_ZTIN7android8internal7details10IsIterableINSt3__16vectorIhNS3_9allocatorIhEEEEE6$valueE",
   "self_type" : "_ZTIN7android8internal7details10IsIterableINSt3__16vectorIhNS3_9allocatorIhEEEEE6$valueE",
   "size" : 4,
   "source_file" : "frameworks/native/libs/binder/ndk/include_cpp/android/binder_to_string.h",
   "underlying_type" : "_ZTIj"
  },
  {
   "alignment" : 4,
   "enum_fields" :
   [
    {
     "enum_field_value" : 0,
     "name" : "android::internal::details::IsPointerLike<aidl::android::hardware::wifi::hostapd::Generation>::value"
    }
   ],
   "linker_set_key" : "_ZTIN7android8internal7details13IsPointerLikeIN4aidl7android8hardware4wifi7hostapd10GenerationEE6$valueE",
   "name" : "android::internal::details::IsPointerLike<aidl::android::hardware::wifi::hostapd::Generation>::(unnamed enum at frameworks/native/libs/binder/ndk/include_cpp/android/binder_to_string.h:118:5)",
   "referenced_type" : "_ZTIN7android8internal7details13IsPointerLikeIN4aidl7android8hardware4wifi7hostapd10GenerationEE6$valueE",
   "self_type" : "_ZTIN7android8internal7details13IsPointerLikeIN4aidl7android8hardware4wifi7hostapd10GenerationEE6$valueE",
   "size" : 4,
   "source_file" : "frameworks/native/libs/binder/ndk/include_cpp/android/binder_to_string.h",
   "underlying_type" : "_ZTIj"
  },
  {
   "alignment" : 4,
   "enum_fields" :
   [
    {
     "enum_field_value" : 0,
     "name" : "android::internal::details::IsPointerLike<aidl::android::hardware::wifi::hostapd::HwModeParams>::value"
    }
   ],
   "linker_set_key" : "_ZTIN7android8internal7details13IsPointerLikeIN4aidl7android8hardware4wifi7hostapd12HwModeParamsEE6$valueE",
   "name" : "android::internal::details::IsPointerLike<aidl::android::hardware::wifi::hostapd::HwModeParams>::(unnamed enum at frameworks/native/libs/binder/ndk/include_cpp/android/binder_to_string.h:118:5)",
   "referenced_type" : "_ZTIN7android8internal7details13IsPointerLikeIN4aidl7android8hardware4wifi7hostapd12HwModeParamsEE6$valueE",
   "self_type" : "_ZTIN7android8internal7details13IsPointerLikeIN4aidl7android8hardware4wifi7hostapd12HwModeParamsEE6$valueE",
   "size" : 4,
   "source_file" : "frameworks/native/libs/binder/ndk/include_cpp/android/binder_to_string.h",
   "underlying_type" : "_ZTIj"
  },
  {
   "alignment" : 4,
   "enum_fields" :
   [
    {
     "enum_field_value" : 0,
     "name" : "android::internal::details::IsPointerLike<aidl::android::hardware::wifi::hostapd::ChannelParams>::value"
    }
   ],
   "linker_set_key" : "_ZTIN7android8internal7details13IsPointerLikeIN4aidl7android8hardware4wifi7hostapd13ChannelParamsEE6$valueE",
   "name" : "android::internal::details::IsPointerLike<aidl::android::hardware::wifi::hostapd::ChannelParams>::(unnamed enum at frameworks/native/libs/binder/ndk/include_cpp/android/binder_to_string.h:118:5)",
   "referenced_type" : "_ZTIN7android8internal7details13IsPointerLikeIN4aidl7android8hardware4wifi7hostapd13ChannelParamsEE6$valueE",
   "self_type" : "_ZTIN7android8internal7details13IsPointerLikeIN4aidl7android8hardware4wifi7hostapd13ChannelParamsEE6$valueE",
   "size" : 4,
   "source_file" : "frameworks/native/libs/binder/ndk/include_cpp/android/binder_to_string.h",
   "underlying_type" : "_ZTIj"
  },
  {
   "alignment" : 4,
   "enum_fields" :
   [
    {
     "enum_field_value" : 0,
     "name" : "android::internal::details::IsPointerLike<aidl::android::hardware::wifi::hostapd::EncryptionType>::value"
    }
   ],
   "linker_set_key" : "_ZTIN7android8internal7details13IsPointerLikeIN4aidl7android8hardware4wifi7hostapd14EncryptionTypeEE6$valueE",
   "name" : "android::internal::details::IsPointerLike<aidl::android::hardware::wifi::hostapd::EncryptionType>::(unnamed enum at frameworks/native/libs/binder/ndk/include_cpp/android/binder_to_string.h:118:5)",
   "referenced_type" : "_ZTIN7android8internal7details13IsPointerLikeIN4aidl7android8hardware4wifi7hostapd14EncryptionTypeEE6$valueE",
   "self_type" : "_ZTIN7android8internal7details13IsPointerLikeIN4aidl7android8hardware4wifi7hostapd14EncryptionTypeEE6$valueE",
   "size" : 4,
   "source_file" : "frameworks/native/libs/binder/ndk/include_cpp/android/binder_to_string.h",
   "underlying_type" : "_ZTIj"
  },
  {
   "alignment" : 4,
   "enum_fields" :
   [
    {
     "enum_field_value" : 0,
     "name" : "android::internal::details::IsPointerLike<aidl::android::hardware::wifi::hostapd::FrequencyRange>::value"
    }
   ],
   "linker_set_key" : "_ZTIN7android8internal7details13IsPointerLikeIN4aidl7android8hardware4wifi7hostapd14FrequencyRangeEE6$valueE",
   "name" : "android::internal::details::IsPointerLike<aidl::android::hardware::wifi::hostapd::FrequencyRange>::(unnamed enum at frameworks/native/libs/binder/ndk/include_cpp/android/binder_to_string.h:118:5)",
   "referenced_type" : "_ZTIN7android8internal7details13IsPointerLikeIN4aidl7android8hardware4wifi7hostapd14FrequencyRangeEE6$valueE",
   "self_type" : "_ZTIN7android8internal7details13IsPointerLikeIN4aidl7android8hardware4wifi7hostapd14FrequencyRangeEE6$valueE",
   "size" : 4,
   "source_file" : "frameworks/native/libs/binder/ndk/include_cpp/android/binder_to_string.h",
   "underlying_type" : "_ZTIj"
  },
  {
   "alignment" : 4,
   "enum_fields" :
   [
    {
     "enum_field_value" : 0,
     "name" : "android::internal::details::IsPointerLike<aidl::android::hardware::wifi::hostapd::ChannelBandwidth>::value"
    }
   ],
   "linker_set_key" : "_ZTIN7android8internal7details13IsPointerLikeIN4aidl7android8hardware4wifi7hostapd16ChannelBandwidthEE6$valueE",
   "name" : "android::internal::details::IsPointerLike<aidl::android::hardware::wifi::hostapd::ChannelBandwidth>::(unnamed enum at frameworks/native/libs/binder/ndk/include_cpp/android/binder_to_string.h:118:5)",
   "referenced_type" : "_ZTIN7android8internal7details13IsPointerLikeIN4aidl7android8hardware4wifi7hostapd16ChannelBandwidthEE6$valueE",
   "self_type" : "_ZTIN7android8internal7details13IsPointerLikeIN4aidl7android8hardware4wifi7hostapd16ChannelBandwidthEE6$valueE",
   "size" : 4,
   "source_file" : "frameworks/native/libs/binder/ndk/include_cpp/android/binder_to_string.h",
   "underlying_type" : "_ZTIj"
  },
  {
   "alignment" : 4,
   "enum_fields" :
   [
    {
     "enum_field_value" : 0,
     "name" : "android::internal::details::IsPointerLike<aidl::android::hardware::wifi::hostapd::BandMask>::value"
    }
   ],
   "linker_set_key" : "_ZTIN7android8internal7details13IsPointerLikeIN4aidl7android8hardware4wifi7hostapd8BandMaskEE6$valueE",
   "name" : "android::internal::details::IsPointerLike<aidl::android::hardware::wifi::hostapd::BandMask>::(unnamed enum at frameworks/native/libs/binder/ndk/include_cpp/android/binder_to_string.h:118:5)",
   "referenced_type" : "_ZTIN7android8internal7details13IsPointerLikeIN4aidl7android8hardware4wifi7hostapd8BandMaskEE6$valueE",
   "self_type" : "_ZTIN7android8internal7details13IsPointerLikeIN4aidl7android8hardware4wifi7hostapd8BandMaskEE6$valueE",
   "size" : 4,
   "source_file" : "frameworks/native/libs/binder/ndk/include_cpp/android/binder_to_string.h",
   "underlying_type" : "_ZTIj"
  },
  {
   "alignment" : 4,
   "enum_fields" :
   [
    {
     "enum_field_value" : 0,
     "name" : "android::internal::details::IsPointerLike<std::vector<aidl::android::hardware::wifi::hostapd::ChannelParams>>::value"
    }
   ],
   "linker_set_key" : "_ZTIN7android8internal7details13IsPointerLikeINSt3__16vectorIN4aidl7android8hardware4wifi7hostapd13ChannelParamsENS3_9allocatorISA_EEEEE6$valueE",
   "name" : "android::internal::details::IsPointerLike<std::vector<aidl::android::hardware::wifi::hostapd::ChannelParams, std::allocator<aidl::android::hardware::wifi::hostapd::ChannelParams>>>::(unnamed enum at frameworks/native/libs/binder/ndk/include_cpp/android/binder_to_string.h:118:5)",
   "referenced_type" : "_ZTIN7android8internal7details13IsPointerLikeINSt3__16vectorIN4aidl7android8hardware4wifi7hostapd13ChannelParamsENS3_9allocatorISA_EEEEE6$valueE",
   "self_type" : "_ZTIN7android8internal7details13IsPointerLikeINSt3__16vectorIN4aidl7android8hardware4wifi7hostapd13ChannelParamsENS3_9allocatorISA_EEEEE6$valueE",
   "size" : 4,
   "source_file" : "frameworks/native/libs/binder/ndk/include_cpp/android/binder_to_string.h",
   "underlying_type" : "_ZTIj"
  },
  {
   "alignment" : 4,
   "enum_fields" :
   [
    {
     "enum_field_value" : 0,
     "name" : "android::internal::details::IsPointerLike<std::vector<aidl::android::hardware::wifi::hostapd::FrequencyRange>>::value"
    }
   ],
   "linker_set_key" : "_ZTIN7android8internal7details13IsPointerLikeINSt3__16vectorIN4aidl7android8hardware4wifi7hostapd14FrequencyRangeENS3_9allocatorISA_EEEEE6$valueE",
   "name" : "android::internal::details::IsPointerLike<std::vector<aidl::android::hardware::wifi::hostapd::FrequencyRange, std::allocator<aidl::android::hardware::wifi::hostapd::FrequencyRange>>>::(unnamed enum at frameworks/native/libs/binder/ndk/include_cpp/android/binder_to_string.h:118:5)",
   "referenced_type" : "_ZTIN7android8internal7details13IsPointerLikeINSt3__16vectorIN4aidl7android8hardware4wifi7hostapd14FrequencyRangeENS3_9allocatorISA_EEEEE6$valueE",
   "self_type" : "_ZTIN7android8internal7details13IsPointerLikeINSt3__16vectorIN4aidl7android8hardware4wifi7hostapd14FrequencyRangeENS3_9allocatorISA_EEEEE6$valueE",
   "size" : 4,
   "source_file" : "frameworks/native/libs/binder/ndk/include_cpp/android/binder_to_string.h",
   "underlying_type" : "_ZTIj"
  },
  {
   "alignment" : 4,
   "enum_fields" :
   [
    {
     "enum_field_value" : 0,
     "name" : "android::internal::details::IsPointerLike<std::vector<unsigned char>>::value"
    }
   ],
   "linker_set_key" : "_ZTIN7android8internal7details13IsPointerLikeINSt3__16vectorIhNS3_9allocatorIhEEEEE6$valueE",
   "name" : "android::internal::details::IsPointerLike<std::vector<unsigned char, std::allocator<unsigned char>>>::(unnamed enum at frameworks/native/libs/binder/ndk/include_cpp/android/binder_to_string.h:118:5)",
   "referenced_type" : "_ZTIN7android8internal7details13IsPointerLikeINSt3__16vectorIhNS3_9allocatorIhEEEEE6$valueE",
   "self_type" : "_ZTIN7android8internal7details13IsPointerLikeINSt3__16vectorIhNS3_9allocatorIhEEEEE6$valueE",
   "size" : 4,
   "source_file" : "frameworks/native/libs/binder/ndk/include_cpp/android/binder_to_string.h",
   "underlying_type" : "_ZTIj"
  },
  {
   "alignment" : 4,
   "enum_fields" :
   [
    {
     "enum_field_value" : 0,
     "name" : "android::internal::details::ToEmptyString<aidl::android::hardware::wifi::hostapd::Generation>::value"
    }
   ],
   "linker_set_key" : "_ZTIN7android8internal7details13ToEmptyStringIN4aidl7android8hardware4wifi7hostapd10GenerationEE6$valueE",
   "name" : "android::internal::details::ToEmptyString<aidl::android::hardware::wifi::hostapd::Generation>::(unnamed enum at frameworks/native/libs/binder/ndk/include_cpp/android/binder_to_string.h:153:5)",
   "referenced_type" : "_ZTIN7android8internal7details13ToEmptyStringIN4aidl7android8hardware4wifi7hostapd10GenerationEE6$valueE",
   "self_type" : "_ZTIN7android8internal7details13ToEmptyStringIN4aidl7android8hardware4wifi7hostapd10GenerationEE6$valueE",
   "size" : 4,
   "source_file" : "frameworks/native/libs/binder/ndk/include_cpp/android/binder_to_string.h",
   "underlying_type" : "_ZTIj"
  },
  {
   "alignment" : 4,
   "enum_fields" :
   [
    {
     "enum_field_value" : 0,
     "name" : "android::internal::details::ToEmptyString<aidl::android::hardware::wifi::hostapd::HwModeParams>::value"
    }
   ],
   "linker_set_key" : "_ZTIN7android8internal7details13ToEmptyStringIN4aidl7android8hardware4wifi7hostapd12HwModeParamsEE6$valueE",
   "name" : "android::internal::details::ToEmptyString<aidl::android::hardware::wifi::hostapd::HwModeParams>::(unnamed enum at frameworks/native/libs/binder/ndk/include_cpp/android/binder_to_string.h:153:5)",
   "referenced_type" : "_ZTIN7android8internal7details13ToEmptyStringIN4aidl7android8hardware4wifi7hostapd12HwModeParamsEE6$valueE",
   "self_type" : "_ZTIN7android8internal7details13ToEmptyStringIN4aidl7android8hardware4wifi7hostapd12HwModeParamsEE6$valueE",
   "size" : 4,
   "source_file" : "frameworks/native/libs/binder/ndk/include_cpp/android/binder_to_string.h",
   "underlying_type" : "_ZTIj"
  },
  {
   "alignment" : 4,
   "enum_fields" :
   [
    {
     "enum_field_value" : 0,
     "name" : "android::internal::details::ToEmptyString<aidl::android::hardware::wifi::hostapd::ChannelParams>::value"
    }
   ],
   "linker_set_key" : "_ZTIN7android8internal7details13ToEmptyStringIN4aidl7android8hardware4wifi7hostapd13ChannelParamsEE6$valueE",
   "name" : "android::internal::details::ToEmptyString<aidl::android::hardware::wifi::hostapd::ChannelParams>::(unnamed enum at frameworks/native/libs/binder/ndk/include_cpp/android/binder_to_string.h:153:5)",
   "referenced_type" : "_ZTIN7android8internal7details13ToEmptyStringIN4aidl7android8hardware4wifi7hostapd13ChannelParamsEE6$valueE",
   "self_type" : "_ZTIN7android8internal7details13ToEmptyStringIN4aidl7android8hardware4wifi7hostapd13ChannelParamsEE6$valueE",
   "size" : 4,
   "source_file" : "frameworks/native/libs/binder/ndk/include_cpp/android/binder_to_string.h",
   "underlying_type" : "_ZTIj"
  },
  {
   "alignment" : 4,
   "enum_fields" :
   [
    {
     "enum_field_value" : 0,
     "name" : "android::internal::details::ToEmptyString<aidl::android::hardware::wifi::hostapd::EncryptionType>::value"
    }
   ],
   "linker_set_key" : "_ZTIN7android8internal7details13ToEmptyStringIN4aidl7android8hardware4wifi7hostapd14EncryptionTypeEE6$valueE",
   "name" : "android::internal::details::ToEmptyString<aidl::android::hardware::wifi::hostapd::EncryptionType>::(unnamed enum at frameworks/native/libs/binder/ndk/include_cpp/android/binder_to_string.h:153:5)",
   "referenced_type" : "_ZTIN7android8internal7details13ToEmptyStringIN4aidl7android8hardware4wifi7hostapd14EncryptionTypeEE6$valueE",
   "self_type" : "_ZTIN7android8internal7details13ToEmptyStringIN4aidl7android8hardware4wifi7hostapd14EncryptionTypeEE6$valueE",
   "size" : 4,
   "source_file" : "frameworks/native/libs/binder/ndk/include_cpp/android/binder_to_string.h",
   "underlying_type" : "_ZTIj"
  },
  {
   "alignment" : 4,
   "enum_fields" :
   [
    {
     "enum_field_value" : 0,
     "name" : "android::internal::details::ToEmptyString<aidl::android::hardware::wifi::hostapd::FrequencyRange>::value"
    }
   ],
   "linker_set_key" : "_ZTIN7android8internal7details13ToEmptyStringIN4aidl7android8hardware4wifi7hostapd14FrequencyRangeEE6$valueE",
   "name" : "android::internal::details::ToEmptyString<aidl::android::hardware::wifi::hostapd::FrequencyRange>::(unnamed enum at frameworks/native/libs/binder/ndk/include_cpp/android/binder_to_string.h:153:5)",
   "referenced_type" : "_ZTIN7android8internal7details13ToEmptyStringIN4aidl7android8hardware4wifi7hostapd14FrequencyRangeEE6$valueE",
   "self_type" : "_ZTIN7android8internal7details13ToEmptyStringIN4aidl7android8hardware4wifi7hostapd14FrequencyRangeEE6$valueE",
   "size" : 4,
   "source_file" : "frameworks/native/libs/binder/ndk/include_cpp/android/binder_to_string.h",
   "underlying_type" : "_ZTIj"
  },
  {
   "alignment" : 4,
   "enum_fields" :
   [
    {
     "enum_field_value" : 0,
     "name" : "android::internal::details::ToEmptyString<aidl::android::hardware::wifi::hostapd::ChannelBandwidth>::value"
    }
   ],
   "linker_set_key" : "_ZTIN7android8internal7details13ToEmptyStringIN4aidl7android8hardware4wifi7hostapd16ChannelBandwidthEE6$valueE",
   "name" : "android::internal::details::ToEmptyString<aidl::android::hardware::wifi::hostapd::ChannelBandwidth>::(unnamed enum at frameworks/native/libs/binder/ndk/include_cpp/android/binder_to_string.h:153:5)",
   "referenced_type" : "_ZTIN7android8internal7details13ToEmptyStringIN4aidl7android8hardware4wifi7hostapd16ChannelBandwidthEE6$valueE",
   "self_type" : "_ZTIN7android8internal7details13ToEmptyStringIN4aidl7android8hardware4wifi7hostapd16ChannelBandwidthEE6$valueE",
   "size" : 4,
   "source_file" : "frameworks/native/libs/binder/ndk/include_cpp/android/binder_to_string.h",
   "underlying_type" : "_ZTIj"
  },
  {
   "alignment" : 4,
   "enum_fields" :
   [
    {
     "enum_field_value" : 0,
     "name" : "android::internal::details::ToEmptyString<aidl::android::hardware::wifi::hostapd::BandMask>::value"
    }
   ],
   "linker_set_key" : "_ZTIN7android8internal7details13ToEmptyStringIN4aidl7android8hardware4wifi7hostapd8BandMaskEE6$valueE",
   "name" : "android::internal::details::ToEmptyString<aidl::android::hardware::wifi::hostapd::BandMask>::(unnamed enum at frameworks/native/libs/binder/ndk/include_cpp/android/binder_to_string.h:153:5)",
   "referenced_type" : "_ZTIN7android8internal7details13ToEmptyStringIN4aidl7android8hardware4wifi7hostapd8BandMaskEE6$valueE",
   "self_type" : "_ZTIN7android8internal7details13ToEmptyStringIN4aidl7android8hardware4wifi7hostapd8BandMaskEE6$valueE",
   "size" : 4,
   "source_file" : "frameworks/native/libs/binder/ndk/include_cpp/android/binder_to_string.h",
   "underlying_type" : "_ZTIj"
  },
  {
   "alignment" : 4,
   "enum_fields" :
   [
    {
     "enum_field_value" : 0,
     "name" : "android::internal::details::ToEmptyString<std::basic_string<char>>::value"
    }
   ],
   "linker_set_key" : "_ZTIN7android8internal7details13ToEmptyStringINSt3__112basic_stringIcNS3_11char_traitsIcEENS3_9allocatorIcEEEEE6$valueE",
   "name" : "android::internal::details::ToEmptyString<std::basic_string<char, std::char_traits<char>, std::allocator<char>>>::(unnamed enum at frameworks/native/libs/binder/ndk/include_cpp/android/binder_to_string.h:153:5)",
   "referenced_type" : "_ZTIN7android8internal7details13ToEmptyStringINSt3__112basic_stringIcNS3_11char_traitsIcEENS3_9allocatorIcEEEEE6$valueE",
   "self_type" : "_ZTIN7android8internal7details13ToEmptyStringINSt3__112basic_stringIcNS3_11char_traitsIcEENS3_9allocatorIcEEEEE6$valueE",
   "size" : 4,
   "source_file" : "frameworks/native/libs/binder/ndk/include_cpp/android/binder_to_string.h",
   "underlying_type" : "_ZTIj"
  },
  {
   "alignment" : 4,
   "enum_fields" :
   [
    {
     "enum_field_value" : 0,
     "name" : "android::internal::details::ToEmptyString<std::vector<aidl::android::hardware::wifi::hostapd::ChannelParams>>::value"
    }
   ],
   "linker_set_key" : "_ZTIN7android8internal7details13ToEmptyStringINSt3__16vectorIN4aidl7android8hardware4wifi7hostapd13ChannelParamsENS3_9allocatorISA_EEEEE6$valueE",
   "name" : "android::internal::details::ToEmptyString<std::vector<aidl::android::hardware::wifi::hostapd::ChannelParams, std::allocator<aidl::android::hardware::wifi::hostapd::ChannelParams>>>::(unnamed enum at frameworks/native/libs/binder/ndk/include_cpp/android/binder_to_string.h:153:5)",
   "referenced_type" : "_ZTIN7android8internal7details13ToEmptyStringINSt3__16vectorIN4aidl7android8hardware4wifi7hostapd13ChannelParamsENS3_9allocatorISA_EEEEE6$valueE",
   "self_type" : "_ZTIN7android8internal7details13ToEmptyStringINSt3__16vectorIN4aidl7android8hardware4wifi7hostapd13ChannelParamsENS3_9allocatorISA_EEEEE6$valueE",
   "size" : 4,
   "source_file" : "frameworks/native/libs/binder/ndk/include_cpp/android/binder_to_string.h",
   "underlying_type" : "_ZTIj"
  },
  {
   "alignment" : 4,
   "enum_fields" :
   [
    {
     "enum_field_value" : 0,
     "name" : "android::internal::details::ToEmptyString<std::vector<aidl::android::hardware::wifi::hostapd::FrequencyRange>>::value"
    }
   ],
   "linker_set_key" : "_ZTIN7android8internal7details13ToEmptyStringINSt3__16vectorIN4aidl7android8hardware4wifi7hostapd14FrequencyRangeENS3_9allocatorISA_EEEEE6$valueE",
   "name" : "android::internal::details::ToEmptyString<std::vector<aidl::android::hardware::wifi::hostapd::FrequencyRange, std::allocator<aidl::android::hardware::wifi::hostapd::FrequencyRange>>>::(unnamed enum at frameworks/native/libs/binder/ndk/include_cpp/android/binder_to_string.h:153:5)",
   "referenced_type" : "_ZTIN7android8internal7details13ToEmptyStringINSt3__16vectorIN4aidl7android8hardware4wifi7hostapd14FrequencyRangeENS3_9allocatorISA_EEEEE6$valueE",
   "self_type" : "_ZTIN7android8internal7details13ToEmptyStringINSt3__16vectorIN4aidl7android8hardware4wifi7hostapd14FrequencyRangeENS3_9allocatorISA_EEEEE6$valueE",
   "size" : 4,
   "source_file" : "frameworks/native/libs/binder/ndk/include_cpp/android/binder_to_string.h",
   "underlying_type" : "_ZTIj"
  },
  {
   "alignment" : 4,
   "enum_fields" :
   [
    {
     "enum_field_value" : 0,
     "name" : "android::internal::details::ToEmptyString<std::vector<unsigned char>>::value"
    }
   ],
   "linker_set_key" : "_ZTIN7android8internal7details13ToEmptyStringINSt3__16vectorIhNS3_9allocatorIhEEEEE6$valueE",
   "name" : "android::internal::details::ToEmptyString<std::vector<unsigned char, std::allocator<unsigned char>>>::(unnamed enum at frameworks/native/libs/binder/ndk/include_cpp/android/binder_to_string.h:153:5)",
   "referenced_type" : "_ZTIN7android8internal7details13ToEmptyStringINSt3__16vectorIhNS3_9allocatorIhEEEEE6$valueE",
   "self_type" : "_ZTIN7android8internal7details13ToEmptyStringINSt3__16vectorIhNS3_9allocatorIhEEEEE6$valueE",
   "size" : 4,
   "source_file" : "frameworks/native/libs/binder/ndk/include_cpp/android/binder_to_string.h",
   "underlying_type" : "_ZTIj"
  },
  {
   "alignment" : 4,
   "enum_fields" :
   [
    {
     "enum_field_value" : 0,
     "name" : "android::internal::details::ToEmptyString<bool>::value"
    }
   ],
   "linker_set_key" : "_ZTIN7android8internal7details13ToEmptyStringIbE6$valueE",
   "name" : "android::internal::details::ToEmptyString<bool>::(unnamed enum at frameworks/native/libs/binder/ndk/include_cpp/android/binder_to_string.h:153:5)",
   "referenced_type" : "_ZTIN7android8internal7details13ToEmptyStringIbE6$valueE",
   "self_type" : "_ZTIN7android8internal7details13ToEmptyStringIbE6$valueE",
   "size" : 4,
   "source_file" : "frameworks/native/libs/binder/ndk/include_cpp/android/binder_to_string.h",
   "underlying_type" : "_ZTIj"
  },
  {
   "alignment" : 4,
   "enum_fields" :
   [
    {
     "enum_field_value" : 0,
     "name" : "android::internal::details::ToEmptyString<unsigned char>::value"
    }
   ],
   "linker_set_key" : "_ZTIN7android8internal7details13ToEmptyStringIhE6$valueE",
   "name" : "android::internal::details::ToEmptyString<unsigned char>::(unnamed enum at frameworks/native/libs/binder/ndk/include_cpp/android/binder_to_string.h:153:5)",
   "referenced_type" : "_ZTIN7android8internal7details13ToEmptyStringIhE6$valueE",
   "self_type" : "_ZTIN7android8internal7details13ToEmptyStringIhE6$valueE",
   "size" : 4,
   "source_file" : "frameworks/native/libs/binder/ndk/include_cpp/android/binder_to_string.h",
   "underlying_type" : "_ZTIj"
  },
  {
   "alignment" : 4,
   "enum_fields" :
   [
    {
     "enum_field_value" : 0,
     "name" : "android::internal::details::ToEmptyString<int>::value"
    }
   ],
   "linker_set_key" : "_ZTIN7android8internal7details13ToEmptyStringIiE6$valueE",
   "name" : "android::internal::details::ToEmptyString<int>::(unnamed enum at frameworks/native/libs/binder/ndk/include_cpp/android/binder_to_string.h:153:5)",
   "referenced_type" : "_ZTIN7android8internal7details13ToEmptyStringIiE6$valueE",
   "self_type" : "_ZTIN7android8internal7details13ToEmptyStringIiE6$valueE",
   "size" : 4,
   "source_file" : "frameworks/native/libs/binder/ndk/include_cpp/android/binder_to_string.h",
   "underlying_type" : "_ZTIj"
  },
  {
   "alignment" : 4,
   "enum_fields" :
   [
    {
     "enum_field_value" : 0,
     "name" : "android::internal::details::HasToStringMethod<aidl::android::hardware::wifi::hostapd::Generation>::value"
    }
   ],
   "linker_set_key" : "_ZTIN7android8internal7details17HasToStringMethodIN4aidl7android8hardware4wifi7hostapd10GenerationEE6$valueE",
   "name" : "android::internal::details::HasToStringMethod<aidl::android::hardware::wifi::hostapd::Generation>::(unnamed enum at frameworks/native/libs/binder/ndk/include_cpp/android/binder_to_string.h:77:5)",
   "referenced_type" : "_ZTIN7android8internal7details17HasToStringMethodIN4aidl7android8hardware4wifi7hostapd10GenerationEE6$valueE",
   "self_type" : "_ZTIN7android8internal7details17HasToStringMethodIN4aidl7android8hardware4wifi7hostapd10GenerationEE6$valueE",
   "size" : 4,
   "source_file" : "frameworks/native/libs/binder/ndk/include_cpp/android/binder_to_string.h",
   "underlying_type" : "_ZTIj"
  },
  {
   "alignment" : 4,
   "enum_fields" :
   [
    {
     "enum_field_value" : 1,
     "name" : "android::internal::details::HasToStringMethod<aidl::android::hardware::wifi::hostapd::HwModeParams>::value"
    }
   ],
   "linker_set_key" : "_ZTIN7android8internal7details17HasToStringMethodIN4aidl7android8hardware4wifi7hostapd12HwModeParamsEE6$valueE",
   "name" : "android::internal::details::HasToStringMethod<aidl::android::hardware::wifi::hostapd::HwModeParams>::(unnamed enum at frameworks/native/libs/binder/ndk/include_cpp/android/binder_to_string.h:77:5)",
   "referenced_type" : "_ZTIN7android8internal7details17HasToStringMethodIN4aidl7android8hardware4wifi7hostapd12HwModeParamsEE6$valueE",
   "self_type" : "_ZTIN7android8internal7details17HasToStringMethodIN4aidl7android8hardware4wifi7hostapd12HwModeParamsEE6$valueE",
   "size" : 4,
   "source_file" : "frameworks/native/libs/binder/ndk/include_cpp/android/binder_to_string.h",
   "underlying_type" : "_ZTIj"
  },
  {
   "alignment" : 4,
   "enum_fields" :
   [
    {
     "enum_field_value" : 1,
     "name" : "android::internal::details::HasToStringMethod<aidl::android::hardware::wifi::hostapd::ChannelParams>::value"
    }
   ],
   "linker_set_key" : "_ZTIN7android8internal7details17HasToStringMethodIN4aidl7android8hardware4wifi7hostapd13ChannelParamsEE6$valueE",
   "name" : "android::internal::details::HasToStringMethod<aidl::android::hardware::wifi::hostapd::ChannelParams>::(unnamed enum at frameworks/native/libs/binder/ndk/include_cpp/android/binder_to_string.h:77:5)",
   "referenced_type" : "_ZTIN7android8internal7details17HasToStringMethodIN4aidl7android8hardware4wifi7hostapd13ChannelParamsEE6$valueE",
   "self_type" : "_ZTIN7android8internal7details17HasToStringMethodIN4aidl7android8hardware4wifi7hostapd13ChannelParamsEE6$valueE",
   "size" : 4,
   "source_file" : "frameworks/native/libs/binder/ndk/include_cpp/android/binder_to_string.h",
   "underlying_type" : "_ZTIj"
  },
  {
   "alignment" : 4,
   "enum_fields" :
   [
    {
     "enum_field_value" : 0,
     "name" : "android::internal::details::HasToStringMethod<aidl::android::hardware::wifi::hostapd::EncryptionType>::value"
    }
   ],
   "linker_set_key" : "_ZTIN7android8internal7details17HasToStringMethodIN4aidl7android8hardware4wifi7hostapd14EncryptionTypeEE6$valueE",
   "name" : "android::internal::details::HasToStringMethod<aidl::android::hardware::wifi::hostapd::EncryptionType>::(unnamed enum at frameworks/native/libs/binder/ndk/include_cpp/android/binder_to_string.h:77:5)",
   "referenced_type" : "_ZTIN7android8internal7details17HasToStringMethodIN4aidl7android8hardware4wifi7hostapd14EncryptionTypeEE6$valueE",
   "self_type" : "_ZTIN7android8internal7details17HasToStringMethodIN4aidl7android8hardware4wifi7hostapd14EncryptionTypeEE6$valueE",
   "size" : 4,
   "source_file" : "frameworks/native/libs/binder/ndk/include_cpp/android/binder_to_string.h",
   "underlying_type" : "_ZTIj"
  },
  {
   "alignment" : 4,
   "enum_fields" :
   [
    {
     "enum_field_value" : 1,
     "name" : "android::internal::details::HasToStringMethod<aidl::android::hardware::wifi::hostapd::FrequencyRange>::value"
    }
   ],
   "linker_set_key" : "_ZTIN7android8internal7details17HasToStringMethodIN4aidl7android8hardware4wifi7hostapd14FrequencyRangeEE6$valueE",
   "name" : "android::internal::details::HasToStringMethod<aidl::android::hardware::wifi::hostapd::FrequencyRange>::(unnamed enum at frameworks/native/libs/binder/ndk/include_cpp/android/binder_to_string.h:77:5)",
   "referenced_type" : "_ZTIN7android8internal7details17HasToStringMethodIN4aidl7android8hardware4wifi7hostapd14FrequencyRangeEE6$valueE",
   "self_type" : "_ZTIN7android8internal7details17HasToStringMethodIN4aidl7android8hardware4wifi7hostapd14FrequencyRangeEE6$valueE",
   "size" : 4,
   "source_file" : "frameworks/native/libs/binder/ndk/include_cpp/android/binder_to_string.h",
   "underlying_type" : "_ZTIj"
  },
  {
   "alignment" : 4,
   "enum_fields" :
   [
    {
     "enum_field_value" : 0,
     "name" : "android::internal::details::HasToStringMethod<aidl::android::hardware::wifi::hostapd::ChannelBandwidth>::value"
    }
   ],
   "linker_set_key" : "_ZTIN7android8internal7details17HasToStringMethodIN4aidl7android8hardware4wifi7hostapd16ChannelBandwidthEE6$valueE",
   "name" : "android::internal::details::HasToStringMethod<aidl::android::hardware::wifi::hostapd::ChannelBandwidth>::(unnamed enum at frameworks/native/libs/binder/ndk/include_cpp/android/binder_to_string.h:77:5)",
   "referenced_type" : "_ZTIN7android8internal7details17HasToStringMethodIN4aidl7android8hardware4wifi7hostapd16ChannelBandwidthEE6$valueE",
   "self_type" : "_ZTIN7android8internal7details17HasToStringMethodIN4aidl7android8hardware4wifi7hostapd16ChannelBandwidthEE6$valueE",
   "size" : 4,
   "source_file" : "frameworks/native/libs/binder/ndk/include_cpp/android/binder_to_string.h",
   "underlying_type" : "_ZTIj"
  },
  {
   "alignment" : 4,
   "enum_fields" :
   [
    {
     "enum_field_value" : 0,
     "name" : "android::internal::details::HasToStringMethod<aidl::android::hardware::wifi::hostapd::BandMask>::value"
    }
   ],
   "linker_set_key" : "_ZTIN7android8internal7details17HasToStringMethodIN4aidl7android8hardware4wifi7hostapd8BandMaskEE6$valueE",
   "name" : "android::internal::details::HasToStringMethod<aidl::android::hardware::wifi::hostapd::BandMask>::(unnamed enum at frameworks/native/libs/binder/ndk/include_cpp/android/binder_to_string.h:77:5)",
   "referenced_type" : "_ZTIN7android8internal7details17HasToStringMethodIN4aidl7android8hardware4wifi7hostapd8BandMaskEE6$valueE",
   "self_type" : "_ZTIN7android8internal7details17HasToStringMethodIN4aidl7android8hardware4wifi7hostapd8BandMaskEE6$valueE",
   "size" : 4,
   "source_file" : "frameworks/native/libs/binder/ndk/include_cpp/android/binder_to_string.h",
   "underlying_type" : "_ZTIj"
  },
  {
   "alignment" : 4,
   "enum_fields" :
   [
    {
     "enum_field_value" : 0,
     "name" : "android::internal::details::HasToStringMethod<std::vector<aidl::android::hardware::wifi::hostapd::ChannelParams>>::value"
    }
   ],
   "linker_set_key" : "_ZTIN7android8internal7details17HasToStringMethodINSt3__16vectorIN4aidl7android8hardware4wifi7hostapd13ChannelParamsENS3_9allocatorISA_EEEEE6$valueE",
   "name" : "android::internal::details::HasToStringMethod<std::vector<aidl::android::hardware::wifi::hostapd::ChannelParams, std::allocator<aidl::android::hardware::wifi::hostapd::ChannelParams>>>::(unnamed enum at frameworks/native/libs/binder/ndk/include_cpp/android/binder_to_string.h:77:5)",
   "referenced_type" : "_ZTIN7android8internal7details17HasToStringMethodINSt3__16vectorIN4aidl7android8hardware4wifi7hostapd13ChannelParamsENS3_9allocatorISA_EEEEE6$valueE",
   "self_type" : "_ZTIN7android8internal7details17HasToStringMethodINSt3__16vectorIN4aidl7android8hardware4wifi7hostapd13ChannelParamsENS3_9allocatorISA_EEEEE6$valueE",
   "size" : 4,
   "source_file" : "frameworks/native/libs/binder/ndk/include_cpp/android/binder_to_string.h",
   "underlying_type" : "_ZTIj"
  },
  {
   "alignment" : 4,
   "enum_fields" :
   [
    {
     "enum_field_value" : 0,
     "name" : "android::internal::details::HasToStringMethod<std::vector<aidl::android::hardware::wifi::hostapd::FrequencyRange>>::value"
    }
   ],
   "linker_set_key" : "_ZTIN7android8internal7details17HasToStringMethodINSt3__16vectorIN4aidl7android8hardware4wifi7hostapd14FrequencyRangeENS3_9allocatorISA_EEEEE6$valueE",
   "name" : "android::internal::details::HasToStringMethod<std::vector<aidl::android::hardware::wifi::hostapd::FrequencyRange, std::allocator<aidl::android::hardware::wifi::hostapd::FrequencyRange>>>::(unnamed enum at frameworks/native/libs/binder/ndk/include_cpp/android/binder_to_string.h:77:5)",
   "referenced_type" : "_ZTIN7android8internal7details17HasToStringMethodINSt3__16vectorIN4aidl7android8hardware4wifi7hostapd14FrequencyRangeENS3_9allocatorISA_EEEEE6$valueE",
   "self_type" : "_ZTIN7android8internal7details17HasToStringMethodINSt3__16vectorIN4aidl7android8hardware4wifi7hostapd14FrequencyRangeENS3_9allocatorISA_EEEEE6$valueE",
   "size" : 4,
   "source_file" : "frameworks/native/libs/binder/ndk/include_cpp/android/binder_to_string.h",
   "underlying_type" : "_ZTIj"
  },
  {
   "alignment" : 4,
   "enum_fields" :
   [
    {
     "enum_field_value" : 0,
     "name" : "android::internal::details::HasToStringMethod<std::vector<unsigned char>>::value"
    }
   ],
   "linker_set_key" : "_ZTIN7android8internal7details17HasToStringMethodINSt3__16vectorIhNS3_9allocatorIhEEEEE6$valueE",
   "name" : "android::internal::details::HasToStringMethod<std::vector<unsigned char, std::allocator<unsigned char>>>::(unnamed enum at frameworks/native/libs/binder/ndk/include_cpp/android/binder_to_string.h:77:5)",
   "referenced_type" : "_ZTIN7android8internal7details17HasToStringMethodINSt3__16vectorIhNS3_9allocatorIhEEEEE6$valueE",
   "self_type" : "_ZTIN7android8internal7details17HasToStringMethodINSt3__16vectorIhNS3_9allocatorIhEEEEE6$valueE",
   "size" : 4,
   "source_file" : "frameworks/native/libs/binder/ndk/include_cpp/android/binder_to_string.h",
   "underlying_type" : "_ZTIj"
  },
  {
   "alignment" : 4,
   "enum_fields" :
   [
    {
     "enum_field_value" : 1,
     "name" : "android::internal::details::HasToStringFunction<aidl::android::hardware::wifi::hostapd::Generation>::value"
    }
   ],
   "linker_set_key" : "_ZTIN7android8internal7details19HasToStringFunctionIN4aidl7android8hardware4wifi7hostapd10GenerationEE6$valueE",
   "name" : "android::internal::details::HasToStringFunction<aidl::android::hardware::wifi::hostapd::Generation>::(unnamed enum at frameworks/native/libs/binder/ndk/include_cpp/android/binder_to_string.h:89:5)",
   "referenced_type" : "_ZTIN7android8internal7details19HasToStringFunctionIN4aidl7android8hardware4wifi7hostapd10GenerationEE6$valueE",
   "self_type" : "_ZTIN7android8internal7details19HasToStringFunctionIN4aidl7android8hardware4wifi7hostapd10GenerationEE6$valueE",
   "size" : 4,
   "source_file" : "frameworks/native/libs/binder/ndk/include_cpp/android/binder_to_string.h",
   "underlying_type" : "_ZTIj"
  },
  {
   "alignment" : 4,
   "enum_fields" :
   [
    {
     "enum_field_value" : 1,
     "name" : "android::internal::details::HasToStringFunction<aidl::android::hardware::wifi::hostapd::EncryptionType>::value"
    }
   ],
   "linker_set_key" : "_ZTIN7android8internal7details19HasToStringFunctionIN4aidl7android8hardware4wifi7hostapd14EncryptionTypeEE6$valueE",
   "name" : "android::internal::details::HasToStringFunction<aidl::android::hardware::wifi::hostapd::EncryptionType>::(unnamed enum at frameworks/native/libs/binder/ndk/include_cpp/android/binder_to_string.h:89:5)",
   "referenced_type" : "_ZTIN7android8internal7details19HasToStringFunctionIN4aidl7android8hardware4wifi7hostapd14EncryptionTypeEE6$valueE",
   "self_type" : "_ZTIN7android8internal7details19HasToStringFunctionIN4aidl7android8hardware4wifi7hostapd14EncryptionTypeEE6$valueE",
   "size" : 4,
   "source_file" : "frameworks/native/libs/binder/ndk/include_cpp/android/binder_to_string.h",
   "underlying_type" : "_ZTIj"
  },
  {
   "alignment" : 4,
   "enum_fields" :
   [
    {
     "enum_field_value" : 1,
     "name" : "android::internal::details::HasToStringFunction<aidl::android::hardware::wifi::hostapd::ChannelBandwidth>::value"
    }
   ],
   "linker_set_key" : "_ZTIN7android8internal7details19HasToStringFunctionIN4aidl7android8hardware4wifi7hostapd16ChannelBandwidthEE6$valueE",
   "name" : "android::internal::details::HasToStringFunction<aidl::android::hardware::wifi::hostapd::ChannelBandwidth>::(unnamed enum at frameworks/native/libs/binder/ndk/include_cpp/android/binder_to_string.h:89:5)",
   "referenced_type" : "_ZTIN7android8internal7details19HasToStringFunctionIN4aidl7android8hardware4wifi7hostapd16ChannelBandwidthEE6$valueE",
   "self_type" : "_ZTIN7android8internal7details19HasToStringFunctionIN4aidl7android8hardware4wifi7hostapd16ChannelBandwidthEE6$valueE",
   "size" : 4,
   "source_file" : "frameworks/native/libs/binder/ndk/include_cpp/android/binder_to_string.h",
   "underlying_type" : "_ZTIj"
  },
  {
   "alignment" : 4,
   "enum_fields" :
   [
    {
     "enum_field_value" : 1,
     "name" : "android::internal::details::HasToStringFunction<aidl::android::hardware::wifi::hostapd::BandMask>::value"
    }
   ],
   "linker_set_key" : "_ZTIN7android8internal7details19HasToStringFunctionIN4aidl7android8hardware4wifi7hostapd8BandMaskEE6$valueE",
   "name" : "android::internal::details::HasToStringFunction<aidl::android::hardware::wifi::hostapd::BandMask>::(unnamed enum at frameworks/native/libs/binder/ndk/include_cpp/android/binder_to_string.h:89:5)",
   "referenced_type" : "_ZTIN7android8internal7details19HasToStringFunctionIN4aidl7android8hardware4wifi7hostapd8BandMaskEE6$valueE",
   "self_type" : "_ZTIN7android8internal7details19HasToStringFunctionIN4aidl7android8hardware4wifi7hostapd8BandMaskEE6$valueE",
   "size" : 4,
   "source_file" : "frameworks/native/libs/binder/ndk/include_cpp/android/binder_to_string.h",
   "underlying_type" : "_ZTIj"
  },
  {
   "alignment" : 4,
   "enum_fields" :
   [
    {
     "enum_field_value" : 0,
     "name" : "android::internal::details::HasToStringFunction<std::vector<aidl::android::hardware::wifi::hostapd::ChannelParams>>::value"
    }
   ],
   "linker_set_key" : "_ZTIN7android8internal7details19HasToStringFunctionINSt3__16vectorIN4aidl7android8hardware4wifi7hostapd13ChannelParamsENS3_9allocatorISA_EEEEE6$valueE",
   "name" : "android::internal::details::HasToStringFunction<std::vector<aidl::android::hardware::wifi::hostapd::ChannelParams, std::allocator<aidl::android::hardware::wifi::hostapd::ChannelParams>>>::(unnamed enum at frameworks/native/libs/binder/ndk/include_cpp/android/binder_to_string.h:89:5)",
   "referenced_type" : "_ZTIN7android8internal7details19HasToStringFunctionINSt3__16vectorIN4aidl7android8hardware4wifi7hostapd13ChannelParamsENS3_9allocatorISA_EEEEE6$valueE",
   "self_type" : "_ZTIN7android8internal7details19HasToStringFunctionINSt3__16vectorIN4aidl7android8hardware4wifi7hostapd13ChannelParamsENS3_9allocatorISA_EEEEE6$valueE",
   "size" : 4,
   "source_file" : "frameworks/native/libs/binder/ndk/include_cpp/android/binder_to_string.h",
   "underlying_type" : "_ZTIj"
  },
  {
   "alignment" : 4,
   "enum_fields" :
   [
    {
     "enum_field_value" : 0,
     "name" : "android::internal::details::HasToStringFunction<std::vector<aidl::android::hardware::wifi::hostapd::FrequencyRange>>::value"
    }
   ],
   "linker_set_key" : "_ZTIN7android8internal7details19HasToStringFunctionINSt3__16vectorIN4aidl7android8hardware4wifi7hostapd14FrequencyRangeENS3_9allocatorISA_EEEEE6$valueE",
   "name" : "android::internal::details::HasToStringFunction<std::vector<aidl::android::hardware::wifi::hostapd::FrequencyRange, std::allocator<aidl::android::hardware::wifi::hostapd::FrequencyRange>>>::(unnamed enum at frameworks/native/libs/binder/ndk/include_cpp/android/binder_to_string.h:89:5)",
   "referenced_type" : "_ZTIN7android8internal7details19HasToStringFunctionINSt3__16vectorIN4aidl7android8hardware4wifi7hostapd14FrequencyRangeENS3_9allocatorISA_EEEEE6$valueE",
   "self_type" : "_ZTIN7android8internal7details19HasToStringFunctionINSt3__16vectorIN4aidl7android8hardware4wifi7hostapd14FrequencyRangeENS3_9allocatorISA_EEEEE6$valueE",
   "size" : 4,
   "source_file" : "frameworks/native/libs/binder/ndk/include_cpp/android/binder_to_string.h",
   "underlying_type" : "_ZTIj"
  },
  {
   "alignment" : 4,
   "enum_fields" :
   [
    {
     "enum_field_value" : 0,
     "name" : "android::internal::details::HasToStringFunction<std::vector<unsigned char>>::value"
    }
   ],
   "linker_set_key" : "_ZTIN7android8internal7details19HasToStringFunctionINSt3__16vectorIhNS3_9allocatorIhEEEEE6$valueE",
   "name" : "android::internal::details::HasToStringFunction<std::vector<unsigned char, std::allocator<unsigned char>>>::(unnamed enum at frameworks/native/libs/binder/ndk/include_cpp/android/binder_to_string.h:89:5)",
   "referenced_type" : "_ZTIN7android8internal7details19HasToStringFunctionINSt3__16vectorIhNS3_9allocatorIhEEEEE6$valueE",
   "self_type" : "_ZTIN7android8internal7details19HasToStringFunctionINSt3__16vectorIhNS3_9allocatorIhEEEEE6$valueE",
   "size" : 4,
   "source_file" : "frameworks/native/libs/binder/ndk/include_cpp/android/binder_to_string.h",
   "underlying_type" : "_ZTIj"
  }
 ],
 "function_types" :
 [
  {
   "alignment" : 4,
   "linker_set_key" : "_ZTIFiP8AIBinderjPK7AParcelPS1_E",
   "name" : "int (AIBinder *, unsigned int, const AParcel *, AParcel *)",
   "parameters" :
   [
    {
     "referenced_type" : "_ZTIP8AIBinder"
    },
    {
     "referenced_type" : "_ZTIj"
    },
    {
     "referenced_type" : "_ZTIPK7AParcel"
    },
    {
     "referenced_type" : "_ZTIP7AParcel"
    }
   ],
   "referenced_type" : "_ZTIFiP8AIBinderjPK7AParcelPS1_E",
   "return_type" : "_ZTIi",
   "self_type" : "_ZTIFiP8AIBinderjPK7AParcelPS1_E",
   "source_file" : "frameworks/native/libs/binder/ndk/include_cpp/android/binder_interface_utils.h"
  }
 ],
 "functions" :
 [
  {
   "function_name" : "ndk::BnCInterface<aidl::android::hardware::wifi::hostapd::IHostapdCallback>::asBinder",
   "linker_set_key" : "_ZN3ndk12BnCInterfaceIN4aidl7android8hardware4wifi7hostapd16IHostapdCallbackEE8asBinderEv",
   "parameters" :
   [
    {
     "is_this_ptr" : true,
     "referenced_type" : "_ZTIPN3ndk12BnCInterfaceIN4aidl7android8hardware4wifi7hostapd16IHostapdCallbackEEE"
    }
   ],
   "return_type" : "_ZTIN3ndk10SpAIBinderE",
   "source_file" : "frameworks/native/libs/binder/ndk/include_cpp/android/binder_interface_utils.h"
  },
  {
   "function_name" : "ndk::BnCInterface<aidl::android::hardware::wifi::hostapd::IHostapd>::asBinder",
   "linker_set_key" : "_ZN3ndk12BnCInterfaceIN4aidl7android8hardware4wifi7hostapd8IHostapdEE8asBinderEv",
   "parameters" :
   [
    {
     "is_this_ptr" : true,
     "referenced_type" : "_ZTIPN3ndk12BnCInterfaceIN4aidl7android8hardware4wifi7hostapd8IHostapdEEE"
    }
   ],
   "return_type" : "_ZTIN3ndk10SpAIBinderE",
   "source_file" : "frameworks/native/libs/binder/ndk/include_cpp/android/binder_interface_utils.h"
  },
  {
   "function_name" : "ndk::BpCInterface<aidl::android::hardware::wifi::hostapd::IHostapdCallback>::asBinder",
   "linker_set_key" : "_ZN3ndk12BpCInterfaceIN4aidl7android8hardware4wifi7hostapd16IHostapdCallbackEE8asBinderEv",
   "parameters" :
   [
    {
     "is_this_ptr" : true,
     "referenced_type" : "_ZTIPN3ndk12BpCInterfaceIN4aidl7android8hardware4wifi7hostapd16IHostapdCallbackEEE"
    }
   ],
   "return_type" : "_ZTIN3ndk10SpAIBinderE",
   "source_file" : "frameworks/native/libs/binder/ndk/include_cpp/android/binder_interface_utils.h"
  },
  {
   "function_name" : "ndk::BpCInterface<aidl::android::hardware::wifi::hostapd::IHostapd>::asBinder",
   "linker_set_key" : "_ZN3ndk12BpCInterfaceIN4aidl7android8hardware4wifi7hostapd8IHostapdEE8asBinderEv",
   "parameters" :
   [
    {
     "is_this_ptr" : true,
     "referenced_type" : "_ZTIPN3ndk12BpCInterfaceIN4aidl7android8hardware4wifi7hostapd8IHostapdEEE"
    }
   ],
   "return_type" : "_ZTIN3ndk10SpAIBinderE",
   "source_file" : "frameworks/native/libs/binder/ndk/include_cpp/android/binder_interface_utils.h"
  },
  {
   "function_name" : "ndk::AParcel_readStdVectorParcelableElement",
   "linker_set_key" : "_ZN3ndk38AParcel_readStdVectorParcelableElementIN4aidl7android8hardware4wifi7hostapd13ChannelParamsEEEiPK7AParcelPvj",
   "parameters" :
   [
    {
     "referenced_type" : "_ZTIPK7AParcel"
    },
    {
     "referenced_type" : "_ZTIPv"
    },
    {
     "referenced_type" : "_ZTIj"
    }
   ],
   "return_type" : "_ZTIi",
   "source_file" : "frameworks/native/libs/binder/ndk/include_cpp/android/binder_parcel_utils.h",
   "template_args" :
   [
    "_ZTIN4aidl7android8hardware4wifi7hostapd13ChannelParamsE"
   ]
  },
  {
   "function_name" : "ndk::AParcel_readStdVectorParcelableElement",
   "linker_set_key" : "_ZN3ndk38AParcel_readStdVectorParcelableElementIN4aidl7android8hardware4wifi7hostapd14FrequencyRangeEEEiPK7AParcelPvj",
   "parameters" :
   [
    {
     "referenced_type" : "_ZTIPK7AParcel"
    },
    {
     "referenced_type" : "_ZTIPv"
    },
    {
     "referenced_type" : "_ZTIj"
    }
   ],
   "return_type" : "_ZTIi",
   "source_file" : "frameworks/native/libs/binder/ndk/include_cpp/android/binder_parcel_utils.h",
   "template_args" :
   [
    "_ZTIN4aidl7android8hardware4wifi7hostapd14FrequencyRangeE"
   ]
  },
  {
   "function_name" : "ndk::AParcel_writeStdVectorParcelableElement",
   "linker_set_key" : "_ZN3ndk39AParcel_writeStdVectorParcelableElementIN4aidl7android8hardware4wifi7hostapd13ChannelParamsEEEiP7AParcelPKvj",
   "parameters" :
   [
    {
     "referenced_type" : "_ZTIP7AParcel"
    },
    {
     "referenced_type" : "_ZTIPKv"
    },
    {
     "referenced_type" : "_ZTIj"
    }
   ],
   "return_type" : "_ZTIi",
   "source_file" : "frameworks/native/libs/binder/ndk/include_cpp/android/binder_parcel_utils.h",
   "template_args" :
   [
    "_ZTIN4aidl7android8hardware4wifi7hostapd13ChannelParamsE"
   ]
  },
  {
   "function_name" : "ndk::AParcel_writeStdVectorParcelableElement",
   "linker_set_key" : "_ZN3ndk39AParcel_writeStdVectorParcelableElementIN4aidl7android8hardware4wifi7hostapd14FrequencyRangeEEEiP7AParcelPKvj",
   "parameters" :
   [
    {
     "referenced_type" : "_ZTIP7AParcel"
    },
    {
     "referenced_type" : "_ZTIPKv"
    },
    {
     "referenced_type" : "_ZTIj"
    }
   ],
   "return_type" : "_ZTIi",
   "source_file" : "frameworks/native/libs/binder/ndk/include_cpp/android/binder_parcel_utils.h",
   "template_args" :
   [
    "_ZTIN4aidl7android8hardware4wifi7hostapd14FrequencyRangeE"
   ]
  },
  {
   "function_name" : "aidl::android::hardware::wifi::hostapd::ClientInfo::readFromParcel",
   "linker_set_key" : "_ZN4aidl7android8hardware4wifi7hostapd10ClientInfo14readFromParcelEPK7AParcel",
   "parameters" :
   [
    {
     "is_this_ptr" : true,
     "referenced_type" : "_ZTIPN4aidl7android8hardware4wifi7hostapd10ClientInfoE"
    },
    {
     "referenced_type" : "_ZTIPK7AParcel"
    }
   ],
   "return_type" : "_ZTIi",
   "source_file" : "out/soong/.intermediates/hardware/interfaces/wifi/hostapd/aidl/android.hardware.wifi.hostapd-V1-ndk-source/gen/include/aidl/android/hardware/wifi/hostapd/ClientInfo.h"
  },
  {
   "function_name" : "aidl::android::hardware::wifi::hostapd::IfaceParams::readFromParcel",
   "linker_set_key" : "_ZN4aidl7android8hardware4wifi7hostapd11IfaceParams14readFromParcelEPK7AParcel",
   "parameters" :
   [
    {
     "is_this_ptr" : true,
     "referenced_type" : "_ZTIPN4aidl7android8hardware4wifi7hostapd11IfaceParamsE"
    },
    {
     "referenced_type" : "_ZTIPK7AParcel"
    }
   ],
   "return_type" : "_ZTIi",
   "source_file" : "out/soong/.intermediates/hardware/interfaces/wifi/hostapd/aidl/android.hardware.wifi.hostapd-V1-ndk-source/gen/include/aidl/android/hardware/wifi/hostapd/IfaceParams.h"
  },
  {
   "function_name" : "aidl::android::hardware::wifi::hostapd::HwModeParams::readFromParcel",
   "linker_set_key" : "_ZN4aidl7android8hardware4wifi7hostapd12HwModeParams14readFromParcelEPK7AParcel",
   "parameters" :
   [
    {
     "is_this_ptr" : true,
     "referenced_type" : "_ZTIPN4aidl7android8hardware4wifi7hostapd12HwModeParamsE"
    },
    {
     "referenced_type" : "_ZTIPK7AParcel"
    }
   ],
   "return_type" : "_ZTIi",
   "source_file" : "out/soong/.intermediates/hardware/interfaces/wifi/hostapd/aidl/android.hardware.wifi.hostapd-V1-ndk-source/gen/include/aidl/android/hardware/wifi/hostapd/HwModeParams.h"
  },
  {
   "function_name" : "aidl::android::hardware::wifi::hostapd::ChannelParams::readFromParcel",
   "linker_set_key" : "_ZN4aidl7android8hardware4wifi7hostapd13ChannelParams14readFromParcelEPK7AParcel",
   "parameters" :
   [
    {
     "is_this_ptr" : true,
     "referenced_type" : "_ZTIPN4aidl7android8hardware4wifi7hostapd13ChannelParamsE"
    },
    {
     "referenced_type" : "_ZTIPK7AParcel"
    }
   ],
   "return_type" : "_ZTIi",
   "source_file" : "out/soong/.intermediates/hardware/interfaces/wifi/hostapd/aidl/android.hardware.wifi.hostapd-V1-ndk-source/gen/include/aidl/android/hardware/wifi/hostapd/ChannelParams.h"
  },
  {
   "function_name" : "aidl::android::hardware::wifi::hostapd::NetworkParams::readFromParcel",
   "linker_set_key" : "_ZN4aidl7android8hardware4wifi7hostapd13NetworkParams14readFromParcelEPK7AParcel",
   "parameters" :
   [
    {
     "is_this_ptr" : true,
     "referenced_type" : "_ZTIPN4aidl7android8hardware4wifi7hostapd13NetworkParamsE"
    },
    {
     "referenced_type" : "_ZTIPK7AParcel"
    }
   ],
   "return_type" : "_ZTIi",
   "source_file" : "out/soong/.intermediates/hardware/interfaces/wifi/hostapd/aidl/android.hardware.wifi.hostapd-V1-ndk-source/gen/include/aidl/android/hardware/wifi/hostapd/NetworkParams.h"
  },
  {
   "function_name" : "aidl::android::hardware::wifi::hostapd::FrequencyRange::readFromParcel",
   "linker_set_key" : "_ZN4aidl7android8hardware4wifi7hostapd14FrequencyRange14readFromParcelEPK7AParcel",
   "parameters" :
   [
    {
     "is_this_ptr" : true,
     "referenced_type" : "_ZTIPN4aidl7android8hardware4wifi7hostapd14FrequencyRangeE"
    },
    {
     "referenced_type" : "_ZTIPK7AParcel"
    }
   ],
   "return_type" : "_ZTIi",
   "source_file" : "out/soong/.intermediates/hardware/interfaces/wifi/hostapd/aidl/android.hardware.wifi.hostapd-V1-ndk-source/gen/include/aidl/android/hardware/wifi/hostapd/FrequencyRange.h"
  },
  {
   "function_name" : "aidl::android::hardware::wifi::hostapd::IHostapdDefault::addAccessPoint",
   "linker_set_key" : "_ZN4aidl7android8hardware4wifi7hostapd15IHostapdDefault14addAccessPointERKNS3_11IfaceParamsERKNS3_13NetworkParamsE",
   "parameters" :
   [
    {
     "is_this_ptr" : true,
     "referenced_type" : "_ZTIPN4aidl7android8hardware4wifi7hostapd15IHostapdDefaultE"
    },
    {
     "referenced_type" : "_ZTIRKN4aidl7android8hardware4wifi7hostapd11IfaceParamsE"
    },
    {
     "referenced_type" : "_ZTIRKN4aidl7android8hardware4wifi7hostapd13NetworkParamsE"
    }
   ],
   "return_type" : "_ZTIN3ndk13ScopedAStatusE",
   "source_file" : "out/soong/.intermediates/hardware/interfaces/wifi/hostapd/aidl/android.hardware.wifi.hostapd-V1-ndk-source/gen/include/aidl/android/hardware/wifi/hostapd/IHostapd.h"
  },
  {
   "function_name" : "aidl::android::hardware::wifi::hostapd::IHostapdDefault::setDebugParams",
   "linker_set_key" : "_ZN4aidl7android8hardware4wifi7hostapd15IHostapdDefault14setDebugParamsENS3_10DebugLevelE",
   "parameters" :
   [
    {
     "is_this_ptr" : true,
     "referenced_type" : "_ZTIPN4aidl7android8hardware4wifi7hostapd15IHostapdDefaultE"
    },
    {
     "referenced_type" : "_ZTIN4aidl7android8hardware4wifi7hostapd10DebugLevelE"
    }
   ],
   "return_type" : "_ZTIN3ndk13ScopedAStatusE",
   "source_file" : "out/soong/.intermediates/hardware/interfaces/wifi/hostapd/aidl/android.hardware.wifi.hostapd-V1-ndk-source/gen/include/aidl/android/hardware/wifi/hostapd/IHostapd.h"
  },
  {
   "function_name" : "aidl::android::hardware::wifi::hostapd::IHostapdDefault::getInterfaceHash",
   "linker_set_key" : "_ZN4aidl7android8hardware4wifi7hostapd15IHostapdDefault16getInterfaceHashEPNSt3__112basic_stringIcNS5_11char_traitsIcEENS5_9allocatorIcEEEE",
   "parameters" :
   [
    {
     "is_this_ptr" : true,
     "referenced_type" : "_ZTIPN4aidl7android8hardware4wifi7hostapd15IHostapdDefaultE"
    },
    {
     "referenced_type" : "_ZTIPNSt3__112basic_stringIcNS_11char_traitsIcEENS_9allocatorIcEEEE"
    }
   ],
   "return_type" : "_ZTIN3ndk13ScopedAStatusE",
   "source_file" : "out/soong/.intermediates/hardware/interfaces/wifi/hostapd/aidl/android.hardware.wifi.hostapd-V1-ndk-source/gen/include/aidl/android/hardware/wifi/hostapd/IHostapd.h"
  },
  {
   "function_name" : "aidl::android::hardware::wifi::hostapd::IHostapdDefault::registerCallback",
   "linker_set_key" : "_ZN4aidl7android8hardware4wifi7hostapd15IHostapdDefault16registerCallbackERKNSt3__110shared_ptrINS3_16IHostapdCallbackEEE",
   "parameters" :
   [
    {
     "is_this_ptr" : true,
     "referenced_type" : "_ZTIPN4aidl7android8hardware4wifi7hostapd15IHostapdDefaultE"
    },
    {
     "referenced_type" : "_ZTIRKNSt3__110shared_ptrIN4aidl7android8hardware4wifi7hostapd16IHostapdCallbackEEE"
    }
   ],
   "return_type" : "_ZTIN3ndk13ScopedAStatusE",
   "source_file" : "out/soong/.intermediates/hardware/interfaces/wifi/hostapd/aidl/android.hardware.wifi.hostapd-V1-ndk-source/gen/include/aidl/android/hardware/wifi/hostapd/IHostapd.h"
  },
  {
   "function_name" : "aidl::android::hardware::wifi::hostapd::IHostapdDefault::removeAccessPoint",
   "linker_set_key" : "_ZN4aidl7android8hardware4wifi7hostapd15IHostapdDefault17removeAccessPointERKNSt3__112basic_stringIcNS5_11char_traitsIcEENS5_9allocatorIcEEEE",
   "parameters" :
   [
    {
     "is_this_ptr" : true,
     "referenced_type" : "_ZTIPN4aidl7android8hardware4wifi7hostapd15IHostapdDefaultE"
    },
    {
     "referenced_type" : "_ZTIRKNSt3__112basic_stringIcNS_11char_traitsIcEENS_9allocatorIcEEEE"
    }
   ],
   "return_type" : "_ZTIN3ndk13ScopedAStatusE",
   "source_file" : "out/soong/.intermediates/hardware/interfaces/wifi/hostapd/aidl/android.hardware.wifi.hostapd-V1-ndk-source/gen/include/aidl/android/hardware/wifi/hostapd/IHostapd.h"
  },
  {
   "function_name" : "aidl::android::hardware::wifi::hostapd::IHostapdDefault::getInterfaceVersion",
   "linker_set_key" : "_ZN4aidl7android8hardware4wifi7hostapd15IHostapdDefault19getInterfaceVersionEPi",
   "parameters" :
   [
    {
     "is_this_ptr" : true,
     "referenced_type" : "_ZTIPN4aidl7android8hardware4wifi7hostapd15IHostapdDefaultE"
    },
    {
     "referenced_type" : "_ZTIPi"
    }
   ],
   "return_type" : "_ZTIN3ndk13ScopedAStatusE",
   "source_file" : "out/soong/.intermediates/hardware/interfaces/wifi/hostapd/aidl/android.hardware.wifi.hostapd-V1-ndk-source/gen/include/aidl/android/hardware/wifi/hostapd/IHostapd.h"
  },
  {
   "function_name" : "aidl::android::hardware::wifi::hostapd::IHostapdDefault::forceClientDisconnect",
   "linker_set_key" : "_ZN4aidl7android8hardware4wifi7hostapd15IHostapdDefault21forceClientDisconnectERKNSt3__112basic_stringIcNS5_11char_traitsIcEENS5_9allocatorIcEEEERKNS5_6vectorIhNS9_IhEEEENS3_19Ieee80211ReasonCodeE",
   "parameters" :
   [
    {
     "is_this_ptr" : true,
     "referenced_type" : "_ZTIPN4aidl7android8hardware4wifi7hostapd15IHostapdDefaultE"
    },
    {
     "referenced_type" : "_ZTIRKNSt3__112basic_stringIcNS_11char_traitsIcEENS_9allocatorIcEEEE"
    },
    {
     "referenced_type" : "_ZTIRKNSt3__16vectorIhNS_9allocatorIhEEEE"
    },
    {
     "referenced_type" : "_ZTIN4aidl7android8hardware4wifi7hostapd19Ieee80211ReasonCodeE"
    }
   ],
   "return_type" : "_ZTIN3ndk13ScopedAStatusE",
   "source_file" : "out/soong/.intermediates/hardware/interfaces/wifi/hostapd/aidl/android.hardware.wifi.hostapd-V1-ndk-source/gen/include/aidl/android/hardware/wifi/hostapd/IHostapd.h"
  },
  {
   "function_name" : "aidl::android::hardware::wifi::hostapd::IHostapdDefault::asBinder",
   "linker_set_key" : "_ZN4aidl7android8hardware4wifi7hostapd15IHostapdDefault8asBinderEv",
   "parameters" :
   [
    {
     "is_this_ptr" : true,
     "referenced_type" : "_ZTIPN4aidl7android8hardware4wifi7hostapd15IHostapdDefaultE"
    }
   ],
   "return_type" : "_ZTIN3ndk10SpAIBinderE",
   "source_file" : "out/soong/.intermediates/hardware/interfaces/wifi/hostapd/aidl/android.hardware.wifi.hostapd-V1-ndk-source/gen/include/aidl/android/hardware/wifi/hostapd/IHostapd.h"
  },
  {
   "function_name" : "aidl::android::hardware::wifi::hostapd::IHostapdDefault::isRemote",
   "linker_set_key" : "_ZN4aidl7android8hardware4wifi7hostapd15IHostapdDefault8isRemoteEv",
   "parameters" :
   [
    {
     "is_this_ptr" : true,
     "referenced_type" : "_ZTIPN4aidl7android8hardware4wifi7hostapd15IHostapdDefaultE"
    }
   ],
   "return_type" : "_ZTIb",
   "source_file" : "out/soong/.intermediates/hardware/interfaces/wifi/hostapd/aidl/android.hardware.wifi.hostapd-V1-ndk-source/gen/include/aidl/android/hardware/wifi/hostapd/IHostapd.h"
  },
  {
   "function_name" : "aidl::android::hardware::wifi::hostapd::IHostapdDefault::terminate",
   "linker_set_key" : "_ZN4aidl7android8hardware4wifi7hostapd15IHostapdDefault9terminateEv",
   "parameters" :
   [
    {
     "is_this_ptr" : true,
     "referenced_type" : "_ZTIPN4aidl7android8hardware4wifi7hostapd15IHostapdDefaultE"
    }
   ],
   "return_type" : "_ZTIN3ndk13ScopedAStatusE",
   "source_file" : "out/soong/.intermediates/hardware/interfaces/wifi/hostapd/aidl/android.hardware.wifi.hostapd-V1-ndk-source/gen/include/aidl/android/hardware/wifi/hostapd/IHostapd.h"
  },
  {
   "function_name" : "aidl::android::hardware::wifi::hostapd::IHostapdCallback::fromBinder",
   "linker_set_key" : "_ZN4aidl7android8hardware4wifi7hostapd16IHostapdCallback10fromBinderERKN3ndk10SpAIBinderE",
   "parameters" :
   [
    {
     "referenced_type" : "_ZTIRKN3ndk10SpAIBinderE"
    }
   ],
   "return_type" : "_ZTINSt3__110shared_ptrIN4aidl7android8hardware4wifi7hostapd16IHostapdCallbackEEE",
   "source_file" : "out/soong/.intermediates/hardware/interfaces/wifi/hostapd/aidl/android.hardware.wifi.hostapd-V1-ndk-source/gen/include/aidl/android/hardware/wifi/hostapd/IHostapdCallback.h"
  },
  {
   "function_name" : "aidl::android::hardware::wifi::hostapd::IHostapdCallback::writeToParcel",
   "linker_set_key" : "_ZN4aidl7android8hardware4wifi7hostapd16IHostapdCallback13writeToParcelEP7AParcelRKNSt3__110shared_ptrIS4_EE",
   "parameters" :
   [
    {
     "referenced_type" : "_ZTIP7AParcel"
    },
    {
     "referenced_type" : "_ZTIRKNSt3__110shared_ptrIN4aidl7android8hardware4wifi7hostapd16IHostapdCallbackEEE"
    }
   ],
   "return_type" : "_ZTIi",
   "source_file" : "out/soong/.intermediates/hardware/interfaces/wifi/hostapd/aidl/android.hardware.wifi.hostapd-V1-ndk-source/gen/include/aidl/android/hardware/wifi/hostapd/IHostapdCallback.h"
  },
  {
   "function_name" : "aidl::android::hardware::wifi::hostapd::IHostapdCallback::getDefaultImpl",
   "linker_set_key" : "_ZN4aidl7android8hardware4wifi7hostapd16IHostapdCallback14getDefaultImplEv",
   "return_type" : "_ZTIRKNSt3__110shared_ptrIN4aidl7android8hardware4wifi7hostapd16IHostapdCallbackEEE",
   "source_file" : "out/soong/.intermediates/hardware/interfaces/wifi/hostapd/aidl/android.hardware.wifi.hostapd-V1-ndk-source/gen/include/aidl/android/hardware/wifi/hostapd/IHostapdCallback.h"
  },
  {
   "function_name" : "aidl::android::hardware::wifi::hostapd::IHostapdCallback::readFromParcel",
   "linker_set_key" : "_ZN4aidl7android8hardware4wifi7hostapd16IHostapdCallback14readFromParcelEPK7AParcelPNSt3__110shared_ptrIS4_EE",
   "parameters" :
   [
    {
     "referenced_type" : "_ZTIPK7AParcel"
    },
    {
     "referenced_type" : "_ZTIPNSt3__110shared_ptrIN4aidl7android8hardware4wifi7hostapd16IHostapdCallbackEEE"
    }
   ],
   "return_type" : "_ZTIi",
   "source_file" : "out/soong/.intermediates/hardware/interfaces/wifi/hostapd/aidl/android.hardware.wifi.hostapd-V1-ndk-source/gen/include/aidl/android/hardware/wifi/hostapd/IHostapdCallback.h"
  },
  {
   "function_name" : "aidl::android::hardware::wifi::hostapd::IHostapdCallback::setDefaultImpl",
   "linker_set_key" : "_ZN4aidl7android8hardware4wifi7hostapd16IHostapdCallback14setDefaultImplERKNSt3__110shared_ptrIS4_EE",
   "parameters" :
   [
    {
     "referenced_type" : "_ZTIRKNSt3__110shared_ptrIN4aidl7android8hardware4wifi7hostapd16IHostapdCallbackEEE"
    }
   ],
   "return_type" : "_ZTIb",
   "source_file" : "out/soong/.intermediates/hardware/interfaces/wifi/hostapd/aidl/android.hardware.wifi.hostapd-V1-ndk-source/gen/include/aidl/android/hardware/wifi/hostapd/IHostapdCallback.h"
  },
  {
   "function_name" : "aidl::android::hardware::wifi::hostapd::IHostapdCallback::IHostapdCallback",
   "linker_set_key" : "_ZN4aidl7android8hardware4wifi7hostapd16IHostapdCallbackC2Ev",
   "parameters" :
   [
    {
     "is_this_ptr" : true,
     "referenced_type" : "_ZTIPN4aidl7android8hardware4wifi7hostapd16IHostapdCallbackE"
    }
   ],
   "return_type" : "_ZTIv",
   "source_file" : "out/soong/.intermediates/hardware/interfaces/wifi/hostapd/aidl/android.hardware.wifi.hostapd-V1-ndk-source/gen/include/aidl/android/hardware/wifi/hostapd/IHostapdCallback.h"
  },
  {
   "function_name" : "aidl::android::hardware::wifi::hostapd::IHostapdCallback::~IHostapdCallback",
   "linker_set_key" : "_ZN4aidl7android8hardware4wifi7hostapd16IHostapdCallbackD0Ev",
   "parameters" :
   [
    {
     "is_this_ptr" : true,
     "referenced_type" : "_ZTIPN4aidl7android8hardware4wifi7hostapd16IHostapdCallbackE"
    }
   ],
   "return_type" : "_ZTIv",
   "source_file" : "out/soong/.intermediates/hardware/interfaces/wifi/hostapd/aidl/android.hardware.wifi.hostapd-V1-ndk-source/gen/include/aidl/android/hardware/wifi/hostapd/IHostapdCallback.h"
  },
  {
   "function_name" : "aidl::android::hardware::wifi::hostapd::IHostapdCallback::~IHostapdCallback",
   "linker_set_key" : "_ZN4aidl7android8hardware4wifi7hostapd16IHostapdCallbackD1Ev",
   "parameters" :
   [
    {
     "is_this_ptr" : true,
     "referenced_type" : "_ZTIPN4aidl7android8hardware4wifi7hostapd16IHostapdCallbackE"
    }
   ],
   "return_type" : "_ZTIv",
   "source_file" : "out/soong/.intermediates/hardware/interfaces/wifi/hostapd/aidl/android.hardware.wifi.hostapd-V1-ndk-source/gen/include/aidl/android/hardware/wifi/hostapd/IHostapdCallback.h"
  },
  {
   "function_name" : "aidl::android::hardware::wifi::hostapd::IHostapdCallback::~IHostapdCallback",
   "linker_set_key" : "_ZN4aidl7android8hardware4wifi7hostapd16IHostapdCallbackD2Ev",
   "parameters" :
   [
    {
     "is_this_ptr" : true,
     "referenced_type" : "_ZTIPN4aidl7android8hardware4wifi7hostapd16IHostapdCallbackE"
    }
   ],
   "return_type" : "_ZTIv",
   "source_file" : "out/soong/.intermediates/hardware/interfaces/wifi/hostapd/aidl/android.hardware.wifi.hostapd-V1-ndk-source/gen/include/aidl/android/hardware/wifi/hostapd/IHostapdCallback.h"
  },
  {
   "access" : "protected",
   "function_name" : "aidl::android::hardware::wifi::hostapd::BnHostapdCallback::createBinder",
   "linker_set_key" : "_ZN4aidl7android8hardware4wifi7hostapd17BnHostapdCallback12createBinderEv",
   "parameters" :
   [
    {
     "is_this_ptr" : true,
     "referenced_type" : "_ZTIPN4aidl7android8hardware4wifi7hostapd17BnHostapdCallbackE"
    }
   ],
   "return_type" : "_ZTIN3ndk10SpAIBinderE",
   "source_file" : "out/soong/.intermediates/hardware/interfaces/wifi/hostapd/aidl/android.hardware.wifi.hostapd-V1-ndk-source/gen/include/aidl/android/hardware/wifi/hostapd/BnHostapdCallback.h"
  },
  {
   "function_name" : "aidl::android::hardware::wifi::hostapd::BnHostapdCallback::getInterfaceHash",
   "linker_set_key" : "_ZN4aidl7android8hardware4wifi7hostapd17BnHostapdCallback16getInterfaceHashEPNSt3__112basic_stringIcNS5_11char_traitsIcEENS5_9allocatorIcEEEE",
   "parameters" :
   [
    {
     "is_this_ptr" : true,
     "referenced_type" : "_ZTIPN4aidl7android8hardware4wifi7hostapd17BnHostapdCallbackE"
    },
    {
     "referenced_type" : "_ZTIPNSt3__112basic_stringIcNS_11char_traitsIcEENS_9allocatorIcEEEE"
    }
   ],
   "return_type" : "_ZTIN3ndk13ScopedAStatusE",
   "source_file" : "out/soong/.intermediates/hardware/interfaces/wifi/hostapd/aidl/android.hardware.wifi.hostapd-V1-ndk-source/gen/include/aidl/android/hardware/wifi/hostapd/BnHostapdCallback.h"
  },
  {
   "function_name" : "aidl::android::hardware::wifi::hostapd::BnHostapdCallback::getInterfaceVersion",
   "linker_set_key" : "_ZN4aidl7android8hardware4wifi7hostapd17BnHostapdCallback19getInterfaceVersionEPi",
   "parameters" :
   [
    {
     "is_this_ptr" : true,
     "referenced_type" : "_ZTIPN4aidl7android8hardware4wifi7hostapd17BnHostapdCallbackE"
    },
    {
     "referenced_type" : "_ZTIPi"
    }
   ],
   "return_type" : "_ZTIN3ndk13ScopedAStatusE",
   "source_file" : "out/soong/.intermediates/hardware/interfaces/wifi/hostapd/aidl/android.hardware.wifi.hostapd-V1-ndk-source/gen/include/aidl/android/hardware/wifi/hostapd/BnHostapdCallback.h"
  },
  {
   "function_name" : "aidl::android::hardware::wifi::hostapd::BnHostapdCallback::BnHostapdCallback",
   "linker_set_key" : "_ZN4aidl7android8hardware4wifi7hostapd17BnHostapdCallbackC2Ev",
   "parameters" :
   [
    {
     "is_this_ptr" : true,
     "referenced_type" : "_ZTIPN4aidl7android8hardware4wifi7hostapd17BnHostapdCallbackE"
    }
   ],
   "return_type" : "_ZTIv",
   "source_file" : "out/soong/.intermediates/hardware/interfaces/wifi/hostapd/aidl/android.hardware.wifi.hostapd-V1-ndk-source/gen/include/aidl/android/hardware/wifi/hostapd/BnHostapdCallback.h"
  },
  {
   "function_name" : "aidl::android::hardware::wifi::hostapd::BnHostapdCallback::~BnHostapdCallback",
   "linker_set_key" : "_ZN4aidl7android8hardware4wifi7hostapd17BnHostapdCallbackD0Ev",
   "parameters" :
   [
    {
     "is_this_ptr" : true,
     "referenced_type" : "_ZTIPN4aidl7android8hardware4wifi7hostapd17BnHostapdCallbackE"
    }
   ],
   "return_type" : "_ZTIv",
   "source_file" : "out/soong/.intermediates/hardware/interfaces/wifi/hostapd/aidl/android.hardware.wifi.hostapd-V1-ndk-source/gen/include/aidl/android/hardware/wifi/hostapd/BnHostapdCallback.h"
  },
  {
   "function_name" : "aidl::android::hardware::wifi::hostapd::BnHostapdCallback::~BnHostapdCallback",
   "linker_set_key" : "_ZN4aidl7android8hardware4wifi7hostapd17BnHostapdCallbackD1Ev",
   "parameters" :
   [
    {
     "is_this_ptr" : true,
     "referenced_type" : "_ZTIPN4aidl7android8hardware4wifi7hostapd17BnHostapdCallbackE"
    }
   ],
   "return_type" : "_ZTIv",
   "source_file" : "out/soong/.intermediates/hardware/interfaces/wifi/hostapd/aidl/android.hardware.wifi.hostapd-V1-ndk-source/gen/include/aidl/android/hardware/wifi/hostapd/BnHostapdCallback.h"
  },
  {
   "function_name" : "aidl::android::hardware::wifi::hostapd::BnHostapdCallback::~BnHostapdCallback",
   "linker_set_key" : "_ZN4aidl7android8hardware4wifi7hostapd17BnHostapdCallbackD2Ev",
   "parameters" :
   [
    {
     "is_this_ptr" : true,
     "referenced_type" : "_ZTIPN4aidl7android8hardware4wifi7hostapd17BnHostapdCallbackE"
    }
   ],
   "return_type" : "_ZTIv",
   "source_file" : "out/soong/.intermediates/hardware/interfaces/wifi/hostapd/aidl/android.hardware.wifi.hostapd-V1-ndk-source/gen/include/aidl/android/hardware/wifi/hostapd/BnHostapdCallback.h"
  },
  {
   "function_name" : "aidl::android::hardware::wifi::hostapd::BpHostapdCallback::getInterfaceHash",
   "linker_set_key" : "_ZN4aidl7android8hardware4wifi7hostapd17BpHostapdCallback16getInterfaceHashEPNSt3__112basic_stringIcNS5_11char_traitsIcEENS5_9allocatorIcEEEE",
   "parameters" :
   [
    {
     "is_this_ptr" : true,
     "referenced_type" : "_ZTIPN4aidl7android8hardware4wifi7hostapd17BpHostapdCallbackE"
    },
    {
     "referenced_type" : "_ZTIPNSt3__112basic_stringIcNS_11char_traitsIcEENS_9allocatorIcEEEE"
    }
   ],
   "return_type" : "_ZTIN3ndk13ScopedAStatusE",
   "source_file" : "out/soong/.intermediates/hardware/interfaces/wifi/hostapd/aidl/android.hardware.wifi.hostapd-V1-ndk-source/gen/include/aidl/android/hardware/wifi/hostapd/BpHostapdCallback.h"
  },
  {
   "function_name" : "aidl::android::hardware::wifi::hostapd::BpHostapdCallback::getInterfaceVersion",
   "linker_set_key" : "_ZN4aidl7android8hardware4wifi7hostapd17BpHostapdCallback19getInterfaceVersionEPi",
   "parameters" :
   [
    {
     "is_this_ptr" : true,
     "referenced_type" : "_ZTIPN4aidl7android8hardware4wifi7hostapd17BpHostapdCallbackE"
    },
    {
     "referenced_type" : "_ZTIPi"
    }
   ],
   "return_type" : "_ZTIN3ndk13ScopedAStatusE",
   "source_file" : "out/soong/.intermediates/hardware/interfaces/wifi/hostapd/aidl/android.hardware.wifi.hostapd-V1-ndk-source/gen/include/aidl/android/hardware/wifi/hostapd/BpHostapdCallback.h"
  },
  {
   "function_name" : "aidl::android::hardware::wifi::hostapd::BpHostapdCallback::onApInstanceInfoChanged",
   "linker_set_key" : "_ZN4aidl7android8hardware4wifi7hostapd17BpHostapdCallback23onApInstanceInfoChangedERKNS3_6ApInfoE",
   "parameters" :
   [
    {
     "is_this_ptr" : true,
     "referenced_type" : "_ZTIPN4aidl7android8hardware4wifi7hostapd17BpHostapdCallbackE"
    },
    {
     "referenced_type" : "_ZTIRKN4aidl7android8hardware4wifi7hostapd6ApInfoE"
    }
   ],
   "return_type" : "_ZTIN3ndk13ScopedAStatusE",
   "source_file" : "out/soong/.intermediates/hardware/interfaces/wifi/hostapd/aidl/android.hardware.wifi.hostapd-V1-ndk-source/gen/include/aidl/android/hardware/wifi/hostapd/BpHostapdCallback.h"
  },
  {
   "function_name" : "aidl::android::hardware::wifi::hostapd::BpHostapdCallback::onConnectedClientsChanged",
   "linker_set_key" : "_ZN4aidl7android8hardware4wifi7hostapd17BpHostapdCallback25onConnectedClientsChangedERKNS3_10ClientInfoE",
   "parameters" :
   [
    {
     "is_this_ptr" : true,
     "referenced_type" : "_ZTIPN4aidl7android8hardware4wifi7hostapd17BpHostapdCallbackE"
    },
    {
     "referenced_type" : "_ZTIRKN4aidl7android8hardware4wifi7hostapd10ClientInfoE"
    }
   ],
   "return_type" : "_ZTIN3ndk13ScopedAStatusE",
   "source_file" : "out/soong/.intermediates/hardware/interfaces/wifi/hostapd/aidl/android.hardware.wifi.hostapd-V1-ndk-source/gen/include/aidl/android/hardware/wifi/hostapd/BpHostapdCallback.h"
  },
  {
   "function_name" : "aidl::android::hardware::wifi::hostapd::BpHostapdCallback::onFailure",
   "linker_set_key" : "_ZN4aidl7android8hardware4wifi7hostapd17BpHostapdCallback9onFailureERKNSt3__112basic_stringIcNS5_11char_traitsIcEENS5_9allocatorIcEEEESD_",
   "parameters" :
   [
    {
     "is_this_ptr" : true,
     "referenced_type" : "_ZTIPN4aidl7android8hardware4wifi7hostapd17BpHostapdCallbackE"
    },
    {
     "referenced_type" : "_ZTIRKNSt3__112basic_stringIcNS_11char_traitsIcEENS_9allocatorIcEEEE"
    },
    {
     "referenced_type" : "_ZTIRKNSt3__112basic_stringIcNS_11char_traitsIcEENS_9allocatorIcEEEE"
    }
   ],
   "return_type" : "_ZTIN3ndk13ScopedAStatusE",
   "source_file" : "out/soong/.intermediates/hardware/interfaces/wifi/hostapd/aidl/android.hardware.wifi.hostapd-V1-ndk-source/gen/include/aidl/android/hardware/wifi/hostapd/BpHostapdCallback.h"
  },
  {
   "function_name" : "aidl::android::hardware::wifi::hostapd::BpHostapdCallback::BpHostapdCallback",
   "linker_set_key" : "_ZN4aidl7android8hardware4wifi7hostapd17BpHostapdCallbackC1ERKN3ndk10SpAIBinderE",
   "parameters" :
   [
    {
     "is_this_ptr" : true,
     "referenced_type" : "_ZTIPN4aidl7android8hardware4wifi7hostapd17BpHostapdCallbackE"
    },
    {
     "referenced_type" : "_ZTIRKN3ndk10SpAIBinderE"
    }
   ],
   "return_type" : "_ZTIv",
   "source_file" : "out/soong/.intermediates/hardware/interfaces/wifi/hostapd/aidl/android.hardware.wifi.hostapd-V1-ndk-source/gen/include/aidl/android/hardware/wifi/hostapd/BpHostapdCallback.h"
  },
  {
   "function_name" : "aidl::android::hardware::wifi::hostapd::BpHostapdCallback::BpHostapdCallback",
   "linker_set_key" : "_ZN4aidl7android8hardware4wifi7hostapd17BpHostapdCallbackC2ERKN3ndk10SpAIBinderE",
   "parameters" :
   [
    {
     "is_this_ptr" : true,
     "referenced_type" : "_ZTIPN4aidl7android8hardware4wifi7hostapd17BpHostapdCallbackE"
    },
    {
     "referenced_type" : "_ZTIRKN3ndk10SpAIBinderE"
    }
   ],
   "return_type" : "_ZTIv",
   "source_file" : "out/soong/.intermediates/hardware/interfaces/wifi/hostapd/aidl/android.hardware.wifi.hostapd-V1-ndk-source/gen/include/aidl/android/hardware/wifi/hostapd/BpHostapdCallback.h"
  },
  {
   "function_name" : "aidl::android::hardware::wifi::hostapd::BpHostapdCallback::~BpHostapdCallback",
   "linker_set_key" : "_ZN4aidl7android8hardware4wifi7hostapd17BpHostapdCallbackD0Ev",
   "parameters" :
   [
    {
     "is_this_ptr" : true,
     "referenced_type" : "_ZTIPN4aidl7android8hardware4wifi7hostapd17BpHostapdCallbackE"
    }
   ],
   "return_type" : "_ZTIv",
   "source_file" : "out/soong/.intermediates/hardware/interfaces/wifi/hostapd/aidl/android.hardware.wifi.hostapd-V1-ndk-source/gen/include/aidl/android/hardware/wifi/hostapd/BpHostapdCallback.h"
  },
  {
   "function_name" : "aidl::android::hardware::wifi::hostapd::BpHostapdCallback::~BpHostapdCallback",
   "linker_set_key" : "_ZN4aidl7android8hardware4wifi7hostapd17BpHostapdCallbackD1Ev",
   "parameters" :
   [
    {
     "is_this_ptr" : true,
     "referenced_type" : "_ZTIPN4aidl7android8hardware4wifi7hostapd17BpHostapdCallbackE"
    }
   ],
   "return_type" : "_ZTIv",
   "source_file" : "out/soong/.intermediates/hardware/interfaces/wifi/hostapd/aidl/android.hardware.wifi.hostapd-V1-ndk-source/gen/include/aidl/android/hardware/wifi/hostapd/BpHostapdCallback.h"
  },
  {
   "function_name" : "aidl::android::hardware::wifi::hostapd::BpHostapdCallback::~BpHostapdCallback",
   "linker_set_key" : "_ZN4aidl7android8hardware4wifi7hostapd17BpHostapdCallbackD2Ev",
   "parameters" :
   [
    {
     "is_this_ptr" : true,
     "referenced_type" : "_ZTIPN4aidl7android8hardware4wifi7hostapd17BpHostapdCallbackE"
    }
   ],
   "return_type" : "_ZTIv",
   "source_file" : "out/soong/.intermediates/hardware/interfaces/wifi/hostapd/aidl/android.hardware.wifi.hostapd-V1-ndk-source/gen/include/aidl/android/hardware/wifi/hostapd/BpHostapdCallback.h"
  },
  {
   "function_name" : "aidl::android::hardware::wifi::hostapd::IHostapdCallbackDefault::getInterfaceHash",
   "linker_set_key" : "_ZN4aidl7android8hardware4wifi7hostapd23IHostapdCallbackDefault16getInterfaceHashEPNSt3__112basic_stringIcNS5_11char_traitsIcEENS5_9allocatorIcEEEE",
   "parameters" :
   [
    {
     "is_this_ptr" : true,
     "referenced_type" : "_ZTIPN4aidl7android8hardware4wifi7hostapd23IHostapdCallbackDefaultE"
    },
    {
     "referenced_type" : "_ZTIPNSt3__112basic_stringIcNS_11char_traitsIcEENS_9allocatorIcEEEE"
    }
   ],
   "return_type" : "_ZTIN3ndk13ScopedAStatusE",
   "source_file" : "out/soong/.intermediates/hardware/interfaces/wifi/hostapd/aidl/android.hardware.wifi.hostapd-V1-ndk-source/gen/include/aidl/android/hardware/wifi/hostapd/IHostapdCallback.h"
  },
  {
   "function_name" : "aidl::android::hardware::wifi::hostapd::IHostapdCallbackDefault::getInterfaceVersion",
   "linker_set_key" : "_ZN4aidl7android8hardware4wifi7hostapd23IHostapdCallbackDefault19getInterfaceVersionEPi",
   "parameters" :
   [
    {
     "is_this_ptr" : true,
     "referenced_type" : "_ZTIPN4aidl7android8hardware4wifi7hostapd23IHostapdCallbackDefaultE"
    },
    {
     "referenced_type" : "_ZTIPi"
    }
   ],
   "return_type" : "_ZTIN3ndk13ScopedAStatusE",
   "source_file" : "out/soong/.intermediates/hardware/interfaces/wifi/hostapd/aidl/android.hardware.wifi.hostapd-V1-ndk-source/gen/include/aidl/android/hardware/wifi/hostapd/IHostapdCallback.h"
  },
  {
   "function_name" : "aidl::android::hardware::wifi::hostapd::IHostapdCallbackDefault::onApInstanceInfoChanged",
   "linker_set_key" : "_ZN4aidl7android8hardware4wifi7hostapd23IHostapdCallbackDefault23onApInstanceInfoChangedERKNS3_6ApInfoE",
   "parameters" :
   [
    {
     "is_this_ptr" : true,
     "referenced_type" : "_ZTIPN4aidl7android8hardware4wifi7hostapd23IHostapdCallbackDefaultE"
    },
    {
     "referenced_type" : "_ZTIRKN4aidl7android8hardware4wifi7hostapd6ApInfoE"
    }
   ],
   "return_type" : "_ZTIN3ndk13ScopedAStatusE",
   "source_file" : "out/soong/.intermediates/hardware/interfaces/wifi/hostapd/aidl/android.hardware.wifi.hostapd-V1-ndk-source/gen/include/aidl/android/hardware/wifi/hostapd/IHostapdCallback.h"
  },
  {
   "function_name" : "aidl::android::hardware::wifi::hostapd::IHostapdCallbackDefault::onConnectedClientsChanged",
   "linker_set_key" : "_ZN4aidl7android8hardware4wifi7hostapd23IHostapdCallbackDefault25onConnectedClientsChangedERKNS3_10ClientInfoE",
   "parameters" :
   [
    {
     "is_this_ptr" : true,
     "referenced_type" : "_ZTIPN4aidl7android8hardware4wifi7hostapd23IHostapdCallbackDefaultE"
    },
    {
     "referenced_type" : "_ZTIRKN4aidl7android8hardware4wifi7hostapd10ClientInfoE"
    }
   ],
   "return_type" : "_ZTIN3ndk13ScopedAStatusE",
   "source_file" : "out/soong/.intermediates/hardware/interfaces/wifi/hostapd/aidl/android.hardware.wifi.hostapd-V1-ndk-source/gen/include/aidl/android/hardware/wifi/hostapd/IHostapdCallback.h"
  },
  {
   "function_name" : "aidl::android::hardware::wifi::hostapd::IHostapdCallbackDefault::asBinder",
   "linker_set_key" : "_ZN4aidl7android8hardware4wifi7hostapd23IHostapdCallbackDefault8asBinderEv",
   "parameters" :
   [
    {
     "is_this_ptr" : true,
     "referenced_type" : "_ZTIPN4aidl7android8hardware4wifi7hostapd23IHostapdCallbackDefaultE"
    }
   ],
   "return_type" : "_ZTIN3ndk10SpAIBinderE",
   "source_file" : "out/soong/.intermediates/hardware/interfaces/wifi/hostapd/aidl/android.hardware.wifi.hostapd-V1-ndk-source/gen/include/aidl/android/hardware/wifi/hostapd/IHostapdCallback.h"
  },
  {
   "function_name" : "aidl::android::hardware::wifi::hostapd::IHostapdCallbackDefault::isRemote",
   "linker_set_key" : "_ZN4aidl7android8hardware4wifi7hostapd23IHostapdCallbackDefault8isRemoteEv",
   "parameters" :
   [
    {
     "is_this_ptr" : true,
     "referenced_type" : "_ZTIPN4aidl7android8hardware4wifi7hostapd23IHostapdCallbackDefaultE"
    }
   ],
   "return_type" : "_ZTIb",
   "source_file" : "out/soong/.intermediates/hardware/interfaces/wifi/hostapd/aidl/android.hardware.wifi.hostapd-V1-ndk-source/gen/include/aidl/android/hardware/wifi/hostapd/IHostapdCallback.h"
  },
  {
   "function_name" : "aidl::android::hardware::wifi::hostapd::IHostapdCallbackDefault::onFailure",
   "linker_set_key" : "_ZN4aidl7android8hardware4wifi7hostapd23IHostapdCallbackDefault9onFailureERKNSt3__112basic_stringIcNS5_11char_traitsIcEENS5_9allocatorIcEEEESD_",
   "parameters" :
   [
    {
     "is_this_ptr" : true,
     "referenced_type" : "_ZTIPN4aidl7android8hardware4wifi7hostapd23IHostapdCallbackDefaultE"
    },
    {
     "referenced_type" : "_ZTIRKNSt3__112basic_stringIcNS_11char_traitsIcEENS_9allocatorIcEEEE"
    },
    {
     "referenced_type" : "_ZTIRKNSt3__112basic_stringIcNS_11char_traitsIcEENS_9allocatorIcEEEE"
    }
   ],
   "return_type" : "_ZTIN3ndk13ScopedAStatusE",
   "source_file" : "out/soong/.intermediates/hardware/interfaces/wifi/hostapd/aidl/android.hardware.wifi.hostapd-V1-ndk-source/gen/include/aidl/android/hardware/wifi/hostapd/IHostapdCallback.h"
  },
  {
   "function_name" : "aidl::android::hardware::wifi::hostapd::ApInfo::readFromParcel",
   "linker_set_key" : "_ZN4aidl7android8hardware4wifi7hostapd6ApInfo14readFromParcelEPK7AParcel",
   "parameters" :
   [
    {
     "is_this_ptr" : true,
     "referenced_type" : "_ZTIPN4aidl7android8hardware4wifi7hostapd6ApInfoE"
    },
    {
     "referenced_type" : "_ZTIPK7AParcel"
    }
   ],
   "return_type" : "_ZTIi",
   "source_file" : "out/soong/.intermediates/hardware/interfaces/wifi/hostapd/aidl/android.hardware.wifi.hostapd-V1-ndk-source/gen/include/aidl/android/hardware/wifi/hostapd/ApInfo.h"
  },
  {
   "function_name" : "aidl::android::hardware::wifi::hostapd::IHostapd::fromBinder",
   "linker_set_key" : "_ZN4aidl7android8hardware4wifi7hostapd8IHostapd10fromBinderERKN3ndk10SpAIBinderE",
   "parameters" :
   [
    {
     "referenced_type" : "_ZTIRKN3ndk10SpAIBinderE"
    }
   ],
   "return_type" : "_ZTINSt3__110shared_ptrIN4aidl7android8hardware4wifi7hostapd8IHostapdEEE",
   "source_file" : "out/soong/.intermediates/hardware/interfaces/wifi/hostapd/aidl/android.hardware.wifi.hostapd-V1-ndk-source/gen/include/aidl/android/hardware/wifi/hostapd/IHostapd.h"
  },
  {
   "function_name" : "aidl::android::hardware::wifi::hostapd::IHostapd::writeToParcel",
   "linker_set_key" : "_ZN4aidl7android8hardware4wifi7hostapd8IHostapd13writeToParcelEP7AParcelRKNSt3__110shared_ptrIS4_EE",
   "parameters" :
   [
    {
     "referenced_type" : "_ZTIP7AParcel"
    },
    {
     "referenced_type" : "_ZTIRKNSt3__110shared_ptrIN4aidl7android8hardware4wifi7hostapd8IHostapdEEE"
    }
   ],
   "return_type" : "_ZTIi",
   "source_file" : "out/soong/.intermediates/hardware/interfaces/wifi/hostapd/aidl/android.hardware.wifi.hostapd-V1-ndk-source/gen/include/aidl/android/hardware/wifi/hostapd/IHostapd.h"
  },
  {
   "function_name" : "aidl::android::hardware::wifi::hostapd::IHostapd::getDefaultImpl",
   "linker_set_key" : "_ZN4aidl7android8hardware4wifi7hostapd8IHostapd14getDefaultImplEv",
   "return_type" : "_ZTIRKNSt3__110shared_ptrIN4aidl7android8hardware4wifi7hostapd8IHostapdEEE",
   "source_file" : "out/soong/.intermediates/hardware/interfaces/wifi/hostapd/aidl/android.hardware.wifi.hostapd-V1-ndk-source/gen/include/aidl/android/hardware/wifi/hostapd/IHostapd.h"
  },
  {
   "function_name" : "aidl::android::hardware::wifi::hostapd::IHostapd::readFromParcel",
   "linker_set_key" : "_ZN4aidl7android8hardware4wifi7hostapd8IHostapd14readFromParcelEPK7AParcelPNSt3__110shared_ptrIS4_EE",
   "parameters" :
   [
    {
     "referenced_type" : "_ZTIPK7AParcel"
    },
    {
     "referenced_type" : "_ZTIPNSt3__110shared_ptrIN4aidl7android8hardware4wifi7hostapd8IHostapdEEE"
    }
   ],
   "return_type" : "_ZTIi",
   "source_file" : "out/soong/.intermediates/hardware/interfaces/wifi/hostapd/aidl/android.hardware.wifi.hostapd-V1-ndk-source/gen/include/aidl/android/hardware/wifi/hostapd/IHostapd.h"
  },
  {
   "function_name" : "aidl::android::hardware::wifi::hostapd::IHostapd::setDefaultImpl",
   "linker_set_key" : "_ZN4aidl7android8hardware4wifi7hostapd8IHostapd14setDefaultImplERKNSt3__110shared_ptrIS4_EE",
   "parameters" :
   [
    {
     "referenced_type" : "_ZTIRKNSt3__110shared_ptrIN4aidl7android8hardware4wifi7hostapd8IHostapdEEE"
    }
   ],
   "return_type" : "_ZTIb",
   "source_file" : "out/soong/.intermediates/hardware/interfaces/wifi/hostapd/aidl/android.hardware.wifi.hostapd-V1-ndk-source/gen/include/aidl/android/hardware/wifi/hostapd/IHostapd.h"
  },
  {
   "function_name" : "aidl::android::hardware::wifi::hostapd::IHostapd::IHostapd",
   "linker_set_key" : "_ZN4aidl7android8hardware4wifi7hostapd8IHostapdC2Ev",
   "parameters" :
   [
    {
     "is_this_ptr" : true,
     "referenced_type" : "_ZTIPN4aidl7android8hardware4wifi7hostapd8IHostapdE"
    }
   ],
   "return_type" : "_ZTIv",
   "source_file" : "out/soong/.intermediates/hardware/interfaces/wifi/hostapd/aidl/android.hardware.wifi.hostapd-V1-ndk-source/gen/include/aidl/android/hardware/wifi/hostapd/IHostapd.h"
  },
  {
   "function_name" : "aidl::android::hardware::wifi::hostapd::IHostapd::~IHostapd",
   "linker_set_key" : "_ZN4aidl7android8hardware4wifi7hostapd8IHostapdD0Ev",
   "parameters" :
   [
    {
     "is_this_ptr" : true,
     "referenced_type" : "_ZTIPN4aidl7android8hardware4wifi7hostapd8IHostapdE"
    }
   ],
   "return_type" : "_ZTIv",
   "source_file" : "out/soong/.intermediates/hardware/interfaces/wifi/hostapd/aidl/android.hardware.wifi.hostapd-V1-ndk-source/gen/include/aidl/android/hardware/wifi/hostapd/IHostapd.h"
  },
  {
   "function_name" : "aidl::android::hardware::wifi::hostapd::IHostapd::~IHostapd",
   "linker_set_key" : "_ZN4aidl7android8hardware4wifi7hostapd8IHostapdD1Ev",
   "parameters" :
   [
    {
     "is_this_ptr" : true,
     "referenced_type" : "_ZTIPN4aidl7android8hardware4wifi7hostapd8IHostapdE"
    }
   ],
   "return_type" : "_ZTIv",
   "source_file" : "out/soong/.intermediates/hardware/interfaces/wifi/hostapd/aidl/android.hardware.wifi.hostapd-V1-ndk-source/gen/include/aidl/android/hardware/wifi/hostapd/IHostapd.h"
  },
  {
   "function_name" : "aidl::android::hardware::wifi::hostapd::IHostapd::~IHostapd",
   "linker_set_key" : "_ZN4aidl7android8hardware4wifi7hostapd8IHostapdD2Ev",
   "parameters" :
   [
    {
     "is_this_ptr" : true,
     "referenced_type" : "_ZTIPN4aidl7android8hardware4wifi7hostapd8IHostapdE"
    }
   ],
   "return_type" : "_ZTIv",
   "source_file" : "out/soong/.intermediates/hardware/interfaces/wifi/hostapd/aidl/android.hardware.wifi.hostapd-V1-ndk-source/gen/include/aidl/android/hardware/wifi/hostapd/IHostapd.h"
  },
  {
   "access" : "protected",
   "function_name" : "aidl::android::hardware::wifi::hostapd::BnHostapd::createBinder",
   "linker_set_key" : "_ZN4aidl7android8hardware4wifi7hostapd9BnHostapd12createBinderEv",
   "parameters" :
   [
    {
     "is_this_ptr" : true,
     "referenced_type" : "_ZTIPN4aidl7android8hardware4wifi7hostapd9BnHostapdE"
    }
   ],
   "return_type" : "_ZTIN3ndk10SpAIBinderE",
   "source_file" : "out/soong/.intermediates/hardware/interfaces/wifi/hostapd/aidl/android.hardware.wifi.hostapd-V1-ndk-source/gen/include/aidl/android/hardware/wifi/hostapd/BnHostapd.h"
  },
  {
   "function_name" : "aidl::android::hardware::wifi::hostapd::BnHostapd::getInterfaceHash",
   "linker_set_key" : "_ZN4aidl7android8hardware4wifi7hostapd9BnHostapd16getInterfaceHashEPNSt3__112basic_stringIcNS5_11char_traitsIcEENS5_9allocatorIcEEEE",
   "parameters" :
   [
    {
     "is_this_ptr" : true,
     "referenced_type" : "_ZTIPN4aidl7android8hardware4wifi7hostapd9BnHostapdE"
    },
    {
     "referenced_type" : "_ZTIPNSt3__112basic_stringIcNS_11char_traitsIcEENS_9allocatorIcEEEE"
    }
   ],
   "return_type" : "_ZTIN3ndk13ScopedAStatusE",
   "source_file" : "out/soong/.intermediates/hardware/interfaces/wifi/hostapd/aidl/android.hardware.wifi.hostapd-V1-ndk-source/gen/include/aidl/android/hardware/wifi/hostapd/BnHostapd.h"
  },
  {
   "function_name" : "aidl::android::hardware::wifi::hostapd::BnHostapd::getInterfaceVersion",
   "linker_set_key" : "_ZN4aidl7android8hardware4wifi7hostapd9BnHostapd19getInterfaceVersionEPi",
   "parameters" :
   [
    {
     "is_this_ptr" : true,
     "referenced_type" : "_ZTIPN4aidl7android8hardware4wifi7hostapd9BnHostapdE"
    },
    {
     "referenced_type" : "_ZTIPi"
    }
   ],
   "return_type" : "_ZTIN3ndk13ScopedAStatusE",
   "source_file" : "out/soong/.intermediates/hardware/interfaces/wifi/hostapd/aidl/android.hardware.wifi.hostapd-V1-ndk-source/gen/include/aidl/android/hardware/wifi/hostapd/BnHostapd.h"
  },
  {
   "function_name" : "aidl::android::hardware::wifi::hostapd::BnHostapd::BnHostapd",
   "linker_set_key" : "_ZN4aidl7android8hardware4wifi7hostapd9BnHostapdC2Ev",
   "parameters" :
   [
    {
     "is_this_ptr" : true,
     "referenced_type" : "_ZTIPN4aidl7android8hardware4wifi7hostapd9BnHostapdE"
    }
   ],
   "return_type" : "_ZTIv",
   "source_file" : "out/soong/.intermediates/hardware/interfaces/wifi/hostapd/aidl/android.hardware.wifi.hostapd-V1-ndk-source/gen/include/aidl/android/hardware/wifi/hostapd/BnHostapd.h"
  },
  {
   "function_name" : "aidl::android::hardware::wifi::hostapd::BnHostapd::~BnHostapd",
   "linker_set_key" : "_ZN4aidl7android8hardware4wifi7hostapd9BnHostapdD0Ev",
   "parameters" :
   [
    {
     "is_this_ptr" : true,
     "referenced_type" : "_ZTIPN4aidl7android8hardware4wifi7hostapd9BnHostapdE"
    }
   ],
   "return_type" : "_ZTIv",
   "source_file" : "out/soong/.intermediates/hardware/interfaces/wifi/hostapd/aidl/android.hardware.wifi.hostapd-V1-ndk-source/gen/include/aidl/android/hardware/wifi/hostapd/BnHostapd.h"
  },
  {
   "function_name" : "aidl::android::hardware::wifi::hostapd::BnHostapd::~BnHostapd",
   "linker_set_key" : "_ZN4aidl7android8hardware4wifi7hostapd9BnHostapdD1Ev",
   "parameters" :
   [
    {
     "is_this_ptr" : true,
     "referenced_type" : "_ZTIPN4aidl7android8hardware4wifi7hostapd9BnHostapdE"
    }
   ],
   "return_type" : "_ZTIv",
   "source_file" : "out/soong/.intermediates/hardware/interfaces/wifi/hostapd/aidl/android.hardware.wifi.hostapd-V1-ndk-source/gen/include/aidl/android/hardware/wifi/hostapd/BnHostapd.h"
  },
  {
   "function_name" : "aidl::android::hardware::wifi::hostapd::BnHostapd::~BnHostapd",
   "linker_set_key" : "_ZN4aidl7android8hardware4wifi7hostapd9BnHostapdD2Ev",
   "parameters" :
   [
    {
     "is_this_ptr" : true,
     "referenced_type" : "_ZTIPN4aidl7android8hardware4wifi7hostapd9BnHostapdE"
    }
   ],
   "return_type" : "_ZTIv",
   "source_file" : "out/soong/.intermediates/hardware/interfaces/wifi/hostapd/aidl/android.hardware.wifi.hostapd-V1-ndk-source/gen/include/aidl/android/hardware/wifi/hostapd/BnHostapd.h"
  },
  {
   "function_name" : "aidl::android::hardware::wifi::hostapd::BpHostapd::addAccessPoint",
   "linker_set_key" : "_ZN4aidl7android8hardware4wifi7hostapd9BpHostapd14addAccessPointERKNS3_11IfaceParamsERKNS3_13NetworkParamsE",
   "parameters" :
   [
    {
     "is_this_ptr" : true,
     "referenced_type" : "_ZTIPN4aidl7android8hardware4wifi7hostapd9BpHostapdE"
    },
    {
     "referenced_type" : "_ZTIRKN4aidl7android8hardware4wifi7hostapd11IfaceParamsE"
    },
    {
     "referenced_type" : "_ZTIRKN4aidl7android8hardware4wifi7hostapd13NetworkParamsE"
    }
   ],
   "return_type" : "_ZTIN3ndk13ScopedAStatusE",
   "source_file" : "out/soong/.intermediates/hardware/interfaces/wifi/hostapd/aidl/android.hardware.wifi.hostapd-V1-ndk-source/gen/include/aidl/android/hardware/wifi/hostapd/BpHostapd.h"
  },
  {
   "function_name" : "aidl::android::hardware::wifi::hostapd::BpHostapd::setDebugParams",
   "linker_set_key" : "_ZN4aidl7android8hardware4wifi7hostapd9BpHostapd14setDebugParamsENS3_10DebugLevelE",
   "parameters" :
   [
    {
     "is_this_ptr" : true,
     "referenced_type" : "_ZTIPN4aidl7android8hardware4wifi7hostapd9BpHostapdE"
    },
    {
     "referenced_type" : "_ZTIN4aidl7android8hardware4wifi7hostapd10DebugLevelE"
    }
   ],
   "return_type" : "_ZTIN3ndk13ScopedAStatusE",
   "source_file" : "out/soong/.intermediates/hardware/interfaces/wifi/hostapd/aidl/android.hardware.wifi.hostapd-V1-ndk-source/gen/include/aidl/android/hardware/wifi/hostapd/BpHostapd.h"
  },
  {
   "function_name" : "aidl::android::hardware::wifi::hostapd::BpHostapd::getInterfaceHash",
   "linker_set_key" : "_ZN4aidl7android8hardware4wifi7hostapd9BpHostapd16getInterfaceHashEPNSt3__112basic_stringIcNS5_11char_traitsIcEENS5_9allocatorIcEEEE",
   "parameters" :
   [
    {
     "is_this_ptr" : true,
     "referenced_type" : "_ZTIPN4aidl7android8hardware4wifi7hostapd9BpHostapdE"
    },
    {
     "referenced_type" : "_ZTIPNSt3__112basic_stringIcNS_11char_traitsIcEENS_9allocatorIcEEEE"
    }
   ],
   "return_type" : "_ZTIN3ndk13ScopedAStatusE",
   "source_file" : "out/soong/.intermediates/hardware/interfaces/wifi/hostapd/aidl/android.hardware.wifi.hostapd-V1-ndk-source/gen/include/aidl/android/hardware/wifi/hostapd/BpHostapd.h"
  },
  {
   "function_name" : "aidl::android::hardware::wifi::hostapd::BpHostapd::registerCallback",
   "linker_set_key" : "_ZN4aidl7android8hardware4wifi7hostapd9BpHostapd16registerCallbackERKNSt3__110shared_ptrINS3_16IHostapdCallbackEEE",
   "parameters" :
   [
    {
     "is_this_ptr" : true,
     "referenced_type" : "_ZTIPN4aidl7android8hardware4wifi7hostapd9BpHostapdE"
    },
    {
     "referenced_type" : "_ZTIRKNSt3__110shared_ptrIN4aidl7android8hardware4wifi7hostapd16IHostapdCallbackEEE"
    }
   ],
   "return_type" : "_ZTIN3ndk13ScopedAStatusE",
   "source_file" : "out/soong/.intermediates/hardware/interfaces/wifi/hostapd/aidl/android.hardware.wifi.hostapd-V1-ndk-source/gen/include/aidl/android/hardware/wifi/hostapd/BpHostapd.h"
  },
  {
   "function_name" : "aidl::android::hardware::wifi::hostapd::BpHostapd::removeAccessPoint",
   "linker_set_key" : "_ZN4aidl7android8hardware4wifi7hostapd9BpHostapd17removeAccessPointERKNSt3__112basic_stringIcNS5_11char_traitsIcEENS5_9allocatorIcEEEE",
   "parameters" :
   [
    {
     "is_this_ptr" : true,
     "referenced_type" : "_ZTIPN4aidl7android8hardware4wifi7hostapd9BpHostapdE"
    },
    {
     "referenced_type" : "_ZTIRKNSt3__112basic_stringIcNS_11char_traitsIcEENS_9allocatorIcEEEE"
    }
   ],
   "return_type" : "_ZTIN3ndk13ScopedAStatusE",
   "source_file" : "out/soong/.intermediates/hardware/interfaces/wifi/hostapd/aidl/android.hardware.wifi.hostapd-V1-ndk-source/gen/include/aidl/android/hardware/wifi/hostapd/BpHostapd.h"
  },
  {
   "function_name" : "aidl::android::hardware::wifi::hostapd::BpHostapd::getInterfaceVersion",
   "linker_set_key" : "_ZN4aidl7android8hardware4wifi7hostapd9BpHostapd19getInterfaceVersionEPi",
   "parameters" :
   [
    {
     "is_this_ptr" : true,
     "referenced_type" : "_ZTIPN4aidl7android8hardware4wifi7hostapd9BpHostapdE"
    },
    {
     "referenced_type" : "_ZTIPi"
    }
   ],
   "return_type" : "_ZTIN3ndk13ScopedAStatusE",
   "source_file" : "out/soong/.intermediates/hardware/interfaces/wifi/hostapd/aidl/android.hardware.wifi.hostapd-V1-ndk-source/gen/include/aidl/android/hardware/wifi/hostapd/BpHostapd.h"
  },
  {
   "function_name" : "aidl::android::hardware::wifi::hostapd::BpHostapd::forceClientDisconnect",
   "linker_set_key" : "_ZN4aidl7android8hardware4wifi7hostapd9BpHostapd21forceClientDisconnectERKNSt3__112basic_stringIcNS5_11char_traitsIcEENS5_9allocatorIcEEEERKNS5_6vectorIhNS9_IhEEEENS3_19Ieee80211ReasonCodeE",
   "parameters" :
   [
    {
     "is_this_ptr" : true,
     "referenced_type" : "_ZTIPN4aidl7android8hardware4wifi7hostapd9BpHostapdE"
    },
    {
     "referenced_type" : "_ZTIRKNSt3__112basic_stringIcNS_11char_traitsIcEENS_9allocatorIcEEEE"
    },
    {
     "referenced_type" : "_ZTIRKNSt3__16vectorIhNS_9allocatorIhEEEE"
    },
    {
     "referenced_type" : "_ZTIN4aidl7android8hardware4wifi7hostapd19Ieee80211ReasonCodeE"
    }
   ],
   "return_type" : "_ZTIN3ndk13ScopedAStatusE",
   "source_file" : "out/soong/.intermediates/hardware/interfaces/wifi/hostapd/aidl/android.hardware.wifi.hostapd-V1-ndk-source/gen/include/aidl/android/hardware/wifi/hostapd/BpHostapd.h"
  },
  {
   "function_name" : "aidl::android::hardware::wifi::hostapd::BpHostapd::terminate",
   "linker_set_key" : "_ZN4aidl7android8hardware4wifi7hostapd9BpHostapd9terminateEv",
   "parameters" :
   [
    {
     "is_this_ptr" : true,
     "referenced_type" : "_ZTIPN4aidl7android8hardware4wifi7hostapd9BpHostapdE"
    }
   ],
   "return_type" : "_ZTIN3ndk13ScopedAStatusE",
   "source_file" : "out/soong/.intermediates/hardware/interfaces/wifi/hostapd/aidl/android.hardware.wifi.hostapd-V1-ndk-source/gen/include/aidl/android/hardware/wifi/hostapd/BpHostapd.h"
  },
  {
   "function_name" : "aidl::android::hardware::wifi::hostapd::BpHostapd::BpHostapd",
   "linker_set_key" : "_ZN4aidl7android8hardware4wifi7hostapd9BpHostapdC1ERKN3ndk10SpAIBinderE",
   "parameters" :
   [
    {
     "is_this_ptr" : true,
     "referenced_type" : "_ZTIPN4aidl7android8hardware4wifi7hostapd9BpHostapdE"
    },
    {
     "referenced_type" : "_ZTIRKN3ndk10SpAIBinderE"
    }
   ],
   "return_type" : "_ZTIv",
   "source_file" : "out/soong/.intermediates/hardware/interfaces/wifi/hostapd/aidl/android.hardware.wifi.hostapd-V1-ndk-source/gen/include/aidl/android/hardware/wifi/hostapd/BpHostapd.h"
  },
  {
   "function_name" : "aidl::android::hardware::wifi::hostapd::BpHostapd::BpHostapd",
   "linker_set_key" : "_ZN4aidl7android8hardware4wifi7hostapd9BpHostapdC2ERKN3ndk10SpAIBinderE",
   "parameters" :
   [
    {
     "is_this_ptr" : true,
     "referenced_type" : "_ZTIPN4aidl7android8hardware4wifi7hostapd9BpHostapdE"
    },
    {
     "referenced_type" : "_ZTIRKN3ndk10SpAIBinderE"
    }
   ],
   "return_type" : "_ZTIv",
   "source_file" : "out/soong/.intermediates/hardware/interfaces/wifi/hostapd/aidl/android.hardware.wifi.hostapd-V1-ndk-source/gen/include/aidl/android/hardware/wifi/hostapd/BpHostapd.h"
  },
  {
   "function_name" : "aidl::android::hardware::wifi::hostapd::BpHostapd::~BpHostapd",
   "linker_set_key" : "_ZN4aidl7android8hardware4wifi7hostapd9BpHostapdD0Ev",
   "parameters" :
   [
    {
     "is_this_ptr" : true,
     "referenced_type" : "_ZTIPN4aidl7android8hardware4wifi7hostapd9BpHostapdE"
    }
   ],
   "return_type" : "_ZTIv",
   "source_file" : "out/soong/.intermediates/hardware/interfaces/wifi/hostapd/aidl/android.hardware.wifi.hostapd-V1-ndk-source/gen/include/aidl/android/hardware/wifi/hostapd/BpHostapd.h"
  },
  {
   "function_name" : "aidl::android::hardware::wifi::hostapd::BpHostapd::~BpHostapd",
   "linker_set_key" : "_ZN4aidl7android8hardware4wifi7hostapd9BpHostapdD1Ev",
   "parameters" :
   [
    {
     "is_this_ptr" : true,
     "referenced_type" : "_ZTIPN4aidl7android8hardware4wifi7hostapd9BpHostapdE"
    }
   ],
   "return_type" : "_ZTIv",
   "source_file" : "out/soong/.intermediates/hardware/interfaces/wifi/hostapd/aidl/android.hardware.wifi.hostapd-V1-ndk-source/gen/include/aidl/android/hardware/wifi/hostapd/BpHostapd.h"
  },
  {
   "function_name" : "aidl::android::hardware::wifi::hostapd::BpHostapd::~BpHostapd",
   "linker_set_key" : "_ZN4aidl7android8hardware4wifi7hostapd9BpHostapdD2Ev",
   "parameters" :
   [
    {
     "is_this_ptr" : true,
     "referenced_type" : "_ZTIPN4aidl7android8hardware4wifi7hostapd9BpHostapdE"
    }
   ],
   "return_type" : "_ZTIv",
   "source_file" : "out/soong/.intermediates/hardware/interfaces/wifi/hostapd/aidl/android.hardware.wifi.hostapd-V1-ndk-source/gen/include/aidl/android/hardware/wifi/hostapd/BpHostapd.h"
  },
  {
   "function_name" : "aidl::android::hardware::wifi::hostapd::ClientInfo::writeToParcel",
   "linker_set_key" : "_ZNK4aidl7android8hardware4wifi7hostapd10ClientInfo13writeToParcelEP7AParcel",
   "parameters" :
   [
    {
     "is_this_ptr" : true,
     "referenced_type" : "_ZTIPKN4aidl7android8hardware4wifi7hostapd10ClientInfoE"
    },
    {
     "referenced_type" : "_ZTIP7AParcel"
    }
   ],
   "return_type" : "_ZTIi",
   "source_file" : "out/soong/.intermediates/hardware/interfaces/wifi/hostapd/aidl/android.hardware.wifi.hostapd-V1-ndk-source/gen/include/aidl/android/hardware/wifi/hostapd/ClientInfo.h"
  },
  {
   "function_name" : "aidl::android::hardware::wifi::hostapd::IfaceParams::writeToParcel",
   "linker_set_key" : "_ZNK4aidl7android8hardware4wifi7hostapd11IfaceParams13writeToParcelEP7AParcel",
   "parameters" :
   [
    {
     "is_this_ptr" : true,
     "referenced_type" : "_ZTIPKN4aidl7android8hardware4wifi7hostapd11IfaceParamsE"
    },
    {
     "referenced_type" : "_ZTIP7AParcel"
    }
   ],
   "return_type" : "_ZTIi",
   "source_file" : "out/soong/.intermediates/hardware/interfaces/wifi/hostapd/aidl/android.hardware.wifi.hostapd-V1-ndk-source/gen/include/aidl/android/hardware/wifi/hostapd/IfaceParams.h"
  },
  {
   "function_name" : "aidl::android::hardware::wifi::hostapd::HwModeParams::writeToParcel",
   "linker_set_key" : "_ZNK4aidl7android8hardware4wifi7hostapd12HwModeParams13writeToParcelEP7AParcel",
   "parameters" :
   [
    {
     "is_this_ptr" : true,
     "referenced_type" : "_ZTIPKN4aidl7android8hardware4wifi7hostapd12HwModeParamsE"
    },
    {
     "referenced_type" : "_ZTIP7AParcel"
    }
   ],
   "return_type" : "_ZTIi",
   "source_file" : "out/soong/.intermediates/hardware/interfaces/wifi/hostapd/aidl/android.hardware.wifi.hostapd-V1-ndk-source/gen/include/aidl/android/hardware/wifi/hostapd/HwModeParams.h"
  },
  {
   "function_name" : "aidl::android::hardware::wifi::hostapd::ChannelParams::writeToParcel",
   "linker_set_key" : "_ZNK4aidl7android8hardware4wifi7hostapd13ChannelParams13writeToParcelEP7AParcel",
   "parameters" :
   [
    {
     "is_this_ptr" : true,
     "referenced_type" : "_ZTIPKN4aidl7android8hardware4wifi7hostapd13ChannelParamsE"
    },
    {
     "referenced_type" : "_ZTIP7AParcel"
    }
   ],
   "return_type" : "_ZTIi",
   "source_file" : "out/soong/.intermediates/hardware/interfaces/wifi/hostapd/aidl/android.hardware.wifi.hostapd-V1-ndk-source/gen/include/aidl/android/hardware/wifi/hostapd/ChannelParams.h"
  },
  {
   "function_name" : "aidl::android::hardware::wifi::hostapd::NetworkParams::writeToParcel",
   "linker_set_key" : "_ZNK4aidl7android8hardware4wifi7hostapd13NetworkParams13writeToParcelEP7AParcel",
   "parameters" :
   [
    {
     "is_this_ptr" : true,
     "referenced_type" : "_ZTIPKN4aidl7android8hardware4wifi7hostapd13NetworkParamsE"
    },
    {
     "referenced_type" : "_ZTIP7AParcel"
    }
   ],
   "return_type" : "_ZTIi",
   "source_file" : "out/soong/.intermediates/hardware/interfaces/wifi/hostapd/aidl/android.hardware.wifi.hostapd-V1-ndk-source/gen/include/aidl/android/hardware/wifi/hostapd/NetworkParams.h"
  },
  {
   "function_name" : "aidl::android::hardware::wifi::hostapd::FrequencyRange::writeToParcel",
   "linker_set_key" : "_ZNK4aidl7android8hardware4wifi7hostapd14FrequencyRange13writeToParcelEP7AParcel",
   "parameters" :
   [
    {
     "is_this_ptr" : true,
     "referenced_type" : "_ZTIPKN4aidl7android8hardware4wifi7hostapd14FrequencyRangeE"
    },
    {
     "referenced_type" : "_ZTIP7AParcel"
    }
   ],
   "return_type" : "_ZTIi",
   "source_file" : "out/soong/.intermediates/hardware/interfaces/wifi/hostapd/aidl/android.hardware.wifi.hostapd-V1-ndk-source/gen/include/aidl/android/hardware/wifi/hostapd/FrequencyRange.h"
  },
  {
   "function_name" : "aidl::android::hardware::wifi::hostapd::ApInfo::writeToParcel",
   "linker_set_key" : "_ZNK4aidl7android8hardware4wifi7hostapd6ApInfo13writeToParcelEP7AParcel",
   "parameters" :
   [
    {
     "is_this_ptr" : true,
     "referenced_type" : "_ZTIPKN4aidl7android8hardware4wifi7hostapd6ApInfoE"
    },
    {
     "referenced_type" : "_ZTIP7AParcel"
    }
   ],
   "return_type" : "_ZTIi",
   "source_file" : "out/soong/.intermediates/hardware/interfaces/wifi/hostapd/aidl/android.hardware.wifi.hostapd-V1-ndk-source/gen/include/aidl/android/hardware/wifi/hostapd/ApInfo.h"
  }
 ],
 "global_vars" :
 [
  {
   "linker_set_key" : "_ZN4aidl7android8hardware4wifi7hostapd10ClientInfo10descriptorE",
   "name" : "aidl::android::hardware::wifi::hostapd::ClientInfo::descriptor",
   "referenced_type" : "_ZTIPKc",
   "source_file" : "out/soong/.intermediates/hardware/interfaces/wifi/hostapd/aidl/android.hardware.wifi.hostapd-V1-ndk-source/gen/include/aidl/android/hardware/wifi/hostapd/ClientInfo.h"
  },
  {
   "linker_set_key" : "_ZN4aidl7android8hardware4wifi7hostapd11IfaceParams10descriptorE",
   "name" : "aidl::android::hardware::wifi::hostapd::IfaceParams::descriptor",
   "referenced_type" : "_ZTIPKc",
   "source_file" : "out/soong/.intermediates/hardware/interfaces/wifi/hostapd/aidl/android.hardware.wifi.hostapd-V1-ndk-source/gen/include/aidl/android/hardware/wifi/hostapd/IfaceParams.h"
  },
  {
   "linker_set_key" : "_ZN4aidl7android8hardware4wifi7hostapd12HwModeParams10descriptorE",
   "name" : "aidl::android::hardware::wifi::hostapd::HwModeParams::descriptor",
   "referenced_type" : "_ZTIPKc",
   "source_file" : "out/soong/.intermediates/hardware/interfaces/wifi/hostapd/aidl/android.hardware.wifi.hostapd-V1-ndk-source/gen/include/aidl/android/hardware/wifi/hostapd/HwModeParams.h"
  },
  {
   "linker_set_key" : "_ZN4aidl7android8hardware4wifi7hostapd13ChannelParams10descriptorE",
   "name" : "aidl::android::hardware::wifi::hostapd::ChannelParams::descriptor",
   "referenced_type" : "_ZTIPKc",
   "source_file" : "out/soong/.intermediates/hardware/interfaces/wifi/hostapd/aidl/android.hardware.wifi.hostapd-V1-ndk-source/gen/include/aidl/android/hardware/wifi/hostapd/ChannelParams.h"
  },
  {
   "linker_set_key" : "_ZN4aidl7android8hardware4wifi7hostapd13NetworkParams10descriptorE",
   "name" : "aidl::android::hardware::wifi::hostapd::NetworkParams::descriptor",
   "referenced_type" : "_ZTIPKc",
   "source_file" : "out/soong/.intermediates/hardware/interfaces/wifi/hostapd/aidl/android.hardware.wifi.hostapd-V1-ndk-source/gen/include/aidl/android/hardware/wifi/hostapd/NetworkParams.h"
  },
  {
   "linker_set_key" : "_ZN4aidl7android8hardware4wifi7hostapd14FrequencyRange10descriptorE",
   "name" : "aidl::android::hardware::wifi::hostapd::FrequencyRange::descriptor",
   "referenced_type" : "_ZTIPKc",
   "source_file" : "out/soong/.intermediates/hardware/interfaces/wifi/hostapd/aidl/android.hardware.wifi.hostapd-V1-ndk-source/gen/include/aidl/android/hardware/wifi/hostapd/FrequencyRange.h"
  },
  {
   "linker_set_key" : "_ZN4aidl7android8hardware4wifi7hostapd16IHostapdCallback10descriptorE",
   "name" : "aidl::android::hardware::wifi::hostapd::IHostapdCallback::descriptor",
   "referenced_type" : "_ZTIPKc",
   "source_file" : "out/soong/.intermediates/hardware/interfaces/wifi/hostapd/aidl/android.hardware.wifi.hostapd-V1-ndk-source/gen/include/aidl/android/hardware/wifi/hostapd/IHostapdCallback.h"
  },
  {
   "access" : "private",
   "linker_set_key" : "_ZN4aidl7android8hardware4wifi7hostapd16IHostapdCallback12default_implE",
   "name" : "aidl::android::hardware::wifi::hostapd::IHostapdCallback::default_impl",
   "referenced_type" : "_ZTINSt3__110shared_ptrIN4aidl7android8hardware4wifi7hostapd16IHostapdCallbackEEE",
   "source_file" : "out/soong/.intermediates/hardware/interfaces/wifi/hostapd/aidl/android.hardware.wifi.hostapd-V1-ndk-source/gen/include/aidl/android/hardware/wifi/hostapd/IHostapdCallback.h"
  },
  {
   "linker_set_key" : "_ZN4aidl7android8hardware4wifi7hostapd16IHostapdCallback4hashE",
   "name" : "aidl::android::hardware::wifi::hostapd::IHostapdCallback::hash",
   "referenced_type" : "_ZTIKNSt3__112basic_stringIcNS_11char_traitsIcEENS_9allocatorIcEEEE",
   "source_file" : "out/soong/.intermediates/hardware/interfaces/wifi/hostapd/aidl/android.hardware.wifi.hostapd-V1-ndk-source/gen/include/aidl/android/hardware/wifi/hostapd/IHostapdCallback.h"
  },
  {
   "linker_set_key" : "_ZN4aidl7android8hardware4wifi7hostapd6ApInfo10descriptorE",
   "name" : "aidl::android::hardware::wifi::hostapd::ApInfo::descriptor",
   "referenced_type" : "_ZTIPKc",
   "source_file" : "out/soong/.intermediates/hardware/interfaces/wifi/hostapd/aidl/android.hardware.wifi.hostapd-V1-ndk-source/gen/include/aidl/android/hardware/wifi/hostapd/ApInfo.h"
  },
  {
   "linker_set_key" : "_ZN4aidl7android8hardware4wifi7hostapd8IHostapd10descriptorE",
   "name" : "aidl::android::hardware::wifi::hostapd::IHostapd::descriptor",
   "referenced_type" : "_ZTIPKc",
   "source_file" : "out/soong/.intermediates/hardware/interfaces/wifi/hostapd/aidl/android.hardware.wifi.hostapd-V1-ndk-source/gen/include/aidl/android/hardware/wifi/hostapd/IHostapd.h"
  },
  {
   "access" : "private",
   "linker_set_key" : "_ZN4aidl7android8hardware4wifi7hostapd8IHostapd12default_implE",
   "name" : "aidl::android::hardware::wifi::hostapd::IHostapd::default_impl",
   "referenced_type" : "_ZTINSt3__110shared_ptrIN4aidl7android8hardware4wifi7hostapd8IHostapdEEE",
   "source_file" : "out/soong/.intermediates/hardware/interfaces/wifi/hostapd/aidl/android.hardware.wifi.hostapd-V1-ndk-source/gen/include/aidl/android/hardware/wifi/hostapd/IHostapd.h"
  },
  {
   "linker_set_key" : "_ZN4aidl7android8hardware4wifi7hostapd8IHostapd4hashE",
   "name" : "aidl::android::hardware::wifi::hostapd::IHostapd::hash",
   "referenced_type" : "_ZTIKNSt3__112basic_stringIcNS_11char_traitsIcEENS_9allocatorIcEEEE",
   "source_file" : "out/soong/.intermediates/hardware/interfaces/wifi/hostapd/aidl/android.hardware.wifi.hostapd-V1-ndk-source/gen/include/aidl/android/hardware/wifi/hostapd/IHostapd.h"
  }
 ],
 "lvalue_reference_types" :
 [
  {
   "alignment" : 4,
   "linker_set_key" : "_ZTIRKN3ndk10SpAIBinderE",
   "name" : "const ndk::SpAIBinder &",
   "referenced_type" : "_ZTIKN3ndk10SpAIBinderE",
   "self_type" : "_ZTIRKN3ndk10SpAIBinderE",
   "size" : 4,
   "source_file" : "frameworks/native/libs/binder/ndk/include_cpp/android/binder_auto_utils.h"
  },
  {
   "alignment" : 4,
   "linker_set_key" : "_ZTIRKN3ndk13ScopedAParcelE",
   "name" : "const ndk::ScopedAParcel &",
   "referenced_type" : "_ZTIKN3ndk13ScopedAParcelE",
   "self_type" : "_ZTIRKN3ndk13ScopedAParcelE",
   "size" : 4,
   "source_file" : "frameworks/native/libs/binder/ndk/include_cpp/android/binder_auto_utils.h"
  },
  {
   "alignment" : 4,
   "linker_set_key" : "_ZTIRKN3ndk17AParcelableHolderE",
   "name" : "const ndk::AParcelableHolder &",
   "referenced_type" : "_ZTIKN3ndk17AParcelableHolderE",
   "self_type" : "_ZTIRKN3ndk17AParcelableHolderE",
   "size" : 4,
   "source_file" : "frameworks/native/libs/binder/ndk/include_cpp/android/binder_parcelable_utils.h"
  },
  {
   "alignment" : 4,
   "linker_set_key" : "_ZTIRKN3ndk20ScopedFileDescriptorE",
   "name" : "const ndk::ScopedFileDescriptor &",
   "referenced_type" : "_ZTIKN3ndk20ScopedFileDescriptorE",
   "self_type" : "_ZTIRKN3ndk20ScopedFileDescriptorE",
   "size" : 4,
   "source_file" : "frameworks/native/libs/binder/ndk/include_cpp/android/binder_auto_utils.h"
  },
  {
   "alignment" : 4,
   "linker_set_key" : "_ZTIRKN4aidl7android8hardware4wifi7hostapd10ClientInfoE",
   "name" : "const aidl::android::hardware::wifi::hostapd::ClientInfo &",
   "referenced_type" : "_ZTIKN4aidl7android8hardware4wifi7hostapd10ClientInfoE",
   "self_type" : "_ZTIRKN4aidl7android8hardware4wifi7hostapd10ClientInfoE",
   "size" : 4,
   "source_file" : "out/soong/.intermediates/hardware/interfaces/wifi/hostapd/aidl/android.hardware.wifi.hostapd-V1-ndk-source/gen/include/aidl/android/hardware/wifi/hostapd/ClientInfo.h"
  },
  {
   "alignment" : 4,
   "linker_set_key" : "_ZTIRKN4aidl7android8hardware4wifi7hostapd10GenerationE",
   "name" : "const aidl::android::hardware::wifi::hostapd::Generation &",
   "referenced_type" : "_ZTIKN4aidl7android8hardware4wifi7hostapd10GenerationE",
   "self_type" : "_ZTIRKN4aidl7android8hardware4wifi7hostapd10GenerationE",
   "size" : 4,
   "source_file" : "frameworks/native/libs/binder/ndk/include_cpp/android/binder_to_string.h"
  },
  {
   "alignment" : 4,
   "linker_set_key" : "_ZTIRKN4aidl7android8hardware4wifi7hostapd11IfaceParamsE",
   "name" : "const aidl::android::hardware::wifi::hostapd::IfaceParams &",
   "referenced_type" : "_ZTIKN4aidl7android8hardware4wifi7hostapd11IfaceParamsE",
   "self_type" : "_ZTIRKN4aidl7android8hardware4wifi7hostapd11IfaceParamsE",
   "size" : 4,
   "source_file" : "out/soong/.intermediates/hardware/interfaces/wifi/hostapd/aidl/android.hardware.wifi.hostapd-V1-ndk-source/gen/include/aidl/android/hardware/wifi/hostapd/IfaceParams.h"
  },
  {
   "alignment" : 4,
   "linker_set_key" : "_ZTIRKN4aidl7android8hardware4wifi7hostapd12HwModeParamsE",
   "name" : "const aidl::android::hardware::wifi::hostapd::HwModeParams &",
   "referenced_type" : "_ZTIKN4aidl7android8hardware4wifi7hostapd12HwModeParamsE",
   "self_type" : "_ZTIRKN4aidl7android8hardware4wifi7hostapd12HwModeParamsE",
   "size" : 4,
   "source_file" : "out/soong/.intermediates/hardware/interfaces/wifi/hostapd/aidl/android.hardware.wifi.hostapd-V1-ndk-source/gen/include/aidl/android/hardware/wifi/hostapd/HwModeParams.h"
  },
  {
   "alignment" : 4,
   "linker_set_key" : "_ZTIRKN4aidl7android8hardware4wifi7hostapd13ChannelParamsE",
   "name" : "const aidl::android::hardware::wifi::hostapd::ChannelParams &",
   "referenced_type" : "_ZTIKN4aidl7android8hardware4wifi7hostapd13ChannelParamsE",
   "self_type" : "_ZTIRKN4aidl7android8hardware4wifi7hostapd13ChannelParamsE",
   "size" : 4,
   "source_file" : "out/soong/.intermediates/hardware/interfaces/wifi/hostapd/aidl/android.hardware.wifi.hostapd-V1-ndk-source/gen/include/aidl/android/hardware/wifi/hostapd/ChannelParams.h"
  },
  {
   "alignment" : 4,
   "linker_set_key" : "_ZTIRKN4aidl7android8hardware4wifi7hostapd13NetworkParamsE",
   "name" : "const aidl::android::hardware::wifi::hostapd::NetworkParams &",
   "referenced_type" : "_ZTIKN4aidl7android8hardware4wifi7hostapd13NetworkParamsE",
   "self_type" : "_ZTIRKN4aidl7android8hardware4wifi7hostapd13NetworkParamsE",
   "size" : 4,
   "source_file" : "out/soong/.intermediates/hardware/interfaces/wifi/hostapd/aidl/android.hardware.wifi.hostapd-V1-ndk-source/gen/include/aidl/android/hardware/wifi/hostapd/NetworkParams.h"
  },
  {
   "alignment" : 4,
   "linker_set_key" : "_ZTIRKN4aidl7android8hardware4wifi7hostapd14EncryptionTypeE",
   "name" : "const aidl::android::hardware::wifi::hostapd::EncryptionType &",
   "referenced_type" : "_ZTIKN4aidl7android8hardware4wifi7hostapd14EncryptionTypeE",
   "self_type" : "_ZTIRKN4aidl7android8hardware4wifi7hostapd14EncryptionTypeE",
   "size" : 4,
   "source_file" : "frameworks/native/libs/binder/ndk/include_cpp/android/binder_to_string.h"
  },
  {
   "alignment" : 4,
   "linker_set_key" : "_ZTIRKN4aidl7android8hardware4wifi7hostapd14FrequencyRangeE",
   "name" : "const aidl::android::hardware::wifi::hostapd::FrequencyRange &",
   "referenced_type" : "_ZTIKN4aidl7android8hardware4wifi7hostapd14FrequencyRangeE",
   "self_type" : "_ZTIRKN4aidl7android8hardware4wifi7hostapd14FrequencyRangeE",
   "size" : 4,
   "source_file" : "frameworks/native/libs/binder/ndk/include_cpp/android/binder_to_string.h"
  },
  {
   "alignment" : 4,
   "linker_set_key" : "_ZTIRKN4aidl7android8hardware4wifi7hostapd16ChannelBandwidthE",
   "name" : "const aidl::android::hardware::wifi::hostapd::ChannelBandwidth &",
   "referenced_type" : "_ZTIKN4aidl7android8hardware4wifi7hostapd16ChannelBandwidthE",
   "self_type" : "_ZTIRKN4aidl7android8hardware4wifi7hostapd16ChannelBandwidthE",
   "size" : 4,
   "source_file" : "frameworks/native/libs/binder/ndk/include_cpp/android/binder_to_string.h"
  },
  {
   "alignment" : 4,
   "linker_set_key" : "_ZTIRKN4aidl7android8hardware4wifi7hostapd6ApInfoE",
   "name" : "const aidl::android::hardware::wifi::hostapd::ApInfo &",
   "referenced_type" : "_ZTIKN4aidl7android8hardware4wifi7hostapd6ApInfoE",
   "self_type" : "_ZTIRKN4aidl7android8hardware4wifi7hostapd6ApInfoE",
   "size" : 4,
   "source_file" : "out/soong/.intermediates/hardware/interfaces/wifi/hostapd/aidl/android.hardware.wifi.hostapd-V1-ndk-source/gen/include/aidl/android/hardware/wifi/hostapd/ApInfo.h"
  },
  {
   "alignment" : 4,
   "linker_set_key" : "_ZTIRKN4aidl7android8hardware4wifi7hostapd8BandMaskE",
   "name" : "const aidl::android::hardware::wifi::hostapd::BandMask &",
   "referenced_type" : "_ZTIKN4aidl7android8hardware4wifi7hostapd8BandMaskE",
   "self_type" : "_ZTIRKN4aidl7android8hardware4wifi7hostapd8BandMaskE",
   "size" : 4,
   "source_file" : "frameworks/native/libs/binder/ndk/include_cpp/android/binder_to_string.h"
  },
  {
   "alignment" : 4,
   "linker_set_key" : "_ZTIRKNSt3__110shared_ptrIN4aidl7android8hardware4wifi7hostapd16IHostapdCallbackEEE",
   "name" : "const std::shared_ptr<aidl::android::hardware::wifi::hostapd::IHostapdCallback> &",
   "referenced_type" : "_ZTIKNSt3__110shared_ptrIN4aidl7android8hardware4wifi7hostapd16IHostapdCallbackEEE",
   "self_type" : "_ZTIRKNSt3__110shared_ptrIN4aidl7android8hardware4wifi7hostapd16IHostapdCallbackEEE",
   "size" : 4,
   "source_file" : "out/soong/.intermediates/hardware/interfaces/wifi/hostapd/aidl/android.hardware.wifi.hostapd-V1-ndk-source/gen/include/aidl/android/hardware/wifi/hostapd/IHostapd.h"
  },
  {
   "alignment" : 4,
   "linker_set_key" : "_ZTIRKNSt3__110shared_ptrIN4aidl7android8hardware4wifi7hostapd8IHostapdEEE",
   "name" : "const std::shared_ptr<aidl::android::hardware::wifi::hostapd::IHostapd> &",
   "referenced_type" : "_ZTIKNSt3__110shared_ptrIN4aidl7android8hardware4wifi7hostapd8IHostapdEEE",
   "self_type" : "_ZTIRKNSt3__110shared_ptrIN4aidl7android8hardware4wifi7hostapd8IHostapdEEE",
   "size" : 4,
   "source_file" : "out/soong/.intermediates/hardware/interfaces/wifi/hostapd/aidl/android.hardware.wifi.hostapd-V1-ndk-source/gen/include/aidl/android/hardware/wifi/hostapd/IHostapd.h"
  },
  {
   "alignment" : 4,
   "linker_set_key" : "_ZTIRKNSt3__112basic_stringIcNS_11char_traitsIcEENS_9allocatorIcEEEE",
   "name" : "const std::basic_string<char, std::char_traits<char>, std::allocator<char>> &",
   "referenced_type" : "_ZTIKNSt3__112basic_stringIcNS_11char_traitsIcEENS_9allocatorIcEEEE",
   "self_type" : "_ZTIRKNSt3__112basic_stringIcNS_11char_traitsIcEENS_9allocatorIcEEEE",
   "size" : 4,
   "source_file" : "frameworks/native/libs/binder/ndk/include_cpp/android/binder_to_string.h"
  },
  {
   "alignment" : 4,
   "linker_set_key" : "_ZTIRKNSt3__16vectorIDsNS_9allocatorIDsEEEE",
   "name" : "const std::vector<char16_t, std::allocator<char16_t>> &",
   "referenced_type" : "_ZTIKNSt3__16vectorIDsNS_9allocatorIDsEEEE",
   "self_type" : "_ZTIRKNSt3__16vectorIDsNS_9allocatorIDsEEEE",
   "size" : 4,
   "source_file" : "frameworks/native/libs/binder/ndk/include_cpp/android/binder_parcel_utils.h"
  },
  {
   "alignment" : 4,
   "linker_set_key" : "_ZTIRKNSt3__16vectorIN4aidl7android8hardware4wifi7hostapd13ChannelParamsENS_9allocatorIS6_EEEE",
   "name" : "const std::vector<aidl::android::hardware::wifi::hostapd::ChannelParams, std::allocator<aidl::android::hardware::wifi::hostapd::ChannelParams>> &",
   "referenced_type" : "_ZTIKNSt3__16vectorIN4aidl7android8hardware4wifi7hostapd13ChannelParamsENS_9allocatorIS6_EEEE",
   "self_type" : "_ZTIRKNSt3__16vectorIN4aidl7android8hardware4wifi7hostapd13ChannelParamsENS_9allocatorIS6_EEEE",
   "size" : 4,
   "source_file" : "frameworks/native/libs/binder/ndk/include_cpp/android/binder_to_string.h"
  },
  {
   "alignment" : 4,
   "linker_set_key" : "_ZTIRKNSt3__16vectorIN4aidl7android8hardware4wifi7hostapd14FrequencyRangeENS_9allocatorIS6_EEEE",
   "name" : "const std::vector<aidl::android::hardware::wifi::hostapd::FrequencyRange, std::allocator<aidl::android::hardware::wifi::hostapd::FrequencyRange>> &",
   "referenced_type" : "_ZTIKNSt3__16vectorIN4aidl7android8hardware4wifi7hostapd14FrequencyRangeENS_9allocatorIS6_EEEE",
   "self_type" : "_ZTIRKNSt3__16vectorIN4aidl7android8hardware4wifi7hostapd14FrequencyRangeENS_9allocatorIS6_EEEE",
   "size" : 4,
   "source_file" : "frameworks/native/libs/binder/ndk/include_cpp/android/binder_to_string.h"
  },
  {
   "alignment" : 4,
   "linker_set_key" : "_ZTIRKNSt3__16vectorIbNS_9allocatorIbEEEE",
   "name" : "const std::vector<bool, std::allocator<bool>> &",
   "referenced_type" : "_ZTIKNSt3__16vectorIbNS_9allocatorIbEEEE",
   "self_type" : "_ZTIRKNSt3__16vectorIbNS_9allocatorIbEEEE",
   "size" : 4,
   "source_file" : "frameworks/native/libs/binder/ndk/include_cpp/android/binder_parcel_utils.h"
  },
  {
   "alignment" : 4,
   "linker_set_key" : "_ZTIRKNSt3__16vectorIdNS_9allocatorIdEEEE",
   "name" : "const std::vector<double, std::allocator<double>> &",
   "referenced_type" : "_ZTIKNSt3__16vectorIdNS_9allocatorIdEEEE",
   "self_type" : "_ZTIRKNSt3__16vectorIdNS_9allocatorIdEEEE",
   "size" : 4,
   "source_file" : "frameworks/native/libs/binder/ndk/include_cpp/android/binder_parcel_utils.h"
  },
  {
   "alignment" : 4,
   "linker_set_key" : "_ZTIRKNSt3__16vectorIfNS_9allocatorIfEEEE",
   "name" : "const std::vector<float, std::allocator<float>> &",
   "referenced_type" : "_ZTIKNSt3__16vectorIfNS_9allocatorIfEEEE",
   "self_type" : "_ZTIRKNSt3__16vectorIfNS_9allocatorIfEEEE",
   "size" : 4,
   "source_file" : "frameworks/native/libs/binder/ndk/include_cpp/android/binder_parcel_utils.h"
  },
  {
   "alignment" : 4,
   "linker_set_key" : "_ZTIRKNSt3__16vectorIhNS_9allocatorIhEEEE",
   "name" : "const std::vector<unsigned char, std::allocator<unsigned char>> &",
   "referenced_type" : "_ZTIKNSt3__16vectorIhNS_9allocatorIhEEEE",
   "self_type" : "_ZTIRKNSt3__16vectorIhNS_9allocatorIhEEEE",
   "size" : 4,
   "source_file" : "frameworks/native/libs/binder/ndk/include_cpp/android/binder_parcel_utils.h"
  },
  {
   "alignment" : 4,
   "linker_set_key" : "_ZTIRKNSt3__16vectorIiNS_9allocatorIiEEEE",
   "name" : "const std::vector<int, std::allocator<int>> &",
   "referenced_type" : "_ZTIKNSt3__16vectorIiNS_9allocatorIiEEEE",
   "self_type" : "_ZTIRKNSt3__16vectorIiNS_9allocatorIiEEEE",
   "size" : 4,
   "source_file" : "frameworks/native/libs/binder/ndk/include_cpp/android/binder_parcel_utils.h"
  },
  {
   "alignment" : 4,
   "linker_set_key" : "_ZTIRKNSt3__16vectorIjNS_9allocatorIjEEEE",
   "name" : "const std::vector<unsigned int, std::allocator<unsigned int>> &",
   "referenced_type" : "_ZTIKNSt3__16vectorIjNS_9allocatorIjEEEE",
   "self_type" : "_ZTIRKNSt3__16vectorIjNS_9allocatorIjEEEE",
   "size" : 4,
   "source_file" : "frameworks/native/libs/binder/ndk/include_cpp/android/binder_parcel_utils.h"
  },
  {
   "alignment" : 4,
   "linker_set_key" : "_ZTIRKNSt3__16vectorIxNS_9allocatorIxEEEE",
   "name" : "const std::vector<long long, std::allocator<long long>> &",
   "referenced_type" : "_ZTIKNSt3__16vectorIxNS_9allocatorIxEEEE",
   "self_type" : "_ZTIRKNSt3__16vectorIxNS_9allocatorIxEEEE",
   "size" : 4,
   "source_file" : "frameworks/native/libs/binder/ndk/include_cpp/android/binder_parcel_utils.h"
  },
  {
   "alignment" : 4,
   "linker_set_key" : "_ZTIRKNSt3__16vectorIyNS_9allocatorIyEEEE",
   "name" : "const std::vector<unsigned long long, std::allocator<unsigned long long>> &",
   "referenced_type" : "_ZTIKNSt3__16vectorIyNS_9allocatorIyEEEE",
   "self_type" : "_ZTIRKNSt3__16vectorIyNS_9allocatorIyEEEE",
   "size" : 4,
   "source_file" : "frameworks/native/libs/binder/ndk/include_cpp/android/binder_parcel_utils.h"
  },
  {
   "alignment" : 4,
   "linker_set_key" : "_ZTIRKNSt3__18optionalINS_6vectorIDsNS_9allocatorIDsEEEEEE",
   "name" : "const std::optional<std::vector<char16_t, std::allocator<char16_t>>> &",
   "referenced_type" : "_ZTIKNSt3__18optionalINS_6vectorIDsNS_9allocatorIDsEEEEEE",
   "self_type" : "_ZTIRKNSt3__18optionalINS_6vectorIDsNS_9allocatorIDsEEEEEE",
   "size" : 4,
   "source_file" : "frameworks/native/libs/binder/ndk/include_cpp/android/binder_parcel_utils.h"
  },
  {
   "alignment" : 4,
   "linker_set_key" : "_ZTIRKNSt3__18optionalINS_6vectorIbNS_9allocatorIbEEEEEE",
   "name" : "const std::optional<std::vector<bool, std::allocator<bool>>> &",
   "referenced_type" : "_ZTIKNSt3__18optionalINS_6vectorIbNS_9allocatorIbEEEEEE",
   "self_type" : "_ZTIRKNSt3__18optionalINS_6vectorIbNS_9allocatorIbEEEEEE",
   "size" : 4,
   "source_file" : "frameworks/native/libs/binder/ndk/include_cpp/android/binder_parcel_utils.h"
  },
  {
   "alignment" : 4,
   "linker_set_key" : "_ZTIRKNSt3__18optionalINS_6vectorIdNS_9allocatorIdEEEEEE",
   "name" : "const std::optional<std::vector<double, std::allocator<double>>> &",
   "referenced_type" : "_ZTIKNSt3__18optionalINS_6vectorIdNS_9allocatorIdEEEEEE",
   "self_type" : "_ZTIRKNSt3__18optionalINS_6vectorIdNS_9allocatorIdEEEEEE",
   "size" : 4,
   "source_file" : "frameworks/native/libs/binder/ndk/include_cpp/android/binder_parcel_utils.h"
  },
  {
   "alignment" : 4,
   "linker_set_key" : "_ZTIRKNSt3__18optionalINS_6vectorIfNS_9allocatorIfEEEEEE",
   "name" : "const std::optional<std::vector<float, std::allocator<float>>> &",
   "referenced_type" : "_ZTIKNSt3__18optionalINS_6vectorIfNS_9allocatorIfEEEEEE",
   "self_type" : "_ZTIRKNSt3__18optionalINS_6vectorIfNS_9allocatorIfEEEEEE",
   "size" : 4,
   "source_file" : "frameworks/native/libs/binder/ndk/include_cpp/android/binder_parcel_utils.h"
  },
  {
   "alignment" : 4,
   "linker_set_key" : "_ZTIRKNSt3__18optionalINS_6vectorIhNS_9allocatorIhEEEEEE",
   "name" : "const std::optional<std::vector<unsigned char, std::allocator<unsigned char>>> &",
   "referenced_type" : "_ZTIKNSt3__18optionalINS_6vectorIhNS_9allocatorIhEEEEEE",
   "self_type" : "_ZTIRKNSt3__18optionalINS_6vectorIhNS_9allocatorIhEEEEEE",
   "size" : 4,
   "source_file" : "frameworks/native/libs/binder/ndk/include_cpp/android/binder_parcel_utils.h"
  },
  {
   "alignment" : 4,
   "linker_set_key" : "_ZTIRKNSt3__18optionalINS_6vectorIiNS_9allocatorIiEEEEEE",
   "name" : "const std::optional<std::vector<int, std::allocator<int>>> &",
   "referenced_type" : "_ZTIKNSt3__18optionalINS_6vectorIiNS_9allocatorIiEEEEEE",
   "self_type" : "_ZTIRKNSt3__18optionalINS_6vectorIiNS_9allocatorIiEEEEEE",
   "size" : 4,
   "source_file" : "frameworks/native/libs/binder/ndk/include_cpp/android/binder_parcel_utils.h"
  },
  {
   "alignment" : 4,
   "linker_set_key" : "_ZTIRKNSt3__18optionalINS_6vectorIjNS_9allocatorIjEEEEEE",
   "name" : "const std::optional<std::vector<unsigned int, std::allocator<unsigned int>>> &",
   "referenced_type" : "_ZTIKNSt3__18optionalINS_6vectorIjNS_9allocatorIjEEEEEE",
   "self_type" : "_ZTIRKNSt3__18optionalINS_6vectorIjNS_9allocatorIjEEEEEE",
   "size" : 4,
   "source_file" : "frameworks/native/libs/binder/ndk/include_cpp/android/binder_parcel_utils.h"
  },
  {
   "alignment" : 4,
   "linker_set_key" : "_ZTIRKNSt3__18optionalINS_6vectorIxNS_9allocatorIxEEEEEE",
   "name" : "const std::optional<std::vector<long long, std::allocator<long long>>> &",
   "referenced_type" : "_ZTIKNSt3__18optionalINS_6vectorIxNS_9allocatorIxEEEEEE",
   "self_type" : "_ZTIRKNSt3__18optionalINS_6vectorIxNS_9allocatorIxEEEEEE",
   "size" : 4,
   "source_file" : "frameworks/native/libs/binder/ndk/include_cpp/android/binder_parcel_utils.h"
  },
  {
   "alignment" : 4,
   "linker_set_key" : "_ZTIRKNSt3__18optionalINS_6vectorIyNS_9allocatorIyEEEEEE",
   "name" : "const std::optional<std::vector<unsigned long long, std::allocator<unsigned long long>>> &",
   "referenced_type" : "_ZTIKNSt3__18optionalINS_6vectorIyNS_9allocatorIyEEEEEE",
   "self_type" : "_ZTIRKNSt3__18optionalINS_6vectorIyNS_9allocatorIyEEEEEE",
   "size" : 4,
   "source_file" : "frameworks/native/libs/binder/ndk/include_cpp/android/binder_parcel_utils.h"
  },
  {
   "alignment" : 4,
   "linker_set_key" : "_ZTIRKb",
   "name" : "const bool &",
   "referenced_type" : "_ZTIKb",
   "self_type" : "_ZTIRKb",
   "size" : 4,
   "source_file" : "frameworks/native/libs/binder/ndk/include_cpp/android/binder_to_string.h"
  },
  {
   "alignment" : 4,
   "linker_set_key" : "_ZTIRKh",
   "name" : "const unsigned char &",
   "referenced_type" : "_ZTIKh",
   "self_type" : "_ZTIRKh",
   "size" : 4,
   "source_file" : "frameworks/native/libs/binder/ndk/include_cpp/android/binder_to_string.h"
  },
  {
   "alignment" : 4,
   "linker_set_key" : "_ZTIRKi",
   "name" : "const int &",
   "referenced_type" : "_ZTIKi",
   "self_type" : "_ZTIRKi",
   "size" : 4,
   "source_file" : "frameworks/native/libs/binder/ndk/include_cpp/android/binder_to_string.h"
  },
  {
   "alignment" : 4,
   "linker_set_key" : "_ZTIRN3ndk10SpAIBinderE",
   "name" : "ndk::SpAIBinder &",
   "referenced_type" : "_ZTIN3ndk10SpAIBinderE",
   "self_type" : "_ZTIRN3ndk10SpAIBinderE",
   "size" : 4,
   "source_file" : "frameworks/native/libs/binder/ndk/include_cpp/android/binder_auto_utils.h"
  },
  {
   "alignment" : 4,
   "linker_set_key" : "_ZTIRN3ndk13ScopedAParcelE",
   "name" : "ndk::ScopedAParcel &",
   "referenced_type" : "_ZTIN3ndk13ScopedAParcelE",
   "self_type" : "_ZTIRN3ndk13ScopedAParcelE",
   "size" : 4,
   "source_file" : "frameworks/native/libs/binder/ndk/include_cpp/android/binder_auto_utils.h"
  },
  {
   "alignment" : 4,
   "linker_set_key" : "_ZTIRN3ndk13ScopedAStatusE",
   "name" : "ndk::ScopedAStatus &",
   "referenced_type" : "_ZTIN3ndk13ScopedAStatusE",
   "self_type" : "_ZTIRN3ndk13ScopedAStatusE",
   "size" : 4,
   "source_file" : "frameworks/native/libs/binder/ndk/include_cpp/android/binder_auto_utils.h"
  },
  {
   "alignment" : 4,
   "linker_set_key" : "_ZTIRN3ndk19ScopedAIBinder_WeakE",
   "name" : "ndk::ScopedAIBinder_Weak &",
   "referenced_type" : "_ZTIN3ndk19ScopedAIBinder_WeakE",
   "self_type" : "_ZTIRN3ndk19ScopedAIBinder_WeakE",
   "size" : 4,
   "source_file" : "frameworks/native/libs/binder/ndk/include_cpp/android/binder_auto_utils.h"
  },
  {
   "alignment" : 4,
   "linker_set_key" : "_ZTIRN3ndk20ScopedFileDescriptorE",
   "name" : "ndk::ScopedFileDescriptor &",
   "referenced_type" : "_ZTIN3ndk20ScopedFileDescriptorE",
   "self_type" : "_ZTIRN3ndk20ScopedFileDescriptorE",
   "size" : 4,
   "source_file" : "frameworks/native/libs/binder/ndk/include_cpp/android/binder_auto_utils.h"
  },
  {
   "alignment" : 4,
   "linker_set_key" : "_ZTIRN3ndk29ScopedAIBinder_DeathRecipientE",
   "name" : "ndk::ScopedAIBinder_DeathRecipient &",
   "referenced_type" : "_ZTIN3ndk29ScopedAIBinder_DeathRecipientE",
   "self_type" : "_ZTIRN3ndk29ScopedAIBinder_DeathRecipientE",
   "size" : 4,
   "source_file" : "frameworks/native/libs/binder/ndk/include_cpp/android/binder_auto_utils.h"
  },
  {
   "alignment" : 4,
   "linker_set_key" : "_ZTIRN3ndk4impl15ScopedAResourceIP7AStatusXadL_Z14AStatus_deleteEELS3_0EEE",
   "name" : "ndk::impl::ScopedAResource<AStatus *, &AStatus_delete, nullptr> &",
   "referenced_type" : "_ZTIN3ndk4impl15ScopedAResourceIP7AStatusXadL_Z14AStatus_deleteEELS3_0EEE",
   "self_type" : "_ZTIRN3ndk4impl15ScopedAResourceIP7AStatusXadL_Z14AStatus_deleteEELS3_0EEE",
   "size" : 4,
   "source_file" : "frameworks/native/libs/binder/ndk/include_cpp/android/binder_auto_utils.h"
  }
 ],
 "pointer_types" :
 [
  {
   "alignment" : 4,
   "linker_set_key" : "_ZTIP13AIBinder_Weak",
   "name" : "AIBinder_Weak *",
   "referenced_type" : "_ZTI13AIBinder_Weak",
   "self_type" : "_ZTIP13AIBinder_Weak",
   "size" : 4,
   "source_file" : "frameworks/native/libs/binder/ndk/include_cpp/android/binder_auto_utils.h"
  },
  {
   "alignment" : 4,
   "linker_set_key" : "_ZTIP14AIBinder_Class",
   "name" : "AIBinder_Class *",
   "referenced_type" : "_ZTI14AIBinder_Class",
   "self_type" : "_ZTIP14AIBinder_Class",
   "size" : 4,
   "source_file" : "frameworks/native/libs/binder/ndk/include_cpp/android/binder_interface_utils.h"
  },
  {
   "alignment" : 4,
   "linker_set_key" : "_ZTIP23AIBinder_DeathRecipient",
   "name" : "AIBinder_DeathRecipient *",
   "referenced_type" : "_ZTI23AIBinder_DeathRecipient",
   "self_type" : "_ZTIP23AIBinder_DeathRecipient",
   "size" : 4,
   "source_file" : "frameworks/native/libs/binder/ndk/include_cpp/android/binder_auto_utils.h"
  },
  {
   "alignment" : 4,
   "linker_set_key" : "_ZTIP7AParcel",
   "name" : "AParcel *",
   "referenced_type" : "_ZTI7AParcel",
   "self_type" : "_ZTIP7AParcel",
   "size" : 4,
   "source_file" : "frameworks/native/libs/binder/ndk/include_cpp/android/binder_auto_utils.h"
  },
  {
   "alignment" : 4,
   "linker_set_key" : "_ZTIP7AStatus",
   "name" : "AStatus *",
   "referenced_type" : "_ZTI7AStatus",
   "self_type" : "_ZTIP7AStatus",
   "size" : 4,
   "source_file" : "frameworks/native/libs/binder/ndk/include_cpp/android/binder_auto_utils.h"
  },
  {
   "alignment" : 4,
   "linker_set_key" : "_ZTIP8AIBinder",
   "name" : "AIBinder *",
   "referenced_type" : "_ZTI8AIBinder",
   "self_type" : "_ZTIP8AIBinder",
   "size" : 4,
   "source_file" : "frameworks/native/libs/binder/ndk/include_cpp/android/binder_auto_utils.h"
  },
  {
   "alignment" : 4,
   "linker_set_key" : "_ZTIPFiP8AIBinderjPK7AParcelPS1_E",
   "name" : "int (*)(AIBinder *, unsigned int, const AParcel *, AParcel *)",
   "referenced_type" : "_ZTIFiP8AIBinderjPK7AParcelPS1_E",
   "self_type" : "_ZTIPFiP8AIBinderjPK7AParcelPS1_E",
   "size" : 4,
   "source_file" : "frameworks/native/libs/binder/ndk/include_cpp/android/binder_interface_utils.h"
  },
  {
   "alignment" : 4,
   "linker_set_key" : "_ZTIPK7AParcel",
   "name" : "const AParcel *",
   "referenced_type" : "_ZTIK7AParcel",
   "self_type" : "_ZTIPK7AParcel",
   "size" : 4,
   "source_file" : "frameworks/native/libs/binder/ndk/include_cpp/android/binder_interface_utils.h"
  },
  {
   "alignment" : 4,
   "linker_set_key" : "_ZTIPKN3ndk10SpAIBinderE",
   "name" : "const ndk::SpAIBinder *",
   "referenced_type" : "_ZTIKN3ndk10SpAIBinderE",
   "self_type" : "_ZTIPKN3ndk10SpAIBinderE",
   "size" : 4,
   "source_file" : "frameworks/native/libs/binder/ndk/include_cpp/android/binder_auto_utils.h"
  },
  {
   "alignment" : 4,
   "linker_set_key" : "_ZTIPKN3ndk13ScopedAParcelE",
   "name" : "const ndk::ScopedAParcel *",
   "referenced_type" : "_ZTIKN3ndk13ScopedAParcelE",
   "self_type" : "_ZTIPKN3ndk13ScopedAParcelE",
   "size" : 4,
   "source_file" : "frameworks/native/libs/binder/ndk/include_cpp/android/binder_auto_utils.h"
  },
  {
   "alignment" : 4,
   "linker_set_key" : "_ZTIPKN3ndk13ScopedAStatusE",
   "name" : "const ndk::ScopedAStatus *",
   "referenced_type" : "_ZTIKN3ndk13ScopedAStatusE",
   "self_type" : "_ZTIPKN3ndk13ScopedAStatusE",
   "size" : 4,
   "source_file" : "frameworks/native/libs/binder/ndk/include_cpp/android/binder_auto_utils.h"
  },
  {
   "alignment" : 4,
   "linker_set_key" : "_ZTIPKN3ndk17AParcelableHolderE",
   "name" : "const ndk::AParcelableHolder *",
   "referenced_type" : "_ZTIKN3ndk17AParcelableHolderE",
   "self_type" : "_ZTIPKN3ndk17AParcelableHolderE",
   "size" : 4,
   "source_file" : "frameworks/native/libs/binder/ndk/include_cpp/android/binder_parcelable_utils.h"
  },
  {
   "alignment" : 4,
   "linker_set_key" : "_ZTIPKN3ndk20ScopedFileDescriptorE",
   "name" : "const ndk::ScopedFileDescriptor *",
   "referenced_type" : "_ZTIKN3ndk20ScopedFileDescriptorE",
   "self_type" : "_ZTIPKN3ndk20ScopedFileDescriptorE",
   "size" : 4,
   "source_file" : "frameworks/native/libs/binder/ndk/include_cpp/android/binder_auto_utils.h"
  },
  {
   "alignment" : 4,
   "linker_set_key" : "_ZTIPKN3ndk4impl15ScopedAResourceIP7AParcelXadL_Z14AParcel_deleteEELS3_0EEE",
   "name" : "const ndk::impl::ScopedAResource<AParcel *, &AParcel_delete, nullptr> *",
   "referenced_type" : "_ZTIKN3ndk4impl15ScopedAResourceIP7AParcelXadL_Z14AParcel_deleteEELS3_0EEE",
   "self_type" : "_ZTIPKN3ndk4impl15ScopedAResourceIP7AParcelXadL_Z14AParcel_deleteEELS3_0EEE",
   "size" : 4,
   "source_file" : "frameworks/native/libs/binder/ndk/include_cpp/android/binder_auto_utils.h"
  },
  {
   "alignment" : 4,
   "linker_set_key" : "_ZTIPKN3ndk4impl15ScopedAResourceIP7AStatusXadL_Z14AStatus_deleteEELS3_0EEE",
   "name" : "const ndk::impl::ScopedAResource<AStatus *, &AStatus_delete, nullptr> *",
   "referenced_type" : "_ZTIKN3ndk4impl15ScopedAResourceIP7AStatusXadL_Z14AStatus_deleteEELS3_0EEE",
   "self_type" : "_ZTIPKN3ndk4impl15ScopedAResourceIP7AStatusXadL_Z14AStatus_deleteEELS3_0EEE",
   "size" : 4,
   "source_file" : "frameworks/native/libs/binder/ndk/include_cpp/android/binder_auto_utils.h"
  },
  {
   "alignment" : 4,
   "linker_set_key" : "_ZTIPKN4aidl7android8hardware4wifi7hostapd10ClientInfoE",
   "name" : "const aidl::android::hardware::wifi::hostapd::ClientInfo *",
   "referenced_type" : "_ZTIKN4aidl7android8hardware4wifi7hostapd10ClientInfoE",
   "self_type" : "_ZTIPKN4aidl7android8hardware4wifi7hostapd10ClientInfoE",
   "size" : 4,
   "source_file" : "out/soong/.intermediates/hardware/interfaces/wifi/hostapd/aidl/android.hardware.wifi.hostapd-V1-ndk-source/gen/include/aidl/android/hardware/wifi/hostapd/ClientInfo.h"
  },
  {
   "alignment" : 4,
   "linker_set_key" : "_ZTIPKN4aidl7android8hardware4wifi7hostapd11IfaceParamsE",
   "name" : "const aidl::android::hardware::wifi::hostapd::IfaceParams *",
   "referenced_type" : "_ZTIKN4aidl7android8hardware4wifi7hostapd11IfaceParamsE",
   "self_type" : "_ZTIPKN4aidl7android8hardware4wifi7hostapd11IfaceParamsE",
   "size" : 4,
   "source_file" : "out/soong/.intermediates/hardware/interfaces/wifi/hostapd/aidl/android.hardware.wifi.hostapd-V1-ndk-source/gen/include/aidl/android/hardware/wifi/hostapd/IfaceParams.h"
  },
  {
   "alignment" : 4,
   "linker_set_key" : "_ZTIPKN4aidl7android8hardware4wifi7hostapd12HwModeParamsE",
   "name" : "const aidl::android::hardware::wifi::hostapd::HwModeParams *",
   "referenced_type" : "_ZTIKN4aidl7android8hardware4wifi7hostapd12HwModeParamsE",
   "self_type" : "_ZTIPKN4aidl7android8hardware4wifi7hostapd12HwModeParamsE",
   "size" : 4,
   "source_file" : "out/soong/.intermediates/hardware/interfaces/wifi/hostapd/aidl/android.hardware.wifi.hostapd-V1-ndk-source/gen/include/aidl/android/hardware/wifi/hostapd/HwModeParams.h"
  },
  {
   "alignment" : 4,
   "linker_set_key" : "_ZTIPKN4aidl7android8hardware4wifi7hostapd13ChannelParamsE",
   "name" : "const aidl::android::hardware::wifi::hostapd::ChannelParams *",
   "referenced_type" : "_ZTIKN4aidl7android8hardware4wifi7hostapd13ChannelParamsE",
   "self_type" : "_ZTIPKN4aidl7android8hardware4wifi7hostapd13ChannelParamsE",
   "size" : 4,
   "source_file" : "out/soong/.intermediates/hardware/interfaces/wifi/hostapd/aidl/android.hardware.wifi.hostapd-V1-ndk-source/gen/include/aidl/android/hardware/wifi/hostapd/ChannelParams.h"
  },
  {
   "alignment" : 4,
   "linker_set_key" : "_ZTIPKN4aidl7android8hardware4wifi7hostapd13NetworkParamsE",
   "name" : "const aidl::android::hardware::wifi::hostapd::NetworkParams *",
   "referenced_type" : "_ZTIKN4aidl7android8hardware4wifi7hostapd13NetworkParamsE",
   "self_type" : "_ZTIPKN4aidl7android8hardware4wifi7hostapd13NetworkParamsE",
   "size" : 4,
   "source_file" : "out/soong/.intermediates/hardware/interfaces/wifi/hostapd/aidl/android.hardware.wifi.hostapd-V1-ndk-source/gen/include/aidl/android/hardware/wifi/hostapd/NetworkParams.h"
  },
  {
   "alignment" : 4,
   "linker_set_key" : "_ZTIPKN4aidl7android8hardware4wifi7hostapd14FrequencyRangeE",
   "name" : "const aidl::android::hardware::wifi::hostapd::FrequencyRange *",
   "referenced_type" : "_ZTIKN4aidl7android8hardware4wifi7hostapd14FrequencyRangeE",
   "self_type" : "_ZTIPKN4aidl7android8hardware4wifi7hostapd14FrequencyRangeE",
   "size" : 4,
   "source_file" : "out/soong/.intermediates/hardware/interfaces/wifi/hostapd/aidl/android.hardware.wifi.hostapd-V1-ndk-source/gen/include/aidl/android/hardware/wifi/hostapd/FrequencyRange.h"
  },
  {
   "alignment" : 4,
   "linker_set_key" : "_ZTIPKN4aidl7android8hardware4wifi7hostapd6ApInfoE",
   "name" : "const aidl::android::hardware::wifi::hostapd::ApInfo *",
   "referenced_type" : "_ZTIKN4aidl7android8hardware4wifi7hostapd6ApInfoE",
   "self_type" : "_ZTIPKN4aidl7android8hardware4wifi7hostapd6ApInfoE",
   "size" : 4,
   "source_file" : "out/soong/.intermediates/hardware/interfaces/wifi/hostapd/aidl/android.hardware.wifi.hostapd-V1-ndk-source/gen/include/aidl/android/hardware/wifi/hostapd/ApInfo.h"
  },
  {
   "alignment" : 4,
   "linker_set_key" : "_ZTIPKc",
   "name" : "const char *",
   "referenced_type" : "_ZTIKc",
   "self_type" : "_ZTIPKc",
   "size" : 4,
   "source_file" : "frameworks/native/libs/binder/ndk/include_cpp/android/binder_auto_utils.h"
  },
  {
   "alignment" : 4,
   "linker_set_key" : "_ZTIPKv",
   "name" : "const void *",
   "referenced_type" : "_ZTIKv",
   "self_type" : "_ZTIPKv",
   "size" : 4,
   "source_file" : "frameworks/native/libs/binder/ndk/include_cpp/android/binder_parcel_utils.h"
  },
  {
   "alignment" : 4,
   "linker_set_key" : "_ZTIPN3ndk10SpAIBinderE",
   "name" : "ndk::SpAIBinder *",
   "referenced_type" : "_ZTIN3ndk10SpAIBinderE",
   "self_type" : "_ZTIPN3ndk10SpAIBinderE",
   "size" : 4,
   "source_file" : "frameworks/native/libs/binder/ndk/include_cpp/android/binder_auto_utils.h"
  },
  {
   "alignment" : 4,
   "linker_set_key" : "_ZTIPN3ndk11ICInterfaceE",
   "name" : "ndk::ICInterface *",
   "referenced_type" : "_ZTIN3ndk11ICInterfaceE",
   "self_type" : "_ZTIPN3ndk11ICInterfaceE",
   "size" : 4,
   "source_file" : "frameworks/native/libs/binder/ndk/include_cpp/android/binder_interface_utils.h"
  },
  {
   "alignment" : 4,
   "linker_set_key" : "_ZTIPN3ndk12BnCInterfaceIN4aidl7android8hardware4wifi7hostapd16IHostapdCallbackEEE",
   "name" : "ndk::BnCInterface<aidl::android::hardware::wifi::hostapd::IHostapdCallback> *",
   "referenced_type" : "_ZTIN3ndk12BnCInterfaceIN4aidl7android8hardware4wifi7hostapd16IHostapdCallbackEEE",
   "self_type" : "_ZTIPN3ndk12BnCInterfaceIN4aidl7android8hardware4wifi7hostapd16IHostapdCallbackEEE",
   "size" : 4,
   "source_file" : "frameworks/native/libs/binder/ndk/include_cpp/android/binder_interface_utils.h"
  },
  {
   "alignment" : 4,
   "linker_set_key" : "_ZTIPN3ndk12BnCInterfaceIN4aidl7android8hardware4wifi7hostapd8IHostapdEEE",
   "name" : "ndk::BnCInterface<aidl::android::hardware::wifi::hostapd::IHostapd> *",
   "referenced_type" : "_ZTIN3ndk12BnCInterfaceIN4aidl7android8hardware4wifi7hostapd8IHostapdEEE",
   "self_type" : "_ZTIPN3ndk12BnCInterfaceIN4aidl7android8hardware4wifi7hostapd8IHostapdEEE",
   "size" : 4,
   "source_file" : "frameworks/native/libs/binder/ndk/include_cpp/android/binder_interface_utils.h"
  },
  {
   "alignment" : 4,
   "linker_set_key" : "_ZTIPN3ndk12BpCInterfaceIN4aidl7android8hardware4wifi7hostapd16IHostapdCallbackEEE",
   "name" : "ndk::BpCInterface<aidl::android::hardware::wifi::hostapd::IHostapdCallback> *",
   "referenced_type" : "_ZTIN3ndk12BpCInterfaceIN4aidl7android8hardware4wifi7hostapd16IHostapdCallbackEEE",
   "self_type" : "_ZTIPN3ndk12BpCInterfaceIN4aidl7android8hardware4wifi7hostapd16IHostapdCallbackEEE",
   "size" : 4,
   "source_file" : "frameworks/native/libs/binder/ndk/include_cpp/android/binder_interface_utils.h"
  },
  {
   "alignment" : 4,
   "linker_set_key" : "_ZTIPN3ndk12BpCInterfaceIN4aidl7android8hardware4wifi7hostapd8IHostapdEEE",
   "name" : "ndk::BpCInterface<aidl::android::hardware::wifi::hostapd::IHostapd> *",
   "referenced_type" : "_ZTIN3ndk12BpCInterfaceIN4aidl7android8hardware4wifi7hostapd8IHostapdEEE",
   "self_type" : "_ZTIPN3ndk12BpCInterfaceIN4aidl7android8hardware4wifi7hostapd8IHostapdEEE",
   "size" : 4,
   "source_file" : "frameworks/native/libs/binder/ndk/include_cpp/android/binder_interface_utils.h"
  },
  {
   "alignment" : 4,
   "linker_set_key" : "_ZTIPN3ndk13ScopedAParcelE",
   "name" : "ndk::ScopedAParcel *",
   "referenced_type" : "_ZTIN3ndk13ScopedAParcelE",
   "self_type" : "_ZTIPN3ndk13ScopedAParcelE",
   "size" : 4,
   "source_file" : "frameworks/native/libs/binder/ndk/include_cpp/android/binder_auto_utils.h"
  },
  {
   "alignment" : 4,
   "linker_set_key" : "_ZTIPN3ndk13ScopedAStatusE",
   "name" : "ndk::ScopedAStatus *",
   "referenced_type" : "_ZTIN3ndk13ScopedAStatusE",
   "self_type" : "_ZTIPN3ndk13ScopedAStatusE",
   "size" : 4,
   "source_file" : "frameworks/native/libs/binder/ndk/include_cpp/android/binder_auto_utils.h"
  },
  {
   "alignment" : 4,
   "linker_set_key" : "_ZTIPN3ndk13SharedRefBaseE",
   "name" : "ndk::SharedRefBase *",
   "referenced_type" : "_ZTIN3ndk13SharedRefBaseE",
   "self_type" : "_ZTIPN3ndk13SharedRefBaseE",
   "size" : 4,
   "source_file" : "frameworks/native/libs/binder/ndk/include_cpp/android/binder_interface_utils.h"
  },
  {
   "alignment" : 4,
   "linker_set_key" : "_ZTIPN3ndk17AParcelableHolderE",
   "name" : "ndk::AParcelableHolder *",
   "referenced_type" : "_ZTIN3ndk17AParcelableHolderE",
   "self_type" : "_ZTIPN3ndk17AParcelableHolderE",
   "size" : 4,
   "source_file" : "frameworks/native/libs/binder/ndk/include_cpp/android/binder_parcelable_utils.h"
  },
  {
   "alignment" : 4,
   "linker_set_key" : "_ZTIPN3ndk19ScopedAIBinder_WeakE",
   "name" : "ndk::ScopedAIBinder_Weak *",
   "referenced_type" : "_ZTIN3ndk19ScopedAIBinder_WeakE",
   "self_type" : "_ZTIPN3ndk19ScopedAIBinder_WeakE",
   "size" : 4,
   "source_file" : "frameworks/native/libs/binder/ndk/include_cpp/android/binder_auto_utils.h"
  },
  {
   "alignment" : 4,
   "linker_set_key" : "_ZTIPN3ndk20ScopedFileDescriptorE",
   "name" : "ndk::ScopedFileDescriptor *",
   "referenced_type" : "_ZTIN3ndk20ScopedFileDescriptorE",
   "self_type" : "_ZTIPN3ndk20ScopedFileDescriptorE",
   "size" : 4,
   "source_file" : "frameworks/native/libs/binder/ndk/include_cpp/android/binder_auto_utils.h"
  },
  {
   "alignment" : 4,
   "linker_set_key" : "_ZTIPN3ndk29ScopedAIBinder_DeathRecipientE",
   "name" : "ndk::ScopedAIBinder_DeathRecipient *",
   "referenced_type" : "_ZTIN3ndk29ScopedAIBinder_DeathRecipientE",
   "self_type" : "_ZTIPN3ndk29ScopedAIBinder_DeathRecipientE",
   "size" : 4,
   "source_file" : "frameworks/native/libs/binder/ndk/include_cpp/android/binder_auto_utils.h"
  },
  {
   "alignment" : 4,
   "linker_set_key" : "_ZTIPN3ndk4impl15ScopedAResourceIP13AIBinder_WeakXadL_Z20AIBinder_Weak_deleteEELS3_0EEE",
   "name" : "ndk::impl::ScopedAResource<AIBinder_Weak *, &AIBinder_Weak_delete, nullptr> *",
   "referenced_type" : "_ZTIN3ndk4impl15ScopedAResourceIP13AIBinder_WeakXadL_Z20AIBinder_Weak_deleteEELS3_0EEE",
   "self_type" : "_ZTIPN3ndk4impl15ScopedAResourceIP13AIBinder_WeakXadL_Z20AIBinder_Weak_deleteEELS3_0EEE",
   "size" : 4,
   "source_file" : "frameworks/native/libs/binder/ndk/include_cpp/android/binder_auto_utils.h"
  },
  {
   "alignment" : 4,
   "linker_set_key" : "_ZTIPN3ndk4impl15ScopedAResourceIP23AIBinder_DeathRecipientXadL_Z30AIBinder_DeathRecipient_deleteEELS3_0EEE",
   "name" : "ndk::impl::ScopedAResource<AIBinder_DeathRecipient *, &AIBinder_DeathRecipient_delete, nullptr> *",
   "referenced_type" : "_ZTIN3ndk4impl15ScopedAResourceIP23AIBinder_DeathRecipientXadL_Z30AIBinder_DeathRecipient_deleteEELS3_0EEE",
   "self_type" : "_ZTIPN3ndk4impl15ScopedAResourceIP23AIBinder_DeathRecipientXadL_Z30AIBinder_DeathRecipient_deleteEELS3_0EEE",
   "size" : 4,
   "source_file" : "frameworks/native/libs/binder/ndk/include_cpp/android/binder_auto_utils.h"
  },
  {
   "alignment" : 4,
   "linker_set_key" : "_ZTIPN3ndk4impl15ScopedAResourceIP7AParcelXadL_Z14AParcel_deleteEELS3_0EEE",
   "name" : "ndk::impl::ScopedAResource<AParcel *, &AParcel_delete, nullptr> *",
   "referenced_type" : "_ZTIN3ndk4impl15ScopedAResourceIP7AParcelXadL_Z14AParcel_deleteEELS3_0EEE",
   "self_type" : "_ZTIPN3ndk4impl15ScopedAResourceIP7AParcelXadL_Z14AParcel_deleteEELS3_0EEE",
   "size" : 4,
   "source_file" : "frameworks/native/libs/binder/ndk/include_cpp/android/binder_auto_utils.h"
  },
  {
   "alignment" : 4,
   "linker_set_key" : "_ZTIPN3ndk4impl15ScopedAResourceIP7AStatusXadL_Z14AStatus_deleteEELS3_0EEE",
   "name" : "ndk::impl::ScopedAResource<AStatus *, &AStatus_delete, nullptr> *",
   "referenced_type" : "_ZTIN3ndk4impl15ScopedAResourceIP7AStatusXadL_Z14AStatus_deleteEELS3_0EEE",
   "self_type" : "_ZTIPN3ndk4impl15ScopedAResourceIP7AStatusXadL_Z14AStatus_deleteEELS3_0EEE",
   "size" : 4,
   "source_file" : "frameworks/native/libs/binder/ndk/include_cpp/android/binder_auto_utils.h"
  },
  {
   "alignment" : 4,
   "linker_set_key" : "_ZTIPN4aidl7android8hardware4wifi7hostapd10ClientInfoE",
   "name" : "aidl::android::hardware::wifi::hostapd::ClientInfo *",
   "referenced_type" : "_ZTIN4aidl7android8hardware4wifi7hostapd10ClientInfoE",
   "self_type" : "_ZTIPN4aidl7android8hardware4wifi7hostapd10ClientInfoE",
   "size" : 4,
   "source_file" : "out/soong/.intermediates/hardware/interfaces/wifi/hostapd/aidl/android.hardware.wifi.hostapd-V1-ndk-source/gen/include/aidl/android/hardware/wifi/hostapd/ClientInfo.h"
  },
  {
   "alignment" : 4,
   "linker_set_key" : "_ZTIPN4aidl7android8hardware4wifi7hostapd11IfaceParamsE",
   "name" : "aidl::android::hardware::wifi::hostapd::IfaceParams *",
   "referenced_type" : "_ZTIN4aidl7android8hardware4wifi7hostapd11IfaceParamsE",
   "self_type" : "_ZTIPN4aidl7android8hardware4wifi7hostapd11IfaceParamsE",
   "size" : 4,
   "source_file" : "out/soong/.intermediates/hardware/interfaces/wifi/hostapd/aidl/android.hardware.wifi.hostapd-V1-ndk-source/gen/include/aidl/android/hardware/wifi/hostapd/IfaceParams.h"
  },
  {
   "alignment" : 4,
   "linker_set_key" : "_ZTIPN4aidl7android8hardware4wifi7hostapd12HwModeParamsE",
   "name" : "aidl::android::hardware::wifi::hostapd::HwModeParams *",
   "referenced_type" : "_ZTIN4aidl7android8hardware4wifi7hostapd12HwModeParamsE",
   "self_type" : "_ZTIPN4aidl7android8hardware4wifi7hostapd12HwModeParamsE",
   "size" : 4,
   "source_file" : "out/soong/.intermediates/hardware/interfaces/wifi/hostapd/aidl/android.hardware.wifi.hostapd-V1-ndk-source/gen/include/aidl/android/hardware/wifi/hostapd/HwModeParams.h"
  },
  {
   "alignment" : 4,
   "linker_set_key" : "_ZTIPN4aidl7android8hardware4wifi7hostapd13ChannelParamsE",
   "name" : "aidl::android::hardware::wifi::hostapd::ChannelParams *",
   "referenced_type" : "_ZTIN4aidl7android8hardware4wifi7hostapd13ChannelParamsE",
   "self_type" : "_ZTIPN4aidl7android8hardware4wifi7hostapd13ChannelParamsE",
   "size" : 4,
   "source_file" : "out/soong/.intermediates/hardware/interfaces/wifi/hostapd/aidl/android.hardware.wifi.hostapd-V1-ndk-source/gen/include/aidl/android/hardware/wifi/hostapd/ChannelParams.h"
  },
  {
   "alignment" : 4,
   "linker_set_key" : "_ZTIPN4aidl7android8hardware4wifi7hostapd13NetworkParamsE",
   "name" : "aidl::android::hardware::wifi::hostapd::NetworkParams *",
   "referenced_type" : "_ZTIN4aidl7android8hardware4wifi7hostapd13NetworkParamsE",
   "self_type" : "_ZTIPN4aidl7android8hardware4wifi7hostapd13NetworkParamsE",
   "size" : 4,
   "source_file" : "out/soong/.intermediates/hardware/interfaces/wifi/hostapd/aidl/android.hardware.wifi.hostapd-V1-ndk-source/gen/include/aidl/android/hardware/wifi/hostapd/NetworkParams.h"
  },
  {
   "alignment" : 4,
   "linker_set_key" : "_ZTIPN4aidl7android8hardware4wifi7hostapd14FrequencyRangeE",
   "name" : "aidl::android::hardware::wifi::hostapd::FrequencyRange *",
   "referenced_type" : "_ZTIN4aidl7android8hardware4wifi7hostapd14FrequencyRangeE",
   "self_type" : "_ZTIPN4aidl7android8hardware4wifi7hostapd14FrequencyRangeE",
   "size" : 4,
   "source_file" : "out/soong/.intermediates/hardware/interfaces/wifi/hostapd/aidl/android.hardware.wifi.hostapd-V1-ndk-source/gen/include/aidl/android/hardware/wifi/hostapd/FrequencyRange.h"
  },
  {
   "alignment" : 4,
   "linker_set_key" : "_ZTIPN4aidl7android8hardware4wifi7hostapd15IHostapdDefaultE",
   "name" : "aidl::android::hardware::wifi::hostapd::IHostapdDefault *",
   "referenced_type" : "_ZTIN4aidl7android8hardware4wifi7hostapd15IHostapdDefaultE",
   "self_type" : "_ZTIPN4aidl7android8hardware4wifi7hostapd15IHostapdDefaultE",
   "size" : 4,
   "source_file" : "out/soong/.intermediates/hardware/interfaces/wifi/hostapd/aidl/android.hardware.wifi.hostapd-V1-ndk-source/gen/include/aidl/android/hardware/wifi/hostapd/IHostapd.h"
  },
  {
   "alignment" : 4,
   "linker_set_key" : "_ZTIPN4aidl7android8hardware4wifi7hostapd16IHostapdCallbackE",
   "name" : "aidl::android::hardware::wifi::hostapd::IHostapdCallback *",
   "referenced_type" : "_ZTIN4aidl7android8hardware4wifi7hostapd16IHostapdCallbackE",
   "self_type" : "_ZTIPN4aidl7android8hardware4wifi7hostapd16IHostapdCallbackE",
   "size" : 4,
   "source_file" : "out/soong/.intermediates/hardware/interfaces/wifi/hostapd/aidl/android.hardware.wifi.hostapd-V1-ndk-source/gen/include/aidl/android/hardware/wifi/hostapd/IHostapdCallback.h"
  },
  {
   "alignment" : 4,
   "linker_set_key" : "_ZTIPN4aidl7android8hardware4wifi7hostapd17BnHostapdCallbackE",
   "name" : "aidl::android::hardware::wifi::hostapd::BnHostapdCallback *",
   "referenced_type" : "_ZTIN4aidl7android8hardware4wifi7hostapd17BnHostapdCallbackE",
   "self_type" : "_ZTIPN4aidl7android8hardware4wifi7hostapd17BnHostapdCallbackE",
   "size" : 4,
   "source_file" : "out/soong/.intermediates/hardware/interfaces/wifi/hostapd/aidl/android.hardware.wifi.hostapd-V1-ndk-source/gen/include/aidl/android/hardware/wifi/hostapd/BnHostapdCallback.h"
  },
  {
   "alignment" : 4,
   "linker_set_key" : "_ZTIPN4aidl7android8hardware4wifi7hostapd17BpHostapdCallbackE",
   "name" : "aidl::android::hardware::wifi::hostapd::BpHostapdCallback *",
   "referenced_type" : "_ZTIN4aidl7android8hardware4wifi7hostapd17BpHostapdCallbackE",
   "self_type" : "_ZTIPN4aidl7android8hardware4wifi7hostapd17BpHostapdCallbackE",
   "size" : 4,
   "source_file" : "out/soong/.intermediates/hardware/interfaces/wifi/hostapd/aidl/android.hardware.wifi.hostapd-V1-ndk-source/gen/include/aidl/android/hardware/wifi/hostapd/BpHostapdCallback.h"
  },
  {
   "alignment" : 4,
   "linker_set_key" : "_ZTIPN4aidl7android8hardware4wifi7hostapd17IHostapdDelegatorE",
   "name" : "aidl::android::hardware::wifi::hostapd::IHostapdDelegator *",
   "referenced_type" : "_ZTIN4aidl7android8hardware4wifi7hostapd17IHostapdDelegatorE",
   "self_type" : "_ZTIPN4aidl7android8hardware4wifi7hostapd17IHostapdDelegatorE",
   "size" : 4,
   "source_file" : "out/soong/.intermediates/hardware/interfaces/wifi/hostapd/aidl/android.hardware.wifi.hostapd-V1-ndk-source/gen/include/aidl/android/hardware/wifi/hostapd/BnHostapd.h"
  },
  {
   "alignment" : 4,
   "linker_set_key" : "_ZTIPN4aidl7android8hardware4wifi7hostapd23IHostapdCallbackDefaultE",
   "name" : "aidl::android::hardware::wifi::hostapd::IHostapdCallbackDefault *",
   "referenced_type" : "_ZTIN4aidl7android8hardware4wifi7hostapd23IHostapdCallbackDefaultE",
   "self_type" : "_ZTIPN4aidl7android8hardware4wifi7hostapd23IHostapdCallbackDefaultE",
   "size" : 4,
   "source_file" : "out/soong/.intermediates/hardware/interfaces/wifi/hostapd/aidl/android.hardware.wifi.hostapd-V1-ndk-source/gen/include/aidl/android/hardware/wifi/hostapd/IHostapdCallback.h"
  },
  {
   "alignment" : 4,
   "linker_set_key" : "_ZTIPN4aidl7android8hardware4wifi7hostapd25IHostapdCallbackDelegatorE",
   "name" : "aidl::android::hardware::wifi::hostapd::IHostapdCallbackDelegator *",
   "referenced_type" : "_ZTIN4aidl7android8hardware4wifi7hostapd25IHostapdCallbackDelegatorE",
   "self_type" : "_ZTIPN4aidl7android8hardware4wifi7hostapd25IHostapdCallbackDelegatorE",
   "size" : 4,
   "source_file" : "out/soong/.intermediates/hardware/interfaces/wifi/hostapd/aidl/android.hardware.wifi.hostapd-V1-ndk-source/gen/include/aidl/android/hardware/wifi/hostapd/BnHostapdCallback.h"
  },
  {
   "alignment" : 4,
   "linker_set_key" : "_ZTIPN4aidl7android8hardware4wifi7hostapd6ApInfoE",
   "name" : "aidl::android::hardware::wifi::hostapd::ApInfo *",
   "referenced_type" : "_ZTIN4aidl7android8hardware4wifi7hostapd6ApInfoE",
   "self_type" : "_ZTIPN4aidl7android8hardware4wifi7hostapd6ApInfoE",
   "size" : 4,
   "source_file" : "out/soong/.intermediates/hardware/interfaces/wifi/hostapd/aidl/android.hardware.wifi.hostapd-V1-ndk-source/gen/include/aidl/android/hardware/wifi/hostapd/ApInfo.h"
  },
  {
   "alignment" : 4,
   "linker_set_key" : "_ZTIPN4aidl7android8hardware4wifi7hostapd8IHostapdE",
   "name" : "aidl::android::hardware::wifi::hostapd::IHostapd *",
   "referenced_type" : "_ZTIN4aidl7android8hardware4wifi7hostapd8IHostapdE",
   "self_type" : "_ZTIPN4aidl7android8hardware4wifi7hostapd8IHostapdE",
   "size" : 4,
   "source_file" : "out/soong/.intermediates/hardware/interfaces/wifi/hostapd/aidl/android.hardware.wifi.hostapd-V1-ndk-source/gen/include/aidl/android/hardware/wifi/hostapd/IHostapd.h"
  },
  {
   "alignment" : 4,
   "linker_set_key" : "_ZTIPN4aidl7android8hardware4wifi7hostapd9BnHostapdE",
   "name" : "aidl::android::hardware::wifi::hostapd::BnHostapd *",
   "referenced_type" : "_ZTIN4aidl7android8hardware4wifi7hostapd9BnHostapdE",
   "self_type" : "_ZTIPN4aidl7android8hardware4wifi7hostapd9BnHostapdE",
   "size" : 4,
   "source_file" : "out/soong/.intermediates/hardware/interfaces/wifi/hostapd/aidl/android.hardware.wifi.hostapd-V1-ndk-source/gen/include/aidl/android/hardware/wifi/hostapd/BnHostapd.h"
  },
  {
   "alignment" : 4,
   "linker_set_key" : "_ZTIPN4aidl7android8hardware4wifi7hostapd9BpHostapdE",
   "name" : "aidl::android::hardware::wifi::hostapd::BpHostapd *",
   "referenced_type" : "_ZTIN4aidl7android8hardware4wifi7hostapd9BpHostapdE",
   "self_type" : "_ZTIPN4aidl7android8hardware4wifi7hostapd9BpHostapdE",
   "size" : 4,
   "source_file" : "out/soong/.intermediates/hardware/interfaces/wifi/hostapd/aidl/android.hardware.wifi.hostapd-V1-ndk-source/gen/include/aidl/android/hardware/wifi/hostapd/BpHostapd.h"
  },
  {
   "alignment" : 4,
   "linker_set_key" : "_ZTIPNSt3__110shared_ptrIN4aidl7android8hardware4wifi7hostapd16IHostapdCallbackEEE",
   "name" : "std::shared_ptr<aidl::android::hardware::wifi::hostapd::IHostapdCallback> *",
   "referenced_type" : "_ZTINSt3__110shared_ptrIN4aidl7android8hardware4wifi7hostapd16IHostapdCallbackEEE",
   "self_type" : "_ZTIPNSt3__110shared_ptrIN4aidl7android8hardware4wifi7hostapd16IHostapdCallbackEEE",
   "size" : 4,
   "source_file" : "out/soong/.intermediates/hardware/interfaces/wifi/hostapd/aidl/android.hardware.wifi.hostapd-V1-ndk-source/gen/include/aidl/android/hardware/wifi/hostapd/IHostapdCallback.h"
  },
  {
   "alignment" : 4,
   "linker_set_key" : "_ZTIPNSt3__110shared_ptrIN4aidl7android8hardware4wifi7hostapd8IHostapdEEE",
   "name" : "std::shared_ptr<aidl::android::hardware::wifi::hostapd::IHostapd> *",
   "referenced_type" : "_ZTINSt3__110shared_ptrIN4aidl7android8hardware4wifi7hostapd8IHostapdEEE",
   "self_type" : "_ZTIPNSt3__110shared_ptrIN4aidl7android8hardware4wifi7hostapd8IHostapdEEE",
   "size" : 4,
   "source_file" : "out/soong/.intermediates/hardware/interfaces/wifi/hostapd/aidl/android.hardware.wifi.hostapd-V1-ndk-source/gen/include/aidl/android/hardware/wifi/hostapd/IHostapd.h"
  },
  {
   "alignment" : 4,
   "linker_set_key" : "_ZTIPNSt3__112basic_stringIcNS_11char_traitsIcEENS_9allocatorIcEEEE",
   "name" : "std::basic_string<char, std::char_traits<char>, std::allocator<char>> *",
   "referenced_type" : "_ZTINSt3__112basic_stringIcNS_11char_traitsIcEENS_9allocatorIcEEEE",
   "self_type" : "_ZTIPNSt3__112basic_stringIcNS_11char_traitsIcEENS_9allocatorIcEEEE",
   "size" : 4,
   "source_file" : "out/soong/.intermediates/hardware/interfaces/wifi/hostapd/aidl/android.hardware.wifi.hostapd-V1-ndk-source/gen/include/aidl/android/hardware/wifi/hostapd/IHostapd.h"
  },
  {
   "alignment" : 4,
   "linker_set_key" : "_ZTIPNSt3__16vectorIDsNS_9allocatorIDsEEEE",
   "name" : "std::vector<char16_t, std::allocator<char16_t>> *",
   "referenced_type" : "_ZTINSt3__16vectorIDsNS_9allocatorIDsEEEE",
   "self_type" : "_ZTIPNSt3__16vectorIDsNS_9allocatorIDsEEEE",
   "size" : 4,
   "source_file" : "frameworks/native/libs/binder/ndk/include_cpp/android/binder_parcel_utils.h"
  },
  {
   "alignment" : 4,
   "linker_set_key" : "_ZTIPNSt3__16vectorIbNS_9allocatorIbEEEE",
   "name" : "std::vector<bool, std::allocator<bool>> *",
   "referenced_type" : "_ZTINSt3__16vectorIbNS_9allocatorIbEEEE",
   "self_type" : "_ZTIPNSt3__16vectorIbNS_9allocatorIbEEEE",
   "size" : 4,
   "source_file" : "frameworks/native/libs/binder/ndk/include_cpp/android/binder_parcel_utils.h"
  },
  {
   "alignment" : 4,
   "linker_set_key" : "_ZTIPNSt3__16vectorIdNS_9allocatorIdEEEE",
   "name" : "std::vector<double, std::allocator<double>> *",
   "referenced_type" : "_ZTINSt3__16vectorIdNS_9allocatorIdEEEE",
   "self_type" : "_ZTIPNSt3__16vectorIdNS_9allocatorIdEEEE",
   "size" : 4,
   "source_file" : "frameworks/native/libs/binder/ndk/include_cpp/android/binder_parcel_utils.h"
  },
  {
   "alignment" : 4,
   "linker_set_key" : "_ZTIPNSt3__16vectorIfNS_9allocatorIfEEEE",
   "name" : "std::vector<float, std::allocator<float>> *",
   "referenced_type" : "_ZTINSt3__16vectorIfNS_9allocatorIfEEEE",
   "self_type" : "_ZTIPNSt3__16vectorIfNS_9allocatorIfEEEE",
   "size" : 4,
   "source_file" : "frameworks/native/libs/binder/ndk/include_cpp/android/binder_parcel_utils.h"
  },
  {
   "alignment" : 4,
   "linker_set_key" : "_ZTIPNSt3__16vectorIhNS_9allocatorIhEEEE",
   "name" : "std::vector<unsigned char, std::allocator<unsigned char>> *",
   "referenced_type" : "_ZTINSt3__16vectorIhNS_9allocatorIhEEEE",
   "self_type" : "_ZTIPNSt3__16vectorIhNS_9allocatorIhEEEE",
   "size" : 4,
   "source_file" : "frameworks/native/libs/binder/ndk/include_cpp/android/binder_parcel_utils.h"
  },
  {
   "alignment" : 4,
   "linker_set_key" : "_ZTIPNSt3__16vectorIiNS_9allocatorIiEEEE",
   "name" : "std::vector<int, std::allocator<int>> *",
   "referenced_type" : "_ZTINSt3__16vectorIiNS_9allocatorIiEEEE",
   "self_type" : "_ZTIPNSt3__16vectorIiNS_9allocatorIiEEEE",
   "size" : 4,
   "source_file" : "frameworks/native/libs/binder/ndk/include_cpp/android/binder_parcel_utils.h"
  },
  {
   "alignment" : 4,
   "linker_set_key" : "_ZTIPNSt3__16vectorIjNS_9allocatorIjEEEE",
   "name" : "std::vector<unsigned int, std::allocator<unsigned int>> *",
   "referenced_type" : "_ZTINSt3__16vectorIjNS_9allocatorIjEEEE",
   "self_type" : "_ZTIPNSt3__16vectorIjNS_9allocatorIjEEEE",
   "size" : 4,
   "source_file" : "frameworks/native/libs/binder/ndk/include_cpp/android/binder_parcel_utils.h"
  },
  {
   "alignment" : 4,
   "linker_set_key" : "_ZTIPNSt3__16vectorIxNS_9allocatorIxEEEE",
   "name" : "std::vector<long long, std::allocator<long long>> *",
   "referenced_type" : "_ZTINSt3__16vectorIxNS_9allocatorIxEEEE",
   "self_type" : "_ZTIPNSt3__16vectorIxNS_9allocatorIxEEEE",
   "size" : 4,
   "source_file" : "frameworks/native/libs/binder/ndk/include_cpp/android/binder_parcel_utils.h"
  },
  {
   "alignment" : 4,
   "linker_set_key" : "_ZTIPNSt3__16vectorIyNS_9allocatorIyEEEE",
   "name" : "std::vector<unsigned long long, std::allocator<unsigned long long>> *",
   "referenced_type" : "_ZTINSt3__16vectorIyNS_9allocatorIyEEEE",
   "self_type" : "_ZTIPNSt3__16vectorIyNS_9allocatorIyEEEE",
   "size" : 4,
   "source_file" : "frameworks/native/libs/binder/ndk/include_cpp/android/binder_parcel_utils.h"
  },
  {
   "alignment" : 4,
   "linker_set_key" : "_ZTIPNSt3__18optionalINS_6vectorIDsNS_9allocatorIDsEEEEEE",
   "name" : "std::optional<std::vector<char16_t, std::allocator<char16_t>>> *",
   "referenced_type" : "_ZTINSt3__18optionalINS_6vectorIDsNS_9allocatorIDsEEEEEE",
   "self_type" : "_ZTIPNSt3__18optionalINS_6vectorIDsNS_9allocatorIDsEEEEEE",
   "size" : 4,
   "source_file" : "frameworks/native/libs/binder/ndk/include_cpp/android/binder_parcel_utils.h"
  },
  {
   "alignment" : 4,
   "linker_set_key" : "_ZTIPNSt3__18optionalINS_6vectorIbNS_9allocatorIbEEEEEE",
   "name" : "std::optional<std::vector<bool, std::allocator<bool>>> *",
   "referenced_type" : "_ZTINSt3__18optionalINS_6vectorIbNS_9allocatorIbEEEEEE",
   "self_type" : "_ZTIPNSt3__18optionalINS_6vectorIbNS_9allocatorIbEEEEEE",
   "size" : 4,
   "source_file" : "frameworks/native/libs/binder/ndk/include_cpp/android/binder_parcel_utils.h"
  },
  {
   "alignment" : 4,
   "linker_set_key" : "_ZTIPNSt3__18optionalINS_6vectorIdNS_9allocatorIdEEEEEE",
   "name" : "std::optional<std::vector<double, std::allocator<double>>> *",
   "referenced_type" : "_ZTINSt3__18optionalINS_6vectorIdNS_9allocatorIdEEEEEE",
   "self_type" : "_ZTIPNSt3__18optionalINS_6vectorIdNS_9allocatorIdEEEEEE",
   "size" : 4,
   "source_file" : "frameworks/native/libs/binder/ndk/include_cpp/android/binder_parcel_utils.h"
  },
  {
   "alignment" : 4,
   "linker_set_key" : "_ZTIPNSt3__18optionalINS_6vectorIfNS_9allocatorIfEEEEEE",
   "name" : "std::optional<std::vector<float, std::allocator<float>>> *",
   "referenced_type" : "_ZTINSt3__18optionalINS_6vectorIfNS_9allocatorIfEEEEEE",
   "self_type" : "_ZTIPNSt3__18optionalINS_6vectorIfNS_9allocatorIfEEEEEE",
   "size" : 4,
   "source_file" : "frameworks/native/libs/binder/ndk/include_cpp/android/binder_parcel_utils.h"
  },
  {
   "alignment" : 4,
   "linker_set_key" : "_ZTIPNSt3__18optionalINS_6vectorIhNS_9allocatorIhEEEEEE",
   "name" : "std::optional<std::vector<unsigned char, std::allocator<unsigned char>>> *",
   "referenced_type" : "_ZTINSt3__18optionalINS_6vectorIhNS_9allocatorIhEEEEEE",
   "self_type" : "_ZTIPNSt3__18optionalINS_6vectorIhNS_9allocatorIhEEEEEE",
   "size" : 4,
   "source_file" : "frameworks/native/libs/binder/ndk/include_cpp/android/binder_parcel_utils.h"
  },
  {
   "alignment" : 4,
   "linker_set_key" : "_ZTIPNSt3__18optionalINS_6vectorIiNS_9allocatorIiEEEEEE",
   "name" : "std::optional<std::vector<int, std::allocator<int>>> *",
   "referenced_type" : "_ZTINSt3__18optionalINS_6vectorIiNS_9allocatorIiEEEEEE",
   "self_type" : "_ZTIPNSt3__18optionalINS_6vectorIiNS_9allocatorIiEEEEEE",
   "size" : 4,
   "source_file" : "frameworks/native/libs/binder/ndk/include_cpp/android/binder_parcel_utils.h"
  },
  {
   "alignment" : 4,
   "linker_set_key" : "_ZTIPNSt3__18optionalINS_6vectorIjNS_9allocatorIjEEEEEE",
   "name" : "std::optional<std::vector<unsigned int, std::allocator<unsigned int>>> *",
   "referenced_type" : "_ZTINSt3__18optionalINS_6vectorIjNS_9allocatorIjEEEEEE",
   "self_type" : "_ZTIPNSt3__18optionalINS_6vectorIjNS_9allocatorIjEEEEEE",
   "size" : 4,
   "source_file" : "frameworks/native/libs/binder/ndk/include_cpp/android/binder_parcel_utils.h"
  },
  {
   "alignment" : 4,
   "linker_set_key" : "_ZTIPNSt3__18optionalINS_6vectorIxNS_9allocatorIxEEEEEE",
   "name" : "std::optional<std::vector<long long, std::allocator<long long>>> *",
   "referenced_type" : "_ZTINSt3__18optionalINS_6vectorIxNS_9allocatorIxEEEEEE",
   "self_type" : "_ZTIPNSt3__18optionalINS_6vectorIxNS_9allocatorIxEEEEEE",
   "size" : 4,
   "source_file" : "frameworks/native/libs/binder/ndk/include_cpp/android/binder_parcel_utils.h"
  },
  {
   "alignment" : 4,
   "linker_set_key" : "_ZTIPNSt3__18optionalINS_6vectorIyNS_9allocatorIyEEEEEE",
   "name" : "std::optional<std::vector<unsigned long long, std::allocator<unsigned long long>>> *",
   "referenced_type" : "_ZTINSt3__18optionalINS_6vectorIyNS_9allocatorIyEEEEEE",
   "self_type" : "_ZTIPNSt3__18optionalINS_6vectorIyNS_9allocatorIyEEEEEE",
   "size" : 4,
   "source_file" : "frameworks/native/libs/binder/ndk/include_cpp/android/binder_parcel_utils.h"
  },
  {
   "alignment" : 4,
   "linker_set_key" : "_ZTIPP7AParcel",
   "name" : "AParcel **",
   "referenced_type" : "_ZTIP7AParcel",
   "self_type" : "_ZTIPP7AParcel",
   "size" : 4,
   "source_file" : "frameworks/native/libs/binder/ndk/include_cpp/android/binder_auto_utils.h"
  },
  {
   "alignment" : 4,
   "linker_set_key" : "_ZTIPP7AStatus",
   "name" : "AStatus **",
   "referenced_type" : "_ZTIP7AStatus",
   "self_type" : "_ZTIPP7AStatus",
   "size" : 4,
   "source_file" : "frameworks/native/libs/binder/ndk/include_cpp/android/binder_auto_utils.h"
  },
  {
   "alignment" : 4,
   "linker_set_key" : "_ZTIPP8AIBinder",
   "name" : "AIBinder **",
   "referenced_type" : "_ZTIP8AIBinder",
   "self_type" : "_ZTIPP8AIBinder",
   "size" : 4,
   "source_file" : "frameworks/native/libs/binder/ndk/include_cpp/android/binder_auto_utils.h"
  },
  {
   "alignment" : 4,
   "linker_set_key" : "_ZTIPPKc",
   "name" : "const char **",
   "referenced_type" : "_ZTIPKc",
   "self_type" : "_ZTIPPKc",
   "size" : 4,
   "source_file" : "frameworks/native/libs/binder/ndk/include_cpp/android/binder_interface_utils.h"
  },
  {
   "alignment" : 4,
   "linker_set_key" : "_ZTIPi",
   "name" : "int *",
   "referenced_type" : "_ZTIi",
   "self_type" : "_ZTIPi",
   "size" : 4,
   "source_file" : "out/soong/.intermediates/hardware/interfaces/wifi/hostapd/aidl/android.hardware.wifi.hostapd-V1-ndk-source/gen/include/aidl/android/hardware/wifi/hostapd/IHostapd.h"
  },
  {
   "alignment" : 4,
   "linker_set_key" : "_ZTIPv",
   "name" : "void *",
   "referenced_type" : "_ZTIv",
   "self_type" : "_ZTIPv",
   "size" : 4,
   "source_file" : "frameworks/native/libs/binder/ndk/include_cpp/android/binder_interface_utils.h"
  }
 ],
 "qualified_types" :
 [
  {
   "is_const" : true,
   "linker_set_key" : "_ZTIK7AParcel",
   "name" : "const AParcel",
   "referenced_type" : "_ZTI7AParcel",
   "self_type" : "_ZTIK7AParcel",
   "source_file" : "frameworks/native/libs/binder/ndk/include_cpp/android/binder_interface_utils.h"
  },
  {
   "alignment" : 4,
   "is_const" : true,
   "linker_set_key" : "_ZTIKN3ndk10SpAIBinderE",
   "name" : "const ndk::SpAIBinder",
   "referenced_type" : "_ZTIN3ndk10SpAIBinderE",
   "self_type" : "_ZTIKN3ndk10SpAIBinderE",
   "size" : 4,
   "source_file" : "frameworks/native/libs/binder/ndk/include_cpp/android/binder_auto_utils.h"
  },
  {
   "alignment" : 4,
   "is_const" : true,
   "linker_set_key" : "_ZTIKN3ndk13ScopedAParcelE",
   "name" : "const ndk::ScopedAParcel",
   "referenced_type" : "_ZTIN3ndk13ScopedAParcelE",
   "self_type" : "_ZTIKN3ndk13ScopedAParcelE",
   "size" : 4,
   "source_file" : "frameworks/native/libs/binder/ndk/include_cpp/android/binder_auto_utils.h"
  },
  {
   "alignment" : 4,
   "is_const" : true,
   "linker_set_key" : "_ZTIKN3ndk13ScopedAStatusE",
   "name" : "const ndk::ScopedAStatus",
   "referenced_type" : "_ZTIN3ndk13ScopedAStatusE",
   "self_type" : "_ZTIKN3ndk13ScopedAStatusE",
   "size" : 4,
   "source_file" : "frameworks/native/libs/binder/ndk/include_cpp/android/binder_auto_utils.h"
  },
  {
   "alignment" : 4,
   "is_const" : true,
   "linker_set_key" : "_ZTIKN3ndk17AParcelableHolderE",
   "name" : "const ndk::AParcelableHolder",
   "referenced_type" : "_ZTIN3ndk17AParcelableHolderE",
   "self_type" : "_ZTIKN3ndk17AParcelableHolderE",
   "size" : 12,
   "source_file" : "frameworks/native/libs/binder/ndk/include_cpp/android/binder_parcelable_utils.h"
  },
  {
   "alignment" : 4,
   "is_const" : true,
   "linker_set_key" : "_ZTIKN3ndk20ScopedFileDescriptorE",
   "name" : "const ndk::ScopedFileDescriptor",
   "referenced_type" : "_ZTIN3ndk20ScopedFileDescriptorE",
   "self_type" : "_ZTIKN3ndk20ScopedFileDescriptorE",
   "size" : 4,
   "source_file" : "frameworks/native/libs/binder/ndk/include_cpp/android/binder_auto_utils.h"
  },
  {
   "alignment" : 4,
   "is_const" : true,
   "linker_set_key" : "_ZTIKN3ndk4impl15ScopedAResourceIP7AParcelXadL_Z14AParcel_deleteEELS3_0EEE",
   "name" : "const ndk::impl::ScopedAResource<AParcel *, &AParcel_delete, nullptr>",
   "referenced_type" : "_ZTIN3ndk4impl15ScopedAResourceIP7AParcelXadL_Z14AParcel_deleteEELS3_0EEE",
   "self_type" : "_ZTIKN3ndk4impl15ScopedAResourceIP7AParcelXadL_Z14AParcel_deleteEELS3_0EEE",
   "size" : 4,
   "source_file" : "frameworks/native/libs/binder/ndk/include_cpp/android/binder_auto_utils.h"
  },
  {
   "alignment" : 4,
   "is_const" : true,
   "linker_set_key" : "_ZTIKN3ndk4impl15ScopedAResourceIP7AStatusXadL_Z14AStatus_deleteEELS3_0EEE",
   "name" : "const ndk::impl::ScopedAResource<AStatus *, &AStatus_delete, nullptr>",
   "referenced_type" : "_ZTIN3ndk4impl15ScopedAResourceIP7AStatusXadL_Z14AStatus_deleteEELS3_0EEE",
   "self_type" : "_ZTIKN3ndk4impl15ScopedAResourceIP7AStatusXadL_Z14AStatus_deleteEELS3_0EEE",
   "size" : 4,
   "source_file" : "frameworks/native/libs/binder/ndk/include_cpp/android/binder_auto_utils.h"
  },
  {
   "alignment" : 4,
   "is_const" : true,
   "linker_set_key" : "_ZTIKN4aidl7android8hardware4wifi7hostapd10ClientInfoE",
   "name" : "const aidl::android::hardware::wifi::hostapd::ClientInfo",
   "referenced_type" : "_ZTIN4aidl7android8hardware4wifi7hostapd10ClientInfoE",
   "self_type" : "_ZTIKN4aidl7android8hardware4wifi7hostapd10ClientInfoE",
   "size" : 40,
   "source_file" : "out/soong/.intermediates/hardware/interfaces/wifi/hostapd/aidl/android.hardware.wifi.hostapd-V1-ndk-source/gen/include/aidl/android/hardware/wifi/hostapd/ClientInfo.h"
  },
  {
   "alignment" : 4,
   "is_const" : true,
   "linker_set_key" : "_ZTIKN4aidl7android8hardware4wifi7hostapd10GenerationE",
   "name" : "const aidl::android::hardware::wifi::hostapd::Generation",
   "referenced_type" : "_ZTIN4aidl7android8hardware4wifi7hostapd10GenerationE",
   "self_type" : "_ZTIKN4aidl7android8hardware4wifi7hostapd10GenerationE",
   "size" : 4,
   "source_file" : "frameworks/native/libs/binder/ndk/include_cpp/android/binder_to_string.h"
  },
  {
   "alignment" : 4,
   "is_const" : true,
   "linker_set_key" : "_ZTIKN4aidl7android8hardware4wifi7hostapd11IfaceParamsE",
   "name" : "const aidl::android::hardware::wifi::hostapd::IfaceParams",
   "referenced_type" : "_ZTIN4aidl7android8hardware4wifi7hostapd11IfaceParamsE",
   "self_type" : "_ZTIKN4aidl7android8hardware4wifi7hostapd11IfaceParamsE",
   "size" : 40,
   "source_file" : "out/soong/.intermediates/hardware/interfaces/wifi/hostapd/aidl/android.hardware.wifi.hostapd-V1-ndk-source/gen/include/aidl/android/hardware/wifi/hostapd/IfaceParams.h"
  },
  {
   "alignment" : 4,
   "is_const" : true,
   "linker_set_key" : "_ZTIKN4aidl7android8hardware4wifi7hostapd12HwModeParamsE",
   "name" : "const aidl::android::hardware::wifi::hostapd::HwModeParams",
   "referenced_type" : "_ZTIN4aidl7android8hardware4wifi7hostapd12HwModeParamsE",
   "self_type" : "_ZTIKN4aidl7android8hardware4wifi7hostapd12HwModeParamsE",
   "size" : 16,
   "source_file" : "out/soong/.intermediates/hardware/interfaces/wifi/hostapd/aidl/android.hardware.wifi.hostapd-V1-ndk-source/gen/include/aidl/android/hardware/wifi/hostapd/HwModeParams.h"
  },
  {
   "alignment" : 4,
   "is_const" : true,
   "linker_set_key" : "_ZTIKN4aidl7android8hardware4wifi7hostapd13ChannelParamsE",
   "name" : "const aidl::android::hardware::wifi::hostapd::ChannelParams",
   "referenced_type" : "_ZTIN4aidl7android8hardware4wifi7hostapd13ChannelParamsE",
   "self_type" : "_ZTIKN4aidl7android8hardware4wifi7hostapd13ChannelParamsE",
   "size" : 24,
   "source_file" : "out/soong/.intermediates/hardware/interfaces/wifi/hostapd/aidl/android.hardware.wifi.hostapd-V1-ndk-source/gen/include/aidl/android/hardware/wifi/hostapd/ChannelParams.h"
  },
  {
   "alignment" : 4,
   "is_const" : true,
   "linker_set_key" : "_ZTIKN4aidl7android8hardware4wifi7hostapd13NetworkParamsE",
   "name" : "const aidl::android::hardware::wifi::hostapd::NetworkParams",
   "referenced_type" : "_ZTIN4aidl7android8hardware4wifi7hostapd13NetworkParamsE",
   "self_type" : "_ZTIKN4aidl7android8hardware4wifi7hostapd13NetworkParamsE",
   "size" : 48,
   "source_file" : "out/soong/.intermediates/hardware/interfaces/wifi/hostapd/aidl/android.hardware.wifi.hostapd-V1-ndk-source/gen/include/aidl/android/hardware/wifi/hostapd/NetworkParams.h"
  },
  {
   "alignment" : 4,
   "is_const" : true,
   "linker_set_key" : "_ZTIKN4aidl7android8hardware4wifi7hostapd14EncryptionTypeE",
   "name" : "const aidl::android::hardware::wifi::hostapd::EncryptionType",
   "referenced_type" : "_ZTIN4aidl7android8hardware4wifi7hostapd14EncryptionTypeE",
   "self_type" : "_ZTIKN4aidl7android8hardware4wifi7hostapd14EncryptionTypeE",
   "size" : 4,
   "source_file" : "frameworks/native/libs/binder/ndk/include_cpp/android/binder_to_string.h"
  },
  {
   "alignment" : 4,
   "is_const" : true,
   "linker_set_key" : "_ZTIKN4aidl7android8hardware4wifi7hostapd14FrequencyRangeE",
   "name" : "const aidl::android::hardware::wifi::hostapd::FrequencyRange",
   "referenced_type" : "_ZTIN4aidl7android8hardware4wifi7hostapd14FrequencyRangeE",
   "self_type" : "_ZTIKN4aidl7android8hardware4wifi7hostapd14FrequencyRangeE",
   "size" : 8,
   "source_file" : "frameworks/native/libs/binder/ndk/include_cpp/android/binder_to_string.h"
  },
  {
   "alignment" : 4,
   "is_const" : true,
   "linker_set_key" : "_ZTIKN4aidl7android8hardware4wifi7hostapd16ChannelBandwidthE",
   "name" : "const aidl::android::hardware::wifi::hostapd::ChannelBandwidth",
   "referenced_type" : "_ZTIN4aidl7android8hardware4wifi7hostapd16ChannelBandwidthE",
   "self_type" : "_ZTIKN4aidl7android8hardware4wifi7hostapd16ChannelBandwidthE",
   "size" : 4,
   "source_file" : "frameworks/native/libs/binder/ndk/include_cpp/android/binder_to_string.h"
  },
  {
   "alignment" : 4,
   "is_const" : true,
   "linker_set_key" : "_ZTIKN4aidl7android8hardware4wifi7hostapd6ApInfoE",
   "name" : "const aidl::android::hardware::wifi::hostapd::ApInfo",
   "referenced_type" : "_ZTIN4aidl7android8hardware4wifi7hostapd6ApInfoE",
   "self_type" : "_ZTIKN4aidl7android8hardware4wifi7hostapd6ApInfoE",
   "size" : 48,
   "source_file" : "out/soong/.intermediates/hardware/interfaces/wifi/hostapd/aidl/android.hardware.wifi.hostapd-V1-ndk-source/gen/include/aidl/android/hardware/wifi/hostapd/ApInfo.h"
  },
  {
   "alignment" : 4,
   "is_const" : true,
   "linker_set_key" : "_ZTIKN4aidl7android8hardware4wifi7hostapd8BandMaskE",
   "name" : "const aidl::android::hardware::wifi::hostapd::BandMask",
   "referenced_type" : "_ZTIN4aidl7android8hardware4wifi7hostapd8BandMaskE",
   "self_type" : "_ZTIKN4aidl7android8hardware4wifi7hostapd8BandMaskE",
   "size" : 4,
   "source_file" : "frameworks/native/libs/binder/ndk/include_cpp/android/binder_to_string.h"
  },
  {
   "alignment" : 4,
   "is_const" : true,
   "linker_set_key" : "_ZTIKNSt3__110shared_ptrIN4aidl7android8hardware4wifi7hostapd16IHostapdCallbackEEE",
   "name" : "const std::shared_ptr<aidl::android::hardware::wifi::hostapd::IHostapdCallback>",
   "referenced_type" : "_ZTINSt3__110shared_ptrIN4aidl7android8hardware4wifi7hostapd16IHostapdCallbackEEE",
   "self_type" : "_ZTIKNSt3__110shared_ptrIN4aidl7android8hardware4wifi7hostapd16IHostapdCallbackEEE",
   "size" : 8,
   "source_file" : "out/soong/.intermediates/hardware/interfaces/wifi/hostapd/aidl/android.hardware.wifi.hostapd-V1-ndk-source/gen/include/aidl/android/hardware/wifi/hostapd/IHostapd.h"
  },
  {
   "alignment" : 4,
   "is_const" : true,
   "linker_set_key" : "_ZTIKNSt3__110shared_ptrIN4aidl7android8hardware4wifi7hostapd8IHostapdEEE",
   "name" : "const std::shared_ptr<aidl::android::hardware::wifi::hostapd::IHostapd>",
   "referenced_type" : "_ZTINSt3__110shared_ptrIN4aidl7android8hardware4wifi7hostapd8IHostapdEEE",
   "self_type" : "_ZTIKNSt3__110shared_ptrIN4aidl7android8hardware4wifi7hostapd8IHostapdEEE",
   "size" : 8,
   "source_file" : "out/soong/.intermediates/hardware/interfaces/wifi/hostapd/aidl/android.hardware.wifi.hostapd-V1-ndk-source/gen/include/aidl/android/hardware/wifi/hostapd/IHostapd.h"
  },
  {
   "alignment" : 4,
   "is_const" : true,
   "linker_set_key" : "_ZTIKNSt3__112basic_stringIcNS_11char_traitsIcEENS_9allocatorIcEEEE",
   "name" : "const std::basic_string<char, std::char_traits<char>, std::allocator<char>>",
   "referenced_type" : "_ZTINSt3__112basic_stringIcNS_11char_traitsIcEENS_9allocatorIcEEEE",
   "self_type" : "_ZTIKNSt3__112basic_stringIcNS_11char_traitsIcEENS_9allocatorIcEEEE",
   "size" : 12,
   "source_file" : "frameworks/native/libs/binder/ndk/include_cpp/android/binder_to_string.h"
  },
  {
   "alignment" : 4,
   "is_const" : true,
   "linker_set_key" : "_ZTIKNSt3__15arrayIN4aidl7android8hardware4wifi7hostapd10DebugLevelELj6EEE",
   "name" : "const std::array<aidl::android::hardware::wifi::hostapd::DebugLevel, 6U>",
   "referenced_type" : "_ZTINSt3__15arrayIN4aidl7android8hardware4wifi7hostapd10DebugLevelELj6EEE",
   "self_type" : "_ZTIKNSt3__15arrayIN4aidl7android8hardware4wifi7hostapd10DebugLevelELj6EEE",
   "size" : 24,
   "source_file" : "out/soong/.intermediates/hardware/interfaces/wifi/hostapd/aidl/android.hardware.wifi.hostapd-V1-ndk-source/gen/include/aidl/android/hardware/wifi/hostapd/DebugLevel.h"
  },
  {
   "alignment" : 4,
   "is_const" : true,
   "linker_set_key" : "_ZTIKNSt3__15arrayIN4aidl7android8hardware4wifi7hostapd10GenerationELj7EEE",
   "name" : "const std::array<aidl::android::hardware::wifi::hostapd::Generation, 7U>",
   "referenced_type" : "_ZTINSt3__15arrayIN4aidl7android8hardware4wifi7hostapd10GenerationELj7EEE",
   "self_type" : "_ZTIKNSt3__15arrayIN4aidl7android8hardware4wifi7hostapd10GenerationELj7EEE",
   "size" : 28,
   "source_file" : "out/soong/.intermediates/hardware/interfaces/wifi/hostapd/aidl/android.hardware.wifi.hostapd-V1-ndk-source/gen/include/aidl/android/hardware/wifi/hostapd/Generation.h"
  },
  {
   "alignment" : 4,
   "is_const" : true,
   "linker_set_key" : "_ZTIKNSt3__15arrayIN4aidl7android8hardware4wifi7hostapd14EncryptionTypeELj7EEE",
   "name" : "const std::array<aidl::android::hardware::wifi::hostapd::EncryptionType, 7U>",
   "referenced_type" : "_ZTINSt3__15arrayIN4aidl7android8hardware4wifi7hostapd14EncryptionTypeELj7EEE",
   "self_type" : "_ZTIKNSt3__15arrayIN4aidl7android8hardware4wifi7hostapd14EncryptionTypeELj7EEE",
   "size" : 28,
   "source_file" : "out/soong/.intermediates/hardware/interfaces/wifi/hostapd/aidl/android.hardware.wifi.hostapd-V1-ndk-source/gen/include/aidl/android/hardware/wifi/hostapd/EncryptionType.h"
  },
  {
   "alignment" : 4,
   "is_const" : true,
   "linker_set_key" : "_ZTIKNSt3__15arrayIN4aidl7android8hardware4wifi7hostapd16ChannelBandwidthELj13EEE",
   "name" : "const std::array<aidl::android::hardware::wifi::hostapd::ChannelBandwidth, 13U>",
   "referenced_type" : "_ZTINSt3__15arrayIN4aidl7android8hardware4wifi7hostapd16ChannelBandwidthELj13EEE",
   "self_type" : "_ZTIKNSt3__15arrayIN4aidl7android8hardware4wifi7hostapd16ChannelBandwidthELj13EEE",
   "size" : 52,
   "source_file" : "out/soong/.intermediates/hardware/interfaces/wifi/hostapd/aidl/android.hardware.wifi.hostapd-V1-ndk-source/gen/include/aidl/android/hardware/wifi/hostapd/ChannelBandwidth.h"
  },
  {
   "alignment" : 4,
   "is_const" : true,
   "linker_set_key" : "_ZTIKNSt3__15arrayIN4aidl7android8hardware4wifi7hostapd19Ieee80211ReasonCodeELj3EEE",
   "name" : "const std::array<aidl::android::hardware::wifi::hostapd::Ieee80211ReasonCode, 3U>",
   "referenced_type" : "_ZTINSt3__15arrayIN4aidl7android8hardware4wifi7hostapd19Ieee80211ReasonCodeELj3EEE",
   "self_type" : "_ZTIKNSt3__15arrayIN4aidl7android8hardware4wifi7hostapd19Ieee80211ReasonCodeELj3EEE",
   "size" : 12,
   "source_file" : "out/soong/.intermediates/hardware/interfaces/wifi/hostapd/aidl/android.hardware.wifi.hostapd-V1-ndk-source/gen/include/aidl/android/hardware/wifi/hostapd/Ieee80211ReasonCode.h"
  },
  {
   "alignment" : 4,
   "is_const" : true,
   "linker_set_key" : "_ZTIKNSt3__15arrayIN4aidl7android8hardware4wifi7hostapd8BandMaskELj4EEE",
   "name" : "const std::array<aidl::android::hardware::wifi::hostapd::BandMask, 4U>",
   "referenced_type" : "_ZTINSt3__15arrayIN4aidl7android8hardware4wifi7hostapd8BandMaskELj4EEE",
   "self_type" : "_ZTIKNSt3__15arrayIN4aidl7android8hardware4wifi7hostapd8BandMaskELj4EEE",
   "size" : 16,
   "source_file" : "out/soong/.intermediates/hardware/interfaces/wifi/hostapd/aidl/android.hardware.wifi.hostapd-V1-ndk-source/gen/include/aidl/android/hardware/wifi/hostapd/BandMask.h"
  },
  {
   "alignment" : 4,
   "is_const" : true,
   "linker_set_key" : "_ZTIKNSt3__16vectorIDsNS_9allocatorIDsEEEE",
   "name" : "const std::vector<char16_t, std::allocator<char16_t>>",
   "referenced_type" : "_ZTINSt3__16vectorIDsNS_9allocatorIDsEEEE",
   "self_type" : "_ZTIKNSt3__16vectorIDsNS_9allocatorIDsEEEE",
   "size" : 12,
   "source_file" : "frameworks/native/libs/binder/ndk/include_cpp/android/binder_parcel_utils.h"
  },
  {
   "alignment" : 4,
   "is_const" : true,
   "linker_set_key" : "_ZTIKNSt3__16vectorIN4aidl7android8hardware4wifi7hostapd13ChannelParamsENS_9allocatorIS6_EEEE",
   "name" : "const std::vector<aidl::android::hardware::wifi::hostapd::ChannelParams, std::allocator<aidl::android::hardware::wifi::hostapd::ChannelParams>>",
   "referenced_type" : "_ZTINSt3__16vectorIN4aidl7android8hardware4wifi7hostapd13ChannelParamsENS_9allocatorIS6_EEEE",
   "self_type" : "_ZTIKNSt3__16vectorIN4aidl7android8hardware4wifi7hostapd13ChannelParamsENS_9allocatorIS6_EEEE",
   "size" : 12,
   "source_file" : "frameworks/native/libs/binder/ndk/include_cpp/android/binder_to_string.h"
  },
  {
   "alignment" : 4,
   "is_const" : true,
   "linker_set_key" : "_ZTIKNSt3__16vectorIN4aidl7android8hardware4wifi7hostapd14FrequencyRangeENS_9allocatorIS6_EEEE",
   "name" : "const std::vector<aidl::android::hardware::wifi::hostapd::FrequencyRange, std::allocator<aidl::android::hardware::wifi::hostapd::FrequencyRange>>",
   "referenced_type" : "_ZTINSt3__16vectorIN4aidl7android8hardware4wifi7hostapd14FrequencyRangeENS_9allocatorIS6_EEEE",
   "self_type" : "_ZTIKNSt3__16vectorIN4aidl7android8hardware4wifi7hostapd14FrequencyRangeENS_9allocatorIS6_EEEE",
   "size" : 12,
   "source_file" : "frameworks/native/libs/binder/ndk/include_cpp/android/binder_to_string.h"
  },
  {
   "alignment" : 4,
   "is_const" : true,
   "linker_set_key" : "_ZTIKNSt3__16vectorIbNS_9allocatorIbEEEE",
   "name" : "const std::vector<bool, std::allocator<bool>>",
   "referenced_type" : "_ZTINSt3__16vectorIbNS_9allocatorIbEEEE",
   "self_type" : "_ZTIKNSt3__16vectorIbNS_9allocatorIbEEEE",
   "size" : 12,
   "source_file" : "frameworks/native/libs/binder/ndk/include_cpp/android/binder_parcel_utils.h"
  },
  {
   "alignment" : 4,
   "is_const" : true,
   "linker_set_key" : "_ZTIKNSt3__16vectorIdNS_9allocatorIdEEEE",
   "name" : "const std::vector<double, std::allocator<double>>",
   "referenced_type" : "_ZTINSt3__16vectorIdNS_9allocatorIdEEEE",
   "self_type" : "_ZTIKNSt3__16vectorIdNS_9allocatorIdEEEE",
   "size" : 12,
   "source_file" : "frameworks/native/libs/binder/ndk/include_cpp/android/binder_parcel_utils.h"
  },
  {
   "alignment" : 4,
   "is_const" : true,
   "linker_set_key" : "_ZTIKNSt3__16vectorIfNS_9allocatorIfEEEE",
   "name" : "const std::vector<float, std::allocator<float>>",
   "referenced_type" : "_ZTINSt3__16vectorIfNS_9allocatorIfEEEE",
   "self_type" : "_ZTIKNSt3__16vectorIfNS_9allocatorIfEEEE",
   "size" : 12,
   "source_file" : "frameworks/native/libs/binder/ndk/include_cpp/android/binder_parcel_utils.h"
  },
  {
   "alignment" : 4,
   "is_const" : true,
   "linker_set_key" : "_ZTIKNSt3__16vectorIhNS_9allocatorIhEEEE",
   "name" : "const std::vector<unsigned char, std::allocator<unsigned char>>",
   "referenced_type" : "_ZTINSt3__16vectorIhNS_9allocatorIhEEEE",
   "self_type" : "_ZTIKNSt3__16vectorIhNS_9allocatorIhEEEE",
   "size" : 12,
   "source_file" : "frameworks/native/libs/binder/ndk/include_cpp/android/binder_parcel_utils.h"
  },
  {
   "alignment" : 4,
   "is_const" : true,
   "linker_set_key" : "_ZTIKNSt3__16vectorIiNS_9allocatorIiEEEE",
   "name" : "const std::vector<int, std::allocator<int>>",
   "referenced_type" : "_ZTINSt3__16vectorIiNS_9allocatorIiEEEE",
   "self_type" : "_ZTIKNSt3__16vectorIiNS_9allocatorIiEEEE",
   "size" : 12,
   "source_file" : "frameworks/native/libs/binder/ndk/include_cpp/android/binder_parcel_utils.h"
  },
  {
   "alignment" : 4,
   "is_const" : true,
   "linker_set_key" : "_ZTIKNSt3__16vectorIjNS_9allocatorIjEEEE",
   "name" : "const std::vector<unsigned int, std::allocator<unsigned int>>",
   "referenced_type" : "_ZTINSt3__16vectorIjNS_9allocatorIjEEEE",
   "self_type" : "_ZTIKNSt3__16vectorIjNS_9allocatorIjEEEE",
   "size" : 12,
   "source_file" : "frameworks/native/libs/binder/ndk/include_cpp/android/binder_parcel_utils.h"
  },
  {
   "alignment" : 4,
   "is_const" : true,
   "linker_set_key" : "_ZTIKNSt3__16vectorIxNS_9allocatorIxEEEE",
   "name" : "const std::vector<long long, std::allocator<long long>>",
   "referenced_type" : "_ZTINSt3__16vectorIxNS_9allocatorIxEEEE",
   "self_type" : "_ZTIKNSt3__16vectorIxNS_9allocatorIxEEEE",
   "size" : 12,
   "source_file" : "frameworks/native/libs/binder/ndk/include_cpp/android/binder_parcel_utils.h"
  },
  {
   "alignment" : 4,
   "is_const" : true,
   "linker_set_key" : "_ZTIKNSt3__16vectorIyNS_9allocatorIyEEEE",
   "name" : "const std::vector<unsigned long long, std::allocator<unsigned long long>>",
   "referenced_type" : "_ZTINSt3__16vectorIyNS_9allocatorIyEEEE",
   "self_type" : "_ZTIKNSt3__16vectorIyNS_9allocatorIyEEEE",
   "size" : 12,
   "source_file" : "frameworks/native/libs/binder/ndk/include_cpp/android/binder_parcel_utils.h"
  },
  {
   "alignment" : 4,
   "is_const" : true,
   "linker_set_key" : "_ZTIKNSt3__18optionalINS_6vectorIDsNS_9allocatorIDsEEEEEE",
   "name" : "const std::optional<std::vector<char16_t, std::allocator<char16_t>>>",
   "referenced_type" : "_ZTINSt3__18optionalINS_6vectorIDsNS_9allocatorIDsEEEEEE",
   "self_type" : "_ZTIKNSt3__18optionalINS_6vectorIDsNS_9allocatorIDsEEEEEE",
   "size" : 16,
   "source_file" : "frameworks/native/libs/binder/ndk/include_cpp/android/binder_parcel_utils.h"
  },
  {
   "alignment" : 4,
   "is_const" : true,
   "linker_set_key" : "_ZTIKNSt3__18optionalINS_6vectorIbNS_9allocatorIbEEEEEE",
   "name" : "const std::optional<std::vector<bool, std::allocator<bool>>>",
   "referenced_type" : "_ZTINSt3__18optionalINS_6vectorIbNS_9allocatorIbEEEEEE",
   "self_type" : "_ZTIKNSt3__18optionalINS_6vectorIbNS_9allocatorIbEEEEEE",
   "size" : 16,
   "source_file" : "frameworks/native/libs/binder/ndk/include_cpp/android/binder_parcel_utils.h"
  },
  {
   "alignment" : 4,
   "is_const" : true,
   "linker_set_key" : "_ZTIKNSt3__18optionalINS_6vectorIdNS_9allocatorIdEEEEEE",
   "name" : "const std::optional<std::vector<double, std::allocator<double>>>",
   "referenced_type" : "_ZTINSt3__18optionalINS_6vectorIdNS_9allocatorIdEEEEEE",
   "self_type" : "_ZTIKNSt3__18optionalINS_6vectorIdNS_9allocatorIdEEEEEE",
   "size" : 16,
   "source_file" : "frameworks/native/libs/binder/ndk/include_cpp/android/binder_parcel_utils.h"
  },
  {
   "alignment" : 4,
   "is_const" : true,
   "linker_set_key" : "_ZTIKNSt3__18optionalINS_6vectorIfNS_9allocatorIfEEEEEE",
   "name" : "const std::optional<std::vector<float, std::allocator<float>>>",
   "referenced_type" : "_ZTINSt3__18optionalINS_6vectorIfNS_9allocatorIfEEEEEE",
   "self_type" : "_ZTIKNSt3__18optionalINS_6vectorIfNS_9allocatorIfEEEEEE",
   "size" : 16,
   "source_file" : "frameworks/native/libs/binder/ndk/include_cpp/android/binder_parcel_utils.h"
  },
  {
   "alignment" : 4,
   "is_const" : true,
   "linker_set_key" : "_ZTIKNSt3__18optionalINS_6vectorIhNS_9allocatorIhEEEEEE",
   "name" : "const std::optional<std::vector<unsigned char, std::allocator<unsigned char>>>",
   "referenced_type" : "_ZTINSt3__18optionalINS_6vectorIhNS_9allocatorIhEEEEEE",
   "self_type" : "_ZTIKNSt3__18optionalINS_6vectorIhNS_9allocatorIhEEEEEE",
   "size" : 16,
   "source_file" : "frameworks/native/libs/binder/ndk/include_cpp/android/binder_parcel_utils.h"
  },
  {
   "alignment" : 4,
   "is_const" : true,
   "linker_set_key" : "_ZTIKNSt3__18optionalINS_6vectorIiNS_9allocatorIiEEEEEE",
   "name" : "const std::optional<std::vector<int, std::allocator<int>>>",
   "referenced_type" : "_ZTINSt3__18optionalINS_6vectorIiNS_9allocatorIiEEEEEE",
   "self_type" : "_ZTIKNSt3__18optionalINS_6vectorIiNS_9allocatorIiEEEEEE",
   "size" : 16,
   "source_file" : "frameworks/native/libs/binder/ndk/include_cpp/android/binder_parcel_utils.h"
  },
  {
   "alignment" : 4,
   "is_const" : true,
   "linker_set_key" : "_ZTIKNSt3__18optionalINS_6vectorIjNS_9allocatorIjEEEEEE",
   "name" : "const std::optional<std::vector<unsigned int, std::allocator<unsigned int>>>",
   "referenced_type" : "_ZTINSt3__18optionalINS_6vectorIjNS_9allocatorIjEEEEEE",
   "self_type" : "_ZTIKNSt3__18optionalINS_6vectorIjNS_9allocatorIjEEEEEE",
   "size" : 16,
   "source_file" : "frameworks/native/libs/binder/ndk/include_cpp/android/binder_parcel_utils.h"
  },
  {
   "alignment" : 4,
   "is_const" : true,
   "linker_set_key" : "_ZTIKNSt3__18optionalINS_6vectorIxNS_9allocatorIxEEEEEE",
   "name" : "const std::optional<std::vector<long long, std::allocator<long long>>>",
   "referenced_type" : "_ZTINSt3__18optionalINS_6vectorIxNS_9allocatorIxEEEEEE",
   "self_type" : "_ZTIKNSt3__18optionalINS_6vectorIxNS_9allocatorIxEEEEEE",
   "size" : 16,
   "source_file" : "frameworks/native/libs/binder/ndk/include_cpp/android/binder_parcel_utils.h"
  },
  {
   "alignment" : 4,
   "is_const" : true,
   "linker_set_key" : "_ZTIKNSt3__18optionalINS_6vectorIyNS_9allocatorIyEEEEEE",
   "name" : "const std::optional<std::vector<unsigned long long, std::allocator<unsigned long long>>>",
   "referenced_type" : "_ZTINSt3__18optionalINS_6vectorIyNS_9allocatorIyEEEEEE",
   "self_type" : "_ZTIKNSt3__18optionalINS_6vectorIyNS_9allocatorIyEEEEEE",
   "size" : 16,
   "source_file" : "frameworks/native/libs/binder/ndk/include_cpp/android/binder_parcel_utils.h"
  },
  {
   "alignment" : 4,
   "is_const" : true,
   "linker_set_key" : "_ZTIKP7AParcel",
   "name" : "AParcel *const",
   "referenced_type" : "_ZTIP7AParcel",
   "self_type" : "_ZTIKP7AParcel",
   "size" : 4,
   "source_file" : "frameworks/native/libs/binder/ndk/include_cpp/android/binder_auto_utils.h"
  },
  {
   "alignment" : 4,
   "is_const" : true,
   "linker_set_key" : "_ZTIKP7AStatus",
   "name" : "AStatus *const",
   "referenced_type" : "_ZTIP7AStatus",
   "self_type" : "_ZTIKP7AStatus",
   "size" : 4,
   "source_file" : "frameworks/native/libs/binder/ndk/include_cpp/android/binder_auto_utils.h"
  },
  {
   "alignment" : 1,
   "is_const" : true,
   "linker_set_key" : "_ZTIKb",
   "name" : "const bool",
   "referenced_type" : "_ZTIb",
   "self_type" : "_ZTIKb",
   "size" : 1,
   "source_file" : "frameworks/native/libs/binder/ndk/include_cpp/android/binder_parcel_utils.h"
  },
  {
   "alignment" : 1,
   "is_const" : true,
   "linker_set_key" : "_ZTIKc",
   "name" : "const char",
   "referenced_type" : "_ZTIc",
   "self_type" : "_ZTIKc",
   "size" : 1,
   "source_file" : "frameworks/native/libs/binder/ndk/include_cpp/android/binder_auto_utils.h"
  },
  {
   "alignment" : 1,
   "is_const" : true,
   "linker_set_key" : "_ZTIKh",
   "name" : "const unsigned char",
   "referenced_type" : "_ZTIh",
   "self_type" : "_ZTIKh",
   "size" : 1,
   "source_file" : "frameworks/native/libs/binder/ndk/include_cpp/android/binder_to_string.h"
  },
  {
   "alignment" : 4,
   "is_const" : true,
   "linker_set_key" : "_ZTIKi",
   "name" : "const int",
   "referenced_type" : "_ZTIi",
   "self_type" : "_ZTIKi",
   "size" : 4,
   "source_file" : "frameworks/native/libs/binder/ndk/include_cpp/android/binder_to_string.h"
  },
  {
   "alignment" : 4,
   "is_const" : true,
   "linker_set_key" : "_ZTIKj",
   "name" : "const unsigned int",
   "referenced_type" : "_ZTIj",
   "self_type" : "_ZTIKj",
   "size" : 4,
   "source_file" : "out/soong/.intermediates/hardware/interfaces/wifi/hostapd/aidl/android.hardware.wifi.hostapd-V1-ndk-source/gen/include/aidl/android/hardware/wifi/hostapd/IHostapdCallback.h"
  },
  {
   "is_const" : true,
   "linker_set_key" : "_ZTIKv",
   "name" : "const void",
   "referenced_type" : "_ZTIv",
   "self_type" : "_ZTIKv",
   "source_file" : "frameworks/native/libs/binder/ndk/include_cpp/android/binder_parcel_utils.h"
  }
 ],
 "record_types" :
 [
  {
   "alignment" : 4,
   "fields" :
   [
    {
     "access" : "private",
     "field_name" : "mBinder",
     "referenced_type" : "_ZTIP8AIBinder"
    }
   ],
   "linker_set_key" : "_ZTIN3ndk10SpAIBinderE",
   "name" : "ndk::SpAIBinder",
   "record_kind" : "class",
   "referenced_type" : "_ZTIN3ndk10SpAIBinderE",
   "self_type" : "_ZTIN3ndk10SpAIBinderE",
   "size" : 4,
   "source_file" : "frameworks/native/libs/binder/ndk/include_cpp/android/binder_auto_utils.h"
  },
  {
   "access" : "private",
   "alignment" : 4,
   "fields" :
   [
    {
     "field_name" : "interface",
     "referenced_type" : "_ZTINSt3__110shared_ptrIN3ndk11ICInterfaceEEE"
    }
   ],
   "linker_set_key" : "_ZTIN3ndk11ICInterface15ICInterfaceDataE",
   "name" : "ndk::ICInterface::ICInterfaceData",
   "record_kind" : "class",
   "referenced_type" : "_ZTIN3ndk11ICInterface15ICInterfaceDataE",
   "self_type" : "_ZTIN3ndk11ICInterface15ICInterfaceDataE",
   "size" : 8,
   "source_file" : "frameworks/native/libs/binder/ndk/include_cpp/android/binder_interface_utils.h"
  },
  {
   "alignment" : 4,
   "base_specifiers" :
   [
    {
     "referenced_type" : "_ZTIN3ndk13SharedRefBaseE"
    }
   ],
   "linker_set_key" : "_ZTIN3ndk11ICInterfaceE",
   "name" : "ndk::ICInterface",
   "record_kind" : "class",
   "referenced_type" : "_ZTIN3ndk11ICInterfaceE",
   "self_type" : "_ZTIN3ndk11ICInterfaceE",
   "size" : 16,
   "source_file" : "frameworks/native/libs/binder/ndk/include_cpp/android/binder_interface_utils.h",
   "vtable_components" :
   [
    {
     "kind" : "offset_to_top"
    },
    {
     "kind" : "rtti",
     "mangled_component_name" : "_ZTIN3ndk11ICInterfaceE"
    },
    {
     "kind" : "complete_dtor_pointer",
     "mangled_component_name" : "_ZN3ndk11ICInterfaceD1Ev"
    },
    {
     "kind" : "deleting_dtor_pointer",
     "mangled_component_name" : "_ZN3ndk11ICInterfaceD0Ev"
    },
    {
     "is_pure" : true,
     "mangled_component_name" : "_ZN3ndk11ICInterface8asBinderEv"
    },
    {
     "is_pure" : true,
     "mangled_component_name" : "_ZN3ndk11ICInterface8isRemoteEv"
    },
    {
     "mangled_component_name" : "_ZN3ndk11ICInterface4dumpEiPPKcj"
    },
    {
     "mangled_component_name" : "_ZN3ndk11ICInterface18handleShellCommandEiiiPPKcj"
    }
   ]
  },
  {
   "alignment" : 4,
   "base_specifiers" :
   [
    {
     "referenced_type" : "_ZTIN4aidl7android8hardware4wifi7hostapd16IHostapdCallbackE"
    }
   ],
   "fields" :
   [
    {
     "access" : "private",
     "field_name" : "mMutex",
     "field_offset" : 128,
     "referenced_type" : "_ZTINSt3__15mutexE"
    },
    {
     "access" : "private",
     "field_name" : "mWeakBinder",
     "field_offset" : 160,
     "referenced_type" : "_ZTIN3ndk19ScopedAIBinder_WeakE"
    }
   ],
   "linker_set_key" : "_ZTIN3ndk12BnCInterfaceIN4aidl7android8hardware4wifi7hostapd16IHostapdCallbackEEE",
   "name" : "ndk::BnCInterface<aidl::android::hardware::wifi::hostapd::IHostapdCallback>",
   "record_kind" : "class",
   "referenced_type" : "_ZTIN3ndk12BnCInterfaceIN4aidl7android8hardware4wifi7hostapd16IHostapdCallbackEEE",
   "self_type" : "_ZTIN3ndk12BnCInterfaceIN4aidl7android8hardware4wifi7hostapd16IHostapdCallbackEEE",
   "size" : 24,
   "source_file" : "frameworks/native/libs/binder/ndk/include_cpp/android/binder_interface_utils.h",
   "template_args" :
   [
    "_ZTIN4aidl7android8hardware4wifi7hostapd16IHostapdCallbackE"
   ],
   "vtable_components" :
   [
    {
     "kind" : "offset_to_top"
    },
    {
     "kind" : "rtti",
     "mangled_component_name" : "_ZTIN3ndk12BnCInterfaceIN4aidl7android8hardware4wifi7hostapd16IHostapdCallbackEEE"
    },
    {
     "kind" : "complete_dtor_pointer",
     "mangled_component_name" : "_ZN3ndk12BnCInterfaceIN4aidl7android8hardware4wifi7hostapd16IHostapdCallbackEED1Ev"
    },
    {
     "kind" : "deleting_dtor_pointer",
     "mangled_component_name" : "_ZN3ndk12BnCInterfaceIN4aidl7android8hardware4wifi7hostapd16IHostapdCallbackEED0Ev"
    },
    {
     "mangled_component_name" : "_ZN3ndk12BnCInterfaceIN4aidl7android8hardware4wifi7hostapd16IHostapdCallbackEE8asBinderEv"
    },
    {
     "mangled_component_name" : "_ZN3ndk12BnCInterfaceIN4aidl7android8hardware4wifi7hostapd16IHostapdCallbackEE8isRemoteEv"
    },
    {
     "mangled_component_name" : "_ZN3ndk11ICInterface4dumpEiPPKcj"
    },
    {
     "mangled_component_name" : "_ZN3ndk11ICInterface18handleShellCommandEiiiPPKcj"
    },
    {
     "is_pure" : true,
     "mangled_component_name" : "_ZN4aidl7android8hardware4wifi7hostapd16IHostapdCallback23onApInstanceInfoChangedERKNS3_6ApInfoE"
    },
    {
     "is_pure" : true,
     "mangled_component_name" : "_ZN4aidl7android8hardware4wifi7hostapd16IHostapdCallback25onConnectedClientsChangedERKNS3_10ClientInfoE"
    },
    {
     "is_pure" : true,
     "mangled_component_name" : "_ZN4aidl7android8hardware4wifi7hostapd16IHostapdCallback9onFailureERKNSt3__112basic_stringIcNS5_11char_traitsIcEENS5_9allocatorIcEEEESD_"
    },
    {
     "is_pure" : true,
     "mangled_component_name" : "_ZN4aidl7android8hardware4wifi7hostapd16IHostapdCallback19getInterfaceVersionEPi"
    },
    {
     "is_pure" : true,
     "mangled_component_name" : "_ZN4aidl7android8hardware4wifi7hostapd16IHostapdCallback16getInterfaceHashEPNSt3__112basic_stringIcNS5_11char_traitsIcEENS5_9allocatorIcEEEE"
    },
    {
     "is_pure" : true,
     "mangled_component_name" : "_ZN3ndk12BnCInterfaceIN4aidl7android8hardware4wifi7hostapd16IHostapdCallbackEE12createBinderEv"
    }
   ]
  },
  {
   "alignment" : 4,
   "base_specifiers" :
   [
    {
     "referenced_type" : "_ZTIN4aidl7android8hardware4wifi7hostapd8IHostapdE"
    }
   ],
   "fields" :
   [
    {
     "access" : "private",
     "field_name" : "mMutex",
     "field_offset" : 128,
     "referenced_type" : "_ZTINSt3__15mutexE"
    },
    {
     "access" : "private",
     "field_name" : "mWeakBinder",
     "field_offset" : 160,
     "referenced_type" : "_ZTIN3ndk19ScopedAIBinder_WeakE"
    }
   ],
   "linker_set_key" : "_ZTIN3ndk12BnCInterfaceIN4aidl7android8hardware4wifi7hostapd8IHostapdEEE",
   "name" : "ndk::BnCInterface<aidl::android::hardware::wifi::hostapd::IHostapd>",
   "record_kind" : "class",
   "referenced_type" : "_ZTIN3ndk12BnCInterfaceIN4aidl7android8hardware4wifi7hostapd8IHostapdEEE",
   "self_type" : "_ZTIN3ndk12BnCInterfaceIN4aidl7android8hardware4wifi7hostapd8IHostapdEEE",
   "size" : 24,
   "source_file" : "frameworks/native/libs/binder/ndk/include_cpp/android/binder_interface_utils.h",
   "template_args" :
   [
    "_ZTIN4aidl7android8hardware4wifi7hostapd8IHostapdE"
   ],
   "vtable_components" :
   [
    {
     "kind" : "offset_to_top"
    },
    {
     "kind" : "rtti",
     "mangled_component_name" : "_ZTIN3ndk12BnCInterfaceIN4aidl7android8hardware4wifi7hostapd8IHostapdEEE"
    },
    {
     "kind" : "complete_dtor_pointer",
     "mangled_component_name" : "_ZN3ndk12BnCInterfaceIN4aidl7android8hardware4wifi7hostapd8IHostapdEED1Ev"
    },
    {
     "kind" : "deleting_dtor_pointer",
     "mangled_component_name" : "_ZN3ndk12BnCInterfaceIN4aidl7android8hardware4wifi7hostapd8IHostapdEED0Ev"
    },
    {
     "mangled_component_name" : "_ZN3ndk12BnCInterfaceIN4aidl7android8hardware4wifi7hostapd8IHostapdEE8asBinderEv"
    },
    {
     "mangled_component_name" : "_ZN3ndk12BnCInterfaceIN4aidl7android8hardware4wifi7hostapd8IHostapdEE8isRemoteEv"
    },
    {
     "mangled_component_name" : "_ZN3ndk11ICInterface4dumpEiPPKcj"
    },
    {
     "mangled_component_name" : "_ZN3ndk11ICInterface18handleShellCommandEiiiPPKcj"
    },
    {
     "is_pure" : true,
     "mangled_component_name" : "_ZN4aidl7android8hardware4wifi7hostapd8IHostapd14addAccessPointERKNS3_11IfaceParamsERKNS3_13NetworkParamsE"
    },
    {
     "is_pure" : true,
     "mangled_component_name" : "_ZN4aidl7android8hardware4wifi7hostapd8IHostapd21forceClientDisconnectERKNSt3__112basic_stringIcNS5_11char_traitsIcEENS5_9allocatorIcEEEERKNS5_6vectorIhNS9_IhEEEENS3_19Ieee80211ReasonCodeE"
    },
    {
     "is_pure" : true,
     "mangled_component_name" : "_ZN4aidl7android8hardware4wifi7hostapd8IHostapd16registerCallbackERKNSt3__110shared_ptrINS3_16IHostapdCallbackEEE"
    },
    {
     "is_pure" : true,
     "mangled_component_name" : "_ZN4aidl7android8hardware4wifi7hostapd8IHostapd17removeAccessPointERKNSt3__112basic_stringIcNS5_11char_traitsIcEENS5_9allocatorIcEEEE"
    },
    {
     "is_pure" : true,
     "mangled_component_name" : "_ZN4aidl7android8hardware4wifi7hostapd8IHostapd14setDebugParamsENS3_10DebugLevelE"
    },
    {
     "is_pure" : true,
     "mangled_component_name" : "_ZN4aidl7android8hardware4wifi7hostapd8IHostapd9terminateEv"
    },
    {
     "is_pure" : true,
     "mangled_component_name" : "_ZN4aidl7android8hardware4wifi7hostapd8IHostapd19getInterfaceVersionEPi"
    },
    {
     "is_pure" : true,
     "mangled_component_name" : "_ZN4aidl7android8hardware4wifi7hostapd8IHostapd16getInterfaceHashEPNSt3__112basic_stringIcNS5_11char_traitsIcEENS5_9allocatorIcEEEE"
    },
    {
     "is_pure" : true,
     "mangled_component_name" : "_ZN3ndk12BnCInterfaceIN4aidl7android8hardware4wifi7hostapd8IHostapdEE12createBinderEv"
    }
   ]
  },
  {
   "alignment" : 4,
   "base_specifiers" :
   [
    {
     "referenced_type" : "_ZTIN4aidl7android8hardware4wifi7hostapd16IHostapdCallbackE"
    }
   ],
   "fields" :
   [
    {
     "access" : "private",
     "field_name" : "mBinder",
     "field_offset" : 128,
     "referenced_type" : "_ZTIN3ndk10SpAIBinderE"
    }
   ],
   "linker_set_key" : "_ZTIN3ndk12BpCInterfaceIN4aidl7android8hardware4wifi7hostapd16IHostapdCallbackEEE",
   "name" : "ndk::BpCInterface<aidl::android::hardware::wifi::hostapd::IHostapdCallback>",
   "record_kind" : "class",
   "referenced_type" : "_ZTIN3ndk12BpCInterfaceIN4aidl7android8hardware4wifi7hostapd16IHostapdCallbackEEE",
   "self_type" : "_ZTIN3ndk12BpCInterfaceIN4aidl7android8hardware4wifi7hostapd16IHostapdCallbackEEE",
   "size" : 20,
   "source_file" : "frameworks/native/libs/binder/ndk/include_cpp/android/binder_interface_utils.h",
   "template_args" :
   [
    "_ZTIN4aidl7android8hardware4wifi7hostapd16IHostapdCallbackE"
   ],
   "vtable_components" :
   [
    {
     "kind" : "offset_to_top"
    },
    {
     "kind" : "rtti",
     "mangled_component_name" : "_ZTIN3ndk12BpCInterfaceIN4aidl7android8hardware4wifi7hostapd16IHostapdCallbackEEE"
    },
    {
     "kind" : "complete_dtor_pointer",
     "mangled_component_name" : "_ZN3ndk12BpCInterfaceIN4aidl7android8hardware4wifi7hostapd16IHostapdCallbackEED1Ev"
    },
    {
     "kind" : "deleting_dtor_pointer",
     "mangled_component_name" : "_ZN3ndk12BpCInterfaceIN4aidl7android8hardware4wifi7hostapd16IHostapdCallbackEED0Ev"
    },
    {
     "mangled_component_name" : "_ZN3ndk12BpCInterfaceIN4aidl7android8hardware4wifi7hostapd16IHostapdCallbackEE8asBinderEv"
    },
    {
     "mangled_component_name" : "_ZN3ndk12BpCInterfaceIN4aidl7android8hardware4wifi7hostapd16IHostapdCallbackEE8isRemoteEv"
    },
    {
     "mangled_component_name" : "_ZN3ndk12BpCInterfaceIN4aidl7android8hardware4wifi7hostapd16IHostapdCallbackEE4dumpEiPPKcj"
    },
    {
     "mangled_component_name" : "_ZN3ndk11ICInterface18handleShellCommandEiiiPPKcj"
    },
    {
     "is_pure" : true,
     "mangled_component_name" : "_ZN4aidl7android8hardware4wifi7hostapd16IHostapdCallback23onApInstanceInfoChangedERKNS3_6ApInfoE"
    },
    {
     "is_pure" : true,
     "mangled_component_name" : "_ZN4aidl7android8hardware4wifi7hostapd16IHostapdCallback25onConnectedClientsChangedERKNS3_10ClientInfoE"
    },
    {
     "is_pure" : true,
     "mangled_component_name" : "_ZN4aidl7android8hardware4wifi7hostapd16IHostapdCallback9onFailureERKNSt3__112basic_stringIcNS5_11char_traitsIcEENS5_9allocatorIcEEEESD_"
    },
    {
     "is_pure" : true,
     "mangled_component_name" : "_ZN4aidl7android8hardware4wifi7hostapd16IHostapdCallback19getInterfaceVersionEPi"
    },
    {
     "is_pure" : true,
     "mangled_component_name" : "_ZN4aidl7android8hardware4wifi7hostapd16IHostapdCallback16getInterfaceHashEPNSt3__112basic_stringIcNS5_11char_traitsIcEENS5_9allocatorIcEEEE"
    }
   ]
  },
  {
   "alignment" : 4,
   "base_specifiers" :
   [
    {
     "referenced_type" : "_ZTIN4aidl7android8hardware4wifi7hostapd8IHostapdE"
    }
   ],
   "fields" :
   [
    {
     "access" : "private",
     "field_name" : "mBinder",
     "field_offset" : 128,
     "referenced_type" : "_ZTIN3ndk10SpAIBinderE"
    }
   ],
   "linker_set_key" : "_ZTIN3ndk12BpCInterfaceIN4aidl7android8hardware4wifi7hostapd8IHostapdEEE",
   "name" : "ndk::BpCInterface<aidl::android::hardware::wifi::hostapd::IHostapd>",
   "record_kind" : "class",
   "referenced_type" : "_ZTIN3ndk12BpCInterfaceIN4aidl7android8hardware4wifi7hostapd8IHostapdEEE",
   "self_type" : "_ZTIN3ndk12BpCInterfaceIN4aidl7android8hardware4wifi7hostapd8IHostapdEEE",
   "size" : 20,
   "source_file" : "frameworks/native/libs/binder/ndk/include_cpp/android/binder_interface_utils.h",
   "template_args" :
   [
    "_ZTIN4aidl7android8hardware4wifi7hostapd8IHostapdE"
   ],
   "vtable_components" :
   [
    {
     "kind" : "offset_to_top"
    },
    {
     "kind" : "rtti",
     "mangled_component_name" : "_ZTIN3ndk12BpCInterfaceIN4aidl7android8hardware4wifi7hostapd8IHostapdEEE"
    },
    {
     "kind" : "complete_dtor_pointer",
     "mangled_component_name" : "_ZN3ndk12BpCInterfaceIN4aidl7android8hardware4wifi7hostapd8IHostapdEED1Ev"
    },
    {
     "kind" : "deleting_dtor_pointer",
     "mangled_component_name" : "_ZN3ndk12BpCInterfaceIN4aidl7android8hardware4wifi7hostapd8IHostapdEED0Ev"
    },
    {
     "mangled_component_name" : "_ZN3ndk12BpCInterfaceIN4aidl7android8hardware4wifi7hostapd8IHostapdEE8asBinderEv"
    },
    {
     "mangled_component_name" : "_ZN3ndk12BpCInterfaceIN4aidl7android8hardware4wifi7hostapd8IHostapdEE8isRemoteEv"
    },
    {
     "mangled_component_name" : "_ZN3ndk12BpCInterfaceIN4aidl7android8hardware4wifi7hostapd8IHostapdEE4dumpEiPPKcj"
    },
    {
     "mangled_component_name" : "_ZN3ndk11ICInterface18handleShellCommandEiiiPPKcj"
    },
    {
     "is_pure" : true,
     "mangled_component_name" : "_ZN4aidl7android8hardware4wifi7hostapd8IHostapd14addAccessPointERKNS3_11IfaceParamsERKNS3_13NetworkParamsE"
    },
    {
     "is_pure" : true,
     "mangled_component_name" : "_ZN4aidl7android8hardware4wifi7hostapd8IHostapd21forceClientDisconnectERKNSt3__112basic_stringIcNS5_11char_traitsIcEENS5_9allocatorIcEEEERKNS5_6vectorIhNS9_IhEEEENS3_19Ieee80211ReasonCodeE"
    },
    {
     "is_pure" : true,
     "mangled_component_name" : "_ZN4aidl7android8hardware4wifi7hostapd8IHostapd16registerCallbackERKNSt3__110shared_ptrINS3_16IHostapdCallbackEEE"
    },
    {
     "is_pure" : true,
     "mangled_component_name" : "_ZN4aidl7android8hardware4wifi7hostapd8IHostapd17removeAccessPointERKNSt3__112basic_stringIcNS5_11char_traitsIcEENS5_9allocatorIcEEEE"
    },
    {
     "is_pure" : true,
     "mangled_component_name" : "_ZN4aidl7android8hardware4wifi7hostapd8IHostapd14setDebugParamsENS3_10DebugLevelE"
    },
    {
     "is_pure" : true,
     "mangled_component_name" : "_ZN4aidl7android8hardware4wifi7hostapd8IHostapd9terminateEv"
    },
    {
     "is_pure" : true,
     "mangled_component_name" : "_ZN4aidl7android8hardware4wifi7hostapd8IHostapd19getInterfaceVersionEPi"
    },
    {
     "is_pure" : true,
     "mangled_component_name" : "_ZN4aidl7android8hardware4wifi7hostapd8IHostapd16getInterfaceHashEPNSt3__112basic_stringIcNS5_11char_traitsIcEENS5_9allocatorIcEEEE"
    }
   ]
  },
  {
   "alignment" : 4,
   "base_specifiers" :
   [
    {
     "referenced_type" : "_ZTIN3ndk4impl15ScopedAResourceIP7AParcelXadL_Z14AParcel_deleteEELS3_0EEE"
    }
   ],
   "linker_set_key" : "_ZTIN3ndk13ScopedAParcelE",
   "name" : "ndk::ScopedAParcel",
   "record_kind" : "class",
   "referenced_type" : "_ZTIN3ndk13ScopedAParcelE",
   "self_type" : "_ZTIN3ndk13ScopedAParcelE",
   "size" : 4,
   "source_file" : "frameworks/native/libs/binder/ndk/include_cpp/android/binder_auto_utils.h"
  },
  {
   "alignment" : 4,
   "base_specifiers" :
   [
    {
     "referenced_type" : "_ZTIN3ndk4impl15ScopedAResourceIP7AStatusXadL_Z14AStatus_deleteEELS3_0EEE"
    }
   ],
   "linker_set_key" : "_ZTIN3ndk13ScopedAStatusE",
   "name" : "ndk::ScopedAStatus",
   "record_kind" : "class",
   "referenced_type" : "_ZTIN3ndk13ScopedAStatusE",
   "self_type" : "_ZTIN3ndk13ScopedAStatusE",
   "size" : 4,
   "source_file" : "frameworks/native/libs/binder/ndk/include_cpp/android/binder_auto_utils.h"
  },
  {
   "alignment" : 4,
   "fields" :
   [
    {
     "access" : "private",
     "field_name" : "mFlagThis",
     "field_offset" : 32,
     "referenced_type" : "_ZTINSt3__19once_flagE"
    },
    {
     "access" : "private",
     "field_name" : "mThis",
     "field_offset" : 64,
     "referenced_type" : "_ZTINSt3__18weak_ptrIN3ndk13SharedRefBaseEEE"
    }
   ],
   "linker_set_key" : "_ZTIN3ndk13SharedRefBaseE",
   "name" : "ndk::SharedRefBase",
   "record_kind" : "class",
   "referenced_type" : "_ZTIN3ndk13SharedRefBaseE",
   "self_type" : "_ZTIN3ndk13SharedRefBaseE",
   "size" : 16,
   "source_file" : "frameworks/native/libs/binder/ndk/include_cpp/android/binder_interface_utils.h",
   "vtable_components" :
   [
    {
     "kind" : "offset_to_top"
    },
    {
     "kind" : "rtti",
     "mangled_component_name" : "_ZTIN3ndk13SharedRefBaseE"
    },
    {
     "kind" : "complete_dtor_pointer",
     "mangled_component_name" : "_ZN3ndk13SharedRefBaseD1Ev"
    },
    {
     "kind" : "deleting_dtor_pointer",
     "mangled_component_name" : "_ZN3ndk13SharedRefBaseD0Ev"
    }
   ]
  },
  {
   "alignment" : 4,
   "fields" :
   [
    {
     "access" : "private",
     "field_name" : "mParcel",
     "field_offset" : 32,
     "referenced_type" : "_ZTIN3ndk13ScopedAParcelE"
    },
    {
     "access" : "private",
     "field_name" : "mStability",
     "field_offset" : 64,
     "referenced_type" : "_ZTIi"
    }
   ],
   "linker_set_key" : "_ZTIN3ndk17AParcelableHolderE",
   "name" : "ndk::AParcelableHolder",
   "record_kind" : "class",
   "referenced_type" : "_ZTIN3ndk17AParcelableHolderE",
   "self_type" : "_ZTIN3ndk17AParcelableHolderE",
   "size" : 12,
   "source_file" : "frameworks/native/libs/binder/ndk/include_cpp/android/binder_parcelable_utils.h",
   "vtable_components" :
   [
    {
     "kind" : "offset_to_top"
    },
    {
     "kind" : "rtti",
     "mangled_component_name" : "_ZTIN3ndk17AParcelableHolderE"
    },
    {
     "kind" : "complete_dtor_pointer",
     "mangled_component_name" : "_ZN3ndk17AParcelableHolderD1Ev"
    },
    {
     "kind" : "deleting_dtor_pointer",
     "mangled_component_name" : "_ZN3ndk17AParcelableHolderD0Ev"
    }
   ]
  },
  {
   "alignment" : 4,
   "base_specifiers" :
   [
    {
     "referenced_type" : "_ZTIN3ndk4impl15ScopedAResourceIP13AIBinder_WeakXadL_Z20AIBinder_Weak_deleteEELS3_0EEE"
    }
   ],
   "linker_set_key" : "_ZTIN3ndk19ScopedAIBinder_WeakE",
   "name" : "ndk::ScopedAIBinder_Weak",
   "record_kind" : "class",
   "referenced_type" : "_ZTIN3ndk19ScopedAIBinder_WeakE",
   "self_type" : "_ZTIN3ndk19ScopedAIBinder_WeakE",
   "size" : 4,
   "source_file" : "frameworks/native/libs/binder/ndk/include_cpp/android/binder_auto_utils.h"
  },
  {
   "alignment" : 4,
   "base_specifiers" :
   [
    {
     "referenced_type" : "_ZTIN3ndk4impl15ScopedAResourceIiXadL_ZNS_8internalL14closeWithErrorEiEELin1EEE"
    }
   ],
   "linker_set_key" : "_ZTIN3ndk20ScopedFileDescriptorE",
   "name" : "ndk::ScopedFileDescriptor",
   "record_kind" : "class",
   "referenced_type" : "_ZTIN3ndk20ScopedFileDescriptorE",
   "self_type" : "_ZTIN3ndk20ScopedFileDescriptorE",
   "size" : 4,
   "source_file" : "frameworks/native/libs/binder/ndk/include_cpp/android/binder_auto_utils.h"
  },
  {
   "alignment" : 4,
   "base_specifiers" :
   [
    {
     "referenced_type" : "_ZTIN3ndk4impl15ScopedAResourceIP23AIBinder_DeathRecipientXadL_Z30AIBinder_DeathRecipient_deleteEELS3_0EEE"
    }
   ],
   "linker_set_key" : "_ZTIN3ndk29ScopedAIBinder_DeathRecipientE",
   "name" : "ndk::ScopedAIBinder_DeathRecipient",
   "record_kind" : "class",
   "referenced_type" : "_ZTIN3ndk29ScopedAIBinder_DeathRecipientE",
   "self_type" : "_ZTIN3ndk29ScopedAIBinder_DeathRecipientE",
   "size" : 4,
   "source_file" : "frameworks/native/libs/binder/ndk/include_cpp/android/binder_auto_utils.h"
  },
  {
   "alignment" : 4,
   "fields" :
   [
    {
     "access" : "private",
     "field_name" : "mT",
     "referenced_type" : "_ZTIP13AIBinder_Weak"
    }
   ],
   "linker_set_key" : "_ZTIN3ndk4impl15ScopedAResourceIP13AIBinder_WeakXadL_Z20AIBinder_Weak_deleteEELS3_0EEE",
   "name" : "ndk::impl::ScopedAResource<AIBinder_Weak *, &AIBinder_Weak_delete, nullptr>",
   "record_kind" : "class",
   "referenced_type" : "_ZTIN3ndk4impl15ScopedAResourceIP13AIBinder_WeakXadL_Z20AIBinder_Weak_deleteEELS3_0EEE",
   "self_type" : "_ZTIN3ndk4impl15ScopedAResourceIP13AIBinder_WeakXadL_Z20AIBinder_Weak_deleteEELS3_0EEE",
   "size" : 4,
   "source_file" : "frameworks/native/libs/binder/ndk/include_cpp/android/binder_auto_utils.h",
   "template_args" :
   [
    "_ZTIP13AIBinder_Weak"
   ]
  },
  {
   "alignment" : 4,
   "fields" :
   [
    {
     "access" : "private",
     "field_name" : "mT",
     "referenced_type" : "_ZTIP23AIBinder_DeathRecipient"
    }
   ],
   "linker_set_key" : "_ZTIN3ndk4impl15ScopedAResourceIP23AIBinder_DeathRecipientXadL_Z30AIBinder_DeathRecipient_deleteEELS3_0EEE",
   "name" : "ndk::impl::ScopedAResource<AIBinder_DeathRecipient *, &AIBinder_DeathRecipient_delete, nullptr>",
   "record_kind" : "class",
   "referenced_type" : "_ZTIN3ndk4impl15ScopedAResourceIP23AIBinder_DeathRecipientXadL_Z30AIBinder_DeathRecipient_deleteEELS3_0EEE",
   "self_type" : "_ZTIN3ndk4impl15ScopedAResourceIP23AIBinder_DeathRecipientXadL_Z30AIBinder_DeathRecipient_deleteEELS3_0EEE",
   "size" : 4,
   "source_file" : "frameworks/native/libs/binder/ndk/include_cpp/android/binder_auto_utils.h",
   "template_args" :
   [
    "_ZTIP23AIBinder_DeathRecipient"
   ]
  },
  {
   "alignment" : 4,
   "fields" :
   [
    {
     "access" : "private",
     "field_name" : "mT",
     "referenced_type" : "_ZTIP7AParcel"
    }
   ],
   "linker_set_key" : "_ZTIN3ndk4impl15ScopedAResourceIP7AParcelXadL_Z14AParcel_deleteEELS3_0EEE",
   "name" : "ndk::impl::ScopedAResource<AParcel *, &AParcel_delete, nullptr>",
   "record_kind" : "class",
   "referenced_type" : "_ZTIN3ndk4impl15ScopedAResourceIP7AParcelXadL_Z14AParcel_deleteEELS3_0EEE",
   "self_type" : "_ZTIN3ndk4impl15ScopedAResourceIP7AParcelXadL_Z14AParcel_deleteEELS3_0EEE",
   "size" : 4,
   "source_file" : "frameworks/native/libs/binder/ndk/include_cpp/android/binder_auto_utils.h",
   "template_args" :
   [
    "_ZTIP7AParcel"
   ]
  },
  {
   "alignment" : 4,
   "fields" :
   [
    {
     "access" : "private",
     "field_name" : "mT",
     "referenced_type" : "_ZTIP7AStatus"
    }
   ],
   "linker_set_key" : "_ZTIN3ndk4impl15ScopedAResourceIP7AStatusXadL_Z14AStatus_deleteEELS3_0EEE",
   "name" : "ndk::impl::ScopedAResource<AStatus *, &AStatus_delete, nullptr>",
   "record_kind" : "class",
   "referenced_type" : "_ZTIN3ndk4impl15ScopedAResourceIP7AStatusXadL_Z14AStatus_deleteEELS3_0EEE",
   "self_type" : "_ZTIN3ndk4impl15ScopedAResourceIP7AStatusXadL_Z14AStatus_deleteEELS3_0EEE",
   "size" : 4,
   "source_file" : "frameworks/native/libs/binder/ndk/include_cpp/android/binder_auto_utils.h",
   "template_args" :
   [
    "_ZTIP7AStatus"
   ]
  },
  {
   "alignment" : 4,
   "fields" :
   [
    {
     "field_name" : "ifaceName",
     "referenced_type" : "_ZTINSt3__112basic_stringIcNS_11char_traitsIcEENS_9allocatorIcEEEE"
    },
    {
     "field_name" : "apIfaceInstance",
     "field_offset" : 96,
     "referenced_type" : "_ZTINSt3__112basic_stringIcNS_11char_traitsIcEENS_9allocatorIcEEEE"
    },
    {
     "field_name" : "clientAddress",
     "field_offset" : 192,
     "referenced_type" : "_ZTINSt3__16vectorIhNS_9allocatorIhEEEE"
    },
    {
     "field_name" : "isConnected",
     "field_offset" : 288,
     "referenced_type" : "_ZTIb"
    }
   ],
   "linker_set_key" : "_ZTIN4aidl7android8hardware4wifi7hostapd10ClientInfoE",
   "name" : "aidl::android::hardware::wifi::hostapd::ClientInfo",
   "record_kind" : "class",
   "referenced_type" : "_ZTIN4aidl7android8hardware4wifi7hostapd10ClientInfoE",
   "self_type" : "_ZTIN4aidl7android8hardware4wifi7hostapd10ClientInfoE",
   "size" : 40,
   "source_file" : "out/soong/.intermediates/hardware/interfaces/wifi/hostapd/aidl/android.hardware.wifi.hostapd-V1-ndk-source/gen/include/aidl/android/hardware/wifi/hostapd/ClientInfo.h"
  },
  {
   "alignment" : 4,
   "fields" :
   [
    {
     "field_name" : "name",
     "referenced_type" : "_ZTINSt3__112basic_stringIcNS_11char_traitsIcEENS_9allocatorIcEEEE"
    },
    {
     "field_name" : "hwModeParams",
     "field_offset" : 96,
     "referenced_type" : "_ZTIN4aidl7android8hardware4wifi7hostapd12HwModeParamsE"
    },
    {
     "field_name" : "channelParams",
     "field_offset" : 224,
     "referenced_type" : "_ZTINSt3__16vectorIN4aidl7android8hardware4wifi7hostapd13ChannelParamsENS_9allocatorIS6_EEEE"
    }
   ],
   "linker_set_key" : "_ZTIN4aidl7android8hardware4wifi7hostapd11IfaceParamsE",
   "name" : "aidl::android::hardware::wifi::hostapd::IfaceParams",
   "record_kind" : "class",
   "referenced_type" : "_ZTIN4aidl7android8hardware4wifi7hostapd11IfaceParamsE",
   "self_type" : "_ZTIN4aidl7android8hardware4wifi7hostapd11IfaceParamsE",
   "size" : 40,
   "source_file" : "out/soong/.intermediates/hardware/interfaces/wifi/hostapd/aidl/android.hardware.wifi.hostapd-V1-ndk-source/gen/include/aidl/android/hardware/wifi/hostapd/IfaceParams.h"
  },
  {
   "alignment" : 4,
   "fields" :
   [
    {
     "field_name" : "enable80211N",
     "referenced_type" : "_ZTIb"
    },
    {
     "field_name" : "enable80211AC",
     "field_offset" : 8,
     "referenced_type" : "_ZTIb"
    },
    {
     "field_name" : "enable80211AX",
     "field_offset" : 16,
     "referenced_type" : "_ZTIb"
    },
    {
     "field_name" : "enable6GhzBand",
     "field_offset" : 24,
     "referenced_type" : "_ZTIb"
    },
    {
     "field_name" : "enableHeSingleUserBeamformer",
     "field_offset" : 32,
     "referenced_type" : "_ZTIb"
    },
    {
     "field_name" : "enableHeSingleUserBeamformee",
     "field_offset" : 40,
     "referenced_type" : "_ZTIb"
    },
    {
     "field_name" : "enableHeMultiUserBeamformer",
     "field_offset" : 48,
     "referenced_type" : "_ZTIb"
    },
    {
     "field_name" : "enableHeTargetWakeTime",
     "field_offset" : 56,
     "referenced_type" : "_ZTIb"
    },
    {
     "field_name" : "enableEdmg",
     "field_offset" : 64,
     "referenced_type" : "_ZTIb"
    },
    {
     "field_name" : "enable80211BE",
     "field_offset" : 72,
     "referenced_type" : "_ZTIb"
    },
    {
     "field_name" : "maximumChannelBandwidth",
     "field_offset" : 96,
     "referenced_type" : "_ZTIN4aidl7android8hardware4wifi7hostapd16ChannelBandwidthE"
    }
   ],
   "linker_set_key" : "_ZTIN4aidl7android8hardware4wifi7hostapd12HwModeParamsE",
   "name" : "aidl::android::hardware::wifi::hostapd::HwModeParams",
   "record_kind" : "class",
   "referenced_type" : "_ZTIN4aidl7android8hardware4wifi7hostapd12HwModeParamsE",
   "self_type" : "_ZTIN4aidl7android8hardware4wifi7hostapd12HwModeParamsE",
   "size" : 16,
   "source_file" : "out/soong/.intermediates/hardware/interfaces/wifi/hostapd/aidl/android.hardware.wifi.hostapd-V1-ndk-source/gen/include/aidl/android/hardware/wifi/hostapd/HwModeParams.h"
  },
  {
   "alignment" : 4,
   "fields" :
   [
    {
     "field_name" : "bandMask",
     "referenced_type" : "_ZTIN4aidl7android8hardware4wifi7hostapd8BandMaskE"
    },
    {
     "field_name" : "acsChannelFreqRangesMhz",
     "field_offset" : 32,
     "referenced_type" : "_ZTINSt3__16vectorIN4aidl7android8hardware4wifi7hostapd14FrequencyRangeENS_9allocatorIS6_EEEE"
    },
    {
     "field_name" : "enableAcs",
     "field_offset" : 128,
     "referenced_type" : "_ZTIb"
    },
    {
     "field_name" : "acsShouldExcludeDfs",
     "field_offset" : 136,
     "referenced_type" : "_ZTIb"
    },
    {
     "field_name" : "channel",
     "field_offset" : 160,
     "referenced_type" : "_ZTIi"
    }
   ],
   "linker_set_key" : "_ZTIN4aidl7android8hardware4wifi7hostapd13ChannelParamsE",
   "name" : "aidl::android::hardware::wifi::hostapd::ChannelParams",
   "record_kind" : "class",
   "referenced_type" : "_ZTIN4aidl7android8hardware4wifi7hostapd13ChannelParamsE",
   "self_type" : "_ZTIN4aidl7android8hardware4wifi7hostapd13ChannelParamsE",
   "size" : 24,
   "source_file" : "out/soong/.intermediates/hardware/interfaces/wifi/hostapd/aidl/android.hardware.wifi.hostapd-V1-ndk-source/gen/include/aidl/android/hardware/wifi/hostapd/ChannelParams.h"
  },
  {
   "alignment" : 4,
   "fields" :
   [
    {
     "field_name" : "ssid",
     "referenced_type" : "_ZTINSt3__16vectorIhNS_9allocatorIhEEEE"
    },
    {
     "field_name" : "isHidden",
     "field_offset" : 96,
     "referenced_type" : "_ZTIb"
    },
    {
     "field_name" : "encryptionType",
     "field_offset" : 128,
     "referenced_type" : "_ZTIN4aidl7android8hardware4wifi7hostapd14EncryptionTypeE"
    },
    {
     "field_name" : "passphrase",
     "field_offset" : 160,
     "referenced_type" : "_ZTINSt3__112basic_stringIcNS_11char_traitsIcEENS_9allocatorIcEEEE"
    },
    {
     "field_name" : "isMetered",
     "field_offset" : 256,
     "referenced_type" : "_ZTIb"
    },
    {
     "field_name" : "vendorElements",
     "field_offset" : 288,
     "referenced_type" : "_ZTINSt3__16vectorIhNS_9allocatorIhEEEE"
    }
   ],
   "linker_set_key" : "_ZTIN4aidl7android8hardware4wifi7hostapd13NetworkParamsE",
   "name" : "aidl::android::hardware::wifi::hostapd::NetworkParams",
   "record_kind" : "class",
   "referenced_type" : "_ZTIN4aidl7android8hardware4wifi7hostapd13NetworkParamsE",
   "self_type" : "_ZTIN4aidl7android8hardware4wifi7hostapd13NetworkParamsE",
   "size" : 48,
   "source_file" : "out/soong/.intermediates/hardware/interfaces/wifi/hostapd/aidl/android.hardware.wifi.hostapd-V1-ndk-source/gen/include/aidl/android/hardware/wifi/hostapd/NetworkParams.h"
  },
  {
   "alignment" : 4,
   "fields" :
   [
    {
     "field_name" : "startMhz",
     "referenced_type" : "_ZTIi"
    },
    {
     "field_name" : "endMhz",
     "field_offset" : 32,
     "referenced_type" : "_ZTIi"
    }
   ],
   "linker_set_key" : "_ZTIN4aidl7android8hardware4wifi7hostapd14FrequencyRangeE",
   "name" : "aidl::android::hardware::wifi::hostapd::FrequencyRange",
   "record_kind" : "class",
   "referenced_type" : "_ZTIN4aidl7android8hardware4wifi7hostapd14FrequencyRangeE",
   "self_type" : "_ZTIN4aidl7android8hardware4wifi7hostapd14FrequencyRangeE",
   "size" : 8,
   "source_file" : "out/soong/.intermediates/hardware/interfaces/wifi/hostapd/aidl/android.hardware.wifi.hostapd-V1-ndk-source/gen/include/aidl/android/hardware/wifi/hostapd/FrequencyRange.h"
  },
  {
   "alignment" : 4,
   "base_specifiers" :
   [
    {
     "referenced_type" : "_ZTIN4aidl7android8hardware4wifi7hostapd8IHostapdE"
    }
   ],
   "linker_set_key" : "_ZTIN4aidl7android8hardware4wifi7hostapd15IHostapdDefaultE",
   "name" : "aidl::android::hardware::wifi::hostapd::IHostapdDefault",
   "record_kind" : "class",
   "referenced_type" : "_ZTIN4aidl7android8hardware4wifi7hostapd15IHostapdDefaultE",
   "self_type" : "_ZTIN4aidl7android8hardware4wifi7hostapd15IHostapdDefaultE",
   "size" : 16,
   "source_file" : "out/soong/.intermediates/hardware/interfaces/wifi/hostapd/aidl/android.hardware.wifi.hostapd-V1-ndk-source/gen/include/aidl/android/hardware/wifi/hostapd/IHostapd.h",
   "vtable_components" :
   [
    {
     "kind" : "offset_to_top"
    },
    {
     "kind" : "rtti",
     "mangled_component_name" : "_ZTIN4aidl7android8hardware4wifi7hostapd15IHostapdDefaultE"
    },
    {
     "kind" : "complete_dtor_pointer",
     "mangled_component_name" : "_ZN4aidl7android8hardware4wifi7hostapd15IHostapdDefaultD1Ev"
    },
    {
     "kind" : "deleting_dtor_pointer",
     "mangled_component_name" : "_ZN4aidl7android8hardware4wifi7hostapd15IHostapdDefaultD0Ev"
    },
    {
     "mangled_component_name" : "_ZN4aidl7android8hardware4wifi7hostapd15IHostapdDefault8asBinderEv"
    },
    {
     "mangled_component_name" : "_ZN4aidl7android8hardware4wifi7hostapd15IHostapdDefault8isRemoteEv"
    },
    {
     "mangled_component_name" : "_ZN3ndk11ICInterface4dumpEiPPKcj"
    },
    {
     "mangled_component_name" : "_ZN3ndk11ICInterface18handleShellCommandEiiiPPKcj"
    },
    {
     "mangled_component_name" : "_ZN4aidl7android8hardware4wifi7hostapd15IHostapdDefault14addAccessPointERKNS3_11IfaceParamsERKNS3_13NetworkParamsE"
    },
    {
     "mangled_component_name" : "_ZN4aidl7android8hardware4wifi7hostapd15IHostapdDefault21forceClientDisconnectERKNSt3__112basic_stringIcNS5_11char_traitsIcEENS5_9allocatorIcEEEERKNS5_6vectorIhNS9_IhEEEENS3_19Ieee80211ReasonCodeE"
    },
    {
     "mangled_component_name" : "_ZN4aidl7android8hardware4wifi7hostapd15IHostapdDefault16registerCallbackERKNSt3__110shared_ptrINS3_16IHostapdCallbackEEE"
    },
    {
     "mangled_component_name" : "_ZN4aidl7android8hardware4wifi7hostapd15IHostapdDefault17removeAccessPointERKNSt3__112basic_stringIcNS5_11char_traitsIcEENS5_9allocatorIcEEEE"
    },
    {
     "mangled_component_name" : "_ZN4aidl7android8hardware4wifi7hostapd15IHostapdDefault14setDebugParamsENS3_10DebugLevelE"
    },
    {
     "mangled_component_name" : "_ZN4aidl7android8hardware4wifi7hostapd15IHostapdDefault9terminateEv"
    },
    {
     "mangled_component_name" : "_ZN4aidl7android8hardware4wifi7hostapd15IHostapdDefault19getInterfaceVersionEPi"
    },
    {
     "mangled_component_name" : "_ZN4aidl7android8hardware4wifi7hostapd15IHostapdDefault16getInterfaceHashEPNSt3__112basic_stringIcNS5_11char_traitsIcEENS5_9allocatorIcEEEE"
    }
   ]
  },
  {
   "alignment" : 4,
   "base_specifiers" :
   [
    {
     "referenced_type" : "_ZTIN3ndk11ICInterfaceE"
    }
   ],
   "linker_set_key" : "_ZTIN4aidl7android8hardware4wifi7hostapd16IHostapdCallbackE",
   "name" : "aidl::android::hardware::wifi::hostapd::IHostapdCallback",
   "record_kind" : "class",
   "referenced_type" : "_ZTIN4aidl7android8hardware4wifi7hostapd16IHostapdCallbackE",
   "self_type" : "_ZTIN4aidl7android8hardware4wifi7hostapd16IHostapdCallbackE",
   "size" : 16,
   "source_file" : "out/soong/.intermediates/hardware/interfaces/wifi/hostapd/aidl/android.hardware.wifi.hostapd-V1-ndk-source/gen/include/aidl/android/hardware/wifi/hostapd/IHostapdCallback.h",
   "vtable_components" :
   [
    {
     "kind" : "offset_to_top"
    },
    {
     "kind" : "rtti",
     "mangled_component_name" : "_ZTIN4aidl7android8hardware4wifi7hostapd16IHostapdCallbackE"
    },
    {
     "kind" : "complete_dtor_pointer",
     "mangled_component_name" : "_ZN4aidl7android8hardware4wifi7hostapd16IHostapdCallbackD1Ev"
    },
    {
     "kind" : "deleting_dtor_pointer",
     "mangled_component_name" : "_ZN4aidl7android8hardware4wifi7hostapd16IHostapdCallbackD0Ev"
    },
    {
     "is_pure" : true,
     "mangled_component_name" : "_ZN3ndk11ICInterface8asBinderEv"
    },
    {
     "is_pure" : true,
     "mangled_component_name" : "_ZN3ndk11ICInterface8isRemoteEv"
    },
    {
     "mangled_component_name" : "_ZN3ndk11ICInterface4dumpEiPPKcj"
    },
    {
     "mangled_component_name" : "_ZN3ndk11ICInterface18handleShellCommandEiiiPPKcj"
    },
    {
     "is_pure" : true,
     "mangled_component_name" : "_ZN4aidl7android8hardware4wifi7hostapd16IHostapdCallback23onApInstanceInfoChangedERKNS3_6ApInfoE"
    },
    {
     "is_pure" : true,
     "mangled_component_name" : "_ZN4aidl7android8hardware4wifi7hostapd16IHostapdCallback25onConnectedClientsChangedERKNS3_10ClientInfoE"
    },
    {
     "is_pure" : true,
     "mangled_component_name" : "_ZN4aidl7android8hardware4wifi7hostapd16IHostapdCallback9onFailureERKNSt3__112basic_stringIcNS5_11char_traitsIcEENS5_9allocatorIcEEEESD_"
    },
    {
     "is_pure" : true,
     "mangled_component_name" : "_ZN4aidl7android8hardware4wifi7hostapd16IHostapdCallback19getInterfaceVersionEPi"
    },
    {
     "is_pure" : true,
     "mangled_component_name" : "_ZN4aidl7android8hardware4wifi7hostapd16IHostapdCallback16getInterfaceHashEPNSt3__112basic_stringIcNS5_11char_traitsIcEENS5_9allocatorIcEEEE"
    }
   ]
  },
  {
   "alignment" : 4,
   "base_specifiers" :
   [
    {
     "referenced_type" : "_ZTIN3ndk12BnCInterfaceIN4aidl7android8hardware4wifi7hostapd16IHostapdCallbackEEE"
    }
   ],
   "linker_set_key" : "_ZTIN4aidl7android8hardware4wifi7hostapd17BnHostapdCallbackE",
   "name" : "aidl::android::hardware::wifi::hostapd::BnHostapdCallback",
   "record_kind" : "class",
   "referenced_type" : "_ZTIN4aidl7android8hardware4wifi7hostapd17BnHostapdCallbackE",
   "self_type" : "_ZTIN4aidl7android8hardware4wifi7hostapd17BnHostapdCallbackE",
   "size" : 24,
   "source_file" : "out/soong/.intermediates/hardware/interfaces/wifi/hostapd/aidl/android.hardware.wifi.hostapd-V1-ndk-source/gen/include/aidl/android/hardware/wifi/hostapd/BnHostapdCallback.h",
   "vtable_components" :
   [
    {
     "kind" : "offset_to_top"
    },
    {
     "kind" : "rtti",
     "mangled_component_name" : "_ZTIN4aidl7android8hardware4wifi7hostapd17BnHostapdCallbackE"
    },
    {
     "kind" : "complete_dtor_pointer",
     "mangled_component_name" : "_ZN4aidl7android8hardware4wifi7hostapd17BnHostapdCallbackD1Ev"
    },
    {
     "kind" : "deleting_dtor_pointer",
     "mangled_component_name" : "_ZN4aidl7android8hardware4wifi7hostapd17BnHostapdCallbackD0Ev"
    },
    {
     "mangled_component_name" : "_ZN3ndk12BnCInterfaceIN4aidl7android8hardware4wifi7hostapd16IHostapdCallbackEE8asBinderEv"
    },
    {
     "mangled_component_name" : "_ZN3ndk12BnCInterfaceIN4aidl7android8hardware4wifi7hostapd16IHostapdCallbackEE8isRemoteEv"
    },
    {
     "mangled_component_name" : "_ZN3ndk11ICInterface4dumpEiPPKcj"
    },
    {
     "mangled_component_name" : "_ZN3ndk11ICInterface18handleShellCommandEiiiPPKcj"
    },
    {
     "is_pure" : true,
     "mangled_component_name" : "_ZN4aidl7android8hardware4wifi7hostapd16IHostapdCallback23onApInstanceInfoChangedERKNS3_6ApInfoE"
    },
    {
     "is_pure" : true,
     "mangled_component_name" : "_ZN4aidl7android8hardware4wifi7hostapd16IHostapdCallback25onConnectedClientsChangedERKNS3_10ClientInfoE"
    },
    {
     "is_pure" : true,
     "mangled_component_name" : "_ZN4aidl7android8hardware4wifi7hostapd16IHostapdCallback9onFailureERKNSt3__112basic_stringIcNS5_11char_traitsIcEENS5_9allocatorIcEEEESD_"
    },
    {
     "mangled_component_name" : "_ZN4aidl7android8hardware4wifi7hostapd17BnHostapdCallback19getInterfaceVersionEPi"
    },
    {
     "mangled_component_name" : "_ZN4aidl7android8hardware4wifi7hostapd17BnHostapdCallback16getInterfaceHashEPNSt3__112basic_stringIcNS5_11char_traitsIcEENS5_9allocatorIcEEEE"
    },
    {
     "mangled_component_name" : "_ZN4aidl7android8hardware4wifi7hostapd17BnHostapdCallback12createBinderEv"
    }
   ]
  },
  {
   "alignment" : 4,
   "base_specifiers" :
   [
    {
     "referenced_type" : "_ZTIN3ndk12BpCInterfaceIN4aidl7android8hardware4wifi7hostapd16IHostapdCallbackEEE"
    }
   ],
   "fields" :
   [
    {
     "field_name" : "_aidl_cached_version",
     "field_offset" : 160,
     "referenced_type" : "_ZTIi"
    },
    {
     "field_name" : "_aidl_cached_hash",
     "field_offset" : 192,
     "referenced_type" : "_ZTINSt3__112basic_stringIcNS_11char_traitsIcEENS_9allocatorIcEEEE"
    },
    {
     "field_name" : "_aidl_cached_hash_mutex",
     "field_offset" : 288,
     "referenced_type" : "_ZTINSt3__15mutexE"
    }
   ],
   "linker_set_key" : "_ZTIN4aidl7android8hardware4wifi7hostapd17BpHostapdCallbackE",
   "name" : "aidl::android::hardware::wifi::hostapd::BpHostapdCallback",
   "record_kind" : "class",
   "referenced_type" : "_ZTIN4aidl7android8hardware4wifi7hostapd17BpHostapdCallbackE",
   "self_type" : "_ZTIN4aidl7android8hardware4wifi7hostapd17BpHostapdCallbackE",
   "size" : 40,
   "source_file" : "out/soong/.intermediates/hardware/interfaces/wifi/hostapd/aidl/android.hardware.wifi.hostapd-V1-ndk-source/gen/include/aidl/android/hardware/wifi/hostapd/BpHostapdCallback.h",
   "vtable_components" :
   [
    {
     "kind" : "offset_to_top"
    },
    {
     "kind" : "rtti",
     "mangled_component_name" : "_ZTIN4aidl7android8hardware4wifi7hostapd17BpHostapdCallbackE"
    },
    {
     "kind" : "complete_dtor_pointer",
     "mangled_component_name" : "_ZN4aidl7android8hardware4wifi7hostapd17BpHostapdCallbackD1Ev"
    },
    {
     "kind" : "deleting_dtor_pointer",
     "mangled_component_name" : "_ZN4aidl7android8hardware4wifi7hostapd17BpHostapdCallbackD0Ev"
    },
    {
     "mangled_component_name" : "_ZN3ndk12BpCInterfaceIN4aidl7android8hardware4wifi7hostapd16IHostapdCallbackEE8asBinderEv"
    },
    {
     "mangled_component_name" : "_ZN3ndk12BpCInterfaceIN4aidl7android8hardware4wifi7hostapd16IHostapdCallbackEE8isRemoteEv"
    },
    {
     "mangled_component_name" : "_ZN3ndk12BpCInterfaceIN4aidl7android8hardware4wifi7hostapd16IHostapdCallbackEE4dumpEiPPKcj"
    },
    {
     "mangled_component_name" : "_ZN3ndk11ICInterface18handleShellCommandEiiiPPKcj"
    },
    {
     "mangled_component_name" : "_ZN4aidl7android8hardware4wifi7hostapd17BpHostapdCallback23onApInstanceInfoChangedERKNS3_6ApInfoE"
    },
    {
     "mangled_component_name" : "_ZN4aidl7android8hardware4wifi7hostapd17BpHostapdCallback25onConnectedClientsChangedERKNS3_10ClientInfoE"
    },
    {
     "mangled_component_name" : "_ZN4aidl7android8hardware4wifi7hostapd17BpHostapdCallback9onFailureERKNSt3__112basic_stringIcNS5_11char_traitsIcEENS5_9allocatorIcEEEESD_"
    },
    {
     "mangled_component_name" : "_ZN4aidl7android8hardware4wifi7hostapd17BpHostapdCallback19getInterfaceVersionEPi"
    },
    {
     "mangled_component_name" : "_ZN4aidl7android8hardware4wifi7hostapd17BpHostapdCallback16getInterfaceHashEPNSt3__112basic_stringIcNS5_11char_traitsIcEENS5_9allocatorIcEEEE"
    }
   ]
  },
  {
   "alignment" : 4,
   "base_specifiers" :
   [
    {
     "referenced_type" : "_ZTIN4aidl7android8hardware4wifi7hostapd9BnHostapdE"
    }
   ],
   "fields" :
   [
    {
     "access" : "private",
     "field_name" : "_impl",
     "field_offset" : 192,
     "referenced_type" : "_ZTINSt3__110shared_ptrIN4aidl7android8hardware4wifi7hostapd8IHostapdEEE"
    }
   ],
   "linker_set_key" : "_ZTIN4aidl7android8hardware4wifi7hostapd17IHostapdDelegatorE",
   "name" : "aidl::android::hardware::wifi::hostapd::IHostapdDelegator",
   "record_kind" : "class",
   "referenced_type" : "_ZTIN4aidl7android8hardware4wifi7hostapd17IHostapdDelegatorE",
   "self_type" : "_ZTIN4aidl7android8hardware4wifi7hostapd17IHostapdDelegatorE",
   "size" : 32,
   "source_file" : "out/soong/.intermediates/hardware/interfaces/wifi/hostapd/aidl/android.hardware.wifi.hostapd-V1-ndk-source/gen/include/aidl/android/hardware/wifi/hostapd/BnHostapd.h",
   "vtable_components" :
   [
    {
     "kind" : "offset_to_top"
    },
    {
     "kind" : "rtti",
     "mangled_component_name" : "_ZTIN4aidl7android8hardware4wifi7hostapd17IHostapdDelegatorE"
    },
    {
     "kind" : "complete_dtor_pointer",
     "mangled_component_name" : "_ZN4aidl7android8hardware4wifi7hostapd17IHostapdDelegatorD1Ev"
    },
    {
     "kind" : "deleting_dtor_pointer",
     "mangled_component_name" : "_ZN4aidl7android8hardware4wifi7hostapd17IHostapdDelegatorD0Ev"
    },
    {
     "mangled_component_name" : "_ZN3ndk12BnCInterfaceIN4aidl7android8hardware4wifi7hostapd8IHostapdEE8asBinderEv"
    },
    {
     "mangled_component_name" : "_ZN3ndk12BnCInterfaceIN4aidl7android8hardware4wifi7hostapd8IHostapdEE8isRemoteEv"
    },
    {
     "mangled_component_name" : "_ZN3ndk11ICInterface4dumpEiPPKcj"
    },
    {
     "mangled_component_name" : "_ZN3ndk11ICInterface18handleShellCommandEiiiPPKcj"
    },
    {
     "mangled_component_name" : "_ZN4aidl7android8hardware4wifi7hostapd17IHostapdDelegator14addAccessPointERKNS3_11IfaceParamsERKNS3_13NetworkParamsE"
    },
    {
     "mangled_component_name" : "_ZN4aidl7android8hardware4wifi7hostapd17IHostapdDelegator21forceClientDisconnectERKNSt3__112basic_stringIcNS5_11char_traitsIcEENS5_9allocatorIcEEEERKNS5_6vectorIhNS9_IhEEEENS3_19Ieee80211ReasonCodeE"
    },
    {
     "mangled_component_name" : "_ZN4aidl7android8hardware4wifi7hostapd17IHostapdDelegator16registerCallbackERKNSt3__110shared_ptrINS3_16IHostapdCallbackEEE"
    },
    {
     "mangled_component_name" : "_ZN4aidl7android8hardware4wifi7hostapd17IHostapdDelegator17removeAccessPointERKNSt3__112basic_stringIcNS5_11char_traitsIcEENS5_9allocatorIcEEEE"
    },
    {
     "mangled_component_name" : "_ZN4aidl7android8hardware4wifi7hostapd17IHostapdDelegator14setDebugParamsENS3_10DebugLevelE"
    },
    {
     "mangled_component_name" : "_ZN4aidl7android8hardware4wifi7hostapd17IHostapdDelegator9terminateEv"
    },
    {
     "mangled_component_name" : "_ZN4aidl7android8hardware4wifi7hostapd9BnHostapd19getInterfaceVersionEPi"
    },
    {
     "mangled_component_name" : "_ZN4aidl7android8hardware4wifi7hostapd9BnHostapd16getInterfaceHashEPNSt3__112basic_stringIcNS5_11char_traitsIcEENS5_9allocatorIcEEEE"
    },
    {
     "mangled_component_name" : "_ZN4aidl7android8hardware4wifi7hostapd9BnHostapd12createBinderEv"
    }
   ]
  },
  {
   "alignment" : 4,
   "base_specifiers" :
   [
    {
     "referenced_type" : "_ZTIN4aidl7android8hardware4wifi7hostapd16IHostapdCallbackE"
    }
   ],
   "linker_set_key" : "_ZTIN4aidl7android8hardware4wifi7hostapd23IHostapdCallbackDefaultE",
   "name" : "aidl::android::hardware::wifi::hostapd::IHostapdCallbackDefault",
   "record_kind" : "class",
   "referenced_type" : "_ZTIN4aidl7android8hardware4wifi7hostapd23IHostapdCallbackDefaultE",
   "self_type" : "_ZTIN4aidl7android8hardware4wifi7hostapd23IHostapdCallbackDefaultE",
   "size" : 16,
   "source_file" : "out/soong/.intermediates/hardware/interfaces/wifi/hostapd/aidl/android.hardware.wifi.hostapd-V1-ndk-source/gen/include/aidl/android/hardware/wifi/hostapd/IHostapdCallback.h",
   "vtable_components" :
   [
    {
     "kind" : "offset_to_top"
    },
    {
     "kind" : "rtti",
     "mangled_component_name" : "_ZTIN4aidl7android8hardware4wifi7hostapd23IHostapdCallbackDefaultE"
    },
    {
     "kind" : "complete_dtor_pointer",
     "mangled_component_name" : "_ZN4aidl7android8hardware4wifi7hostapd23IHostapdCallbackDefaultD1Ev"
    },
    {
     "kind" : "deleting_dtor_pointer",
     "mangled_component_name" : "_ZN4aidl7android8hardware4wifi7hostapd23IHostapdCallbackDefaultD0Ev"
    },
    {
     "mangled_component_name" : "_ZN4aidl7android8hardware4wifi7hostapd23IHostapdCallbackDefault8asBinderEv"
    },
    {
     "mangled_component_name" : "_ZN4aidl7android8hardware4wifi7hostapd23IHostapdCallbackDefault8isRemoteEv"
    },
    {
     "mangled_component_name" : "_ZN3ndk11ICInterface4dumpEiPPKcj"
    },
    {
     "mangled_component_name" : "_ZN3ndk11ICInterface18handleShellCommandEiiiPPKcj"
    },
    {
     "mangled_component_name" : "_ZN4aidl7android8hardware4wifi7hostapd23IHostapdCallbackDefault23onApInstanceInfoChangedERKNS3_6ApInfoE"
    },
    {
     "mangled_component_name" : "_ZN4aidl7android8hardware4wifi7hostapd23IHostapdCallbackDefault25onConnectedClientsChangedERKNS3_10ClientInfoE"
    },
    {
     "mangled_component_name" : "_ZN4aidl7android8hardware4wifi7hostapd23IHostapdCallbackDefault9onFailureERKNSt3__112basic_stringIcNS5_11char_traitsIcEENS5_9allocatorIcEEEESD_"
    },
    {
     "mangled_component_name" : "_ZN4aidl7android8hardware4wifi7hostapd23IHostapdCallbackDefault19getInterfaceVersionEPi"
    },
    {
     "mangled_component_name" : "_ZN4aidl7android8hardware4wifi7hostapd23IHostapdCallbackDefault16getInterfaceHashEPNSt3__112basic_stringIcNS5_11char_traitsIcEENS5_9allocatorIcEEEE"
    }
   ]
  },
  {
   "alignment" : 4,
   "base_specifiers" :
   [
    {
     "referenced_type" : "_ZTIN4aidl7android8hardware4wifi7hostapd17BnHostapdCallbackE"
    }
   ],
   "fields" :
   [
    {
     "access" : "private",
     "field_name" : "_impl",
     "field_offset" : 192,
     "referenced_type" : "_ZTINSt3__110shared_ptrIN4aidl7android8hardware4wifi7hostapd16IHostapdCallbackEEE"
    }
   ],
   "linker_set_key" : "_ZTIN4aidl7android8hardware4wifi7hostapd25IHostapdCallbackDelegatorE",
   "name" : "aidl::android::hardware::wifi::hostapd::IHostapdCallbackDelegator",
   "record_kind" : "class",
   "referenced_type" : "_ZTIN4aidl7android8hardware4wifi7hostapd25IHostapdCallbackDelegatorE",
   "self_type" : "_ZTIN4aidl7android8hardware4wifi7hostapd25IHostapdCallbackDelegatorE",
   "size" : 32,
   "source_file" : "out/soong/.intermediates/hardware/interfaces/wifi/hostapd/aidl/android.hardware.wifi.hostapd-V1-ndk-source/gen/include/aidl/android/hardware/wifi/hostapd/BnHostapdCallback.h",
   "vtable_components" :
   [
    {
     "kind" : "offset_to_top"
    },
    {
     "kind" : "rtti",
     "mangled_component_name" : "_ZTIN4aidl7android8hardware4wifi7hostapd25IHostapdCallbackDelegatorE"
    },
    {
     "kind" : "complete_dtor_pointer",
     "mangled_component_name" : "_ZN4aidl7android8hardware4wifi7hostapd25IHostapdCallbackDelegatorD1Ev"
    },
    {
     "kind" : "deleting_dtor_pointer",
     "mangled_component_name" : "_ZN4aidl7android8hardware4wifi7hostapd25IHostapdCallbackDelegatorD0Ev"
    },
    {
     "mangled_component_name" : "_ZN3ndk12BnCInterfaceIN4aidl7android8hardware4wifi7hostapd16IHostapdCallbackEE8asBinderEv"
    },
    {
     "mangled_component_name" : "_ZN3ndk12BnCInterfaceIN4aidl7android8hardware4wifi7hostapd16IHostapdCallbackEE8isRemoteEv"
    },
    {
     "mangled_component_name" : "_ZN3ndk11ICInterface4dumpEiPPKcj"
    },
    {
     "mangled_component_name" : "_ZN3ndk11ICInterface18handleShellCommandEiiiPPKcj"
    },
    {
     "mangled_component_name" : "_ZN4aidl7android8hardware4wifi7hostapd25IHostapdCallbackDelegator23onApInstanceInfoChangedERKNS3_6ApInfoE"
    },
    {
     "mangled_component_name" : "_ZN4aidl7android8hardware4wifi7hostapd25IHostapdCallbackDelegator25onConnectedClientsChangedERKNS3_10ClientInfoE"
    },
    {
     "mangled_component_name" : "_ZN4aidl7android8hardware4wifi7hostapd25IHostapdCallbackDelegator9onFailureERKNSt3__112basic_stringIcNS5_11char_traitsIcEENS5_9allocatorIcEEEESD_"
    },
    {
     "mangled_component_name" : "_ZN4aidl7android8hardware4wifi7hostapd17BnHostapdCallback19getInterfaceVersionEPi"
    },
    {
     "mangled_component_name" : "_ZN4aidl7android8hardware4wifi7hostapd17BnHostapdCallback16getInterfaceHashEPNSt3__112basic_stringIcNS5_11char_traitsIcEENS5_9allocatorIcEEEE"
    },
    {
     "mangled_component_name" : "_ZN4aidl7android8hardware4wifi7hostapd17BnHostapdCallback12createBinderEv"
    }
   ]
  },
  {
   "alignment" : 4,
   "fields" :
   [
    {
     "field_name" : "ifaceName",
     "referenced_type" : "_ZTINSt3__112basic_stringIcNS_11char_traitsIcEENS_9allocatorIcEEEE"
    },
    {
     "field_name" : "apIfaceInstance",
     "field_offset" : 96,
     "referenced_type" : "_ZTINSt3__112basic_stringIcNS_11char_traitsIcEENS_9allocatorIcEEEE"
    },
    {
     "field_name" : "freqMhz",
     "field_offset" : 192,
     "referenced_type" : "_ZTIi"
    },
    {
     "field_name" : "channelBandwidth",
     "field_offset" : 224,
     "referenced_type" : "_ZTIN4aidl7android8hardware4wifi7hostapd16ChannelBandwidthE"
    },
    {
     "field_name" : "generation",
     "field_offset" : 256,
     "referenced_type" : "_ZTIN4aidl7android8hardware4wifi7hostapd10GenerationE"
    },
    {
     "field_name" : "apIfaceInstanceMacAddress",
     "field_offset" : 288,
     "referenced_type" : "_ZTINSt3__16vectorIhNS_9allocatorIhEEEE"
    }
   ],
   "linker_set_key" : "_ZTIN4aidl7android8hardware4wifi7hostapd6ApInfoE",
   "name" : "aidl::android::hardware::wifi::hostapd::ApInfo",
   "record_kind" : "class",
   "referenced_type" : "_ZTIN4aidl7android8hardware4wifi7hostapd6ApInfoE",
   "self_type" : "_ZTIN4aidl7android8hardware4wifi7hostapd6ApInfoE",
   "size" : 48,
   "source_file" : "out/soong/.intermediates/hardware/interfaces/wifi/hostapd/aidl/android.hardware.wifi.hostapd-V1-ndk-source/gen/include/aidl/android/hardware/wifi/hostapd/ApInfo.h"
  },
  {
   "alignment" : 4,
   "base_specifiers" :
   [
    {
     "referenced_type" : "_ZTIN3ndk11ICInterfaceE"
    }
   ],
   "linker_set_key" : "_ZTIN4aidl7android8hardware4wifi7hostapd8IHostapdE",
   "name" : "aidl::android::hardware::wifi::hostapd::IHostapd",
   "record_kind" : "class",
   "referenced_type" : "_ZTIN4aidl7android8hardware4wifi7hostapd8IHostapdE",
   "self_type" : "_ZTIN4aidl7android8hardware4wifi7hostapd8IHostapdE",
   "size" : 16,
   "source_file" : "out/soong/.intermediates/hardware/interfaces/wifi/hostapd/aidl/android.hardware.wifi.hostapd-V1-ndk-source/gen/include/aidl/android/hardware/wifi/hostapd/IHostapd.h",
   "vtable_components" :
   [
    {
     "kind" : "offset_to_top"
    },
    {
     "kind" : "rtti",
     "mangled_component_name" : "_ZTIN4aidl7android8hardware4wifi7hostapd8IHostapdE"
    },
    {
     "kind" : "complete_dtor_pointer",
     "mangled_component_name" : "_ZN4aidl7android8hardware4wifi7hostapd8IHostapdD1Ev"
    },
    {
     "kind" : "deleting_dtor_pointer",
     "mangled_component_name" : "_ZN4aidl7android8hardware4wifi7hostapd8IHostapdD0Ev"
    },
    {
     "is_pure" : true,
     "mangled_component_name" : "_ZN3ndk11ICInterface8asBinderEv"
    },
    {
     "is_pure" : true,
     "mangled_component_name" : "_ZN3ndk11ICInterface8isRemoteEv"
    },
    {
     "mangled_component_name" : "_ZN3ndk11ICInterface4dumpEiPPKcj"
    },
    {
     "mangled_component_name" : "_ZN3ndk11ICInterface18handleShellCommandEiiiPPKcj"
    },
    {
     "is_pure" : true,
     "mangled_component_name" : "_ZN4aidl7android8hardware4wifi7hostapd8IHostapd14addAccessPointERKNS3_11IfaceParamsERKNS3_13NetworkParamsE"
    },
    {
     "is_pure" : true,
     "mangled_component_name" : "_ZN4aidl7android8hardware4wifi7hostapd8IHostapd21forceClientDisconnectERKNSt3__112basic_stringIcNS5_11char_traitsIcEENS5_9allocatorIcEEEERKNS5_6vectorIhNS9_IhEEEENS3_19Ieee80211ReasonCodeE"
    },
    {
     "is_pure" : true,
     "mangled_component_name" : "_ZN4aidl7android8hardware4wifi7hostapd8IHostapd16registerCallbackERKNSt3__110shared_ptrINS3_16IHostapdCallbackEEE"
    },
    {
     "is_pure" : true,
     "mangled_component_name" : "_ZN4aidl7android8hardware4wifi7hostapd8IHostapd17removeAccessPointERKNSt3__112basic_stringIcNS5_11char_traitsIcEENS5_9allocatorIcEEEE"
    },
    {
     "is_pure" : true,
     "mangled_component_name" : "_ZN4aidl7android8hardware4wifi7hostapd8IHostapd14setDebugParamsENS3_10DebugLevelE"
    },
    {
     "is_pure" : true,
     "mangled_component_name" : "_ZN4aidl7android8hardware4wifi7hostapd8IHostapd9terminateEv"
    },
    {
     "is_pure" : true,
     "mangled_component_name" : "_ZN4aidl7android8hardware4wifi7hostapd8IHostapd19getInterfaceVersionEPi"
    },
    {
     "is_pure" : true,
     "mangled_component_name" : "_ZN4aidl7android8hardware4wifi7hostapd8IHostapd16getInterfaceHashEPNSt3__112basic_stringIcNS5_11char_traitsIcEENS5_9allocatorIcEEEE"
    }
   ]
  },
  {
   "alignment" : 4,
   "base_specifiers" :
   [
    {
     "referenced_type" : "_ZTIN3ndk12BnCInterfaceIN4aidl7android8hardware4wifi7hostapd8IHostapdEEE"
    }
   ],
   "linker_set_key" : "_ZTIN4aidl7android8hardware4wifi7hostapd9BnHostapdE",
   "name" : "aidl::android::hardware::wifi::hostapd::BnHostapd",
   "record_kind" : "class",
   "referenced_type" : "_ZTIN4aidl7android8hardware4wifi7hostapd9BnHostapdE",
   "self_type" : "_ZTIN4aidl7android8hardware4wifi7hostapd9BnHostapdE",
   "size" : 24,
   "source_file" : "out/soong/.intermediates/hardware/interfaces/wifi/hostapd/aidl/android.hardware.wifi.hostapd-V1-ndk-source/gen/include/aidl/android/hardware/wifi/hostapd/BnHostapd.h",
   "vtable_components" :
   [
    {
     "kind" : "offset_to_top"
    },
    {
     "kind" : "rtti",
     "mangled_component_name" : "_ZTIN4aidl7android8hardware4wifi7hostapd9BnHostapdE"
    },
    {
     "kind" : "complete_dtor_pointer",
     "mangled_component_name" : "_ZN4aidl7android8hardware4wifi7hostapd9BnHostapdD1Ev"
    },
    {
     "kind" : "deleting_dtor_pointer",
     "mangled_component_name" : "_ZN4aidl7android8hardware4wifi7hostapd9BnHostapdD0Ev"
    },
    {
     "mangled_component_name" : "_ZN3ndk12BnCInterfaceIN4aidl7android8hardware4wifi7hostapd8IHostapdEE8asBinderEv"
    },
    {
     "mangled_component_name" : "_ZN3ndk12BnCInterfaceIN4aidl7android8hardware4wifi7hostapd8IHostapdEE8isRemoteEv"
    },
    {
     "mangled_component_name" : "_ZN3ndk11ICInterface4dumpEiPPKcj"
    },
    {
     "mangled_component_name" : "_ZN3ndk11ICInterface18handleShellCommandEiiiPPKcj"
    },
    {
     "is_pure" : true,
     "mangled_component_name" : "_ZN4aidl7android8hardware4wifi7hostapd8IHostapd14addAccessPointERKNS3_11IfaceParamsERKNS3_13NetworkParamsE"
    },
    {
     "is_pure" : true,
     "mangled_component_name" : "_ZN4aidl7android8hardware4wifi7hostapd8IHostapd21forceClientDisconnectERKNSt3__112basic_stringIcNS5_11char_traitsIcEENS5_9allocatorIcEEEERKNS5_6vectorIhNS9_IhEEEENS3_19Ieee80211ReasonCodeE"
    },
    {
     "is_pure" : true,
     "mangled_component_name" : "_ZN4aidl7android8hardware4wifi7hostapd8IHostapd16registerCallbackERKNSt3__110shared_ptrINS3_16IHostapdCallbackEEE"
    },
    {
     "is_pure" : true,
     "mangled_component_name" : "_ZN4aidl7android8hardware4wifi7hostapd8IHostapd17removeAccessPointERKNSt3__112basic_stringIcNS5_11char_traitsIcEENS5_9allocatorIcEEEE"
    },
    {
     "is_pure" : true,
     "mangled_component_name" : "_ZN4aidl7android8hardware4wifi7hostapd8IHostapd14setDebugParamsENS3_10DebugLevelE"
    },
    {
     "is_pure" : true,
     "mangled_component_name" : "_ZN4aidl7android8hardware4wifi7hostapd8IHostapd9terminateEv"
    },
    {
     "mangled_component_name" : "_ZN4aidl7android8hardware4wifi7hostapd9BnHostapd19getInterfaceVersionEPi"
    },
    {
     "mangled_component_name" : "_ZN4aidl7android8hardware4wifi7hostapd9BnHostapd16getInterfaceHashEPNSt3__112basic_stringIcNS5_11char_traitsIcEENS5_9allocatorIcEEEE"
    },
    {
     "mangled_component_name" : "_ZN4aidl7android8hardware4wifi7hostapd9BnHostapd12createBinderEv"
    }
   ]
  },
  {
   "alignment" : 4,
   "base_specifiers" :
   [
    {
     "referenced_type" : "_ZTIN3ndk12BpCInterfaceIN4aidl7android8hardware4wifi7hostapd8IHostapdEEE"
    }
   ],
   "fields" :
   [
    {
     "field_name" : "_aidl_cached_version",
     "field_offset" : 160,
     "referenced_type" : "_ZTIi"
    },
    {
     "field_name" : "_aidl_cached_hash",
     "field_offset" : 192,
     "referenced_type" : "_ZTINSt3__112basic_stringIcNS_11char_traitsIcEENS_9allocatorIcEEEE"
    },
    {
     "field_name" : "_aidl_cached_hash_mutex",
     "field_offset" : 288,
     "referenced_type" : "_ZTINSt3__15mutexE"
    }
   ],
   "linker_set_key" : "_ZTIN4aidl7android8hardware4wifi7hostapd9BpHostapdE",
   "name" : "aidl::android::hardware::wifi::hostapd::BpHostapd",
   "record_kind" : "class",
   "referenced_type" : "_ZTIN4aidl7android8hardware4wifi7hostapd9BpHostapdE",
   "self_type" : "_ZTIN4aidl7android8hardware4wifi7hostapd9BpHostapdE",
   "size" : 40,
   "source_file" : "out/soong/.intermediates/hardware/interfaces/wifi/hostapd/aidl/android.hardware.wifi.hostapd-V1-ndk-source/gen/include/aidl/android/hardware/wifi/hostapd/BpHostapd.h",
   "vtable_components" :
   [
    {
     "kind" : "offset_to_top"
    },
    {
     "kind" : "rtti",
     "mangled_component_name" : "_ZTIN4aidl7android8hardware4wifi7hostapd9BpHostapdE"
    },
    {
     "kind" : "complete_dtor_pointer",
     "mangled_component_name" : "_ZN4aidl7android8hardware4wifi7hostapd9BpHostapdD1Ev"
    },
    {
     "kind" : "deleting_dtor_pointer",
     "mangled_component_name" : "_ZN4aidl7android8hardware4wifi7hostapd9BpHostapdD0Ev"
    },
    {
     "mangled_component_name" : "_ZN3ndk12BpCInterfaceIN4aidl7android8hardware4wifi7hostapd8IHostapdEE8asBinderEv"
    },
    {
     "mangled_component_name" : "_ZN3ndk12BpCInterfaceIN4aidl7android8hardware4wifi7hostapd8IHostapdEE8isRemoteEv"
    },
    {
     "mangled_component_name" : "_ZN3ndk12BpCInterfaceIN4aidl7android8hardware4wifi7hostapd8IHostapdEE4dumpEiPPKcj"
    },
    {
     "mangled_component_name" : "_ZN3ndk11ICInterface18handleShellCommandEiiiPPKcj"
    },
    {
     "mangled_component_name" : "_ZN4aidl7android8hardware4wifi7hostapd9BpHostapd14addAccessPointERKNS3_11IfaceParamsERKNS3_13NetworkParamsE"
    },
    {
     "mangled_component_name" : "_ZN4aidl7android8hardware4wifi7hostapd9BpHostapd21forceClientDisconnectERKNSt3__112basic_stringIcNS5_11char_traitsIcEENS5_9allocatorIcEEEERKNS5_6vectorIhNS9_IhEEEENS3_19Ieee80211ReasonCodeE"
    },
    {
     "mangled_component_name" : "_ZN4aidl7android8hardware4wifi7hostapd9BpHostapd16registerCallbackERKNSt3__110shared_ptrINS3_16IHostapdCallbackEEE"
    },
    {
     "mangled_component_name" : "_ZN4aidl7android8hardware4wifi7hostapd9BpHostapd17removeAccessPointERKNSt3__112basic_stringIcNS5_11char_traitsIcEENS5_9allocatorIcEEEE"
    },
    {
     "mangled_component_name" : "_ZN4aidl7android8hardware4wifi7hostapd9BpHostapd14setDebugParamsENS3_10DebugLevelE"
    },
    {
     "mangled_component_name" : "_ZN4aidl7android8hardware4wifi7hostapd9BpHostapd9terminateEv"
    },
    {
     "mangled_component_name" : "_ZN4aidl7android8hardware4wifi7hostapd9BpHostapd19getInterfaceVersionEPi"
    },
    {
     "mangled_component_name" : "_ZN4aidl7android8hardware4wifi7hostapd9BpHostapd16getInterfaceHashEPNSt3__112basic_stringIcNS5_11char_traitsIcEENS5_9allocatorIcEEEE"
    }
   ]
  },
  {
   "alignment" : 1,
   "linker_set_key" : "_ZTIN7android8internal7details10IsIterableINSt3__16vectorIN4aidl7android8hardware4wifi7hostapd13ChannelParamsENS3_9allocatorISA_EEEEEE",
   "name" : "android::internal::details::IsIterable<std::vector<aidl::android::hardware::wifi::hostapd::ChannelParams, std::allocator<aidl::android::hardware::wifi::hostapd::ChannelParams>>>",
   "record_kind" : "class",
   "referenced_type" : "_ZTIN7android8internal7details10IsIterableINSt3__16vectorIN4aidl7android8hardware4wifi7hostapd13ChannelParamsENS3_9allocatorISA_EEEEEE",
   "self_type" : "_ZTIN7android8internal7details10IsIterableINSt3__16vectorIN4aidl7android8hardware4wifi7hostapd13ChannelParamsENS3_9allocatorISA_EEEEEE",
   "size" : 1,
   "source_file" : "frameworks/native/libs/binder/ndk/include_cpp/android/binder_to_string.h",
   "template_args" :
   [
    "_ZTINSt3__16vectorIN4aidl7android8hardware4wifi7hostapd13ChannelParamsENS_9allocatorIS6_EEEE"
   ]
  },
  {
   "alignment" : 1,
   "linker_set_key" : "_ZTIN7android8internal7details10IsIterableINSt3__16vectorIN4aidl7android8hardware4wifi7hostapd14FrequencyRangeENS3_9allocatorISA_EEEEEE",
   "name" : "android::internal::details::IsIterable<std::vector<aidl::android::hardware::wifi::hostapd::FrequencyRange, std::allocator<aidl::android::hardware::wifi::hostapd::FrequencyRange>>>",
   "record_kind" : "class",
   "referenced_type" : "_ZTIN7android8internal7details10IsIterableINSt3__16vectorIN4aidl7android8hardware4wifi7hostapd14FrequencyRangeENS3_9allocatorISA_EEEEEE",
   "self_type" : "_ZTIN7android8internal7details10IsIterableINSt3__16vectorIN4aidl7android8hardware4wifi7hostapd14FrequencyRangeENS3_9allocatorISA_EEEEEE",
   "size" : 1,
   "source_file" : "frameworks/native/libs/binder/ndk/include_cpp/android/binder_to_string.h",
   "template_args" :
   [
    "_ZTINSt3__16vectorIN4aidl7android8hardware4wifi7hostapd14FrequencyRangeENS_9allocatorIS6_EEEE"
   ]
  },
  {
   "alignment" : 1,
   "linker_set_key" : "_ZTIN7android8internal7details10IsIterableINSt3__16vectorIhNS3_9allocatorIhEEEEEE",
   "name" : "android::internal::details::IsIterable<std::vector<unsigned char, std::allocator<unsigned char>>>",
   "record_kind" : "class",
   "referenced_type" : "_ZTIN7android8internal7details10IsIterableINSt3__16vectorIhNS3_9allocatorIhEEEEEE",
   "self_type" : "_ZTIN7android8internal7details10IsIterableINSt3__16vectorIhNS3_9allocatorIhEEEEEE",
   "size" : 1,
   "source_file" : "frameworks/native/libs/binder/ndk/include_cpp/android/binder_to_string.h",
   "template_args" :
   [
    "_ZTINSt3__16vectorIhNS_9allocatorIhEEEE"
   ]
  },
  {
   "alignment" : 1,
   "linker_set_key" : "_ZTIN7android8internal7details13IsPointerLikeIN4aidl7android8hardware4wifi7hostapd10GenerationEEE",
   "name" : "android::internal::details::IsPointerLike<aidl::android::hardware::wifi::hostapd::Generation>",
   "record_kind" : "class",
   "referenced_type" : "_ZTIN7android8internal7details13IsPointerLikeIN4aidl7android8hardware4wifi7hostapd10GenerationEEE",
   "self_type" : "_ZTIN7android8internal7details13IsPointerLikeIN4aidl7android8hardware4wifi7hostapd10GenerationEEE",
   "size" : 1,
   "source_file" : "frameworks/native/libs/binder/ndk/include_cpp/android/binder_to_string.h",
   "template_args" :
   [
    "_ZTIN4aidl7android8hardware4wifi7hostapd10GenerationE"
   ]
  },
  {
   "alignment" : 1,
   "linker_set_key" : "_ZTIN7android8internal7details13IsPointerLikeIN4aidl7android8hardware4wifi7hostapd12HwModeParamsEEE",
   "name" : "android::internal::details::IsPointerLike<aidl::android::hardware::wifi::hostapd::HwModeParams>",
   "record_kind" : "class",
   "referenced_type" : "_ZTIN7android8internal7details13IsPointerLikeIN4aidl7android8hardware4wifi7hostapd12HwModeParamsEEE",
   "self_type" : "_ZTIN7android8internal7details13IsPointerLikeIN4aidl7android8hardware4wifi7hostapd12HwModeParamsEEE",
   "size" : 1,
   "source_file" : "frameworks/native/libs/binder/ndk/include_cpp/android/binder_to_string.h",
   "template_args" :
   [
    "_ZTIN4aidl7android8hardware4wifi7hostapd12HwModeParamsE"
   ]
  },
  {
   "alignment" : 1,
   "linker_set_key" : "_ZTIN7android8internal7details13IsPointerLikeIN4aidl7android8hardware4wifi7hostapd13ChannelParamsEEE",
   "name" : "android::internal::details::IsPointerLike<aidl::android::hardware::wifi::hostapd::ChannelParams>",
   "record_kind" : "class",
   "referenced_type" : "_ZTIN7android8internal7details13IsPointerLikeIN4aidl7android8hardware4wifi7hostapd13ChannelParamsEEE",
   "self_type" : "_ZTIN7android8internal7details13IsPointerLikeIN4aidl7android8hardware4wifi7hostapd13ChannelParamsEEE",
   "size" : 1,
   "source_file" : "frameworks/native/libs/binder/ndk/include_cpp/android/binder_to_string.h",
   "template_args" :
   [
    "_ZTIN4aidl7android8hardware4wifi7hostapd13ChannelParamsE"
   ]
  },
  {
   "alignment" : 1,
   "linker_set_key" : "_ZTIN7android8internal7details13IsPointerLikeIN4aidl7android8hardware4wifi7hostapd14EncryptionTypeEEE",
   "name" : "android::internal::details::IsPointerLike<aidl::android::hardware::wifi::hostapd::EncryptionType>",
   "record_kind" : "class",
   "referenced_type" : "_ZTIN7android8internal7details13IsPointerLikeIN4aidl7android8hardware4wifi7hostapd14EncryptionTypeEEE",
   "self_type" : "_ZTIN7android8internal7details13IsPointerLikeIN4aidl7android8hardware4wifi7hostapd14EncryptionTypeEEE",
   "size" : 1,
   "source_file" : "frameworks/native/libs/binder/ndk/include_cpp/android/binder_to_string.h",
   "template_args" :
   [
    "_ZTIN4aidl7android8hardware4wifi7hostapd14EncryptionTypeE"
   ]
  },
  {
   "alignment" : 1,
   "linker_set_key" : "_ZTIN7android8internal7details13IsPointerLikeIN4aidl7android8hardware4wifi7hostapd14FrequencyRangeEEE",
   "name" : "android::internal::details::IsPointerLike<aidl::android::hardware::wifi::hostapd::FrequencyRange>",
   "record_kind" : "class",
   "referenced_type" : "_ZTIN7android8internal7details13IsPointerLikeIN4aidl7android8hardware4wifi7hostapd14FrequencyRangeEEE",
   "self_type" : "_ZTIN7android8internal7details13IsPointerLikeIN4aidl7android8hardware4wifi7hostapd14FrequencyRangeEEE",
   "size" : 1,
   "source_file" : "frameworks/native/libs/binder/ndk/include_cpp/android/binder_to_string.h",
   "template_args" :
   [
    "_ZTIN4aidl7android8hardware4wifi7hostapd14FrequencyRangeE"
   ]
  },
  {
   "alignment" : 1,
   "linker_set_key" : "_ZTIN7android8internal7details13IsPointerLikeIN4aidl7android8hardware4wifi7hostapd16ChannelBandwidthEEE",
   "name" : "android::internal::details::IsPointerLike<aidl::android::hardware::wifi::hostapd::ChannelBandwidth>",
   "record_kind" : "class",
   "referenced_type" : "_ZTIN7android8internal7details13IsPointerLikeIN4aidl7android8hardware4wifi7hostapd16ChannelBandwidthEEE",
   "self_type" : "_ZTIN7android8internal7details13IsPointerLikeIN4aidl7android8hardware4wifi7hostapd16ChannelBandwidthEEE",
   "size" : 1,
   "source_file" : "frameworks/native/libs/binder/ndk/include_cpp/android/binder_to_string.h",
   "template_args" :
   [
    "_ZTIN4aidl7android8hardware4wifi7hostapd16ChannelBandwidthE"
   ]
  },
  {
   "alignment" : 1,
   "linker_set_key" : "_ZTIN7android8internal7details13IsPointerLikeIN4aidl7android8hardware4wifi7hostapd8BandMaskEEE",
   "name" : "android::internal::details::IsPointerLike<aidl::android::hardware::wifi::hostapd::BandMask>",
   "record_kind" : "class",
   "referenced_type" : "_ZTIN7android8internal7details13IsPointerLikeIN4aidl7android8hardware4wifi7hostapd8BandMaskEEE",
   "self_type" : "_ZTIN7android8internal7details13IsPointerLikeIN4aidl7android8hardware4wifi7hostapd8BandMaskEEE",
   "size" : 1,
   "source_file" : "frameworks/native/libs/binder/ndk/include_cpp/android/binder_to_string.h",
   "template_args" :
   [
    "_ZTIN4aidl7android8hardware4wifi7hostapd8BandMaskE"
   ]
  },
  {
   "alignment" : 1,
   "linker_set_key" : "_ZTIN7android8internal7details13IsPointerLikeINSt3__16vectorIN4aidl7android8hardware4wifi7hostapd13ChannelParamsENS3_9allocatorISA_EEEEEE",
   "name" : "android::internal::details::IsPointerLike<std::vector<aidl::android::hardware::wifi::hostapd::ChannelParams, std::allocator<aidl::android::hardware::wifi::hostapd::ChannelParams>>>",
   "record_kind" : "class",
   "referenced_type" : "_ZTIN7android8internal7details13IsPointerLikeINSt3__16vectorIN4aidl7android8hardware4wifi7hostapd13ChannelParamsENS3_9allocatorISA_EEEEEE",
   "self_type" : "_ZTIN7android8internal7details13IsPointerLikeINSt3__16vectorIN4aidl7android8hardware4wifi7hostapd13ChannelParamsENS3_9allocatorISA_EEEEEE",
   "size" : 1,
   "source_file" : "frameworks/native/libs/binder/ndk/include_cpp/android/binder_to_string.h",
   "template_args" :
   [
    "_ZTINSt3__16vectorIN4aidl7android8hardware4wifi7hostapd13ChannelParamsENS_9allocatorIS6_EEEE"
   ]
  },
  {
   "alignment" : 1,
   "linker_set_key" : "_ZTIN7android8internal7details13IsPointerLikeINSt3__16vectorIN4aidl7android8hardware4wifi7hostapd14FrequencyRangeENS3_9allocatorISA_EEEEEE",
   "name" : "android::internal::details::IsPointerLike<std::vector<aidl::android::hardware::wifi::hostapd::FrequencyRange, std::allocator<aidl::android::hardware::wifi::hostapd::FrequencyRange>>>",
   "record_kind" : "class",
   "referenced_type" : "_ZTIN7android8internal7details13IsPointerLikeINSt3__16vectorIN4aidl7android8hardware4wifi7hostapd14FrequencyRangeENS3_9allocatorISA_EEEEEE",
   "self_type" : "_ZTIN7android8internal7details13IsPointerLikeINSt3__16vectorIN4aidl7android8hardware4wifi7hostapd14FrequencyRangeENS3_9allocatorISA_EEEEEE",
   "size" : 1,
   "source_file" : "frameworks/native/libs/binder/ndk/include_cpp/android/binder_to_string.h",
   "template_args" :
   [
    "_ZTINSt3__16vectorIN4aidl7android8hardware4wifi7hostapd14FrequencyRangeENS_9allocatorIS6_EEEE"
   ]
  },
  {
   "alignment" : 1,
   "linker_set_key" : "_ZTIN7android8internal7details13IsPointerLikeINSt3__16vectorIhNS3_9allocatorIhEEEEEE",
   "name" : "android::internal::details::IsPointerLike<std::vector<unsigned char, std::allocator<unsigned char>>>",
   "record_kind" : "class",
   "referenced_type" : "_ZTIN7android8internal7details13IsPointerLikeINSt3__16vectorIhNS3_9allocatorIhEEEEEE",
   "self_type" : "_ZTIN7android8internal7details13IsPointerLikeINSt3__16vectorIhNS3_9allocatorIhEEEEEE",
   "size" : 1,
   "source_file" : "frameworks/native/libs/binder/ndk/include_cpp/android/binder_to_string.h",
   "template_args" :
   [
    "_ZTINSt3__16vectorIhNS_9allocatorIhEEEE"
   ]
  },
  {
   "alignment" : 1,
   "linker_set_key" : "_ZTIN7android8internal7details13ToEmptyStringIN4aidl7android8hardware4wifi7hostapd10GenerationEEE",
   "name" : "android::internal::details::ToEmptyString<aidl::android::hardware::wifi::hostapd::Generation>",
   "record_kind" : "class",
   "referenced_type" : "_ZTIN7android8internal7details13ToEmptyStringIN4aidl7android8hardware4wifi7hostapd10GenerationEEE",
   "self_type" : "_ZTIN7android8internal7details13ToEmptyStringIN4aidl7android8hardware4wifi7hostapd10GenerationEEE",
   "size" : 1,
   "source_file" : "frameworks/native/libs/binder/ndk/include_cpp/android/binder_to_string.h",
   "template_args" :
   [
    "_ZTIN4aidl7android8hardware4wifi7hostapd10GenerationE"
   ]
  },
  {
   "alignment" : 1,
   "linker_set_key" : "_ZTIN7android8internal7details13ToEmptyStringIN4aidl7android8hardware4wifi7hostapd12HwModeParamsEEE",
   "name" : "android::internal::details::ToEmptyString<aidl::android::hardware::wifi::hostapd::HwModeParams>",
   "record_kind" : "class",
   "referenced_type" : "_ZTIN7android8internal7details13ToEmptyStringIN4aidl7android8hardware4wifi7hostapd12HwModeParamsEEE",
   "self_type" : "_ZTIN7android8internal7details13ToEmptyStringIN4aidl7android8hardware4wifi7hostapd12HwModeParamsEEE",
   "size" : 1,
   "source_file" : "frameworks/native/libs/binder/ndk/include_cpp/android/binder_to_string.h",
   "template_args" :
   [
    "_ZTIN4aidl7android8hardware4wifi7hostapd12HwModeParamsE"
   ]
  },
  {
   "alignment" : 1,
   "linker_set_key" : "_ZTIN7android8internal7details13ToEmptyStringIN4aidl7android8hardware4wifi7hostapd13ChannelParamsEEE",
   "name" : "android::internal::details::ToEmptyString<aidl::android::hardware::wifi::hostapd::ChannelParams>",
   "record_kind" : "class",
   "referenced_type" : "_ZTIN7android8internal7details13ToEmptyStringIN4aidl7android8hardware4wifi7hostapd13ChannelParamsEEE",
   "self_type" : "_ZTIN7android8internal7details13ToEmptyStringIN4aidl7android8hardware4wifi7hostapd13ChannelParamsEEE",
   "size" : 1,
   "source_file" : "frameworks/native/libs/binder/ndk/include_cpp/android/binder_to_string.h",
   "template_args" :
   [
    "_ZTIN4aidl7android8hardware4wifi7hostapd13ChannelParamsE"
   ]
  },
  {
   "alignment" : 1,
   "linker_set_key" : "_ZTIN7android8internal7details13ToEmptyStringIN4aidl7android8hardware4wifi7hostapd14EncryptionTypeEEE",
   "name" : "android::internal::details::ToEmptyString<aidl::android::hardware::wifi::hostapd::EncryptionType>",
   "record_kind" : "class",
   "referenced_type" : "_ZTIN7android8internal7details13ToEmptyStringIN4aidl7android8hardware4wifi7hostapd14EncryptionTypeEEE",
   "self_type" : "_ZTIN7android8internal7details13ToEmptyStringIN4aidl7android8hardware4wifi7hostapd14EncryptionTypeEEE",
   "size" : 1,
   "source_file" : "frameworks/native/libs/binder/ndk/include_cpp/android/binder_to_string.h",
   "template_args" :
   [
    "_ZTIN4aidl7android8hardware4wifi7hostapd14EncryptionTypeE"
   ]
  },
  {
   "alignment" : 1,
   "linker_set_key" : "_ZTIN7android8internal7details13ToEmptyStringIN4aidl7android8hardware4wifi7hostapd14FrequencyRangeEEE",
   "name" : "android::internal::details::ToEmptyString<aidl::android::hardware::wifi::hostapd::FrequencyRange>",
   "record_kind" : "class",
   "referenced_type" : "_ZTIN7android8internal7details13ToEmptyStringIN4aidl7android8hardware4wifi7hostapd14FrequencyRangeEEE",
   "self_type" : "_ZTIN7android8internal7details13ToEmptyStringIN4aidl7android8hardware4wifi7hostapd14FrequencyRangeEEE",
   "size" : 1,
   "source_file" : "frameworks/native/libs/binder/ndk/include_cpp/android/binder_to_string.h",
   "template_args" :
   [
    "_ZTIN4aidl7android8hardware4wifi7hostapd14FrequencyRangeE"
   ]
  },
  {
   "alignment" : 1,
   "linker_set_key" : "_ZTIN7android8internal7details13ToEmptyStringIN4aidl7android8hardware4wifi7hostapd16ChannelBandwidthEEE",
   "name" : "android::internal::details::ToEmptyString<aidl::android::hardware::wifi::hostapd::ChannelBandwidth>",
   "record_kind" : "class",
   "referenced_type" : "_ZTIN7android8internal7details13ToEmptyStringIN4aidl7android8hardware4wifi7hostapd16ChannelBandwidthEEE",
   "self_type" : "_ZTIN7android8internal7details13ToEmptyStringIN4aidl7android8hardware4wifi7hostapd16ChannelBandwidthEEE",
   "size" : 1,
   "source_file" : "frameworks/native/libs/binder/ndk/include_cpp/android/binder_to_string.h",
   "template_args" :
   [
    "_ZTIN4aidl7android8hardware4wifi7hostapd16ChannelBandwidthE"
   ]
  },
  {
   "alignment" : 1,
   "linker_set_key" : "_ZTIN7android8internal7details13ToEmptyStringIN4aidl7android8hardware4wifi7hostapd8BandMaskEEE",
   "name" : "android::internal::details::ToEmptyString<aidl::android::hardware::wifi::hostapd::BandMask>",
   "record_kind" : "class",
   "referenced_type" : "_ZTIN7android8internal7details13ToEmptyStringIN4aidl7android8hardware4wifi7hostapd8BandMaskEEE",
   "self_type" : "_ZTIN7android8internal7details13ToEmptyStringIN4aidl7android8hardware4wifi7hostapd8BandMaskEEE",
   "size" : 1,
   "source_file" : "frameworks/native/libs/binder/ndk/include_cpp/android/binder_to_string.h",
   "template_args" :
   [
    "_ZTIN4aidl7android8hardware4wifi7hostapd8BandMaskE"
   ]
  },
  {
   "alignment" : 1,
   "linker_set_key" : "_ZTIN7android8internal7details13ToEmptyStringINSt3__112basic_stringIcNS3_11char_traitsIcEENS3_9allocatorIcEEEEEE",
   "name" : "android::internal::details::ToEmptyString<std::basic_string<char, std::char_traits<char>, std::allocator<char>>>",
   "record_kind" : "class",
   "referenced_type" : "_ZTIN7android8internal7details13ToEmptyStringINSt3__112basic_stringIcNS3_11char_traitsIcEENS3_9allocatorIcEEEEEE",
   "self_type" : "_ZTIN7android8internal7details13ToEmptyStringINSt3__112basic_stringIcNS3_11char_traitsIcEENS3_9allocatorIcEEEEEE",
   "size" : 1,
   "source_file" : "frameworks/native/libs/binder/ndk/include_cpp/android/binder_to_string.h",
   "template_args" :
   [
    "_ZTINSt3__112basic_stringIcNS_11char_traitsIcEENS_9allocatorIcEEEE"
   ]
  },
  {
   "alignment" : 1,
   "linker_set_key" : "_ZTIN7android8internal7details13ToEmptyStringINSt3__16vectorIN4aidl7android8hardware4wifi7hostapd13ChannelParamsENS3_9allocatorISA_EEEEEE",
   "name" : "android::internal::details::ToEmptyString<std::vector<aidl::android::hardware::wifi::hostapd::ChannelParams, std::allocator<aidl::android::hardware::wifi::hostapd::ChannelParams>>>",
   "record_kind" : "class",
   "referenced_type" : "_ZTIN7android8internal7details13ToEmptyStringINSt3__16vectorIN4aidl7android8hardware4wifi7hostapd13ChannelParamsENS3_9allocatorISA_EEEEEE",
   "self_type" : "_ZTIN7android8internal7details13ToEmptyStringINSt3__16vectorIN4aidl7android8hardware4wifi7hostapd13ChannelParamsENS3_9allocatorISA_EEEEEE",
   "size" : 1,
   "source_file" : "frameworks/native/libs/binder/ndk/include_cpp/android/binder_to_string.h",
   "template_args" :
   [
    "_ZTINSt3__16vectorIN4aidl7android8hardware4wifi7hostapd13ChannelParamsENS_9allocatorIS6_EEEE"
   ]
  },
  {
   "alignment" : 1,
   "linker_set_key" : "_ZTIN7android8internal7details13ToEmptyStringINSt3__16vectorIN4aidl7android8hardware4wifi7hostapd14FrequencyRangeENS3_9allocatorISA_EEEEEE",
   "name" : "android::internal::details::ToEmptyString<std::vector<aidl::android::hardware::wifi::hostapd::FrequencyRange, std::allocator<aidl::android::hardware::wifi::hostapd::FrequencyRange>>>",
   "record_kind" : "class",
   "referenced_type" : "_ZTIN7android8internal7details13ToEmptyStringINSt3__16vectorIN4aidl7android8hardware4wifi7hostapd14FrequencyRangeENS3_9allocatorISA_EEEEEE",
   "self_type" : "_ZTIN7android8internal7details13ToEmptyStringINSt3__16vectorIN4aidl7android8hardware4wifi7hostapd14FrequencyRangeENS3_9allocatorISA_EEEEEE",
   "size" : 1,
   "source_file" : "frameworks/native/libs/binder/ndk/include_cpp/android/binder_to_string.h",
   "template_args" :
   [
    "_ZTINSt3__16vectorIN4aidl7android8hardware4wifi7hostapd14FrequencyRangeENS_9allocatorIS6_EEEE"
   ]
  },
  {
   "alignment" : 1,
   "linker_set_key" : "_ZTIN7android8internal7details13ToEmptyStringINSt3__16vectorIhNS3_9allocatorIhEEEEEE",
   "name" : "android::internal::details::ToEmptyString<std::vector<unsigned char, std::allocator<unsigned char>>>",
   "record_kind" : "class",
   "referenced_type" : "_ZTIN7android8internal7details13ToEmptyStringINSt3__16vectorIhNS3_9allocatorIhEEEEEE",
   "self_type" : "_ZTIN7android8internal7details13ToEmptyStringINSt3__16vectorIhNS3_9allocatorIhEEEEEE",
   "size" : 1,
   "source_file" : "frameworks/native/libs/binder/ndk/include_cpp/android/binder_to_string.h",
   "template_args" :
   [
    "_ZTINSt3__16vectorIhNS_9allocatorIhEEEE"
   ]
  },
  {
   "alignment" : 1,
   "linker_set_key" : "_ZTIN7android8internal7details13ToEmptyStringIbEE",
   "name" : "android::internal::details::ToEmptyString<bool>",
   "record_kind" : "class",
   "referenced_type" : "_ZTIN7android8internal7details13ToEmptyStringIbEE",
   "self_type" : "_ZTIN7android8internal7details13ToEmptyStringIbEE",
   "size" : 1,
   "source_file" : "frameworks/native/libs/binder/ndk/include_cpp/android/binder_to_string.h",
   "template_args" :
   [
    "_ZTIb"
   ]
  },
  {
   "alignment" : 1,
   "linker_set_key" : "_ZTIN7android8internal7details13ToEmptyStringIhEE",
   "name" : "android::internal::details::ToEmptyString<unsigned char>",
   "record_kind" : "class",
   "referenced_type" : "_ZTIN7android8internal7details13ToEmptyStringIhEE",
   "self_type" : "_ZTIN7android8internal7details13ToEmptyStringIhEE",
   "size" : 1,
   "source_file" : "frameworks/native/libs/binder/ndk/include_cpp/android/binder_to_string.h",
   "template_args" :
   [
    "_ZTIh"
   ]
  },
  {
   "alignment" : 1,
   "linker_set_key" : "_ZTIN7android8internal7details13ToEmptyStringIiEE",
   "name" : "android::internal::details::ToEmptyString<int>",
   "record_kind" : "class",
   "referenced_type" : "_ZTIN7android8internal7details13ToEmptyStringIiEE",
   "self_type" : "_ZTIN7android8internal7details13ToEmptyStringIiEE",
   "size" : 1,
   "source_file" : "frameworks/native/libs/binder/ndk/include_cpp/android/binder_to_string.h",
   "template_args" :
   [
    "_ZTIi"
   ]
  },
  {
   "alignment" : 1,
   "linker_set_key" : "_ZTIN7android8internal7details17HasToStringMethodIN4aidl7android8hardware4wifi7hostapd10GenerationEEE",
   "name" : "android::internal::details::HasToStringMethod<aidl::android::hardware::wifi::hostapd::Generation>",
   "record_kind" : "class",
   "referenced_type" : "_ZTIN7android8internal7details17HasToStringMethodIN4aidl7android8hardware4wifi7hostapd10GenerationEEE",
   "self_type" : "_ZTIN7android8internal7details17HasToStringMethodIN4aidl7android8hardware4wifi7hostapd10GenerationEEE",
   "size" : 1,
   "source_file" : "frameworks/native/libs/binder/ndk/include_cpp/android/binder_to_string.h",
   "template_args" :
   [
    "_ZTIN4aidl7android8hardware4wifi7hostapd10GenerationE"
   ]
  },
  {
   "alignment" : 1,
   "linker_set_key" : "_ZTIN7android8internal7details17HasToStringMethodIN4aidl7android8hardware4wifi7hostapd12HwModeParamsEEE",
   "name" : "android::internal::details::HasToStringMethod<aidl::android::hardware::wifi::hostapd::HwModeParams>",
   "record_kind" : "class",
   "referenced_type" : "_ZTIN7android8internal7details17HasToStringMethodIN4aidl7android8hardware4wifi7hostapd12HwModeParamsEEE",
   "self_type" : "_ZTIN7android8internal7details17HasToStringMethodIN4aidl7android8hardware4wifi7hostapd12HwModeParamsEEE",
   "size" : 1,
   "source_file" : "frameworks/native/libs/binder/ndk/include_cpp/android/binder_to_string.h",
   "template_args" :
   [
    "_ZTIN4aidl7android8hardware4wifi7hostapd12HwModeParamsE"
   ]
  },
  {
   "alignment" : 1,
   "linker_set_key" : "_ZTIN7android8internal7details17HasToStringMethodIN4aidl7android8hardware4wifi7hostapd13ChannelParamsEEE",
   "name" : "android::internal::details::HasToStringMethod<aidl::android::hardware::wifi::hostapd::ChannelParams>",
   "record_kind" : "class",
   "referenced_type" : "_ZTIN7android8internal7details17HasToStringMethodIN4aidl7android8hardware4wifi7hostapd13ChannelParamsEEE",
   "self_type" : "_ZTIN7android8internal7details17HasToStringMethodIN4aidl7android8hardware4wifi7hostapd13ChannelParamsEEE",
   "size" : 1,
   "source_file" : "frameworks/native/libs/binder/ndk/include_cpp/android/binder_to_string.h",
   "template_args" :
   [
    "_ZTIN4aidl7android8hardware4wifi7hostapd13ChannelParamsE"
   ]
  },
  {
   "alignment" : 1,
   "linker_set_key" : "_ZTIN7android8internal7details17HasToStringMethodIN4aidl7android8hardware4wifi7hostapd14EncryptionTypeEEE",
   "name" : "android::internal::details::HasToStringMethod<aidl::android::hardware::wifi::hostapd::EncryptionType>",
   "record_kind" : "class",
   "referenced_type" : "_ZTIN7android8internal7details17HasToStringMethodIN4aidl7android8hardware4wifi7hostapd14EncryptionTypeEEE",
   "self_type" : "_ZTIN7android8internal7details17HasToStringMethodIN4aidl7android8hardware4wifi7hostapd14EncryptionTypeEEE",
   "size" : 1,
   "source_file" : "frameworks/native/libs/binder/ndk/include_cpp/android/binder_to_string.h",
   "template_args" :
   [
    "_ZTIN4aidl7android8hardware4wifi7hostapd14EncryptionTypeE"
   ]
  },
  {
   "alignment" : 1,
   "linker_set_key" : "_ZTIN7android8internal7details17HasToStringMethodIN4aidl7android8hardware4wifi7hostapd14FrequencyRangeEEE",
   "name" : "android::internal::details::HasToStringMethod<aidl::android::hardware::wifi::hostapd::FrequencyRange>",
   "record_kind" : "class",
   "referenced_type" : "_ZTIN7android8internal7details17HasToStringMethodIN4aidl7android8hardware4wifi7hostapd14FrequencyRangeEEE",
   "self_type" : "_ZTIN7android8internal7details17HasToStringMethodIN4aidl7android8hardware4wifi7hostapd14FrequencyRangeEEE",
   "size" : 1,
   "source_file" : "frameworks/native/libs/binder/ndk/include_cpp/android/binder_to_string.h",
   "template_args" :
   [
    "_ZTIN4aidl7android8hardware4wifi7hostapd14FrequencyRangeE"
   ]
  },
  {
   "alignment" : 1,
   "linker_set_key" : "_ZTIN7android8internal7details17HasToStringMethodIN4aidl7android8hardware4wifi7hostapd16ChannelBandwidthEEE",
   "name" : "android::internal::details::HasToStringMethod<aidl::android::hardware::wifi::hostapd::ChannelBandwidth>",
   "record_kind" : "class",
   "referenced_type" : "_ZTIN7android8internal7details17HasToStringMethodIN4aidl7android8hardware4wifi7hostapd16ChannelBandwidthEEE",
   "self_type" : "_ZTIN7android8internal7details17HasToStringMethodIN4aidl7android8hardware4wifi7hostapd16ChannelBandwidthEEE",
   "size" : 1,
   "source_file" : "frameworks/native/libs/binder/ndk/include_cpp/android/binder_to_string.h",
   "template_args" :
   [
    "_ZTIN4aidl7android8hardware4wifi7hostapd16ChannelBandwidthE"
   ]
  },
  {
   "alignment" : 1,
   "linker_set_key" : "_ZTIN7android8internal7details17HasToStringMethodIN4aidl7android8hardware4wifi7hostapd8BandMaskEEE",
   "name" : "android::internal::details::HasToStringMethod<aidl::android::hardware::wifi::hostapd::BandMask>",
   "record_kind" : "class",
   "referenced_type" : "_ZTIN7android8internal7details17HasToStringMethodIN4aidl7android8hardware4wifi7hostapd8BandMaskEEE",
   "self_type" : "_ZTIN7android8internal7details17HasToStringMethodIN4aidl7android8hardware4wifi7hostapd8BandMaskEEE",
   "size" : 1,
   "source_file" : "frameworks/native/libs/binder/ndk/include_cpp/android/binder_to_string.h",
   "template_args" :
   [
    "_ZTIN4aidl7android8hardware4wifi7hostapd8BandMaskE"
   ]
  },
  {
   "alignment" : 1,
   "linker_set_key" : "_ZTIN7android8internal7details17HasToStringMethodINSt3__16vectorIN4aidl7android8hardware4wifi7hostapd13ChannelParamsENS3_9allocatorISA_EEEEEE",
   "name" : "android::internal::details::HasToStringMethod<std::vector<aidl::android::hardware::wifi::hostapd::ChannelParams, std::allocator<aidl::android::hardware::wifi::hostapd::ChannelParams>>>",
   "record_kind" : "class",
   "referenced_type" : "_ZTIN7android8internal7details17HasToStringMethodINSt3__16vectorIN4aidl7android8hardware4wifi7hostapd13ChannelParamsENS3_9allocatorISA_EEEEEE",
   "self_type" : "_ZTIN7android8internal7details17HasToStringMethodINSt3__16vectorIN4aidl7android8hardware4wifi7hostapd13ChannelParamsENS3_9allocatorISA_EEEEEE",
   "size" : 1,
   "source_file" : "frameworks/native/libs/binder/ndk/include_cpp/android/binder_to_string.h",
   "template_args" :
   [
    "_ZTINSt3__16vectorIN4aidl7android8hardware4wifi7hostapd13ChannelParamsENS_9allocatorIS6_EEEE"
   ]
  },
  {
   "alignment" : 1,
   "linker_set_key" : "_ZTIN7android8internal7details17HasToStringMethodINSt3__16vectorIN4aidl7android8hardware4wifi7hostapd14FrequencyRangeENS3_9allocatorISA_EEEEEE",
   "name" : "android::internal::details::HasToStringMethod<std::vector<aidl::android::hardware::wifi::hostapd::FrequencyRange, std::allocator<aidl::android::hardware::wifi::hostapd::FrequencyRange>>>",
   "record_kind" : "class",
   "referenced_type" : "_ZTIN7android8internal7details17HasToStringMethodINSt3__16vectorIN4aidl7android8hardware4wifi7hostapd14FrequencyRangeENS3_9allocatorISA_EEEEEE",
   "self_type" : "_ZTIN7android8internal7details17HasToStringMethodINSt3__16vectorIN4aidl7android8hardware4wifi7hostapd14FrequencyRangeENS3_9allocatorISA_EEEEEE",
   "size" : 1,
   "source_file" : "frameworks/native/libs/binder/ndk/include_cpp/android/binder_to_string.h",
   "template_args" :
   [
    "_ZTINSt3__16vectorIN4aidl7android8hardware4wifi7hostapd14FrequencyRangeENS_9allocatorIS6_EEEE"
   ]
  },
  {
   "alignment" : 1,
   "linker_set_key" : "_ZTIN7android8internal7details17HasToStringMethodINSt3__16vectorIhNS3_9allocatorIhEEEEEE",
   "name" : "android::internal::details::HasToStringMethod<std::vector<unsigned char, std::allocator<unsigned char>>>",
   "record_kind" : "class",
   "referenced_type" : "_ZTIN7android8internal7details17HasToStringMethodINSt3__16vectorIhNS3_9allocatorIhEEEEEE",
   "self_type" : "_ZTIN7android8internal7details17HasToStringMethodINSt3__16vectorIhNS3_9allocatorIhEEEEEE",
   "size" : 1,
   "source_file" : "frameworks/native/libs/binder/ndk/include_cpp/android/binder_to_string.h",
   "template_args" :
   [
    "_ZTINSt3__16vectorIhNS_9allocatorIhEEEE"
   ]
  },
  {
   "alignment" : 1,
   "base_specifiers" :
   [
    {
     "referenced_type" : "_ZTINSt3__117integral_constantIbLb0EEE"
    }
   ],
   "linker_set_key" : "_ZTIN7android8internal7details17IsInstantiationOfIN4aidl7android8hardware4wifi7hostapd10GenerationENSt3__110shared_ptrEEE",
   "name" : "android::internal::details::IsInstantiationOf<aidl::android::hardware::wifi::hostapd::Generation, std::shared_ptr>",
   "referenced_type" : "_ZTIN7android8internal7details17IsInstantiationOfIN4aidl7android8hardware4wifi7hostapd10GenerationENSt3__110shared_ptrEEE",
   "self_type" : "_ZTIN7android8internal7details17IsInstantiationOfIN4aidl7android8hardware4wifi7hostapd10GenerationENSt3__110shared_ptrEEE",
   "size" : 1,
   "source_file" : "frameworks/native/libs/binder/ndk/include_cpp/android/binder_to_string.h",
   "template_args" :
   [
    "_ZTIN4aidl7android8hardware4wifi7hostapd10GenerationE"
   ]
  },
  {
   "alignment" : 1,
   "base_specifiers" :
   [
    {
     "referenced_type" : "_ZTINSt3__117integral_constantIbLb0EEE"
    }
   ],
   "linker_set_key" : "_ZTIN7android8internal7details17IsInstantiationOfIN4aidl7android8hardware4wifi7hostapd10GenerationENSt3__18optionalEEE",
   "name" : "android::internal::details::IsInstantiationOf<aidl::android::hardware::wifi::hostapd::Generation, std::optional>",
   "referenced_type" : "_ZTIN7android8internal7details17IsInstantiationOfIN4aidl7android8hardware4wifi7hostapd10GenerationENSt3__18optionalEEE",
   "self_type" : "_ZTIN7android8internal7details17IsInstantiationOfIN4aidl7android8hardware4wifi7hostapd10GenerationENSt3__18optionalEEE",
   "size" : 1,
   "source_file" : "frameworks/native/libs/binder/ndk/include_cpp/android/binder_to_string.h",
   "template_args" :
   [
    "_ZTIN4aidl7android8hardware4wifi7hostapd10GenerationE"
   ]
  },
  {
   "alignment" : 1,
   "base_specifiers" :
   [
    {
     "referenced_type" : "_ZTINSt3__117integral_constantIbLb0EEE"
    }
   ],
   "linker_set_key" : "_ZTIN7android8internal7details17IsInstantiationOfIN4aidl7android8hardware4wifi7hostapd12HwModeParamsENSt3__110shared_ptrEEE",
   "name" : "android::internal::details::IsInstantiationOf<aidl::android::hardware::wifi::hostapd::HwModeParams, std::shared_ptr>",
   "referenced_type" : "_ZTIN7android8internal7details17IsInstantiationOfIN4aidl7android8hardware4wifi7hostapd12HwModeParamsENSt3__110shared_ptrEEE",
   "self_type" : "_ZTIN7android8internal7details17IsInstantiationOfIN4aidl7android8hardware4wifi7hostapd12HwModeParamsENSt3__110shared_ptrEEE",
   "size" : 1,
   "source_file" : "frameworks/native/libs/binder/ndk/include_cpp/android/binder_to_string.h",
   "template_args" :
   [
    "_ZTIN4aidl7android8hardware4wifi7hostapd12HwModeParamsE"
   ]
  },
  {
   "alignment" : 1,
   "base_specifiers" :
   [
    {
     "referenced_type" : "_ZTINSt3__117integral_constantIbLb0EEE"
    }
   ],
   "linker_set_key" : "_ZTIN7android8internal7details17IsInstantiationOfIN4aidl7android8hardware4wifi7hostapd12HwModeParamsENSt3__18optionalEEE",
   "name" : "android::internal::details::IsInstantiationOf<aidl::android::hardware::wifi::hostapd::HwModeParams, std::optional>",
   "referenced_type" : "_ZTIN7android8internal7details17IsInstantiationOfIN4aidl7android8hardware4wifi7hostapd12HwModeParamsENSt3__18optionalEEE",
   "self_type" : "_ZTIN7android8internal7details17IsInstantiationOfIN4aidl7android8hardware4wifi7hostapd12HwModeParamsENSt3__18optionalEEE",
   "size" : 1,
   "source_file" : "frameworks/native/libs/binder/ndk/include_cpp/android/binder_to_string.h",
   "template_args" :
   [
    "_ZTIN4aidl7android8hardware4wifi7hostapd12HwModeParamsE"
   ]
  },
  {
   "alignment" : 1,
   "base_specifiers" :
   [
    {
     "referenced_type" : "_ZTINSt3__117integral_constantIbLb0EEE"
    }
   ],
   "linker_set_key" : "_ZTIN7android8internal7details17IsInstantiationOfIN4aidl7android8hardware4wifi7hostapd13ChannelParamsENSt3__110shared_ptrEEE",
   "name" : "android::internal::details::IsInstantiationOf<aidl::android::hardware::wifi::hostapd::ChannelParams, std::shared_ptr>",
   "referenced_type" : "_ZTIN7android8internal7details17IsInstantiationOfIN4aidl7android8hardware4wifi7hostapd13ChannelParamsENSt3__110shared_ptrEEE",
   "self_type" : "_ZTIN7android8internal7details17IsInstantiationOfIN4aidl7android8hardware4wifi7hostapd13ChannelParamsENSt3__110shared_ptrEEE",
   "size" : 1,
   "source_file" : "frameworks/native/libs/binder/ndk/include_cpp/android/binder_to_string.h",
   "template_args" :
   [
    "_ZTIN4aidl7android8hardware4wifi7hostapd13ChannelParamsE"
   ]
  },
  {
   "alignment" : 1,
   "base_specifiers" :
   [
    {
     "referenced_type" : "_ZTINSt3__117integral_constantIbLb0EEE"
    }
   ],
   "linker_set_key" : "_ZTIN7android8internal7details17IsInstantiationOfIN4aidl7android8hardware4wifi7hostapd13ChannelParamsENSt3__18optionalEEE",
   "name" : "android::internal::details::IsInstantiationOf<aidl::android::hardware::wifi::hostapd::ChannelParams, std::optional>",
   "referenced_type" : "_ZTIN7android8internal7details17IsInstantiationOfIN4aidl7android8hardware4wifi7hostapd13ChannelParamsENSt3__18optionalEEE",
   "self_type" : "_ZTIN7android8internal7details17IsInstantiationOfIN4aidl7android8hardware4wifi7hostapd13ChannelParamsENSt3__18optionalEEE",
   "size" : 1,
   "source_file" : "frameworks/native/libs/binder/ndk/include_cpp/android/binder_to_string.h",
   "template_args" :
   [
    "_ZTIN4aidl7android8hardware4wifi7hostapd13ChannelParamsE"
   ]
  },
  {
   "alignment" : 1,
   "base_specifiers" :
   [
    {
     "referenced_type" : "_ZTINSt3__117integral_constantIbLb0EEE"
    }
   ],
   "linker_set_key" : "_ZTIN7android8internal7details17IsInstantiationOfIN4aidl7android8hardware4wifi7hostapd14EncryptionTypeENSt3__110shared_ptrEEE",
   "name" : "android::internal::details::IsInstantiationOf<aidl::android::hardware::wifi::hostapd::EncryptionType, std::shared_ptr>",
   "referenced_type" : "_ZTIN7android8internal7details17IsInstantiationOfIN4aidl7android8hardware4wifi7hostapd14EncryptionTypeENSt3__110shared_ptrEEE",
   "self_type" : "_ZTIN7android8internal7details17IsInstantiationOfIN4aidl7android8hardware4wifi7hostapd14EncryptionTypeENSt3__110shared_ptrEEE",
   "size" : 1,
   "source_file" : "frameworks/native/libs/binder/ndk/include_cpp/android/binder_to_string.h",
   "template_args" :
   [
    "_ZTIN4aidl7android8hardware4wifi7hostapd14EncryptionTypeE"
   ]
  },
  {
   "alignment" : 1,
   "base_specifiers" :
   [
    {
     "referenced_type" : "_ZTINSt3__117integral_constantIbLb0EEE"
    }
   ],
   "linker_set_key" : "_ZTIN7android8internal7details17IsInstantiationOfIN4aidl7android8hardware4wifi7hostapd14EncryptionTypeENSt3__18optionalEEE",
   "name" : "android::internal::details::IsInstantiationOf<aidl::android::hardware::wifi::hostapd::EncryptionType, std::optional>",
   "referenced_type" : "_ZTIN7android8internal7details17IsInstantiationOfIN4aidl7android8hardware4wifi7hostapd14EncryptionTypeENSt3__18optionalEEE",
   "self_type" : "_ZTIN7android8internal7details17IsInstantiationOfIN4aidl7android8hardware4wifi7hostapd14EncryptionTypeENSt3__18optionalEEE",
   "size" : 1,
   "source_file" : "frameworks/native/libs/binder/ndk/include_cpp/android/binder_to_string.h",
   "template_args" :
   [
    "_ZTIN4aidl7android8hardware4wifi7hostapd14EncryptionTypeE"
   ]
  },
  {
   "alignment" : 1,
   "base_specifiers" :
   [
    {
     "referenced_type" : "_ZTINSt3__117integral_constantIbLb0EEE"
    }
   ],
   "linker_set_key" : "_ZTIN7android8internal7details17IsInstantiationOfIN4aidl7android8hardware4wifi7hostapd14FrequencyRangeENSt3__110shared_ptrEEE",
   "name" : "android::internal::details::IsInstantiationOf<aidl::android::hardware::wifi::hostapd::FrequencyRange, std::shared_ptr>",
   "referenced_type" : "_ZTIN7android8internal7details17IsInstantiationOfIN4aidl7android8hardware4wifi7hostapd14FrequencyRangeENSt3__110shared_ptrEEE",
   "self_type" : "_ZTIN7android8internal7details17IsInstantiationOfIN4aidl7android8hardware4wifi7hostapd14FrequencyRangeENSt3__110shared_ptrEEE",
   "size" : 1,
   "source_file" : "frameworks/native/libs/binder/ndk/include_cpp/android/binder_to_string.h",
   "template_args" :
   [
    "_ZTIN4aidl7android8hardware4wifi7hostapd14FrequencyRangeE"
   ]
  },
  {
   "alignment" : 1,
   "base_specifiers" :
   [
    {
     "referenced_type" : "_ZTINSt3__117integral_constantIbLb0EEE"
    }
   ],
   "linker_set_key" : "_ZTIN7android8internal7details17IsInstantiationOfIN4aidl7android8hardware4wifi7hostapd14FrequencyRangeENSt3__18optionalEEE",
   "name" : "android::internal::details::IsInstantiationOf<aidl::android::hardware::wifi::hostapd::FrequencyRange, std::optional>",
   "referenced_type" : "_ZTIN7android8internal7details17IsInstantiationOfIN4aidl7android8hardware4wifi7hostapd14FrequencyRangeENSt3__18optionalEEE",
   "self_type" : "_ZTIN7android8internal7details17IsInstantiationOfIN4aidl7android8hardware4wifi7hostapd14FrequencyRangeENSt3__18optionalEEE",
   "size" : 1,
   "source_file" : "frameworks/native/libs/binder/ndk/include_cpp/android/binder_to_string.h",
   "template_args" :
   [
    "_ZTIN4aidl7android8hardware4wifi7hostapd14FrequencyRangeE"
   ]
  },
  {
   "alignment" : 1,
   "base_specifiers" :
   [
    {
     "referenced_type" : "_ZTINSt3__117integral_constantIbLb0EEE"
    }
   ],
   "linker_set_key" : "_ZTIN7android8internal7details17IsInstantiationOfIN4aidl7android8hardware4wifi7hostapd16ChannelBandwidthENSt3__110shared_ptrEEE",
   "name" : "android::internal::details::IsInstantiationOf<aidl::android::hardware::wifi::hostapd::ChannelBandwidth, std::shared_ptr>",
   "referenced_type" : "_ZTIN7android8internal7details17IsInstantiationOfIN4aidl7android8hardware4wifi7hostapd16ChannelBandwidthENSt3__110shared_ptrEEE",
   "self_type" : "_ZTIN7android8internal7details17IsInstantiationOfIN4aidl7android8hardware4wifi7hostapd16ChannelBandwidthENSt3__110shared_ptrEEE",
   "size" : 1,
   "source_file" : "frameworks/native/libs/binder/ndk/include_cpp/android/binder_to_string.h",
   "template_args" :
   [
    "_ZTIN4aidl7android8hardware4wifi7hostapd16ChannelBandwidthE"
   ]
  },
  {
   "alignment" : 1,
   "base_specifiers" :
   [
    {
     "referenced_type" : "_ZTINSt3__117integral_constantIbLb0EEE"
    }
   ],
   "linker_set_key" : "_ZTIN7android8internal7details17IsInstantiationOfIN4aidl7android8hardware4wifi7hostapd16ChannelBandwidthENSt3__18optionalEEE",
   "name" : "android::internal::details::IsInstantiationOf<aidl::android::hardware::wifi::hostapd::ChannelBandwidth, std::optional>",
   "referenced_type" : "_ZTIN7android8internal7details17IsInstantiationOfIN4aidl7android8hardware4wifi7hostapd16ChannelBandwidthENSt3__18optionalEEE",
   "self_type" : "_ZTIN7android8internal7details17IsInstantiationOfIN4aidl7android8hardware4wifi7hostapd16ChannelBandwidthENSt3__18optionalEEE",
   "size" : 1,
   "source_file" : "frameworks/native/libs/binder/ndk/include_cpp/android/binder_to_string.h",
   "template_args" :
   [
    "_ZTIN4aidl7android8hardware4wifi7hostapd16ChannelBandwidthE"
   ]
  },
  {
   "alignment" : 1,
   "base_specifiers" :
   [
    {
     "referenced_type" : "_ZTINSt3__117integral_constantIbLb0EEE"
    }
   ],
   "linker_set_key" : "_ZTIN7android8internal7details17IsInstantiationOfIN4aidl7android8hardware4wifi7hostapd8BandMaskENSt3__110shared_ptrEEE",
   "name" : "android::internal::details::IsInstantiationOf<aidl::android::hardware::wifi::hostapd::BandMask, std::shared_ptr>",
   "referenced_type" : "_ZTIN7android8internal7details17IsInstantiationOfIN4aidl7android8hardware4wifi7hostapd8BandMaskENSt3__110shared_ptrEEE",
   "self_type" : "_ZTIN7android8internal7details17IsInstantiationOfIN4aidl7android8hardware4wifi7hostapd8BandMaskENSt3__110shared_ptrEEE",
   "size" : 1,
   "source_file" : "frameworks/native/libs/binder/ndk/include_cpp/android/binder_to_string.h",
   "template_args" :
   [
    "_ZTIN4aidl7android8hardware4wifi7hostapd8BandMaskE"
   ]
  },
  {
   "alignment" : 1,
   "base_specifiers" :
   [
    {
     "referenced_type" : "_ZTINSt3__117integral_constantIbLb0EEE"
    }
   ],
   "linker_set_key" : "_ZTIN7android8internal7details17IsInstantiationOfIN4aidl7android8hardware4wifi7hostapd8BandMaskENSt3__18optionalEEE",
   "name" : "android::internal::details::IsInstantiationOf<aidl::android::hardware::wifi::hostapd::BandMask, std::optional>",
   "referenced_type" : "_ZTIN7android8internal7details17IsInstantiationOfIN4aidl7android8hardware4wifi7hostapd8BandMaskENSt3__18optionalEEE",
   "self_type" : "_ZTIN7android8internal7details17IsInstantiationOfIN4aidl7android8hardware4wifi7hostapd8BandMaskENSt3__18optionalEEE",
   "size" : 1,
   "source_file" : "frameworks/native/libs/binder/ndk/include_cpp/android/binder_to_string.h",
   "template_args" :
   [
    "_ZTIN4aidl7android8hardware4wifi7hostapd8BandMaskE"
   ]
  },
  {
   "alignment" : 1,
   "base_specifiers" :
   [
    {
     "referenced_type" : "_ZTINSt3__117integral_constantIbLb0EEE"
    }
   ],
   "linker_set_key" : "_ZTIN7android8internal7details17IsInstantiationOfINSt3__16vectorIN4aidl7android8hardware4wifi7hostapd13ChannelParamsENS3_9allocatorISA_EEEENS3_10shared_ptrEEE",
   "name" : "android::internal::details::IsInstantiationOf<std::vector<aidl::android::hardware::wifi::hostapd::ChannelParams, std::allocator<aidl::android::hardware::wifi::hostapd::ChannelParams>>, std::shared_ptr>",
   "referenced_type" : "_ZTIN7android8internal7details17IsInstantiationOfINSt3__16vectorIN4aidl7android8hardware4wifi7hostapd13ChannelParamsENS3_9allocatorISA_EEEENS3_10shared_ptrEEE",
   "self_type" : "_ZTIN7android8internal7details17IsInstantiationOfINSt3__16vectorIN4aidl7android8hardware4wifi7hostapd13ChannelParamsENS3_9allocatorISA_EEEENS3_10shared_ptrEEE",
   "size" : 1,
   "source_file" : "frameworks/native/libs/binder/ndk/include_cpp/android/binder_to_string.h",
   "template_args" :
   [
    "_ZTINSt3__16vectorIN4aidl7android8hardware4wifi7hostapd13ChannelParamsENS_9allocatorIS6_EEEE"
   ]
  },
  {
   "alignment" : 1,
   "base_specifiers" :
   [
    {
     "referenced_type" : "_ZTINSt3__117integral_constantIbLb0EEE"
    }
   ],
   "linker_set_key" : "_ZTIN7android8internal7details17IsInstantiationOfINSt3__16vectorIN4aidl7android8hardware4wifi7hostapd13ChannelParamsENS3_9allocatorISA_EEEENS3_8optionalEEE",
   "name" : "android::internal::details::IsInstantiationOf<std::vector<aidl::android::hardware::wifi::hostapd::ChannelParams, std::allocator<aidl::android::hardware::wifi::hostapd::ChannelParams>>, std::optional>",
   "referenced_type" : "_ZTIN7android8internal7details17IsInstantiationOfINSt3__16vectorIN4aidl7android8hardware4wifi7hostapd13ChannelParamsENS3_9allocatorISA_EEEENS3_8optionalEEE",
   "self_type" : "_ZTIN7android8internal7details17IsInstantiationOfINSt3__16vectorIN4aidl7android8hardware4wifi7hostapd13ChannelParamsENS3_9allocatorISA_EEEENS3_8optionalEEE",
   "size" : 1,
   "source_file" : "frameworks/native/libs/binder/ndk/include_cpp/android/binder_to_string.h",
   "template_args" :
   [
    "_ZTINSt3__16vectorIN4aidl7android8hardware4wifi7hostapd13ChannelParamsENS_9allocatorIS6_EEEE"
   ]
  },
  {
   "alignment" : 1,
   "base_specifiers" :
   [
    {
     "referenced_type" : "_ZTINSt3__117integral_constantIbLb0EEE"
    }
   ],
   "linker_set_key" : "_ZTIN7android8internal7details17IsInstantiationOfINSt3__16vectorIN4aidl7android8hardware4wifi7hostapd14FrequencyRangeENS3_9allocatorISA_EEEENS3_10shared_ptrEEE",
   "name" : "android::internal::details::IsInstantiationOf<std::vector<aidl::android::hardware::wifi::hostapd::FrequencyRange, std::allocator<aidl::android::hardware::wifi::hostapd::FrequencyRange>>, std::shared_ptr>",
   "referenced_type" : "_ZTIN7android8internal7details17IsInstantiationOfINSt3__16vectorIN4aidl7android8hardware4wifi7hostapd14FrequencyRangeENS3_9allocatorISA_EEEENS3_10shared_ptrEEE",
   "self_type" : "_ZTIN7android8internal7details17IsInstantiationOfINSt3__16vectorIN4aidl7android8hardware4wifi7hostapd14FrequencyRangeENS3_9allocatorISA_EEEENS3_10shared_ptrEEE",
   "size" : 1,
   "source_file" : "frameworks/native/libs/binder/ndk/include_cpp/android/binder_to_string.h",
   "template_args" :
   [
    "_ZTINSt3__16vectorIN4aidl7android8hardware4wifi7hostapd14FrequencyRangeENS_9allocatorIS6_EEEE"
   ]
  },
  {
   "alignment" : 1,
   "base_specifiers" :
   [
    {
     "referenced_type" : "_ZTINSt3__117integral_constantIbLb0EEE"
    }
   ],
   "linker_set_key" : "_ZTIN7android8internal7details17IsInstantiationOfINSt3__16vectorIN4aidl7android8hardware4wifi7hostapd14FrequencyRangeENS3_9allocatorISA_EEEENS3_8optionalEEE",
   "name" : "android::internal::details::IsInstantiationOf<std::vector<aidl::android::hardware::wifi::hostapd::FrequencyRange, std::allocator<aidl::android::hardware::wifi::hostapd::FrequencyRange>>, std::optional>",
   "referenced_type" : "_ZTIN7android8internal7details17IsInstantiationOfINSt3__16vectorIN4aidl7android8hardware4wifi7hostapd14FrequencyRangeENS3_9allocatorISA_EEEENS3_8optionalEEE",
   "self_type" : "_ZTIN7android8internal7details17IsInstantiationOfINSt3__16vectorIN4aidl7android8hardware4wifi7hostapd14FrequencyRangeENS3_9allocatorISA_EEEENS3_8optionalEEE",
   "size" : 1,
   "source_file" : "frameworks/native/libs/binder/ndk/include_cpp/android/binder_to_string.h",
   "template_args" :
   [
    "_ZTINSt3__16vectorIN4aidl7android8hardware4wifi7hostapd14FrequencyRangeENS_9allocatorIS6_EEEE"
   ]
  },
  {
   "alignment" : 1,
   "base_specifiers" :
   [
    {
     "referenced_type" : "_ZTINSt3__117integral_constantIbLb0EEE"
    }
   ],
   "linker_set_key" : "_ZTIN7android8internal7details17IsInstantiationOfINSt3__16vectorIhNS3_9allocatorIhEEEENS3_10shared_ptrEEE",
   "name" : "android::internal::details::IsInstantiationOf<std::vector<unsigned char, std::allocator<unsigned char>>, std::shared_ptr>",
   "referenced_type" : "_ZTIN7android8internal7details17IsInstantiationOfINSt3__16vectorIhNS3_9allocatorIhEEEENS3_10shared_ptrEEE",
   "self_type" : "_ZTIN7android8internal7details17IsInstantiationOfINSt3__16vectorIhNS3_9allocatorIhEEEENS3_10shared_ptrEEE",
   "size" : 1,
   "source_file" : "frameworks/native/libs/binder/ndk/include_cpp/android/binder_to_string.h",
   "template_args" :
   [
    "_ZTINSt3__16vectorIhNS_9allocatorIhEEEE"
   ]
  },
  {
   "alignment" : 1,
   "base_specifiers" :
   [
    {
     "referenced_type" : "_ZTINSt3__117integral_constantIbLb0EEE"
    }
   ],
   "linker_set_key" : "_ZTIN7android8internal7details17IsInstantiationOfINSt3__16vectorIhNS3_9allocatorIhEEEENS3_8optionalEEE",
   "name" : "android::internal::details::IsInstantiationOf<std::vector<unsigned char, std::allocator<unsigned char>>, std::optional>",
   "referenced_type" : "_ZTIN7android8internal7details17IsInstantiationOfINSt3__16vectorIhNS3_9allocatorIhEEEENS3_8optionalEEE",
   "self_type" : "_ZTIN7android8internal7details17IsInstantiationOfINSt3__16vectorIhNS3_9allocatorIhEEEENS3_8optionalEEE",
   "size" : 1,
   "source_file" : "frameworks/native/libs/binder/ndk/include_cpp/android/binder_to_string.h",
   "template_args" :
   [
    "_ZTINSt3__16vectorIhNS_9allocatorIhEEEE"
   ]
  },
  {
   "alignment" : 1,
   "linker_set_key" : "_ZTIN7android8internal7details19HasToStringFunctionIN4aidl7android8hardware4wifi7hostapd10GenerationEEE",
   "name" : "android::internal::details::HasToStringFunction<aidl::android::hardware::wifi::hostapd::Generation>",
   "record_kind" : "class",
   "referenced_type" : "_ZTIN7android8internal7details19HasToStringFunctionIN4aidl7android8hardware4wifi7hostapd10GenerationEEE",
   "self_type" : "_ZTIN7android8internal7details19HasToStringFunctionIN4aidl7android8hardware4wifi7hostapd10GenerationEEE",
   "size" : 1,
   "source_file" : "frameworks/native/libs/binder/ndk/include_cpp/android/binder_to_string.h",
   "template_args" :
   [
    "_ZTIN4aidl7android8hardware4wifi7hostapd10GenerationE"
   ]
  },
  {
   "alignment" : 1,
   "linker_set_key" : "_ZTIN7android8internal7details19HasToStringFunctionIN4aidl7android8hardware4wifi7hostapd14EncryptionTypeEEE",
   "name" : "android::internal::details::HasToStringFunction<aidl::android::hardware::wifi::hostapd::EncryptionType>",
   "record_kind" : "class",
   "referenced_type" : "_ZTIN7android8internal7details19HasToStringFunctionIN4aidl7android8hardware4wifi7hostapd14EncryptionTypeEEE",
   "self_type" : "_ZTIN7android8internal7details19HasToStringFunctionIN4aidl7android8hardware4wifi7hostapd14EncryptionTypeEEE",
   "size" : 1,
   "source_file" : "frameworks/native/libs/binder/ndk/include_cpp/android/binder_to_string.h",
   "template_args" :
   [
    "_ZTIN4aidl7android8hardware4wifi7hostapd14EncryptionTypeE"
   ]
  },
  {
   "alignment" : 1,
   "linker_set_key" : "_ZTIN7android8internal7details19HasToStringFunctionIN4aidl7android8hardware4wifi7hostapd16ChannelBandwidthEEE",
   "name" : "android::internal::details::HasToStringFunction<aidl::android::hardware::wifi::hostapd::ChannelBandwidth>",
   "record_kind" : "class",
   "referenced_type" : "_ZTIN7android8internal7details19HasToStringFunctionIN4aidl7android8hardware4wifi7hostapd16ChannelBandwidthEEE",
   "self_type" : "_ZTIN7android8internal7details19HasToStringFunctionIN4aidl7android8hardware4wifi7hostapd16ChannelBandwidthEEE",
   "size" : 1,
   "source_file" : "frameworks/native/libs/binder/ndk/include_cpp/android/binder_to_string.h",
   "template_args" :
   [
    "_ZTIN4aidl7android8hardware4wifi7hostapd16ChannelBandwidthE"
   ]
  },
  {
   "alignment" : 1,
   "linker_set_key" : "_ZTIN7android8internal7details19HasToStringFunctionIN4aidl7android8hardware4wifi7hostapd8BandMaskEEE",
   "name" : "android::internal::details::HasToStringFunction<aidl::android::hardware::wifi::hostapd::BandMask>",
   "record_kind" : "class",
   "referenced_type" : "_ZTIN7android8internal7details19HasToStringFunctionIN4aidl7android8hardware4wifi7hostapd8BandMaskEEE",
   "self_type" : "_ZTIN7android8internal7details19HasToStringFunctionIN4aidl7android8hardware4wifi7hostapd8BandMaskEEE",
   "size" : 1,
   "source_file" : "frameworks/native/libs/binder/ndk/include_cpp/android/binder_to_string.h",
   "template_args" :
   [
    "_ZTIN4aidl7android8hardware4wifi7hostapd8BandMaskE"
   ]
  },
  {
   "alignment" : 1,
   "linker_set_key" : "_ZTIN7android8internal7details19HasToStringFunctionINSt3__16vectorIN4aidl7android8hardware4wifi7hostapd13ChannelParamsENS3_9allocatorISA_EEEEEE",
   "name" : "android::internal::details::HasToStringFunction<std::vector<aidl::android::hardware::wifi::hostapd::ChannelParams, std::allocator<aidl::android::hardware::wifi::hostapd::ChannelParams>>>",
   "record_kind" : "class",
   "referenced_type" : "_ZTIN7android8internal7details19HasToStringFunctionINSt3__16vectorIN4aidl7android8hardware4wifi7hostapd13ChannelParamsENS3_9allocatorISA_EEEEEE",
   "self_type" : "_ZTIN7android8internal7details19HasToStringFunctionINSt3__16vectorIN4aidl7android8hardware4wifi7hostapd13ChannelParamsENS3_9allocatorISA_EEEEEE",
   "size" : 1,
   "source_file" : "frameworks/native/libs/binder/ndk/include_cpp/android/binder_to_string.h",
   "template_args" :
   [
    "_ZTINSt3__16vectorIN4aidl7android8hardware4wifi7hostapd13ChannelParamsENS_9allocatorIS6_EEEE"
   ]
  },
  {
   "alignment" : 1,
   "linker_set_key" : "_ZTIN7android8internal7details19HasToStringFunctionINSt3__16vectorIN4aidl7android8hardware4wifi7hostapd14FrequencyRangeENS3_9allocatorISA_EEEEEE",
   "name" : "android::internal::details::HasToStringFunction<std::vector<aidl::android::hardware::wifi::hostapd::FrequencyRange, std::allocator<aidl::android::hardware::wifi::hostapd::FrequencyRange>>>",
   "record_kind" : "class",
   "referenced_type" : "_ZTIN7android8internal7details19HasToStringFunctionINSt3__16vectorIN4aidl7android8hardware4wifi7hostapd14FrequencyRangeENS3_9allocatorISA_EEEEEE",
   "self_type" : "_ZTIN7android8internal7details19HasToStringFunctionINSt3__16vectorIN4aidl7android8hardware4wifi7hostapd14FrequencyRangeENS3_9allocatorISA_EEEEEE",
   "size" : 1,
   "source_file" : "frameworks/native/libs/binder/ndk/include_cpp/android/binder_to_string.h",
   "template_args" :
   [
    "_ZTINSt3__16vectorIN4aidl7android8hardware4wifi7hostapd14FrequencyRangeENS_9allocatorIS6_EEEE"
   ]
  },
  {
   "alignment" : 1,
   "linker_set_key" : "_ZTIN7android8internal7details19HasToStringFunctionINSt3__16vectorIhNS3_9allocatorIhEEEEEE",
   "name" : "android::internal::details::HasToStringFunction<std::vector<unsigned char, std::allocator<unsigned char>>>",
   "record_kind" : "class",
   "referenced_type" : "_ZTIN7android8internal7details19HasToStringFunctionINSt3__16vectorIhNS3_9allocatorIhEEEEEE",
   "self_type" : "_ZTIN7android8internal7details19HasToStringFunctionINSt3__16vectorIhNS3_9allocatorIhEEEEEE",
   "size" : 1,
   "source_file" : "frameworks/native/libs/binder/ndk/include_cpp/android/binder_to_string.h",
   "template_args" :
   [
    "_ZTINSt3__16vectorIhNS_9allocatorIhEEEE"
   ]
  }
 ],
 "rvalue_reference_types" :
 [
  {
   "alignment" : 4,
   "linker_set_key" : "_ZTION3ndk13ScopedAParcelE",
   "name" : "ndk::ScopedAParcel &&",
   "referenced_type" : "_ZTIN3ndk13ScopedAParcelE",
   "self_type" : "_ZTION3ndk13ScopedAParcelE",
   "size" : 4,
   "source_file" : "frameworks/native/libs/binder/ndk/include_cpp/android/binder_auto_utils.h"
  },
  {
   "alignment" : 4,
   "linker_set_key" : "_ZTION3ndk13ScopedAStatusE",
   "name" : "ndk::ScopedAStatus &&",
   "referenced_type" : "_ZTIN3ndk13ScopedAStatusE",
   "self_type" : "_ZTION3ndk13ScopedAStatusE",
   "size" : 4,
   "source_file" : "frameworks/native/libs/binder/ndk/include_cpp/android/binder_auto_utils.h"
  },
  {
   "alignment" : 4,
   "linker_set_key" : "_ZTION3ndk17AParcelableHolderE",
   "name" : "ndk::AParcelableHolder &&",
   "referenced_type" : "_ZTIN3ndk17AParcelableHolderE",
   "self_type" : "_ZTION3ndk17AParcelableHolderE",
   "size" : 4,
   "source_file" : "frameworks/native/libs/binder/ndk/include_cpp/android/binder_parcelable_utils.h"
  },
  {
   "alignment" : 4,
   "linker_set_key" : "_ZTION3ndk19ScopedAIBinder_WeakE",
   "name" : "ndk::ScopedAIBinder_Weak &&",
   "referenced_type" : "_ZTIN3ndk19ScopedAIBinder_WeakE",
   "self_type" : "_ZTION3ndk19ScopedAIBinder_WeakE",
   "size" : 4,
   "source_file" : "frameworks/native/libs/binder/ndk/include_cpp/android/binder_auto_utils.h"
  },
  {
   "alignment" : 4,
   "linker_set_key" : "_ZTION3ndk20ScopedFileDescriptorE",
   "name" : "ndk::ScopedFileDescriptor &&",
   "referenced_type" : "_ZTIN3ndk20ScopedFileDescriptorE",
   "self_type" : "_ZTION3ndk20ScopedFileDescriptorE",
   "size" : 4,
   "source_file" : "frameworks/native/libs/binder/ndk/include_cpp/android/binder_auto_utils.h"
  },
  {
   "alignment" : 4,
   "linker_set_key" : "_ZTION3ndk29ScopedAIBinder_DeathRecipientE",
   "name" : "ndk::ScopedAIBinder_DeathRecipient &&",
   "referenced_type" : "_ZTIN3ndk29ScopedAIBinder_DeathRecipientE",
   "self_type" : "_ZTION3ndk29ScopedAIBinder_DeathRecipientE",
   "size" : 4,
   "source_file" : "frameworks/native/libs/binder/ndk/include_cpp/android/binder_auto_utils.h"
  },
  {
   "alignment" : 4,
   "linker_set_key" : "_ZTION3ndk4impl15ScopedAResourceIP7AStatusXadL_Z14AStatus_deleteEELS3_0EEE",
   "name" : "ndk::impl::ScopedAResource<AStatus *, &AStatus_delete, nullptr> &&",
   "referenced_type" : "_ZTIN3ndk4impl15ScopedAResourceIP7AStatusXadL_Z14AStatus_deleteEELS3_0EEE",
   "self_type" : "_ZTION3ndk4impl15ScopedAResourceIP7AStatusXadL_Z14AStatus_deleteEELS3_0EEE",
   "size" : 4,
   "source_file" : "frameworks/native/libs/binder/ndk/include_cpp/android/binder_auto_utils.h"
  }
 ]
}
