{
 "array_types" : [],
 "builtin_types" :
 [
  {
   "alignment" : 4,
   "linker_set_key" : "_ZTIDn",
   "name" : "std::nullptr_t",
   "referenced_type" : "_ZTIDn",
   "self_type" : "_ZTIDn",
   "size" : 4
  },
  {
   "alignment" : 1,
   "is_integral" : true,
   "is_unsigned" : true,
   "linker_set_key" : "_ZTIb",
   "name" : "bool",
   "referenced_type" : "_ZTIb",
   "self_type" : "_ZTIb",
   "size" : 1
  },
  {
   "alignment" : 1,
   "is_integral" : true,
   "is_unsigned" : true,
   "linker_set_key" : "_ZTIc",
   "name" : "char",
   "referenced_type" : "_ZTIc",
   "self_type" : "_ZTIc",
   "size" : 1
  },
  {
   "alignment" : 8,
   "linker_set_key" : "_ZTId",
   "name" : "double",
   "referenced_type" : "_ZTId",
   "self_type" : "_ZTId",
   "size" : 8
  },
  {
   "alignment" : 4,
   "linker_set_key" : "_ZTIf",
   "name" : "float",
   "referenced_type" : "_ZTIf",
   "self_type" : "_ZTIf",
   "size" : 4
  },
  {
   "alignment" : 1,
   "is_integral" : true,
   "is_unsigned" : true,
   "linker_set_key" : "_ZTIh",
   "name" : "unsigned char",
   "referenced_type" : "_ZTIh",
   "self_type" : "_ZTIh",
   "size" : 1
  },
  {
   "alignment" : 4,
   "is_integral" : true,
   "linker_set_key" : "_ZTIi",
   "name" : "int",
   "referenced_type" : "_ZTIi",
   "self_type" : "_ZTIi",
   "size" : 4
  },
  {
   "alignment" : 4,
   "is_integral" : true,
   "is_unsigned" : true,
   "linker_set_key" : "_ZTIj",
   "name" : "unsigned int",
   "referenced_type" : "_ZTIj",
   "self_type" : "_ZTIj",
   "size" : 4
  },
  {
   "linker_set_key" : "_ZTIv",
   "name" : "void",
   "referenced_type" : "_ZTIv",
   "self_type" : "_ZTIv"
  },
  {
   "alignment" : 8,
   "is_integral" : true,
   "linker_set_key" : "_ZTIx",
   "name" : "long long",
   "referenced_type" : "_ZTIx",
   "self_type" : "_ZTIx",
   "size" : 8
  }
 ],
 "elf_functions" :
 [
  {
   "binding" : "weak",
   "name" : "_ZN3ndk12BnCInterfaceIN4aidl7android8hardware4gnss10IGnssDebugEE8asBinderEv"
  },
  {
   "binding" : "weak",
   "name" : "_ZN3ndk12BnCInterfaceIN4aidl7android8hardware4gnss13IGnssBatchingEE8asBinderEv"
  },
  {
   "binding" : "weak",
   "name" : "_ZN3ndk12BnCInterfaceIN4aidl7android8hardware4gnss13IGnssCallbackEE8asBinderEv"
  },
  {
   "binding" : "weak",
   "name" : "_ZN3ndk12BnCInterfaceIN4aidl7android8hardware4gnss13IGnssGeofenceEE8asBinderEv"
  },
  {
   "binding" : "weak",
   "name" : "_ZN3ndk12BnCInterfaceIN4aidl7android8hardware4gnss14IAGnssCallbackEE8asBinderEv"
  },
  {
   "binding" : "weak",
   "name" : "_ZN3ndk12BnCInterfaceIN4aidl7android8hardware4gnss16IGnssAntennaInfoEE8asBinderEv"
  },
  {
   "binding" : "weak",
   "name" : "_ZN3ndk12BnCInterfaceIN4aidl7android8hardware4gnss17IAGnssRilCallbackEE8asBinderEv"
  },
  {
   "binding" : "weak",
   "name" : "_ZN3ndk12BnCInterfaceIN4aidl7android8hardware4gnss17IGnssPsdsCallbackEE8asBinderEv"
  },
  {
   "binding" : "weak",
   "name" : "_ZN3ndk12BnCInterfaceIN4aidl7android8hardware4gnss18IGnssConfigurationEE8asBinderEv"
  },
  {
   "binding" : "weak",
   "name" : "_ZN3ndk12BnCInterfaceIN4aidl7android8hardware4gnss18visibility_control22IGnssVisibilityControlEE8asBinderEv"
  },
  {
   "binding" : "weak",
   "name" : "_ZN3ndk12BnCInterfaceIN4aidl7android8hardware4gnss18visibility_control30IGnssVisibilityControlCallbackEE8asBinderEv"
  },
  {
   "binding" : "weak",
   "name" : "_ZN3ndk12BnCInterfaceIN4aidl7android8hardware4gnss20IGnssPowerIndicationEE8asBinderEv"
  },
  {
   "binding" : "weak",
   "name" : "_ZN3ndk12BnCInterfaceIN4aidl7android8hardware4gnss21IGnssBatchingCallbackEE8asBinderEv"
  },
  {
   "binding" : "weak",
   "name" : "_ZN3ndk12BnCInterfaceIN4aidl7android8hardware4gnss21IGnssGeofenceCallbackEE8asBinderEv"
  },
  {
   "binding" : "weak",
   "name" : "_ZN3ndk12BnCInterfaceIN4aidl7android8hardware4gnss23measurement_corrections31IMeasurementCorrectionsCallbackEE8asBinderEv"
  },
  {
   "binding" : "weak",
   "name" : "_ZN3ndk12BnCInterfaceIN4aidl7android8hardware4gnss23measurement_corrections32IMeasurementCorrectionsInterfaceEE8asBinderEv"
  },
  {
   "binding" : "weak",
   "name" : "_ZN3ndk12BnCInterfaceIN4aidl7android8hardware4gnss24IGnssAntennaInfoCallbackEE8asBinderEv"
  },
  {
   "binding" : "weak",
   "name" : "_ZN3ndk12BnCInterfaceIN4aidl7android8hardware4gnss24IGnssMeasurementCallbackEE8asBinderEv"
  },
  {
   "binding" : "weak",
   "name" : "_ZN3ndk12BnCInterfaceIN4aidl7android8hardware4gnss25IGnssMeasurementInterfaceEE8asBinderEv"
  },
  {
   "binding" : "weak",
   "name" : "_ZN3ndk12BnCInterfaceIN4aidl7android8hardware4gnss28IGnssPowerIndicationCallbackEE8asBinderEv"
  },
  {
   "binding" : "weak",
   "name" : "_ZN3ndk12BnCInterfaceIN4aidl7android8hardware4gnss30IGnssNavigationMessageCallbackEE8asBinderEv"
  },
  {
   "binding" : "weak",
   "name" : "_ZN3ndk12BnCInterfaceIN4aidl7android8hardware4gnss31IGnssNavigationMessageInterfaceEE8asBinderEv"
  },
  {
   "binding" : "weak",
   "name" : "_ZN3ndk12BnCInterfaceIN4aidl7android8hardware4gnss5IGnssEE8asBinderEv"
  },
  {
   "binding" : "weak",
   "name" : "_ZN3ndk12BnCInterfaceIN4aidl7android8hardware4gnss6IAGnssEE8asBinderEv"
  },
  {
   "binding" : "weak",
   "name" : "_ZN3ndk12BnCInterfaceIN4aidl7android8hardware4gnss9IAGnssRilEE8asBinderEv"
  },
  {
   "binding" : "weak",
   "name" : "_ZN3ndk12BnCInterfaceIN4aidl7android8hardware4gnss9IGnssPsdsEE8asBinderEv"
  },
  {
   "binding" : "weak",
   "name" : "_ZN3ndk12BpCInterfaceIN4aidl7android8hardware4gnss10IGnssDebugEE8asBinderEv"
  },
  {
   "binding" : "weak",
   "name" : "_ZN3ndk12BpCInterfaceIN4aidl7android8hardware4gnss13IGnssBatchingEE8asBinderEv"
  },
  {
   "binding" : "weak",
   "name" : "_ZN3ndk12BpCInterfaceIN4aidl7android8hardware4gnss13IGnssCallbackEE8asBinderEv"
  },
  {
   "binding" : "weak",
   "name" : "_ZN3ndk12BpCInterfaceIN4aidl7android8hardware4gnss13IGnssGeofenceEE8asBinderEv"
  },
  {
   "binding" : "weak",
   "name" : "_ZN3ndk12BpCInterfaceIN4aidl7android8hardware4gnss14IAGnssCallbackEE8asBinderEv"
  },
  {
   "binding" : "weak",
   "name" : "_ZN3ndk12BpCInterfaceIN4aidl7android8hardware4gnss16IGnssAntennaInfoEE8asBinderEv"
  },
  {
   "binding" : "weak",
   "name" : "_ZN3ndk12BpCInterfaceIN4aidl7android8hardware4gnss17IAGnssRilCallbackEE8asBinderEv"
  },
  {
   "binding" : "weak",
   "name" : "_ZN3ndk12BpCInterfaceIN4aidl7android8hardware4gnss17IGnssPsdsCallbackEE8asBinderEv"
  },
  {
   "binding" : "weak",
   "name" : "_ZN3ndk12BpCInterfaceIN4aidl7android8hardware4gnss18IGnssConfigurationEE8asBinderEv"
  },
  {
   "binding" : "weak",
   "name" : "_ZN3ndk12BpCInterfaceIN4aidl7android8hardware4gnss18visibility_control22IGnssVisibilityControlEE8asBinderEv"
  },
  {
   "binding" : "weak",
   "name" : "_ZN3ndk12BpCInterfaceIN4aidl7android8hardware4gnss18visibility_control30IGnssVisibilityControlCallbackEE8asBinderEv"
  },
  {
   "binding" : "weak",
   "name" : "_ZN3ndk12BpCInterfaceIN4aidl7android8hardware4gnss20IGnssPowerIndicationEE8asBinderEv"
  },
  {
   "binding" : "weak",
   "name" : "_ZN3ndk12BpCInterfaceIN4aidl7android8hardware4gnss21IGnssBatchingCallbackEE8asBinderEv"
  },
  {
   "binding" : "weak",
   "name" : "_ZN3ndk12BpCInterfaceIN4aidl7android8hardware4gnss21IGnssGeofenceCallbackEE8asBinderEv"
  },
  {
   "binding" : "weak",
   "name" : "_ZN3ndk12BpCInterfaceIN4aidl7android8hardware4gnss23measurement_corrections31IMeasurementCorrectionsCallbackEE8asBinderEv"
  },
  {
   "binding" : "weak",
   "name" : "_ZN3ndk12BpCInterfaceIN4aidl7android8hardware4gnss23measurement_corrections32IMeasurementCorrectionsInterfaceEE8asBinderEv"
  },
  {
   "binding" : "weak",
   "name" : "_ZN3ndk12BpCInterfaceIN4aidl7android8hardware4gnss24IGnssAntennaInfoCallbackEE8asBinderEv"
  },
  {
   "binding" : "weak",
   "name" : "_ZN3ndk12BpCInterfaceIN4aidl7android8hardware4gnss24IGnssMeasurementCallbackEE8asBinderEv"
  },
  {
   "binding" : "weak",
   "name" : "_ZN3ndk12BpCInterfaceIN4aidl7android8hardware4gnss25IGnssMeasurementInterfaceEE8asBinderEv"
  },
  {
   "binding" : "weak",
   "name" : "_ZN3ndk12BpCInterfaceIN4aidl7android8hardware4gnss28IGnssPowerIndicationCallbackEE8asBinderEv"
  },
  {
   "binding" : "weak",
   "name" : "_ZN3ndk12BpCInterfaceIN4aidl7android8hardware4gnss30IGnssNavigationMessageCallbackEE8asBinderEv"
  },
  {
   "binding" : "weak",
   "name" : "_ZN3ndk12BpCInterfaceIN4aidl7android8hardware4gnss31IGnssNavigationMessageInterfaceEE8asBinderEv"
  },
  {
   "binding" : "weak",
   "name" : "_ZN3ndk12BpCInterfaceIN4aidl7android8hardware4gnss5IGnssEE8asBinderEv"
  },
  {
   "binding" : "weak",
   "name" : "_ZN3ndk12BpCInterfaceIN4aidl7android8hardware4gnss6IAGnssEE8asBinderEv"
  },
  {
   "binding" : "weak",
   "name" : "_ZN3ndk12BpCInterfaceIN4aidl7android8hardware4gnss9IAGnssRilEE8asBinderEv"
  },
  {
   "binding" : "weak",
   "name" : "_ZN3ndk12BpCInterfaceIN4aidl7android8hardware4gnss9IGnssPsdsEE8asBinderEv"
  },
  {
   "binding" : "weak",
   "name" : "_ZN3ndk38AParcel_readStdVectorParcelableElementIN4aidl7android8hardware4gnss10IGnssDebug13SatelliteDataEEEiPK7AParcelPvj"
  },
  {
   "binding" : "weak",
   "name" : "_ZN3ndk38AParcel_readStdVectorParcelableElementIN4aidl7android8hardware4gnss12GnssLocationEEEiPK7AParcelPvj"
  },
  {
   "binding" : "weak",
   "name" : "_ZN3ndk38AParcel_readStdVectorParcelableElementIN4aidl7android8hardware4gnss13IGnssCallback10GnssSvInfoEEEiPK7AParcelPvj"
  },
  {
   "binding" : "weak",
   "name" : "_ZN3ndk38AParcel_readStdVectorParcelableElementIN4aidl7android8hardware4gnss15GnssMeasurementEEEiPK7AParcelPvj"
  },
  {
   "binding" : "weak",
   "name" : "_ZN3ndk38AParcel_readStdVectorParcelableElementIN4aidl7android8hardware4gnss17BlocklistedSourceEEEiPK7AParcelPvj"
  },
  {
   "binding" : "weak",
   "name" : "_ZN3ndk38AParcel_readStdVectorParcelableElementIN4aidl7android8hardware4gnss17CorrelationVectorEEEiPK7AParcelPvj"
  },
  {
   "binding" : "weak",
   "name" : "_ZN3ndk38AParcel_readStdVectorParcelableElementIN4aidl7android8hardware4gnss23measurement_corrections19SingleSatCorrection14ExcessPathInfoEEEiPK7AParcelPvj"
  },
  {
   "binding" : "weak",
   "name" : "_ZN3ndk38AParcel_readStdVectorParcelableElementIN4aidl7android8hardware4gnss23measurement_corrections19SingleSatCorrectionEEEiPK7AParcelPvj"
  },
  {
   "binding" : "weak",
   "name" : "_ZN3ndk38AParcel_readStdVectorParcelableElementIN4aidl7android8hardware4gnss24IGnssAntennaInfoCallback15GnssAntennaInfoEEEiPK7AParcelPvj"
  },
  {
   "binding" : "weak",
   "name" : "_ZN3ndk38AParcel_readStdVectorParcelableElementIN4aidl7android8hardware4gnss24IGnssAntennaInfoCallback3RowEEEiPK7AParcelPvj"
  },
  {
   "binding" : "weak",
   "name" : "_ZN3ndk38AParcel_readStdVectorParcelableElementIN4aidl7android8hardware4gnss8GnssData7GnssAgcEEEiPK7AParcelPvj"
  },
  {
   "binding" : "weak",
   "name" : "_ZN3ndk39AParcel_writeStdVectorParcelableElementIN4aidl7android8hardware4gnss10IGnssDebug13SatelliteDataEEEiP7AParcelPKvj"
  },
  {
   "binding" : "weak",
   "name" : "_ZN3ndk39AParcel_writeStdVectorParcelableElementIN4aidl7android8hardware4gnss12GnssLocationEEEiP7AParcelPKvj"
  },
  {
   "binding" : "weak",
   "name" : "_ZN3ndk39AParcel_writeStdVectorParcelableElementIN4aidl7android8hardware4gnss13IGnssCallback10GnssSvInfoEEEiP7AParcelPKvj"
  },
  {
   "binding" : "weak",
   "name" : "_ZN3ndk39AParcel_writeStdVectorParcelableElementIN4aidl7android8hardware4gnss15GnssMeasurementEEEiP7AParcelPKvj"
  },
  {
   "binding" : "weak",
   "name" : "_ZN3ndk39AParcel_writeStdVectorParcelableElementIN4aidl7android8hardware4gnss17BlocklistedSourceEEEiP7AParcelPKvj"
  },
  {
   "binding" : "weak",
   "name" : "_ZN3ndk39AParcel_writeStdVectorParcelableElementIN4aidl7android8hardware4gnss17CorrelationVectorEEEiP7AParcelPKvj"
  },
  {
   "binding" : "weak",
   "name" : "_ZN3ndk39AParcel_writeStdVectorParcelableElementIN4aidl7android8hardware4gnss23measurement_corrections19SingleSatCorrection14ExcessPathInfoEEEiP7AParcelPKvj"
  },
  {
   "binding" : "weak",
   "name" : "_ZN3ndk39AParcel_writeStdVectorParcelableElementIN4aidl7android8hardware4gnss23measurement_corrections19SingleSatCorrectionEEEiP7AParcelPKvj"
  },
  {
   "binding" : "weak",
   "name" : "_ZN3ndk39AParcel_writeStdVectorParcelableElementIN4aidl7android8hardware4gnss24IGnssAntennaInfoCallback15GnssAntennaInfoEEEiP7AParcelPKvj"
  },
  {
   "binding" : "weak",
   "name" : "_ZN3ndk39AParcel_writeStdVectorParcelableElementIN4aidl7android8hardware4gnss24IGnssAntennaInfoCallback3RowEEEiP7AParcelPKvj"
  },
  {
   "binding" : "weak",
   "name" : "_ZN3ndk39AParcel_writeStdVectorParcelableElementIN4aidl7android8hardware4gnss8GnssData7GnssAgcEEEiP7AParcelPKvj"
  },
  {
   "name" : "_ZN4aidl7android8hardware4gnss10BnAGnssRil12createBinderEv"
  },
  {
   "name" : "_ZN4aidl7android8hardware4gnss10BnAGnssRil16getInterfaceHashEPNSt3__112basic_stringIcNS4_11char_traitsIcEENS4_9allocatorIcEEEE"
  },
  {
   "name" : "_ZN4aidl7android8hardware4gnss10BnAGnssRil19getInterfaceVersionEPi"
  },
  {
   "name" : "_ZN4aidl7android8hardware4gnss10BnAGnssRilC2Ev"
  },
  {
   "name" : "_ZN4aidl7android8hardware4gnss10BnAGnssRilD0Ev"
  },
  {
   "name" : "_ZN4aidl7android8hardware4gnss10BnAGnssRilD1Ev"
  },
  {
   "name" : "_ZN4aidl7android8hardware4gnss10BnAGnssRilD2Ev"
  },
  {
   "name" : "_ZN4aidl7android8hardware4gnss10BnGnssPsds12createBinderEv"
  },
  {
   "name" : "_ZN4aidl7android8hardware4gnss10BnGnssPsds16getInterfaceHashEPNSt3__112basic_stringIcNS4_11char_traitsIcEENS4_9allocatorIcEEEE"
  },
  {
   "name" : "_ZN4aidl7android8hardware4gnss10BnGnssPsds19getInterfaceVersionEPi"
  },
  {
   "name" : "_ZN4aidl7android8hardware4gnss10BnGnssPsdsC2Ev"
  },
  {
   "name" : "_ZN4aidl7android8hardware4gnss10BnGnssPsdsD0Ev"
  },
  {
   "name" : "_ZN4aidl7android8hardware4gnss10BnGnssPsdsD1Ev"
  },
  {
   "name" : "_ZN4aidl7android8hardware4gnss10BnGnssPsdsD2Ev"
  },
  {
   "name" : "_ZN4aidl7android8hardware4gnss10BpAGnssRil11setCallbackERKNSt3__110shared_ptrINS2_17IAGnssRilCallbackEEE"
  },
  {
   "name" : "_ZN4aidl7android8hardware4gnss10BpAGnssRil14setRefLocationERKNS2_9IAGnssRil16AGnssRefLocationE"
  },
  {
   "name" : "_ZN4aidl7android8hardware4gnss10BpAGnssRil16getInterfaceHashEPNSt3__112basic_stringIcNS4_11char_traitsIcEENS4_9allocatorIcEEEE"
  },
  {
   "name" : "_ZN4aidl7android8hardware4gnss10BpAGnssRil18updateNetworkStateERKNS2_9IAGnssRil17NetworkAttributesE"
  },
  {
   "name" : "_ZN4aidl7android8hardware4gnss10BpAGnssRil19getInterfaceVersionEPi"
  },
  {
   "name" : "_ZN4aidl7android8hardware4gnss10BpAGnssRil8setSetIdENS2_9IAGnssRil9SetIdTypeERKNSt3__112basic_stringIcNS6_11char_traitsIcEENS6_9allocatorIcEEEE"
  },
  {
   "name" : "_ZN4aidl7android8hardware4gnss10BpAGnssRilC1ERKN3ndk10SpAIBinderE"
  },
  {
   "name" : "_ZN4aidl7android8hardware4gnss10BpAGnssRilC2ERKN3ndk10SpAIBinderE"
  },
  {
   "name" : "_ZN4aidl7android8hardware4gnss10BpAGnssRilD0Ev"
  },
  {
   "name" : "_ZN4aidl7android8hardware4gnss10BpAGnssRilD1Ev"
  },
  {
   "name" : "_ZN4aidl7android8hardware4gnss10BpAGnssRilD2Ev"
  },
  {
   "name" : "_ZN4aidl7android8hardware4gnss10BpGnssPsds11setCallbackERKNSt3__110shared_ptrINS2_17IGnssPsdsCallbackEEE"
  },
  {
   "name" : "_ZN4aidl7android8hardware4gnss10BpGnssPsds14injectPsdsDataENS2_8PsdsTypeERKNSt3__16vectorIhNS5_9allocatorIhEEEE"
  },
  {
   "name" : "_ZN4aidl7android8hardware4gnss10BpGnssPsds16getInterfaceHashEPNSt3__112basic_stringIcNS4_11char_traitsIcEENS4_9allocatorIcEEEE"
  },
  {
   "name" : "_ZN4aidl7android8hardware4gnss10BpGnssPsds19getInterfaceVersionEPi"
  },
  {
   "name" : "_ZN4aidl7android8hardware4gnss10BpGnssPsdsC1ERKN3ndk10SpAIBinderE"
  },
  {
   "name" : "_ZN4aidl7android8hardware4gnss10BpGnssPsdsC2ERKN3ndk10SpAIBinderE"
  },
  {
   "name" : "_ZN4aidl7android8hardware4gnss10BpGnssPsdsD0Ev"
  },
  {
   "name" : "_ZN4aidl7android8hardware4gnss10BpGnssPsdsD1Ev"
  },
  {
   "name" : "_ZN4aidl7android8hardware4gnss10BpGnssPsdsD2Ev"
  },
  {
   "name" : "_ZN4aidl7android8hardware4gnss10IGnssDebug10fromBinderERKN3ndk10SpAIBinderE"
  },
  {
   "name" : "_ZN4aidl7android8hardware4gnss10IGnssDebug13PositionDebug14readFromParcelEPK7AParcel"
  },
  {
   "name" : "_ZN4aidl7android8hardware4gnss10IGnssDebug13SatelliteData14readFromParcelEPK7AParcel"
  },
  {
   "name" : "_ZN4aidl7android8hardware4gnss10IGnssDebug13writeToParcelEP7AParcelRKNSt3__110shared_ptrIS3_EE"
  },
  {
   "name" : "_ZN4aidl7android8hardware4gnss10IGnssDebug14getDefaultImplEv"
  },
  {
   "name" : "_ZN4aidl7android8hardware4gnss10IGnssDebug14readFromParcelEPK7AParcelPNSt3__110shared_ptrIS3_EE"
  },
  {
   "name" : "_ZN4aidl7android8hardware4gnss10IGnssDebug14setDefaultImplERKNSt3__110shared_ptrIS3_EE"
  },
  {
   "name" : "_ZN4aidl7android8hardware4gnss10IGnssDebug9DebugData14readFromParcelEPK7AParcel"
  },
  {
   "name" : "_ZN4aidl7android8hardware4gnss10IGnssDebug9TimeDebug14readFromParcelEPK7AParcel"
  },
  {
   "name" : "_ZN4aidl7android8hardware4gnss10IGnssDebugC2Ev"
  },
  {
   "name" : "_ZN4aidl7android8hardware4gnss10IGnssDebugD0Ev"
  },
  {
   "name" : "_ZN4aidl7android8hardware4gnss10IGnssDebugD1Ev"
  },
  {
   "name" : "_ZN4aidl7android8hardware4gnss10IGnssDebugD2Ev"
  },
  {
   "name" : "_ZN4aidl7android8hardware4gnss11BnGnssDebug12createBinderEv"
  },
  {
   "name" : "_ZN4aidl7android8hardware4gnss11BnGnssDebug16getInterfaceHashEPNSt3__112basic_stringIcNS4_11char_traitsIcEENS4_9allocatorIcEEEE"
  },
  {
   "name" : "_ZN4aidl7android8hardware4gnss11BnGnssDebug19getInterfaceVersionEPi"
  },
  {
   "name" : "_ZN4aidl7android8hardware4gnss11BnGnssDebugC2Ev"
  },
  {
   "name" : "_ZN4aidl7android8hardware4gnss11BnGnssDebugD0Ev"
  },
  {
   "name" : "_ZN4aidl7android8hardware4gnss11BnGnssDebugD1Ev"
  },
  {
   "name" : "_ZN4aidl7android8hardware4gnss11BnGnssDebugD2Ev"
  },
  {
   "name" : "_ZN4aidl7android8hardware4gnss11BpGnssDebug12getDebugDataEPNS2_10IGnssDebug9DebugDataE"
  },
  {
   "name" : "_ZN4aidl7android8hardware4gnss11BpGnssDebug16getInterfaceHashEPNSt3__112basic_stringIcNS4_11char_traitsIcEENS4_9allocatorIcEEEE"
  },
  {
   "name" : "_ZN4aidl7android8hardware4gnss11BpGnssDebug19getInterfaceVersionEPi"
  },
  {
   "name" : "_ZN4aidl7android8hardware4gnss11BpGnssDebugC1ERKN3ndk10SpAIBinderE"
  },
  {
   "name" : "_ZN4aidl7android8hardware4gnss11BpGnssDebugC2ERKN3ndk10SpAIBinderE"
  },
  {
   "name" : "_ZN4aidl7android8hardware4gnss11BpGnssDebugD0Ev"
  },
  {
   "name" : "_ZN4aidl7android8hardware4gnss11BpGnssDebugD1Ev"
  },
  {
   "name" : "_ZN4aidl7android8hardware4gnss11BpGnssDebugD2Ev"
  },
  {
   "name" : "_ZN4aidl7android8hardware4gnss12GnssLocation14readFromParcelEPK7AParcel"
  },
  {
   "name" : "_ZN4aidl7android8hardware4gnss12IGnssDefault10injectTimeExxi"
  },
  {
   "name" : "_ZN4aidl7android8hardware4gnss12IGnssDefault11setCallbackERKNSt3__110shared_ptrINS2_13IGnssCallbackEEE"
  },
  {
   "name" : "_ZN4aidl7android8hardware4gnss12IGnssDefault12stopSvStatusEv"
  },
  {
   "name" : "_ZN4aidl7android8hardware4gnss12IGnssDefault13startSvStatusEv"
  },
  {
   "name" : "_ZN4aidl7android8hardware4gnss12IGnssDefault14injectLocationERKNS2_12GnssLocationE"
  },
  {
   "name" : "_ZN4aidl7android8hardware4gnss12IGnssDefault15setPositionModeERKNS2_5IGnss19PositionModeOptionsE"
  },
  {
   "name" : "_ZN4aidl7android8hardware4gnss12IGnssDefault16deleteAidingDataENS2_5IGnss14GnssAidingDataE"
  },
  {
   "name" : "_ZN4aidl7android8hardware4gnss12IGnssDefault16getExtensionPsdsEPNSt3__110shared_ptrINS2_9IGnssPsdsEEE"
  },
  {
   "name" : "_ZN4aidl7android8hardware4gnss12IGnssDefault16getInterfaceHashEPNSt3__112basic_stringIcNS4_11char_traitsIcEENS4_9allocatorIcEEEE"
  },
  {
   "name" : "_ZN4aidl7android8hardware4gnss12IGnssDefault17getExtensionAGnssEPNSt3__110shared_ptrINS2_6IAGnssEEE"
  },
  {
   "name" : "_ZN4aidl7android8hardware4gnss12IGnssDefault18injectBestLocationERKNS2_12GnssLocationE"
  },
  {
   "name" : "_ZN4aidl7android8hardware4gnss12IGnssDefault19getInterfaceVersionEPi"
  },
  {
   "name" : "_ZN4aidl7android8hardware4gnss12IGnssDefault20getExtensionAGnssRilEPNSt3__110shared_ptrINS2_9IAGnssRilEEE"
  },
  {
   "name" : "_ZN4aidl7android8hardware4gnss12IGnssDefault21getExtensionGnssDebugEPNSt3__110shared_ptrINS2_10IGnssDebugEEE"
  },
  {
   "name" : "_ZN4aidl7android8hardware4gnss12IGnssDefault24getExtensionGnssBatchingEPNSt3__110shared_ptrINS2_13IGnssBatchingEEE"
  },
  {
   "name" : "_ZN4aidl7android8hardware4gnss12IGnssDefault24getExtensionGnssGeofenceEPNSt3__110shared_ptrINS2_13IGnssGeofenceEEE"
  },
  {
   "name" : "_ZN4aidl7android8hardware4gnss12IGnssDefault27getExtensionGnssAntennaInfoEPNSt3__110shared_ptrINS2_16IGnssAntennaInfoEEE"
  },
  {
   "name" : "_ZN4aidl7android8hardware4gnss12IGnssDefault27getExtensionGnssMeasurementEPNSt3__110shared_ptrINS2_25IGnssMeasurementInterfaceEEE"
  },
  {
   "name" : "_ZN4aidl7android8hardware4gnss12IGnssDefault29getExtensionGnssConfigurationEPNSt3__110shared_ptrINS2_18IGnssConfigurationEEE"
  },
  {
   "name" : "_ZN4aidl7android8hardware4gnss12IGnssDefault31getExtensionGnssPowerIndicationEPNSt3__110shared_ptrINS2_20IGnssPowerIndicationEEE"
  },
  {
   "name" : "_ZN4aidl7android8hardware4gnss12IGnssDefault33getExtensionGnssNavigationMessageEPNSt3__110shared_ptrINS2_31IGnssNavigationMessageInterfaceEEE"
  },
  {
   "name" : "_ZN4aidl7android8hardware4gnss12IGnssDefault33getExtensionGnssVisibilityControlEPNSt3__110shared_ptrINS2_18visibility_control22IGnssVisibilityControlEEE"
  },
  {
   "name" : "_ZN4aidl7android8hardware4gnss12IGnssDefault34getExtensionMeasurementCorrectionsEPNSt3__110shared_ptrINS2_23measurement_corrections32IMeasurementCorrectionsInterfaceEEE"
  },
  {
   "name" : "_ZN4aidl7android8hardware4gnss12IGnssDefault4stopEv"
  },
  {
   "name" : "_ZN4aidl7android8hardware4gnss12IGnssDefault5closeEv"
  },
  {
   "name" : "_ZN4aidl7android8hardware4gnss12IGnssDefault5startEv"
  },
  {
   "name" : "_ZN4aidl7android8hardware4gnss12IGnssDefault8asBinderEv"
  },
  {
   "name" : "_ZN4aidl7android8hardware4gnss12IGnssDefault8isRemoteEv"
  },
  {
   "name" : "_ZN4aidl7android8hardware4gnss12IGnssDefault8stopNmeaEv"
  },
  {
   "name" : "_ZN4aidl7android8hardware4gnss12IGnssDefault9startNmeaEv"
  },
  {
   "name" : "_ZN4aidl7android8hardware4gnss12SatellitePvt14readFromParcelEPK7AParcel"
  },
  {
   "name" : "_ZN4aidl7android8hardware4gnss13IAGnssDefault11setCallbackERKNSt3__110shared_ptrINS2_14IAGnssCallbackEEE"
  },
  {
   "name" : "_ZN4aidl7android8hardware4gnss13IAGnssDefault12dataConnOpenExRKNSt3__112basic_stringIcNS4_11char_traitsIcEENS4_9allocatorIcEEEENS2_6IAGnss9ApnIpTypeE"
  },
  {
   "name" : "_ZN4aidl7android8hardware4gnss13IAGnssDefault14dataConnClosedEv"
  },
  {
   "name" : "_ZN4aidl7android8hardware4gnss13IAGnssDefault14dataConnFailedEv"
  },
  {
   "name" : "_ZN4aidl7android8hardware4gnss13IAGnssDefault16getInterfaceHashEPNSt3__112basic_stringIcNS4_11char_traitsIcEENS4_9allocatorIcEEEE"
  },
  {
   "name" : "_ZN4aidl7android8hardware4gnss13IAGnssDefault19getInterfaceVersionEPi"
  },
  {
   "name" : "_ZN4aidl7android8hardware4gnss13IAGnssDefault8asBinderEv"
  },
  {
   "name" : "_ZN4aidl7android8hardware4gnss13IAGnssDefault8isRemoteEv"
  },
  {
   "name" : "_ZN4aidl7android8hardware4gnss13IAGnssDefault9setServerENS2_14IAGnssCallback9AGnssTypeERKNSt3__112basic_stringIcNS6_11char_traitsIcEENS6_9allocatorIcEEEEi"
  },
  {
   "name" : "_ZN4aidl7android8hardware4gnss13IGnssBatching10fromBinderERKN3ndk10SpAIBinderE"
  },
  {
   "name" : "_ZN4aidl7android8hardware4gnss13IGnssBatching13writeToParcelEP7AParcelRKNSt3__110shared_ptrIS3_EE"
  },
  {
   "name" : "_ZN4aidl7android8hardware4gnss13IGnssBatching14getDefaultImplEv"
  },
  {
   "name" : "_ZN4aidl7android8hardware4gnss13IGnssBatching14readFromParcelEPK7AParcelPNSt3__110shared_ptrIS3_EE"
  },
  {
   "name" : "_ZN4aidl7android8hardware4gnss13IGnssBatching14setDefaultImplERKNSt3__110shared_ptrIS3_EE"
  },
  {
   "name" : "_ZN4aidl7android8hardware4gnss13IGnssBatching7Options14readFromParcelEPK7AParcel"
  },
  {
   "name" : "_ZN4aidl7android8hardware4gnss13IGnssBatchingC2Ev"
  },
  {
   "name" : "_ZN4aidl7android8hardware4gnss13IGnssBatchingD0Ev"
  },
  {
   "name" : "_ZN4aidl7android8hardware4gnss13IGnssBatchingD1Ev"
  },
  {
   "name" : "_ZN4aidl7android8hardware4gnss13IGnssBatchingD2Ev"
  },
  {
   "name" : "_ZN4aidl7android8hardware4gnss13IGnssCallback10GnssSvInfo14readFromParcelEPK7AParcel"
  },
  {
   "name" : "_ZN4aidl7android8hardware4gnss13IGnssCallback10fromBinderERKN3ndk10SpAIBinderE"
  },
  {
   "name" : "_ZN4aidl7android8hardware4gnss13IGnssCallback13writeToParcelEP7AParcelRKNSt3__110shared_ptrIS3_EE"
  },
  {
   "name" : "_ZN4aidl7android8hardware4gnss13IGnssCallback14GnssSystemInfo14readFromParcelEPK7AParcel"
  },
  {
   "name" : "_ZN4aidl7android8hardware4gnss13IGnssCallback14getDefaultImplEv"
  },
  {
   "name" : "_ZN4aidl7android8hardware4gnss13IGnssCallback14readFromParcelEPK7AParcelPNSt3__110shared_ptrIS3_EE"
  },
  {
   "name" : "_ZN4aidl7android8hardware4gnss13IGnssCallback14setDefaultImplERKNSt3__110shared_ptrIS3_EE"
  },
  {
   "name" : "_ZN4aidl7android8hardware4gnss13IGnssCallbackC2Ev"
  },
  {
   "name" : "_ZN4aidl7android8hardware4gnss13IGnssCallbackD0Ev"
  },
  {
   "name" : "_ZN4aidl7android8hardware4gnss13IGnssCallbackD1Ev"
  },
  {
   "name" : "_ZN4aidl7android8hardware4gnss13IGnssCallbackD2Ev"
  },
  {
   "name" : "_ZN4aidl7android8hardware4gnss13IGnssGeofence10fromBinderERKN3ndk10SpAIBinderE"
  },
  {
   "name" : "_ZN4aidl7android8hardware4gnss13IGnssGeofence13writeToParcelEP7AParcelRKNSt3__110shared_ptrIS3_EE"
  },
  {
   "name" : "_ZN4aidl7android8hardware4gnss13IGnssGeofence14getDefaultImplEv"
  },
  {
   "name" : "_ZN4aidl7android8hardware4gnss13IGnssGeofence14readFromParcelEPK7AParcelPNSt3__110shared_ptrIS3_EE"
  },
  {
   "name" : "_ZN4aidl7android8hardware4gnss13IGnssGeofence14setDefaultImplERKNSt3__110shared_ptrIS3_EE"
  },
  {
   "name" : "_ZN4aidl7android8hardware4gnss13IGnssGeofenceC2Ev"
  },
  {
   "name" : "_ZN4aidl7android8hardware4gnss13IGnssGeofenceD0Ev"
  },
  {
   "name" : "_ZN4aidl7android8hardware4gnss13IGnssGeofenceD1Ev"
  },
  {
   "name" : "_ZN4aidl7android8hardware4gnss13IGnssGeofenceD2Ev"
  },
  {
   "name" : "_ZN4aidl7android8hardware4gnss14BnGnssBatching12createBinderEv"
  },
  {
   "name" : "_ZN4aidl7android8hardware4gnss14BnGnssBatching16getInterfaceHashEPNSt3__112basic_stringIcNS4_11char_traitsIcEENS4_9allocatorIcEEEE"
  },
  {
   "name" : "_ZN4aidl7android8hardware4gnss14BnGnssBatching19getInterfaceVersionEPi"
  },
  {
   "name" : "_ZN4aidl7android8hardware4gnss14BnGnssBatchingC2Ev"
  },
  {
   "name" : "_ZN4aidl7android8hardware4gnss14BnGnssBatchingD0Ev"
  },
  {
   "name" : "_ZN4aidl7android8hardware4gnss14BnGnssBatchingD1Ev"
  },
  {
   "name" : "_ZN4aidl7android8hardware4gnss14BnGnssBatchingD2Ev"
  },
  {
   "name" : "_ZN4aidl7android8hardware4gnss14BnGnssCallback12createBinderEv"
  },
  {
   "name" : "_ZN4aidl7android8hardware4gnss14BnGnssCallback16getInterfaceHashEPNSt3__112basic_stringIcNS4_11char_traitsIcEENS4_9allocatorIcEEEE"
  },
  {
   "name" : "_ZN4aidl7android8hardware4gnss14BnGnssCallback19getInterfaceVersionEPi"
  },
  {
   "name" : "_ZN4aidl7android8hardware4gnss14BnGnssCallbackC2Ev"
  },
  {
   "name" : "_ZN4aidl7android8hardware4gnss14BnGnssCallbackD0Ev"
  },
  {
   "name" : "_ZN4aidl7android8hardware4gnss14BnGnssCallbackD1Ev"
  },
  {
   "name" : "_ZN4aidl7android8hardware4gnss14BnGnssCallbackD2Ev"
  },
  {
   "name" : "_ZN4aidl7android8hardware4gnss14BnGnssGeofence12createBinderEv"
  },
  {
   "name" : "_ZN4aidl7android8hardware4gnss14BnGnssGeofence16getInterfaceHashEPNSt3__112basic_stringIcNS4_11char_traitsIcEENS4_9allocatorIcEEEE"
  },
  {
   "name" : "_ZN4aidl7android8hardware4gnss14BnGnssGeofence19getInterfaceVersionEPi"
  },
  {
   "name" : "_ZN4aidl7android8hardware4gnss14BnGnssGeofenceC2Ev"
  },
  {
   "name" : "_ZN4aidl7android8hardware4gnss14BnGnssGeofenceD0Ev"
  },
  {
   "name" : "_ZN4aidl7android8hardware4gnss14BnGnssGeofenceD1Ev"
  },
  {
   "name" : "_ZN4aidl7android8hardware4gnss14BnGnssGeofenceD2Ev"
  },
  {
   "name" : "_ZN4aidl7android8hardware4gnss14BpGnssBatching12getBatchSizeEPi"
  },
  {
   "name" : "_ZN4aidl7android8hardware4gnss14BpGnssBatching16getInterfaceHashEPNSt3__112basic_stringIcNS4_11char_traitsIcEENS4_9allocatorIcEEEE"
  },
  {
   "name" : "_ZN4aidl7android8hardware4gnss14BpGnssBatching19getInterfaceVersionEPi"
  },
  {
   "name" : "_ZN4aidl7android8hardware4gnss14BpGnssBatching4initERKNSt3__110shared_ptrINS2_21IGnssBatchingCallbackEEE"
  },
  {
   "name" : "_ZN4aidl7android8hardware4gnss14BpGnssBatching4stopEv"
  },
  {
   "name" : "_ZN4aidl7android8hardware4gnss14BpGnssBatching5flushEv"
  },
  {
   "name" : "_ZN4aidl7android8hardware4gnss14BpGnssBatching5startERKNS2_13IGnssBatching7OptionsE"
  },
  {
   "name" : "_ZN4aidl7android8hardware4gnss14BpGnssBatching7cleanupEv"
  },
  {
   "name" : "_ZN4aidl7android8hardware4gnss14BpGnssBatchingC1ERKN3ndk10SpAIBinderE"
  },
  {
   "name" : "_ZN4aidl7android8hardware4gnss14BpGnssBatchingC2ERKN3ndk10SpAIBinderE"
  },
  {
   "name" : "_ZN4aidl7android8hardware4gnss14BpGnssBatchingD0Ev"
  },
  {
   "name" : "_ZN4aidl7android8hardware4gnss14BpGnssBatchingD1Ev"
  },
  {
   "name" : "_ZN4aidl7android8hardware4gnss14BpGnssBatchingD2Ev"
  },
  {
   "name" : "_ZN4aidl7android8hardware4gnss14BpGnssCallback10gnssNmeaCbExRKNSt3__112basic_stringIcNS4_11char_traitsIcEENS4_9allocatorIcEEEE"
  },
  {
   "name" : "_ZN4aidl7android8hardware4gnss14BpGnssCallback12gnssStatusCbENS2_13IGnssCallback15GnssStatusValueE"
  },
  {
   "name" : "_ZN4aidl7android8hardware4gnss14BpGnssCallback14gnssLocationCbERKNS2_12GnssLocationE"
  },
  {
   "name" : "_ZN4aidl7android8hardware4gnss14BpGnssCallback14gnssSvStatusCbERKNSt3__16vectorINS2_13IGnssCallback10GnssSvInfoENS4_9allocatorIS7_EEEE"
  },
  {
   "name" : "_ZN4aidl7android8hardware4gnss14BpGnssCallback16getInterfaceHashEPNSt3__112basic_stringIcNS4_11char_traitsIcEENS4_9allocatorIcEEEE"
  },
  {
   "name" : "_ZN4aidl7android8hardware4gnss14BpGnssCallback17gnssRequestTimeCbEv"
  },
  {
   "name" : "_ZN4aidl7android8hardware4gnss14BpGnssCallback19getInterfaceVersionEPi"
  },
  {
   "name" : "_ZN4aidl7android8hardware4gnss14BpGnssCallback19gnssSetSystemInfoCbERKNS2_13IGnssCallback14GnssSystemInfoE"
  },
  {
   "name" : "_ZN4aidl7android8hardware4gnss14BpGnssCallback21gnssAcquireWakelockCbEv"
  },
  {
   "name" : "_ZN4aidl7android8hardware4gnss14BpGnssCallback21gnssReleaseWakelockCbEv"
  },
  {
   "name" : "_ZN4aidl7android8hardware4gnss14BpGnssCallback21gnssRequestLocationCbEbb"
  },
  {
   "name" : "_ZN4aidl7android8hardware4gnss14BpGnssCallback21gnssSetCapabilitiesCbEi"
  },
  {
   "name" : "_ZN4aidl7android8hardware4gnss14BpGnssCallbackC1ERKN3ndk10SpAIBinderE"
  },
  {
   "name" : "_ZN4aidl7android8hardware4gnss14BpGnssCallbackC2ERKN3ndk10SpAIBinderE"
  },
  {
   "name" : "_ZN4aidl7android8hardware4gnss14BpGnssCallbackD0Ev"
  },
  {
   "name" : "_ZN4aidl7android8hardware4gnss14BpGnssCallbackD1Ev"
  },
  {
   "name" : "_ZN4aidl7android8hardware4gnss14BpGnssCallbackD2Ev"
  },
  {
   "name" : "_ZN4aidl7android8hardware4gnss14BpGnssGeofence11addGeofenceEidddiiii"
  },
  {
   "name" : "_ZN4aidl7android8hardware4gnss14BpGnssGeofence11setCallbackERKNSt3__110shared_ptrINS2_21IGnssGeofenceCallbackEEE"
  },
  {
   "name" : "_ZN4aidl7android8hardware4gnss14BpGnssGeofence13pauseGeofenceEi"
  },
  {
   "name" : "_ZN4aidl7android8hardware4gnss14BpGnssGeofence14removeGeofenceEi"
  },
  {
   "name" : "_ZN4aidl7android8hardware4gnss14BpGnssGeofence14resumeGeofenceEii"
  },
  {
   "name" : "_ZN4aidl7android8hardware4gnss14BpGnssGeofence16getInterfaceHashEPNSt3__112basic_stringIcNS4_11char_traitsIcEENS4_9allocatorIcEEEE"
  },
  {
   "name" : "_ZN4aidl7android8hardware4gnss14BpGnssGeofence19getInterfaceVersionEPi"
  },
  {
   "name" : "_ZN4aidl7android8hardware4gnss14BpGnssGeofenceC1ERKN3ndk10SpAIBinderE"
  },
  {
   "name" : "_ZN4aidl7android8hardware4gnss14BpGnssGeofenceC2ERKN3ndk10SpAIBinderE"
  },
  {
   "name" : "_ZN4aidl7android8hardware4gnss14BpGnssGeofenceD0Ev"
  },
  {
   "name" : "_ZN4aidl7android8hardware4gnss14BpGnssGeofenceD1Ev"
  },
  {
   "name" : "_ZN4aidl7android8hardware4gnss14BpGnssGeofenceD2Ev"
  },
  {
   "name" : "_ZN4aidl7android8hardware4gnss14GnssPowerStats14readFromParcelEPK7AParcel"
  },
  {
   "name" : "_ZN4aidl7android8hardware4gnss14GnssSignalType14readFromParcelEPK7AParcel"
  },
  {
   "name" : "_ZN4aidl7android8hardware4gnss14IAGnssCallback10fromBinderERKN3ndk10SpAIBinderE"
  },
  {
   "name" : "_ZN4aidl7android8hardware4gnss14IAGnssCallback13writeToParcelEP7AParcelRKNSt3__110shared_ptrIS3_EE"
  },
  {
   "name" : "_ZN4aidl7android8hardware4gnss14IAGnssCallback14getDefaultImplEv"
  },
  {
   "name" : "_ZN4aidl7android8hardware4gnss14IAGnssCallback14readFromParcelEPK7AParcelPNSt3__110shared_ptrIS3_EE"
  },
  {
   "name" : "_ZN4aidl7android8hardware4gnss14IAGnssCallback14setDefaultImplERKNSt3__110shared_ptrIS3_EE"
  },
  {
   "name" : "_ZN4aidl7android8hardware4gnss14IAGnssCallbackC2Ev"
  },
  {
   "name" : "_ZN4aidl7android8hardware4gnss14IAGnssCallbackD0Ev"
  },
  {
   "name" : "_ZN4aidl7android8hardware4gnss14IAGnssCallbackD1Ev"
  },
  {
   "name" : "_ZN4aidl7android8hardware4gnss14IAGnssCallbackD2Ev"
  },
  {
   "name" : "_ZN4aidl7android8hardware4gnss15BnAGnssCallback12createBinderEv"
  },
  {
   "name" : "_ZN4aidl7android8hardware4gnss15BnAGnssCallback16getInterfaceHashEPNSt3__112basic_stringIcNS4_11char_traitsIcEENS4_9allocatorIcEEEE"
  },
  {
   "name" : "_ZN4aidl7android8hardware4gnss15BnAGnssCallback19getInterfaceVersionEPi"
  },
  {
   "name" : "_ZN4aidl7android8hardware4gnss15BnAGnssCallbackC2Ev"
  },
  {
   "name" : "_ZN4aidl7android8hardware4gnss15BnAGnssCallbackD0Ev"
  },
  {
   "name" : "_ZN4aidl7android8hardware4gnss15BnAGnssCallbackD1Ev"
  },
  {
   "name" : "_ZN4aidl7android8hardware4gnss15BnAGnssCallbackD2Ev"
  },
  {
   "name" : "_ZN4aidl7android8hardware4gnss15BpAGnssCallback13agnssStatusCbENS2_14IAGnssCallback9AGnssTypeENS4_16AGnssStatusValueE"
  },
  {
   "name" : "_ZN4aidl7android8hardware4gnss15BpAGnssCallback16getInterfaceHashEPNSt3__112basic_stringIcNS4_11char_traitsIcEENS4_9allocatorIcEEEE"
  },
  {
   "name" : "_ZN4aidl7android8hardware4gnss15BpAGnssCallback19getInterfaceVersionEPi"
  },
  {
   "name" : "_ZN4aidl7android8hardware4gnss15BpAGnssCallbackC1ERKN3ndk10SpAIBinderE"
  },
  {
   "name" : "_ZN4aidl7android8hardware4gnss15BpAGnssCallbackC2ERKN3ndk10SpAIBinderE"
  },
  {
   "name" : "_ZN4aidl7android8hardware4gnss15BpAGnssCallbackD0Ev"
  },
  {
   "name" : "_ZN4aidl7android8hardware4gnss15BpAGnssCallbackD1Ev"
  },
  {
   "name" : "_ZN4aidl7android8hardware4gnss15BpAGnssCallbackD2Ev"
  },
  {
   "name" : "_ZN4aidl7android8hardware4gnss15ElapsedRealtime14readFromParcelEPK7AParcel"
  },
  {
   "name" : "_ZN4aidl7android8hardware4gnss15GnssMeasurement14readFromParcelEPK7AParcel"
  },
  {
   "name" : "_ZN4aidl7android8hardware4gnss16IAGnssRilDefault11setCallbackERKNSt3__110shared_ptrINS2_17IAGnssRilCallbackEEE"
  },
  {
   "name" : "_ZN4aidl7android8hardware4gnss16IAGnssRilDefault14setRefLocationERKNS2_9IAGnssRil16AGnssRefLocationE"
  },
  {
   "name" : "_ZN4aidl7android8hardware4gnss16IAGnssRilDefault16getInterfaceHashEPNSt3__112basic_stringIcNS4_11char_traitsIcEENS4_9allocatorIcEEEE"
  },
  {
   "name" : "_ZN4aidl7android8hardware4gnss16IAGnssRilDefault18updateNetworkStateERKNS2_9IAGnssRil17NetworkAttributesE"
  },
  {
   "name" : "_ZN4aidl7android8hardware4gnss16IAGnssRilDefault19getInterfaceVersionEPi"
  },
  {
   "name" : "_ZN4aidl7android8hardware4gnss16IAGnssRilDefault8asBinderEv"
  },
  {
   "name" : "_ZN4aidl7android8hardware4gnss16IAGnssRilDefault8isRemoteEv"
  },
  {
   "name" : "_ZN4aidl7android8hardware4gnss16IAGnssRilDefault8setSetIdENS2_9IAGnssRil9SetIdTypeERKNSt3__112basic_stringIcNS6_11char_traitsIcEENS6_9allocatorIcEEEE"
  },
  {
   "name" : "_ZN4aidl7android8hardware4gnss16IGnssAntennaInfo10fromBinderERKN3ndk10SpAIBinderE"
  },
  {
   "name" : "_ZN4aidl7android8hardware4gnss16IGnssAntennaInfo13writeToParcelEP7AParcelRKNSt3__110shared_ptrIS3_EE"
  },
  {
   "name" : "_ZN4aidl7android8hardware4gnss16IGnssAntennaInfo14getDefaultImplEv"
  },
  {
   "name" : "_ZN4aidl7android8hardware4gnss16IGnssAntennaInfo14readFromParcelEPK7AParcelPNSt3__110shared_ptrIS3_EE"
  },
  {
   "name" : "_ZN4aidl7android8hardware4gnss16IGnssAntennaInfo14setDefaultImplERKNSt3__110shared_ptrIS3_EE"
  },
  {
   "name" : "_ZN4aidl7android8hardware4gnss16IGnssAntennaInfoC2Ev"
  },
  {
   "name" : "_ZN4aidl7android8hardware4gnss16IGnssAntennaInfoD0Ev"
  },
  {
   "name" : "_ZN4aidl7android8hardware4gnss16IGnssAntennaInfoD1Ev"
  },
  {
   "name" : "_ZN4aidl7android8hardware4gnss16IGnssAntennaInfoD2Ev"
  },
  {
   "name" : "_ZN4aidl7android8hardware4gnss16IGnssPsdsDefault11setCallbackERKNSt3__110shared_ptrINS2_17IGnssPsdsCallbackEEE"
  },
  {
   "name" : "_ZN4aidl7android8hardware4gnss16IGnssPsdsDefault14injectPsdsDataENS2_8PsdsTypeERKNSt3__16vectorIhNS5_9allocatorIhEEEE"
  },
  {
   "name" : "_ZN4aidl7android8hardware4gnss16IGnssPsdsDefault16getInterfaceHashEPNSt3__112basic_stringIcNS4_11char_traitsIcEENS4_9allocatorIcEEEE"
  },
  {
   "name" : "_ZN4aidl7android8hardware4gnss16IGnssPsdsDefault19getInterfaceVersionEPi"
  },
  {
   "name" : "_ZN4aidl7android8hardware4gnss16IGnssPsdsDefault8asBinderEv"
  },
  {
   "name" : "_ZN4aidl7android8hardware4gnss16IGnssPsdsDefault8isRemoteEv"
  },
  {
   "name" : "_ZN4aidl7android8hardware4gnss17BlocklistedSource14readFromParcelEPK7AParcel"
  },
  {
   "name" : "_ZN4aidl7android8hardware4gnss17BnGnssAntennaInfo12createBinderEv"
  },
  {
   "name" : "_ZN4aidl7android8hardware4gnss17BnGnssAntennaInfo16getInterfaceHashEPNSt3__112basic_stringIcNS4_11char_traitsIcEENS4_9allocatorIcEEEE"
  },
  {
   "name" : "_ZN4aidl7android8hardware4gnss17BnGnssAntennaInfo19getInterfaceVersionEPi"
  },
  {
   "name" : "_ZN4aidl7android8hardware4gnss17BnGnssAntennaInfoC2Ev"
  },
  {
   "name" : "_ZN4aidl7android8hardware4gnss17BnGnssAntennaInfoD0Ev"
  },
  {
   "name" : "_ZN4aidl7android8hardware4gnss17BnGnssAntennaInfoD1Ev"
  },
  {
   "name" : "_ZN4aidl7android8hardware4gnss17BnGnssAntennaInfoD2Ev"
  },
  {
   "name" : "_ZN4aidl7android8hardware4gnss17BpGnssAntennaInfo11setCallbackERKNSt3__110shared_ptrINS2_24IGnssAntennaInfoCallbackEEE"
  },
  {
   "name" : "_ZN4aidl7android8hardware4gnss17BpGnssAntennaInfo16getInterfaceHashEPNSt3__112basic_stringIcNS4_11char_traitsIcEENS4_9allocatorIcEEEE"
  },
  {
   "name" : "_ZN4aidl7android8hardware4gnss17BpGnssAntennaInfo19getInterfaceVersionEPi"
  },
  {
   "name" : "_ZN4aidl7android8hardware4gnss17BpGnssAntennaInfo5closeEv"
  },
  {
   "name" : "_ZN4aidl7android8hardware4gnss17BpGnssAntennaInfoC1ERKN3ndk10SpAIBinderE"
  },
  {
   "name" : "_ZN4aidl7android8hardware4gnss17BpGnssAntennaInfoC2ERKN3ndk10SpAIBinderE"
  },
  {
   "name" : "_ZN4aidl7android8hardware4gnss17BpGnssAntennaInfoD0Ev"
  },
  {
   "name" : "_ZN4aidl7android8hardware4gnss17BpGnssAntennaInfoD1Ev"
  },
  {
   "name" : "_ZN4aidl7android8hardware4gnss17BpGnssAntennaInfoD2Ev"
  },
  {
   "name" : "_ZN4aidl7android8hardware4gnss17CorrelationVector14readFromParcelEPK7AParcel"
  },
  {
   "name" : "_ZN4aidl7android8hardware4gnss17IAGnssRilCallback10fromBinderERKN3ndk10SpAIBinderE"
  },
  {
   "name" : "_ZN4aidl7android8hardware4gnss17IAGnssRilCallback13writeToParcelEP7AParcelRKNSt3__110shared_ptrIS3_EE"
  },
  {
   "name" : "_ZN4aidl7android8hardware4gnss17IAGnssRilCallback14getDefaultImplEv"
  },
  {
   "name" : "_ZN4aidl7android8hardware4gnss17IAGnssRilCallback14readFromParcelEPK7AParcelPNSt3__110shared_ptrIS3_EE"
  },
  {
   "name" : "_ZN4aidl7android8hardware4gnss17IAGnssRilCallback14setDefaultImplERKNSt3__110shared_ptrIS3_EE"
  },
  {
   "name" : "_ZN4aidl7android8hardware4gnss17IAGnssRilCallbackC2Ev"
  },
  {
   "name" : "_ZN4aidl7android8hardware4gnss17IAGnssRilCallbackD0Ev"
  },
  {
   "name" : "_ZN4aidl7android8hardware4gnss17IAGnssRilCallbackD1Ev"
  },
  {
   "name" : "_ZN4aidl7android8hardware4gnss17IAGnssRilCallbackD2Ev"
  },
  {
   "name" : "_ZN4aidl7android8hardware4gnss17IGnssDebugDefault12getDebugDataEPNS2_10IGnssDebug9DebugDataE"
  },
  {
   "name" : "_ZN4aidl7android8hardware4gnss17IGnssDebugDefault16getInterfaceHashEPNSt3__112basic_stringIcNS4_11char_traitsIcEENS4_9allocatorIcEEEE"
  },
  {
   "name" : "_ZN4aidl7android8hardware4gnss17IGnssDebugDefault19getInterfaceVersionEPi"
  },
  {
   "name" : "_ZN4aidl7android8hardware4gnss17IGnssDebugDefault8asBinderEv"
  },
  {
   "name" : "_ZN4aidl7android8hardware4gnss17IGnssDebugDefault8isRemoteEv"
  },
  {
   "name" : "_ZN4aidl7android8hardware4gnss17IGnssPsdsCallback10fromBinderERKN3ndk10SpAIBinderE"
  },
  {
   "name" : "_ZN4aidl7android8hardware4gnss17IGnssPsdsCallback13writeToParcelEP7AParcelRKNSt3__110shared_ptrIS3_EE"
  },
  {
   "name" : "_ZN4aidl7android8hardware4gnss17IGnssPsdsCallback14getDefaultImplEv"
  },
  {
   "name" : "_ZN4aidl7android8hardware4gnss17IGnssPsdsCallback14readFromParcelEPK7AParcelPNSt3__110shared_ptrIS3_EE"
  },
  {
   "name" : "_ZN4aidl7android8hardware4gnss17IGnssPsdsCallback14setDefaultImplERKNSt3__110shared_ptrIS3_EE"
  },
  {
   "name" : "_ZN4aidl7android8hardware4gnss17IGnssPsdsCallbackC2Ev"
  },
  {
   "name" : "_ZN4aidl7android8hardware4gnss17IGnssPsdsCallbackD0Ev"
  },
  {
   "name" : "_ZN4aidl7android8hardware4gnss17IGnssPsdsCallbackD1Ev"
  },
  {
   "name" : "_ZN4aidl7android8hardware4gnss17IGnssPsdsCallbackD2Ev"
  },
  {
   "name" : "_ZN4aidl7android8hardware4gnss18BnAGnssRilCallback12createBinderEv"
  },
  {
   "name" : "_ZN4aidl7android8hardware4gnss18BnAGnssRilCallback16getInterfaceHashEPNSt3__112basic_stringIcNS4_11char_traitsIcEENS4_9allocatorIcEEEE"
  },
  {
   "name" : "_ZN4aidl7android8hardware4gnss18BnAGnssRilCallback19getInterfaceVersionEPi"
  },
  {
   "name" : "_ZN4aidl7android8hardware4gnss18BnAGnssRilCallbackC2Ev"
  },
  {
   "name" : "_ZN4aidl7android8hardware4gnss18BnAGnssRilCallbackD0Ev"
  },
  {
   "name" : "_ZN4aidl7android8hardware4gnss18BnAGnssRilCallbackD1Ev"
  },
  {
   "name" : "_ZN4aidl7android8hardware4gnss18BnAGnssRilCallbackD2Ev"
  },
  {
   "name" : "_ZN4aidl7android8hardware4gnss18BnGnssPsdsCallback12createBinderEv"
  },
  {
   "name" : "_ZN4aidl7android8hardware4gnss18BnGnssPsdsCallback16getInterfaceHashEPNSt3__112basic_stringIcNS4_11char_traitsIcEENS4_9allocatorIcEEEE"
  },
  {
   "name" : "_ZN4aidl7android8hardware4gnss18BnGnssPsdsCallback19getInterfaceVersionEPi"
  },
  {
   "name" : "_ZN4aidl7android8hardware4gnss18BnGnssPsdsCallbackC2Ev"
  },
  {
   "name" : "_ZN4aidl7android8hardware4gnss18BnGnssPsdsCallbackD0Ev"
  },
  {
   "name" : "_ZN4aidl7android8hardware4gnss18BnGnssPsdsCallbackD1Ev"
  },
  {
   "name" : "_ZN4aidl7android8hardware4gnss18BnGnssPsdsCallbackD2Ev"
  },
  {
   "name" : "_ZN4aidl7android8hardware4gnss18BpAGnssRilCallback14requestSetIdCbEi"
  },
  {
   "name" : "_ZN4aidl7android8hardware4gnss18BpAGnssRilCallback15requestRefLocCbEv"
  },
  {
   "name" : "_ZN4aidl7android8hardware4gnss18BpAGnssRilCallback16getInterfaceHashEPNSt3__112basic_stringIcNS4_11char_traitsIcEENS4_9allocatorIcEEEE"
  },
  {
   "name" : "_ZN4aidl7android8hardware4gnss18BpAGnssRilCallback19getInterfaceVersionEPi"
  },
  {
   "name" : "_ZN4aidl7android8hardware4gnss18BpAGnssRilCallbackC1ERKN3ndk10SpAIBinderE"
  },
  {
   "name" : "_ZN4aidl7android8hardware4gnss18BpAGnssRilCallbackC2ERKN3ndk10SpAIBinderE"
  },
  {
   "name" : "_ZN4aidl7android8hardware4gnss18BpAGnssRilCallbackD0Ev"
  },
  {
   "name" : "_ZN4aidl7android8hardware4gnss18BpAGnssRilCallbackD1Ev"
  },
  {
   "name" : "_ZN4aidl7android8hardware4gnss18BpAGnssRilCallbackD2Ev"
  },
  {
   "name" : "_ZN4aidl7android8hardware4gnss18BpGnssPsdsCallback16getInterfaceHashEPNSt3__112basic_stringIcNS4_11char_traitsIcEENS4_9allocatorIcEEEE"
  },
  {
   "name" : "_ZN4aidl7android8hardware4gnss18BpGnssPsdsCallback17downloadRequestCbENS2_8PsdsTypeE"
  },
  {
   "name" : "_ZN4aidl7android8hardware4gnss18BpGnssPsdsCallback19getInterfaceVersionEPi"
  },
  {
   "name" : "_ZN4aidl7android8hardware4gnss18BpGnssPsdsCallbackC1ERKN3ndk10SpAIBinderE"
  },
  {
   "name" : "_ZN4aidl7android8hardware4gnss18BpGnssPsdsCallbackC2ERKN3ndk10SpAIBinderE"
  },
  {
   "name" : "_ZN4aidl7android8hardware4gnss18BpGnssPsdsCallbackD0Ev"
  },
  {
   "name" : "_ZN4aidl7android8hardware4gnss18BpGnssPsdsCallbackD1Ev"
  },
  {
   "name" : "_ZN4aidl7android8hardware4gnss18BpGnssPsdsCallbackD2Ev"
  },
  {
   "name" : "_ZN4aidl7android8hardware4gnss18IGnssConfiguration10fromBinderERKN3ndk10SpAIBinderE"
  },
  {
   "name" : "_ZN4aidl7android8hardware4gnss18IGnssConfiguration13writeToParcelEP7AParcelRKNSt3__110shared_ptrIS3_EE"
  },
  {
   "name" : "_ZN4aidl7android8hardware4gnss18IGnssConfiguration14getDefaultImplEv"
  },
  {
   "name" : "_ZN4aidl7android8hardware4gnss18IGnssConfiguration14readFromParcelEPK7AParcelPNSt3__110shared_ptrIS3_EE"
  },
  {
   "name" : "_ZN4aidl7android8hardware4gnss18IGnssConfiguration14setDefaultImplERKNSt3__110shared_ptrIS3_EE"
  },
  {
   "name" : "_ZN4aidl7android8hardware4gnss18IGnssConfigurationC2Ev"
  },
  {
   "name" : "_ZN4aidl7android8hardware4gnss18IGnssConfigurationD0Ev"
  },
  {
   "name" : "_ZN4aidl7android8hardware4gnss18IGnssConfigurationD1Ev"
  },
  {
   "name" : "_ZN4aidl7android8hardware4gnss18IGnssConfigurationD2Ev"
  },
  {
   "name" : "_ZN4aidl7android8hardware4gnss18SatelliteClockInfo14readFromParcelEPK7AParcel"
  },
  {
   "name" : "_ZN4aidl7android8hardware4gnss18visibility_control22IGnssVisibilityControl10fromBinderERKN3ndk10SpAIBinderE"
  },
  {
   "name" : "_ZN4aidl7android8hardware4gnss18visibility_control22IGnssVisibilityControl13writeToParcelEP7AParcelRKNSt3__110shared_ptrIS4_EE"
  },
  {
   "name" : "_ZN4aidl7android8hardware4gnss18visibility_control22IGnssVisibilityControl14getDefaultImplEv"
  },
  {
   "name" : "_ZN4aidl7android8hardware4gnss18visibility_control22IGnssVisibilityControl14readFromParcelEPK7AParcelPNSt3__110shared_ptrIS4_EE"
  },
  {
   "name" : "_ZN4aidl7android8hardware4gnss18visibility_control22IGnssVisibilityControl14setDefaultImplERKNSt3__110shared_ptrIS4_EE"
  },
  {
   "name" : "_ZN4aidl7android8hardware4gnss18visibility_control22IGnssVisibilityControlC2Ev"
  },
  {
   "name" : "_ZN4aidl7android8hardware4gnss18visibility_control22IGnssVisibilityControlD0Ev"
  },
  {
   "name" : "_ZN4aidl7android8hardware4gnss18visibility_control22IGnssVisibilityControlD1Ev"
  },
  {
   "name" : "_ZN4aidl7android8hardware4gnss18visibility_control22IGnssVisibilityControlD2Ev"
  },
  {
   "name" : "_ZN4aidl7android8hardware4gnss18visibility_control23BnGnssVisibilityControl12createBinderEv"
  },
  {
   "name" : "_ZN4aidl7android8hardware4gnss18visibility_control23BnGnssVisibilityControl16getInterfaceHashEPNSt3__112basic_stringIcNS5_11char_traitsIcEENS5_9allocatorIcEEEE"
  },
  {
   "name" : "_ZN4aidl7android8hardware4gnss18visibility_control23BnGnssVisibilityControl19getInterfaceVersionEPi"
  },
  {
   "name" : "_ZN4aidl7android8hardware4gnss18visibility_control23BnGnssVisibilityControlC2Ev"
  },
  {
   "name" : "_ZN4aidl7android8hardware4gnss18visibility_control23BnGnssVisibilityControlD0Ev"
  },
  {
   "name" : "_ZN4aidl7android8hardware4gnss18visibility_control23BnGnssVisibilityControlD1Ev"
  },
  {
   "name" : "_ZN4aidl7android8hardware4gnss18visibility_control23BnGnssVisibilityControlD2Ev"
  },
  {
   "name" : "_ZN4aidl7android8hardware4gnss18visibility_control23BpGnssVisibilityControl11setCallbackERKNSt3__110shared_ptrINS3_30IGnssVisibilityControlCallbackEEE"
  },
  {
   "name" : "_ZN4aidl7android8hardware4gnss18visibility_control23BpGnssVisibilityControl16getInterfaceHashEPNSt3__112basic_stringIcNS5_11char_traitsIcEENS5_9allocatorIcEEEE"
  },
  {
   "name" : "_ZN4aidl7android8hardware4gnss18visibility_control23BpGnssVisibilityControl19getInterfaceVersionEPi"
  },
  {
   "name" : "_ZN4aidl7android8hardware4gnss18visibility_control23BpGnssVisibilityControl23enableNfwLocationAccessERKNSt3__16vectorINS5_12basic_stringIcNS5_11char_traitsIcEENS5_9allocatorIcEEEENSA_ISC_EEEE"
  },
  {
   "name" : "_ZN4aidl7android8hardware4gnss18visibility_control23BpGnssVisibilityControlC1ERKN3ndk10SpAIBinderE"
  },
  {
   "name" : "_ZN4aidl7android8hardware4gnss18visibility_control23BpGnssVisibilityControlC2ERKN3ndk10SpAIBinderE"
  },
  {
   "name" : "_ZN4aidl7android8hardware4gnss18visibility_control23BpGnssVisibilityControlD0Ev"
  },
  {
   "name" : "_ZN4aidl7android8hardware4gnss18visibility_control23BpGnssVisibilityControlD1Ev"
  },
  {
   "name" : "_ZN4aidl7android8hardware4gnss18visibility_control23BpGnssVisibilityControlD2Ev"
  },
  {
   "name" : "_ZN4aidl7android8hardware4gnss18visibility_control29IGnssVisibilityControlDefault11setCallbackERKNSt3__110shared_ptrINS3_30IGnssVisibilityControlCallbackEEE"
  },
  {
   "name" : "_ZN4aidl7android8hardware4gnss18visibility_control29IGnssVisibilityControlDefault16getInterfaceHashEPNSt3__112basic_stringIcNS5_11char_traitsIcEENS5_9allocatorIcEEEE"
  },
  {
   "name" : "_ZN4aidl7android8hardware4gnss18visibility_control29IGnssVisibilityControlDefault19getInterfaceVersionEPi"
  },
  {
   "name" : "_ZN4aidl7android8hardware4gnss18visibility_control29IGnssVisibilityControlDefault23enableNfwLocationAccessERKNSt3__16vectorINS5_12basic_stringIcNS5_11char_traitsIcEENS5_9allocatorIcEEEENSA_ISC_EEEE"
  },
  {
   "name" : "_ZN4aidl7android8hardware4gnss18visibility_control29IGnssVisibilityControlDefault8asBinderEv"
  },
  {
   "name" : "_ZN4aidl7android8hardware4gnss18visibility_control29IGnssVisibilityControlDefault8isRemoteEv"
  },
  {
   "name" : "_ZN4aidl7android8hardware4gnss18visibility_control30IGnssVisibilityControlCallback10fromBinderERKN3ndk10SpAIBinderE"
  },
  {
   "name" : "_ZN4aidl7android8hardware4gnss18visibility_control30IGnssVisibilityControlCallback13writeToParcelEP7AParcelRKNSt3__110shared_ptrIS4_EE"
  },
  {
   "name" : "_ZN4aidl7android8hardware4gnss18visibility_control30IGnssVisibilityControlCallback14getDefaultImplEv"
  },
  {
   "name" : "_ZN4aidl7android8hardware4gnss18visibility_control30IGnssVisibilityControlCallback14readFromParcelEPK7AParcelPNSt3__110shared_ptrIS4_EE"
  },
  {
   "name" : "_ZN4aidl7android8hardware4gnss18visibility_control30IGnssVisibilityControlCallback14setDefaultImplERKNSt3__110shared_ptrIS4_EE"
  },
  {
   "name" : "_ZN4aidl7android8hardware4gnss18visibility_control30IGnssVisibilityControlCallback15NfwNotification14readFromParcelEPK7AParcel"
  },
  {
   "name" : "_ZN4aidl7android8hardware4gnss18visibility_control30IGnssVisibilityControlCallbackC2Ev"
  },
  {
   "name" : "_ZN4aidl7android8hardware4gnss18visibility_control30IGnssVisibilityControlCallbackD0Ev"
  },
  {
   "name" : "_ZN4aidl7android8hardware4gnss18visibility_control30IGnssVisibilityControlCallbackD1Ev"
  },
  {
   "name" : "_ZN4aidl7android8hardware4gnss18visibility_control30IGnssVisibilityControlCallbackD2Ev"
  },
  {
   "name" : "_ZN4aidl7android8hardware4gnss18visibility_control31BnGnssVisibilityControlCallback12createBinderEv"
  },
  {
   "name" : "_ZN4aidl7android8hardware4gnss18visibility_control31BnGnssVisibilityControlCallback16getInterfaceHashEPNSt3__112basic_stringIcNS5_11char_traitsIcEENS5_9allocatorIcEEEE"
  },
  {
   "name" : "_ZN4aidl7android8hardware4gnss18visibility_control31BnGnssVisibilityControlCallback19getInterfaceVersionEPi"
  },
  {
   "name" : "_ZN4aidl7android8hardware4gnss18visibility_control31BnGnssVisibilityControlCallbackC2Ev"
  },
  {
   "name" : "_ZN4aidl7android8hardware4gnss18visibility_control31BnGnssVisibilityControlCallbackD0Ev"
  },
  {
   "name" : "_ZN4aidl7android8hardware4gnss18visibility_control31BnGnssVisibilityControlCallbackD1Ev"
  },
  {
   "name" : "_ZN4aidl7android8hardware4gnss18visibility_control31BnGnssVisibilityControlCallbackD2Ev"
  },
  {
   "name" : "_ZN4aidl7android8hardware4gnss18visibility_control31BpGnssVisibilityControlCallback11nfwNotifyCbERKNS3_30IGnssVisibilityControlCallback15NfwNotificationE"
  },
  {
   "name" : "_ZN4aidl7android8hardware4gnss18visibility_control31BpGnssVisibilityControlCallback16getInterfaceHashEPNSt3__112basic_stringIcNS5_11char_traitsIcEENS5_9allocatorIcEEEE"
  },
  {
   "name" : "_ZN4aidl7android8hardware4gnss18visibility_control31BpGnssVisibilityControlCallback19getInterfaceVersionEPi"
  },
  {
   "name" : "_ZN4aidl7android8hardware4gnss18visibility_control31BpGnssVisibilityControlCallback20isInEmergencySessionEPb"
  },
  {
   "name" : "_ZN4aidl7android8hardware4gnss18visibility_control31BpGnssVisibilityControlCallbackC1ERKN3ndk10SpAIBinderE"
  },
  {
   "name" : "_ZN4aidl7android8hardware4gnss18visibility_control31BpGnssVisibilityControlCallbackC2ERKN3ndk10SpAIBinderE"
  },
  {
   "name" : "_ZN4aidl7android8hardware4gnss18visibility_control31BpGnssVisibilityControlCallbackD0Ev"
  },
  {
   "name" : "_ZN4aidl7android8hardware4gnss18visibility_control31BpGnssVisibilityControlCallbackD1Ev"
  },
  {
   "name" : "_ZN4aidl7android8hardware4gnss18visibility_control31BpGnssVisibilityControlCallbackD2Ev"
  },
  {
   "name" : "_ZN4aidl7android8hardware4gnss18visibility_control37IGnssVisibilityControlCallbackDefault11nfwNotifyCbERKNS3_30IGnssVisibilityControlCallback15NfwNotificationE"
  },
  {
   "name" : "_ZN4aidl7android8hardware4gnss18visibility_control37IGnssVisibilityControlCallbackDefault16getInterfaceHashEPNSt3__112basic_stringIcNS5_11char_traitsIcEENS5_9allocatorIcEEEE"
  },
  {
   "name" : "_ZN4aidl7android8hardware4gnss18visibility_control37IGnssVisibilityControlCallbackDefault19getInterfaceVersionEPi"
  },
  {
   "name" : "_ZN4aidl7android8hardware4gnss18visibility_control37IGnssVisibilityControlCallbackDefault20isInEmergencySessionEPb"
  },
  {
   "name" : "_ZN4aidl7android8hardware4gnss18visibility_control37IGnssVisibilityControlCallbackDefault8asBinderEv"
  },
  {
   "name" : "_ZN4aidl7android8hardware4gnss18visibility_control37IGnssVisibilityControlCallbackDefault8isRemoteEv"
  },
  {
   "name" : "_ZN4aidl7android8hardware4gnss19BnGnssConfiguration12createBinderEv"
  },
  {
   "name" : "_ZN4aidl7android8hardware4gnss19BnGnssConfiguration16getInterfaceHashEPNSt3__112basic_stringIcNS4_11char_traitsIcEENS4_9allocatorIcEEEE"
  },
  {
   "name" : "_ZN4aidl7android8hardware4gnss19BnGnssConfiguration19getInterfaceVersionEPi"
  },
  {
   "name" : "_ZN4aidl7android8hardware4gnss19BnGnssConfigurationC2Ev"
  },
  {
   "name" : "_ZN4aidl7android8hardware4gnss19BnGnssConfigurationD0Ev"
  },
  {
   "name" : "_ZN4aidl7android8hardware4gnss19BnGnssConfigurationD1Ev"
  },
  {
   "name" : "_ZN4aidl7android8hardware4gnss19BnGnssConfigurationD2Ev"
  },
  {
   "name" : "_ZN4aidl7android8hardware4gnss19BpGnssConfiguration11setSuplModeEi"
  },
  {
   "name" : "_ZN4aidl7android8hardware4gnss19BpGnssConfiguration12setBlocklistERKNSt3__16vectorINS2_17BlocklistedSourceENS4_9allocatorIS6_EEEE"
  },
  {
   "name" : "_ZN4aidl7android8hardware4gnss19BpGnssConfiguration13setLppProfileEi"
  },
  {
   "name" : "_ZN4aidl7android8hardware4gnss19BpGnssConfiguration14setSuplVersionEi"
  },
  {
   "name" : "_ZN4aidl7android8hardware4gnss19BpGnssConfiguration16getInterfaceHashEPNSt3__112basic_stringIcNS4_11char_traitsIcEENS4_9allocatorIcEEEE"
  },
  {
   "name" : "_ZN4aidl7android8hardware4gnss19BpGnssConfiguration17setEsExtensionSecEi"
  },
  {
   "name" : "_ZN4aidl7android8hardware4gnss19BpGnssConfiguration19getInterfaceVersionEPi"
  },
  {
   "name" : "_ZN4aidl7android8hardware4gnss19BpGnssConfiguration19setEmergencySuplPdnEb"
  },
  {
   "name" : "_ZN4aidl7android8hardware4gnss19BpGnssConfiguration29setGlonassPositioningProtocolEi"
  },
  {
   "name" : "_ZN4aidl7android8hardware4gnss19BpGnssConfigurationC1ERKN3ndk10SpAIBinderE"
  },
  {
   "name" : "_ZN4aidl7android8hardware4gnss19BpGnssConfigurationC2ERKN3ndk10SpAIBinderE"
  },
  {
   "name" : "_ZN4aidl7android8hardware4gnss19BpGnssConfigurationD0Ev"
  },
  {
   "name" : "_ZN4aidl7android8hardware4gnss19BpGnssConfigurationD1Ev"
  },
  {
   "name" : "_ZN4aidl7android8hardware4gnss19BpGnssConfigurationD2Ev"
  },
  {
   "name" : "_ZN4aidl7android8hardware4gnss20IGnssBatchingDefault12getBatchSizeEPi"
  },
  {
   "name" : "_ZN4aidl7android8hardware4gnss20IGnssBatchingDefault16getInterfaceHashEPNSt3__112basic_stringIcNS4_11char_traitsIcEENS4_9allocatorIcEEEE"
  },
  {
   "name" : "_ZN4aidl7android8hardware4gnss20IGnssBatchingDefault19getInterfaceVersionEPi"
  },
  {
   "name" : "_ZN4aidl7android8hardware4gnss20IGnssBatchingDefault4initERKNSt3__110shared_ptrINS2_21IGnssBatchingCallbackEEE"
  },
  {
   "name" : "_ZN4aidl7android8hardware4gnss20IGnssBatchingDefault4stopEv"
  },
  {
   "name" : "_ZN4aidl7android8hardware4gnss20IGnssBatchingDefault5flushEv"
  },
  {
   "name" : "_ZN4aidl7android8hardware4gnss20IGnssBatchingDefault5startERKNS2_13IGnssBatching7OptionsE"
  },
  {
   "name" : "_ZN4aidl7android8hardware4gnss20IGnssBatchingDefault7cleanupEv"
  },
  {
   "name" : "_ZN4aidl7android8hardware4gnss20IGnssBatchingDefault8asBinderEv"
  },
  {
   "name" : "_ZN4aidl7android8hardware4gnss20IGnssBatchingDefault8isRemoteEv"
  },
  {
   "name" : "_ZN4aidl7android8hardware4gnss20IGnssCallbackDefault10gnssNmeaCbExRKNSt3__112basic_stringIcNS4_11char_traitsIcEENS4_9allocatorIcEEEE"
  },
  {
   "name" : "_ZN4aidl7android8hardware4gnss20IGnssCallbackDefault12gnssStatusCbENS2_13IGnssCallback15GnssStatusValueE"
  },
  {
   "name" : "_ZN4aidl7android8hardware4gnss20IGnssCallbackDefault14gnssLocationCbERKNS2_12GnssLocationE"
  },
  {
   "name" : "_ZN4aidl7android8hardware4gnss20IGnssCallbackDefault14gnssSvStatusCbERKNSt3__16vectorINS2_13IGnssCallback10GnssSvInfoENS4_9allocatorIS7_EEEE"
  },
  {
   "name" : "_ZN4aidl7android8hardware4gnss20IGnssCallbackDefault16getInterfaceHashEPNSt3__112basic_stringIcNS4_11char_traitsIcEENS4_9allocatorIcEEEE"
  },
  {
   "name" : "_ZN4aidl7android8hardware4gnss20IGnssCallbackDefault17gnssRequestTimeCbEv"
  },
  {
   "name" : "_ZN4aidl7android8hardware4gnss20IGnssCallbackDefault19getInterfaceVersionEPi"
  },
  {
   "name" : "_ZN4aidl7android8hardware4gnss20IGnssCallbackDefault19gnssSetSystemInfoCbERKNS2_13IGnssCallback14GnssSystemInfoE"
  },
  {
   "name" : "_ZN4aidl7android8hardware4gnss20IGnssCallbackDefault21gnssAcquireWakelockCbEv"
  },
  {
   "name" : "_ZN4aidl7android8hardware4gnss20IGnssCallbackDefault21gnssReleaseWakelockCbEv"
  },
  {
   "name" : "_ZN4aidl7android8hardware4gnss20IGnssCallbackDefault21gnssRequestLocationCbEbb"
  },
  {
   "name" : "_ZN4aidl7android8hardware4gnss20IGnssCallbackDefault21gnssSetCapabilitiesCbEi"
  },
  {
   "name" : "_ZN4aidl7android8hardware4gnss20IGnssCallbackDefault8asBinderEv"
  },
  {
   "name" : "_ZN4aidl7android8hardware4gnss20IGnssCallbackDefault8isRemoteEv"
  },
  {
   "name" : "_ZN4aidl7android8hardware4gnss20IGnssGeofenceDefault11addGeofenceEidddiiii"
  },
  {
   "name" : "_ZN4aidl7android8hardware4gnss20IGnssGeofenceDefault11setCallbackERKNSt3__110shared_ptrINS2_21IGnssGeofenceCallbackEEE"
  },
  {
   "name" : "_ZN4aidl7android8hardware4gnss20IGnssGeofenceDefault13pauseGeofenceEi"
  },
  {
   "name" : "_ZN4aidl7android8hardware4gnss20IGnssGeofenceDefault14removeGeofenceEi"
  },
  {
   "name" : "_ZN4aidl7android8hardware4gnss20IGnssGeofenceDefault14resumeGeofenceEii"
  },
  {
   "name" : "_ZN4aidl7android8hardware4gnss20IGnssGeofenceDefault16getInterfaceHashEPNSt3__112basic_stringIcNS4_11char_traitsIcEENS4_9allocatorIcEEEE"
  },
  {
   "name" : "_ZN4aidl7android8hardware4gnss20IGnssGeofenceDefault19getInterfaceVersionEPi"
  },
  {
   "name" : "_ZN4aidl7android8hardware4gnss20IGnssGeofenceDefault8asBinderEv"
  },
  {
   "name" : "_ZN4aidl7android8hardware4gnss20IGnssGeofenceDefault8isRemoteEv"
  },
  {
   "name" : "_ZN4aidl7android8hardware4gnss20IGnssPowerIndication10fromBinderERKN3ndk10SpAIBinderE"
  },
  {
   "name" : "_ZN4aidl7android8hardware4gnss20IGnssPowerIndication13writeToParcelEP7AParcelRKNSt3__110shared_ptrIS3_EE"
  },
  {
   "name" : "_ZN4aidl7android8hardware4gnss20IGnssPowerIndication14getDefaultImplEv"
  },
  {
   "name" : "_ZN4aidl7android8hardware4gnss20IGnssPowerIndication14readFromParcelEPK7AParcelPNSt3__110shared_ptrIS3_EE"
  },
  {
   "name" : "_ZN4aidl7android8hardware4gnss20IGnssPowerIndication14setDefaultImplERKNSt3__110shared_ptrIS3_EE"
  },
  {
   "name" : "_ZN4aidl7android8hardware4gnss20IGnssPowerIndicationC2Ev"
  },
  {
   "name" : "_ZN4aidl7android8hardware4gnss20IGnssPowerIndicationD0Ev"
  },
  {
   "name" : "_ZN4aidl7android8hardware4gnss20IGnssPowerIndicationD1Ev"
  },
  {
   "name" : "_ZN4aidl7android8hardware4gnss20IGnssPowerIndicationD2Ev"
  },
  {
   "name" : "_ZN4aidl7android8hardware4gnss21BnGnssPowerIndication12createBinderEv"
  },
  {
   "name" : "_ZN4aidl7android8hardware4gnss21BnGnssPowerIndication16getInterfaceHashEPNSt3__112basic_stringIcNS4_11char_traitsIcEENS4_9allocatorIcEEEE"
  },
  {
   "name" : "_ZN4aidl7android8hardware4gnss21BnGnssPowerIndication19getInterfaceVersionEPi"
  },
  {
   "name" : "_ZN4aidl7android8hardware4gnss21BnGnssPowerIndicationC2Ev"
  },
  {
   "name" : "_ZN4aidl7android8hardware4gnss21BnGnssPowerIndicationD0Ev"
  },
  {
   "name" : "_ZN4aidl7android8hardware4gnss21BnGnssPowerIndicationD1Ev"
  },
  {
   "name" : "_ZN4aidl7android8hardware4gnss21BnGnssPowerIndicationD2Ev"
  },
  {
   "name" : "_ZN4aidl7android8hardware4gnss21BpGnssPowerIndication11setCallbackERKNSt3__110shared_ptrINS2_28IGnssPowerIndicationCallbackEEE"
  },
  {
   "name" : "_ZN4aidl7android8hardware4gnss21BpGnssPowerIndication16getInterfaceHashEPNSt3__112basic_stringIcNS4_11char_traitsIcEENS4_9allocatorIcEEEE"
  },
  {
   "name" : "_ZN4aidl7android8hardware4gnss21BpGnssPowerIndication19getInterfaceVersionEPi"
  },
  {
   "name" : "_ZN4aidl7android8hardware4gnss21BpGnssPowerIndication21requestGnssPowerStatsEv"
  },
  {
   "name" : "_ZN4aidl7android8hardware4gnss21BpGnssPowerIndicationC1ERKN3ndk10SpAIBinderE"
  },
  {
   "name" : "_ZN4aidl7android8hardware4gnss21BpGnssPowerIndicationC2ERKN3ndk10SpAIBinderE"
  },
  {
   "name" : "_ZN4aidl7android8hardware4gnss21BpGnssPowerIndicationD0Ev"
  },
  {
   "name" : "_ZN4aidl7android8hardware4gnss21BpGnssPowerIndicationD1Ev"
  },
  {
   "name" : "_ZN4aidl7android8hardware4gnss21BpGnssPowerIndicationD2Ev"
  },
  {
   "name" : "_ZN4aidl7android8hardware4gnss21IAGnssCallbackDefault13agnssStatusCbENS2_14IAGnssCallback9AGnssTypeENS4_16AGnssStatusValueE"
  },
  {
   "name" : "_ZN4aidl7android8hardware4gnss21IAGnssCallbackDefault16getInterfaceHashEPNSt3__112basic_stringIcNS4_11char_traitsIcEENS4_9allocatorIcEEEE"
  },
  {
   "name" : "_ZN4aidl7android8hardware4gnss21IAGnssCallbackDefault19getInterfaceVersionEPi"
  },
  {
   "name" : "_ZN4aidl7android8hardware4gnss21IAGnssCallbackDefault8asBinderEv"
  },
  {
   "name" : "_ZN4aidl7android8hardware4gnss21IAGnssCallbackDefault8isRemoteEv"
  },
  {
   "name" : "_ZN4aidl7android8hardware4gnss21IGnssBatchingCallback10fromBinderERKN3ndk10SpAIBinderE"
  },
  {
   "name" : "_ZN4aidl7android8hardware4gnss21IGnssBatchingCallback13writeToParcelEP7AParcelRKNSt3__110shared_ptrIS3_EE"
  },
  {
   "name" : "_ZN4aidl7android8hardware4gnss21IGnssBatchingCallback14getDefaultImplEv"
  },
  {
   "name" : "_ZN4aidl7android8hardware4gnss21IGnssBatchingCallback14readFromParcelEPK7AParcelPNSt3__110shared_ptrIS3_EE"
  },
  {
   "name" : "_ZN4aidl7android8hardware4gnss21IGnssBatchingCallback14setDefaultImplERKNSt3__110shared_ptrIS3_EE"
  },
  {
   "name" : "_ZN4aidl7android8hardware4gnss21IGnssBatchingCallbackC2Ev"
  },
  {
   "name" : "_ZN4aidl7android8hardware4gnss21IGnssBatchingCallbackD0Ev"
  },
  {
   "name" : "_ZN4aidl7android8hardware4gnss21IGnssBatchingCallbackD1Ev"
  },
  {
   "name" : "_ZN4aidl7android8hardware4gnss21IGnssBatchingCallbackD2Ev"
  },
  {
   "name" : "_ZN4aidl7android8hardware4gnss21IGnssGeofenceCallback10fromBinderERKN3ndk10SpAIBinderE"
  },
  {
   "name" : "_ZN4aidl7android8hardware4gnss21IGnssGeofenceCallback13writeToParcelEP7AParcelRKNSt3__110shared_ptrIS3_EE"
  },
  {
   "name" : "_ZN4aidl7android8hardware4gnss21IGnssGeofenceCallback14getDefaultImplEv"
  },
  {
   "name" : "_ZN4aidl7android8hardware4gnss21IGnssGeofenceCallback14readFromParcelEPK7AParcelPNSt3__110shared_ptrIS3_EE"
  },
  {
   "name" : "_ZN4aidl7android8hardware4gnss21IGnssGeofenceCallback14setDefaultImplERKNSt3__110shared_ptrIS3_EE"
  },
  {
   "name" : "_ZN4aidl7android8hardware4gnss21IGnssGeofenceCallbackC2Ev"
  },
  {
   "name" : "_ZN4aidl7android8hardware4gnss21IGnssGeofenceCallbackD0Ev"
  },
  {
   "name" : "_ZN4aidl7android8hardware4gnss21IGnssGeofenceCallbackD1Ev"
  },
  {
   "name" : "_ZN4aidl7android8hardware4gnss21IGnssGeofenceCallbackD2Ev"
  },
  {
   "name" : "_ZN4aidl7android8hardware4gnss21SatellitePositionEcef14readFromParcelEPK7AParcel"
  },
  {
   "name" : "_ZN4aidl7android8hardware4gnss21SatelliteVelocityEcef14readFromParcelEPK7AParcel"
  },
  {
   "name" : "_ZN4aidl7android8hardware4gnss22BnGnssBatchingCallback12createBinderEv"
  },
  {
   "name" : "_ZN4aidl7android8hardware4gnss22BnGnssBatchingCallback16getInterfaceHashEPNSt3__112basic_stringIcNS4_11char_traitsIcEENS4_9allocatorIcEEEE"
  },
  {
   "name" : "_ZN4aidl7android8hardware4gnss22BnGnssBatchingCallback19getInterfaceVersionEPi"
  },
  {
   "name" : "_ZN4aidl7android8hardware4gnss22BnGnssBatchingCallbackC2Ev"
  },
  {
   "name" : "_ZN4aidl7android8hardware4gnss22BnGnssBatchingCallbackD0Ev"
  },
  {
   "name" : "_ZN4aidl7android8hardware4gnss22BnGnssBatchingCallbackD1Ev"
  },
  {
   "name" : "_ZN4aidl7android8hardware4gnss22BnGnssBatchingCallbackD2Ev"
  },
  {
   "name" : "_ZN4aidl7android8hardware4gnss22BnGnssGeofenceCallback12createBinderEv"
  },
  {
   "name" : "_ZN4aidl7android8hardware4gnss22BnGnssGeofenceCallback16getInterfaceHashEPNSt3__112basic_stringIcNS4_11char_traitsIcEENS4_9allocatorIcEEEE"
  },
  {
   "name" : "_ZN4aidl7android8hardware4gnss22BnGnssGeofenceCallback19getInterfaceVersionEPi"
  },
  {
   "name" : "_ZN4aidl7android8hardware4gnss22BnGnssGeofenceCallbackC2Ev"
  },
  {
   "name" : "_ZN4aidl7android8hardware4gnss22BnGnssGeofenceCallbackD0Ev"
  },
  {
   "name" : "_ZN4aidl7android8hardware4gnss22BnGnssGeofenceCallbackD1Ev"
  },
  {
   "name" : "_ZN4aidl7android8hardware4gnss22BnGnssGeofenceCallbackD2Ev"
  },
  {
   "name" : "_ZN4aidl7android8hardware4gnss22BpGnssBatchingCallback16getInterfaceHashEPNSt3__112basic_stringIcNS4_11char_traitsIcEENS4_9allocatorIcEEEE"
  },
  {
   "name" : "_ZN4aidl7android8hardware4gnss22BpGnssBatchingCallback19getInterfaceVersionEPi"
  },
  {
   "name" : "_ZN4aidl7android8hardware4gnss22BpGnssBatchingCallback19gnssLocationBatchCbERKNSt3__16vectorINS2_12GnssLocationENS4_9allocatorIS6_EEEE"
  },
  {
   "name" : "_ZN4aidl7android8hardware4gnss22BpGnssBatchingCallbackC1ERKN3ndk10SpAIBinderE"
  },
  {
   "name" : "_ZN4aidl7android8hardware4gnss22BpGnssBatchingCallbackC2ERKN3ndk10SpAIBinderE"
  },
  {
   "name" : "_ZN4aidl7android8hardware4gnss22BpGnssBatchingCallbackD0Ev"
  },
  {
   "name" : "_ZN4aidl7android8hardware4gnss22BpGnssBatchingCallbackD1Ev"
  },
  {
   "name" : "_ZN4aidl7android8hardware4gnss22BpGnssBatchingCallbackD2Ev"
  },
  {
   "name" : "_ZN4aidl7android8hardware4gnss22BpGnssGeofenceCallback16getInterfaceHashEPNSt3__112basic_stringIcNS4_11char_traitsIcEENS4_9allocatorIcEEEE"
  },
  {
   "name" : "_ZN4aidl7android8hardware4gnss22BpGnssGeofenceCallback17gnssGeofenceAddCbEii"
  },
  {
   "name" : "_ZN4aidl7android8hardware4gnss22BpGnssGeofenceCallback19getInterfaceVersionEPi"
  },
  {
   "name" : "_ZN4aidl7android8hardware4gnss22BpGnssGeofenceCallback19gnssGeofencePauseCbEii"
  },
  {
   "name" : "_ZN4aidl7android8hardware4gnss22BpGnssGeofenceCallback20gnssGeofenceRemoveCbEii"
  },
  {
   "name" : "_ZN4aidl7android8hardware4gnss22BpGnssGeofenceCallback20gnssGeofenceResumeCbEii"
  },
  {
   "name" : "_ZN4aidl7android8hardware4gnss22BpGnssGeofenceCallback20gnssGeofenceStatusCbEiRKNS2_12GnssLocationE"
  },
  {
   "name" : "_ZN4aidl7android8hardware4gnss22BpGnssGeofenceCallback24gnssGeofenceTransitionCbEiRKNS2_12GnssLocationEix"
  },
  {
   "name" : "_ZN4aidl7android8hardware4gnss22BpGnssGeofenceCallbackC1ERKN3ndk10SpAIBinderE"
  },
  {
   "name" : "_ZN4aidl7android8hardware4gnss22BpGnssGeofenceCallbackC2ERKN3ndk10SpAIBinderE"
  },
  {
   "name" : "_ZN4aidl7android8hardware4gnss22BpGnssGeofenceCallbackD0Ev"
  },
  {
   "name" : "_ZN4aidl7android8hardware4gnss22BpGnssGeofenceCallbackD1Ev"
  },
  {
   "name" : "_ZN4aidl7android8hardware4gnss22BpGnssGeofenceCallbackD2Ev"
  },
  {
   "name" : "_ZN4aidl7android8hardware4gnss23IGnssAntennaInfoDefault11setCallbackERKNSt3__110shared_ptrINS2_24IGnssAntennaInfoCallbackEEE"
  },
  {
   "name" : "_ZN4aidl7android8hardware4gnss23IGnssAntennaInfoDefault16getInterfaceHashEPNSt3__112basic_stringIcNS4_11char_traitsIcEENS4_9allocatorIcEEEE"
  },
  {
   "name" : "_ZN4aidl7android8hardware4gnss23IGnssAntennaInfoDefault19getInterfaceVersionEPi"
  },
  {
   "name" : "_ZN4aidl7android8hardware4gnss23IGnssAntennaInfoDefault5closeEv"
  },
  {
   "name" : "_ZN4aidl7android8hardware4gnss23IGnssAntennaInfoDefault8asBinderEv"
  },
  {
   "name" : "_ZN4aidl7android8hardware4gnss23IGnssAntennaInfoDefault8isRemoteEv"
  },
  {
   "name" : "_ZN4aidl7android8hardware4gnss23measurement_corrections15ReflectingPlane14readFromParcelEPK7AParcel"
  },
  {
   "name" : "_ZN4aidl7android8hardware4gnss23measurement_corrections19SingleSatCorrection14ExcessPathInfo14readFromParcelEPK7AParcel"
  },
  {
   "name" : "_ZN4aidl7android8hardware4gnss23measurement_corrections19SingleSatCorrection14readFromParcelEPK7AParcel"
  },
  {
   "name" : "_ZN4aidl7android8hardware4gnss23measurement_corrections22MeasurementCorrections14readFromParcelEPK7AParcel"
  },
  {
   "name" : "_ZN4aidl7android8hardware4gnss23measurement_corrections31IMeasurementCorrectionsCallback10fromBinderERKN3ndk10SpAIBinderE"
  },
  {
   "name" : "_ZN4aidl7android8hardware4gnss23measurement_corrections31IMeasurementCorrectionsCallback13writeToParcelEP7AParcelRKNSt3__110shared_ptrIS4_EE"
  },
  {
   "name" : "_ZN4aidl7android8hardware4gnss23measurement_corrections31IMeasurementCorrectionsCallback14getDefaultImplEv"
  },
  {
   "name" : "_ZN4aidl7android8hardware4gnss23measurement_corrections31IMeasurementCorrectionsCallback14readFromParcelEPK7AParcelPNSt3__110shared_ptrIS4_EE"
  },
  {
   "name" : "_ZN4aidl7android8hardware4gnss23measurement_corrections31IMeasurementCorrectionsCallback14setDefaultImplERKNSt3__110shared_ptrIS4_EE"
  },
  {
   "name" : "_ZN4aidl7android8hardware4gnss23measurement_corrections31IMeasurementCorrectionsCallbackC2Ev"
  },
  {
   "name" : "_ZN4aidl7android8hardware4gnss23measurement_corrections31IMeasurementCorrectionsCallbackD0Ev"
  },
  {
   "name" : "_ZN4aidl7android8hardware4gnss23measurement_corrections31IMeasurementCorrectionsCallbackD1Ev"
  },
  {
   "name" : "_ZN4aidl7android8hardware4gnss23measurement_corrections31IMeasurementCorrectionsCallbackD2Ev"
  },
  {
   "name" : "_ZN4aidl7android8hardware4gnss23measurement_corrections32BnMeasurementCorrectionsCallback12createBinderEv"
  },
  {
   "name" : "_ZN4aidl7android8hardware4gnss23measurement_corrections32BnMeasurementCorrectionsCallback16getInterfaceHashEPNSt3__112basic_stringIcNS5_11char_traitsIcEENS5_9allocatorIcEEEE"
  },
  {
   "name" : "_ZN4aidl7android8hardware4gnss23measurement_corrections32BnMeasurementCorrectionsCallback19getInterfaceVersionEPi"
  },
  {
   "name" : "_ZN4aidl7android8hardware4gnss23measurement_corrections32BnMeasurementCorrectionsCallbackC2Ev"
  },
  {
   "name" : "_ZN4aidl7android8hardware4gnss23measurement_corrections32BnMeasurementCorrectionsCallbackD0Ev"
  },
  {
   "name" : "_ZN4aidl7android8hardware4gnss23measurement_corrections32BnMeasurementCorrectionsCallbackD1Ev"
  },
  {
   "name" : "_ZN4aidl7android8hardware4gnss23measurement_corrections32BnMeasurementCorrectionsCallbackD2Ev"
  },
  {
   "name" : "_ZN4aidl7android8hardware4gnss23measurement_corrections32BpMeasurementCorrectionsCallback16getInterfaceHashEPNSt3__112basic_stringIcNS5_11char_traitsIcEENS5_9allocatorIcEEEE"
  },
  {
   "name" : "_ZN4aidl7android8hardware4gnss23measurement_corrections32BpMeasurementCorrectionsCallback17setCapabilitiesCbEi"
  },
  {
   "name" : "_ZN4aidl7android8hardware4gnss23measurement_corrections32BpMeasurementCorrectionsCallback19getInterfaceVersionEPi"
  },
  {
   "name" : "_ZN4aidl7android8hardware4gnss23measurement_corrections32BpMeasurementCorrectionsCallbackC1ERKN3ndk10SpAIBinderE"
  },
  {
   "name" : "_ZN4aidl7android8hardware4gnss23measurement_corrections32BpMeasurementCorrectionsCallbackC2ERKN3ndk10SpAIBinderE"
  },
  {
   "name" : "_ZN4aidl7android8hardware4gnss23measurement_corrections32BpMeasurementCorrectionsCallbackD0Ev"
  },
  {
   "name" : "_ZN4aidl7android8hardware4gnss23measurement_corrections32BpMeasurementCorrectionsCallbackD1Ev"
  },
  {
   "name" : "_ZN4aidl7android8hardware4gnss23measurement_corrections32BpMeasurementCorrectionsCallbackD2Ev"
  },
  {
   "name" : "_ZN4aidl7android8hardware4gnss23measurement_corrections32IMeasurementCorrectionsInterface10fromBinderERKN3ndk10SpAIBinderE"
  },
  {
   "name" : "_ZN4aidl7android8hardware4gnss23measurement_corrections32IMeasurementCorrectionsInterface13writeToParcelEP7AParcelRKNSt3__110shared_ptrIS4_EE"
  },
  {
   "name" : "_ZN4aidl7android8hardware4gnss23measurement_corrections32IMeasurementCorrectionsInterface14getDefaultImplEv"
  },
  {
   "name" : "_ZN4aidl7android8hardware4gnss23measurement_corrections32IMeasurementCorrectionsInterface14readFromParcelEPK7AParcelPNSt3__110shared_ptrIS4_EE"
  },
  {
   "name" : "_ZN4aidl7android8hardware4gnss23measurement_corrections32IMeasurementCorrectionsInterface14setDefaultImplERKNSt3__110shared_ptrIS4_EE"
  },
  {
   "name" : "_ZN4aidl7android8hardware4gnss23measurement_corrections32IMeasurementCorrectionsInterfaceC2Ev"
  },
  {
   "name" : "_ZN4aidl7android8hardware4gnss23measurement_corrections32IMeasurementCorrectionsInterfaceD0Ev"
  },
  {
   "name" : "_ZN4aidl7android8hardware4gnss23measurement_corrections32IMeasurementCorrectionsInterfaceD1Ev"
  },
  {
   "name" : "_ZN4aidl7android8hardware4gnss23measurement_corrections32IMeasurementCorrectionsInterfaceD2Ev"
  },
  {
   "name" : "_ZN4aidl7android8hardware4gnss23measurement_corrections33BnMeasurementCorrectionsInterface12createBinderEv"
  },
  {
   "name" : "_ZN4aidl7android8hardware4gnss23measurement_corrections33BnMeasurementCorrectionsInterface16getInterfaceHashEPNSt3__112basic_stringIcNS5_11char_traitsIcEENS5_9allocatorIcEEEE"
  },
  {
   "name" : "_ZN4aidl7android8hardware4gnss23measurement_corrections33BnMeasurementCorrectionsInterface19getInterfaceVersionEPi"
  },
  {
   "name" : "_ZN4aidl7android8hardware4gnss23measurement_corrections33BnMeasurementCorrectionsInterfaceC2Ev"
  },
  {
   "name" : "_ZN4aidl7android8hardware4gnss23measurement_corrections33BnMeasurementCorrectionsInterfaceD0Ev"
  },
  {
   "name" : "_ZN4aidl7android8hardware4gnss23measurement_corrections33BnMeasurementCorrectionsInterfaceD1Ev"
  },
  {
   "name" : "_ZN4aidl7android8hardware4gnss23measurement_corrections33BnMeasurementCorrectionsInterfaceD2Ev"
  },
  {
   "name" : "_ZN4aidl7android8hardware4gnss23measurement_corrections33BpMeasurementCorrectionsInterface11setCallbackERKNSt3__110shared_ptrINS3_31IMeasurementCorrectionsCallbackEEE"
  },
  {
   "name" : "_ZN4aidl7android8hardware4gnss23measurement_corrections33BpMeasurementCorrectionsInterface14setCorrectionsERKNS3_22MeasurementCorrectionsE"
  },
  {
   "name" : "_ZN4aidl7android8hardware4gnss23measurement_corrections33BpMeasurementCorrectionsInterface16getInterfaceHashEPNSt3__112basic_stringIcNS5_11char_traitsIcEENS5_9allocatorIcEEEE"
  },
  {
   "name" : "_ZN4aidl7android8hardware4gnss23measurement_corrections33BpMeasurementCorrectionsInterface19getInterfaceVersionEPi"
  },
  {
   "name" : "_ZN4aidl7android8hardware4gnss23measurement_corrections33BpMeasurementCorrectionsInterfaceC1ERKN3ndk10SpAIBinderE"
  },
  {
   "name" : "_ZN4aidl7android8hardware4gnss23measurement_corrections33BpMeasurementCorrectionsInterfaceC2ERKN3ndk10SpAIBinderE"
  },
  {
   "name" : "_ZN4aidl7android8hardware4gnss23measurement_corrections33BpMeasurementCorrectionsInterfaceD0Ev"
  },
  {
   "name" : "_ZN4aidl7android8hardware4gnss23measurement_corrections33BpMeasurementCorrectionsInterfaceD1Ev"
  },
  {
   "name" : "_ZN4aidl7android8hardware4gnss23measurement_corrections33BpMeasurementCorrectionsInterfaceD2Ev"
  },
  {
   "name" : "_ZN4aidl7android8hardware4gnss23measurement_corrections38IMeasurementCorrectionsCallbackDefault16getInterfaceHashEPNSt3__112basic_stringIcNS5_11char_traitsIcEENS5_9allocatorIcEEEE"
  },
  {
   "name" : "_ZN4aidl7android8hardware4gnss23measurement_corrections38IMeasurementCorrectionsCallbackDefault17setCapabilitiesCbEi"
  },
  {
   "name" : "_ZN4aidl7android8hardware4gnss23measurement_corrections38IMeasurementCorrectionsCallbackDefault19getInterfaceVersionEPi"
  },
  {
   "name" : "_ZN4aidl7android8hardware4gnss23measurement_corrections38IMeasurementCorrectionsCallbackDefault8asBinderEv"
  },
  {
   "name" : "_ZN4aidl7android8hardware4gnss23measurement_corrections38IMeasurementCorrectionsCallbackDefault8isRemoteEv"
  },
  {
   "name" : "_ZN4aidl7android8hardware4gnss23measurement_corrections39IMeasurementCorrectionsInterfaceDefault11setCallbackERKNSt3__110shared_ptrINS3_31IMeasurementCorrectionsCallbackEEE"
  },
  {
   "name" : "_ZN4aidl7android8hardware4gnss23measurement_corrections39IMeasurementCorrectionsInterfaceDefault14setCorrectionsERKNS3_22MeasurementCorrectionsE"
  },
  {
   "name" : "_ZN4aidl7android8hardware4gnss23measurement_corrections39IMeasurementCorrectionsInterfaceDefault16getInterfaceHashEPNSt3__112basic_stringIcNS5_11char_traitsIcEENS5_9allocatorIcEEEE"
  },
  {
   "name" : "_ZN4aidl7android8hardware4gnss23measurement_corrections39IMeasurementCorrectionsInterfaceDefault19getInterfaceVersionEPi"
  },
  {
   "name" : "_ZN4aidl7android8hardware4gnss23measurement_corrections39IMeasurementCorrectionsInterfaceDefault8asBinderEv"
  },
  {
   "name" : "_ZN4aidl7android8hardware4gnss23measurement_corrections39IMeasurementCorrectionsInterfaceDefault8isRemoteEv"
  },
  {
   "name" : "_ZN4aidl7android8hardware4gnss24IAGnssRilCallbackDefault14requestSetIdCbEi"
  },
  {
   "name" : "_ZN4aidl7android8hardware4gnss24IAGnssRilCallbackDefault15requestRefLocCbEv"
  },
  {
   "name" : "_ZN4aidl7android8hardware4gnss24IAGnssRilCallbackDefault16getInterfaceHashEPNSt3__112basic_stringIcNS4_11char_traitsIcEENS4_9allocatorIcEEEE"
  },
  {
   "name" : "_ZN4aidl7android8hardware4gnss24IAGnssRilCallbackDefault19getInterfaceVersionEPi"
  },
  {
   "name" : "_ZN4aidl7android8hardware4gnss24IAGnssRilCallbackDefault8asBinderEv"
  },
  {
   "name" : "_ZN4aidl7android8hardware4gnss24IAGnssRilCallbackDefault8isRemoteEv"
  },
  {
   "name" : "_ZN4aidl7android8hardware4gnss24IGnssAntennaInfoCallback10fromBinderERKN3ndk10SpAIBinderE"
  },
  {
   "name" : "_ZN4aidl7android8hardware4gnss24IGnssAntennaInfoCallback13writeToParcelEP7AParcelRKNSt3__110shared_ptrIS3_EE"
  },
  {
   "name" : "_ZN4aidl7android8hardware4gnss24IGnssAntennaInfoCallback14getDefaultImplEv"
  },
  {
   "name" : "_ZN4aidl7android8hardware4gnss24IGnssAntennaInfoCallback14readFromParcelEPK7AParcelPNSt3__110shared_ptrIS3_EE"
  },
  {
   "name" : "_ZN4aidl7android8hardware4gnss24IGnssAntennaInfoCallback14setDefaultImplERKNSt3__110shared_ptrIS3_EE"
  },
  {
   "name" : "_ZN4aidl7android8hardware4gnss24IGnssAntennaInfoCallback15GnssAntennaInfo14readFromParcelEPK7AParcel"
  },
  {
   "name" : "_ZN4aidl7android8hardware4gnss24IGnssAntennaInfoCallback3Row14readFromParcelEPK7AParcel"
  },
  {
   "name" : "_ZN4aidl7android8hardware4gnss24IGnssAntennaInfoCallback5Coord14readFromParcelEPK7AParcel"
  },
  {
   "name" : "_ZN4aidl7android8hardware4gnss24IGnssAntennaInfoCallbackC2Ev"
  },
  {
   "name" : "_ZN4aidl7android8hardware4gnss24IGnssAntennaInfoCallbackD0Ev"
  },
  {
   "name" : "_ZN4aidl7android8hardware4gnss24IGnssAntennaInfoCallbackD1Ev"
  },
  {
   "name" : "_ZN4aidl7android8hardware4gnss24IGnssAntennaInfoCallbackD2Ev"
  },
  {
   "name" : "_ZN4aidl7android8hardware4gnss24IGnssMeasurementCallback10fromBinderERKN3ndk10SpAIBinderE"
  },
  {
   "name" : "_ZN4aidl7android8hardware4gnss24IGnssMeasurementCallback13writeToParcelEP7AParcelRKNSt3__110shared_ptrIS3_EE"
  },
  {
   "name" : "_ZN4aidl7android8hardware4gnss24IGnssMeasurementCallback14getDefaultImplEv"
  },
  {
   "name" : "_ZN4aidl7android8hardware4gnss24IGnssMeasurementCallback14readFromParcelEPK7AParcelPNSt3__110shared_ptrIS3_EE"
  },
  {
   "name" : "_ZN4aidl7android8hardware4gnss24IGnssMeasurementCallback14setDefaultImplERKNSt3__110shared_ptrIS3_EE"
  },
  {
   "name" : "_ZN4aidl7android8hardware4gnss24IGnssMeasurementCallbackC2Ev"
  },
  {
   "name" : "_ZN4aidl7android8hardware4gnss24IGnssMeasurementCallbackD0Ev"
  },
  {
   "name" : "_ZN4aidl7android8hardware4gnss24IGnssMeasurementCallbackD1Ev"
  },
  {
   "name" : "_ZN4aidl7android8hardware4gnss24IGnssMeasurementCallbackD2Ev"
  },
  {
   "name" : "_ZN4aidl7android8hardware4gnss24IGnssPsdsCallbackDefault16getInterfaceHashEPNSt3__112basic_stringIcNS4_11char_traitsIcEENS4_9allocatorIcEEEE"
  },
  {
   "name" : "_ZN4aidl7android8hardware4gnss24IGnssPsdsCallbackDefault17downloadRequestCbENS2_8PsdsTypeE"
  },
  {
   "name" : "_ZN4aidl7android8hardware4gnss24IGnssPsdsCallbackDefault19getInterfaceVersionEPi"
  },
  {
   "name" : "_ZN4aidl7android8hardware4gnss24IGnssPsdsCallbackDefault8asBinderEv"
  },
  {
   "name" : "_ZN4aidl7android8hardware4gnss24IGnssPsdsCallbackDefault8isRemoteEv"
  },
  {
   "name" : "_ZN4aidl7android8hardware4gnss25BnGnssAntennaInfoCallback12createBinderEv"
  },
  {
   "name" : "_ZN4aidl7android8hardware4gnss25BnGnssAntennaInfoCallback16getInterfaceHashEPNSt3__112basic_stringIcNS4_11char_traitsIcEENS4_9allocatorIcEEEE"
  },
  {
   "name" : "_ZN4aidl7android8hardware4gnss25BnGnssAntennaInfoCallback19getInterfaceVersionEPi"
  },
  {
   "name" : "_ZN4aidl7android8hardware4gnss25BnGnssAntennaInfoCallbackC2Ev"
  },
  {
   "name" : "_ZN4aidl7android8hardware4gnss25BnGnssAntennaInfoCallbackD0Ev"
  },
  {
   "name" : "_ZN4aidl7android8hardware4gnss25BnGnssAntennaInfoCallbackD1Ev"
  },
  {
   "name" : "_ZN4aidl7android8hardware4gnss25BnGnssAntennaInfoCallbackD2Ev"
  },
  {
   "name" : "_ZN4aidl7android8hardware4gnss25BnGnssMeasurementCallback12createBinderEv"
  },
  {
   "name" : "_ZN4aidl7android8hardware4gnss25BnGnssMeasurementCallback16getInterfaceHashEPNSt3__112basic_stringIcNS4_11char_traitsIcEENS4_9allocatorIcEEEE"
  },
  {
   "name" : "_ZN4aidl7android8hardware4gnss25BnGnssMeasurementCallback19getInterfaceVersionEPi"
  },
  {
   "name" : "_ZN4aidl7android8hardware4gnss25BnGnssMeasurementCallbackC2Ev"
  },
  {
   "name" : "_ZN4aidl7android8hardware4gnss25BnGnssMeasurementCallbackD0Ev"
  },
  {
   "name" : "_ZN4aidl7android8hardware4gnss25BnGnssMeasurementCallbackD1Ev"
  },
  {
   "name" : "_ZN4aidl7android8hardware4gnss25BnGnssMeasurementCallbackD2Ev"
  },
  {
   "name" : "_ZN4aidl7android8hardware4gnss25BpGnssAntennaInfoCallback16getInterfaceHashEPNSt3__112basic_stringIcNS4_11char_traitsIcEENS4_9allocatorIcEEEE"
  },
  {
   "name" : "_ZN4aidl7android8hardware4gnss25BpGnssAntennaInfoCallback17gnssAntennaInfoCbERKNSt3__16vectorINS2_24IGnssAntennaInfoCallback15GnssAntennaInfoENS4_9allocatorIS7_EEEE"
  },
  {
   "name" : "_ZN4aidl7android8hardware4gnss25BpGnssAntennaInfoCallback19getInterfaceVersionEPi"
  },
  {
   "name" : "_ZN4aidl7android8hardware4gnss25BpGnssAntennaInfoCallbackC1ERKN3ndk10SpAIBinderE"
  },
  {
   "name" : "_ZN4aidl7android8hardware4gnss25BpGnssAntennaInfoCallbackC2ERKN3ndk10SpAIBinderE"
  },
  {
   "name" : "_ZN4aidl7android8hardware4gnss25BpGnssAntennaInfoCallbackD0Ev"
  },
  {
   "name" : "_ZN4aidl7android8hardware4gnss25BpGnssAntennaInfoCallbackD1Ev"
  },
  {
   "name" : "_ZN4aidl7android8hardware4gnss25BpGnssAntennaInfoCallbackD2Ev"
  },
  {
   "name" : "_ZN4aidl7android8hardware4gnss25BpGnssMeasurementCallback16getInterfaceHashEPNSt3__112basic_stringIcNS4_11char_traitsIcEENS4_9allocatorIcEEEE"
  },
  {
   "name" : "_ZN4aidl7android8hardware4gnss25BpGnssMeasurementCallback17gnssMeasurementCbERKNS2_8GnssDataE"
  },
  {
   "name" : "_ZN4aidl7android8hardware4gnss25BpGnssMeasurementCallback19getInterfaceVersionEPi"
  },
  {
   "name" : "_ZN4aidl7android8hardware4gnss25BpGnssMeasurementCallbackC1ERKN3ndk10SpAIBinderE"
  },
  {
   "name" : "_ZN4aidl7android8hardware4gnss25BpGnssMeasurementCallbackC2ERKN3ndk10SpAIBinderE"
  },
  {
   "name" : "_ZN4aidl7android8hardware4gnss25BpGnssMeasurementCallbackD0Ev"
  },
  {
   "name" : "_ZN4aidl7android8hardware4gnss25BpGnssMeasurementCallbackD1Ev"
  },
  {
   "name" : "_ZN4aidl7android8hardware4gnss25BpGnssMeasurementCallbackD2Ev"
  },
  {
   "name" : "_ZN4aidl7android8hardware4gnss25IGnssConfigurationDefault11setSuplModeEi"
  },
  {
   "name" : "_ZN4aidl7android8hardware4gnss25IGnssConfigurationDefault12setBlocklistERKNSt3__16vectorINS2_17BlocklistedSourceENS4_9allocatorIS6_EEEE"
  },
  {
   "name" : "_ZN4aidl7android8hardware4gnss25IGnssConfigurationDefault13setLppProfileEi"
  },
  {
   "name" : "_ZN4aidl7android8hardware4gnss25IGnssConfigurationDefault14setSuplVersionEi"
  },
  {
   "name" : "_ZN4aidl7android8hardware4gnss25IGnssConfigurationDefault16getInterfaceHashEPNSt3__112basic_stringIcNS4_11char_traitsIcEENS4_9allocatorIcEEEE"
  },
  {
   "name" : "_ZN4aidl7android8hardware4gnss25IGnssConfigurationDefault17setEsExtensionSecEi"
  },
  {
   "name" : "_ZN4aidl7android8hardware4gnss25IGnssConfigurationDefault19getInterfaceVersionEPi"
  },
  {
   "name" : "_ZN4aidl7android8hardware4gnss25IGnssConfigurationDefault19setEmergencySuplPdnEb"
  },
  {
   "name" : "_ZN4aidl7android8hardware4gnss25IGnssConfigurationDefault29setGlonassPositioningProtocolEi"
  },
  {
   "name" : "_ZN4aidl7android8hardware4gnss25IGnssConfigurationDefault8asBinderEv"
  },
  {
   "name" : "_ZN4aidl7android8hardware4gnss25IGnssConfigurationDefault8isRemoteEv"
  },
  {
   "name" : "_ZN4aidl7android8hardware4gnss25IGnssMeasurementInterface10fromBinderERKN3ndk10SpAIBinderE"
  },
  {
   "name" : "_ZN4aidl7android8hardware4gnss25IGnssMeasurementInterface13writeToParcelEP7AParcelRKNSt3__110shared_ptrIS3_EE"
  },
  {
   "name" : "_ZN4aidl7android8hardware4gnss25IGnssMeasurementInterface14getDefaultImplEv"
  },
  {
   "name" : "_ZN4aidl7android8hardware4gnss25IGnssMeasurementInterface14readFromParcelEPK7AParcelPNSt3__110shared_ptrIS3_EE"
  },
  {
   "name" : "_ZN4aidl7android8hardware4gnss25IGnssMeasurementInterface14setDefaultImplERKNSt3__110shared_ptrIS3_EE"
  },
  {
   "name" : "_ZN4aidl7android8hardware4gnss25IGnssMeasurementInterface7Options14readFromParcelEPK7AParcel"
  },
  {
   "name" : "_ZN4aidl7android8hardware4gnss25IGnssMeasurementInterfaceC2Ev"
  },
  {
   "name" : "_ZN4aidl7android8hardware4gnss25IGnssMeasurementInterfaceD0Ev"
  },
  {
   "name" : "_ZN4aidl7android8hardware4gnss25IGnssMeasurementInterfaceD1Ev"
  },
  {
   "name" : "_ZN4aidl7android8hardware4gnss25IGnssMeasurementInterfaceD2Ev"
  },
  {
   "name" : "_ZN4aidl7android8hardware4gnss26BnGnssMeasurementInterface12createBinderEv"
  },
  {
   "name" : "_ZN4aidl7android8hardware4gnss26BnGnssMeasurementInterface16getInterfaceHashEPNSt3__112basic_stringIcNS4_11char_traitsIcEENS4_9allocatorIcEEEE"
  },
  {
   "name" : "_ZN4aidl7android8hardware4gnss26BnGnssMeasurementInterface19getInterfaceVersionEPi"
  },
  {
   "name" : "_ZN4aidl7android8hardware4gnss26BnGnssMeasurementInterfaceC2Ev"
  },
  {
   "name" : "_ZN4aidl7android8hardware4gnss26BnGnssMeasurementInterfaceD0Ev"
  },
  {
   "name" : "_ZN4aidl7android8hardware4gnss26BnGnssMeasurementInterfaceD1Ev"
  },
  {
   "name" : "_ZN4aidl7android8hardware4gnss26BnGnssMeasurementInterfaceD2Ev"
  },
  {
   "name" : "_ZN4aidl7android8hardware4gnss26BpGnssMeasurementInterface11setCallbackERKNSt3__110shared_ptrINS2_24IGnssMeasurementCallbackEEEbb"
  },
  {
   "name" : "_ZN4aidl7android8hardware4gnss26BpGnssMeasurementInterface16getInterfaceHashEPNSt3__112basic_stringIcNS4_11char_traitsIcEENS4_9allocatorIcEEEE"
  },
  {
   "name" : "_ZN4aidl7android8hardware4gnss26BpGnssMeasurementInterface19getInterfaceVersionEPi"
  },
  {
   "name" : "_ZN4aidl7android8hardware4gnss26BpGnssMeasurementInterface22setCallbackWithOptionsERKNSt3__110shared_ptrINS2_24IGnssMeasurementCallbackEEERKNS2_25IGnssMeasurementInterface7OptionsE"
  },
  {
   "name" : "_ZN4aidl7android8hardware4gnss26BpGnssMeasurementInterface5closeEv"
  },
  {
   "name" : "_ZN4aidl7android8hardware4gnss26BpGnssMeasurementInterfaceC1ERKN3ndk10SpAIBinderE"
  },
  {
   "name" : "_ZN4aidl7android8hardware4gnss26BpGnssMeasurementInterfaceC2ERKN3ndk10SpAIBinderE"
  },
  {
   "name" : "_ZN4aidl7android8hardware4gnss26BpGnssMeasurementInterfaceD0Ev"
  },
  {
   "name" : "_ZN4aidl7android8hardware4gnss26BpGnssMeasurementInterfaceD1Ev"
  },
  {
   "name" : "_ZN4aidl7android8hardware4gnss26BpGnssMeasurementInterfaceD2Ev"
  },
  {
   "name" : "_ZN4aidl7android8hardware4gnss27IGnssPowerIndicationDefault11setCallbackERKNSt3__110shared_ptrINS2_28IGnssPowerIndicationCallbackEEE"
  },
  {
   "name" : "_ZN4aidl7android8hardware4gnss27IGnssPowerIndicationDefault16getInterfaceHashEPNSt3__112basic_stringIcNS4_11char_traitsIcEENS4_9allocatorIcEEEE"
  },
  {
   "name" : "_ZN4aidl7android8hardware4gnss27IGnssPowerIndicationDefault19getInterfaceVersionEPi"
  },
  {
   "name" : "_ZN4aidl7android8hardware4gnss27IGnssPowerIndicationDefault21requestGnssPowerStatsEv"
  },
  {
   "name" : "_ZN4aidl7android8hardware4gnss27IGnssPowerIndicationDefault8asBinderEv"
  },
  {
   "name" : "_ZN4aidl7android8hardware4gnss27IGnssPowerIndicationDefault8isRemoteEv"
  },
  {
   "name" : "_ZN4aidl7android8hardware4gnss28IGnssBatchingCallbackDefault16getInterfaceHashEPNSt3__112basic_stringIcNS4_11char_traitsIcEENS4_9allocatorIcEEEE"
  },
  {
   "name" : "_ZN4aidl7android8hardware4gnss28IGnssBatchingCallbackDefault19getInterfaceVersionEPi"
  },
  {
   "name" : "_ZN4aidl7android8hardware4gnss28IGnssBatchingCallbackDefault19gnssLocationBatchCbERKNSt3__16vectorINS2_12GnssLocationENS4_9allocatorIS6_EEEE"
  },
  {
   "name" : "_ZN4aidl7android8hardware4gnss28IGnssBatchingCallbackDefault8asBinderEv"
  },
  {
   "name" : "_ZN4aidl7android8hardware4gnss28IGnssBatchingCallbackDefault8isRemoteEv"
  },
  {
   "name" : "_ZN4aidl7android8hardware4gnss28IGnssGeofenceCallbackDefault16getInterfaceHashEPNSt3__112basic_stringIcNS4_11char_traitsIcEENS4_9allocatorIcEEEE"
  },
  {
   "name" : "_ZN4aidl7android8hardware4gnss28IGnssGeofenceCallbackDefault17gnssGeofenceAddCbEii"
  },
  {
   "name" : "_ZN4aidl7android8hardware4gnss28IGnssGeofenceCallbackDefault19getInterfaceVersionEPi"
  },
  {
   "name" : "_ZN4aidl7android8hardware4gnss28IGnssGeofenceCallbackDefault19gnssGeofencePauseCbEii"
  },
  {
   "name" : "_ZN4aidl7android8hardware4gnss28IGnssGeofenceCallbackDefault20gnssGeofenceRemoveCbEii"
  },
  {
   "name" : "_ZN4aidl7android8hardware4gnss28IGnssGeofenceCallbackDefault20gnssGeofenceResumeCbEii"
  },
  {
   "name" : "_ZN4aidl7android8hardware4gnss28IGnssGeofenceCallbackDefault20gnssGeofenceStatusCbEiRKNS2_12GnssLocationE"
  },
  {
   "name" : "_ZN4aidl7android8hardware4gnss28IGnssGeofenceCallbackDefault24gnssGeofenceTransitionCbEiRKNS2_12GnssLocationEix"
  },
  {
   "name" : "_ZN4aidl7android8hardware4gnss28IGnssGeofenceCallbackDefault8asBinderEv"
  },
  {
   "name" : "_ZN4aidl7android8hardware4gnss28IGnssGeofenceCallbackDefault8isRemoteEv"
  },
  {
   "name" : "_ZN4aidl7android8hardware4gnss28IGnssPowerIndicationCallback10fromBinderERKN3ndk10SpAIBinderE"
  },
  {
   "name" : "_ZN4aidl7android8hardware4gnss28IGnssPowerIndicationCallback13writeToParcelEP7AParcelRKNSt3__110shared_ptrIS3_EE"
  },
  {
   "name" : "_ZN4aidl7android8hardware4gnss28IGnssPowerIndicationCallback14getDefaultImplEv"
  },
  {
   "name" : "_ZN4aidl7android8hardware4gnss28IGnssPowerIndicationCallback14readFromParcelEPK7AParcelPNSt3__110shared_ptrIS3_EE"
  },
  {
   "name" : "_ZN4aidl7android8hardware4gnss28IGnssPowerIndicationCallback14setDefaultImplERKNSt3__110shared_ptrIS3_EE"
  },
  {
   "name" : "_ZN4aidl7android8hardware4gnss28IGnssPowerIndicationCallbackC2Ev"
  },
  {
   "name" : "_ZN4aidl7android8hardware4gnss28IGnssPowerIndicationCallbackD0Ev"
  },
  {
   "name" : "_ZN4aidl7android8hardware4gnss28IGnssPowerIndicationCallbackD1Ev"
  },
  {
   "name" : "_ZN4aidl7android8hardware4gnss28IGnssPowerIndicationCallbackD2Ev"
  },
  {
   "name" : "_ZN4aidl7android8hardware4gnss29BnGnssPowerIndicationCallback12createBinderEv"
  },
  {
   "name" : "_ZN4aidl7android8hardware4gnss29BnGnssPowerIndicationCallback16getInterfaceHashEPNSt3__112basic_stringIcNS4_11char_traitsIcEENS4_9allocatorIcEEEE"
  },
  {
   "name" : "_ZN4aidl7android8hardware4gnss29BnGnssPowerIndicationCallback19getInterfaceVersionEPi"
  },
  {
   "name" : "_ZN4aidl7android8hardware4gnss29BnGnssPowerIndicationCallbackC2Ev"
  },
  {
   "name" : "_ZN4aidl7android8hardware4gnss29BnGnssPowerIndicationCallbackD0Ev"
  },
  {
   "name" : "_ZN4aidl7android8hardware4gnss29BnGnssPowerIndicationCallbackD1Ev"
  },
  {
   "name" : "_ZN4aidl7android8hardware4gnss29BnGnssPowerIndicationCallbackD2Ev"
  },
  {
   "name" : "_ZN4aidl7android8hardware4gnss29BpGnssPowerIndicationCallback16getInterfaceHashEPNSt3__112basic_stringIcNS4_11char_traitsIcEENS4_9allocatorIcEEEE"
  },
  {
   "name" : "_ZN4aidl7android8hardware4gnss29BpGnssPowerIndicationCallback16gnssPowerStatsCbERKNS2_14GnssPowerStatsE"
  },
  {
   "name" : "_ZN4aidl7android8hardware4gnss29BpGnssPowerIndicationCallback17setCapabilitiesCbEi"
  },
  {
   "name" : "_ZN4aidl7android8hardware4gnss29BpGnssPowerIndicationCallback19getInterfaceVersionEPi"
  },
  {
   "name" : "_ZN4aidl7android8hardware4gnss29BpGnssPowerIndicationCallbackC1ERKN3ndk10SpAIBinderE"
  },
  {
   "name" : "_ZN4aidl7android8hardware4gnss29BpGnssPowerIndicationCallbackC2ERKN3ndk10SpAIBinderE"
  },
  {
   "name" : "_ZN4aidl7android8hardware4gnss29BpGnssPowerIndicationCallbackD0Ev"
  },
  {
   "name" : "_ZN4aidl7android8hardware4gnss29BpGnssPowerIndicationCallbackD1Ev"
  },
  {
   "name" : "_ZN4aidl7android8hardware4gnss29BpGnssPowerIndicationCallbackD2Ev"
  },
  {
   "name" : "_ZN4aidl7android8hardware4gnss30IGnssNavigationMessageCallback10fromBinderERKN3ndk10SpAIBinderE"
  },
  {
   "name" : "_ZN4aidl7android8hardware4gnss30IGnssNavigationMessageCallback13writeToParcelEP7AParcelRKNSt3__110shared_ptrIS3_EE"
  },
  {
   "name" : "_ZN4aidl7android8hardware4gnss30IGnssNavigationMessageCallback14getDefaultImplEv"
  },
  {
   "name" : "_ZN4aidl7android8hardware4gnss30IGnssNavigationMessageCallback14readFromParcelEPK7AParcelPNSt3__110shared_ptrIS3_EE"
  },
  {
   "name" : "_ZN4aidl7android8hardware4gnss30IGnssNavigationMessageCallback14setDefaultImplERKNSt3__110shared_ptrIS3_EE"
  },
  {
   "name" : "_ZN4aidl7android8hardware4gnss30IGnssNavigationMessageCallback21GnssNavigationMessage14readFromParcelEPK7AParcel"
  },
  {
   "name" : "_ZN4aidl7android8hardware4gnss30IGnssNavigationMessageCallbackC2Ev"
  },
  {
   "name" : "_ZN4aidl7android8hardware4gnss30IGnssNavigationMessageCallbackD0Ev"
  },
  {
   "name" : "_ZN4aidl7android8hardware4gnss30IGnssNavigationMessageCallbackD1Ev"
  },
  {
   "name" : "_ZN4aidl7android8hardware4gnss30IGnssNavigationMessageCallbackD2Ev"
  },
  {
   "name" : "_ZN4aidl7android8hardware4gnss31BnGnssNavigationMessageCallback12createBinderEv"
  },
  {
   "name" : "_ZN4aidl7android8hardware4gnss31BnGnssNavigationMessageCallback16getInterfaceHashEPNSt3__112basic_stringIcNS4_11char_traitsIcEENS4_9allocatorIcEEEE"
  },
  {
   "name" : "_ZN4aidl7android8hardware4gnss31BnGnssNavigationMessageCallback19getInterfaceVersionEPi"
  },
  {
   "name" : "_ZN4aidl7android8hardware4gnss31BnGnssNavigationMessageCallbackC2Ev"
  },
  {
   "name" : "_ZN4aidl7android8hardware4gnss31BnGnssNavigationMessageCallbackD0Ev"
  },
  {
   "name" : "_ZN4aidl7android8hardware4gnss31BnGnssNavigationMessageCallbackD1Ev"
  },
  {
   "name" : "_ZN4aidl7android8hardware4gnss31BnGnssNavigationMessageCallbackD2Ev"
  },
  {
   "name" : "_ZN4aidl7android8hardware4gnss31BpGnssNavigationMessageCallback16getInterfaceHashEPNSt3__112basic_stringIcNS4_11char_traitsIcEENS4_9allocatorIcEEEE"
  },
  {
   "name" : "_ZN4aidl7android8hardware4gnss31BpGnssNavigationMessageCallback19getInterfaceVersionEPi"
  },
  {
   "name" : "_ZN4aidl7android8hardware4gnss31BpGnssNavigationMessageCallback23gnssNavigationMessageCbERKNS2_30IGnssNavigationMessageCallback21GnssNavigationMessageE"
  },
  {
   "name" : "_ZN4aidl7android8hardware4gnss31BpGnssNavigationMessageCallbackC1ERKN3ndk10SpAIBinderE"
  },
  {
   "name" : "_ZN4aidl7android8hardware4gnss31BpGnssNavigationMessageCallbackC2ERKN3ndk10SpAIBinderE"
  },
  {
   "name" : "_ZN4aidl7android8hardware4gnss31BpGnssNavigationMessageCallbackD0Ev"
  },
  {
   "name" : "_ZN4aidl7android8hardware4gnss31BpGnssNavigationMessageCallbackD1Ev"
  },
  {
   "name" : "_ZN4aidl7android8hardware4gnss31BpGnssNavigationMessageCallbackD2Ev"
  },
  {
   "name" : "_ZN4aidl7android8hardware4gnss31IGnssAntennaInfoCallbackDefault16getInterfaceHashEPNSt3__112basic_stringIcNS4_11char_traitsIcEENS4_9allocatorIcEEEE"
  },
  {
   "name" : "_ZN4aidl7android8hardware4gnss31IGnssAntennaInfoCallbackDefault17gnssAntennaInfoCbERKNSt3__16vectorINS2_24IGnssAntennaInfoCallback15GnssAntennaInfoENS4_9allocatorIS7_EEEE"
  },
  {
   "name" : "_ZN4aidl7android8hardware4gnss31IGnssAntennaInfoCallbackDefault19getInterfaceVersionEPi"
  },
  {
   "name" : "_ZN4aidl7android8hardware4gnss31IGnssAntennaInfoCallbackDefault8asBinderEv"
  },
  {
   "name" : "_ZN4aidl7android8hardware4gnss31IGnssAntennaInfoCallbackDefault8isRemoteEv"
  },
  {
   "name" : "_ZN4aidl7android8hardware4gnss31IGnssMeasurementCallbackDefault16getInterfaceHashEPNSt3__112basic_stringIcNS4_11char_traitsIcEENS4_9allocatorIcEEEE"
  },
  {
   "name" : "_ZN4aidl7android8hardware4gnss31IGnssMeasurementCallbackDefault17gnssMeasurementCbERKNS2_8GnssDataE"
  },
  {
   "name" : "_ZN4aidl7android8hardware4gnss31IGnssMeasurementCallbackDefault19getInterfaceVersionEPi"
  },
  {
   "name" : "_ZN4aidl7android8hardware4gnss31IGnssMeasurementCallbackDefault8asBinderEv"
  },
  {
   "name" : "_ZN4aidl7android8hardware4gnss31IGnssMeasurementCallbackDefault8isRemoteEv"
  },
  {
   "name" : "_ZN4aidl7android8hardware4gnss31IGnssNavigationMessageInterface10fromBinderERKN3ndk10SpAIBinderE"
  },
  {
   "name" : "_ZN4aidl7android8hardware4gnss31IGnssNavigationMessageInterface13writeToParcelEP7AParcelRKNSt3__110shared_ptrIS3_EE"
  },
  {
   "name" : "_ZN4aidl7android8hardware4gnss31IGnssNavigationMessageInterface14getDefaultImplEv"
  },
  {
   "name" : "_ZN4aidl7android8hardware4gnss31IGnssNavigationMessageInterface14readFromParcelEPK7AParcelPNSt3__110shared_ptrIS3_EE"
  },
  {
   "name" : "_ZN4aidl7android8hardware4gnss31IGnssNavigationMessageInterface14setDefaultImplERKNSt3__110shared_ptrIS3_EE"
  },
  {
   "name" : "_ZN4aidl7android8hardware4gnss31IGnssNavigationMessageInterfaceC2Ev"
  },
  {
   "name" : "_ZN4aidl7android8hardware4gnss31IGnssNavigationMessageInterfaceD0Ev"
  },
  {
   "name" : "_ZN4aidl7android8hardware4gnss31IGnssNavigationMessageInterfaceD1Ev"
  },
  {
   "name" : "_ZN4aidl7android8hardware4gnss31IGnssNavigationMessageInterfaceD2Ev"
  },
  {
   "name" : "_ZN4aidl7android8hardware4gnss32BnGnssNavigationMessageInterface12createBinderEv"
  },
  {
   "name" : "_ZN4aidl7android8hardware4gnss32BnGnssNavigationMessageInterface16getInterfaceHashEPNSt3__112basic_stringIcNS4_11char_traitsIcEENS4_9allocatorIcEEEE"
  },
  {
   "name" : "_ZN4aidl7android8hardware4gnss32BnGnssNavigationMessageInterface19getInterfaceVersionEPi"
  },
  {
   "name" : "_ZN4aidl7android8hardware4gnss32BnGnssNavigationMessageInterfaceC2Ev"
  },
  {
   "name" : "_ZN4aidl7android8hardware4gnss32BnGnssNavigationMessageInterfaceD0Ev"
  },
  {
   "name" : "_ZN4aidl7android8hardware4gnss32BnGnssNavigationMessageInterfaceD1Ev"
  },
  {
   "name" : "_ZN4aidl7android8hardware4gnss32BnGnssNavigationMessageInterfaceD2Ev"
  },
  {
   "name" : "_ZN4aidl7android8hardware4gnss32BpGnssNavigationMessageInterface11setCallbackERKNSt3__110shared_ptrINS2_30IGnssNavigationMessageCallbackEEE"
  },
  {
   "name" : "_ZN4aidl7android8hardware4gnss32BpGnssNavigationMessageInterface16getInterfaceHashEPNSt3__112basic_stringIcNS4_11char_traitsIcEENS4_9allocatorIcEEEE"
  },
  {
   "name" : "_ZN4aidl7android8hardware4gnss32BpGnssNavigationMessageInterface19getInterfaceVersionEPi"
  },
  {
   "name" : "_ZN4aidl7android8hardware4gnss32BpGnssNavigationMessageInterface5closeEv"
  },
  {
   "name" : "_ZN4aidl7android8hardware4gnss32BpGnssNavigationMessageInterfaceC1ERKN3ndk10SpAIBinderE"
  },
  {
   "name" : "_ZN4aidl7android8hardware4gnss32BpGnssNavigationMessageInterfaceC2ERKN3ndk10SpAIBinderE"
  },
  {
   "name" : "_ZN4aidl7android8hardware4gnss32BpGnssNavigationMessageInterfaceD0Ev"
  },
  {
   "name" : "_ZN4aidl7android8hardware4gnss32BpGnssNavigationMessageInterfaceD1Ev"
  },
  {
   "name" : "_ZN4aidl7android8hardware4gnss32BpGnssNavigationMessageInterfaceD2Ev"
  },
  {
   "name" : "_ZN4aidl7android8hardware4gnss32IGnssMeasurementInterfaceDefault11setCallbackERKNSt3__110shared_ptrINS2_24IGnssMeasurementCallbackEEEbb"
  },
  {
   "name" : "_ZN4aidl7android8hardware4gnss32IGnssMeasurementInterfaceDefault16getInterfaceHashEPNSt3__112basic_stringIcNS4_11char_traitsIcEENS4_9allocatorIcEEEE"
  },
  {
   "name" : "_ZN4aidl7android8hardware4gnss32IGnssMeasurementInterfaceDefault19getInterfaceVersionEPi"
  },
  {
   "name" : "_ZN4aidl7android8hardware4gnss32IGnssMeasurementInterfaceDefault22setCallbackWithOptionsERKNSt3__110shared_ptrINS2_24IGnssMeasurementCallbackEEERKNS2_25IGnssMeasurementInterface7OptionsE"
  },
  {
   "name" : "_ZN4aidl7android8hardware4gnss32IGnssMeasurementInterfaceDefault5closeEv"
  },
  {
   "name" : "_ZN4aidl7android8hardware4gnss32IGnssMeasurementInterfaceDefault8asBinderEv"
  },
  {
   "name" : "_ZN4aidl7android8hardware4gnss32IGnssMeasurementInterfaceDefault8isRemoteEv"
  },
  {
   "name" : "_ZN4aidl7android8hardware4gnss35IGnssPowerIndicationCallbackDefault16getInterfaceHashEPNSt3__112basic_stringIcNS4_11char_traitsIcEENS4_9allocatorIcEEEE"
  },
  {
   "name" : "_ZN4aidl7android8hardware4gnss35IGnssPowerIndicationCallbackDefault16gnssPowerStatsCbERKNS2_14GnssPowerStatsE"
  },
  {
   "name" : "_ZN4aidl7android8hardware4gnss35IGnssPowerIndicationCallbackDefault17setCapabilitiesCbEi"
  },
  {
   "name" : "_ZN4aidl7android8hardware4gnss35IGnssPowerIndicationCallbackDefault19getInterfaceVersionEPi"
  },
  {
   "name" : "_ZN4aidl7android8hardware4gnss35IGnssPowerIndicationCallbackDefault8asBinderEv"
  },
  {
   "name" : "_ZN4aidl7android8hardware4gnss35IGnssPowerIndicationCallbackDefault8isRemoteEv"
  },
  {
   "name" : "_ZN4aidl7android8hardware4gnss37IGnssNavigationMessageCallbackDefault16getInterfaceHashEPNSt3__112basic_stringIcNS4_11char_traitsIcEENS4_9allocatorIcEEEE"
  },
  {
   "name" : "_ZN4aidl7android8hardware4gnss37IGnssNavigationMessageCallbackDefault19getInterfaceVersionEPi"
  },
  {
   "name" : "_ZN4aidl7android8hardware4gnss37IGnssNavigationMessageCallbackDefault23gnssNavigationMessageCbERKNS2_30IGnssNavigationMessageCallback21GnssNavigationMessageE"
  },
  {
   "name" : "_ZN4aidl7android8hardware4gnss37IGnssNavigationMessageCallbackDefault8asBinderEv"
  },
  {
   "name" : "_ZN4aidl7android8hardware4gnss37IGnssNavigationMessageCallbackDefault8isRemoteEv"
  },
  {
   "name" : "_ZN4aidl7android8hardware4gnss38IGnssNavigationMessageInterfaceDefault11setCallbackERKNSt3__110shared_ptrINS2_30IGnssNavigationMessageCallbackEEE"
  },
  {
   "name" : "_ZN4aidl7android8hardware4gnss38IGnssNavigationMessageInterfaceDefault16getInterfaceHashEPNSt3__112basic_stringIcNS4_11char_traitsIcEENS4_9allocatorIcEEEE"
  },
  {
   "name" : "_ZN4aidl7android8hardware4gnss38IGnssNavigationMessageInterfaceDefault19getInterfaceVersionEPi"
  },
  {
   "name" : "_ZN4aidl7android8hardware4gnss38IGnssNavigationMessageInterfaceDefault5closeEv"
  },
  {
   "name" : "_ZN4aidl7android8hardware4gnss38IGnssNavigationMessageInterfaceDefault8asBinderEv"
  },
  {
   "name" : "_ZN4aidl7android8hardware4gnss38IGnssNavigationMessageInterfaceDefault8isRemoteEv"
  },
  {
   "name" : "_ZN4aidl7android8hardware4gnss5IGnss10fromBinderERKN3ndk10SpAIBinderE"
  },
  {
   "name" : "_ZN4aidl7android8hardware4gnss5IGnss13writeToParcelEP7AParcelRKNSt3__110shared_ptrIS3_EE"
  },
  {
   "name" : "_ZN4aidl7android8hardware4gnss5IGnss14getDefaultImplEv"
  },
  {
   "name" : "_ZN4aidl7android8hardware4gnss5IGnss14readFromParcelEPK7AParcelPNSt3__110shared_ptrIS3_EE"
  },
  {
   "name" : "_ZN4aidl7android8hardware4gnss5IGnss14setDefaultImplERKNSt3__110shared_ptrIS3_EE"
  },
  {
   "name" : "_ZN4aidl7android8hardware4gnss5IGnss19PositionModeOptions14readFromParcelEPK7AParcel"
  },
  {
   "name" : "_ZN4aidl7android8hardware4gnss5IGnssC2Ev"
  },
  {
   "name" : "_ZN4aidl7android8hardware4gnss5IGnssD0Ev"
  },
  {
   "name" : "_ZN4aidl7android8hardware4gnss5IGnssD1Ev"
  },
  {
   "name" : "_ZN4aidl7android8hardware4gnss5IGnssD2Ev"
  },
  {
   "name" : "_ZN4aidl7android8hardware4gnss6BnGnss12createBinderEv"
  },
  {
   "name" : "_ZN4aidl7android8hardware4gnss6BnGnss16getInterfaceHashEPNSt3__112basic_stringIcNS4_11char_traitsIcEENS4_9allocatorIcEEEE"
  },
  {
   "name" : "_ZN4aidl7android8hardware4gnss6BnGnss19getInterfaceVersionEPi"
  },
  {
   "name" : "_ZN4aidl7android8hardware4gnss6BnGnssC2Ev"
  },
  {
   "name" : "_ZN4aidl7android8hardware4gnss6BnGnssD0Ev"
  },
  {
   "name" : "_ZN4aidl7android8hardware4gnss6BnGnssD1Ev"
  },
  {
   "name" : "_ZN4aidl7android8hardware4gnss6BnGnssD2Ev"
  },
  {
   "name" : "_ZN4aidl7android8hardware4gnss6BpGnss10injectTimeExxi"
  },
  {
   "name" : "_ZN4aidl7android8hardware4gnss6BpGnss11setCallbackERKNSt3__110shared_ptrINS2_13IGnssCallbackEEE"
  },
  {
   "name" : "_ZN4aidl7android8hardware4gnss6BpGnss12stopSvStatusEv"
  },
  {
   "name" : "_ZN4aidl7android8hardware4gnss6BpGnss13startSvStatusEv"
  },
  {
   "name" : "_ZN4aidl7android8hardware4gnss6BpGnss14injectLocationERKNS2_12GnssLocationE"
  },
  {
   "name" : "_ZN4aidl7android8hardware4gnss6BpGnss15setPositionModeERKNS2_5IGnss19PositionModeOptionsE"
  },
  {
   "name" : "_ZN4aidl7android8hardware4gnss6BpGnss16deleteAidingDataENS2_5IGnss14GnssAidingDataE"
  },
  {
   "name" : "_ZN4aidl7android8hardware4gnss6BpGnss16getExtensionPsdsEPNSt3__110shared_ptrINS2_9IGnssPsdsEEE"
  },
  {
   "name" : "_ZN4aidl7android8hardware4gnss6BpGnss16getInterfaceHashEPNSt3__112basic_stringIcNS4_11char_traitsIcEENS4_9allocatorIcEEEE"
  },
  {
   "name" : "_ZN4aidl7android8hardware4gnss6BpGnss17getExtensionAGnssEPNSt3__110shared_ptrINS2_6IAGnssEEE"
  },
  {
   "name" : "_ZN4aidl7android8hardware4gnss6BpGnss18injectBestLocationERKNS2_12GnssLocationE"
  },
  {
   "name" : "_ZN4aidl7android8hardware4gnss6BpGnss19getInterfaceVersionEPi"
  },
  {
   "name" : "_ZN4aidl7android8hardware4gnss6BpGnss20getExtensionAGnssRilEPNSt3__110shared_ptrINS2_9IAGnssRilEEE"
  },
  {
   "name" : "_ZN4aidl7android8hardware4gnss6BpGnss21getExtensionGnssDebugEPNSt3__110shared_ptrINS2_10IGnssDebugEEE"
  },
  {
   "name" : "_ZN4aidl7android8hardware4gnss6BpGnss24getExtensionGnssBatchingEPNSt3__110shared_ptrINS2_13IGnssBatchingEEE"
  },
  {
   "name" : "_ZN4aidl7android8hardware4gnss6BpGnss24getExtensionGnssGeofenceEPNSt3__110shared_ptrINS2_13IGnssGeofenceEEE"
  },
  {
   "name" : "_ZN4aidl7android8hardware4gnss6BpGnss27getExtensionGnssAntennaInfoEPNSt3__110shared_ptrINS2_16IGnssAntennaInfoEEE"
  },
  {
   "name" : "_ZN4aidl7android8hardware4gnss6BpGnss27getExtensionGnssMeasurementEPNSt3__110shared_ptrINS2_25IGnssMeasurementInterfaceEEE"
  },
  {
   "name" : "_ZN4aidl7android8hardware4gnss6BpGnss29getExtensionGnssConfigurationEPNSt3__110shared_ptrINS2_18IGnssConfigurationEEE"
  },
  {
   "name" : "_ZN4aidl7android8hardware4gnss6BpGnss31getExtensionGnssPowerIndicationEPNSt3__110shared_ptrINS2_20IGnssPowerIndicationEEE"
  },
  {
   "name" : "_ZN4aidl7android8hardware4gnss6BpGnss33getExtensionGnssNavigationMessageEPNSt3__110shared_ptrINS2_31IGnssNavigationMessageInterfaceEEE"
  },
  {
   "name" : "_ZN4aidl7android8hardware4gnss6BpGnss33getExtensionGnssVisibilityControlEPNSt3__110shared_ptrINS2_18visibility_control22IGnssVisibilityControlEEE"
  },
  {
   "name" : "_ZN4aidl7android8hardware4gnss6BpGnss34getExtensionMeasurementCorrectionsEPNSt3__110shared_ptrINS2_23measurement_corrections32IMeasurementCorrectionsInterfaceEEE"
  },
  {
   "name" : "_ZN4aidl7android8hardware4gnss6BpGnss4stopEv"
  },
  {
   "name" : "_ZN4aidl7android8hardware4gnss6BpGnss5closeEv"
  },
  {
   "name" : "_ZN4aidl7android8hardware4gnss6BpGnss5startEv"
  },
  {
   "name" : "_ZN4aidl7android8hardware4gnss6BpGnss8stopNmeaEv"
  },
  {
   "name" : "_ZN4aidl7android8hardware4gnss6BpGnss9startNmeaEv"
  },
  {
   "name" : "_ZN4aidl7android8hardware4gnss6BpGnssC1ERKN3ndk10SpAIBinderE"
  },
  {
   "name" : "_ZN4aidl7android8hardware4gnss6BpGnssC2ERKN3ndk10SpAIBinderE"
  },
  {
   "name" : "_ZN4aidl7android8hardware4gnss6BpGnssD0Ev"
  },
  {
   "name" : "_ZN4aidl7android8hardware4gnss6BpGnssD1Ev"
  },
  {
   "name" : "_ZN4aidl7android8hardware4gnss6BpGnssD2Ev"
  },
  {
   "name" : "_ZN4aidl7android8hardware4gnss6IAGnss10fromBinderERKN3ndk10SpAIBinderE"
  },
  {
   "name" : "_ZN4aidl7android8hardware4gnss6IAGnss13writeToParcelEP7AParcelRKNSt3__110shared_ptrIS3_EE"
  },
  {
   "name" : "_ZN4aidl7android8hardware4gnss6IAGnss14getDefaultImplEv"
  },
  {
   "name" : "_ZN4aidl7android8hardware4gnss6IAGnss14readFromParcelEPK7AParcelPNSt3__110shared_ptrIS3_EE"
  },
  {
   "name" : "_ZN4aidl7android8hardware4gnss6IAGnss14setDefaultImplERKNSt3__110shared_ptrIS3_EE"
  },
  {
   "name" : "_ZN4aidl7android8hardware4gnss6IAGnssC2Ev"
  },
  {
   "name" : "_ZN4aidl7android8hardware4gnss6IAGnssD0Ev"
  },
  {
   "name" : "_ZN4aidl7android8hardware4gnss6IAGnssD1Ev"
  },
  {
   "name" : "_ZN4aidl7android8hardware4gnss6IAGnssD2Ev"
  },
  {
   "name" : "_ZN4aidl7android8hardware4gnss7BnAGnss12createBinderEv"
  },
  {
   "name" : "_ZN4aidl7android8hardware4gnss7BnAGnss16getInterfaceHashEPNSt3__112basic_stringIcNS4_11char_traitsIcEENS4_9allocatorIcEEEE"
  },
  {
   "name" : "_ZN4aidl7android8hardware4gnss7BnAGnss19getInterfaceVersionEPi"
  },
  {
   "name" : "_ZN4aidl7android8hardware4gnss7BnAGnssC2Ev"
  },
  {
   "name" : "_ZN4aidl7android8hardware4gnss7BnAGnssD0Ev"
  },
  {
   "name" : "_ZN4aidl7android8hardware4gnss7BnAGnssD1Ev"
  },
  {
   "name" : "_ZN4aidl7android8hardware4gnss7BnAGnssD2Ev"
  },
  {
   "name" : "_ZN4aidl7android8hardware4gnss7BpAGnss11setCallbackERKNSt3__110shared_ptrINS2_14IAGnssCallbackEEE"
  },
  {
   "name" : "_ZN4aidl7android8hardware4gnss7BpAGnss12dataConnOpenExRKNSt3__112basic_stringIcNS4_11char_traitsIcEENS4_9allocatorIcEEEENS2_6IAGnss9ApnIpTypeE"
  },
  {
   "name" : "_ZN4aidl7android8hardware4gnss7BpAGnss14dataConnClosedEv"
  },
  {
   "name" : "_ZN4aidl7android8hardware4gnss7BpAGnss14dataConnFailedEv"
  },
  {
   "name" : "_ZN4aidl7android8hardware4gnss7BpAGnss16getInterfaceHashEPNSt3__112basic_stringIcNS4_11char_traitsIcEENS4_9allocatorIcEEEE"
  },
  {
   "name" : "_ZN4aidl7android8hardware4gnss7BpAGnss19getInterfaceVersionEPi"
  },
  {
   "name" : "_ZN4aidl7android8hardware4gnss7BpAGnss9setServerENS2_14IAGnssCallback9AGnssTypeERKNSt3__112basic_stringIcNS6_11char_traitsIcEENS6_9allocatorIcEEEEi"
  },
  {
   "name" : "_ZN4aidl7android8hardware4gnss7BpAGnssC1ERKN3ndk10SpAIBinderE"
  },
  {
   "name" : "_ZN4aidl7android8hardware4gnss7BpAGnssC2ERKN3ndk10SpAIBinderE"
  },
  {
   "name" : "_ZN4aidl7android8hardware4gnss7BpAGnssD0Ev"
  },
  {
   "name" : "_ZN4aidl7android8hardware4gnss7BpAGnssD1Ev"
  },
  {
   "name" : "_ZN4aidl7android8hardware4gnss7BpAGnssD2Ev"
  },
  {
   "name" : "_ZN4aidl7android8hardware4gnss8GnssData14readFromParcelEPK7AParcel"
  },
  {
   "name" : "_ZN4aidl7android8hardware4gnss8GnssData7GnssAgc14readFromParcelEPK7AParcel"
  },
  {
   "name" : "_ZN4aidl7android8hardware4gnss9GnssClock14readFromParcelEPK7AParcel"
  },
  {
   "name" : "_ZN4aidl7android8hardware4gnss9IAGnssRil10fromBinderERKN3ndk10SpAIBinderE"
  },
  {
   "name" : "_ZN4aidl7android8hardware4gnss9IAGnssRil13writeToParcelEP7AParcelRKNSt3__110shared_ptrIS3_EE"
  },
  {
   "name" : "_ZN4aidl7android8hardware4gnss9IAGnssRil14getDefaultImplEv"
  },
  {
   "name" : "_ZN4aidl7android8hardware4gnss9IAGnssRil14readFromParcelEPK7AParcelPNSt3__110shared_ptrIS3_EE"
  },
  {
   "name" : "_ZN4aidl7android8hardware4gnss9IAGnssRil14setDefaultImplERKNSt3__110shared_ptrIS3_EE"
  },
  {
   "name" : "_ZN4aidl7android8hardware4gnss9IAGnssRil16AGnssRefLocation14readFromParcelEPK7AParcel"
  },
  {
   "name" : "_ZN4aidl7android8hardware4gnss9IAGnssRil17NetworkAttributes14readFromParcelEPK7AParcel"
  },
  {
   "name" : "_ZN4aidl7android8hardware4gnss9IAGnssRil22AGnssRefLocationCellID14readFromParcelEPK7AParcel"
  },
  {
   "name" : "_ZN4aidl7android8hardware4gnss9IAGnssRilC2Ev"
  },
  {
   "name" : "_ZN4aidl7android8hardware4gnss9IAGnssRilD0Ev"
  },
  {
   "name" : "_ZN4aidl7android8hardware4gnss9IAGnssRilD1Ev"
  },
  {
   "name" : "_ZN4aidl7android8hardware4gnss9IAGnssRilD2Ev"
  },
  {
   "name" : "_ZN4aidl7android8hardware4gnss9IGnssPsds10fromBinderERKN3ndk10SpAIBinderE"
  },
  {
   "name" : "_ZN4aidl7android8hardware4gnss9IGnssPsds13writeToParcelEP7AParcelRKNSt3__110shared_ptrIS3_EE"
  },
  {
   "name" : "_ZN4aidl7android8hardware4gnss9IGnssPsds14getDefaultImplEv"
  },
  {
   "name" : "_ZN4aidl7android8hardware4gnss9IGnssPsds14readFromParcelEPK7AParcelPNSt3__110shared_ptrIS3_EE"
  },
  {
   "name" : "_ZN4aidl7android8hardware4gnss9IGnssPsds14setDefaultImplERKNSt3__110shared_ptrIS3_EE"
  },
  {
   "name" : "_ZN4aidl7android8hardware4gnss9IGnssPsdsC2Ev"
  },
  {
   "name" : "_ZN4aidl7android8hardware4gnss9IGnssPsdsD0Ev"
  },
  {
   "name" : "_ZN4aidl7android8hardware4gnss9IGnssPsdsD1Ev"
  },
  {
   "name" : "_ZN4aidl7android8hardware4gnss9IGnssPsdsD2Ev"
  },
  {
   "name" : "_ZNK4aidl7android8hardware4gnss10IGnssDebug13PositionDebug13writeToParcelEP7AParcel"
  },
  {
   "name" : "_ZNK4aidl7android8hardware4gnss10IGnssDebug13SatelliteData13writeToParcelEP7AParcel"
  },
  {
   "name" : "_ZNK4aidl7android8hardware4gnss10IGnssDebug9DebugData13writeToParcelEP7AParcel"
  },
  {
   "name" : "_ZNK4aidl7android8hardware4gnss10IGnssDebug9TimeDebug13writeToParcelEP7AParcel"
  },
  {
   "name" : "_ZNK4aidl7android8hardware4gnss12GnssLocation13writeToParcelEP7AParcel"
  },
  {
   "name" : "_ZNK4aidl7android8hardware4gnss12SatellitePvt13writeToParcelEP7AParcel"
  },
  {
   "name" : "_ZNK4aidl7android8hardware4gnss13IGnssBatching7Options13writeToParcelEP7AParcel"
  },
  {
   "name" : "_ZNK4aidl7android8hardware4gnss13IGnssCallback10GnssSvInfo13writeToParcelEP7AParcel"
  },
  {
   "name" : "_ZNK4aidl7android8hardware4gnss13IGnssCallback14GnssSystemInfo13writeToParcelEP7AParcel"
  },
  {
   "name" : "_ZNK4aidl7android8hardware4gnss14GnssPowerStats13writeToParcelEP7AParcel"
  },
  {
   "name" : "_ZNK4aidl7android8hardware4gnss14GnssSignalType13writeToParcelEP7AParcel"
  },
  {
   "name" : "_ZNK4aidl7android8hardware4gnss15ElapsedRealtime13writeToParcelEP7AParcel"
  },
  {
   "name" : "_ZNK4aidl7android8hardware4gnss15GnssMeasurement13writeToParcelEP7AParcel"
  },
  {
   "name" : "_ZNK4aidl7android8hardware4gnss17BlocklistedSource13writeToParcelEP7AParcel"
  },
  {
   "name" : "_ZNK4aidl7android8hardware4gnss17CorrelationVector13writeToParcelEP7AParcel"
  },
  {
   "name" : "_ZNK4aidl7android8hardware4gnss18SatelliteClockInfo13writeToParcelEP7AParcel"
  },
  {
   "name" : "_ZNK4aidl7android8hardware4gnss18visibility_control30IGnssVisibilityControlCallback15NfwNotification13writeToParcelEP7AParcel"
  },
  {
   "name" : "_ZNK4aidl7android8hardware4gnss21SatellitePositionEcef13writeToParcelEP7AParcel"
  },
  {
   "name" : "_ZNK4aidl7android8hardware4gnss21SatelliteVelocityEcef13writeToParcelEP7AParcel"
  },
  {
   "name" : "_ZNK4aidl7android8hardware4gnss23measurement_corrections15ReflectingPlane13writeToParcelEP7AParcel"
  },
  {
   "name" : "_ZNK4aidl7android8hardware4gnss23measurement_corrections19SingleSatCorrection13writeToParcelEP7AParcel"
  },
  {
   "name" : "_ZNK4aidl7android8hardware4gnss23measurement_corrections19SingleSatCorrection14ExcessPathInfo13writeToParcelEP7AParcel"
  },
  {
   "name" : "_ZNK4aidl7android8hardware4gnss23measurement_corrections22MeasurementCorrections13writeToParcelEP7AParcel"
  },
  {
   "name" : "_ZNK4aidl7android8hardware4gnss24IGnssAntennaInfoCallback15GnssAntennaInfo13writeToParcelEP7AParcel"
  },
  {
   "name" : "_ZNK4aidl7android8hardware4gnss24IGnssAntennaInfoCallback3Row13writeToParcelEP7AParcel"
  },
  {
   "name" : "_ZNK4aidl7android8hardware4gnss24IGnssAntennaInfoCallback5Coord13writeToParcelEP7AParcel"
  },
  {
   "name" : "_ZNK4aidl7android8hardware4gnss25IGnssMeasurementInterface7Options13writeToParcelEP7AParcel"
  },
  {
   "name" : "_ZNK4aidl7android8hardware4gnss30IGnssNavigationMessageCallback21GnssNavigationMessage13writeToParcelEP7AParcel"
  },
  {
   "name" : "_ZNK4aidl7android8hardware4gnss5IGnss19PositionModeOptions13writeToParcelEP7AParcel"
  },
  {
   "name" : "_ZNK4aidl7android8hardware4gnss8GnssData13writeToParcelEP7AParcel"
  },
  {
   "name" : "_ZNK4aidl7android8hardware4gnss8GnssData7GnssAgc13writeToParcelEP7AParcel"
  },
  {
   "name" : "_ZNK4aidl7android8hardware4gnss9GnssClock13writeToParcelEP7AParcel"
  },
  {
   "name" : "_ZNK4aidl7android8hardware4gnss9IAGnssRil16AGnssRefLocation13writeToParcelEP7AParcel"
  },
  {
   "name" : "_ZNK4aidl7android8hardware4gnss9IAGnssRil17NetworkAttributes13writeToParcelEP7AParcel"
  },
  {
   "name" : "_ZNK4aidl7android8hardware4gnss9IAGnssRil22AGnssRefLocationCellID13writeToParcelEP7AParcel"
  },
  {
   "binding" : "weak",
   "name" : "_ZNSt3__110shared_ptrIN4aidl7android8hardware4gnss10IGnssDebugEED2Ev"
  },
  {
   "binding" : "weak",
   "name" : "_ZNSt3__110shared_ptrIN4aidl7android8hardware4gnss13IGnssBatchingEED2Ev"
  },
  {
   "binding" : "weak",
   "name" : "_ZNSt3__110shared_ptrIN4aidl7android8hardware4gnss13IGnssCallbackEED2Ev"
  },
  {
   "binding" : "weak",
   "name" : "_ZNSt3__110shared_ptrIN4aidl7android8hardware4gnss13IGnssGeofenceEED2Ev"
  },
  {
   "binding" : "weak",
   "name" : "_ZNSt3__110shared_ptrIN4aidl7android8hardware4gnss14IAGnssCallbackEED2Ev"
  },
  {
   "binding" : "weak",
   "name" : "_ZNSt3__110shared_ptrIN4aidl7android8hardware4gnss16IGnssAntennaInfoEED2Ev"
  },
  {
   "binding" : "weak",
   "name" : "_ZNSt3__110shared_ptrIN4aidl7android8hardware4gnss17IAGnssRilCallbackEED2Ev"
  },
  {
   "binding" : "weak",
   "name" : "_ZNSt3__110shared_ptrIN4aidl7android8hardware4gnss17IGnssPsdsCallbackEED2Ev"
  },
  {
   "binding" : "weak",
   "name" : "_ZNSt3__110shared_ptrIN4aidl7android8hardware4gnss18IGnssConfigurationEED2Ev"
  },
  {
   "binding" : "weak",
   "name" : "_ZNSt3__110shared_ptrIN4aidl7android8hardware4gnss18visibility_control22IGnssVisibilityControlEED2Ev"
  },
  {
   "binding" : "weak",
   "name" : "_ZNSt3__110shared_ptrIN4aidl7android8hardware4gnss18visibility_control30IGnssVisibilityControlCallbackEED2Ev"
  },
  {
   "binding" : "weak",
   "name" : "_ZNSt3__110shared_ptrIN4aidl7android8hardware4gnss20IGnssPowerIndicationEED2Ev"
  },
  {
   "binding" : "weak",
   "name" : "_ZNSt3__110shared_ptrIN4aidl7android8hardware4gnss21IGnssBatchingCallbackEED2Ev"
  },
  {
   "binding" : "weak",
   "name" : "_ZNSt3__110shared_ptrIN4aidl7android8hardware4gnss21IGnssGeofenceCallbackEED2Ev"
  },
  {
   "binding" : "weak",
   "name" : "_ZNSt3__110shared_ptrIN4aidl7android8hardware4gnss23measurement_corrections31IMeasurementCorrectionsCallbackEED2Ev"
  },
  {
   "binding" : "weak",
   "name" : "_ZNSt3__110shared_ptrIN4aidl7android8hardware4gnss23measurement_corrections32IMeasurementCorrectionsInterfaceEED2Ev"
  },
  {
   "binding" : "weak",
   "name" : "_ZNSt3__110shared_ptrIN4aidl7android8hardware4gnss24IGnssAntennaInfoCallbackEED2Ev"
  },
  {
   "binding" : "weak",
   "name" : "_ZNSt3__110shared_ptrIN4aidl7android8hardware4gnss24IGnssMeasurementCallbackEED2Ev"
  },
  {
   "binding" : "weak",
   "name" : "_ZNSt3__110shared_ptrIN4aidl7android8hardware4gnss25IGnssMeasurementInterfaceEED2Ev"
  },
  {
   "binding" : "weak",
   "name" : "_ZNSt3__110shared_ptrIN4aidl7android8hardware4gnss28IGnssPowerIndicationCallbackEED2Ev"
  },
  {
   "binding" : "weak",
   "name" : "_ZNSt3__110shared_ptrIN4aidl7android8hardware4gnss30IGnssNavigationMessageCallbackEED2Ev"
  },
  {
   "binding" : "weak",
   "name" : "_ZNSt3__110shared_ptrIN4aidl7android8hardware4gnss31IGnssNavigationMessageInterfaceEED2Ev"
  },
  {
   "binding" : "weak",
   "name" : "_ZNSt3__110shared_ptrIN4aidl7android8hardware4gnss5IGnssEED2Ev"
  },
  {
   "binding" : "weak",
   "name" : "_ZNSt3__110shared_ptrIN4aidl7android8hardware4gnss6IAGnssEED2Ev"
  },
  {
   "binding" : "weak",
   "name" : "_ZNSt3__110shared_ptrIN4aidl7android8hardware4gnss9IAGnssRilEED2Ev"
  },
  {
   "binding" : "weak",
   "name" : "_ZNSt3__110shared_ptrIN4aidl7android8hardware4gnss9IGnssPsdsEED2Ev"
  },
  {
   "binding" : "weak",
   "name" : "_ZNSt3__120__shared_ptr_pointerIPN3ndk13SharedRefBaseENS_14default_deleteIS2_EENS_9allocatorIS2_EEE16__on_zero_sharedEv"
  },
  {
   "binding" : "weak",
   "name" : "_ZNSt3__120__shared_ptr_pointerIPN3ndk13SharedRefBaseENS_14default_deleteIS2_EENS_9allocatorIS2_EEE21__on_zero_shared_weakEv"
  },
  {
   "binding" : "weak",
   "name" : "_ZNSt3__16vectorIN4aidl7android8hardware4gnss10IGnssDebug13SatelliteDataENS_9allocatorIS6_EEE8__appendEj"
  },
  {
   "binding" : "weak",
   "name" : "_ZNSt3__16vectorIN4aidl7android8hardware4gnss12GnssLocationENS_9allocatorIS5_EEE8__appendEj"
  },
  {
   "binding" : "weak",
   "name" : "_ZNSt3__16vectorIN4aidl7android8hardware4gnss13IGnssCallback10GnssSvInfoENS_9allocatorIS6_EEE8__appendEj"
  },
  {
   "binding" : "weak",
   "name" : "_ZNSt3__16vectorIN4aidl7android8hardware4gnss15GnssMeasurementENS_9allocatorIS5_EEE8__appendEj"
  },
  {
   "binding" : "weak",
   "name" : "_ZNSt3__16vectorIN4aidl7android8hardware4gnss17BlocklistedSourceENS_9allocatorIS5_EEE8__appendEj"
  },
  {
   "binding" : "weak",
   "name" : "_ZNSt3__16vectorIN4aidl7android8hardware4gnss17CorrelationVectorENS_9allocatorIS5_EEE8__appendEj"
  },
  {
   "binding" : "weak",
   "name" : "_ZNSt3__16vectorIN4aidl7android8hardware4gnss23measurement_corrections19SingleSatCorrection14ExcessPathInfoENS_9allocatorIS7_EEE8__appendEj"
  },
  {
   "binding" : "weak",
   "name" : "_ZNSt3__16vectorIN4aidl7android8hardware4gnss23measurement_corrections19SingleSatCorrectionENS_9allocatorIS6_EEE8__appendEj"
  },
  {
   "binding" : "weak",
   "name" : "_ZNSt3__16vectorIN4aidl7android8hardware4gnss24IGnssAntennaInfoCallback15GnssAntennaInfoENS_9allocatorIS6_EEE8__appendEj"
  },
  {
   "binding" : "weak",
   "name" : "_ZNSt3__16vectorIN4aidl7android8hardware4gnss24IGnssAntennaInfoCallback3RowENS_9allocatorIS6_EEE8__appendEj"
  },
  {
   "binding" : "weak",
   "name" : "_ZNSt3__16vectorIN4aidl7android8hardware4gnss8GnssData7GnssAgcENS_9allocatorIS6_EEE8__appendEj"
  },
  {
   "binding" : "weak",
   "name" : "_ZNSt3__16vectorINS_12basic_stringIcNS_11char_traitsIcEENS_9allocatorIcEEEENS4_IS6_EEE8__appendEj"
  },
  {
   "binding" : "weak",
   "name" : "_ZNSt3__16vectorIaNS_9allocatorIaEEE8__appendEj"
  },
  {
   "binding" : "weak",
   "name" : "_ZNSt3__16vectorIdNS_9allocatorIdEEE8__appendEj"
  },
  {
   "binding" : "weak",
   "name" : "_ZNSt3__16vectorIiNS_9allocatorIiEEE8__appendEj"
  }
 ],
 "elf_objects" :
 [
  {
   "binding" : "weak",
   "name" : "_ZGVN4aidl7android8hardware4gnss10IGnssDebug4hashE"
  },
  {
   "binding" : "weak",
   "name" : "_ZGVN4aidl7android8hardware4gnss13IGnssBatching4hashE"
  },
  {
   "binding" : "weak",
   "name" : "_ZGVN4aidl7android8hardware4gnss13IGnssCallback4hashE"
  },
  {
   "binding" : "weak",
   "name" : "_ZGVN4aidl7android8hardware4gnss13IGnssGeofence4hashE"
  },
  {
   "binding" : "weak",
   "name" : "_ZGVN4aidl7android8hardware4gnss14IAGnssCallback4hashE"
  },
  {
   "binding" : "weak",
   "name" : "_ZGVN4aidl7android8hardware4gnss16IGnssAntennaInfo4hashE"
  },
  {
   "binding" : "weak",
   "name" : "_ZGVN4aidl7android8hardware4gnss17IAGnssRilCallback4hashE"
  },
  {
   "binding" : "weak",
   "name" : "_ZGVN4aidl7android8hardware4gnss17IGnssPsdsCallback4hashE"
  },
  {
   "binding" : "weak",
   "name" : "_ZGVN4aidl7android8hardware4gnss18IGnssConfiguration4hashE"
  },
  {
   "binding" : "weak",
   "name" : "_ZGVN4aidl7android8hardware4gnss18visibility_control22IGnssVisibilityControl4hashE"
  },
  {
   "binding" : "weak",
   "name" : "_ZGVN4aidl7android8hardware4gnss18visibility_control30IGnssVisibilityControlCallback4hashE"
  },
  {
   "binding" : "weak",
   "name" : "_ZGVN4aidl7android8hardware4gnss20IGnssPowerIndication4hashE"
  },
  {
   "binding" : "weak",
   "name" : "_ZGVN4aidl7android8hardware4gnss21IGnssBatchingCallback4hashE"
  },
  {
   "binding" : "weak",
   "name" : "_ZGVN4aidl7android8hardware4gnss21IGnssGeofenceCallback4hashE"
  },
  {
   "binding" : "weak",
   "name" : "_ZGVN4aidl7android8hardware4gnss23measurement_corrections31IMeasurementCorrectionsCallback4hashE"
  },
  {
   "binding" : "weak",
   "name" : "_ZGVN4aidl7android8hardware4gnss23measurement_corrections32IMeasurementCorrectionsInterface4hashE"
  },
  {
   "binding" : "weak",
   "name" : "_ZGVN4aidl7android8hardware4gnss24IGnssAntennaInfoCallback4hashE"
  },
  {
   "binding" : "weak",
   "name" : "_ZGVN4aidl7android8hardware4gnss24IGnssMeasurementCallback4hashE"
  },
  {
   "binding" : "weak",
   "name" : "_ZGVN4aidl7android8hardware4gnss25IGnssMeasurementInterface4hashE"
  },
  {
   "binding" : "weak",
   "name" : "_ZGVN4aidl7android8hardware4gnss28IGnssPowerIndicationCallback4hashE"
  },
  {
   "binding" : "weak",
   "name" : "_ZGVN4aidl7android8hardware4gnss30IGnssNavigationMessageCallback4hashE"
  },
  {
   "binding" : "weak",
   "name" : "_ZGVN4aidl7android8hardware4gnss31IGnssNavigationMessageInterface4hashE"
  },
  {
   "binding" : "weak",
   "name" : "_ZGVN4aidl7android8hardware4gnss5IGnss4hashE"
  },
  {
   "binding" : "weak",
   "name" : "_ZGVN4aidl7android8hardware4gnss6IAGnss4hashE"
  },
  {
   "binding" : "weak",
   "name" : "_ZGVN4aidl7android8hardware4gnss9IAGnssRil4hashE"
  },
  {
   "binding" : "weak",
   "name" : "_ZGVN4aidl7android8hardware4gnss9IGnssPsds4hashE"
  },
  {
   "name" : "_ZN4aidl7android8hardware4gnss10IGnssDebug10descriptorE"
  },
  {
   "name" : "_ZN4aidl7android8hardware4gnss10IGnssDebug12default_implE"
  },
  {
   "name" : "_ZN4aidl7android8hardware4gnss10IGnssDebug13PositionDebug10descriptorE"
  },
  {
   "name" : "_ZN4aidl7android8hardware4gnss10IGnssDebug13SatelliteData10descriptorE"
  },
  {
   "binding" : "weak",
   "name" : "_ZN4aidl7android8hardware4gnss10IGnssDebug4hashE"
  },
  {
   "name" : "_ZN4aidl7android8hardware4gnss10IGnssDebug9DebugData10descriptorE"
  },
  {
   "name" : "_ZN4aidl7android8hardware4gnss10IGnssDebug9TimeDebug10descriptorE"
  },
  {
   "name" : "_ZN4aidl7android8hardware4gnss12GnssLocation10descriptorE"
  },
  {
   "name" : "_ZN4aidl7android8hardware4gnss12SatellitePvt10descriptorE"
  },
  {
   "name" : "_ZN4aidl7android8hardware4gnss13IGnssBatching10descriptorE"
  },
  {
   "name" : "_ZN4aidl7android8hardware4gnss13IGnssBatching12default_implE"
  },
  {
   "binding" : "weak",
   "name" : "_ZN4aidl7android8hardware4gnss13IGnssBatching4hashE"
  },
  {
   "name" : "_ZN4aidl7android8hardware4gnss13IGnssBatching7Options10descriptorE"
  },
  {
   "name" : "_ZN4aidl7android8hardware4gnss13IGnssCallback10GnssSvInfo10descriptorE"
  },
  {
   "name" : "_ZN4aidl7android8hardware4gnss13IGnssCallback10descriptorE"
  },
  {
   "name" : "_ZN4aidl7android8hardware4gnss13IGnssCallback12default_implE"
  },
  {
   "name" : "_ZN4aidl7android8hardware4gnss13IGnssCallback14GnssSystemInfo10descriptorE"
  },
  {
   "binding" : "weak",
   "name" : "_ZN4aidl7android8hardware4gnss13IGnssCallback4hashE"
  },
  {
   "name" : "_ZN4aidl7android8hardware4gnss13IGnssGeofence10descriptorE"
  },
  {
   "name" : "_ZN4aidl7android8hardware4gnss13IGnssGeofence12default_implE"
  },
  {
   "binding" : "weak",
   "name" : "_ZN4aidl7android8hardware4gnss13IGnssGeofence4hashE"
  },
  {
   "name" : "_ZN4aidl7android8hardware4gnss14GnssPowerStats10descriptorE"
  },
  {
   "name" : "_ZN4aidl7android8hardware4gnss14GnssSignalType10descriptorE"
  },
  {
   "name" : "_ZN4aidl7android8hardware4gnss14GnssSignalType11CODE_TYPE_AE"
  },
  {
   "name" : "_ZN4aidl7android8hardware4gnss14GnssSignalType11CODE_TYPE_BE"
  },
  {
   "name" : "_ZN4aidl7android8hardware4gnss14GnssSignalType11CODE_TYPE_CE"
  },
  {
   "name" : "_ZN4aidl7android8hardware4gnss14GnssSignalType11CODE_TYPE_DE"
  },
  {
   "name" : "_ZN4aidl7android8hardware4gnss14GnssSignalType11CODE_TYPE_IE"
  },
  {
   "name" : "_ZN4aidl7android8hardware4gnss14GnssSignalType11CODE_TYPE_LE"
  },
  {
   "name" : "_ZN4aidl7android8hardware4gnss14GnssSignalType11CODE_TYPE_ME"
  },
  {
   "name" : "_ZN4aidl7android8hardware4gnss14GnssSignalType11CODE_TYPE_NE"
  },
  {
   "name" : "_ZN4aidl7android8hardware4gnss14GnssSignalType11CODE_TYPE_PE"
  },
  {
   "name" : "_ZN4aidl7android8hardware4gnss14GnssSignalType11CODE_TYPE_QE"
  },
  {
   "name" : "_ZN4aidl7android8hardware4gnss14GnssSignalType11CODE_TYPE_SE"
  },
  {
   "name" : "_ZN4aidl7android8hardware4gnss14GnssSignalType11CODE_TYPE_WE"
  },
  {
   "name" : "_ZN4aidl7android8hardware4gnss14GnssSignalType11CODE_TYPE_XE"
  },
  {
   "name" : "_ZN4aidl7android8hardware4gnss14GnssSignalType11CODE_TYPE_YE"
  },
  {
   "name" : "_ZN4aidl7android8hardware4gnss14GnssSignalType11CODE_TYPE_ZE"
  },
  {
   "name" : "_ZN4aidl7android8hardware4gnss14GnssSignalType17CODE_TYPE_UNKNOWNE"
  },
  {
   "name" : "_ZN4aidl7android8hardware4gnss14IAGnssCallback10descriptorE"
  },
  {
   "name" : "_ZN4aidl7android8hardware4gnss14IAGnssCallback12default_implE"
  },
  {
   "binding" : "weak",
   "name" : "_ZN4aidl7android8hardware4gnss14IAGnssCallback4hashE"
  },
  {
   "name" : "_ZN4aidl7android8hardware4gnss15ElapsedRealtime10descriptorE"
  },
  {
   "name" : "_ZN4aidl7android8hardware4gnss15GnssMeasurement10descriptorE"
  },
  {
   "name" : "_ZN4aidl7android8hardware4gnss16IGnssAntennaInfo10descriptorE"
  },
  {
   "name" : "_ZN4aidl7android8hardware4gnss16IGnssAntennaInfo12default_implE"
  },
  {
   "binding" : "weak",
   "name" : "_ZN4aidl7android8hardware4gnss16IGnssAntennaInfo4hashE"
  },
  {
   "name" : "_ZN4aidl7android8hardware4gnss17BlocklistedSource10descriptorE"
  },
  {
   "name" : "_ZN4aidl7android8hardware4gnss17CorrelationVector10descriptorE"
  },
  {
   "name" : "_ZN4aidl7android8hardware4gnss17IAGnssRilCallback10descriptorE"
  },
  {
   "name" : "_ZN4aidl7android8hardware4gnss17IAGnssRilCallback12default_implE"
  },
  {
   "binding" : "weak",
   "name" : "_ZN4aidl7android8hardware4gnss17IAGnssRilCallback4hashE"
  },
  {
   "name" : "_ZN4aidl7android8hardware4gnss17IGnssPsdsCallback10descriptorE"
  },
  {
   "name" : "_ZN4aidl7android8hardware4gnss17IGnssPsdsCallback12default_implE"
  },
  {
   "binding" : "weak",
   "name" : "_ZN4aidl7android8hardware4gnss17IGnssPsdsCallback4hashE"
  },
  {
   "name" : "_ZN4aidl7android8hardware4gnss18IGnssConfiguration10descriptorE"
  },
  {
   "name" : "_ZN4aidl7android8hardware4gnss18IGnssConfiguration12default_implE"
  },
  {
   "binding" : "weak",
   "name" : "_ZN4aidl7android8hardware4gnss18IGnssConfiguration4hashE"
  },
  {
   "name" : "_ZN4aidl7android8hardware4gnss18SatelliteClockInfo10descriptorE"
  },
  {
   "name" : "_ZN4aidl7android8hardware4gnss18visibility_control22IGnssVisibilityControl10descriptorE"
  },
  {
   "name" : "_ZN4aidl7android8hardware4gnss18visibility_control22IGnssVisibilityControl12default_implE"
  },
  {
   "binding" : "weak",
   "name" : "_ZN4aidl7android8hardware4gnss18visibility_control22IGnssVisibilityControl4hashE"
  },
  {
   "name" : "_ZN4aidl7android8hardware4gnss18visibility_control30IGnssVisibilityControlCallback10descriptorE"
  },
  {
   "name" : "_ZN4aidl7android8hardware4gnss18visibility_control30IGnssVisibilityControlCallback12default_implE"
  },
  {
   "name" : "_ZN4aidl7android8hardware4gnss18visibility_control30IGnssVisibilityControlCallback15NfwNotification10descriptorE"
  },
  {
   "binding" : "weak",
   "name" : "_ZN4aidl7android8hardware4gnss18visibility_control30IGnssVisibilityControlCallback4hashE"
  },
  {
   "name" : "_ZN4aidl7android8hardware4gnss20IGnssPowerIndication10descriptorE"
  },
  {
   "name" : "_ZN4aidl7android8hardware4gnss20IGnssPowerIndication12default_implE"
  },
  {
   "binding" : "weak",
   "name" : "_ZN4aidl7android8hardware4gnss20IGnssPowerIndication4hashE"
  },
  {
   "name" : "_ZN4aidl7android8hardware4gnss21IGnssBatchingCallback10descriptorE"
  },
  {
   "name" : "_ZN4aidl7android8hardware4gnss21IGnssBatchingCallback12default_implE"
  },
  {
   "binding" : "weak",
   "name" : "_ZN4aidl7android8hardware4gnss21IGnssBatchingCallback4hashE"
  },
  {
   "name" : "_ZN4aidl7android8hardware4gnss21IGnssGeofenceCallback10descriptorE"
  },
  {
   "name" : "_ZN4aidl7android8hardware4gnss21IGnssGeofenceCallback12default_implE"
  },
  {
   "binding" : "weak",
   "name" : "_ZN4aidl7android8hardware4gnss21IGnssGeofenceCallback4hashE"
  },
  {
   "name" : "_ZN4aidl7android8hardware4gnss21SatellitePositionEcef10descriptorE"
  },
  {
   "name" : "_ZN4aidl7android8hardware4gnss21SatelliteVelocityEcef10descriptorE"
  },
  {
   "name" : "_ZN4aidl7android8hardware4gnss23measurement_corrections15ReflectingPlane10descriptorE"
  },
  {
   "name" : "_ZN4aidl7android8hardware4gnss23measurement_corrections19SingleSatCorrection10descriptorE"
  },
  {
   "name" : "_ZN4aidl7android8hardware4gnss23measurement_corrections19SingleSatCorrection14ExcessPathInfo10descriptorE"
  },
  {
   "name" : "_ZN4aidl7android8hardware4gnss23measurement_corrections22MeasurementCorrections10descriptorE"
  },
  {
   "name" : "_ZN4aidl7android8hardware4gnss23measurement_corrections31IMeasurementCorrectionsCallback10descriptorE"
  },
  {
   "name" : "_ZN4aidl7android8hardware4gnss23measurement_corrections31IMeasurementCorrectionsCallback12default_implE"
  },
  {
   "binding" : "weak",
   "name" : "_ZN4aidl7android8hardware4gnss23measurement_corrections31IMeasurementCorrectionsCallback4hashE"
  },
  {
   "name" : "_ZN4aidl7android8hardware4gnss23measurement_corrections32IMeasurementCorrectionsInterface10descriptorE"
  },
  {
   "name" : "_ZN4aidl7android8hardware4gnss23measurement_corrections32IMeasurementCorrectionsInterface12default_implE"
  },
  {
   "binding" : "weak",
   "name" : "_ZN4aidl7android8hardware4gnss23measurement_corrections32IMeasurementCorrectionsInterface4hashE"
  },
  {
   "name" : "_ZN4aidl7android8hardware4gnss24IGnssAntennaInfoCallback10descriptorE"
  },
  {
   "name" : "_ZN4aidl7android8hardware4gnss24IGnssAntennaInfoCallback12default_implE"
  },
  {
   "name" : "_ZN4aidl7android8hardware4gnss24IGnssAntennaInfoCallback15GnssAntennaInfo10descriptorE"
  },
  {
   "name" : "_ZN4aidl7android8hardware4gnss24IGnssAntennaInfoCallback3Row10descriptorE"
  },
  {
   "binding" : "weak",
   "name" : "_ZN4aidl7android8hardware4gnss24IGnssAntennaInfoCallback4hashE"
  },
  {
   "name" : "_ZN4aidl7android8hardware4gnss24IGnssAntennaInfoCallback5Coord10descriptorE"
  },
  {
   "name" : "_ZN4aidl7android8hardware4gnss24IGnssMeasurementCallback10descriptorE"
  },
  {
   "name" : "_ZN4aidl7android8hardware4gnss24IGnssMeasurementCallback12default_implE"
  },
  {
   "binding" : "weak",
   "name" : "_ZN4aidl7android8hardware4gnss24IGnssMeasurementCallback4hashE"
  },
  {
   "name" : "_ZN4aidl7android8hardware4gnss25IGnssMeasurementInterface10descriptorE"
  },
  {
   "name" : "_ZN4aidl7android8hardware4gnss25IGnssMeasurementInterface12default_implE"
  },
  {
   "binding" : "weak",
   "name" : "_ZN4aidl7android8hardware4gnss25IGnssMeasurementInterface4hashE"
  },
  {
   "name" : "_ZN4aidl7android8hardware4gnss25IGnssMeasurementInterface7Options10descriptorE"
  },
  {
   "name" : "_ZN4aidl7android8hardware4gnss28IGnssPowerIndicationCallback10descriptorE"
  },
  {
   "name" : "_ZN4aidl7android8hardware4gnss28IGnssPowerIndicationCallback12default_implE"
  },
  {
   "binding" : "weak",
   "name" : "_ZN4aidl7android8hardware4gnss28IGnssPowerIndicationCallback4hashE"
  },
  {
   "name" : "_ZN4aidl7android8hardware4gnss30IGnssNavigationMessageCallback10descriptorE"
  },
  {
   "name" : "_ZN4aidl7android8hardware4gnss30IGnssNavigationMessageCallback12default_implE"
  },
  {
   "name" : "_ZN4aidl7android8hardware4gnss30IGnssNavigationMessageCallback21GnssNavigationMessage10descriptorE"
  },
  {
   "binding" : "weak",
   "name" : "_ZN4aidl7android8hardware4gnss30IGnssNavigationMessageCallback4hashE"
  },
  {
   "name" : "_ZN4aidl7android8hardware4gnss31IGnssNavigationMessageInterface10descriptorE"
  },
  {
   "name" : "_ZN4aidl7android8hardware4gnss31IGnssNavigationMessageInterface12default_implE"
  },
  {
   "binding" : "weak",
   "name" : "_ZN4aidl7android8hardware4gnss31IGnssNavigationMessageInterface4hashE"
  },
  {
   "name" : "_ZN4aidl7android8hardware4gnss5IGnss10descriptorE"
  },
  {
   "name" : "_ZN4aidl7android8hardware4gnss5IGnss12default_implE"
  },
  {
   "name" : "_ZN4aidl7android8hardware4gnss5IGnss19PositionModeOptions10descriptorE"
  },
  {
   "binding" : "weak",
   "name" : "_ZN4aidl7android8hardware4gnss5IGnss4hashE"
  },
  {
   "name" : "_ZN4aidl7android8hardware4gnss6IAGnss10descriptorE"
  },
  {
   "name" : "_ZN4aidl7android8hardware4gnss6IAGnss12default_implE"
  },
  {
   "binding" : "weak",
   "name" : "_ZN4aidl7android8hardware4gnss6IAGnss4hashE"
  },
  {
   "name" : "_ZN4aidl7android8hardware4gnss8GnssData10descriptorE"
  },
  {
   "name" : "_ZN4aidl7android8hardware4gnss8GnssData7GnssAgc10descriptorE"
  },
  {
   "name" : "_ZN4aidl7android8hardware4gnss9GnssClock10descriptorE"
  },
  {
   "name" : "_ZN4aidl7android8hardware4gnss9IAGnssRil10descriptorE"
  },
  {
   "name" : "_ZN4aidl7android8hardware4gnss9IAGnssRil12default_implE"
  },
  {
   "name" : "_ZN4aidl7android8hardware4gnss9IAGnssRil16AGnssRefLocation10descriptorE"
  },
  {
   "name" : "_ZN4aidl7android8hardware4gnss9IAGnssRil17NetworkAttributes10descriptorE"
  },
  {
   "name" : "_ZN4aidl7android8hardware4gnss9IAGnssRil22AGnssRefLocationCellID10descriptorE"
  },
  {
   "binding" : "weak",
   "name" : "_ZN4aidl7android8hardware4gnss9IAGnssRil4hashE"
  },
  {
   "name" : "_ZN4aidl7android8hardware4gnss9IGnssPsds10descriptorE"
  },
  {
   "name" : "_ZN4aidl7android8hardware4gnss9IGnssPsds12default_implE"
  },
  {
   "binding" : "weak",
   "name" : "_ZN4aidl7android8hardware4gnss9IGnssPsds4hashE"
  },
  {
   "binding" : "weak",
   "name" : "_ZTVN3ndk12BnCInterfaceIN4aidl7android8hardware4gnss10IGnssDebugEEE"
  },
  {
   "binding" : "weak",
   "name" : "_ZTVN3ndk12BnCInterfaceIN4aidl7android8hardware4gnss13IGnssBatchingEEE"
  },
  {
   "binding" : "weak",
   "name" : "_ZTVN3ndk12BnCInterfaceIN4aidl7android8hardware4gnss13IGnssCallbackEEE"
  },
  {
   "binding" : "weak",
   "name" : "_ZTVN3ndk12BnCInterfaceIN4aidl7android8hardware4gnss13IGnssGeofenceEEE"
  },
  {
   "binding" : "weak",
   "name" : "_ZTVN3ndk12BnCInterfaceIN4aidl7android8hardware4gnss14IAGnssCallbackEEE"
  },
  {
   "binding" : "weak",
   "name" : "_ZTVN3ndk12BnCInterfaceIN4aidl7android8hardware4gnss16IGnssAntennaInfoEEE"
  },
  {
   "binding" : "weak",
   "name" : "_ZTVN3ndk12BnCInterfaceIN4aidl7android8hardware4gnss17IAGnssRilCallbackEEE"
  },
  {
   "binding" : "weak",
   "name" : "_ZTVN3ndk12BnCInterfaceIN4aidl7android8hardware4gnss17IGnssPsdsCallbackEEE"
  },
  {
   "binding" : "weak",
   "name" : "_ZTVN3ndk12BnCInterfaceIN4aidl7android8hardware4gnss18IGnssConfigurationEEE"
  },
  {
   "binding" : "weak",
   "name" : "_ZTVN3ndk12BnCInterfaceIN4aidl7android8hardware4gnss18visibility_control22IGnssVisibilityControlEEE"
  },
  {
   "binding" : "weak",
   "name" : "_ZTVN3ndk12BnCInterfaceIN4aidl7android8hardware4gnss18visibility_control30IGnssVisibilityControlCallbackEEE"
  },
  {
   "binding" : "weak",
   "name" : "_ZTVN3ndk12BnCInterfaceIN4aidl7android8hardware4gnss20IGnssPowerIndicationEEE"
  },
  {
   "binding" : "weak",
   "name" : "_ZTVN3ndk12BnCInterfaceIN4aidl7android8hardware4gnss21IGnssBatchingCallbackEEE"
  },
  {
   "binding" : "weak",
   "name" : "_ZTVN3ndk12BnCInterfaceIN4aidl7android8hardware4gnss21IGnssGeofenceCallbackEEE"
  },
  {
   "binding" : "weak",
   "name" : "_ZTVN3ndk12BnCInterfaceIN4aidl7android8hardware4gnss23measurement_corrections31IMeasurementCorrectionsCallbackEEE"
  },
  {
   "binding" : "weak",
   "name" : "_ZTVN3ndk12BnCInterfaceIN4aidl7android8hardware4gnss23measurement_corrections32IMeasurementCorrectionsInterfaceEEE"
  },
  {
   "binding" : "weak",
   "name" : "_ZTVN3ndk12BnCInterfaceIN4aidl7android8hardware4gnss24IGnssAntennaInfoCallbackEEE"
  },
  {
   "binding" : "weak",
   "name" : "_ZTVN3ndk12BnCInterfaceIN4aidl7android8hardware4gnss24IGnssMeasurementCallbackEEE"
  },
  {
   "binding" : "weak",
   "name" : "_ZTVN3ndk12BnCInterfaceIN4aidl7android8hardware4gnss25IGnssMeasurementInterfaceEEE"
  },
  {
   "binding" : "weak",
   "name" : "_ZTVN3ndk12BnCInterfaceIN4aidl7android8hardware4gnss28IGnssPowerIndicationCallbackEEE"
  },
  {
   "binding" : "weak",
   "name" : "_ZTVN3ndk12BnCInterfaceIN4aidl7android8hardware4gnss30IGnssNavigationMessageCallbackEEE"
  },
  {
   "binding" : "weak",
   "name" : "_ZTVN3ndk12BnCInterfaceIN4aidl7android8hardware4gnss31IGnssNavigationMessageInterfaceEEE"
  },
  {
   "binding" : "weak",
   "name" : "_ZTVN3ndk12BnCInterfaceIN4aidl7android8hardware4gnss5IGnssEEE"
  },
  {
   "binding" : "weak",
   "name" : "_ZTVN3ndk12BnCInterfaceIN4aidl7android8hardware4gnss6IAGnssEEE"
  },
  {
   "binding" : "weak",
   "name" : "_ZTVN3ndk12BnCInterfaceIN4aidl7android8hardware4gnss9IAGnssRilEEE"
  },
  {
   "binding" : "weak",
   "name" : "_ZTVN3ndk12BnCInterfaceIN4aidl7android8hardware4gnss9IGnssPsdsEEE"
  },
  {
   "binding" : "weak",
   "name" : "_ZTVN3ndk12BpCInterfaceIN4aidl7android8hardware4gnss10IGnssDebugEEE"
  },
  {
   "binding" : "weak",
   "name" : "_ZTVN3ndk12BpCInterfaceIN4aidl7android8hardware4gnss13IGnssBatchingEEE"
  },
  {
   "binding" : "weak",
   "name" : "_ZTVN3ndk12BpCInterfaceIN4aidl7android8hardware4gnss13IGnssCallbackEEE"
  },
  {
   "binding" : "weak",
   "name" : "_ZTVN3ndk12BpCInterfaceIN4aidl7android8hardware4gnss13IGnssGeofenceEEE"
  },
  {
   "binding" : "weak",
   "name" : "_ZTVN3ndk12BpCInterfaceIN4aidl7android8hardware4gnss14IAGnssCallbackEEE"
  },
  {
   "binding" : "weak",
   "name" : "_ZTVN3ndk12BpCInterfaceIN4aidl7android8hardware4gnss16IGnssAntennaInfoEEE"
  },
  {
   "binding" : "weak",
   "name" : "_ZTVN3ndk12BpCInterfaceIN4aidl7android8hardware4gnss17IAGnssRilCallbackEEE"
  },
  {
   "binding" : "weak",
   "name" : "_ZTVN3ndk12BpCInterfaceIN4aidl7android8hardware4gnss17IGnssPsdsCallbackEEE"
  },
  {
   "binding" : "weak",
   "name" : "_ZTVN3ndk12BpCInterfaceIN4aidl7android8hardware4gnss18IGnssConfigurationEEE"
  },
  {
   "binding" : "weak",
   "name" : "_ZTVN3ndk12BpCInterfaceIN4aidl7android8hardware4gnss18visibility_control22IGnssVisibilityControlEEE"
  },
  {
   "binding" : "weak",
   "name" : "_ZTVN3ndk12BpCInterfaceIN4aidl7android8hardware4gnss18visibility_control30IGnssVisibilityControlCallbackEEE"
  },
  {
   "binding" : "weak",
   "name" : "_ZTVN3ndk12BpCInterfaceIN4aidl7android8hardware4gnss20IGnssPowerIndicationEEE"
  },
  {
   "binding" : "weak",
   "name" : "_ZTVN3ndk12BpCInterfaceIN4aidl7android8hardware4gnss21IGnssBatchingCallbackEEE"
  },
  {
   "binding" : "weak",
   "name" : "_ZTVN3ndk12BpCInterfaceIN4aidl7android8hardware4gnss21IGnssGeofenceCallbackEEE"
  },
  {
   "binding" : "weak",
   "name" : "_ZTVN3ndk12BpCInterfaceIN4aidl7android8hardware4gnss23measurement_corrections31IMeasurementCorrectionsCallbackEEE"
  },
  {
   "binding" : "weak",
   "name" : "_ZTVN3ndk12BpCInterfaceIN4aidl7android8hardware4gnss23measurement_corrections32IMeasurementCorrectionsInterfaceEEE"
  },
  {
   "binding" : "weak",
   "name" : "_ZTVN3ndk12BpCInterfaceIN4aidl7android8hardware4gnss24IGnssAntennaInfoCallbackEEE"
  },
  {
   "binding" : "weak",
   "name" : "_ZTVN3ndk12BpCInterfaceIN4aidl7android8hardware4gnss24IGnssMeasurementCallbackEEE"
  },
  {
   "binding" : "weak",
   "name" : "_ZTVN3ndk12BpCInterfaceIN4aidl7android8hardware4gnss25IGnssMeasurementInterfaceEEE"
  },
  {
   "binding" : "weak",
   "name" : "_ZTVN3ndk12BpCInterfaceIN4aidl7android8hardware4gnss28IGnssPowerIndicationCallbackEEE"
  },
  {
   "binding" : "weak",
   "name" : "_ZTVN3ndk12BpCInterfaceIN4aidl7android8hardware4gnss30IGnssNavigationMessageCallbackEEE"
  },
  {
   "binding" : "weak",
   "name" : "_ZTVN3ndk12BpCInterfaceIN4aidl7android8hardware4gnss31IGnssNavigationMessageInterfaceEEE"
  },
  {
   "binding" : "weak",
   "name" : "_ZTVN3ndk12BpCInterfaceIN4aidl7android8hardware4gnss5IGnssEEE"
  },
  {
   "binding" : "weak",
   "name" : "_ZTVN3ndk12BpCInterfaceIN4aidl7android8hardware4gnss6IAGnssEEE"
  },
  {
   "binding" : "weak",
   "name" : "_ZTVN3ndk12BpCInterfaceIN4aidl7android8hardware4gnss9IAGnssRilEEE"
  },
  {
   "binding" : "weak",
   "name" : "_ZTVN3ndk12BpCInterfaceIN4aidl7android8hardware4gnss9IGnssPsdsEEE"
  },
  {
   "binding" : "weak",
   "name" : "_ZTVN3ndk13SharedRefBaseE"
  },
  {
   "name" : "_ZTVN4aidl7android8hardware4gnss10BnAGnssRilE"
  },
  {
   "name" : "_ZTVN4aidl7android8hardware4gnss10BnGnssPsdsE"
  },
  {
   "name" : "_ZTVN4aidl7android8hardware4gnss10BpAGnssRilE"
  },
  {
   "name" : "_ZTVN4aidl7android8hardware4gnss10BpGnssPsdsE"
  },
  {
   "name" : "_ZTVN4aidl7android8hardware4gnss10IGnssDebugE"
  },
  {
   "name" : "_ZTVN4aidl7android8hardware4gnss11BnGnssDebugE"
  },
  {
   "name" : "_ZTVN4aidl7android8hardware4gnss11BpGnssDebugE"
  },
  {
   "name" : "_ZTVN4aidl7android8hardware4gnss12IGnssDefaultE"
  },
  {
   "name" : "_ZTVN4aidl7android8hardware4gnss13IAGnssDefaultE"
  },
  {
   "name" : "_ZTVN4aidl7android8hardware4gnss13IGnssBatchingE"
  },
  {
   "name" : "_ZTVN4aidl7android8hardware4gnss13IGnssCallbackE"
  },
  {
   "name" : "_ZTVN4aidl7android8hardware4gnss13IGnssGeofenceE"
  },
  {
   "name" : "_ZTVN4aidl7android8hardware4gnss14BnGnssBatchingE"
  },
  {
   "name" : "_ZTVN4aidl7android8hardware4gnss14BnGnssCallbackE"
  },
  {
   "name" : "_ZTVN4aidl7android8hardware4gnss14BnGnssGeofenceE"
  },
  {
   "name" : "_ZTVN4aidl7android8hardware4gnss14BpGnssBatchingE"
  },
  {
   "name" : "_ZTVN4aidl7android8hardware4gnss14BpGnssCallbackE"
  },
  {
   "name" : "_ZTVN4aidl7android8hardware4gnss14BpGnssGeofenceE"
  },
  {
   "name" : "_ZTVN4aidl7android8hardware4gnss14IAGnssCallbackE"
  },
  {
   "name" : "_ZTVN4aidl7android8hardware4gnss15BnAGnssCallbackE"
  },
  {
   "name" : "_ZTVN4aidl7android8hardware4gnss15BpAGnssCallbackE"
  },
  {
   "name" : "_ZTVN4aidl7android8hardware4gnss16IAGnssRilDefaultE"
  },
  {
   "name" : "_ZTVN4aidl7android8hardware4gnss16IGnssAntennaInfoE"
  },
  {
   "name" : "_ZTVN4aidl7android8hardware4gnss16IGnssPsdsDefaultE"
  },
  {
   "name" : "_ZTVN4aidl7android8hardware4gnss17BnGnssAntennaInfoE"
  },
  {
   "name" : "_ZTVN4aidl7android8hardware4gnss17BpGnssAntennaInfoE"
  },
  {
   "name" : "_ZTVN4aidl7android8hardware4gnss17IAGnssRilCallbackE"
  },
  {
   "name" : "_ZTVN4aidl7android8hardware4gnss17IGnssDebugDefaultE"
  },
  {
   "name" : "_ZTVN4aidl7android8hardware4gnss17IGnssPsdsCallbackE"
  },
  {
   "name" : "_ZTVN4aidl7android8hardware4gnss18BnAGnssRilCallbackE"
  },
  {
   "name" : "_ZTVN4aidl7android8hardware4gnss18BnGnssPsdsCallbackE"
  },
  {
   "name" : "_ZTVN4aidl7android8hardware4gnss18BpAGnssRilCallbackE"
  },
  {
   "name" : "_ZTVN4aidl7android8hardware4gnss18BpGnssPsdsCallbackE"
  },
  {
   "name" : "_ZTVN4aidl7android8hardware4gnss18IGnssConfigurationE"
  },
  {
   "name" : "_ZTVN4aidl7android8hardware4gnss18visibility_control22IGnssVisibilityControlE"
  },
  {
   "name" : "_ZTVN4aidl7android8hardware4gnss18visibility_control23BnGnssVisibilityControlE"
  },
  {
   "name" : "_ZTVN4aidl7android8hardware4gnss18visibility_control23BpGnssVisibilityControlE"
  },
  {
   "name" : "_ZTVN4aidl7android8hardware4gnss18visibility_control29IGnssVisibilityControlDefaultE"
  },
  {
   "name" : "_ZTVN4aidl7android8hardware4gnss18visibility_control30IGnssVisibilityControlCallbackE"
  },
  {
   "name" : "_ZTVN4aidl7android8hardware4gnss18visibility_control31BnGnssVisibilityControlCallbackE"
  },
  {
   "name" : "_ZTVN4aidl7android8hardware4gnss18visibility_control31BpGnssVisibilityControlCallbackE"
  },
  {
   "name" : "_ZTVN4aidl7android8hardware4gnss18visibility_control37IGnssVisibilityControlCallbackDefaultE"
  },
  {
   "name" : "_ZTVN4aidl7android8hardware4gnss19BnGnssConfigurationE"
  },
  {
   "name" : "_ZTVN4aidl7android8hardware4gnss19BpGnssConfigurationE"
  },
  {
   "name" : "_ZTVN4aidl7android8hardware4gnss20IGnssBatchingDefaultE"
  },
  {
   "name" : "_ZTVN4aidl7android8hardware4gnss20IGnssCallbackDefaultE"
  },
  {
   "name" : "_ZTVN4aidl7android8hardware4gnss20IGnssGeofenceDefaultE"
  },
  {
   "name" : "_ZTVN4aidl7android8hardware4gnss20IGnssPowerIndicationE"
  },
  {
   "name" : "_ZTVN4aidl7android8hardware4gnss21BnGnssPowerIndicationE"
  },
  {
   "name" : "_ZTVN4aidl7android8hardware4gnss21BpGnssPowerIndicationE"
  },
  {
   "name" : "_ZTVN4aidl7android8hardware4gnss21IAGnssCallbackDefaultE"
  },
  {
   "name" : "_ZTVN4aidl7android8hardware4gnss21IGnssBatchingCallbackE"
  },
  {
   "name" : "_ZTVN4aidl7android8hardware4gnss21IGnssGeofenceCallbackE"
  },
  {
   "name" : "_ZTVN4aidl7android8hardware4gnss22BnGnssBatchingCallbackE"
  },
  {
   "name" : "_ZTVN4aidl7android8hardware4gnss22BnGnssGeofenceCallbackE"
  },
  {
   "name" : "_ZTVN4aidl7android8hardware4gnss22BpGnssBatchingCallbackE"
  },
  {
   "name" : "_ZTVN4aidl7android8hardware4gnss22BpGnssGeofenceCallbackE"
  },
  {
   "name" : "_ZTVN4aidl7android8hardware4gnss23IGnssAntennaInfoDefaultE"
  },
  {
   "name" : "_ZTVN4aidl7android8hardware4gnss23measurement_corrections31IMeasurementCorrectionsCallbackE"
  },
  {
   "name" : "_ZTVN4aidl7android8hardware4gnss23measurement_corrections32BnMeasurementCorrectionsCallbackE"
  },
  {
   "name" : "_ZTVN4aidl7android8hardware4gnss23measurement_corrections32BpMeasurementCorrectionsCallbackE"
  },
  {
   "name" : "_ZTVN4aidl7android8hardware4gnss23measurement_corrections32IMeasurementCorrectionsInterfaceE"
  },
  {
   "name" : "_ZTVN4aidl7android8hardware4gnss23measurement_corrections33BnMeasurementCorrectionsInterfaceE"
  },
  {
   "name" : "_ZTVN4aidl7android8hardware4gnss23measurement_corrections33BpMeasurementCorrectionsInterfaceE"
  },
  {
   "name" : "_ZTVN4aidl7android8hardware4gnss23measurement_corrections38IMeasurementCorrectionsCallbackDefaultE"
  },
  {
   "name" : "_ZTVN4aidl7android8hardware4gnss23measurement_corrections39IMeasurementCorrectionsInterfaceDefaultE"
  },
  {
   "name" : "_ZTVN4aidl7android8hardware4gnss24IAGnssRilCallbackDefaultE"
  },
  {
   "name" : "_ZTVN4aidl7android8hardware4gnss24IGnssAntennaInfoCallbackE"
  },
  {
   "name" : "_ZTVN4aidl7android8hardware4gnss24IGnssMeasurementCallbackE"
  },
  {
   "name" : "_ZTVN4aidl7android8hardware4gnss24IGnssPsdsCallbackDefaultE"
  },
  {
   "name" : "_ZTVN4aidl7android8hardware4gnss25BnGnssAntennaInfoCallbackE"
  },
  {
   "name" : "_ZTVN4aidl7android8hardware4gnss25BnGnssMeasurementCallbackE"
  },
  {
   "name" : "_ZTVN4aidl7android8hardware4gnss25BpGnssAntennaInfoCallbackE"
  },
  {
   "name" : "_ZTVN4aidl7android8hardware4gnss25BpGnssMeasurementCallbackE"
  },
  {
   "name" : "_ZTVN4aidl7android8hardware4gnss25IGnssConfigurationDefaultE"
  },
  {
   "name" : "_ZTVN4aidl7android8hardware4gnss25IGnssMeasurementInterfaceE"
  },
  {
   "name" : "_ZTVN4aidl7android8hardware4gnss26BnGnssMeasurementInterfaceE"
  },
  {
   "name" : "_ZTVN4aidl7android8hardware4gnss26BpGnssMeasurementInterfaceE"
  },
  {
   "name" : "_ZTVN4aidl7android8hardware4gnss27IGnssPowerIndicationDefaultE"
  },
  {
   "name" : "_ZTVN4aidl7android8hardware4gnss28IGnssBatchingCallbackDefaultE"
  },
  {
   "name" : "_ZTVN4aidl7android8hardware4gnss28IGnssGeofenceCallbackDefaultE"
  },
  {
   "name" : "_ZTVN4aidl7android8hardware4gnss28IGnssPowerIndicationCallbackE"
  },
  {
   "name" : "_ZTVN4aidl7android8hardware4gnss29BnGnssPowerIndicationCallbackE"
  },
  {
   "name" : "_ZTVN4aidl7android8hardware4gnss29BpGnssPowerIndicationCallbackE"
  },
  {
   "name" : "_ZTVN4aidl7android8hardware4gnss30IGnssNavigationMessageCallbackE"
  },
  {
   "name" : "_ZTVN4aidl7android8hardware4gnss31BnGnssNavigationMessageCallbackE"
  },
  {
   "name" : "_ZTVN4aidl7android8hardware4gnss31BpGnssNavigationMessageCallbackE"
  },
  {
   "name" : "_ZTVN4aidl7android8hardware4gnss31IGnssAntennaInfoCallbackDefaultE"
  },
  {
   "name" : "_ZTVN4aidl7android8hardware4gnss31IGnssMeasurementCallbackDefaultE"
  },
  {
   "name" : "_ZTVN4aidl7android8hardware4gnss31IGnssNavigationMessageInterfaceE"
  },
  {
   "name" : "_ZTVN4aidl7android8hardware4gnss32BnGnssNavigationMessageInterfaceE"
  },
  {
   "name" : "_ZTVN4aidl7android8hardware4gnss32BpGnssNavigationMessageInterfaceE"
  },
  {
   "name" : "_ZTVN4aidl7android8hardware4gnss32IGnssMeasurementInterfaceDefaultE"
  },
  {
   "name" : "_ZTVN4aidl7android8hardware4gnss35IGnssPowerIndicationCallbackDefaultE"
  },
  {
   "name" : "_ZTVN4aidl7android8hardware4gnss37IGnssNavigationMessageCallbackDefaultE"
  },
  {
   "name" : "_ZTVN4aidl7android8hardware4gnss38IGnssNavigationMessageInterfaceDefaultE"
  },
  {
   "name" : "_ZTVN4aidl7android8hardware4gnss5IGnssE"
  },
  {
   "name" : "_ZTVN4aidl7android8hardware4gnss6BnGnssE"
  },
  {
   "name" : "_ZTVN4aidl7android8hardware4gnss6BpGnssE"
  },
  {
   "name" : "_ZTVN4aidl7android8hardware4gnss6IAGnssE"
  },
  {
   "name" : "_ZTVN4aidl7android8hardware4gnss7BnAGnssE"
  },
  {
   "name" : "_ZTVN4aidl7android8hardware4gnss7BpAGnssE"
  },
  {
   "name" : "_ZTVN4aidl7android8hardware4gnss9IAGnssRilE"
  },
  {
   "name" : "_ZTVN4aidl7android8hardware4gnss9IGnssPsdsE"
  },
  {
   "binding" : "weak",
   "name" : "_ZTVNSt3__120__shared_ptr_pointerIPN3ndk13SharedRefBaseENS_14default_deleteIS2_EENS_9allocatorIS2_EEEE"
  }
 ],
 "enum_types" :
 [
  {
   "alignment" : 4,
   "enum_fields" :
   [
    {
     "enum_field_value" : 1,
     "name" : "FLAG_ONEWAY"
    }
   ],
   "linker_set_key" : "_ZTI12$FLAG_ONEWAY",
   "name" : "(unnamed enum at frameworks/native/libs/binder/ndk/include_ndk/android/binder_ibinder.h:43:1)",
   "referenced_type" : "_ZTI12$FLAG_ONEWAY",
   "self_type" : "_ZTI12$FLAG_ONEWAY",
   "size" : 4,
   "source_file" : "frameworks/native/libs/binder/ndk/include_ndk/android/binder_ibinder.h",
   "underlying_type" : "_ZTIj"
  },
  {
   "alignment" : 4,
   "enum_fields" :
   [
    {
     "enum_field_value" : 0,
     "name" : "EX_NONE"
    },
    {
     "enum_field_value" : -1,
     "name" : "EX_SECURITY"
    },
    {
     "enum_field_value" : -2,
     "name" : "EX_BAD_PARCELABLE"
    },
    {
     "enum_field_value" : -3,
     "name" : "EX_ILLEGAL_ARGUMENT"
    },
    {
     "enum_field_value" : -4,
     "name" : "EX_NULL_POINTER"
    },
    {
     "enum_field_value" : -5,
     "name" : "EX_ILLEGAL_STATE"
    },
    {
     "enum_field_value" : -6,
     "name" : "EX_NETWORK_MAIN_THREAD"
    },
    {
     "enum_field_value" : -7,
     "name" : "EX_UNSUPPORTED_OPERATION"
    },
    {
     "enum_field_value" : -8,
     "name" : "EX_SERVICE_SPECIFIC"
    },
    {
     "enum_field_value" : -9,
     "name" : "EX_PARCELABLE"
    },
    {
     "enum_field_value" : -129,
     "name" : "EX_TRANSACTION_FAILED"
    }
   ],
   "linker_set_key" : "_ZTI18$EX_BAD_PARCELABLE",
   "name" : "(unnamed enum at frameworks/native/libs/binder/ndk/include_ndk/android/binder_status.h:94:1)",
   "referenced_type" : "_ZTI18$EX_BAD_PARCELABLE",
   "self_type" : "_ZTI18$EX_BAD_PARCELABLE",
   "size" : 4,
   "source_file" : "frameworks/native/libs/binder/ndk/include_ndk/android/binder_status.h",
   "underlying_type" : "_ZTIi"
  },
  {
   "alignment" : 4,
   "enum_fields" :
   [
    {
     "enum_field_value" : 268435456,
     "name" : "FLAG_PRIVATE_LOCAL"
    }
   ],
   "linker_set_key" : "_ZTI19$FLAG_PRIVATE_LOCAL",
   "name" : "(unnamed enum at frameworks/native/libs/binder/ndk/include_platform/android/binder_stability.h:35:1)",
   "referenced_type" : "_ZTI19$FLAG_PRIVATE_LOCAL",
   "self_type" : "_ZTI19$FLAG_PRIVATE_LOCAL",
   "size" : 4,
   "source_file" : "frameworks/native/libs/binder/ndk/include_platform/android/binder_stability.h",
   "underlying_type" : "_ZTIj"
  },
  {
   "alignment" : 4,
   "enum_fields" :
   [
    {
     "enum_field_value" : 268435456,
     "name" : "FLAG_PRIVATE_VENDOR"
    }
   ],
   "linker_set_key" : "_ZTI20$FLAG_PRIVATE_VENDOR",
   "name" : "(unnamed enum at frameworks/native/libs/binder/ndk/include_platform/android/binder_stability.h:26:1)",
   "referenced_type" : "_ZTI20$FLAG_PRIVATE_VENDOR",
   "self_type" : "_ZTI20$FLAG_PRIVATE_VENDOR",
   "size" : 4,
   "source_file" : "frameworks/native/libs/binder/ndk/include_platform/android/binder_stability.h",
   "underlying_type" : "_ZTIj"
  },
  {
   "alignment" : 4,
   "enum_fields" :
   [
    {
     "enum_field_value" : 0,
     "name" : "STATUS_OK"
    },
    {
     "enum_field_value" : -2147483648,
     "name" : "STATUS_UNKNOWN_ERROR"
    },
    {
     "enum_field_value" : -12,
     "name" : "STATUS_NO_MEMORY"
    },
    {
     "enum_field_value" : -38,
     "name" : "STATUS_INVALID_OPERATION"
    },
    {
     "enum_field_value" : -22,
     "name" : "STATUS_BAD_VALUE"
    },
    {
     "enum_field_value" : -2147483647,
     "name" : "STATUS_BAD_TYPE"
    },
    {
     "enum_field_value" : -2,
     "name" : "STATUS_NAME_NOT_FOUND"
    },
    {
     "enum_field_value" : -1,
     "name" : "STATUS_PERMISSION_DENIED"
    },
    {
     "enum_field_value" : -19,
     "name" : "STATUS_NO_INIT"
    },
    {
     "enum_field_value" : -17,
     "name" : "STATUS_ALREADY_EXISTS"
    },
    {
     "enum_field_value" : -32,
     "name" : "STATUS_DEAD_OBJECT"
    },
    {
     "enum_field_value" : -2147483646,
     "name" : "STATUS_FAILED_TRANSACTION"
    },
    {
     "enum_field_value" : -75,
     "name" : "STATUS_BAD_INDEX"
    },
    {
     "enum_field_value" : -61,
     "name" : "STATUS_NOT_ENOUGH_DATA"
    },
    {
     "enum_field_value" : -11,
     "name" : "STATUS_WOULD_BLOCK"
    },
    {
     "enum_field_value" : -110,
     "name" : "STATUS_TIMED_OUT"
    },
    {
     "enum_field_value" : -74,
     "name" : "STATUS_UNKNOWN_TRANSACTION"
    },
    {
     "enum_field_value" : -2147483641,
     "name" : "STATUS_FDS_NOT_ALLOWED"
    },
    {
     "enum_field_value" : -2147483640,
     "name" : "STATUS_UNEXPECTED_NULL"
    }
   ],
   "linker_set_key" : "_ZTI22$STATUS_ALREADY_EXISTS",
   "name" : "(unnamed enum at frameworks/native/libs/binder/ndk/include_ndk/android/binder_status.h:60:1)",
   "referenced_type" : "_ZTI22$STATUS_ALREADY_EXISTS",
   "self_type" : "_ZTI22$STATUS_ALREADY_EXISTS",
   "size" : 4,
   "source_file" : "frameworks/native/libs/binder/ndk/include_ndk/android/binder_status.h",
   "underlying_type" : "_ZTIi"
  },
  {
   "alignment" : 4,
   "enum_fields" :
   [
    {
     "enum_field_value" : 1,
     "name" : "FIRST_CALL_TRANSACTION"
    },
    {
     "enum_field_value" : 16777215,
     "name" : "LAST_CALL_TRANSACTION"
    }
   ],
   "linker_set_key" : "_ZTI23$FIRST_CALL_TRANSACTION",
   "name" : "(unnamed enum at frameworks/native/libs/binder/ndk/include_ndk/android/binder_ibinder.h:58:1)",
   "referenced_type" : "_ZTI23$FIRST_CALL_TRANSACTION",
   "self_type" : "_ZTI23$FIRST_CALL_TRANSACTION",
   "size" : 4,
   "source_file" : "frameworks/native/libs/binder/ndk/include_ndk/android/binder_ibinder.h",
   "underlying_type" : "_ZTIj"
  },
  {
   "alignment" : 4,
   "enum_fields" :
   [
    {
     "enum_field_value" : 0,
     "name" : "ndk::STABILITY_LOCAL"
    },
    {
     "enum_field_value" : 1,
     "name" : "ndk::STABILITY_VINTF"
    }
   ],
   "linker_set_key" : "_ZTIN3ndk16$STABILITY_LOCALE",
   "name" : "ndk::(unnamed enum at frameworks/native/libs/binder/ndk/include_cpp/android/binder_parcelable_utils.h:34:1)",
   "referenced_type" : "_ZTIN3ndk16$STABILITY_LOCALE",
   "self_type" : "_ZTIN3ndk16$STABILITY_LOCALE",
   "size" : 4,
   "source_file" : "frameworks/native/libs/binder/ndk/include_cpp/android/binder_parcelable_utils.h",
   "underlying_type" : "_ZTIj"
  },
  {
   "alignment" : 4,
   "enum_fields" :
   [
    {
     "enum_field_value" : 0,
     "name" : "aidl::android::hardware::gnss::IGnssDebug::SatelliteEphemerisType::EPHEMERIS"
    },
    {
     "enum_field_value" : 1,
     "name" : "aidl::android::hardware::gnss::IGnssDebug::SatelliteEphemerisType::ALMANAC_ONLY"
    },
    {
     "enum_field_value" : 2,
     "name" : "aidl::android::hardware::gnss::IGnssDebug::SatelliteEphemerisType::NOT_AVAILABLE"
    }
   ],
   "linker_set_key" : "_ZTIN4aidl7android8hardware4gnss10IGnssDebug22SatelliteEphemerisTypeE",
   "name" : "aidl::android::hardware::gnss::IGnssDebug::SatelliteEphemerisType",
   "referenced_type" : "_ZTIN4aidl7android8hardware4gnss10IGnssDebug22SatelliteEphemerisTypeE",
   "self_type" : "_ZTIN4aidl7android8hardware4gnss10IGnssDebug22SatelliteEphemerisTypeE",
   "size" : 4,
   "source_file" : "out/soong/.intermediates/hardware/interfaces/gnss/aidl/android.hardware.gnss-V2-ndk-source/gen/include/aidl/android/hardware/gnss/IGnssDebug.h",
   "underlying_type" : "_ZTIi"
  },
  {
   "alignment" : 4,
   "enum_fields" :
   [
    {
     "enum_field_value" : 0,
     "name" : "aidl::android::hardware::gnss::IGnssDebug::SatelliteEphemerisHealth::GOOD"
    },
    {
     "enum_field_value" : 1,
     "name" : "aidl::android::hardware::gnss::IGnssDebug::SatelliteEphemerisHealth::BAD"
    },
    {
     "enum_field_value" : 2,
     "name" : "aidl::android::hardware::gnss::IGnssDebug::SatelliteEphemerisHealth::UNKNOWN"
    }
   ],
   "linker_set_key" : "_ZTIN4aidl7android8hardware4gnss10IGnssDebug24SatelliteEphemerisHealthE",
   "name" : "aidl::android::hardware::gnss::IGnssDebug::SatelliteEphemerisHealth",
   "referenced_type" : "_ZTIN4aidl7android8hardware4gnss10IGnssDebug24SatelliteEphemerisHealthE",
   "self_type" : "_ZTIN4aidl7android8hardware4gnss10IGnssDebug24SatelliteEphemerisHealthE",
   "size" : 4,
   "source_file" : "out/soong/.intermediates/hardware/interfaces/gnss/aidl/android.hardware.gnss-V2-ndk-source/gen/include/aidl/android/hardware/gnss/IGnssDebug.h",
   "underlying_type" : "_ZTIi"
  },
  {
   "alignment" : 4,
   "enum_fields" :
   [
    {
     "enum_field_value" : 4,
     "name" : "aidl::android::hardware::gnss::GnssLocation::HAS_SPEED"
    }
   ],
   "linker_set_key" : "_ZTIN4aidl7android8hardware4gnss12GnssLocation10$HAS_SPEEDE",
   "name" : "aidl::android::hardware::gnss::GnssLocation::(unnamed enum at out/soong/.intermediates/hardware/interfaces/gnss/aidl/android.hardware.gnss-V2-ndk-source/gen/include/aidl/android/hardware/gnss/GnssLocation.h:63:3)",
   "referenced_type" : "_ZTIN4aidl7android8hardware4gnss12GnssLocation10$HAS_SPEEDE",
   "self_type" : "_ZTIN4aidl7android8hardware4gnss12GnssLocation10$HAS_SPEEDE",
   "size" : 4,
   "source_file" : "out/soong/.intermediates/hardware/interfaces/gnss/aidl/android.hardware.gnss-V2-ndk-source/gen/include/aidl/android/hardware/gnss/GnssLocation.h",
   "underlying_type" : "_ZTIi"
  },
  {
   "alignment" : 4,
   "enum_fields" :
   [
    {
     "enum_field_value" : 8,
     "name" : "aidl::android::hardware::gnss::GnssLocation::HAS_BEARING"
    }
   ],
   "linker_set_key" : "_ZTIN4aidl7android8hardware4gnss12GnssLocation12$HAS_BEARINGE",
   "name" : "aidl::android::hardware::gnss::GnssLocation::(unnamed enum at out/soong/.intermediates/hardware/interfaces/gnss/aidl/android.hardware.gnss-V2-ndk-source/gen/include/aidl/android/hardware/gnss/GnssLocation.h:64:3)",
   "referenced_type" : "_ZTIN4aidl7android8hardware4gnss12GnssLocation12$HAS_BEARINGE",
   "self_type" : "_ZTIN4aidl7android8hardware4gnss12GnssLocation12$HAS_BEARINGE",
   "size" : 4,
   "source_file" : "out/soong/.intermediates/hardware/interfaces/gnss/aidl/android.hardware.gnss-V2-ndk-source/gen/include/aidl/android/hardware/gnss/GnssLocation.h",
   "underlying_type" : "_ZTIi"
  },
  {
   "alignment" : 4,
   "enum_fields" :
   [
    {
     "enum_field_value" : 2,
     "name" : "aidl::android::hardware::gnss::GnssLocation::HAS_ALTITUDE"
    }
   ],
   "linker_set_key" : "_ZTIN4aidl7android8hardware4gnss12GnssLocation13$HAS_ALTITUDEE",
   "name" : "aidl::android::hardware::gnss::GnssLocation::(unnamed enum at out/soong/.intermediates/hardware/interfaces/gnss/aidl/android.hardware.gnss-V2-ndk-source/gen/include/aidl/android/hardware/gnss/GnssLocation.h:62:3)",
   "referenced_type" : "_ZTIN4aidl7android8hardware4gnss12GnssLocation13$HAS_ALTITUDEE",
   "self_type" : "_ZTIN4aidl7android8hardware4gnss12GnssLocation13$HAS_ALTITUDEE",
   "size" : 4,
   "source_file" : "out/soong/.intermediates/hardware/interfaces/gnss/aidl/android.hardware.gnss-V2-ndk-source/gen/include/aidl/android/hardware/gnss/GnssLocation.h",
   "underlying_type" : "_ZTIi"
  },
  {
   "alignment" : 4,
   "enum_fields" :
   [
    {
     "enum_field_value" : 1,
     "name" : "aidl::android::hardware::gnss::GnssLocation::HAS_LAT_LONG"
    }
   ],
   "linker_set_key" : "_ZTIN4aidl7android8hardware4gnss12GnssLocation13$HAS_LAT_LONGE",
   "name" : "aidl::android::hardware::gnss::GnssLocation::(unnamed enum at out/soong/.intermediates/hardware/interfaces/gnss/aidl/android.hardware.gnss-V2-ndk-source/gen/include/aidl/android/hardware/gnss/GnssLocation.h:61:3)",
   "referenced_type" : "_ZTIN4aidl7android8hardware4gnss12GnssLocation13$HAS_LAT_LONGE",
   "self_type" : "_ZTIN4aidl7android8hardware4gnss12GnssLocation13$HAS_LAT_LONGE",
   "size" : 4,
   "source_file" : "out/soong/.intermediates/hardware/interfaces/gnss/aidl/android.hardware.gnss-V2-ndk-source/gen/include/aidl/android/hardware/gnss/GnssLocation.h",
   "underlying_type" : "_ZTIi"
  },
  {
   "alignment" : 4,
   "enum_fields" :
   [
    {
     "enum_field_value" : 64,
     "name" : "aidl::android::hardware::gnss::GnssLocation::HAS_SPEED_ACCURACY"
    }
   ],
   "linker_set_key" : "_ZTIN4aidl7android8hardware4gnss12GnssLocation19$HAS_SPEED_ACCURACYE",
   "name" : "aidl::android::hardware::gnss::GnssLocation::(unnamed enum at out/soong/.intermediates/hardware/interfaces/gnss/aidl/android.hardware.gnss-V2-ndk-source/gen/include/aidl/android/hardware/gnss/GnssLocation.h:67:3)",
   "referenced_type" : "_ZTIN4aidl7android8hardware4gnss12GnssLocation19$HAS_SPEED_ACCURACYE",
   "self_type" : "_ZTIN4aidl7android8hardware4gnss12GnssLocation19$HAS_SPEED_ACCURACYE",
   "size" : 4,
   "source_file" : "out/soong/.intermediates/hardware/interfaces/gnss/aidl/android.hardware.gnss-V2-ndk-source/gen/include/aidl/android/hardware/gnss/GnssLocation.h",
   "underlying_type" : "_ZTIi"
  },
  {
   "alignment" : 4,
   "enum_fields" :
   [
    {
     "enum_field_value" : 128,
     "name" : "aidl::android::hardware::gnss::GnssLocation::HAS_BEARING_ACCURACY"
    }
   ],
   "linker_set_key" : "_ZTIN4aidl7android8hardware4gnss12GnssLocation21$HAS_BEARING_ACCURACYE",
   "name" : "aidl::android::hardware::gnss::GnssLocation::(unnamed enum at out/soong/.intermediates/hardware/interfaces/gnss/aidl/android.hardware.gnss-V2-ndk-source/gen/include/aidl/android/hardware/gnss/GnssLocation.h:68:3)",
   "referenced_type" : "_ZTIN4aidl7android8hardware4gnss12GnssLocation21$HAS_BEARING_ACCURACYE",
   "self_type" : "_ZTIN4aidl7android8hardware4gnss12GnssLocation21$HAS_BEARING_ACCURACYE",
   "size" : 4,
   "source_file" : "out/soong/.intermediates/hardware/interfaces/gnss/aidl/android.hardware.gnss-V2-ndk-source/gen/include/aidl/android/hardware/gnss/GnssLocation.h",
   "underlying_type" : "_ZTIi"
  },
  {
   "alignment" : 4,
   "enum_fields" :
   [
    {
     "enum_field_value" : 32,
     "name" : "aidl::android::hardware::gnss::GnssLocation::HAS_VERTICAL_ACCURACY"
    }
   ],
   "linker_set_key" : "_ZTIN4aidl7android8hardware4gnss12GnssLocation22$HAS_VERTICAL_ACCURACYE",
   "name" : "aidl::android::hardware::gnss::GnssLocation::(unnamed enum at out/soong/.intermediates/hardware/interfaces/gnss/aidl/android.hardware.gnss-V2-ndk-source/gen/include/aidl/android/hardware/gnss/GnssLocation.h:66:3)",
   "referenced_type" : "_ZTIN4aidl7android8hardware4gnss12GnssLocation22$HAS_VERTICAL_ACCURACYE",
   "self_type" : "_ZTIN4aidl7android8hardware4gnss12GnssLocation22$HAS_VERTICAL_ACCURACYE",
   "size" : 4,
   "source_file" : "out/soong/.intermediates/hardware/interfaces/gnss/aidl/android.hardware.gnss-V2-ndk-source/gen/include/aidl/android/hardware/gnss/GnssLocation.h",
   "underlying_type" : "_ZTIi"
  },
  {
   "alignment" : 4,
   "enum_fields" :
   [
    {
     "enum_field_value" : 16,
     "name" : "aidl::android::hardware::gnss::GnssLocation::HAS_HORIZONTAL_ACCURACY"
    }
   ],
   "linker_set_key" : "_ZTIN4aidl7android8hardware4gnss12GnssLocation24$HAS_HORIZONTAL_ACCURACYE",
   "name" : "aidl::android::hardware::gnss::GnssLocation::(unnamed enum at out/soong/.intermediates/hardware/interfaces/gnss/aidl/android.hardware.gnss-V2-ndk-source/gen/include/aidl/android/hardware/gnss/GnssLocation.h:65:3)",
   "referenced_type" : "_ZTIN4aidl7android8hardware4gnss12GnssLocation24$HAS_HORIZONTAL_ACCURACYE",
   "self_type" : "_ZTIN4aidl7android8hardware4gnss12GnssLocation24$HAS_HORIZONTAL_ACCURACYE",
   "size" : 4,
   "source_file" : "out/soong/.intermediates/hardware/interfaces/gnss/aidl/android.hardware.gnss-V2-ndk-source/gen/include/aidl/android/hardware/gnss/GnssLocation.h",
   "underlying_type" : "_ZTIi"
  },
  {
   "alignment" : 4,
   "enum_fields" :
   [
    {
     "enum_field_value" : 4,
     "name" : "aidl::android::hardware::gnss::SatellitePvt::HAS_TROPO"
    }
   ],
   "linker_set_key" : "_ZTIN4aidl7android8hardware4gnss12SatellitePvt10$HAS_TROPOE",
   "name" : "aidl::android::hardware::gnss::SatellitePvt::(unnamed enum at out/soong/.intermediates/hardware/interfaces/gnss/aidl/android.hardware.gnss-V2-ndk-source/gen/include/aidl/android/hardware/gnss/SatellitePvt.h:74:3)",
   "referenced_type" : "_ZTIN4aidl7android8hardware4gnss12SatellitePvt10$HAS_TROPOE",
   "self_type" : "_ZTIN4aidl7android8hardware4gnss12SatellitePvt10$HAS_TROPOE",
   "size" : 4,
   "source_file" : "out/soong/.intermediates/hardware/interfaces/gnss/aidl/android.hardware.gnss-V2-ndk-source/gen/include/aidl/android/hardware/gnss/SatellitePvt.h",
   "underlying_type" : "_ZTIi"
  },
  {
   "alignment" : 4,
   "enum_fields" :
   [
    {
     "enum_field_value" : 0,
     "name" : "aidl::android::hardware::gnss::SatellitePvt::SatelliteEphemerisSource::DEMODULATED"
    },
    {
     "enum_field_value" : 1,
     "name" : "aidl::android::hardware::gnss::SatellitePvt::SatelliteEphemerisSource::SERVER_NORMAL"
    },
    {
     "enum_field_value" : 2,
     "name" : "aidl::android::hardware::gnss::SatellitePvt::SatelliteEphemerisSource::SERVER_LONG_TERM"
    },
    {
     "enum_field_value" : 3,
     "name" : "aidl::android::hardware::gnss::SatellitePvt::SatelliteEphemerisSource::OTHER"
    }
   ],
   "linker_set_key" : "_ZTIN4aidl7android8hardware4gnss12SatellitePvt24SatelliteEphemerisSourceE",
   "name" : "aidl::android::hardware::gnss::SatellitePvt::SatelliteEphemerisSource",
   "referenced_type" : "_ZTIN4aidl7android8hardware4gnss12SatellitePvt24SatelliteEphemerisSourceE",
   "self_type" : "_ZTIN4aidl7android8hardware4gnss12SatellitePvt24SatelliteEphemerisSourceE",
   "size" : 4,
   "source_file" : "out/soong/.intermediates/hardware/interfaces/gnss/aidl/android.hardware.gnss-V2-ndk-source/gen/include/aidl/android/hardware/gnss/SatellitePvt.h",
   "underlying_type" : "_ZTIi"
  },
  {
   "alignment" : 4,
   "enum_fields" :
   [
    {
     "enum_field_value" : 1,
     "name" : "aidl::android::hardware::gnss::SatellitePvt::HAS_POSITION_VELOCITY_CLOCK_INFO"
    }
   ],
   "linker_set_key" : "_ZTIN4aidl7android8hardware4gnss12SatellitePvt33$HAS_POSITION_VELOCITY_CLOCK_INFOE",
   "name" : "aidl::android::hardware::gnss::SatellitePvt::(unnamed enum at out/soong/.intermediates/hardware/interfaces/gnss/aidl/android.hardware.gnss-V2-ndk-source/gen/include/aidl/android/hardware/gnss/SatellitePvt.h:72:3)",
   "referenced_type" : "_ZTIN4aidl7android8hardware4gnss12SatellitePvt33$HAS_POSITION_VELOCITY_CLOCK_INFOE",
   "self_type" : "_ZTIN4aidl7android8hardware4gnss12SatellitePvt33$HAS_POSITION_VELOCITY_CLOCK_INFOE",
   "size" : 4,
   "source_file" : "out/soong/.intermediates/hardware/interfaces/gnss/aidl/android.hardware.gnss-V2-ndk-source/gen/include/aidl/android/hardware/gnss/SatellitePvt.h",
   "underlying_type" : "_ZTIi"
  },
  {
   "alignment" : 4,
   "enum_fields" :
   [
    {
     "enum_field_value" : 2,
     "name" : "aidl::android::hardware::gnss::SatellitePvt::HAS_IONO"
    }
   ],
   "linker_set_key" : "_ZTIN4aidl7android8hardware4gnss12SatellitePvt9$HAS_IONOE",
   "name" : "aidl::android::hardware::gnss::SatellitePvt::(unnamed enum at out/soong/.intermediates/hardware/interfaces/gnss/aidl/android.hardware.gnss-V2-ndk-source/gen/include/aidl/android/hardware/gnss/SatellitePvt.h:73:3)",
   "referenced_type" : "_ZTIN4aidl7android8hardware4gnss12SatellitePvt9$HAS_IONOE",
   "self_type" : "_ZTIN4aidl7android8hardware4gnss12SatellitePvt9$HAS_IONOE",
   "size" : 4,
   "source_file" : "out/soong/.intermediates/hardware/interfaces/gnss/aidl/android.hardware.gnss-V2-ndk-source/gen/include/aidl/android/hardware/gnss/SatellitePvt.h",
   "underlying_type" : "_ZTIi"
  },
  {
   "alignment" : 4,
   "enum_fields" :
   [
    {
     "enum_field_value" : 1,
     "name" : "aidl::android::hardware::gnss::IGnssBatching::WAKEUP_ON_FIFO_FULL"
    }
   ],
   "linker_set_key" : "_ZTIN4aidl7android8hardware4gnss13IGnssBatching20$WAKEUP_ON_FIFO_FULLE",
   "name" : "aidl::android::hardware::gnss::IGnssBatching::(unnamed enum at out/soong/.intermediates/hardware/interfaces/gnss/aidl/android.hardware.gnss-V2-ndk-source/gen/include/aidl/android/hardware/gnss/IGnssBatching.h:69:3)",
   "referenced_type" : "_ZTIN4aidl7android8hardware4gnss13IGnssBatching20$WAKEUP_ON_FIFO_FULLE",
   "self_type" : "_ZTIN4aidl7android8hardware4gnss13IGnssBatching20$WAKEUP_ON_FIFO_FULLE",
   "size" : 4,
   "source_file" : "out/soong/.intermediates/hardware/interfaces/gnss/aidl/android.hardware.gnss-V2-ndk-source/gen/include/aidl/android/hardware/gnss/IGnssBatching.h",
   "underlying_type" : "_ZTIi"
  },
  {
   "alignment" : 4,
   "enum_fields" :
   [
    {
     "enum_field_value" : 0,
     "name" : "aidl::android::hardware::gnss::IGnssCallback::GnssSvFlags::NONE"
    },
    {
     "enum_field_value" : 1,
     "name" : "aidl::android::hardware::gnss::IGnssCallback::GnssSvFlags::HAS_EPHEMERIS_DATA"
    },
    {
     "enum_field_value" : 2,
     "name" : "aidl::android::hardware::gnss::IGnssCallback::GnssSvFlags::HAS_ALMANAC_DATA"
    },
    {
     "enum_field_value" : 4,
     "name" : "aidl::android::hardware::gnss::IGnssCallback::GnssSvFlags::USED_IN_FIX"
    },
    {
     "enum_field_value" : 8,
     "name" : "aidl::android::hardware::gnss::IGnssCallback::GnssSvFlags::HAS_CARRIER_FREQUENCY"
    }
   ],
   "linker_set_key" : "_ZTIN4aidl7android8hardware4gnss13IGnssCallback11GnssSvFlagsE",
   "name" : "aidl::android::hardware::gnss::IGnssCallback::GnssSvFlags",
   "referenced_type" : "_ZTIN4aidl7android8hardware4gnss13IGnssCallback11GnssSvFlagsE",
   "self_type" : "_ZTIN4aidl7android8hardware4gnss13IGnssCallback11GnssSvFlagsE",
   "size" : 4,
   "source_file" : "out/soong/.intermediates/hardware/interfaces/gnss/aidl/android.hardware.gnss-V2-ndk-source/gen/include/aidl/android/hardware/gnss/IGnssCallback.h",
   "underlying_type" : "_ZTIi"
  },
  {
   "alignment" : 4,
   "enum_fields" :
   [
    {
     "enum_field_value" : 4,
     "name" : "aidl::android::hardware::gnss::IGnssCallback::CAPABILITY_MSA"
    }
   ],
   "linker_set_key" : "_ZTIN4aidl7android8hardware4gnss13IGnssCallback15$CAPABILITY_MSAE",
   "name" : "aidl::android::hardware::gnss::IGnssCallback::(unnamed enum at out/soong/.intermediates/hardware/interfaces/gnss/aidl/android.hardware.gnss-V2-ndk-source/gen/include/aidl/android/hardware/gnss/IGnssCallback.h:140:3)",
   "referenced_type" : "_ZTIN4aidl7android8hardware4gnss13IGnssCallback15$CAPABILITY_MSAE",
   "self_type" : "_ZTIN4aidl7android8hardware4gnss13IGnssCallback15$CAPABILITY_MSAE",
   "size" : 4,
   "source_file" : "out/soong/.intermediates/hardware/interfaces/gnss/aidl/android.hardware.gnss-V2-ndk-source/gen/include/aidl/android/hardware/gnss/IGnssCallback.h",
   "underlying_type" : "_ZTIi"
  },
  {
   "alignment" : 4,
   "enum_fields" :
   [
    {
     "enum_field_value" : 2,
     "name" : "aidl::android::hardware::gnss::IGnssCallback::CAPABILITY_MSB"
    }
   ],
   "linker_set_key" : "_ZTIN4aidl7android8hardware4gnss13IGnssCallback15$CAPABILITY_MSBE",
   "name" : "aidl::android::hardware::gnss::IGnssCallback::(unnamed enum at out/soong/.intermediates/hardware/interfaces/gnss/aidl/android.hardware.gnss-V2-ndk-source/gen/include/aidl/android/hardware/gnss/IGnssCallback.h:139:3)",
   "referenced_type" : "_ZTIN4aidl7android8hardware4gnss13IGnssCallback15$CAPABILITY_MSBE",
   "self_type" : "_ZTIN4aidl7android8hardware4gnss13IGnssCallback15$CAPABILITY_MSBE",
   "size" : 4,
   "source_file" : "out/soong/.intermediates/hardware/interfaces/gnss/aidl/android.hardware.gnss-V2-ndk-source/gen/include/aidl/android/hardware/gnss/IGnssCallback.h",
   "underlying_type" : "_ZTIi"
  },
  {
   "alignment" : 4,
   "enum_fields" :
   [
    {
     "enum_field_value" : 0,
     "name" : "aidl::android::hardware::gnss::IGnssCallback::GnssStatusValue::NONE"
    },
    {
     "enum_field_value" : 1,
     "name" : "aidl::android::hardware::gnss::IGnssCallback::GnssStatusValue::SESSION_BEGIN"
    },
    {
     "enum_field_value" : 2,
     "name" : "aidl::android::hardware::gnss::IGnssCallback::GnssStatusValue::SESSION_END"
    },
    {
     "enum_field_value" : 3,
     "name" : "aidl::android::hardware::gnss::IGnssCallback::GnssStatusValue::ENGINE_ON"
    },
    {
     "enum_field_value" : 4,
     "name" : "aidl::android::hardware::gnss::IGnssCallback::GnssStatusValue::ENGINE_OFF"
    }
   ],
   "linker_set_key" : "_ZTIN4aidl7android8hardware4gnss13IGnssCallback15GnssStatusValueE",
   "name" : "aidl::android::hardware::gnss::IGnssCallback::GnssStatusValue",
   "referenced_type" : "_ZTIN4aidl7android8hardware4gnss13IGnssCallback15GnssStatusValueE",
   "self_type" : "_ZTIN4aidl7android8hardware4gnss13IGnssCallback15GnssStatusValueE",
   "size" : 4,
   "source_file" : "out/soong/.intermediates/hardware/interfaces/gnss/aidl/android.hardware.gnss-V2-ndk-source/gen/include/aidl/android/hardware/gnss/IGnssCallback.h",
   "underlying_type" : "_ZTIi"
  },
  {
   "alignment" : 4,
   "enum_fields" :
   [
    {
     "enum_field_value" : 32,
     "name" : "aidl::android::hardware::gnss::IGnssCallback::CAPABILITY_GEOFENCING"
    }
   ],
   "linker_set_key" : "_ZTIN4aidl7android8hardware4gnss13IGnssCallback22$CAPABILITY_GEOFENCINGE",
   "name" : "aidl::android::hardware::gnss::IGnssCallback::(unnamed enum at out/soong/.intermediates/hardware/interfaces/gnss/aidl/android.hardware.gnss-V2-ndk-source/gen/include/aidl/android/hardware/gnss/IGnssCallback.h:143:3)",
   "referenced_type" : "_ZTIN4aidl7android8hardware4gnss13IGnssCallback22$CAPABILITY_GEOFENCINGE",
   "self_type" : "_ZTIN4aidl7android8hardware4gnss13IGnssCallback22$CAPABILITY_GEOFENCINGE",
   "size" : 4,
   "source_file" : "out/soong/.intermediates/hardware/interfaces/gnss/aidl/android.hardware.gnss-V2-ndk-source/gen/include/aidl/android/hardware/gnss/IGnssCallback.h",
   "underlying_type" : "_ZTIi"
  },
  {
   "alignment" : 4,
   "enum_fields" :
   [
    {
     "enum_field_value" : 1,
     "name" : "aidl::android::hardware::gnss::IGnssCallback::CAPABILITY_SCHEDULING"
    }
   ],
   "linker_set_key" : "_ZTIN4aidl7android8hardware4gnss13IGnssCallback22$CAPABILITY_SCHEDULINGE",
   "name" : "aidl::android::hardware::gnss::IGnssCallback::(unnamed enum at out/soong/.intermediates/hardware/interfaces/gnss/aidl/android.hardware.gnss-V2-ndk-source/gen/include/aidl/android/hardware/gnss/IGnssCallback.h:138:3)",
   "referenced_type" : "_ZTIN4aidl7android8hardware4gnss13IGnssCallback22$CAPABILITY_SCHEDULINGE",
   "self_type" : "_ZTIN4aidl7android8hardware4gnss13IGnssCallback22$CAPABILITY_SCHEDULINGE",
   "size" : 4,
   "source_file" : "out/soong/.intermediates/hardware/interfaces/gnss/aidl/android.hardware.gnss-V2-ndk-source/gen/include/aidl/android/hardware/gnss/IGnssCallback.h",
   "underlying_type" : "_ZTIi"
  },
  {
   "alignment" : 4,
   "enum_fields" :
   [
    {
     "enum_field_value" : 8,
     "name" : "aidl::android::hardware::gnss::IGnssCallback::CAPABILITY_SINGLE_SHOT"
    }
   ],
   "linker_set_key" : "_ZTIN4aidl7android8hardware4gnss13IGnssCallback23$CAPABILITY_SINGLE_SHOTE",
   "name" : "aidl::android::hardware::gnss::IGnssCallback::(unnamed enum at out/soong/.intermediates/hardware/interfaces/gnss/aidl/android.hardware.gnss-V2-ndk-source/gen/include/aidl/android/hardware/gnss/IGnssCallback.h:141:3)",
   "referenced_type" : "_ZTIN4aidl7android8hardware4gnss13IGnssCallback23$CAPABILITY_SINGLE_SHOTE",
   "self_type" : "_ZTIN4aidl7android8hardware4gnss13IGnssCallback23$CAPABILITY_SINGLE_SHOTE",
   "size" : 4,
   "source_file" : "out/soong/.intermediates/hardware/interfaces/gnss/aidl/android.hardware.gnss-V2-ndk-source/gen/include/aidl/android/hardware/gnss/IGnssCallback.h",
   "underlying_type" : "_ZTIi"
  },
  {
   "alignment" : 4,
   "enum_fields" :
   [
    {
     "enum_field_value" : 2048,
     "name" : "aidl::android::hardware::gnss::IGnssCallback::CAPABILITY_ANTENNA_INFO"
    }
   ],
   "linker_set_key" : "_ZTIN4aidl7android8hardware4gnss13IGnssCallback24$CAPABILITY_ANTENNA_INFOE",
   "name" : "aidl::android::hardware::gnss::IGnssCallback::(unnamed enum at out/soong/.intermediates/hardware/interfaces/gnss/aidl/android.hardware.gnss-V2-ndk-source/gen/include/aidl/android/hardware/gnss/IGnssCallback.h:149:3)",
   "referenced_type" : "_ZTIN4aidl7android8hardware4gnss13IGnssCallback24$CAPABILITY_ANTENNA_INFOE",
   "self_type" : "_ZTIN4aidl7android8hardware4gnss13IGnssCallback24$CAPABILITY_ANTENNA_INFOE",
   "size" : 4,
   "source_file" : "out/soong/.intermediates/hardware/interfaces/gnss/aidl/android.hardware.gnss-V2-ndk-source/gen/include/aidl/android/hardware/gnss/IGnssCallback.h",
   "underlying_type" : "_ZTIi"
  },
  {
   "alignment" : 4,
   "enum_fields" :
   [
    {
     "enum_field_value" : 64,
     "name" : "aidl::android::hardware::gnss::IGnssCallback::CAPABILITY_MEASUREMENTS"
    }
   ],
   "linker_set_key" : "_ZTIN4aidl7android8hardware4gnss13IGnssCallback24$CAPABILITY_MEASUREMENTSE",
   "name" : "aidl::android::hardware::gnss::IGnssCallback::(unnamed enum at out/soong/.intermediates/hardware/interfaces/gnss/aidl/android.hardware.gnss-V2-ndk-source/gen/include/aidl/android/hardware/gnss/IGnssCallback.h:144:3)",
   "referenced_type" : "_ZTIN4aidl7android8hardware4gnss13IGnssCallback24$CAPABILITY_MEASUREMENTSE",
   "self_type" : "_ZTIN4aidl7android8hardware4gnss13IGnssCallback24$CAPABILITY_MEASUREMENTSE",
   "size" : 4,
   "source_file" : "out/soong/.intermediates/hardware/interfaces/gnss/aidl/android.hardware.gnss-V2-ndk-source/gen/include/aidl/android/hardware/gnss/IGnssCallback.h",
   "underlying_type" : "_ZTIi"
  },
  {
   "alignment" : 4,
   "enum_fields" :
   [
    {
     "enum_field_value" : 128,
     "name" : "aidl::android::hardware::gnss::IGnssCallback::CAPABILITY_NAV_MESSAGES"
    }
   ],
   "linker_set_key" : "_ZTIN4aidl7android8hardware4gnss13IGnssCallback24$CAPABILITY_NAV_MESSAGESE",
   "name" : "aidl::android::hardware::gnss::IGnssCallback::(unnamed enum at out/soong/.intermediates/hardware/interfaces/gnss/aidl/android.hardware.gnss-V2-ndk-source/gen/include/aidl/android/hardware/gnss/IGnssCallback.h:145:3)",
   "referenced_type" : "_ZTIN4aidl7android8hardware4gnss13IGnssCallback24$CAPABILITY_NAV_MESSAGESE",
   "self_type" : "_ZTIN4aidl7android8hardware4gnss13IGnssCallback24$CAPABILITY_NAV_MESSAGESE",
   "size" : 4,
   "source_file" : "out/soong/.intermediates/hardware/interfaces/gnss/aidl/android.hardware.gnss-V2-ndk-source/gen/include/aidl/android/hardware/gnss/IGnssCallback.h",
   "underlying_type" : "_ZTIi"
  },
  {
   "alignment" : 4,
   "enum_fields" :
   [
    {
     "enum_field_value" : 8192,
     "name" : "aidl::android::hardware::gnss::IGnssCallback::CAPABILITY_SATELLITE_PVT"
    }
   ],
   "linker_set_key" : "_ZTIN4aidl7android8hardware4gnss13IGnssCallback25$CAPABILITY_SATELLITE_PVTE",
   "name" : "aidl::android::hardware::gnss::IGnssCallback::(unnamed enum at out/soong/.intermediates/hardware/interfaces/gnss/aidl/android.hardware.gnss-V2-ndk-source/gen/include/aidl/android/hardware/gnss/IGnssCallback.h:151:3)",
   "referenced_type" : "_ZTIN4aidl7android8hardware4gnss13IGnssCallback25$CAPABILITY_SATELLITE_PVTE",
   "self_type" : "_ZTIN4aidl7android8hardware4gnss13IGnssCallback25$CAPABILITY_SATELLITE_PVTE",
   "size" : 4,
   "source_file" : "out/soong/.intermediates/hardware/interfaces/gnss/aidl/android.hardware.gnss-V2-ndk-source/gen/include/aidl/android/hardware/gnss/IGnssCallback.h",
   "underlying_type" : "_ZTIi"
  },
  {
   "alignment" : 4,
   "enum_fields" :
   [
    {
     "enum_field_value" : 256,
     "name" : "aidl::android::hardware::gnss::IGnssCallback::CAPABILITY_LOW_POWER_MODE"
    }
   ],
   "linker_set_key" : "_ZTIN4aidl7android8hardware4gnss13IGnssCallback26$CAPABILITY_LOW_POWER_MODEE",
   "name" : "aidl::android::hardware::gnss::IGnssCallback::(unnamed enum at out/soong/.intermediates/hardware/interfaces/gnss/aidl/android.hardware.gnss-V2-ndk-source/gen/include/aidl/android/hardware/gnss/IGnssCallback.h:146:3)",
   "referenced_type" : "_ZTIN4aidl7android8hardware4gnss13IGnssCallback26$CAPABILITY_LOW_POWER_MODEE",
   "self_type" : "_ZTIN4aidl7android8hardware4gnss13IGnssCallback26$CAPABILITY_LOW_POWER_MODEE",
   "size" : 4,
   "source_file" : "out/soong/.intermediates/hardware/interfaces/gnss/aidl/android.hardware.gnss-V2-ndk-source/gen/include/aidl/android/hardware/gnss/IGnssCallback.h",
   "underlying_type" : "_ZTIi"
  },
  {
   "alignment" : 4,
   "enum_fields" :
   [
    {
     "enum_field_value" : 16,
     "name" : "aidl::android::hardware::gnss::IGnssCallback::CAPABILITY_ON_DEMAND_TIME"
    }
   ],
   "linker_set_key" : "_ZTIN4aidl7android8hardware4gnss13IGnssCallback26$CAPABILITY_ON_DEMAND_TIMEE",
   "name" : "aidl::android::hardware::gnss::IGnssCallback::(unnamed enum at out/soong/.intermediates/hardware/interfaces/gnss/aidl/android.hardware.gnss-V2-ndk-source/gen/include/aidl/android/hardware/gnss/IGnssCallback.h:142:3)",
   "referenced_type" : "_ZTIN4aidl7android8hardware4gnss13IGnssCallback26$CAPABILITY_ON_DEMAND_TIMEE",
   "self_type" : "_ZTIN4aidl7android8hardware4gnss13IGnssCallback26$CAPABILITY_ON_DEMAND_TIMEE",
   "size" : 4,
   "source_file" : "out/soong/.intermediates/hardware/interfaces/gnss/aidl/android.hardware.gnss-V2-ndk-source/gen/include/aidl/android/hardware/gnss/IGnssCallback.h",
   "underlying_type" : "_ZTIi"
  },
  {
   "alignment" : 4,
   "enum_fields" :
   [
    {
     "enum_field_value" : 4096,
     "name" : "aidl::android::hardware::gnss::IGnssCallback::CAPABILITY_CORRELATION_VECTOR"
    }
   ],
   "linker_set_key" : "_ZTIN4aidl7android8hardware4gnss13IGnssCallback30$CAPABILITY_CORRELATION_VECTORE",
   "name" : "aidl::android::hardware::gnss::IGnssCallback::(unnamed enum at out/soong/.intermediates/hardware/interfaces/gnss/aidl/android.hardware.gnss-V2-ndk-source/gen/include/aidl/android/hardware/gnss/IGnssCallback.h:150:3)",
   "referenced_type" : "_ZTIN4aidl7android8hardware4gnss13IGnssCallback30$CAPABILITY_CORRELATION_VECTORE",
   "self_type" : "_ZTIN4aidl7android8hardware4gnss13IGnssCallback30$CAPABILITY_CORRELATION_VECTORE",
   "size" : 4,
   "source_file" : "out/soong/.intermediates/hardware/interfaces/gnss/aidl/android.hardware.gnss-V2-ndk-source/gen/include/aidl/android/hardware/gnss/IGnssCallback.h",
   "underlying_type" : "_ZTIi"
  },
  {
   "alignment" : 4,
   "enum_fields" :
   [
    {
     "enum_field_value" : 512,
     "name" : "aidl::android::hardware::gnss::IGnssCallback::CAPABILITY_SATELLITE_BLOCKLIST"
    }
   ],
   "linker_set_key" : "_ZTIN4aidl7android8hardware4gnss13IGnssCallback31$CAPABILITY_SATELLITE_BLOCKLISTE",
   "name" : "aidl::android::hardware::gnss::IGnssCallback::(unnamed enum at out/soong/.intermediates/hardware/interfaces/gnss/aidl/android.hardware.gnss-V2-ndk-source/gen/include/aidl/android/hardware/gnss/IGnssCallback.h:147:3)",
   "referenced_type" : "_ZTIN4aidl7android8hardware4gnss13IGnssCallback31$CAPABILITY_SATELLITE_BLOCKLISTE",
   "self_type" : "_ZTIN4aidl7android8hardware4gnss13IGnssCallback31$CAPABILITY_SATELLITE_BLOCKLISTE",
   "size" : 4,
   "source_file" : "out/soong/.intermediates/hardware/interfaces/gnss/aidl/android.hardware.gnss-V2-ndk-source/gen/include/aidl/android/hardware/gnss/IGnssCallback.h",
   "underlying_type" : "_ZTIi"
  },
  {
   "alignment" : 4,
   "enum_fields" :
   [
    {
     "enum_field_value" : 1024,
     "name" : "aidl::android::hardware::gnss::IGnssCallback::CAPABILITY_MEASUREMENT_CORRECTIONS"
    }
   ],
   "linker_set_key" : "_ZTIN4aidl7android8hardware4gnss13IGnssCallback35$CAPABILITY_MEASUREMENT_CORRECTIONSE",
   "name" : "aidl::android::hardware::gnss::IGnssCallback::(unnamed enum at out/soong/.intermediates/hardware/interfaces/gnss/aidl/android.hardware.gnss-V2-ndk-source/gen/include/aidl/android/hardware/gnss/IGnssCallback.h:148:3)",
   "referenced_type" : "_ZTIN4aidl7android8hardware4gnss13IGnssCallback35$CAPABILITY_MEASUREMENT_CORRECTIONSE",
   "self_type" : "_ZTIN4aidl7android8hardware4gnss13IGnssCallback35$CAPABILITY_MEASUREMENT_CORRECTIONSE",
   "size" : 4,
   "source_file" : "out/soong/.intermediates/hardware/interfaces/gnss/aidl/android.hardware.gnss-V2-ndk-source/gen/include/aidl/android/hardware/gnss/IGnssCallback.h",
   "underlying_type" : "_ZTIi"
  },
  {
   "alignment" : 4,
   "enum_fields" :
   [
    {
     "enum_field_value" : 16384,
     "name" : "aidl::android::hardware::gnss::IGnssCallback::CAPABILITY_MEASUREMENT_CORRECTIONS_FOR_DRIVING"
    }
   ],
   "linker_set_key" : "_ZTIN4aidl7android8hardware4gnss13IGnssCallback47$CAPABILITY_MEASUREMENT_CORRECTIONS_FOR_DRIVINGE",
   "name" : "aidl::android::hardware::gnss::IGnssCallback::(unnamed enum at out/soong/.intermediates/hardware/interfaces/gnss/aidl/android.hardware.gnss-V2-ndk-source/gen/include/aidl/android/hardware/gnss/IGnssCallback.h:152:3)",
   "referenced_type" : "_ZTIN4aidl7android8hardware4gnss13IGnssCallback47$CAPABILITY_MEASUREMENT_CORRECTIONS_FOR_DRIVINGE",
   "self_type" : "_ZTIN4aidl7android8hardware4gnss13IGnssCallback47$CAPABILITY_MEASUREMENT_CORRECTIONS_FOR_DRIVINGE",
   "size" : 4,
   "source_file" : "out/soong/.intermediates/hardware/interfaces/gnss/aidl/android.hardware.gnss-V2-ndk-source/gen/include/aidl/android/hardware/gnss/IGnssCallback.h",
   "underlying_type" : "_ZTIi"
  },
  {
   "alignment" : 4,
   "enum_fields" :
   [
    {
     "enum_field_value" : 1,
     "name" : "aidl::android::hardware::gnss::IAGnssCallback::AGnssStatusValue::REQUEST_AGNSS_DATA_CONN"
    },
    {
     "enum_field_value" : 2,
     "name" : "aidl::android::hardware::gnss::IAGnssCallback::AGnssStatusValue::RELEASE_AGNSS_DATA_CONN"
    },
    {
     "enum_field_value" : 3,
     "name" : "aidl::android::hardware::gnss::IAGnssCallback::AGnssStatusValue::AGNSS_DATA_CONNECTED"
    },
    {
     "enum_field_value" : 4,
     "name" : "aidl::android::hardware::gnss::IAGnssCallback::AGnssStatusValue::AGNSS_DATA_CONN_DONE"
    },
    {
     "enum_field_value" : 5,
     "name" : "aidl::android::hardware::gnss::IAGnssCallback::AGnssStatusValue::AGNSS_DATA_CONN_FAILED"
    }
   ],
   "linker_set_key" : "_ZTIN4aidl7android8hardware4gnss14IAGnssCallback16AGnssStatusValueE",
   "name" : "aidl::android::hardware::gnss::IAGnssCallback::AGnssStatusValue",
   "referenced_type" : "_ZTIN4aidl7android8hardware4gnss14IAGnssCallback16AGnssStatusValueE",
   "self_type" : "_ZTIN4aidl7android8hardware4gnss14IAGnssCallback16AGnssStatusValueE",
   "size" : 4,
   "source_file" : "out/soong/.intermediates/hardware/interfaces/gnss/aidl/android.hardware.gnss-V2-ndk-source/gen/include/aidl/android/hardware/gnss/IAGnssCallback.h",
   "underlying_type" : "_ZTIi"
  },
  {
   "alignment" : 4,
   "enum_fields" :
   [
    {
     "enum_field_value" : 1,
     "name" : "aidl::android::hardware::gnss::IAGnssCallback::AGnssType::SUPL"
    },
    {
     "enum_field_value" : 2,
     "name" : "aidl::android::hardware::gnss::IAGnssCallback::AGnssType::C2K"
    },
    {
     "enum_field_value" : 3,
     "name" : "aidl::android::hardware::gnss::IAGnssCallback::AGnssType::SUPL_EIMS"
    },
    {
     "enum_field_value" : 4,
     "name" : "aidl::android::hardware::gnss::IAGnssCallback::AGnssType::SUPL_IMS"
    }
   ],
   "linker_set_key" : "_ZTIN4aidl7android8hardware4gnss14IAGnssCallback9AGnssTypeE",
   "name" : "aidl::android::hardware::gnss::IAGnssCallback::AGnssType",
   "referenced_type" : "_ZTIN4aidl7android8hardware4gnss14IAGnssCallback9AGnssTypeE",
   "self_type" : "_ZTIN4aidl7android8hardware4gnss14IAGnssCallback9AGnssTypeE",
   "size" : 4,
   "source_file" : "out/soong/.intermediates/hardware/interfaces/gnss/aidl/android.hardware.gnss-V2-ndk-source/gen/include/aidl/android/hardware/gnss/IAGnssCallback.h",
   "underlying_type" : "_ZTIi"
  },
  {
   "alignment" : 4,
   "enum_fields" :
   [
    {
     "enum_field_value" : 1,
     "name" : "aidl::android::hardware::gnss::ElapsedRealtime::HAS_TIMESTAMP_NS"
    }
   ],
   "linker_set_key" : "_ZTIN4aidl7android8hardware4gnss15ElapsedRealtime17$HAS_TIMESTAMP_NSE",
   "name" : "aidl::android::hardware::gnss::ElapsedRealtime::(unnamed enum at out/soong/.intermediates/hardware/interfaces/gnss/aidl/android.hardware.gnss-V2-ndk-source/gen/include/aidl/android/hardware/gnss/ElapsedRealtime.h:51:3)",
   "referenced_type" : "_ZTIN4aidl7android8hardware4gnss15ElapsedRealtime17$HAS_TIMESTAMP_NSE",
   "self_type" : "_ZTIN4aidl7android8hardware4gnss15ElapsedRealtime17$HAS_TIMESTAMP_NSE",
   "size" : 4,
   "source_file" : "out/soong/.intermediates/hardware/interfaces/gnss/aidl/android.hardware.gnss-V2-ndk-source/gen/include/aidl/android/hardware/gnss/ElapsedRealtime.h",
   "underlying_type" : "_ZTIi"
  },
  {
   "alignment" : 4,
   "enum_fields" :
   [
    {
     "enum_field_value" : 2,
     "name" : "aidl::android::hardware::gnss::ElapsedRealtime::HAS_TIME_UNCERTAINTY_NS"
    }
   ],
   "linker_set_key" : "_ZTIN4aidl7android8hardware4gnss15ElapsedRealtime24$HAS_TIME_UNCERTAINTY_NSE",
   "name" : "aidl::android::hardware::gnss::ElapsedRealtime::(unnamed enum at out/soong/.intermediates/hardware/interfaces/gnss/aidl/android.hardware.gnss-V2-ndk-source/gen/include/aidl/android/hardware/gnss/ElapsedRealtime.h:52:3)",
   "referenced_type" : "_ZTIN4aidl7android8hardware4gnss15ElapsedRealtime24$HAS_TIME_UNCERTAINTY_NSE",
   "self_type" : "_ZTIN4aidl7android8hardware4gnss15ElapsedRealtime24$HAS_TIME_UNCERTAINTY_NSE",
   "size" : 4,
   "source_file" : "out/soong/.intermediates/hardware/interfaces/gnss/aidl/android.hardware.gnss-V2-ndk-source/gen/include/aidl/android/hardware/gnss/ElapsedRealtime.h",
   "underlying_type" : "_ZTIi"
  },
  {
   "alignment" : 4,
   "enum_fields" :
   [
    {
     "enum_field_value" : 65536,
     "name" : "aidl::android::hardware::gnss::GnssMeasurement::HAS_FULL_ISB"
    }
   ],
   "linker_set_key" : "_ZTIN4aidl7android8hardware4gnss15GnssMeasurement13$HAS_FULL_ISBE",
   "name" : "aidl::android::hardware::gnss::GnssMeasurement::(unnamed enum at out/soong/.intermediates/hardware/interfaces/gnss/aidl/android.hardware.gnss-V2-ndk-source/gen/include/aidl/android/hardware/gnss/GnssMeasurement.h:84:3)",
   "referenced_type" : "_ZTIN4aidl7android8hardware4gnss15GnssMeasurement13$HAS_FULL_ISBE",
   "self_type" : "_ZTIN4aidl7android8hardware4gnss15GnssMeasurement13$HAS_FULL_ISBE",
   "size" : 4,
   "source_file" : "out/soong/.intermediates/hardware/interfaces/gnss/aidl/android.hardware.gnss-V2-ndk-source/gen/include/aidl/android/hardware/gnss/GnssMeasurement.h",
   "underlying_type" : "_ZTIi"
  },
  {
   "alignment" : 4,
   "enum_fields" :
   [
    {
     "enum_field_value" : 0,
     "name" : "aidl::android::hardware::gnss::GnssMeasurement::STATE_UNKNOWN"
    }
   ],
   "linker_set_key" : "_ZTIN4aidl7android8hardware4gnss15GnssMeasurement14$STATE_UNKNOWNE",
   "name" : "aidl::android::hardware::gnss::GnssMeasurement::(unnamed enum at out/soong/.intermediates/hardware/interfaces/gnss/aidl/android.hardware.gnss-V2-ndk-source/gen/include/aidl/android/hardware/gnss/GnssMeasurement.h:90:3)",
   "referenced_type" : "_ZTIN4aidl7android8hardware4gnss15GnssMeasurement14$STATE_UNKNOWNE",
   "self_type" : "_ZTIN4aidl7android8hardware4gnss15GnssMeasurement14$STATE_UNKNOWNE",
   "size" : 4,
   "source_file" : "out/soong/.intermediates/hardware/interfaces/gnss/aidl/android.hardware.gnss-V2-ndk-source/gen/include/aidl/android/hardware/gnss/GnssMeasurement.h",
   "underlying_type" : "_ZTIi"
  },
  {
   "alignment" : 4,
   "enum_fields" :
   [
    {
     "enum_field_value" : 2,
     "name" : "aidl::android::hardware::gnss::GnssMeasurement::STATE_BIT_SYNC"
    }
   ],
   "linker_set_key" : "_ZTIN4aidl7android8hardware4gnss15GnssMeasurement15$STATE_BIT_SYNCE",
   "name" : "aidl::android::hardware::gnss::GnssMeasurement::(unnamed enum at out/soong/.intermediates/hardware/interfaces/gnss/aidl/android.hardware.gnss-V2-ndk-source/gen/include/aidl/android/hardware/gnss/GnssMeasurement.h:92:3)",
   "referenced_type" : "_ZTIN4aidl7android8hardware4gnss15GnssMeasurement15$STATE_BIT_SYNCE",
   "self_type" : "_ZTIN4aidl7android8hardware4gnss15GnssMeasurement15$STATE_BIT_SYNCE",
   "size" : 4,
   "source_file" : "out/soong/.intermediates/hardware/interfaces/gnss/aidl/android.hardware.gnss-V2-ndk-source/gen/include/aidl/android/hardware/gnss/GnssMeasurement.h",
   "underlying_type" : "_ZTIi"
  },
  {
   "alignment" : 4,
   "enum_fields" :
   [
    {
     "enum_field_value" : 2,
     "name" : "aidl::android::hardware::gnss::GnssMeasurement::ADR_STATE_RESET"
    }
   ],
   "linker_set_key" : "_ZTIN4aidl7android8hardware4gnss15GnssMeasurement16$ADR_STATE_RESETE",
   "name" : "aidl::android::hardware::gnss::GnssMeasurement::(unnamed enum at out/soong/.intermediates/hardware/interfaces/gnss/aidl/android.hardware.gnss-V2-ndk-source/gen/include/aidl/android/hardware/gnss/GnssMeasurement.h:110:3)",
   "referenced_type" : "_ZTIN4aidl7android8hardware4gnss15GnssMeasurement16$ADR_STATE_RESETE",
   "self_type" : "_ZTIN4aidl7android8hardware4gnss15GnssMeasurement16$ADR_STATE_RESETE",
   "size" : 4,
   "source_file" : "out/soong/.intermediates/hardware/interfaces/gnss/aidl/android.hardware.gnss-V2-ndk-source/gen/include/aidl/android/hardware/gnss/GnssMeasurement.h",
   "underlying_type" : "_ZTIi"
  },
  {
   "alignment" : 4,
   "enum_fields" :
   [
    {
     "enum_field_value" : 1,
     "name" : "aidl::android::hardware::gnss::GnssMeasurement::ADR_STATE_VALID"
    }
   ],
   "linker_set_key" : "_ZTIN4aidl7android8hardware4gnss15GnssMeasurement16$ADR_STATE_VALIDE",
   "name" : "aidl::android::hardware::gnss::GnssMeasurement::(unnamed enum at out/soong/.intermediates/hardware/interfaces/gnss/aidl/android.hardware.gnss-V2-ndk-source/gen/include/aidl/android/hardware/gnss/GnssMeasurement.h:109:3)",
   "referenced_type" : "_ZTIN4aidl7android8hardware4gnss15GnssMeasurement16$ADR_STATE_VALIDE",
   "self_type" : "_ZTIN4aidl7android8hardware4gnss15GnssMeasurement16$ADR_STATE_VALIDE",
   "size" : 4,
   "source_file" : "out/soong/.intermediates/hardware/interfaces/gnss/aidl/android.hardware.gnss-V2-ndk-source/gen/include/aidl/android/hardware/gnss/GnssMeasurement.h",
   "underlying_type" : "_ZTIi"
  },
  {
   "alignment" : 4,
   "enum_fields" :
   [
    {
     "enum_field_value" : 1,
     "name" : "aidl::android::hardware::gnss::GnssMeasurement::STATE_CODE_LOCK"
    }
   ],
   "linker_set_key" : "_ZTIN4aidl7android8hardware4gnss15GnssMeasurement16$STATE_CODE_LOCKE",
   "name" : "aidl::android::hardware::gnss::GnssMeasurement::(unnamed enum at out/soong/.intermediates/hardware/interfaces/gnss/aidl/android.hardware.gnss-V2-ndk-source/gen/include/aidl/android/hardware/gnss/GnssMeasurement.h:91:3)",
   "referenced_type" : "_ZTIN4aidl7android8hardware4gnss15GnssMeasurement16$STATE_CODE_LOCKE",
   "self_type" : "_ZTIN4aidl7android8hardware4gnss15GnssMeasurement16$STATE_CODE_LOCKE",
   "size" : 4,
   "source_file" : "out/soong/.intermediates/hardware/interfaces/gnss/aidl/android.hardware.gnss-V2-ndk-source/gen/include/aidl/android/hardware/gnss/GnssMeasurement.h",
   "underlying_type" : "_ZTIi"
  },
  {
   "alignment" : 4,
   "enum_fields" :
   [
    {
     "enum_field_value" : 8192,
     "name" : "aidl::android::hardware::gnss::GnssMeasurement::STATE_SBAS_SYNC"
    }
   ],
   "linker_set_key" : "_ZTIN4aidl7android8hardware4gnss15GnssMeasurement16$STATE_SBAS_SYNCE",
   "name" : "aidl::android::hardware::gnss::GnssMeasurement::(unnamed enum at out/soong/.intermediates/hardware/interfaces/gnss/aidl/android.hardware.gnss-V2-ndk-source/gen/include/aidl/android/hardware/gnss/GnssMeasurement.h:104:3)",
   "referenced_type" : "_ZTIN4aidl7android8hardware4gnss15GnssMeasurement16$STATE_SBAS_SYNCE",
   "self_type" : "_ZTIN4aidl7android8hardware4gnss15GnssMeasurement16$STATE_SBAS_SYNCE",
   "size" : 4,
   "source_file" : "out/soong/.intermediates/hardware/interfaces/gnss/aidl/android.hardware.gnss-V2-ndk-source/gen/include/aidl/android/hardware/gnss/GnssMeasurement.h",
   "underlying_type" : "_ZTIi"
  },
  {
   "alignment" : 4,
   "enum_fields" :
   [
    {
     "enum_field_value" : 16384,
     "name" : "aidl::android::hardware::gnss::GnssMeasurement::STATE_TOW_KNOWN"
    }
   ],
   "linker_set_key" : "_ZTIN4aidl7android8hardware4gnss15GnssMeasurement16$STATE_TOW_KNOWNE",
   "name" : "aidl::android::hardware::gnss::GnssMeasurement::(unnamed enum at out/soong/.intermediates/hardware/interfaces/gnss/aidl/android.hardware.gnss-V2-ndk-source/gen/include/aidl/android/hardware/gnss/GnssMeasurement.h:105:3)",
   "referenced_type" : "_ZTIN4aidl7android8hardware4gnss15GnssMeasurement16$STATE_TOW_KNOWNE",
   "self_type" : "_ZTIN4aidl7android8hardware4gnss15GnssMeasurement16$STATE_TOW_KNOWNE",
   "size" : 4,
   "source_file" : "out/soong/.intermediates/hardware/interfaces/gnss/aidl/android.hardware.gnss-V2-ndk-source/gen/include/aidl/android/hardware/gnss/GnssMeasurement.h",
   "underlying_type" : "_ZTIi"
  },
  {
   "alignment" : 4,
   "enum_fields" :
   [
    {
     "enum_field_value" : 0,
     "name" : "aidl::android::hardware::gnss::GnssMeasurement::ADR_STATE_UNKNOWN"
    }
   ],
   "linker_set_key" : "_ZTIN4aidl7android8hardware4gnss15GnssMeasurement18$ADR_STATE_UNKNOWNE",
   "name" : "aidl::android::hardware::gnss::GnssMeasurement::(unnamed enum at out/soong/.intermediates/hardware/interfaces/gnss/aidl/android.hardware.gnss-V2-ndk-source/gen/include/aidl/android/hardware/gnss/GnssMeasurement.h:108:3)",
   "referenced_type" : "_ZTIN4aidl7android8hardware4gnss15GnssMeasurement18$ADR_STATE_UNKNOWNE",
   "self_type" : "_ZTIN4aidl7android8hardware4gnss15GnssMeasurement18$ADR_STATE_UNKNOWNE",
   "size" : 4,
   "source_file" : "out/soong/.intermediates/hardware/interfaces/gnss/aidl/android.hardware.gnss-V2-ndk-source/gen/include/aidl/android/hardware/gnss/GnssMeasurement.h",
   "underlying_type" : "_ZTIi"
  },
  {
   "alignment" : 4,
   "enum_fields" :
   [
    {
     "enum_field_value" : 2048,
     "name" : "aidl::android::hardware::gnss::GnssMeasurement::HAS_CARRIER_PHASE"
    }
   ],
   "linker_set_key" : "_ZTIN4aidl7android8hardware4gnss15GnssMeasurement18$HAS_CARRIER_PHASEE",
   "name" : "aidl::android::hardware::gnss::GnssMeasurement::(unnamed enum at out/soong/.intermediates/hardware/interfaces/gnss/aidl/android.hardware.gnss-V2-ndk-source/gen/include/aidl/android/hardware/gnss/GnssMeasurement.h:81:3)",
   "referenced_type" : "_ZTIN4aidl7android8hardware4gnss15GnssMeasurement18$HAS_CARRIER_PHASEE",
   "self_type" : "_ZTIN4aidl7android8hardware4gnss15GnssMeasurement18$HAS_CARRIER_PHASEE",
   "size" : 4,
   "source_file" : "out/soong/.intermediates/hardware/interfaces/gnss/aidl/android.hardware.gnss-V2-ndk-source/gen/include/aidl/android/hardware/gnss/GnssMeasurement.h",
   "underlying_type" : "_ZTIi"
  },
  {
   "alignment" : 4,
   "enum_fields" :
   [
    {
     "enum_field_value" : 262144,
     "name" : "aidl::android::hardware::gnss::GnssMeasurement::HAS_SATELLITE_ISB"
    }
   ],
   "linker_set_key" : "_ZTIN4aidl7android8hardware4gnss15GnssMeasurement18$HAS_SATELLITE_ISBE",
   "name" : "aidl::android::hardware::gnss::GnssMeasurement::(unnamed enum at out/soong/.intermediates/hardware/interfaces/gnss/aidl/android.hardware.gnss-V2-ndk-source/gen/include/aidl/android/hardware/gnss/GnssMeasurement.h:86:3)",
   "referenced_type" : "_ZTIN4aidl7android8hardware4gnss15GnssMeasurement18$HAS_SATELLITE_ISBE",
   "self_type" : "_ZTIN4aidl7android8hardware4gnss15GnssMeasurement18$HAS_SATELLITE_ISBE",
   "size" : 4,
   "source_file" : "out/soong/.intermediates/hardware/interfaces/gnss/aidl/android.hardware.gnss-V2-ndk-source/gen/include/aidl/android/hardware/gnss/GnssMeasurement.h",
   "underlying_type" : "_ZTIi"
  },
  {
   "alignment" : 4,
   "enum_fields" :
   [
    {
     "enum_field_value" : 1048576,
     "name" : "aidl::android::hardware::gnss::GnssMeasurement::HAS_SATELLITE_PVT"
    }
   ],
   "linker_set_key" : "_ZTIN4aidl7android8hardware4gnss15GnssMeasurement18$HAS_SATELLITE_PVTE",
   "name" : "aidl::android::hardware::gnss::GnssMeasurement::(unnamed enum at out/soong/.intermediates/hardware/interfaces/gnss/aidl/android.hardware.gnss-V2-ndk-source/gen/include/aidl/android/hardware/gnss/GnssMeasurement.h:88:3)",
   "referenced_type" : "_ZTIN4aidl7android8hardware4gnss15GnssMeasurement18$HAS_SATELLITE_PVTE",
   "self_type" : "_ZTIN4aidl7android8hardware4gnss15GnssMeasurement18$HAS_SATELLITE_PVTE",
   "size" : 4,
   "source_file" : "out/soong/.intermediates/hardware/interfaces/gnss/aidl/android.hardware.gnss-V2-ndk-source/gen/include/aidl/android/hardware/gnss/GnssMeasurement.h",
   "underlying_type" : "_ZTIi"
  },
  {
   "alignment" : 4,
   "enum_fields" :
   [
    {
     "enum_field_value" : 32,
     "name" : "aidl::android::hardware::gnss::GnssMeasurement::STATE_SYMBOL_SYNC"
    }
   ],
   "linker_set_key" : "_ZTIN4aidl7android8hardware4gnss15GnssMeasurement18$STATE_SYMBOL_SYNCE",
   "name" : "aidl::android::hardware::gnss::GnssMeasurement::(unnamed enum at out/soong/.intermediates/hardware/interfaces/gnss/aidl/android.hardware.gnss-V2-ndk-source/gen/include/aidl/android/hardware/gnss/GnssMeasurement.h:96:3)",
   "referenced_type" : "_ZTIN4aidl7android8hardware4gnss15GnssMeasurement18$STATE_SYMBOL_SYNCE",
   "self_type" : "_ZTIN4aidl7android8hardware4gnss15GnssMeasurement18$STATE_SYMBOL_SYNCE",
   "size" : 4,
   "source_file" : "out/soong/.intermediates/hardware/interfaces/gnss/aidl/android.hardware.gnss-V2-ndk-source/gen/include/aidl/android/hardware/gnss/GnssMeasurement.h",
   "underlying_type" : "_ZTIi"
  },
  {
   "alignment" : 4,
   "enum_fields" :
   [
    {
     "enum_field_value" : 8,
     "name" : "aidl::android::hardware::gnss::GnssMeasurement::STATE_TOW_DECODED"
    }
   ],
   "linker_set_key" : "_ZTIN4aidl7android8hardware4gnss15GnssMeasurement18$STATE_TOW_DECODEDE",
   "name" : "aidl::android::hardware::gnss::GnssMeasurement::(unnamed enum at out/soong/.intermediates/hardware/interfaces/gnss/aidl/android.hardware.gnss-V2-ndk-source/gen/include/aidl/android/hardware/gnss/GnssMeasurement.h:94:3)",
   "referenced_type" : "_ZTIN4aidl7android8hardware4gnss15GnssMeasurement18$STATE_TOW_DECODEDE",
   "self_type" : "_ZTIN4aidl7android8hardware4gnss15GnssMeasurement18$STATE_TOW_DECODEDE",
   "size" : 4,
   "source_file" : "out/soong/.intermediates/hardware/interfaces/gnss/aidl/android.hardware.gnss-V2-ndk-source/gen/include/aidl/android/hardware/gnss/GnssMeasurement.h",
   "underlying_type" : "_ZTIi"
  },
  {
   "alignment" : 4,
   "enum_fields" :
   [
    {
     "enum_field_value" : 1024,
     "name" : "aidl::android::hardware::gnss::GnssMeasurement::HAS_CARRIER_CYCLES"
    }
   ],
   "linker_set_key" : "_ZTIN4aidl7android8hardware4gnss15GnssMeasurement19$HAS_CARRIER_CYCLESE",
   "name" : "aidl::android::hardware::gnss::GnssMeasurement::(unnamed enum at out/soong/.intermediates/hardware/interfaces/gnss/aidl/android.hardware.gnss-V2-ndk-source/gen/include/aidl/android/hardware/gnss/GnssMeasurement.h:80:3)",
   "referenced_type" : "_ZTIN4aidl7android8hardware4gnss15GnssMeasurement19$HAS_CARRIER_CYCLESE",
   "self_type" : "_ZTIN4aidl7android8hardware4gnss15GnssMeasurement19$HAS_CARRIER_CYCLESE",
   "size" : 4,
   "source_file" : "out/soong/.intermediates/hardware/interfaces/gnss/aidl/android.hardware.gnss-V2-ndk-source/gen/include/aidl/android/hardware/gnss/GnssMeasurement.h",
   "underlying_type" : "_ZTIi"
  },
  {
   "alignment" : 4,
   "enum_fields" :
   [
    {
     "enum_field_value" : 65536,
     "name" : "aidl::android::hardware::gnss::GnssMeasurement::STATE_2ND_CODE_LOCK"
    }
   ],
   "linker_set_key" : "_ZTIN4aidl7android8hardware4gnss15GnssMeasurement20$STATE_2ND_CODE_LOCKE",
   "name" : "aidl::android::hardware::gnss::GnssMeasurement::(unnamed enum at out/soong/.intermediates/hardware/interfaces/gnss/aidl/android.hardware.gnss-V2-ndk-source/gen/include/aidl/android/hardware/gnss/GnssMeasurement.h:107:3)",
   "referenced_type" : "_ZTIN4aidl7android8hardware4gnss15GnssMeasurement20$STATE_2ND_CODE_LOCKE",
   "self_type" : "_ZTIN4aidl7android8hardware4gnss15GnssMeasurement20$STATE_2ND_CODE_LOCKE",
   "size" : 4,
   "source_file" : "out/soong/.intermediates/hardware/interfaces/gnss/aidl/android.hardware.gnss-V2-ndk-source/gen/include/aidl/android/hardware/gnss/GnssMeasurement.h",
   "underlying_type" : "_ZTIi"
  },
  {
   "alignment" : 4,
   "enum_fields" :
   [
    {
     "enum_field_value" : 32768,
     "name" : "aidl::android::hardware::gnss::GnssMeasurement::STATE_GLO_TOD_KNOWN"
    }
   ],
   "linker_set_key" : "_ZTIN4aidl7android8hardware4gnss15GnssMeasurement20$STATE_GLO_TOD_KNOWNE",
   "name" : "aidl::android::hardware::gnss::GnssMeasurement::(unnamed enum at out/soong/.intermediates/hardware/interfaces/gnss/aidl/android.hardware.gnss-V2-ndk-source/gen/include/aidl/android/hardware/gnss/GnssMeasurement.h:106:3)",
   "referenced_type" : "_ZTIN4aidl7android8hardware4gnss15GnssMeasurement20$STATE_GLO_TOD_KNOWNE",
   "self_type" : "_ZTIN4aidl7android8hardware4gnss15GnssMeasurement20$STATE_GLO_TOD_KNOWNE",
   "size" : 4,
   "source_file" : "out/soong/.intermediates/hardware/interfaces/gnss/aidl/android.hardware.gnss-V2-ndk-source/gen/include/aidl/android/hardware/gnss/GnssMeasurement.h",
   "underlying_type" : "_ZTIi"
  },
  {
   "alignment" : 4,
   "enum_fields" :
   [
    {
     "enum_field_value" : 4,
     "name" : "aidl::android::hardware::gnss::GnssMeasurement::STATE_SUBFRAME_SYNC"
    }
   ],
   "linker_set_key" : "_ZTIN4aidl7android8hardware4gnss15GnssMeasurement20$STATE_SUBFRAME_SYNCE",
   "name" : "aidl::android::hardware::gnss::GnssMeasurement::(unnamed enum at out/soong/.intermediates/hardware/interfaces/gnss/aidl/android.hardware.gnss-V2-ndk-source/gen/include/aidl/android/hardware/gnss/GnssMeasurement.h:93:3)",
   "referenced_type" : "_ZTIN4aidl7android8hardware4gnss15GnssMeasurement20$STATE_SUBFRAME_SYNCE",
   "self_type" : "_ZTIN4aidl7android8hardware4gnss15GnssMeasurement20$STATE_SUBFRAME_SYNCE",
   "size" : 4,
   "source_file" : "out/soong/.intermediates/hardware/interfaces/gnss/aidl/android.hardware.gnss-V2-ndk-source/gen/include/aidl/android/hardware/gnss/GnssMeasurement.h",
   "underlying_type" : "_ZTIi"
  },
  {
   "alignment" : 4,
   "enum_fields" :
   [
    {
     "enum_field_value" : 4,
     "name" : "aidl::android::hardware::gnss::GnssMeasurement::ADR_STATE_CYCLE_SLIP"
    }
   ],
   "linker_set_key" : "_ZTIN4aidl7android8hardware4gnss15GnssMeasurement21$ADR_STATE_CYCLE_SLIPE",
   "name" : "aidl::android::hardware::gnss::GnssMeasurement::(unnamed enum at out/soong/.intermediates/hardware/interfaces/gnss/aidl/android.hardware.gnss-V2-ndk-source/gen/include/aidl/android/hardware/gnss/GnssMeasurement.h:111:3)",
   "referenced_type" : "_ZTIN4aidl7android8hardware4gnss15GnssMeasurement21$ADR_STATE_CYCLE_SLIPE",
   "self_type" : "_ZTIN4aidl7android8hardware4gnss15GnssMeasurement21$ADR_STATE_CYCLE_SLIPE",
   "size" : 4,
   "source_file" : "out/soong/.intermediates/hardware/interfaces/gnss/aidl/android.hardware.gnss-V2-ndk-source/gen/include/aidl/android/hardware/gnss/GnssMeasurement.h",
   "underlying_type" : "_ZTIi"
  },
  {
   "alignment" : 4,
   "enum_fields" :
   [
    {
     "enum_field_value" : 16,
     "name" : "aidl::android::hardware::gnss::GnssMeasurement::STATE_MSEC_AMBIGUOUS"
    }
   ],
   "linker_set_key" : "_ZTIN4aidl7android8hardware4gnss15GnssMeasurement21$STATE_MSEC_AMBIGUOUSE",
   "name" : "aidl::android::hardware::gnss::GnssMeasurement::(unnamed enum at out/soong/.intermediates/hardware/interfaces/gnss/aidl/android.hardware.gnss-V2-ndk-source/gen/include/aidl/android/hardware/gnss/GnssMeasurement.h:95:3)",
   "referenced_type" : "_ZTIN4aidl7android8hardware4gnss15GnssMeasurement21$STATE_MSEC_AMBIGUOUSE",
   "self_type" : "_ZTIN4aidl7android8hardware4gnss15GnssMeasurement21$STATE_MSEC_AMBIGUOUSE",
   "size" : 4,
   "source_file" : "out/soong/.intermediates/hardware/interfaces/gnss/aidl/android.hardware.gnss-V2-ndk-source/gen/include/aidl/android/hardware/gnss/GnssMeasurement.h",
   "underlying_type" : "_ZTIi"
  },
  {
   "alignment" : 4,
   "enum_fields" :
   [
    {
     "enum_field_value" : 512,
     "name" : "aidl::android::hardware::gnss::GnssMeasurement::HAS_CARRIER_FREQUENCY"
    }
   ],
   "linker_set_key" : "_ZTIN4aidl7android8hardware4gnss15GnssMeasurement22$HAS_CARRIER_FREQUENCYE",
   "name" : "aidl::android::hardware::gnss::GnssMeasurement::(unnamed enum at out/soong/.intermediates/hardware/interfaces/gnss/aidl/android.hardware.gnss-V2-ndk-source/gen/include/aidl/android/hardware/gnss/GnssMeasurement.h:79:3)",
   "referenced_type" : "_ZTIN4aidl7android8hardware4gnss15GnssMeasurement22$HAS_CARRIER_FREQUENCYE",
   "self_type" : "_ZTIN4aidl7android8hardware4gnss15GnssMeasurement22$HAS_CARRIER_FREQUENCYE",
   "size" : 4,
   "source_file" : "out/soong/.intermediates/hardware/interfaces/gnss/aidl/android.hardware.gnss-V2-ndk-source/gen/include/aidl/android/hardware/gnss/GnssMeasurement.h",
   "underlying_type" : "_ZTIi"
  },
  {
   "alignment" : 4,
   "enum_fields" :
   [
    {
     "enum_field_value" : 256,
     "name" : "aidl::android::hardware::gnss::GnssMeasurement::STATE_BDS_D2_BIT_SYNC"
    }
   ],
   "linker_set_key" : "_ZTIN4aidl7android8hardware4gnss15GnssMeasurement22$STATE_BDS_D2_BIT_SYNCE",
   "name" : "aidl::android::hardware::gnss::GnssMeasurement::(unnamed enum at out/soong/.intermediates/hardware/interfaces/gnss/aidl/android.hardware.gnss-V2-ndk-source/gen/include/aidl/android/hardware/gnss/GnssMeasurement.h:99:3)",
   "referenced_type" : "_ZTIN4aidl7android8hardware4gnss15GnssMeasurement22$STATE_BDS_D2_BIT_SYNCE",
   "self_type" : "_ZTIN4aidl7android8hardware4gnss15GnssMeasurement22$STATE_BDS_D2_BIT_SYNCE",
   "size" : 4,
   "source_file" : "out/soong/.intermediates/hardware/interfaces/gnss/aidl/android.hardware.gnss-V2-ndk-source/gen/include/aidl/android/hardware/gnss/GnssMeasurement.h",
   "underlying_type" : "_ZTIi"
  },
  {
   "alignment" : 4,
   "enum_fields" :
   [
    {
     "enum_field_value" : 64,
     "name" : "aidl::android::hardware::gnss::GnssMeasurement::STATE_GLO_STRING_SYNC"
    }
   ],
   "linker_set_key" : "_ZTIN4aidl7android8hardware4gnss15GnssMeasurement22$STATE_GLO_STRING_SYNCE",
   "name" : "aidl::android::hardware::gnss::GnssMeasurement::(unnamed enum at out/soong/.intermediates/hardware/interfaces/gnss/aidl/android.hardware.gnss-V2-ndk-source/gen/include/aidl/android/hardware/gnss/GnssMeasurement.h:97:3)",
   "referenced_type" : "_ZTIN4aidl7android8hardware4gnss15GnssMeasurement22$STATE_GLO_STRING_SYNCE",
   "self_type" : "_ZTIN4aidl7android8hardware4gnss15GnssMeasurement22$STATE_GLO_STRING_SYNCE",
   "size" : 4,
   "source_file" : "out/soong/.intermediates/hardware/interfaces/gnss/aidl/android.hardware.gnss-V2-ndk-source/gen/include/aidl/android/hardware/gnss/GnssMeasurement.h",
   "underlying_type" : "_ZTIi"
  },
  {
   "alignment" : 4,
   "enum_fields" :
   [
    {
     "enum_field_value" : 128,
     "name" : "aidl::android::hardware::gnss::GnssMeasurement::STATE_GLO_TOD_DECODED"
    }
   ],
   "linker_set_key" : "_ZTIN4aidl7android8hardware4gnss15GnssMeasurement22$STATE_GLO_TOD_DECODEDE",
   "name" : "aidl::android::hardware::gnss::GnssMeasurement::(unnamed enum at out/soong/.intermediates/hardware/interfaces/gnss/aidl/android.hardware.gnss-V2-ndk-source/gen/include/aidl/android/hardware/gnss/GnssMeasurement.h:98:3)",
   "referenced_type" : "_ZTIN4aidl7android8hardware4gnss15GnssMeasurement22$STATE_GLO_TOD_DECODEDE",
   "self_type" : "_ZTIN4aidl7android8hardware4gnss15GnssMeasurement22$STATE_GLO_TOD_DECODEDE",
   "size" : 4,
   "source_file" : "out/soong/.intermediates/hardware/interfaces/gnss/aidl/android.hardware.gnss-V2-ndk-source/gen/include/aidl/android/hardware/gnss/GnssMeasurement.h",
   "underlying_type" : "_ZTIi"
  },
  {
   "alignment" : 4,
   "enum_fields" :
   [
    {
     "enum_field_value" : 2097152,
     "name" : "aidl::android::hardware::gnss::GnssMeasurement::HAS_CORRELATION_VECTOR"
    }
   ],
   "linker_set_key" : "_ZTIN4aidl7android8hardware4gnss15GnssMeasurement23$HAS_CORRELATION_VECTORE",
   "name" : "aidl::android::hardware::gnss::GnssMeasurement::(unnamed enum at out/soong/.intermediates/hardware/interfaces/gnss/aidl/android.hardware.gnss-V2-ndk-source/gen/include/aidl/android/hardware/gnss/GnssMeasurement.h:89:3)",
   "referenced_type" : "_ZTIN4aidl7android8hardware4gnss15GnssMeasurement23$HAS_CORRELATION_VECTORE",
   "self_type" : "_ZTIN4aidl7android8hardware4gnss15GnssMeasurement23$HAS_CORRELATION_VECTORE",
   "size" : 4,
   "source_file" : "out/soong/.intermediates/hardware/interfaces/gnss/aidl/android.hardware.gnss-V2-ndk-source/gen/include/aidl/android/hardware/gnss/GnssMeasurement.h",
   "underlying_type" : "_ZTIi"
  },
  {
   "alignment" : 4,
   "enum_fields" :
   [
    {
     "enum_field_value" : 4096,
     "name" : "aidl::android::hardware::gnss::GnssMeasurement::STATE_GAL_E1B_PAGE_SYNC"
    }
   ],
   "linker_set_key" : "_ZTIN4aidl7android8hardware4gnss15GnssMeasurement24$STATE_GAL_E1B_PAGE_SYNCE",
   "name" : "aidl::android::hardware::gnss::GnssMeasurement::(unnamed enum at out/soong/.intermediates/hardware/interfaces/gnss/aidl/android.hardware.gnss-V2-ndk-source/gen/include/aidl/android/hardware/gnss/GnssMeasurement.h:103:3)",
   "referenced_type" : "_ZTIN4aidl7android8hardware4gnss15GnssMeasurement24$STATE_GAL_E1B_PAGE_SYNCE",
   "self_type" : "_ZTIN4aidl7android8hardware4gnss15GnssMeasurement24$STATE_GAL_E1B_PAGE_SYNCE",
   "size" : 4,
   "source_file" : "out/soong/.intermediates/hardware/interfaces/gnss/aidl/android.hardware.gnss-V2-ndk-source/gen/include/aidl/android/hardware/gnss/GnssMeasurement.h",
   "underlying_type" : "_ZTIi"
  },
  {
   "alignment" : 4,
   "enum_fields" :
   [
    {
     "enum_field_value" : 131072,
     "name" : "aidl::android::hardware::gnss::GnssMeasurement::HAS_FULL_ISB_UNCERTAINTY"
    }
   ],
   "linker_set_key" : "_ZTIN4aidl7android8hardware4gnss15GnssMeasurement25$HAS_FULL_ISB_UNCERTAINTYE",
   "name" : "aidl::android::hardware::gnss::GnssMeasurement::(unnamed enum at out/soong/.intermediates/hardware/interfaces/gnss/aidl/android.hardware.gnss-V2-ndk-source/gen/include/aidl/android/hardware/gnss/GnssMeasurement.h:85:3)",
   "referenced_type" : "_ZTIN4aidl7android8hardware4gnss15GnssMeasurement25$HAS_FULL_ISB_UNCERTAINTYE",
   "self_type" : "_ZTIN4aidl7android8hardware4gnss15GnssMeasurement25$HAS_FULL_ISB_UNCERTAINTYE",
   "size" : 4,
   "source_file" : "out/soong/.intermediates/hardware/interfaces/gnss/aidl/android.hardware.gnss-V2-ndk-source/gen/include/aidl/android/hardware/gnss/GnssMeasurement.h",
   "underlying_type" : "_ZTIi"
  },
  {
   "alignment" : 4,
   "enum_fields" :
   [
    {
     "enum_field_value" : 1024,
     "name" : "aidl::android::hardware::gnss::GnssMeasurement::STATE_GAL_E1BC_CODE_LOCK"
    }
   ],
   "linker_set_key" : "_ZTIN4aidl7android8hardware4gnss15GnssMeasurement25$STATE_GAL_E1BC_CODE_LOCKE",
   "name" : "aidl::android::hardware::gnss::GnssMeasurement::(unnamed enum at out/soong/.intermediates/hardware/interfaces/gnss/aidl/android.hardware.gnss-V2-ndk-source/gen/include/aidl/android/hardware/gnss/GnssMeasurement.h:101:3)",
   "referenced_type" : "_ZTIN4aidl7android8hardware4gnss15GnssMeasurement25$STATE_GAL_E1BC_CODE_LOCKE",
   "self_type" : "_ZTIN4aidl7android8hardware4gnss15GnssMeasurement25$STATE_GAL_E1BC_CODE_LOCKE",
   "size" : 4,
   "source_file" : "out/soong/.intermediates/hardware/interfaces/gnss/aidl/android.hardware.gnss-V2-ndk-source/gen/include/aidl/android/hardware/gnss/GnssMeasurement.h",
   "underlying_type" : "_ZTIi"
  },
  {
   "alignment" : 4,
   "enum_fields" :
   [
    {
     "enum_field_value" : 8192,
     "name" : "aidl::android::hardware::gnss::GnssMeasurement::HAS_AUTOMATIC_GAIN_CONTROL"
    }
   ],
   "linker_set_key" : "_ZTIN4aidl7android8hardware4gnss15GnssMeasurement27$HAS_AUTOMATIC_GAIN_CONTROLE",
   "name" : "aidl::android::hardware::gnss::GnssMeasurement::(unnamed enum at out/soong/.intermediates/hardware/interfaces/gnss/aidl/android.hardware.gnss-V2-ndk-source/gen/include/aidl/android/hardware/gnss/GnssMeasurement.h:83:3)",
   "referenced_type" : "_ZTIN4aidl7android8hardware4gnss15GnssMeasurement27$HAS_AUTOMATIC_GAIN_CONTROLE",
   "self_type" : "_ZTIN4aidl7android8hardware4gnss15GnssMeasurement27$HAS_AUTOMATIC_GAIN_CONTROLE",
   "size" : 4,
   "source_file" : "out/soong/.intermediates/hardware/interfaces/gnss/aidl/android.hardware.gnss-V2-ndk-source/gen/include/aidl/android/hardware/gnss/GnssMeasurement.h",
   "underlying_type" : "_ZTIi"
  },
  {
   "alignment" : 4,
   "enum_fields" :
   [
    {
     "enum_field_value" : 512,
     "name" : "aidl::android::hardware::gnss::GnssMeasurement::STATE_BDS_D2_SUBFRAME_SYNC"
    }
   ],
   "linker_set_key" : "_ZTIN4aidl7android8hardware4gnss15GnssMeasurement27$STATE_BDS_D2_SUBFRAME_SYNCE",
   "name" : "aidl::android::hardware::gnss::GnssMeasurement::(unnamed enum at out/soong/.intermediates/hardware/interfaces/gnss/aidl/android.hardware.gnss-V2-ndk-source/gen/include/aidl/android/hardware/gnss/GnssMeasurement.h:100:3)",
   "referenced_type" : "_ZTIN4aidl7android8hardware4gnss15GnssMeasurement27$STATE_BDS_D2_SUBFRAME_SYNCE",
   "self_type" : "_ZTIN4aidl7android8hardware4gnss15GnssMeasurement27$STATE_BDS_D2_SUBFRAME_SYNCE",
   "size" : 4,
   "source_file" : "out/soong/.intermediates/hardware/interfaces/gnss/aidl/android.hardware.gnss-V2-ndk-source/gen/include/aidl/android/hardware/gnss/GnssMeasurement.h",
   "underlying_type" : "_ZTIi"
  },
  {
   "alignment" : 4,
   "enum_fields" :
   [
    {
     "enum_field_value" : 2048,
     "name" : "aidl::android::hardware::gnss::GnssMeasurement::STATE_GAL_E1C_2ND_CODE_LOCK"
    }
   ],
   "linker_set_key" : "_ZTIN4aidl7android8hardware4gnss15GnssMeasurement28$STATE_GAL_E1C_2ND_CODE_LOCKE",
   "name" : "aidl::android::hardware::gnss::GnssMeasurement::(unnamed enum at out/soong/.intermediates/hardware/interfaces/gnss/aidl/android.hardware.gnss-V2-ndk-source/gen/include/aidl/android/hardware/gnss/GnssMeasurement.h:102:3)",
   "referenced_type" : "_ZTIN4aidl7android8hardware4gnss15GnssMeasurement28$STATE_GAL_E1C_2ND_CODE_LOCKE",
   "self_type" : "_ZTIN4aidl7android8hardware4gnss15GnssMeasurement28$STATE_GAL_E1C_2ND_CODE_LOCKE",
   "size" : 4,
   "source_file" : "out/soong/.intermediates/hardware/interfaces/gnss/aidl/android.hardware.gnss-V2-ndk-source/gen/include/aidl/android/hardware/gnss/GnssMeasurement.h",
   "underlying_type" : "_ZTIi"
  },
  {
   "alignment" : 4,
   "enum_fields" :
   [
    {
     "enum_field_value" : 8,
     "name" : "aidl::android::hardware::gnss::GnssMeasurement::ADR_STATE_HALF_CYCLE_RESOLVED"
    }
   ],
   "linker_set_key" : "_ZTIN4aidl7android8hardware4gnss15GnssMeasurement30$ADR_STATE_HALF_CYCLE_RESOLVEDE",
   "name" : "aidl::android::hardware::gnss::GnssMeasurement::(unnamed enum at out/soong/.intermediates/hardware/interfaces/gnss/aidl/android.hardware.gnss-V2-ndk-source/gen/include/aidl/android/hardware/gnss/GnssMeasurement.h:112:3)",
   "referenced_type" : "_ZTIN4aidl7android8hardware4gnss15GnssMeasurement30$ADR_STATE_HALF_CYCLE_RESOLVEDE",
   "self_type" : "_ZTIN4aidl7android8hardware4gnss15GnssMeasurement30$ADR_STATE_HALF_CYCLE_RESOLVEDE",
   "size" : 4,
   "source_file" : "out/soong/.intermediates/hardware/interfaces/gnss/aidl/android.hardware.gnss-V2-ndk-source/gen/include/aidl/android/hardware/gnss/GnssMeasurement.h",
   "underlying_type" : "_ZTIi"
  },
  {
   "alignment" : 4,
   "enum_fields" :
   [
    {
     "enum_field_value" : 4096,
     "name" : "aidl::android::hardware::gnss::GnssMeasurement::HAS_CARRIER_PHASE_UNCERTAINTY"
    }
   ],
   "linker_set_key" : "_ZTIN4aidl7android8hardware4gnss15GnssMeasurement30$HAS_CARRIER_PHASE_UNCERTAINTYE",
   "name" : "aidl::android::hardware::gnss::GnssMeasurement::(unnamed enum at out/soong/.intermediates/hardware/interfaces/gnss/aidl/android.hardware.gnss-V2-ndk-source/gen/include/aidl/android/hardware/gnss/GnssMeasurement.h:82:3)",
   "referenced_type" : "_ZTIN4aidl7android8hardware4gnss15GnssMeasurement30$HAS_CARRIER_PHASE_UNCERTAINTYE",
   "self_type" : "_ZTIN4aidl7android8hardware4gnss15GnssMeasurement30$HAS_CARRIER_PHASE_UNCERTAINTYE",
   "size" : 4,
   "source_file" : "out/soong/.intermediates/hardware/interfaces/gnss/aidl/android.hardware.gnss-V2-ndk-source/gen/include/aidl/android/hardware/gnss/GnssMeasurement.h",
   "underlying_type" : "_ZTIi"
  },
  {
   "alignment" : 4,
   "enum_fields" :
   [
    {
     "enum_field_value" : 524288,
     "name" : "aidl::android::hardware::gnss::GnssMeasurement::HAS_SATELLITE_ISB_UNCERTAINTY"
    }
   ],
   "linker_set_key" : "_ZTIN4aidl7android8hardware4gnss15GnssMeasurement30$HAS_SATELLITE_ISB_UNCERTAINTYE",
   "name" : "aidl::android::hardware::gnss::GnssMeasurement::(unnamed enum at out/soong/.intermediates/hardware/interfaces/gnss/aidl/android.hardware.gnss-V2-ndk-source/gen/include/aidl/android/hardware/gnss/GnssMeasurement.h:87:3)",
   "referenced_type" : "_ZTIN4aidl7android8hardware4gnss15GnssMeasurement30$HAS_SATELLITE_ISB_UNCERTAINTYE",
   "self_type" : "_ZTIN4aidl7android8hardware4gnss15GnssMeasurement30$HAS_SATELLITE_ISB_UNCERTAINTYE",
   "size" : 4,
   "source_file" : "out/soong/.intermediates/hardware/interfaces/gnss/aidl/android.hardware.gnss-V2-ndk-source/gen/include/aidl/android/hardware/gnss/GnssMeasurement.h",
   "underlying_type" : "_ZTIi"
  },
  {
   "alignment" : 4,
   "enum_fields" :
   [
    {
     "enum_field_value" : 1,
     "name" : "aidl::android::hardware::gnss::GnssMeasurement::HAS_SNR"
    }
   ],
   "linker_set_key" : "_ZTIN4aidl7android8hardware4gnss15GnssMeasurement8$HAS_SNRE",
   "name" : "aidl::android::hardware::gnss::GnssMeasurement::(unnamed enum at out/soong/.intermediates/hardware/interfaces/gnss/aidl/android.hardware.gnss-V2-ndk-source/gen/include/aidl/android/hardware/gnss/GnssMeasurement.h:78:3)",
   "referenced_type" : "_ZTIN4aidl7android8hardware4gnss15GnssMeasurement8$HAS_SNRE",
   "self_type" : "_ZTIN4aidl7android8hardware4gnss15GnssMeasurement8$HAS_SNRE",
   "size" : 4,
   "source_file" : "out/soong/.intermediates/hardware/interfaces/gnss/aidl/android.hardware.gnss-V2-ndk-source/gen/include/aidl/android/hardware/gnss/GnssMeasurement.h",
   "underlying_type" : "_ZTIi"
  },
  {
   "alignment" : 4,
   "enum_fields" :
   [
    {
     "enum_field_value" : 2,
     "name" : "aidl::android::hardware::gnss::IGnssConfiguration::SUPL_MODE_MSA"
    }
   ],
   "linker_set_key" : "_ZTIN4aidl7android8hardware4gnss18IGnssConfiguration14$SUPL_MODE_MSAE",
   "name" : "aidl::android::hardware::gnss::IGnssConfiguration::(unnamed enum at out/soong/.intermediates/hardware/interfaces/gnss/aidl/android.hardware.gnss-V2-ndk-source/gen/include/aidl/android/hardware/gnss/IGnssConfiguration.h:25:3)",
   "referenced_type" : "_ZTIN4aidl7android8hardware4gnss18IGnssConfiguration14$SUPL_MODE_MSAE",
   "self_type" : "_ZTIN4aidl7android8hardware4gnss18IGnssConfiguration14$SUPL_MODE_MSAE",
   "size" : 4,
   "source_file" : "out/soong/.intermediates/hardware/interfaces/gnss/aidl/android.hardware.gnss-V2-ndk-source/gen/include/aidl/android/hardware/gnss/IGnssConfiguration.h",
   "underlying_type" : "_ZTIi"
  },
  {
   "alignment" : 4,
   "enum_fields" :
   [
    {
     "enum_field_value" : 1,
     "name" : "aidl::android::hardware::gnss::IGnssConfiguration::SUPL_MODE_MSB"
    }
   ],
   "linker_set_key" : "_ZTIN4aidl7android8hardware4gnss18IGnssConfiguration14$SUPL_MODE_MSBE",
   "name" : "aidl::android::hardware::gnss::IGnssConfiguration::(unnamed enum at out/soong/.intermediates/hardware/interfaces/gnss/aidl/android.hardware.gnss-V2-ndk-source/gen/include/aidl/android/hardware/gnss/IGnssConfiguration.h:24:3)",
   "referenced_type" : "_ZTIN4aidl7android8hardware4gnss18IGnssConfiguration14$SUPL_MODE_MSBE",
   "self_type" : "_ZTIN4aidl7android8hardware4gnss18IGnssConfiguration14$SUPL_MODE_MSBE",
   "size" : 4,
   "source_file" : "out/soong/.intermediates/hardware/interfaces/gnss/aidl/android.hardware.gnss-V2-ndk-source/gen/include/aidl/android/hardware/gnss/IGnssConfiguration.h",
   "underlying_type" : "_ZTIi"
  },
  {
   "alignment" : 4,
   "enum_fields" :
   [
    {
     "enum_field_value" : 1,
     "name" : "aidl::android::hardware::gnss::IGnssConfiguration::LPP_PROFILE_USER_PLANE"
    }
   ],
   "linker_set_key" : "_ZTIN4aidl7android8hardware4gnss18IGnssConfiguration23$LPP_PROFILE_USER_PLANEE",
   "name" : "aidl::android::hardware::gnss::IGnssConfiguration::(unnamed enum at out/soong/.intermediates/hardware/interfaces/gnss/aidl/android.hardware.gnss-V2-ndk-source/gen/include/aidl/android/hardware/gnss/IGnssConfiguration.h:26:3)",
   "referenced_type" : "_ZTIN4aidl7android8hardware4gnss18IGnssConfiguration23$LPP_PROFILE_USER_PLANEE",
   "self_type" : "_ZTIN4aidl7android8hardware4gnss18IGnssConfiguration23$LPP_PROFILE_USER_PLANEE",
   "size" : 4,
   "source_file" : "out/soong/.intermediates/hardware/interfaces/gnss/aidl/android.hardware.gnss-V2-ndk-source/gen/include/aidl/android/hardware/gnss/IGnssConfiguration.h",
   "underlying_type" : "_ZTIi"
  },
  {
   "alignment" : 4,
   "enum_fields" :
   [
    {
     "enum_field_value" : 2,
     "name" : "aidl::android::hardware::gnss::IGnssConfiguration::LPP_PROFILE_CONTROL_PLANE"
    }
   ],
   "linker_set_key" : "_ZTIN4aidl7android8hardware4gnss18IGnssConfiguration26$LPP_PROFILE_CONTROL_PLANEE",
   "name" : "aidl::android::hardware::gnss::IGnssConfiguration::(unnamed enum at out/soong/.intermediates/hardware/interfaces/gnss/aidl/android.hardware.gnss-V2-ndk-source/gen/include/aidl/android/hardware/gnss/IGnssConfiguration.h:27:3)",
   "referenced_type" : "_ZTIN4aidl7android8hardware4gnss18IGnssConfiguration26$LPP_PROFILE_CONTROL_PLANEE",
   "self_type" : "_ZTIN4aidl7android8hardware4gnss18IGnssConfiguration26$LPP_PROFILE_CONTROL_PLANEE",
   "size" : 4,
   "source_file" : "out/soong/.intermediates/hardware/interfaces/gnss/aidl/android.hardware.gnss-V2-ndk-source/gen/include/aidl/android/hardware/gnss/IGnssConfiguration.h",
   "underlying_type" : "_ZTIi"
  },
  {
   "alignment" : 4,
   "enum_fields" :
   [
    {
     "enum_field_value" : 4,
     "name" : "aidl::android::hardware::gnss::IGnssConfiguration::GLONASS_POS_PROTOCOL_LPP_UPLANE"
    }
   ],
   "linker_set_key" : "_ZTIN4aidl7android8hardware4gnss18IGnssConfiguration32$GLONASS_POS_PROTOCOL_LPP_UPLANEE",
   "name" : "aidl::android::hardware::gnss::IGnssConfiguration::(unnamed enum at out/soong/.intermediates/hardware/interfaces/gnss/aidl/android.hardware.gnss-V2-ndk-source/gen/include/aidl/android/hardware/gnss/IGnssConfiguration.h:30:3)",
   "referenced_type" : "_ZTIN4aidl7android8hardware4gnss18IGnssConfiguration32$GLONASS_POS_PROTOCOL_LPP_UPLANEE",
   "self_type" : "_ZTIN4aidl7android8hardware4gnss18IGnssConfiguration32$GLONASS_POS_PROTOCOL_LPP_UPLANEE",
   "size" : 4,
   "source_file" : "out/soong/.intermediates/hardware/interfaces/gnss/aidl/android.hardware.gnss-V2-ndk-source/gen/include/aidl/android/hardware/gnss/IGnssConfiguration.h",
   "underlying_type" : "_ZTIi"
  },
  {
   "alignment" : 4,
   "enum_fields" :
   [
    {
     "enum_field_value" : 1,
     "name" : "aidl::android::hardware::gnss::IGnssConfiguration::GLONASS_POS_PROTOCOL_RRC_CPLANE"
    }
   ],
   "linker_set_key" : "_ZTIN4aidl7android8hardware4gnss18IGnssConfiguration32$GLONASS_POS_PROTOCOL_RRC_CPLANEE",
   "name" : "aidl::android::hardware::gnss::IGnssConfiguration::(unnamed enum at out/soong/.intermediates/hardware/interfaces/gnss/aidl/android.hardware.gnss-V2-ndk-source/gen/include/aidl/android/hardware/gnss/IGnssConfiguration.h:28:3)",
   "referenced_type" : "_ZTIN4aidl7android8hardware4gnss18IGnssConfiguration32$GLONASS_POS_PROTOCOL_RRC_CPLANEE",
   "self_type" : "_ZTIN4aidl7android8hardware4gnss18IGnssConfiguration32$GLONASS_POS_PROTOCOL_RRC_CPLANEE",
   "size" : 4,
   "source_file" : "out/soong/.intermediates/hardware/interfaces/gnss/aidl/android.hardware.gnss-V2-ndk-source/gen/include/aidl/android/hardware/gnss/IGnssConfiguration.h",
   "underlying_type" : "_ZTIi"
  },
  {
   "alignment" : 4,
   "enum_fields" :
   [
    {
     "enum_field_value" : 2,
     "name" : "aidl::android::hardware::gnss::IGnssConfiguration::GLONASS_POS_PROTOCOL_RRLP_UPLANE"
    }
   ],
   "linker_set_key" : "_ZTIN4aidl7android8hardware4gnss18IGnssConfiguration33$GLONASS_POS_PROTOCOL_RRLP_UPLANEE",
   "name" : "aidl::android::hardware::gnss::IGnssConfiguration::(unnamed enum at out/soong/.intermediates/hardware/interfaces/gnss/aidl/android.hardware.gnss-V2-ndk-source/gen/include/aidl/android/hardware/gnss/IGnssConfiguration.h:29:3)",
   "referenced_type" : "_ZTIN4aidl7android8hardware4gnss18IGnssConfiguration33$GLONASS_POS_PROTOCOL_RRLP_UPLANEE",
   "self_type" : "_ZTIN4aidl7android8hardware4gnss18IGnssConfiguration33$GLONASS_POS_PROTOCOL_RRLP_UPLANEE",
   "size" : 4,
   "source_file" : "out/soong/.intermediates/hardware/interfaces/gnss/aidl/android.hardware.gnss-V2-ndk-source/gen/include/aidl/android/hardware/gnss/IGnssConfiguration.h",
   "underlying_type" : "_ZTIi"
  },
  {
   "alignment" : 4,
   "enum_fields" :
   [
    {
     "enum_field_value" : 0,
     "name" : "aidl::android::hardware::gnss::visibility_control::IGnssVisibilityControlCallback::NfwRequestor::CARRIER"
    },
    {
     "enum_field_value" : 10,
     "name" : "aidl::android::hardware::gnss::visibility_control::IGnssVisibilityControlCallback::NfwRequestor::OEM"
    },
    {
     "enum_field_value" : 11,
     "name" : "aidl::android::hardware::gnss::visibility_control::IGnssVisibilityControlCallback::NfwRequestor::MODEM_CHIPSET_VENDOR"
    },
    {
     "enum_field_value" : 12,
     "name" : "aidl::android::hardware::gnss::visibility_control::IGnssVisibilityControlCallback::NfwRequestor::GNSS_CHIPSET_VENDOR"
    },
    {
     "enum_field_value" : 13,
     "name" : "aidl::android::hardware::gnss::visibility_control::IGnssVisibilityControlCallback::NfwRequestor::OTHER_CHIPSET_VENDOR"
    },
    {
     "enum_field_value" : 20,
     "name" : "aidl::android::hardware::gnss::visibility_control::IGnssVisibilityControlCallback::NfwRequestor::AUTOMOBILE_CLIENT"
    },
    {
     "enum_field_value" : 100,
     "name" : "aidl::android::hardware::gnss::visibility_control::IGnssVisibilityControlCallback::NfwRequestor::OTHER_REQUESTOR"
    }
   ],
   "linker_set_key" : "_ZTIN4aidl7android8hardware4gnss18visibility_control30IGnssVisibilityControlCallback12NfwRequestorE",
   "name" : "aidl::android::hardware::gnss::visibility_control::IGnssVisibilityControlCallback::NfwRequestor",
   "referenced_type" : "_ZTIN4aidl7android8hardware4gnss18visibility_control30IGnssVisibilityControlCallback12NfwRequestorE",
   "self_type" : "_ZTIN4aidl7android8hardware4gnss18visibility_control30IGnssVisibilityControlCallback12NfwRequestorE",
   "size" : 4,
   "source_file" : "out/soong/.intermediates/hardware/interfaces/gnss/aidl/android.hardware.gnss-V2-ndk-source/gen/include/aidl/android/hardware/gnss/visibility_control/IGnssVisibilityControlCallback.h",
   "underlying_type" : "_ZTIi"
  },
  {
   "alignment" : 4,
   "enum_fields" :
   [
    {
     "enum_field_value" : 0,
     "name" : "aidl::android::hardware::gnss::visibility_control::IGnssVisibilityControlCallback::NfwResponseType::REJECTED"
    },
    {
     "enum_field_value" : 1,
     "name" : "aidl::android::hardware::gnss::visibility_control::IGnssVisibilityControlCallback::NfwResponseType::ACCEPTED_NO_LOCATION_PROVIDED"
    },
    {
     "enum_field_value" : 2,
     "name" : "aidl::android::hardware::gnss::visibility_control::IGnssVisibilityControlCallback::NfwResponseType::ACCEPTED_LOCATION_PROVIDED"
    }
   ],
   "linker_set_key" : "_ZTIN4aidl7android8hardware4gnss18visibility_control30IGnssVisibilityControlCallback15NfwResponseTypeE",
   "name" : "aidl::android::hardware::gnss::visibility_control::IGnssVisibilityControlCallback::NfwResponseType",
   "referenced_type" : "_ZTIN4aidl7android8hardware4gnss18visibility_control30IGnssVisibilityControlCallback15NfwResponseTypeE",
   "self_type" : "_ZTIN4aidl7android8hardware4gnss18visibility_control30IGnssVisibilityControlCallback15NfwResponseTypeE",
   "size" : 4,
   "source_file" : "out/soong/.intermediates/hardware/interfaces/gnss/aidl/android.hardware.gnss-V2-ndk-source/gen/include/aidl/android/hardware/gnss/visibility_control/IGnssVisibilityControlCallback.h",
   "underlying_type" : "_ZTIi"
  },
  {
   "alignment" : 4,
   "enum_fields" :
   [
    {
     "enum_field_value" : 0,
     "name" : "aidl::android::hardware::gnss::visibility_control::IGnssVisibilityControlCallback::NfwProtocolStack::CTRL_PLANE"
    },
    {
     "enum_field_value" : 1,
     "name" : "aidl::android::hardware::gnss::visibility_control::IGnssVisibilityControlCallback::NfwProtocolStack::SUPL"
    },
    {
     "enum_field_value" : 10,
     "name" : "aidl::android::hardware::gnss::visibility_control::IGnssVisibilityControlCallback::NfwProtocolStack::IMS"
    },
    {
     "enum_field_value" : 11,
     "name" : "aidl::android::hardware::gnss::visibility_control::IGnssVisibilityControlCallback::NfwProtocolStack::SIM"
    },
    {
     "enum_field_value" : 100,
     "name" : "aidl::android::hardware::gnss::visibility_control::IGnssVisibilityControlCallback::NfwProtocolStack::OTHER_PROTOCOL_STACK"
    }
   ],
   "linker_set_key" : "_ZTIN4aidl7android8hardware4gnss18visibility_control30IGnssVisibilityControlCallback16NfwProtocolStackE",
   "name" : "aidl::android::hardware::gnss::visibility_control::IGnssVisibilityControlCallback::NfwProtocolStack",
   "referenced_type" : "_ZTIN4aidl7android8hardware4gnss18visibility_control30IGnssVisibilityControlCallback16NfwProtocolStackE",
   "self_type" : "_ZTIN4aidl7android8hardware4gnss18visibility_control30IGnssVisibilityControlCallback16NfwProtocolStackE",
   "size" : 4,
   "source_file" : "out/soong/.intermediates/hardware/interfaces/gnss/aidl/android.hardware.gnss-V2-ndk-source/gen/include/aidl/android/hardware/gnss/visibility_control/IGnssVisibilityControlCallback.h",
   "underlying_type" : "_ZTIi"
  },
  {
   "alignment" : 4,
   "enum_fields" :
   [
    {
     "enum_field_value" : 0,
     "name" : "aidl::android::hardware::gnss::GnssConstellationType::UNKNOWN"
    },
    {
     "enum_field_value" : 1,
     "name" : "aidl::android::hardware::gnss::GnssConstellationType::GPS"
    },
    {
     "enum_field_value" : 2,
     "name" : "aidl::android::hardware::gnss::GnssConstellationType::SBAS"
    },
    {
     "enum_field_value" : 3,
     "name" : "aidl::android::hardware::gnss::GnssConstellationType::GLONASS"
    },
    {
     "enum_field_value" : 4,
     "name" : "aidl::android::hardware::gnss::GnssConstellationType::QZSS"
    },
    {
     "enum_field_value" : 5,
     "name" : "aidl::android::hardware::gnss::GnssConstellationType::BEIDOU"
    },
    {
     "enum_field_value" : 6,
     "name" : "aidl::android::hardware::gnss::GnssConstellationType::GALILEO"
    },
    {
     "enum_field_value" : 7,
     "name" : "aidl::android::hardware::gnss::GnssConstellationType::IRNSS"
    }
   ],
   "linker_set_key" : "_ZTIN4aidl7android8hardware4gnss21GnssConstellationTypeE",
   "name" : "aidl::android::hardware::gnss::GnssConstellationType",
   "referenced_type" : "_ZTIN4aidl7android8hardware4gnss21GnssConstellationTypeE",
   "self_type" : "_ZTIN4aidl7android8hardware4gnss21GnssConstellationTypeE",
   "size" : 4,
   "source_file" : "out/soong/.intermediates/hardware/interfaces/gnss/aidl/android.hardware.gnss-V2-ndk-source/gen/include/aidl/android/hardware/gnss/GnssConstellationType.h",
   "underlying_type" : "_ZTIi"
  },
  {
   "alignment" : 4,
   "enum_fields" :
   [
    {
     "enum_field_value" : 2,
     "name" : "aidl::android::hardware::gnss::IGnssGeofenceCallback::AVAILABLE"
    }
   ],
   "linker_set_key" : "_ZTIN4aidl7android8hardware4gnss21IGnssGeofenceCallback10$AVAILABLEE",
   "name" : "aidl::android::hardware::gnss::IGnssGeofenceCallback::(unnamed enum at out/soong/.intermediates/hardware/interfaces/gnss/aidl/android.hardware.gnss-V2-ndk-source/gen/include/aidl/android/hardware/gnss/IGnssGeofenceCallback.h:28:3)",
   "referenced_type" : "_ZTIN4aidl7android8hardware4gnss21IGnssGeofenceCallback10$AVAILABLEE",
   "self_type" : "_ZTIN4aidl7android8hardware4gnss21IGnssGeofenceCallback10$AVAILABLEE",
   "size" : 4,
   "source_file" : "out/soong/.intermediates/hardware/interfaces/gnss/aidl/android.hardware.gnss-V2-ndk-source/gen/include/aidl/android/hardware/gnss/IGnssGeofenceCallback.h",
   "underlying_type" : "_ZTIi"
  },
  {
   "alignment" : 4,
   "enum_fields" :
   [
    {
     "enum_field_value" : 4,
     "name" : "aidl::android::hardware::gnss::IGnssGeofenceCallback::UNCERTAIN"
    }
   ],
   "linker_set_key" : "_ZTIN4aidl7android8hardware4gnss21IGnssGeofenceCallback10$UNCERTAINE",
   "name" : "aidl::android::hardware::gnss::IGnssGeofenceCallback::(unnamed enum at out/soong/.intermediates/hardware/interfaces/gnss/aidl/android.hardware.gnss-V2-ndk-source/gen/include/aidl/android/hardware/gnss/IGnssGeofenceCallback.h:26:3)",
   "referenced_type" : "_ZTIN4aidl7android8hardware4gnss21IGnssGeofenceCallback10$UNCERTAINE",
   "self_type" : "_ZTIN4aidl7android8hardware4gnss21IGnssGeofenceCallback10$UNCERTAINE",
   "size" : 4,
   "source_file" : "out/soong/.intermediates/hardware/interfaces/gnss/aidl/android.hardware.gnss-V2-ndk-source/gen/include/aidl/android/hardware/gnss/IGnssGeofenceCallback.h",
   "underlying_type" : "_ZTIi"
  },
  {
   "alignment" : 4,
   "enum_fields" :
   [
    {
     "enum_field_value" : 1,
     "name" : "aidl::android::hardware::gnss::IGnssGeofenceCallback::UNAVAILABLE"
    }
   ],
   "linker_set_key" : "_ZTIN4aidl7android8hardware4gnss21IGnssGeofenceCallback12$UNAVAILABLEE",
   "name" : "aidl::android::hardware::gnss::IGnssGeofenceCallback::(unnamed enum at out/soong/.intermediates/hardware/interfaces/gnss/aidl/android.hardware.gnss-V2-ndk-source/gen/include/aidl/android/hardware/gnss/IGnssGeofenceCallback.h:27:3)",
   "referenced_type" : "_ZTIN4aidl7android8hardware4gnss21IGnssGeofenceCallback12$UNAVAILABLEE",
   "self_type" : "_ZTIN4aidl7android8hardware4gnss21IGnssGeofenceCallback12$UNAVAILABLEE",
   "size" : 4,
   "source_file" : "out/soong/.intermediates/hardware/interfaces/gnss/aidl/android.hardware.gnss-V2-ndk-source/gen/include/aidl/android/hardware/gnss/IGnssGeofenceCallback.h",
   "underlying_type" : "_ZTIi"
  },
  {
   "alignment" : 4,
   "enum_fields" :
   [
    {
     "enum_field_value" : -149,
     "name" : "aidl::android::hardware::gnss::IGnssGeofenceCallback::ERROR_GENERIC"
    }
   ],
   "linker_set_key" : "_ZTIN4aidl7android8hardware4gnss21IGnssGeofenceCallback14$ERROR_GENERICE",
   "name" : "aidl::android::hardware::gnss::IGnssGeofenceCallback::(unnamed enum at out/soong/.intermediates/hardware/interfaces/gnss/aidl/android.hardware.gnss-V2-ndk-source/gen/include/aidl/android/hardware/gnss/IGnssGeofenceCallback.h:34:3)",
   "referenced_type" : "_ZTIN4aidl7android8hardware4gnss21IGnssGeofenceCallback14$ERROR_GENERICE",
   "self_type" : "_ZTIN4aidl7android8hardware4gnss21IGnssGeofenceCallback14$ERROR_GENERICE",
   "size" : 4,
   "source_file" : "out/soong/.intermediates/hardware/interfaces/gnss/aidl/android.hardware.gnss-V2-ndk-source/gen/include/aidl/android/hardware/gnss/IGnssGeofenceCallback.h",
   "underlying_type" : "_ZTIi"
  },
  {
   "alignment" : 4,
   "enum_fields" :
   [
    {
     "enum_field_value" : -101,
     "name" : "aidl::android::hardware::gnss::IGnssGeofenceCallback::ERROR_ID_EXISTS"
    }
   ],
   "linker_set_key" : "_ZTIN4aidl7android8hardware4gnss21IGnssGeofenceCallback16$ERROR_ID_EXISTSE",
   "name" : "aidl::android::hardware::gnss::IGnssGeofenceCallback::(unnamed enum at out/soong/.intermediates/hardware/interfaces/gnss/aidl/android.hardware.gnss-V2-ndk-source/gen/include/aidl/android/hardware/gnss/IGnssGeofenceCallback.h:31:3)",
   "referenced_type" : "_ZTIN4aidl7android8hardware4gnss21IGnssGeofenceCallback16$ERROR_ID_EXISTSE",
   "self_type" : "_ZTIN4aidl7android8hardware4gnss21IGnssGeofenceCallback16$ERROR_ID_EXISTSE",
   "size" : 4,
   "source_file" : "out/soong/.intermediates/hardware/interfaces/gnss/aidl/android.hardware.gnss-V2-ndk-source/gen/include/aidl/android/hardware/gnss/IGnssGeofenceCallback.h",
   "underlying_type" : "_ZTIi"
  },
  {
   "alignment" : 4,
   "enum_fields" :
   [
    {
     "enum_field_value" : -102,
     "name" : "aidl::android::hardware::gnss::IGnssGeofenceCallback::ERROR_ID_UNKNOWN"
    }
   ],
   "linker_set_key" : "_ZTIN4aidl7android8hardware4gnss21IGnssGeofenceCallback17$ERROR_ID_UNKNOWNE",
   "name" : "aidl::android::hardware::gnss::IGnssGeofenceCallback::(unnamed enum at out/soong/.intermediates/hardware/interfaces/gnss/aidl/android.hardware.gnss-V2-ndk-source/gen/include/aidl/android/hardware/gnss/IGnssGeofenceCallback.h:32:3)",
   "referenced_type" : "_ZTIN4aidl7android8hardware4gnss21IGnssGeofenceCallback17$ERROR_ID_UNKNOWNE",
   "self_type" : "_ZTIN4aidl7android8hardware4gnss21IGnssGeofenceCallback17$ERROR_ID_UNKNOWNE",
   "size" : 4,
   "source_file" : "out/soong/.intermediates/hardware/interfaces/gnss/aidl/android.hardware.gnss-V2-ndk-source/gen/include/aidl/android/hardware/gnss/IGnssGeofenceCallback.h",
   "underlying_type" : "_ZTIi"
  },
  {
   "alignment" : 4,
   "enum_fields" :
   [
    {
     "enum_field_value" : 0,
     "name" : "aidl::android::hardware::gnss::IGnssGeofenceCallback::OPERATION_SUCCESS"
    }
   ],
   "linker_set_key" : "_ZTIN4aidl7android8hardware4gnss21IGnssGeofenceCallback18$OPERATION_SUCCESSE",
   "name" : "aidl::android::hardware::gnss::IGnssGeofenceCallback::(unnamed enum at out/soong/.intermediates/hardware/interfaces/gnss/aidl/android.hardware.gnss-V2-ndk-source/gen/include/aidl/android/hardware/gnss/IGnssGeofenceCallback.h:29:3)",
   "referenced_type" : "_ZTIN4aidl7android8hardware4gnss21IGnssGeofenceCallback18$OPERATION_SUCCESSE",
   "self_type" : "_ZTIN4aidl7android8hardware4gnss21IGnssGeofenceCallback18$OPERATION_SUCCESSE",
   "size" : 4,
   "source_file" : "out/soong/.intermediates/hardware/interfaces/gnss/aidl/android.hardware.gnss-V2-ndk-source/gen/include/aidl/android/hardware/gnss/IGnssGeofenceCallback.h",
   "underlying_type" : "_ZTIi"
  },
  {
   "alignment" : 4,
   "enum_fields" :
   [
    {
     "enum_field_value" : -103,
     "name" : "aidl::android::hardware::gnss::IGnssGeofenceCallback::ERROR_INVALID_TRANSITION"
    }
   ],
   "linker_set_key" : "_ZTIN4aidl7android8hardware4gnss21IGnssGeofenceCallback25$ERROR_INVALID_TRANSITIONE",
   "name" : "aidl::android::hardware::gnss::IGnssGeofenceCallback::(unnamed enum at out/soong/.intermediates/hardware/interfaces/gnss/aidl/android.hardware.gnss-V2-ndk-source/gen/include/aidl/android/hardware/gnss/IGnssGeofenceCallback.h:33:3)",
   "referenced_type" : "_ZTIN4aidl7android8hardware4gnss21IGnssGeofenceCallback25$ERROR_INVALID_TRANSITIONE",
   "self_type" : "_ZTIN4aidl7android8hardware4gnss21IGnssGeofenceCallback25$ERROR_INVALID_TRANSITIONE",
   "size" : 4,
   "source_file" : "out/soong/.intermediates/hardware/interfaces/gnss/aidl/android.hardware.gnss-V2-ndk-source/gen/include/aidl/android/hardware/gnss/IGnssGeofenceCallback.h",
   "underlying_type" : "_ZTIi"
  },
  {
   "alignment" : 4,
   "enum_fields" :
   [
    {
     "enum_field_value" : -100,
     "name" : "aidl::android::hardware::gnss::IGnssGeofenceCallback::ERROR_TOO_MANY_GEOFENCES"
    }
   ],
   "linker_set_key" : "_ZTIN4aidl7android8hardware4gnss21IGnssGeofenceCallback25$ERROR_TOO_MANY_GEOFENCESE",
   "name" : "aidl::android::hardware::gnss::IGnssGeofenceCallback::(unnamed enum at out/soong/.intermediates/hardware/interfaces/gnss/aidl/android.hardware.gnss-V2-ndk-source/gen/include/aidl/android/hardware/gnss/IGnssGeofenceCallback.h:30:3)",
   "referenced_type" : "_ZTIN4aidl7android8hardware4gnss21IGnssGeofenceCallback25$ERROR_TOO_MANY_GEOFENCESE",
   "self_type" : "_ZTIN4aidl7android8hardware4gnss21IGnssGeofenceCallback25$ERROR_TOO_MANY_GEOFENCESE",
   "size" : 4,
   "source_file" : "out/soong/.intermediates/hardware/interfaces/gnss/aidl/android.hardware.gnss-V2-ndk-source/gen/include/aidl/android/hardware/gnss/IGnssGeofenceCallback.h",
   "underlying_type" : "_ZTIi"
  },
  {
   "alignment" : 4,
   "enum_fields" :
   [
    {
     "enum_field_value" : 2,
     "name" : "aidl::android::hardware::gnss::IGnssGeofenceCallback::EXITED"
    }
   ],
   "linker_set_key" : "_ZTIN4aidl7android8hardware4gnss21IGnssGeofenceCallback7$EXITEDE",
   "name" : "aidl::android::hardware::gnss::IGnssGeofenceCallback::(unnamed enum at out/soong/.intermediates/hardware/interfaces/gnss/aidl/android.hardware.gnss-V2-ndk-source/gen/include/aidl/android/hardware/gnss/IGnssGeofenceCallback.h:25:3)",
   "referenced_type" : "_ZTIN4aidl7android8hardware4gnss21IGnssGeofenceCallback7$EXITEDE",
   "self_type" : "_ZTIN4aidl7android8hardware4gnss21IGnssGeofenceCallback7$EXITEDE",
   "size" : 4,
   "source_file" : "out/soong/.intermediates/hardware/interfaces/gnss/aidl/android.hardware.gnss-V2-ndk-source/gen/include/aidl/android/hardware/gnss/IGnssGeofenceCallback.h",
   "underlying_type" : "_ZTIi"
  },
  {
   "alignment" : 4,
   "enum_fields" :
   [
    {
     "enum_field_value" : 1,
     "name" : "aidl::android::hardware::gnss::IGnssGeofenceCallback::ENTERED"
    }
   ],
   "linker_set_key" : "_ZTIN4aidl7android8hardware4gnss21IGnssGeofenceCallback8$ENTEREDE",
   "name" : "aidl::android::hardware::gnss::IGnssGeofenceCallback::(unnamed enum at out/soong/.intermediates/hardware/interfaces/gnss/aidl/android.hardware.gnss-V2-ndk-source/gen/include/aidl/android/hardware/gnss/IGnssGeofenceCallback.h:24:3)",
   "referenced_type" : "_ZTIN4aidl7android8hardware4gnss21IGnssGeofenceCallback8$ENTEREDE",
   "self_type" : "_ZTIN4aidl7android8hardware4gnss21IGnssGeofenceCallback8$ENTEREDE",
   "size" : 4,
   "source_file" : "out/soong/.intermediates/hardware/interfaces/gnss/aidl/android.hardware.gnss-V2-ndk-source/gen/include/aidl/android/hardware/gnss/IGnssGeofenceCallback.h",
   "underlying_type" : "_ZTIi"
  },
  {
   "alignment" : 4,
   "enum_fields" :
   [
    {
     "enum_field_value" : 0,
     "name" : "aidl::android::hardware::gnss::GnssMultipathIndicator::UNKNOWN"
    },
    {
     "enum_field_value" : 1,
     "name" : "aidl::android::hardware::gnss::GnssMultipathIndicator::PRESENT"
    },
    {
     "enum_field_value" : 2,
     "name" : "aidl::android::hardware::gnss::GnssMultipathIndicator::NOT_PRESENT"
    }
   ],
   "linker_set_key" : "_ZTIN4aidl7android8hardware4gnss22GnssMultipathIndicatorE",
   "name" : "aidl::android::hardware::gnss::GnssMultipathIndicator",
   "referenced_type" : "_ZTIN4aidl7android8hardware4gnss22GnssMultipathIndicatorE",
   "self_type" : "_ZTIN4aidl7android8hardware4gnss22GnssMultipathIndicatorE",
   "size" : 4,
   "source_file" : "out/soong/.intermediates/hardware/interfaces/gnss/aidl/android.hardware.gnss-V2-ndk-source/gen/include/aidl/android/hardware/gnss/GnssMultipathIndicator.h",
   "underlying_type" : "_ZTIi"
  },
  {
   "alignment" : 4,
   "enum_fields" :
   [
    {
     "enum_field_value" : 8,
     "name" : "aidl::android::hardware::gnss::measurement_corrections::SingleSatCorrection::ExcessPathInfo::EXCESS_PATH_INFO_HAS_ATTENUATION"
    }
   ],
   "linker_set_key" : "_ZTIN4aidl7android8hardware4gnss23measurement_corrections19SingleSatCorrection14ExcessPathInfo33$EXCESS_PATH_INFO_HAS_ATTENUATIONE",
   "name" : "aidl::android::hardware::gnss::measurement_corrections::SingleSatCorrection::ExcessPathInfo::(unnamed enum at out/soong/.intermediates/hardware/interfaces/gnss/aidl/android.hardware.gnss-V2-ndk-source/gen/include/aidl/android/hardware/gnss/measurement_corrections/SingleSatCorrection.h:65:5)",
   "referenced_type" : "_ZTIN4aidl7android8hardware4gnss23measurement_corrections19SingleSatCorrection14ExcessPathInfo33$EXCESS_PATH_INFO_HAS_ATTENUATIONE",
   "self_type" : "_ZTIN4aidl7android8hardware4gnss23measurement_corrections19SingleSatCorrection14ExcessPathInfo33$EXCESS_PATH_INFO_HAS_ATTENUATIONE",
   "size" : 4,
   "source_file" : "out/soong/.intermediates/hardware/interfaces/gnss/aidl/android.hardware.gnss-V2-ndk-source/gen/include/aidl/android/hardware/gnss/measurement_corrections/SingleSatCorrection.h",
   "underlying_type" : "_ZTIi"
  },
  {
   "alignment" : 4,
   "enum_fields" :
   [
    {
     "enum_field_value" : 4,
     "name" : "aidl::android::hardware::gnss::measurement_corrections::SingleSatCorrection::ExcessPathInfo::EXCESS_PATH_INFO_HAS_REFLECTING_PLANE"
    }
   ],
   "linker_set_key" : "_ZTIN4aidl7android8hardware4gnss23measurement_corrections19SingleSatCorrection14ExcessPathInfo38$EXCESS_PATH_INFO_HAS_REFLECTING_PLANEE",
   "name" : "aidl::android::hardware::gnss::measurement_corrections::SingleSatCorrection::ExcessPathInfo::(unnamed enum at out/soong/.intermediates/hardware/interfaces/gnss/aidl/android.hardware.gnss-V2-ndk-source/gen/include/aidl/android/hardware/gnss/measurement_corrections/SingleSatCorrection.h:64:5)",
   "referenced_type" : "_ZTIN4aidl7android8hardware4gnss23measurement_corrections19SingleSatCorrection14ExcessPathInfo38$EXCESS_PATH_INFO_HAS_REFLECTING_PLANEE",
   "self_type" : "_ZTIN4aidl7android8hardware4gnss23measurement_corrections19SingleSatCorrection14ExcessPathInfo38$EXCESS_PATH_INFO_HAS_REFLECTING_PLANEE",
   "size" : 4,
   "source_file" : "out/soong/.intermediates/hardware/interfaces/gnss/aidl/android.hardware.gnss-V2-ndk-source/gen/include/aidl/android/hardware/gnss/measurement_corrections/SingleSatCorrection.h",
   "underlying_type" : "_ZTIi"
  },
  {
   "alignment" : 4,
   "enum_fields" :
   [
    {
     "enum_field_value" : 1,
     "name" : "aidl::android::hardware::gnss::measurement_corrections::SingleSatCorrection::ExcessPathInfo::EXCESS_PATH_INFO_HAS_EXCESS_PATH_LENGTH"
    }
   ],
   "linker_set_key" : "_ZTIN4aidl7android8hardware4gnss23measurement_corrections19SingleSatCorrection14ExcessPathInfo40$EXCESS_PATH_INFO_HAS_EXCESS_PATH_LENGTHE",
   "name" : "aidl::android::hardware::gnss::measurement_corrections::SingleSatCorrection::ExcessPathInfo::(unnamed enum at out/soong/.intermediates/hardware/interfaces/gnss/aidl/android.hardware.gnss-V2-ndk-source/gen/include/aidl/android/hardware/gnss/measurement_corrections/SingleSatCorrection.h:62:5)",
   "referenced_type" : "_ZTIN4aidl7android8hardware4gnss23measurement_corrections19SingleSatCorrection14ExcessPathInfo40$EXCESS_PATH_INFO_HAS_EXCESS_PATH_LENGTHE",
   "self_type" : "_ZTIN4aidl7android8hardware4gnss23measurement_corrections19SingleSatCorrection14ExcessPathInfo40$EXCESS_PATH_INFO_HAS_EXCESS_PATH_LENGTHE",
   "size" : 4,
   "source_file" : "out/soong/.intermediates/hardware/interfaces/gnss/aidl/android.hardware.gnss-V2-ndk-source/gen/include/aidl/android/hardware/gnss/measurement_corrections/SingleSatCorrection.h",
   "underlying_type" : "_ZTIi"
  },
  {
   "alignment" : 4,
   "enum_fields" :
   [
    {
     "enum_field_value" : 2,
     "name" : "aidl::android::hardware::gnss::measurement_corrections::SingleSatCorrection::ExcessPathInfo::EXCESS_PATH_INFO_HAS_EXCESS_PATH_LENGTH_UNC"
    }
   ],
   "linker_set_key" : "_ZTIN4aidl7android8hardware4gnss23measurement_corrections19SingleSatCorrection14ExcessPathInfo44$EXCESS_PATH_INFO_HAS_EXCESS_PATH_LENGTH_UNCE",
   "name" : "aidl::android::hardware::gnss::measurement_corrections::SingleSatCorrection::ExcessPathInfo::(unnamed enum at out/soong/.intermediates/hardware/interfaces/gnss/aidl/android.hardware.gnss-V2-ndk-source/gen/include/aidl/android/hardware/gnss/measurement_corrections/SingleSatCorrection.h:63:5)",
   "referenced_type" : "_ZTIN4aidl7android8hardware4gnss23measurement_corrections19SingleSatCorrection14ExcessPathInfo44$EXCESS_PATH_INFO_HAS_EXCESS_PATH_LENGTH_UNCE",
   "self_type" : "_ZTIN4aidl7android8hardware4gnss23measurement_corrections19SingleSatCorrection14ExcessPathInfo44$EXCESS_PATH_INFO_HAS_EXCESS_PATH_LENGTH_UNCE",
   "size" : 4,
   "source_file" : "out/soong/.intermediates/hardware/interfaces/gnss/aidl/android.hardware.gnss-V2-ndk-source/gen/include/aidl/android/hardware/gnss/measurement_corrections/SingleSatCorrection.h",
   "underlying_type" : "_ZTIi"
  },
  {
   "alignment" : 4,
   "enum_fields" :
   [
    {
     "enum_field_value" : 16,
     "name" : "aidl::android::hardware::gnss::measurement_corrections::SingleSatCorrection::SINGLE_SAT_CORRECTION_HAS_COMBINED_ATTENUATION"
    }
   ],
   "linker_set_key" : "_ZTIN4aidl7android8hardware4gnss23measurement_corrections19SingleSatCorrection47$SINGLE_SAT_CORRECTION_HAS_COMBINED_ATTENUATIONE",
   "name" : "aidl::android::hardware::gnss::measurement_corrections::SingleSatCorrection::(unnamed enum at out/soong/.intermediates/hardware/interfaces/gnss/aidl/android.hardware.gnss-V2-ndk-source/gen/include/aidl/android/hardware/gnss/measurement_corrections/SingleSatCorrection.h:114:3)",
   "referenced_type" : "_ZTIN4aidl7android8hardware4gnss23measurement_corrections19SingleSatCorrection47$SINGLE_SAT_CORRECTION_HAS_COMBINED_ATTENUATIONE",
   "self_type" : "_ZTIN4aidl7android8hardware4gnss23measurement_corrections19SingleSatCorrection47$SINGLE_SAT_CORRECTION_HAS_COMBINED_ATTENUATIONE",
   "size" : 4,
   "source_file" : "out/soong/.intermediates/hardware/interfaces/gnss/aidl/android.hardware.gnss-V2-ndk-source/gen/include/aidl/android/hardware/gnss/measurement_corrections/SingleSatCorrection.h",
   "underlying_type" : "_ZTIi"
  },
  {
   "alignment" : 4,
   "enum_fields" :
   [
    {
     "enum_field_value" : 1,
     "name" : "aidl::android::hardware::gnss::measurement_corrections::SingleSatCorrection::SINGLE_SAT_CORRECTION_HAS_SAT_IS_LOS_PROBABILITY"
    }
   ],
   "linker_set_key" : "_ZTIN4aidl7android8hardware4gnss23measurement_corrections19SingleSatCorrection49$SINGLE_SAT_CORRECTION_HAS_SAT_IS_LOS_PROBABILITYE",
   "name" : "aidl::android::hardware::gnss::measurement_corrections::SingleSatCorrection::(unnamed enum at out/soong/.intermediates/hardware/interfaces/gnss/aidl/android.hardware.gnss-V2-ndk-source/gen/include/aidl/android/hardware/gnss/measurement_corrections/SingleSatCorrection.h:111:3)",
   "referenced_type" : "_ZTIN4aidl7android8hardware4gnss23measurement_corrections19SingleSatCorrection49$SINGLE_SAT_CORRECTION_HAS_SAT_IS_LOS_PROBABILITYE",
   "self_type" : "_ZTIN4aidl7android8hardware4gnss23measurement_corrections19SingleSatCorrection49$SINGLE_SAT_CORRECTION_HAS_SAT_IS_LOS_PROBABILITYE",
   "size" : 4,
   "source_file" : "out/soong/.intermediates/hardware/interfaces/gnss/aidl/android.hardware.gnss-V2-ndk-source/gen/include/aidl/android/hardware/gnss/measurement_corrections/SingleSatCorrection.h",
   "underlying_type" : "_ZTIi"
  },
  {
   "alignment" : 4,
   "enum_fields" :
   [
    {
     "enum_field_value" : 2,
     "name" : "aidl::android::hardware::gnss::measurement_corrections::SingleSatCorrection::SINGLE_SAT_CORRECTION_HAS_COMBINED_EXCESS_PATH_LENGTH"
    }
   ],
   "linker_set_key" : "_ZTIN4aidl7android8hardware4gnss23measurement_corrections19SingleSatCorrection54$SINGLE_SAT_CORRECTION_HAS_COMBINED_EXCESS_PATH_LENGTHE",
   "name" : "aidl::android::hardware::gnss::measurement_corrections::SingleSatCorrection::(unnamed enum at out/soong/.intermediates/hardware/interfaces/gnss/aidl/android.hardware.gnss-V2-ndk-source/gen/include/aidl/android/hardware/gnss/measurement_corrections/SingleSatCorrection.h:112:3)",
   "referenced_type" : "_ZTIN4aidl7android8hardware4gnss23measurement_corrections19SingleSatCorrection54$SINGLE_SAT_CORRECTION_HAS_COMBINED_EXCESS_PATH_LENGTHE",
   "self_type" : "_ZTIN4aidl7android8hardware4gnss23measurement_corrections19SingleSatCorrection54$SINGLE_SAT_CORRECTION_HAS_COMBINED_EXCESS_PATH_LENGTHE",
   "size" : 4,
   "source_file" : "out/soong/.intermediates/hardware/interfaces/gnss/aidl/android.hardware.gnss-V2-ndk-source/gen/include/aidl/android/hardware/gnss/measurement_corrections/SingleSatCorrection.h",
   "underlying_type" : "_ZTIi"
  },
  {
   "alignment" : 4,
   "enum_fields" :
   [
    {
     "enum_field_value" : 4,
     "name" : "aidl::android::hardware::gnss::measurement_corrections::SingleSatCorrection::SINGLE_SAT_CORRECTION_HAS_COMBINED_EXCESS_PATH_LENGTH_UNC"
    }
   ],
   "linker_set_key" : "_ZTIN4aidl7android8hardware4gnss23measurement_corrections19SingleSatCorrection58$SINGLE_SAT_CORRECTION_HAS_COMBINED_EXCESS_PATH_LENGTH_UNCE",
   "name" : "aidl::android::hardware::gnss::measurement_corrections::SingleSatCorrection::(unnamed enum at out/soong/.intermediates/hardware/interfaces/gnss/aidl/android.hardware.gnss-V2-ndk-source/gen/include/aidl/android/hardware/gnss/measurement_corrections/SingleSatCorrection.h:113:3)",
   "referenced_type" : "_ZTIN4aidl7android8hardware4gnss23measurement_corrections19SingleSatCorrection58$SINGLE_SAT_CORRECTION_HAS_COMBINED_EXCESS_PATH_LENGTH_UNCE",
   "self_type" : "_ZTIN4aidl7android8hardware4gnss23measurement_corrections19SingleSatCorrection58$SINGLE_SAT_CORRECTION_HAS_COMBINED_EXCESS_PATH_LENGTH_UNCE",
   "size" : 4,
   "source_file" : "out/soong/.intermediates/hardware/interfaces/gnss/aidl/android.hardware.gnss-V2-ndk-source/gen/include/aidl/android/hardware/gnss/measurement_corrections/SingleSatCorrection.h",
   "underlying_type" : "_ZTIi"
  },
  {
   "alignment" : 4,
   "enum_fields" :
   [
    {
     "enum_field_value" : 1,
     "name" : "aidl::android::hardware::gnss::measurement_corrections::IMeasurementCorrectionsCallback::CAPABILITY_LOS_SATS"
    }
   ],
   "linker_set_key" : "_ZTIN4aidl7android8hardware4gnss23measurement_corrections31IMeasurementCorrectionsCallback20$CAPABILITY_LOS_SATSE",
   "name" : "aidl::android::hardware::gnss::measurement_corrections::IMeasurementCorrectionsCallback::(unnamed enum at out/soong/.intermediates/hardware/interfaces/gnss/aidl/android.hardware.gnss-V2-ndk-source/gen/include/aidl/android/hardware/gnss/measurement_corrections/IMeasurementCorrectionsCallback.h:24:3)",
   "referenced_type" : "_ZTIN4aidl7android8hardware4gnss23measurement_corrections31IMeasurementCorrectionsCallback20$CAPABILITY_LOS_SATSE",
   "self_type" : "_ZTIN4aidl7android8hardware4gnss23measurement_corrections31IMeasurementCorrectionsCallback20$CAPABILITY_LOS_SATSE",
   "size" : 4,
   "source_file" : "out/soong/.intermediates/hardware/interfaces/gnss/aidl/android.hardware.gnss-V2-ndk-source/gen/include/aidl/android/hardware/gnss/measurement_corrections/IMeasurementCorrectionsCallback.h",
   "underlying_type" : "_ZTIi"
  },
  {
   "alignment" : 4,
   "enum_fields" :
   [
    {
     "enum_field_value" : 4,
     "name" : "aidl::android::hardware::gnss::measurement_corrections::IMeasurementCorrectionsCallback::CAPABILITY_REFLECTING_PLANE"
    }
   ],
   "linker_set_key" : "_ZTIN4aidl7android8hardware4gnss23measurement_corrections31IMeasurementCorrectionsCallback28$CAPABILITY_REFLECTING_PLANEE",
   "name" : "aidl::android::hardware::gnss::measurement_corrections::IMeasurementCorrectionsCallback::(unnamed enum at out/soong/.intermediates/hardware/interfaces/gnss/aidl/android.hardware.gnss-V2-ndk-source/gen/include/aidl/android/hardware/gnss/measurement_corrections/IMeasurementCorrectionsCallback.h:26:3)",
   "referenced_type" : "_ZTIN4aidl7android8hardware4gnss23measurement_corrections31IMeasurementCorrectionsCallback28$CAPABILITY_REFLECTING_PLANEE",
   "self_type" : "_ZTIN4aidl7android8hardware4gnss23measurement_corrections31IMeasurementCorrectionsCallback28$CAPABILITY_REFLECTING_PLANEE",
   "size" : 4,
   "source_file" : "out/soong/.intermediates/hardware/interfaces/gnss/aidl/android.hardware.gnss-V2-ndk-source/gen/include/aidl/android/hardware/gnss/measurement_corrections/IMeasurementCorrectionsCallback.h",
   "underlying_type" : "_ZTIi"
  },
  {
   "alignment" : 4,
   "enum_fields" :
   [
    {
     "enum_field_value" : 2,
     "name" : "aidl::android::hardware::gnss::measurement_corrections::IMeasurementCorrectionsCallback::CAPABILITY_EXCESS_PATH_LENGTH"
    }
   ],
   "linker_set_key" : "_ZTIN4aidl7android8hardware4gnss23measurement_corrections31IMeasurementCorrectionsCallback30$CAPABILITY_EXCESS_PATH_LENGTHE",
   "name" : "aidl::android::hardware::gnss::measurement_corrections::IMeasurementCorrectionsCallback::(unnamed enum at out/soong/.intermediates/hardware/interfaces/gnss/aidl/android.hardware.gnss-V2-ndk-source/gen/include/aidl/android/hardware/gnss/measurement_corrections/IMeasurementCorrectionsCallback.h:25:3)",
   "referenced_type" : "_ZTIN4aidl7android8hardware4gnss23measurement_corrections31IMeasurementCorrectionsCallback30$CAPABILITY_EXCESS_PATH_LENGTHE",
   "self_type" : "_ZTIN4aidl7android8hardware4gnss23measurement_corrections31IMeasurementCorrectionsCallback30$CAPABILITY_EXCESS_PATH_LENGTHE",
   "size" : 4,
   "source_file" : "out/soong/.intermediates/hardware/interfaces/gnss/aidl/android.hardware.gnss-V2-ndk-source/gen/include/aidl/android/hardware/gnss/measurement_corrections/IMeasurementCorrectionsCallback.h",
   "underlying_type" : "_ZTIi"
  },
  {
   "alignment" : 4,
   "enum_fields" :
   [
    {
     "enum_field_value" : 1,
     "name" : "aidl::android::hardware::gnss::IGnssPowerIndicationCallback::CAPABILITY_TOTAL"
    }
   ],
   "linker_set_key" : "_ZTIN4aidl7android8hardware4gnss28IGnssPowerIndicationCallback17$CAPABILITY_TOTALE",
   "name" : "aidl::android::hardware::gnss::IGnssPowerIndicationCallback::(unnamed enum at out/soong/.intermediates/hardware/interfaces/gnss/aidl/android.hardware.gnss-V2-ndk-source/gen/include/aidl/android/hardware/gnss/IGnssPowerIndicationCallback.h:24:3)",
   "referenced_type" : "_ZTIN4aidl7android8hardware4gnss28IGnssPowerIndicationCallback17$CAPABILITY_TOTALE",
   "self_type" : "_ZTIN4aidl7android8hardware4gnss28IGnssPowerIndicationCallback17$CAPABILITY_TOTALE",
   "size" : 4,
   "source_file" : "out/soong/.intermediates/hardware/interfaces/gnss/aidl/android.hardware.gnss-V2-ndk-source/gen/include/aidl/android/hardware/gnss/IGnssPowerIndicationCallback.h",
   "underlying_type" : "_ZTIi"
  },
  {
   "alignment" : 4,
   "enum_fields" :
   [
    {
     "enum_field_value" : 32,
     "name" : "aidl::android::hardware::gnss::IGnssPowerIndicationCallback::CAPABILITY_OTHER_MODES"
    }
   ],
   "linker_set_key" : "_ZTIN4aidl7android8hardware4gnss28IGnssPowerIndicationCallback23$CAPABILITY_OTHER_MODESE",
   "name" : "aidl::android::hardware::gnss::IGnssPowerIndicationCallback::(unnamed enum at out/soong/.intermediates/hardware/interfaces/gnss/aidl/android.hardware.gnss-V2-ndk-source/gen/include/aidl/android/hardware/gnss/IGnssPowerIndicationCallback.h:29:3)",
   "referenced_type" : "_ZTIN4aidl7android8hardware4gnss28IGnssPowerIndicationCallback23$CAPABILITY_OTHER_MODESE",
   "self_type" : "_ZTIN4aidl7android8hardware4gnss28IGnssPowerIndicationCallback23$CAPABILITY_OTHER_MODESE",
   "size" : 4,
   "source_file" : "out/soong/.intermediates/hardware/interfaces/gnss/aidl/android.hardware.gnss-V2-ndk-source/gen/include/aidl/android/hardware/gnss/IGnssPowerIndicationCallback.h",
   "underlying_type" : "_ZTIi"
  },
  {
   "alignment" : 4,
   "enum_fields" :
   [
    {
     "enum_field_value" : 4,
     "name" : "aidl::android::hardware::gnss::IGnssPowerIndicationCallback::CAPABILITY_MULTIBAND_TRACKING"
    }
   ],
   "linker_set_key" : "_ZTIN4aidl7android8hardware4gnss28IGnssPowerIndicationCallback30$CAPABILITY_MULTIBAND_TRACKINGE",
   "name" : "aidl::android::hardware::gnss::IGnssPowerIndicationCallback::(unnamed enum at out/soong/.intermediates/hardware/interfaces/gnss/aidl/android.hardware.gnss-V2-ndk-source/gen/include/aidl/android/hardware/gnss/IGnssPowerIndicationCallback.h:26:3)",
   "referenced_type" : "_ZTIN4aidl7android8hardware4gnss28IGnssPowerIndicationCallback30$CAPABILITY_MULTIBAND_TRACKINGE",
   "self_type" : "_ZTIN4aidl7android8hardware4gnss28IGnssPowerIndicationCallback30$CAPABILITY_MULTIBAND_TRACKINGE",
   "size" : 4,
   "source_file" : "out/soong/.intermediates/hardware/interfaces/gnss/aidl/android.hardware.gnss-V2-ndk-source/gen/include/aidl/android/hardware/gnss/IGnssPowerIndicationCallback.h",
   "underlying_type" : "_ZTIi"
  },
  {
   "alignment" : 4,
   "enum_fields" :
   [
    {
     "enum_field_value" : 2,
     "name" : "aidl::android::hardware::gnss::IGnssPowerIndicationCallback::CAPABILITY_SINGLEBAND_TRACKING"
    }
   ],
   "linker_set_key" : "_ZTIN4aidl7android8hardware4gnss28IGnssPowerIndicationCallback31$CAPABILITY_SINGLEBAND_TRACKINGE",
   "name" : "aidl::android::hardware::gnss::IGnssPowerIndicationCallback::(unnamed enum at out/soong/.intermediates/hardware/interfaces/gnss/aidl/android.hardware.gnss-V2-ndk-source/gen/include/aidl/android/hardware/gnss/IGnssPowerIndicationCallback.h:25:3)",
   "referenced_type" : "_ZTIN4aidl7android8hardware4gnss28IGnssPowerIndicationCallback31$CAPABILITY_SINGLEBAND_TRACKINGE",
   "self_type" : "_ZTIN4aidl7android8hardware4gnss28IGnssPowerIndicationCallback31$CAPABILITY_SINGLEBAND_TRACKINGE",
   "size" : 4,
   "source_file" : "out/soong/.intermediates/hardware/interfaces/gnss/aidl/android.hardware.gnss-V2-ndk-source/gen/include/aidl/android/hardware/gnss/IGnssPowerIndicationCallback.h",
   "underlying_type" : "_ZTIi"
  },
  {
   "alignment" : 4,
   "enum_fields" :
   [
    {
     "enum_field_value" : 16,
     "name" : "aidl::android::hardware::gnss::IGnssPowerIndicationCallback::CAPABILITY_MULTIBAND_ACQUISITION"
    }
   ],
   "linker_set_key" : "_ZTIN4aidl7android8hardware4gnss28IGnssPowerIndicationCallback33$CAPABILITY_MULTIBAND_ACQUISITIONE",
   "name" : "aidl::android::hardware::gnss::IGnssPowerIndicationCallback::(unnamed enum at out/soong/.intermediates/hardware/interfaces/gnss/aidl/android.hardware.gnss-V2-ndk-source/gen/include/aidl/android/hardware/gnss/IGnssPowerIndicationCallback.h:28:3)",
   "referenced_type" : "_ZTIN4aidl7android8hardware4gnss28IGnssPowerIndicationCallback33$CAPABILITY_MULTIBAND_ACQUISITIONE",
   "self_type" : "_ZTIN4aidl7android8hardware4gnss28IGnssPowerIndicationCallback33$CAPABILITY_MULTIBAND_ACQUISITIONE",
   "size" : 4,
   "source_file" : "out/soong/.intermediates/hardware/interfaces/gnss/aidl/android.hardware.gnss-V2-ndk-source/gen/include/aidl/android/hardware/gnss/IGnssPowerIndicationCallback.h",
   "underlying_type" : "_ZTIi"
  },
  {
   "alignment" : 4,
   "enum_fields" :
   [
    {
     "enum_field_value" : 8,
     "name" : "aidl::android::hardware::gnss::IGnssPowerIndicationCallback::CAPABILITY_SINGLEBAND_ACQUISITION"
    }
   ],
   "linker_set_key" : "_ZTIN4aidl7android8hardware4gnss28IGnssPowerIndicationCallback34$CAPABILITY_SINGLEBAND_ACQUISITIONE",
   "name" : "aidl::android::hardware::gnss::IGnssPowerIndicationCallback::(unnamed enum at out/soong/.intermediates/hardware/interfaces/gnss/aidl/android.hardware.gnss-V2-ndk-source/gen/include/aidl/android/hardware/gnss/IGnssPowerIndicationCallback.h:27:3)",
   "referenced_type" : "_ZTIN4aidl7android8hardware4gnss28IGnssPowerIndicationCallback34$CAPABILITY_SINGLEBAND_ACQUISITIONE",
   "self_type" : "_ZTIN4aidl7android8hardware4gnss28IGnssPowerIndicationCallback34$CAPABILITY_SINGLEBAND_ACQUISITIONE",
   "size" : 4,
   "source_file" : "out/soong/.intermediates/hardware/interfaces/gnss/aidl/android.hardware.gnss-V2-ndk-source/gen/include/aidl/android/hardware/gnss/IGnssPowerIndicationCallback.h",
   "underlying_type" : "_ZTIi"
  },
  {
   "alignment" : 4,
   "enum_fields" :
   [
    {
     "enum_field_value" : 0,
     "name" : "aidl::android::hardware::gnss::IGnssNavigationMessageCallback::GnssNavigationMessage::STATUS_UNKNOWN"
    }
   ],
   "linker_set_key" : "_ZTIN4aidl7android8hardware4gnss30IGnssNavigationMessageCallback21GnssNavigationMessage15$STATUS_UNKNOWNE",
   "name" : "aidl::android::hardware::gnss::IGnssNavigationMessageCallback::GnssNavigationMessage::(unnamed enum at out/soong/.intermediates/hardware/interfaces/gnss/aidl/android.hardware.gnss-V2-ndk-source/gen/include/aidl/android/hardware/gnss/IGnssNavigationMessageCallback.h:83:5)",
   "referenced_type" : "_ZTIN4aidl7android8hardware4gnss30IGnssNavigationMessageCallback21GnssNavigationMessage15$STATUS_UNKNOWNE",
   "self_type" : "_ZTIN4aidl7android8hardware4gnss30IGnssNavigationMessageCallback21GnssNavigationMessage15$STATUS_UNKNOWNE",
   "size" : 4,
   "source_file" : "out/soong/.intermediates/hardware/interfaces/gnss/aidl/android.hardware.gnss-V2-ndk-source/gen/include/aidl/android/hardware/gnss/IGnssNavigationMessageCallback.h",
   "underlying_type" : "_ZTIi"
  },
  {
   "alignment" : 4,
   "enum_fields" :
   [
    {
     "enum_field_value" : 1,
     "name" : "aidl::android::hardware::gnss::IGnssNavigationMessageCallback::GnssNavigationMessage::STATUS_PARITY_PASSED"
    }
   ],
   "linker_set_key" : "_ZTIN4aidl7android8hardware4gnss30IGnssNavigationMessageCallback21GnssNavigationMessage21$STATUS_PARITY_PASSEDE",
   "name" : "aidl::android::hardware::gnss::IGnssNavigationMessageCallback::GnssNavigationMessage::(unnamed enum at out/soong/.intermediates/hardware/interfaces/gnss/aidl/android.hardware.gnss-V2-ndk-source/gen/include/aidl/android/hardware/gnss/IGnssNavigationMessageCallback.h:81:5)",
   "referenced_type" : "_ZTIN4aidl7android8hardware4gnss30IGnssNavigationMessageCallback21GnssNavigationMessage21$STATUS_PARITY_PASSEDE",
   "self_type" : "_ZTIN4aidl7android8hardware4gnss30IGnssNavigationMessageCallback21GnssNavigationMessage21$STATUS_PARITY_PASSEDE",
   "size" : 4,
   "source_file" : "out/soong/.intermediates/hardware/interfaces/gnss/aidl/android.hardware.gnss-V2-ndk-source/gen/include/aidl/android/hardware/gnss/IGnssNavigationMessageCallback.h",
   "underlying_type" : "_ZTIi"
  },
  {
   "alignment" : 4,
   "enum_fields" :
   [
    {
     "enum_field_value" : 2,
     "name" : "aidl::android::hardware::gnss::IGnssNavigationMessageCallback::GnssNavigationMessage::STATUS_PARITY_REBUILT"
    }
   ],
   "linker_set_key" : "_ZTIN4aidl7android8hardware4gnss30IGnssNavigationMessageCallback21GnssNavigationMessage22$STATUS_PARITY_REBUILTE",
   "name" : "aidl::android::hardware::gnss::IGnssNavigationMessageCallback::GnssNavigationMessage::(unnamed enum at out/soong/.intermediates/hardware/interfaces/gnss/aidl/android.hardware.gnss-V2-ndk-source/gen/include/aidl/android/hardware/gnss/IGnssNavigationMessageCallback.h:82:5)",
   "referenced_type" : "_ZTIN4aidl7android8hardware4gnss30IGnssNavigationMessageCallback21GnssNavigationMessage22$STATUS_PARITY_REBUILTE",
   "self_type" : "_ZTIN4aidl7android8hardware4gnss30IGnssNavigationMessageCallback21GnssNavigationMessage22$STATUS_PARITY_REBUILTE",
   "size" : 4,
   "source_file" : "out/soong/.intermediates/hardware/interfaces/gnss/aidl/android.hardware.gnss-V2-ndk-source/gen/include/aidl/android/hardware/gnss/IGnssNavigationMessageCallback.h",
   "underlying_type" : "_ZTIi"
  },
  {
   "alignment" : 4,
   "enum_fields" :
   [
    {
     "enum_field_value" : 0,
     "name" : "aidl::android::hardware::gnss::IGnssNavigationMessageCallback::GnssNavigationMessage::GnssNavigationMessageType::UNKNOWN"
    },
    {
     "enum_field_value" : 257,
     "name" : "aidl::android::hardware::gnss::IGnssNavigationMessageCallback::GnssNavigationMessage::GnssNavigationMessageType::GPS_L1CA"
    },
    {
     "enum_field_value" : 258,
     "name" : "aidl::android::hardware::gnss::IGnssNavigationMessageCallback::GnssNavigationMessage::GnssNavigationMessageType::GPS_L2CNAV"
    },
    {
     "enum_field_value" : 259,
     "name" : "aidl::android::hardware::gnss::IGnssNavigationMessageCallback::GnssNavigationMessage::GnssNavigationMessageType::GPS_L5CNAV"
    },
    {
     "enum_field_value" : 513,
     "name" : "aidl::android::hardware::gnss::IGnssNavigationMessageCallback::GnssNavigationMessage::GnssNavigationMessageType::SBS"
    },
    {
     "enum_field_value" : 260,
     "name" : "aidl::android::hardware::gnss::IGnssNavigationMessageCallback::GnssNavigationMessage::GnssNavigationMessageType::GPS_CNAV2"
    },
    {
     "enum_field_value" : 769,
     "name" : "aidl::android::hardware::gnss::IGnssNavigationMessageCallback::GnssNavigationMessage::GnssNavigationMessageType::GLO_L1CA"
    },
    {
     "enum_field_value" : 1025,
     "name" : "aidl::android::hardware::gnss::IGnssNavigationMessageCallback::GnssNavigationMessage::GnssNavigationMessageType::QZS_L1CA"
    },
    {
     "enum_field_value" : 1281,
     "name" : "aidl::android::hardware::gnss::IGnssNavigationMessageCallback::GnssNavigationMessage::GnssNavigationMessageType::BDS_D1"
    },
    {
     "enum_field_value" : 1282,
     "name" : "aidl::android::hardware::gnss::IGnssNavigationMessageCallback::GnssNavigationMessage::GnssNavigationMessageType::BDS_D2"
    },
    {
     "enum_field_value" : 1283,
     "name" : "aidl::android::hardware::gnss::IGnssNavigationMessageCallback::GnssNavigationMessage::GnssNavigationMessageType::BDS_CNAV1"
    },
    {
     "enum_field_value" : 1284,
     "name" : "aidl::android::hardware::gnss::IGnssNavigationMessageCallback::GnssNavigationMessage::GnssNavigationMessageType::BDS_CNAV2"
    },
    {
     "enum_field_value" : 1537,
     "name" : "aidl::android::hardware::gnss::IGnssNavigationMessageCallback::GnssNavigationMessage::GnssNavigationMessageType::GAL_I"
    },
    {
     "enum_field_value" : 1538,
     "name" : "aidl::android::hardware::gnss::IGnssNavigationMessageCallback::GnssNavigationMessage::GnssNavigationMessageType::GAL_F"
    },
    {
     "enum_field_value" : 1793,
     "name" : "aidl::android::hardware::gnss::IGnssNavigationMessageCallback::GnssNavigationMessage::GnssNavigationMessageType::IRN_L5CA"
    }
   ],
   "linker_set_key" : "_ZTIN4aidl7android8hardware4gnss30IGnssNavigationMessageCallback21GnssNavigationMessage25GnssNavigationMessageTypeE",
   "name" : "aidl::android::hardware::gnss::IGnssNavigationMessageCallback::GnssNavigationMessage::GnssNavigationMessageType",
   "referenced_type" : "_ZTIN4aidl7android8hardware4gnss30IGnssNavigationMessageCallback21GnssNavigationMessage25GnssNavigationMessageTypeE",
   "self_type" : "_ZTIN4aidl7android8hardware4gnss30IGnssNavigationMessageCallback21GnssNavigationMessage25GnssNavigationMessageTypeE",
   "size" : 4,
   "source_file" : "out/soong/.intermediates/hardware/interfaces/gnss/aidl/android.hardware.gnss-V2-ndk-source/gen/include/aidl/android/hardware/gnss/IGnssNavigationMessageCallback.h",
   "underlying_type" : "_ZTIi"
  },
  {
   "alignment" : 4,
   "enum_fields" :
   [
    {
     "enum_field_value" : 3,
     "name" : "aidl::android::hardware::gnss::IGnss::ERROR_GENERIC"
    }
   ],
   "linker_set_key" : "_ZTIN4aidl7android8hardware4gnss5IGnss14$ERROR_GENERICE",
   "name" : "aidl::android::hardware::gnss::IGnss::(unnamed enum at out/soong/.intermediates/hardware/interfaces/gnss/aidl/android.hardware.gnss-V2-ndk-source/gen/include/aidl/android/hardware/gnss/IGnss.h:120:3)",
   "referenced_type" : "_ZTIN4aidl7android8hardware4gnss5IGnss14$ERROR_GENERICE",
   "self_type" : "_ZTIN4aidl7android8hardware4gnss5IGnss14$ERROR_GENERICE",
   "size" : 4,
   "source_file" : "out/soong/.intermediates/hardware/interfaces/gnss/aidl/android.hardware.gnss-V2-ndk-source/gen/include/aidl/android/hardware/gnss/IGnss.h",
   "underlying_type" : "_ZTIi"
  },
  {
   "alignment" : 4,
   "enum_fields" :
   [
    {
     "enum_field_value" : 1,
     "name" : "aidl::android::hardware::gnss::IGnss::GnssAidingData::EPHEMERIS"
    },
    {
     "enum_field_value" : 2,
     "name" : "aidl::android::hardware::gnss::IGnss::GnssAidingData::ALMANAC"
    },
    {
     "enum_field_value" : 4,
     "name" : "aidl::android::hardware::gnss::IGnss::GnssAidingData::POSITION"
    },
    {
     "enum_field_value" : 8,
     "name" : "aidl::android::hardware::gnss::IGnss::GnssAidingData::TIME"
    },
    {
     "enum_field_value" : 16,
     "name" : "aidl::android::hardware::gnss::IGnss::GnssAidingData::IONO"
    },
    {
     "enum_field_value" : 32,
     "name" : "aidl::android::hardware::gnss::IGnss::GnssAidingData::UTC"
    },
    {
     "enum_field_value" : 64,
     "name" : "aidl::android::hardware::gnss::IGnss::GnssAidingData::HEALTH"
    },
    {
     "enum_field_value" : 128,
     "name" : "aidl::android::hardware::gnss::IGnss::GnssAidingData::SVDIR"
    },
    {
     "enum_field_value" : 256,
     "name" : "aidl::android::hardware::gnss::IGnss::GnssAidingData::SVSTEER"
    },
    {
     "enum_field_value" : 512,
     "name" : "aidl::android::hardware::gnss::IGnss::GnssAidingData::SADATA"
    },
    {
     "enum_field_value" : 1024,
     "name" : "aidl::android::hardware::gnss::IGnss::GnssAidingData::RTI"
    },
    {
     "enum_field_value" : 32768,
     "name" : "aidl::android::hardware::gnss::IGnss::GnssAidingData::CELLDB_INFO"
    },
    {
     "enum_field_value" : 65535,
     "name" : "aidl::android::hardware::gnss::IGnss::GnssAidingData::ALL"
    }
   ],
   "linker_set_key" : "_ZTIN4aidl7android8hardware4gnss5IGnss14GnssAidingDataE",
   "name" : "aidl::android::hardware::gnss::IGnss::GnssAidingData",
   "referenced_type" : "_ZTIN4aidl7android8hardware4gnss5IGnss14GnssAidingDataE",
   "self_type" : "_ZTIN4aidl7android8hardware4gnss5IGnss14GnssAidingDataE",
   "size" : 4,
   "source_file" : "out/soong/.intermediates/hardware/interfaces/gnss/aidl/android.hardware.gnss-V2-ndk-source/gen/include/aidl/android/hardware/gnss/IGnss.h",
   "underlying_type" : "_ZTIi"
  },
  {
   "alignment" : 4,
   "enum_fields" :
   [
    {
     "enum_field_value" : 0,
     "name" : "aidl::android::hardware::gnss::IGnss::GnssPositionMode::STANDALONE"
    },
    {
     "enum_field_value" : 1,
     "name" : "aidl::android::hardware::gnss::IGnss::GnssPositionMode::MS_BASED"
    },
    {
     "enum_field_value" : 2,
     "name" : "aidl::android::hardware::gnss::IGnss::GnssPositionMode::MS_ASSISTED"
    }
   ],
   "linker_set_key" : "_ZTIN4aidl7android8hardware4gnss5IGnss16GnssPositionModeE",
   "name" : "aidl::android::hardware::gnss::IGnss::GnssPositionMode",
   "referenced_type" : "_ZTIN4aidl7android8hardware4gnss5IGnss16GnssPositionModeE",
   "self_type" : "_ZTIN4aidl7android8hardware4gnss5IGnss16GnssPositionModeE",
   "size" : 4,
   "source_file" : "out/soong/.intermediates/hardware/interfaces/gnss/aidl/android.hardware.gnss-V2-ndk-source/gen/include/aidl/android/hardware/gnss/IGnss.h",
   "underlying_type" : "_ZTIi"
  },
  {
   "alignment" : 4,
   "enum_fields" :
   [
    {
     "enum_field_value" : 2,
     "name" : "aidl::android::hardware::gnss::IGnss::ERROR_ALREADY_INIT"
    }
   ],
   "linker_set_key" : "_ZTIN4aidl7android8hardware4gnss5IGnss19$ERROR_ALREADY_INITE",
   "name" : "aidl::android::hardware::gnss::IGnss::(unnamed enum at out/soong/.intermediates/hardware/interfaces/gnss/aidl/android.hardware.gnss-V2-ndk-source/gen/include/aidl/android/hardware/gnss/IGnss.h:119:3)",
   "referenced_type" : "_ZTIN4aidl7android8hardware4gnss5IGnss19$ERROR_ALREADY_INITE",
   "self_type" : "_ZTIN4aidl7android8hardware4gnss5IGnss19$ERROR_ALREADY_INITE",
   "size" : 4,
   "source_file" : "out/soong/.intermediates/hardware/interfaces/gnss/aidl/android.hardware.gnss-V2-ndk-source/gen/include/aidl/android/hardware/gnss/IGnss.h",
   "underlying_type" : "_ZTIi"
  },
  {
   "alignment" : 4,
   "enum_fields" :
   [
    {
     "enum_field_value" : 0,
     "name" : "aidl::android::hardware::gnss::IGnss::GnssPositionRecurrence::RECURRENCE_PERIODIC"
    },
    {
     "enum_field_value" : 1,
     "name" : "aidl::android::hardware::gnss::IGnss::GnssPositionRecurrence::RECURRENCE_SINGLE"
    }
   ],
   "linker_set_key" : "_ZTIN4aidl7android8hardware4gnss5IGnss22GnssPositionRecurrenceE",
   "name" : "aidl::android::hardware::gnss::IGnss::GnssPositionRecurrence",
   "referenced_type" : "_ZTIN4aidl7android8hardware4gnss5IGnss22GnssPositionRecurrenceE",
   "self_type" : "_ZTIN4aidl7android8hardware4gnss5IGnss22GnssPositionRecurrenceE",
   "size" : 4,
   "source_file" : "out/soong/.intermediates/hardware/interfaces/gnss/aidl/android.hardware.gnss-V2-ndk-source/gen/include/aidl/android/hardware/gnss/IGnss.h",
   "underlying_type" : "_ZTIi"
  },
  {
   "alignment" : 4,
   "enum_fields" :
   [
    {
     "enum_field_value" : 1,
     "name" : "aidl::android::hardware::gnss::IGnss::ERROR_INVALID_ARGUMENT"
    }
   ],
   "linker_set_key" : "_ZTIN4aidl7android8hardware4gnss5IGnss23$ERROR_INVALID_ARGUMENTE",
   "name" : "aidl::android::hardware::gnss::IGnss::(unnamed enum at out/soong/.intermediates/hardware/interfaces/gnss/aidl/android.hardware.gnss-V2-ndk-source/gen/include/aidl/android/hardware/gnss/IGnss.h:118:3)",
   "referenced_type" : "_ZTIN4aidl7android8hardware4gnss5IGnss23$ERROR_INVALID_ARGUMENTE",
   "self_type" : "_ZTIN4aidl7android8hardware4gnss5IGnss23$ERROR_INVALID_ARGUMENTE",
   "size" : 4,
   "source_file" : "out/soong/.intermediates/hardware/interfaces/gnss/aidl/android.hardware.gnss-V2-ndk-source/gen/include/aidl/android/hardware/gnss/IGnss.h",
   "underlying_type" : "_ZTIi"
  },
  {
   "alignment" : 4,
   "enum_fields" :
   [
    {
     "enum_field_value" : 0,
     "name" : "aidl::android::hardware::gnss::IAGnss::ApnIpType::INVALID"
    },
    {
     "enum_field_value" : 1,
     "name" : "aidl::android::hardware::gnss::IAGnss::ApnIpType::IPV4"
    },
    {
     "enum_field_value" : 2,
     "name" : "aidl::android::hardware::gnss::IAGnss::ApnIpType::IPV6"
    },
    {
     "enum_field_value" : 3,
     "name" : "aidl::android::hardware::gnss::IAGnss::ApnIpType::IPV4V6"
    }
   ],
   "linker_set_key" : "_ZTIN4aidl7android8hardware4gnss6IAGnss9ApnIpTypeE",
   "name" : "aidl::android::hardware::gnss::IAGnss::ApnIpType",
   "referenced_type" : "_ZTIN4aidl7android8hardware4gnss6IAGnss9ApnIpTypeE",
   "self_type" : "_ZTIN4aidl7android8hardware4gnss6IAGnss9ApnIpTypeE",
   "size" : 4,
   "source_file" : "out/soong/.intermediates/hardware/interfaces/gnss/aidl/android.hardware.gnss-V2-ndk-source/gen/include/aidl/android/hardware/gnss/IAGnss.h",
   "underlying_type" : "_ZTIi"
  },
  {
   "alignment" : 4,
   "enum_fields" :
   [
    {
     "enum_field_value" : 1,
     "name" : "aidl::android::hardware::gnss::PsdsType::LONG_TERM"
    },
    {
     "enum_field_value" : 2,
     "name" : "aidl::android::hardware::gnss::PsdsType::NORMAL"
    },
    {
     "enum_field_value" : 3,
     "name" : "aidl::android::hardware::gnss::PsdsType::REALTIME"
    }
   ],
   "linker_set_key" : "_ZTIN4aidl7android8hardware4gnss8PsdsTypeE",
   "name" : "aidl::android::hardware::gnss::PsdsType",
   "referenced_type" : "_ZTIN4aidl7android8hardware4gnss8PsdsTypeE",
   "self_type" : "_ZTIN4aidl7android8hardware4gnss8PsdsTypeE",
   "size" : 4,
   "source_file" : "out/soong/.intermediates/hardware/interfaces/gnss/aidl/android.hardware.gnss-V2-ndk-source/gen/include/aidl/android/hardware/gnss/PsdsType.h",
   "underlying_type" : "_ZTIi"
  },
  {
   "alignment" : 4,
   "enum_fields" :
   [
    {
     "enum_field_value" : 32,
     "name" : "aidl::android::hardware::gnss::GnssClock::HAS_DRIFT"
    }
   ],
   "linker_set_key" : "_ZTIN4aidl7android8hardware4gnss9GnssClock10$HAS_DRIFTE",
   "name" : "aidl::android::hardware::gnss::GnssClock::(unnamed enum at out/soong/.intermediates/hardware/interfaces/gnss/aidl/android.hardware.gnss-V2-ndk-source/gen/include/aidl/android/hardware/gnss/GnssClock.h:65:3)",
   "referenced_type" : "_ZTIN4aidl7android8hardware4gnss9GnssClock10$HAS_DRIFTE",
   "self_type" : "_ZTIN4aidl7android8hardware4gnss9GnssClock10$HAS_DRIFTE",
   "size" : 4,
   "source_file" : "out/soong/.intermediates/hardware/interfaces/gnss/aidl/android.hardware.gnss-V2-ndk-source/gen/include/aidl/android/hardware/gnss/GnssClock.h",
   "underlying_type" : "_ZTIi"
  },
  {
   "alignment" : 4,
   "enum_fields" :
   [
    {
     "enum_field_value" : 4,
     "name" : "aidl::android::hardware::gnss::GnssClock::HAS_FULL_BIAS"
    }
   ],
   "linker_set_key" : "_ZTIN4aidl7android8hardware4gnss9GnssClock14$HAS_FULL_BIASE",
   "name" : "aidl::android::hardware::gnss::GnssClock::(unnamed enum at out/soong/.intermediates/hardware/interfaces/gnss/aidl/android.hardware.gnss-V2-ndk-source/gen/include/aidl/android/hardware/gnss/GnssClock.h:62:3)",
   "referenced_type" : "_ZTIN4aidl7android8hardware4gnss9GnssClock14$HAS_FULL_BIASE",
   "self_type" : "_ZTIN4aidl7android8hardware4gnss9GnssClock14$HAS_FULL_BIASE",
   "size" : 4,
   "source_file" : "out/soong/.intermediates/hardware/interfaces/gnss/aidl/android.hardware.gnss-V2-ndk-source/gen/include/aidl/android/hardware/gnss/GnssClock.h",
   "underlying_type" : "_ZTIi"
  },
  {
   "alignment" : 4,
   "enum_fields" :
   [
    {
     "enum_field_value" : 1,
     "name" : "aidl::android::hardware::gnss::GnssClock::HAS_LEAP_SECOND"
    }
   ],
   "linker_set_key" : "_ZTIN4aidl7android8hardware4gnss9GnssClock16$HAS_LEAP_SECONDE",
   "name" : "aidl::android::hardware::gnss::GnssClock::(unnamed enum at out/soong/.intermediates/hardware/interfaces/gnss/aidl/android.hardware.gnss-V2-ndk-source/gen/include/aidl/android/hardware/gnss/GnssClock.h:60:3)",
   "referenced_type" : "_ZTIN4aidl7android8hardware4gnss9GnssClock16$HAS_LEAP_SECONDE",
   "self_type" : "_ZTIN4aidl7android8hardware4gnss9GnssClock16$HAS_LEAP_SECONDE",
   "size" : 4,
   "source_file" : "out/soong/.intermediates/hardware/interfaces/gnss/aidl/android.hardware.gnss-V2-ndk-source/gen/include/aidl/android/hardware/gnss/GnssClock.h",
   "underlying_type" : "_ZTIi"
  },
  {
   "alignment" : 4,
   "enum_fields" :
   [
    {
     "enum_field_value" : 16,
     "name" : "aidl::android::hardware::gnss::GnssClock::HAS_BIAS_UNCERTAINTY"
    }
   ],
   "linker_set_key" : "_ZTIN4aidl7android8hardware4gnss9GnssClock21$HAS_BIAS_UNCERTAINTYE",
   "name" : "aidl::android::hardware::gnss::GnssClock::(unnamed enum at out/soong/.intermediates/hardware/interfaces/gnss/aidl/android.hardware.gnss-V2-ndk-source/gen/include/aidl/android/hardware/gnss/GnssClock.h:64:3)",
   "referenced_type" : "_ZTIN4aidl7android8hardware4gnss9GnssClock21$HAS_BIAS_UNCERTAINTYE",
   "self_type" : "_ZTIN4aidl7android8hardware4gnss9GnssClock21$HAS_BIAS_UNCERTAINTYE",
   "size" : 4,
   "source_file" : "out/soong/.intermediates/hardware/interfaces/gnss/aidl/android.hardware.gnss-V2-ndk-source/gen/include/aidl/android/hardware/gnss/GnssClock.h",
   "underlying_type" : "_ZTIi"
  },
  {
   "alignment" : 4,
   "enum_fields" :
   [
    {
     "enum_field_value" : 2,
     "name" : "aidl::android::hardware::gnss::GnssClock::HAS_TIME_UNCERTAINTY"
    }
   ],
   "linker_set_key" : "_ZTIN4aidl7android8hardware4gnss9GnssClock21$HAS_TIME_UNCERTAINTYE",
   "name" : "aidl::android::hardware::gnss::GnssClock::(unnamed enum at out/soong/.intermediates/hardware/interfaces/gnss/aidl/android.hardware.gnss-V2-ndk-source/gen/include/aidl/android/hardware/gnss/GnssClock.h:61:3)",
   "referenced_type" : "_ZTIN4aidl7android8hardware4gnss9GnssClock21$HAS_TIME_UNCERTAINTYE",
   "self_type" : "_ZTIN4aidl7android8hardware4gnss9GnssClock21$HAS_TIME_UNCERTAINTYE",
   "size" : 4,
   "source_file" : "out/soong/.intermediates/hardware/interfaces/gnss/aidl/android.hardware.gnss-V2-ndk-source/gen/include/aidl/android/hardware/gnss/GnssClock.h",
   "underlying_type" : "_ZTIi"
  },
  {
   "alignment" : 4,
   "enum_fields" :
   [
    {
     "enum_field_value" : 64,
     "name" : "aidl::android::hardware::gnss::GnssClock::HAS_DRIFT_UNCERTAINTY"
    }
   ],
   "linker_set_key" : "_ZTIN4aidl7android8hardware4gnss9GnssClock22$HAS_DRIFT_UNCERTAINTYE",
   "name" : "aidl::android::hardware::gnss::GnssClock::(unnamed enum at out/soong/.intermediates/hardware/interfaces/gnss/aidl/android.hardware.gnss-V2-ndk-source/gen/include/aidl/android/hardware/gnss/GnssClock.h:66:3)",
   "referenced_type" : "_ZTIN4aidl7android8hardware4gnss9GnssClock22$HAS_DRIFT_UNCERTAINTYE",
   "self_type" : "_ZTIN4aidl7android8hardware4gnss9GnssClock22$HAS_DRIFT_UNCERTAINTYE",
   "size" : 4,
   "source_file" : "out/soong/.intermediates/hardware/interfaces/gnss/aidl/android.hardware.gnss-V2-ndk-source/gen/include/aidl/android/hardware/gnss/GnssClock.h",
   "underlying_type" : "_ZTIi"
  },
  {
   "alignment" : 4,
   "enum_fields" :
   [
    {
     "enum_field_value" : 8,
     "name" : "aidl::android::hardware::gnss::GnssClock::HAS_BIAS"
    }
   ],
   "linker_set_key" : "_ZTIN4aidl7android8hardware4gnss9GnssClock9$HAS_BIASE",
   "name" : "aidl::android::hardware::gnss::GnssClock::(unnamed enum at out/soong/.intermediates/hardware/interfaces/gnss/aidl/android.hardware.gnss-V2-ndk-source/gen/include/aidl/android/hardware/gnss/GnssClock.h:63:3)",
   "referenced_type" : "_ZTIN4aidl7android8hardware4gnss9GnssClock9$HAS_BIASE",
   "self_type" : "_ZTIN4aidl7android8hardware4gnss9GnssClock9$HAS_BIASE",
   "size" : 4,
   "source_file" : "out/soong/.intermediates/hardware/interfaces/gnss/aidl/android.hardware.gnss-V2-ndk-source/gen/include/aidl/android/hardware/gnss/GnssClock.h",
   "underlying_type" : "_ZTIi"
  },
  {
   "alignment" : 4,
   "enum_fields" :
   [
    {
     "enum_field_value" : 1,
     "name" : "aidl::android::hardware::gnss::IAGnssRil::AGnssRefLocationType::GSM_CELLID"
    },
    {
     "enum_field_value" : 2,
     "name" : "aidl::android::hardware::gnss::IAGnssRil::AGnssRefLocationType::UMTS_CELLID"
    },
    {
     "enum_field_value" : 4,
     "name" : "aidl::android::hardware::gnss::IAGnssRil::AGnssRefLocationType::LTE_CELLID"
    },
    {
     "enum_field_value" : 8,
     "name" : "aidl::android::hardware::gnss::IAGnssRil::AGnssRefLocationType::NR_CELLID"
    }
   ],
   "linker_set_key" : "_ZTIN4aidl7android8hardware4gnss9IAGnssRil20AGnssRefLocationTypeE",
   "name" : "aidl::android::hardware::gnss::IAGnssRil::AGnssRefLocationType",
   "referenced_type" : "_ZTIN4aidl7android8hardware4gnss9IAGnssRil20AGnssRefLocationTypeE",
   "self_type" : "_ZTIN4aidl7android8hardware4gnss9IAGnssRil20AGnssRefLocationTypeE",
   "size" : 4,
   "source_file" : "out/soong/.intermediates/hardware/interfaces/gnss/aidl/android.hardware.gnss-V2-ndk-source/gen/include/aidl/android/hardware/gnss/IAGnssRil.h",
   "underlying_type" : "_ZTIi"
  },
  {
   "alignment" : 4,
   "enum_fields" :
   [
    {
     "enum_field_value" : 1,
     "name" : "aidl::android::hardware::gnss::IAGnssRil::NETWORK_CAPABILITY_NOT_METERED"
    }
   ],
   "linker_set_key" : "_ZTIN4aidl7android8hardware4gnss9IAGnssRil31$NETWORK_CAPABILITY_NOT_METEREDE",
   "name" : "aidl::android::hardware::gnss::IAGnssRil::(unnamed enum at out/soong/.intermediates/hardware/interfaces/gnss/aidl/android.hardware.gnss-V2-ndk-source/gen/include/aidl/android/hardware/gnss/IAGnssRil.h:178:3)",
   "referenced_type" : "_ZTIN4aidl7android8hardware4gnss9IAGnssRil31$NETWORK_CAPABILITY_NOT_METEREDE",
   "self_type" : "_ZTIN4aidl7android8hardware4gnss9IAGnssRil31$NETWORK_CAPABILITY_NOT_METEREDE",
   "size" : 4,
   "source_file" : "out/soong/.intermediates/hardware/interfaces/gnss/aidl/android.hardware.gnss-V2-ndk-source/gen/include/aidl/android/hardware/gnss/IAGnssRil.h",
   "underlying_type" : "_ZTIi"
  },
  {
   "alignment" : 4,
   "enum_fields" :
   [
    {
     "enum_field_value" : 2,
     "name" : "aidl::android::hardware::gnss::IAGnssRil::NETWORK_CAPABILITY_NOT_ROAMING"
    }
   ],
   "linker_set_key" : "_ZTIN4aidl7android8hardware4gnss9IAGnssRil31$NETWORK_CAPABILITY_NOT_ROAMINGE",
   "name" : "aidl::android::hardware::gnss::IAGnssRil::(unnamed enum at out/soong/.intermediates/hardware/interfaces/gnss/aidl/android.hardware.gnss-V2-ndk-source/gen/include/aidl/android/hardware/gnss/IAGnssRil.h:179:3)",
   "referenced_type" : "_ZTIN4aidl7android8hardware4gnss9IAGnssRil31$NETWORK_CAPABILITY_NOT_ROAMINGE",
   "self_type" : "_ZTIN4aidl7android8hardware4gnss9IAGnssRil31$NETWORK_CAPABILITY_NOT_ROAMINGE",
   "size" : 4,
   "source_file" : "out/soong/.intermediates/hardware/interfaces/gnss/aidl/android.hardware.gnss-V2-ndk-source/gen/include/aidl/android/hardware/gnss/IAGnssRil.h",
   "underlying_type" : "_ZTIi"
  },
  {
   "alignment" : 4,
   "enum_fields" :
   [
    {
     "enum_field_value" : 0,
     "name" : "aidl::android::hardware::gnss::IAGnssRil::SetIdType::NONE"
    },
    {
     "enum_field_value" : 1,
     "name" : "aidl::android::hardware::gnss::IAGnssRil::SetIdType::IMSI"
    },
    {
     "enum_field_value" : 2,
     "name" : "aidl::android::hardware::gnss::IAGnssRil::SetIdType::MSISDM"
    }
   ],
   "linker_set_key" : "_ZTIN4aidl7android8hardware4gnss9IAGnssRil9SetIdTypeE",
   "name" : "aidl::android::hardware::gnss::IAGnssRil::SetIdType",
   "referenced_type" : "_ZTIN4aidl7android8hardware4gnss9IAGnssRil9SetIdTypeE",
   "self_type" : "_ZTIN4aidl7android8hardware4gnss9IAGnssRil9SetIdTypeE",
   "size" : 4,
   "source_file" : "out/soong/.intermediates/hardware/interfaces/gnss/aidl/android.hardware.gnss-V2-ndk-source/gen/include/aidl/android/hardware/gnss/IAGnssRil.h",
   "underlying_type" : "_ZTIi"
  },
  {
   "alignment" : 4,
   "enum_fields" :
   [
    {
     "enum_field_value" : 1,
     "name" : "android::internal::details::IsIterable<std::vector<aidl::android::hardware::gnss::IGnssDebug::SatelliteData>>::value"
    }
   ],
   "linker_set_key" : "_ZTIN7android8internal7details10IsIterableINSt3__16vectorIN4aidl7android8hardware4gnss10IGnssDebug13SatelliteDataENS3_9allocatorISA_EEEEE6$valueE",
   "name" : "android::internal::details::IsIterable<std::vector<aidl::android::hardware::gnss::IGnssDebug::SatelliteData, std::allocator<aidl::android::hardware::gnss::IGnssDebug::SatelliteData>>>::(unnamed enum at frameworks/native/libs/binder/ndk/include_cpp/android/binder_to_string.h:131:5)",
   "referenced_type" : "_ZTIN7android8internal7details10IsIterableINSt3__16vectorIN4aidl7android8hardware4gnss10IGnssDebug13SatelliteDataENS3_9allocatorISA_EEEEE6$valueE",
   "self_type" : "_ZTIN7android8internal7details10IsIterableINSt3__16vectorIN4aidl7android8hardware4gnss10IGnssDebug13SatelliteDataENS3_9allocatorISA_EEEEE6$valueE",
   "size" : 4,
   "source_file" : "frameworks/native/libs/binder/ndk/include_cpp/android/binder_to_string.h",
   "underlying_type" : "_ZTIj"
  },
  {
   "alignment" : 4,
   "enum_fields" :
   [
    {
     "enum_field_value" : 1,
     "name" : "android::internal::details::IsIterable<std::vector<aidl::android::hardware::gnss::GnssMeasurement>>::value"
    }
   ],
   "linker_set_key" : "_ZTIN7android8internal7details10IsIterableINSt3__16vectorIN4aidl7android8hardware4gnss15GnssMeasurementENS3_9allocatorIS9_EEEEE6$valueE",
   "name" : "android::internal::details::IsIterable<std::vector<aidl::android::hardware::gnss::GnssMeasurement, std::allocator<aidl::android::hardware::gnss::GnssMeasurement>>>::(unnamed enum at frameworks/native/libs/binder/ndk/include_cpp/android/binder_to_string.h:131:5)",
   "referenced_type" : "_ZTIN7android8internal7details10IsIterableINSt3__16vectorIN4aidl7android8hardware4gnss15GnssMeasurementENS3_9allocatorIS9_EEEEE6$valueE",
   "self_type" : "_ZTIN7android8internal7details10IsIterableINSt3__16vectorIN4aidl7android8hardware4gnss15GnssMeasurementENS3_9allocatorIS9_EEEEE6$valueE",
   "size" : 4,
   "source_file" : "frameworks/native/libs/binder/ndk/include_cpp/android/binder_to_string.h",
   "underlying_type" : "_ZTIj"
  },
  {
   "alignment" : 4,
   "enum_fields" :
   [
    {
     "enum_field_value" : 1,
     "name" : "android::internal::details::IsIterable<std::vector<aidl::android::hardware::gnss::CorrelationVector>>::value"
    }
   ],
   "linker_set_key" : "_ZTIN7android8internal7details10IsIterableINSt3__16vectorIN4aidl7android8hardware4gnss17CorrelationVectorENS3_9allocatorIS9_EEEEE6$valueE",
   "name" : "android::internal::details::IsIterable<std::vector<aidl::android::hardware::gnss::CorrelationVector, std::allocator<aidl::android::hardware::gnss::CorrelationVector>>>::(unnamed enum at frameworks/native/libs/binder/ndk/include_cpp/android/binder_to_string.h:131:5)",
   "referenced_type" : "_ZTIN7android8internal7details10IsIterableINSt3__16vectorIN4aidl7android8hardware4gnss17CorrelationVectorENS3_9allocatorIS9_EEEEE6$valueE",
   "self_type" : "_ZTIN7android8internal7details10IsIterableINSt3__16vectorIN4aidl7android8hardware4gnss17CorrelationVectorENS3_9allocatorIS9_EEEEE6$valueE",
   "size" : 4,
   "source_file" : "frameworks/native/libs/binder/ndk/include_cpp/android/binder_to_string.h",
   "underlying_type" : "_ZTIj"
  },
  {
   "alignment" : 4,
   "enum_fields" :
   [
    {
     "enum_field_value" : 1,
     "name" : "android::internal::details::IsIterable<std::vector<aidl::android::hardware::gnss::measurement_corrections::SingleSatCorrection::ExcessPathInfo>>::value"
    }
   ],
   "linker_set_key" : "_ZTIN7android8internal7details10IsIterableINSt3__16vectorIN4aidl7android8hardware4gnss23measurement_corrections19SingleSatCorrection14ExcessPathInfoENS3_9allocatorISB_EEEEE6$valueE",
   "name" : "android::internal::details::IsIterable<std::vector<aidl::android::hardware::gnss::measurement_corrections::SingleSatCorrection::ExcessPathInfo, std::allocator<aidl::android::hardware::gnss::measurement_corrections::SingleSatCorrection::ExcessPathInfo>>>::(unnamed enum at frameworks/native/libs/binder/ndk/include_cpp/android/binder_to_string.h:131:5)",
   "referenced_type" : "_ZTIN7android8internal7details10IsIterableINSt3__16vectorIN4aidl7android8hardware4gnss23measurement_corrections19SingleSatCorrection14ExcessPathInfoENS3_9allocatorISB_EEEEE6$valueE",
   "self_type" : "_ZTIN7android8internal7details10IsIterableINSt3__16vectorIN4aidl7android8hardware4gnss23measurement_corrections19SingleSatCorrection14ExcessPathInfoENS3_9allocatorISB_EEEEE6$valueE",
   "size" : 4,
   "source_file" : "frameworks/native/libs/binder/ndk/include_cpp/android/binder_to_string.h",
   "underlying_type" : "_ZTIj"
  },
  {
   "alignment" : 4,
   "enum_fields" :
   [
    {
     "enum_field_value" : 1,
     "name" : "android::internal::details::IsIterable<std::vector<aidl::android::hardware::gnss::measurement_corrections::SingleSatCorrection>>::value"
    }
   ],
   "linker_set_key" : "_ZTIN7android8internal7details10IsIterableINSt3__16vectorIN4aidl7android8hardware4gnss23measurement_corrections19SingleSatCorrectionENS3_9allocatorISA_EEEEE6$valueE",
   "name" : "android::internal::details::IsIterable<std::vector<aidl::android::hardware::gnss::measurement_corrections::SingleSatCorrection, std::allocator<aidl::android::hardware::gnss::measurement_corrections::SingleSatCorrection>>>::(unnamed enum at frameworks/native/libs/binder/ndk/include_cpp/android/binder_to_string.h:131:5)",
   "referenced_type" : "_ZTIN7android8internal7details10IsIterableINSt3__16vectorIN4aidl7android8hardware4gnss23measurement_corrections19SingleSatCorrectionENS3_9allocatorISA_EEEEE6$valueE",
   "self_type" : "_ZTIN7android8internal7details10IsIterableINSt3__16vectorIN4aidl7android8hardware4gnss23measurement_corrections19SingleSatCorrectionENS3_9allocatorISA_EEEEE6$valueE",
   "size" : 4,
   "source_file" : "frameworks/native/libs/binder/ndk/include_cpp/android/binder_to_string.h",
   "underlying_type" : "_ZTIj"
  },
  {
   "alignment" : 4,
   "enum_fields" :
   [
    {
     "enum_field_value" : 1,
     "name" : "android::internal::details::IsIterable<std::vector<aidl::android::hardware::gnss::IGnssAntennaInfoCallback::Row>>::value"
    }
   ],
   "linker_set_key" : "_ZTIN7android8internal7details10IsIterableINSt3__16vectorIN4aidl7android8hardware4gnss24IGnssAntennaInfoCallback3RowENS3_9allocatorISA_EEEEE6$valueE",
   "name" : "android::internal::details::IsIterable<std::vector<aidl::android::hardware::gnss::IGnssAntennaInfoCallback::Row, std::allocator<aidl::android::hardware::gnss::IGnssAntennaInfoCallback::Row>>>::(unnamed enum at frameworks/native/libs/binder/ndk/include_cpp/android/binder_to_string.h:131:5)",
   "referenced_type" : "_ZTIN7android8internal7details10IsIterableINSt3__16vectorIN4aidl7android8hardware4gnss24IGnssAntennaInfoCallback3RowENS3_9allocatorISA_EEEEE6$valueE",
   "self_type" : "_ZTIN7android8internal7details10IsIterableINSt3__16vectorIN4aidl7android8hardware4gnss24IGnssAntennaInfoCallback3RowENS3_9allocatorISA_EEEEE6$valueE",
   "size" : 4,
   "source_file" : "frameworks/native/libs/binder/ndk/include_cpp/android/binder_to_string.h",
   "underlying_type" : "_ZTIj"
  },
  {
   "alignment" : 4,
   "enum_fields" :
   [
    {
     "enum_field_value" : 1,
     "name" : "android::internal::details::IsIterable<std::vector<aidl::android::hardware::gnss::GnssData::GnssAgc>>::value"
    }
   ],
   "linker_set_key" : "_ZTIN7android8internal7details10IsIterableINSt3__16vectorIN4aidl7android8hardware4gnss8GnssData7GnssAgcENS3_9allocatorISA_EEEEE6$valueE",
   "name" : "android::internal::details::IsIterable<std::vector<aidl::android::hardware::gnss::GnssData::GnssAgc, std::allocator<aidl::android::hardware::gnss::GnssData::GnssAgc>>>::(unnamed enum at frameworks/native/libs/binder/ndk/include_cpp/android/binder_to_string.h:131:5)",
   "referenced_type" : "_ZTIN7android8internal7details10IsIterableINSt3__16vectorIN4aidl7android8hardware4gnss8GnssData7GnssAgcENS3_9allocatorISA_EEEEE6$valueE",
   "self_type" : "_ZTIN7android8internal7details10IsIterableINSt3__16vectorIN4aidl7android8hardware4gnss8GnssData7GnssAgcENS3_9allocatorISA_EEEEE6$valueE",
   "size" : 4,
   "source_file" : "frameworks/native/libs/binder/ndk/include_cpp/android/binder_to_string.h",
   "underlying_type" : "_ZTIj"
  },
  {
   "alignment" : 4,
   "enum_fields" :
   [
    {
     "enum_field_value" : 1,
     "name" : "android::internal::details::IsIterable<std::vector<double>>::value"
    }
   ],
   "linker_set_key" : "_ZTIN7android8internal7details10IsIterableINSt3__16vectorIdNS3_9allocatorIdEEEEE6$valueE",
   "name" : "android::internal::details::IsIterable<std::vector<double, std::allocator<double>>>::(unnamed enum at frameworks/native/libs/binder/ndk/include_cpp/android/binder_to_string.h:131:5)",
   "referenced_type" : "_ZTIN7android8internal7details10IsIterableINSt3__16vectorIdNS3_9allocatorIdEEEEE6$valueE",
   "self_type" : "_ZTIN7android8internal7details10IsIterableINSt3__16vectorIdNS3_9allocatorIdEEEEE6$valueE",
   "size" : 4,
   "source_file" : "frameworks/native/libs/binder/ndk/include_cpp/android/binder_to_string.h",
   "underlying_type" : "_ZTIj"
  },
  {
   "alignment" : 4,
   "enum_fields" :
   [
    {
     "enum_field_value" : 1,
     "name" : "android::internal::details::IsIterable<std::vector<unsigned char>>::value"
    }
   ],
   "linker_set_key" : "_ZTIN7android8internal7details10IsIterableINSt3__16vectorIhNS3_9allocatorIhEEEEE6$valueE",
   "name" : "android::internal::details::IsIterable<std::vector<unsigned char, std::allocator<unsigned char>>>::(unnamed enum at frameworks/native/libs/binder/ndk/include_cpp/android/binder_to_string.h:131:5)",
   "referenced_type" : "_ZTIN7android8internal7details10IsIterableINSt3__16vectorIhNS3_9allocatorIhEEEEE6$valueE",
   "self_type" : "_ZTIN7android8internal7details10IsIterableINSt3__16vectorIhNS3_9allocatorIhEEEEE6$valueE",
   "size" : 4,
   "source_file" : "frameworks/native/libs/binder/ndk/include_cpp/android/binder_to_string.h",
   "underlying_type" : "_ZTIj"
  },
  {
   "alignment" : 4,
   "enum_fields" :
   [
    {
     "enum_field_value" : 1,
     "name" : "android::internal::details::IsIterable<std::vector<int>>::value"
    }
   ],
   "linker_set_key" : "_ZTIN7android8internal7details10IsIterableINSt3__16vectorIiNS3_9allocatorIiEEEEE6$valueE",
   "name" : "android::internal::details::IsIterable<std::vector<int, std::allocator<int>>>::(unnamed enum at frameworks/native/libs/binder/ndk/include_cpp/android/binder_to_string.h:131:5)",
   "referenced_type" : "_ZTIN7android8internal7details10IsIterableINSt3__16vectorIiNS3_9allocatorIiEEEEE6$valueE",
   "self_type" : "_ZTIN7android8internal7details10IsIterableINSt3__16vectorIiNS3_9allocatorIiEEEEE6$valueE",
   "size" : 4,
   "source_file" : "frameworks/native/libs/binder/ndk/include_cpp/android/binder_to_string.h",
   "underlying_type" : "_ZTIj"
  },
  {
   "alignment" : 4,
   "enum_fields" :
   [
    {
     "enum_field_value" : 0,
     "name" : "android::internal::details::IsPointerLike<aidl::android::hardware::gnss::IGnssDebug::PositionDebug>::value"
    }
   ],
   "linker_set_key" : "_ZTIN7android8internal7details13IsPointerLikeIN4aidl7android8hardware4gnss10IGnssDebug13PositionDebugEE6$valueE",
   "name" : "android::internal::details::IsPointerLike<aidl::android::hardware::gnss::IGnssDebug::PositionDebug>::(unnamed enum at frameworks/native/libs/binder/ndk/include_cpp/android/binder_to_string.h:118:5)",
   "referenced_type" : "_ZTIN7android8internal7details13IsPointerLikeIN4aidl7android8hardware4gnss10IGnssDebug13PositionDebugEE6$valueE",
   "self_type" : "_ZTIN7android8internal7details13IsPointerLikeIN4aidl7android8hardware4gnss10IGnssDebug13PositionDebugEE6$valueE",
   "size" : 4,
   "source_file" : "frameworks/native/libs/binder/ndk/include_cpp/android/binder_to_string.h",
   "underlying_type" : "_ZTIj"
  },
  {
   "alignment" : 4,
   "enum_fields" :
   [
    {
     "enum_field_value" : 0,
     "name" : "android::internal::details::IsPointerLike<aidl::android::hardware::gnss::IGnssDebug::SatelliteData>::value"
    }
   ],
   "linker_set_key" : "_ZTIN7android8internal7details13IsPointerLikeIN4aidl7android8hardware4gnss10IGnssDebug13SatelliteDataEE6$valueE",
   "name" : "android::internal::details::IsPointerLike<aidl::android::hardware::gnss::IGnssDebug::SatelliteData>::(unnamed enum at frameworks/native/libs/binder/ndk/include_cpp/android/binder_to_string.h:118:5)",
   "referenced_type" : "_ZTIN7android8internal7details13IsPointerLikeIN4aidl7android8hardware4gnss10IGnssDebug13SatelliteDataEE6$valueE",
   "self_type" : "_ZTIN7android8internal7details13IsPointerLikeIN4aidl7android8hardware4gnss10IGnssDebug13SatelliteDataEE6$valueE",
   "size" : 4,
   "source_file" : "frameworks/native/libs/binder/ndk/include_cpp/android/binder_to_string.h",
   "underlying_type" : "_ZTIj"
  },
  {
   "alignment" : 4,
   "enum_fields" :
   [
    {
     "enum_field_value" : 0,
     "name" : "android::internal::details::IsPointerLike<aidl::android::hardware::gnss::IGnssDebug::SatelliteEphemerisType>::value"
    }
   ],
   "linker_set_key" : "_ZTIN7android8internal7details13IsPointerLikeIN4aidl7android8hardware4gnss10IGnssDebug22SatelliteEphemerisTypeEE6$valueE",
   "name" : "android::internal::details::IsPointerLike<aidl::android::hardware::gnss::IGnssDebug::SatelliteEphemerisType>::(unnamed enum at frameworks/native/libs/binder/ndk/include_cpp/android/binder_to_string.h:118:5)",
   "referenced_type" : "_ZTIN7android8internal7details13IsPointerLikeIN4aidl7android8hardware4gnss10IGnssDebug22SatelliteEphemerisTypeEE6$valueE",
   "self_type" : "_ZTIN7android8internal7details13IsPointerLikeIN4aidl7android8hardware4gnss10IGnssDebug22SatelliteEphemerisTypeEE6$valueE",
   "size" : 4,
   "source_file" : "frameworks/native/libs/binder/ndk/include_cpp/android/binder_to_string.h",
   "underlying_type" : "_ZTIj"
  },
  {
   "alignment" : 4,
   "enum_fields" :
   [
    {
     "enum_field_value" : 0,
     "name" : "android::internal::details::IsPointerLike<aidl::android::hardware::gnss::IGnssDebug::SatelliteEphemerisHealth>::value"
    }
   ],
   "linker_set_key" : "_ZTIN7android8internal7details13IsPointerLikeIN4aidl7android8hardware4gnss10IGnssDebug24SatelliteEphemerisHealthEE6$valueE",
   "name" : "android::internal::details::IsPointerLike<aidl::android::hardware::gnss::IGnssDebug::SatelliteEphemerisHealth>::(unnamed enum at frameworks/native/libs/binder/ndk/include_cpp/android/binder_to_string.h:118:5)",
   "referenced_type" : "_ZTIN7android8internal7details13IsPointerLikeIN4aidl7android8hardware4gnss10IGnssDebug24SatelliteEphemerisHealthEE6$valueE",
   "self_type" : "_ZTIN7android8internal7details13IsPointerLikeIN4aidl7android8hardware4gnss10IGnssDebug24SatelliteEphemerisHealthEE6$valueE",
   "size" : 4,
   "source_file" : "frameworks/native/libs/binder/ndk/include_cpp/android/binder_to_string.h",
   "underlying_type" : "_ZTIj"
  },
  {
   "alignment" : 4,
   "enum_fields" :
   [
    {
     "enum_field_value" : 0,
     "name" : "android::internal::details::IsPointerLike<aidl::android::hardware::gnss::IGnssDebug::TimeDebug>::value"
    }
   ],
   "linker_set_key" : "_ZTIN7android8internal7details13IsPointerLikeIN4aidl7android8hardware4gnss10IGnssDebug9TimeDebugEE6$valueE",
   "name" : "android::internal::details::IsPointerLike<aidl::android::hardware::gnss::IGnssDebug::TimeDebug>::(unnamed enum at frameworks/native/libs/binder/ndk/include_cpp/android/binder_to_string.h:118:5)",
   "referenced_type" : "_ZTIN7android8internal7details13IsPointerLikeIN4aidl7android8hardware4gnss10IGnssDebug9TimeDebugEE6$valueE",
   "self_type" : "_ZTIN7android8internal7details13IsPointerLikeIN4aidl7android8hardware4gnss10IGnssDebug9TimeDebugEE6$valueE",
   "size" : 4,
   "source_file" : "frameworks/native/libs/binder/ndk/include_cpp/android/binder_to_string.h",
   "underlying_type" : "_ZTIj"
  },
  {
   "alignment" : 4,
   "enum_fields" :
   [
    {
     "enum_field_value" : 0,
     "name" : "android::internal::details::IsPointerLike<aidl::android::hardware::gnss::SatellitePvt::SatelliteEphemerisSource>::value"
    }
   ],
   "linker_set_key" : "_ZTIN7android8internal7details13IsPointerLikeIN4aidl7android8hardware4gnss12SatellitePvt24SatelliteEphemerisSourceEE6$valueE",
   "name" : "android::internal::details::IsPointerLike<aidl::android::hardware::gnss::SatellitePvt::SatelliteEphemerisSource>::(unnamed enum at frameworks/native/libs/binder/ndk/include_cpp/android/binder_to_string.h:118:5)",
   "referenced_type" : "_ZTIN7android8internal7details13IsPointerLikeIN4aidl7android8hardware4gnss12SatellitePvt24SatelliteEphemerisSourceEE6$valueE",
   "self_type" : "_ZTIN7android8internal7details13IsPointerLikeIN4aidl7android8hardware4gnss12SatellitePvt24SatelliteEphemerisSourceEE6$valueE",
   "size" : 4,
   "source_file" : "frameworks/native/libs/binder/ndk/include_cpp/android/binder_to_string.h",
   "underlying_type" : "_ZTIj"
  },
  {
   "alignment" : 4,
   "enum_fields" :
   [
    {
     "enum_field_value" : 0,
     "name" : "android::internal::details::IsPointerLike<aidl::android::hardware::gnss::SatellitePvt>::value"
    }
   ],
   "linker_set_key" : "_ZTIN7android8internal7details13IsPointerLikeIN4aidl7android8hardware4gnss12SatellitePvtEE6$valueE",
   "name" : "android::internal::details::IsPointerLike<aidl::android::hardware::gnss::SatellitePvt>::(unnamed enum at frameworks/native/libs/binder/ndk/include_cpp/android/binder_to_string.h:118:5)",
   "referenced_type" : "_ZTIN7android8internal7details13IsPointerLikeIN4aidl7android8hardware4gnss12SatellitePvtEE6$valueE",
   "self_type" : "_ZTIN7android8internal7details13IsPointerLikeIN4aidl7android8hardware4gnss12SatellitePvtEE6$valueE",
   "size" : 4,
   "source_file" : "frameworks/native/libs/binder/ndk/include_cpp/android/binder_to_string.h",
   "underlying_type" : "_ZTIj"
  },
  {
   "alignment" : 4,
   "enum_fields" :
   [
    {
     "enum_field_value" : 0,
     "name" : "android::internal::details::IsPointerLike<aidl::android::hardware::gnss::GnssSignalType>::value"
    }
   ],
   "linker_set_key" : "_ZTIN7android8internal7details13IsPointerLikeIN4aidl7android8hardware4gnss14GnssSignalTypeEE6$valueE",
   "name" : "android::internal::details::IsPointerLike<aidl::android::hardware::gnss::GnssSignalType>::(unnamed enum at frameworks/native/libs/binder/ndk/include_cpp/android/binder_to_string.h:118:5)",
   "referenced_type" : "_ZTIN7android8internal7details13IsPointerLikeIN4aidl7android8hardware4gnss14GnssSignalTypeEE6$valueE",
   "self_type" : "_ZTIN7android8internal7details13IsPointerLikeIN4aidl7android8hardware4gnss14GnssSignalTypeEE6$valueE",
   "size" : 4,
   "source_file" : "frameworks/native/libs/binder/ndk/include_cpp/android/binder_to_string.h",
   "underlying_type" : "_ZTIj"
  },
  {
   "alignment" : 4,
   "enum_fields" :
   [
    {
     "enum_field_value" : 0,
     "name" : "android::internal::details::IsPointerLike<aidl::android::hardware::gnss::ElapsedRealtime>::value"
    }
   ],
   "linker_set_key" : "_ZTIN7android8internal7details13IsPointerLikeIN4aidl7android8hardware4gnss15ElapsedRealtimeEE6$valueE",
   "name" : "android::internal::details::IsPointerLike<aidl::android::hardware::gnss::ElapsedRealtime>::(unnamed enum at frameworks/native/libs/binder/ndk/include_cpp/android/binder_to_string.h:118:5)",
   "referenced_type" : "_ZTIN7android8internal7details13IsPointerLikeIN4aidl7android8hardware4gnss15ElapsedRealtimeEE6$valueE",
   "self_type" : "_ZTIN7android8internal7details13IsPointerLikeIN4aidl7android8hardware4gnss15ElapsedRealtimeEE6$valueE",
   "size" : 4,
   "source_file" : "frameworks/native/libs/binder/ndk/include_cpp/android/binder_to_string.h",
   "underlying_type" : "_ZTIj"
  },
  {
   "alignment" : 4,
   "enum_fields" :
   [
    {
     "enum_field_value" : 0,
     "name" : "android::internal::details::IsPointerLike<aidl::android::hardware::gnss::GnssMeasurement>::value"
    }
   ],
   "linker_set_key" : "_ZTIN7android8internal7details13IsPointerLikeIN4aidl7android8hardware4gnss15GnssMeasurementEE6$valueE",
   "name" : "android::internal::details::IsPointerLike<aidl::android::hardware::gnss::GnssMeasurement>::(unnamed enum at frameworks/native/libs/binder/ndk/include_cpp/android/binder_to_string.h:118:5)",
   "referenced_type" : "_ZTIN7android8internal7details13IsPointerLikeIN4aidl7android8hardware4gnss15GnssMeasurementEE6$valueE",
   "self_type" : "_ZTIN7android8internal7details13IsPointerLikeIN4aidl7android8hardware4gnss15GnssMeasurementEE6$valueE",
   "size" : 4,
   "source_file" : "frameworks/native/libs/binder/ndk/include_cpp/android/binder_to_string.h",
   "underlying_type" : "_ZTIj"
  },
  {
   "alignment" : 4,
   "enum_fields" :
   [
    {
     "enum_field_value" : 0,
     "name" : "android::internal::details::IsPointerLike<aidl::android::hardware::gnss::CorrelationVector>::value"
    }
   ],
   "linker_set_key" : "_ZTIN7android8internal7details13IsPointerLikeIN4aidl7android8hardware4gnss17CorrelationVectorEE6$valueE",
   "name" : "android::internal::details::IsPointerLike<aidl::android::hardware::gnss::CorrelationVector>::(unnamed enum at frameworks/native/libs/binder/ndk/include_cpp/android/binder_to_string.h:118:5)",
   "referenced_type" : "_ZTIN7android8internal7details13IsPointerLikeIN4aidl7android8hardware4gnss17CorrelationVectorEE6$valueE",
   "self_type" : "_ZTIN7android8internal7details13IsPointerLikeIN4aidl7android8hardware4gnss17CorrelationVectorEE6$valueE",
   "size" : 4,
   "source_file" : "frameworks/native/libs/binder/ndk/include_cpp/android/binder_to_string.h",
   "underlying_type" : "_ZTIj"
  },
  {
   "alignment" : 4,
   "enum_fields" :
   [
    {
     "enum_field_value" : 0,
     "name" : "android::internal::details::IsPointerLike<aidl::android::hardware::gnss::SatelliteClockInfo>::value"
    }
   ],
   "linker_set_key" : "_ZTIN7android8internal7details13IsPointerLikeIN4aidl7android8hardware4gnss18SatelliteClockInfoEE6$valueE",
   "name" : "android::internal::details::IsPointerLike<aidl::android::hardware::gnss::SatelliteClockInfo>::(unnamed enum at frameworks/native/libs/binder/ndk/include_cpp/android/binder_to_string.h:118:5)",
   "referenced_type" : "_ZTIN7android8internal7details13IsPointerLikeIN4aidl7android8hardware4gnss18SatelliteClockInfoEE6$valueE",
   "self_type" : "_ZTIN7android8internal7details13IsPointerLikeIN4aidl7android8hardware4gnss18SatelliteClockInfoEE6$valueE",
   "size" : 4,
   "source_file" : "frameworks/native/libs/binder/ndk/include_cpp/android/binder_to_string.h",
   "underlying_type" : "_ZTIj"
  },
  {
   "alignment" : 4,
   "enum_fields" :
   [
    {
     "enum_field_value" : 0,
     "name" : "android::internal::details::IsPointerLike<aidl::android::hardware::gnss::visibility_control::IGnssVisibilityControlCallback::NfwRequestor>::value"
    }
   ],
   "linker_set_key" : "_ZTIN7android8internal7details13IsPointerLikeIN4aidl7android8hardware4gnss18visibility_control30IGnssVisibilityControlCallback12NfwRequestorEE6$valueE",
   "name" : "android::internal::details::IsPointerLike<aidl::android::hardware::gnss::visibility_control::IGnssVisibilityControlCallback::NfwRequestor>::(unnamed enum at frameworks/native/libs/binder/ndk/include_cpp/android/binder_to_string.h:118:5)",
   "referenced_type" : "_ZTIN7android8internal7details13IsPointerLikeIN4aidl7android8hardware4gnss18visibility_control30IGnssVisibilityControlCallback12NfwRequestorEE6$valueE",
   "self_type" : "_ZTIN7android8internal7details13IsPointerLikeIN4aidl7android8hardware4gnss18visibility_control30IGnssVisibilityControlCallback12NfwRequestorEE6$valueE",
   "size" : 4,
   "source_file" : "frameworks/native/libs/binder/ndk/include_cpp/android/binder_to_string.h",
   "underlying_type" : "_ZTIj"
  },
  {
   "alignment" : 4,
   "enum_fields" :
   [
    {
     "enum_field_value" : 0,
     "name" : "android::internal::details::IsPointerLike<aidl::android::hardware::gnss::visibility_control::IGnssVisibilityControlCallback::NfwResponseType>::value"
    }
   ],
   "linker_set_key" : "_ZTIN7android8internal7details13IsPointerLikeIN4aidl7android8hardware4gnss18visibility_control30IGnssVisibilityControlCallback15NfwResponseTypeEE6$valueE",
   "name" : "android::internal::details::IsPointerLike<aidl::android::hardware::gnss::visibility_control::IGnssVisibilityControlCallback::NfwResponseType>::(unnamed enum at frameworks/native/libs/binder/ndk/include_cpp/android/binder_to_string.h:118:5)",
   "referenced_type" : "_ZTIN7android8internal7details13IsPointerLikeIN4aidl7android8hardware4gnss18visibility_control30IGnssVisibilityControlCallback15NfwResponseTypeEE6$valueE",
   "self_type" : "_ZTIN7android8internal7details13IsPointerLikeIN4aidl7android8hardware4gnss18visibility_control30IGnssVisibilityControlCallback15NfwResponseTypeEE6$valueE",
   "size" : 4,
   "source_file" : "frameworks/native/libs/binder/ndk/include_cpp/android/binder_to_string.h",
   "underlying_type" : "_ZTIj"
  },
  {
   "alignment" : 4,
   "enum_fields" :
   [
    {
     "enum_field_value" : 0,
     "name" : "android::internal::details::IsPointerLike<aidl::android::hardware::gnss::visibility_control::IGnssVisibilityControlCallback::NfwProtocolStack>::value"
    }
   ],
   "linker_set_key" : "_ZTIN7android8internal7details13IsPointerLikeIN4aidl7android8hardware4gnss18visibility_control30IGnssVisibilityControlCallback16NfwProtocolStackEE6$valueE",
   "name" : "android::internal::details::IsPointerLike<aidl::android::hardware::gnss::visibility_control::IGnssVisibilityControlCallback::NfwProtocolStack>::(unnamed enum at frameworks/native/libs/binder/ndk/include_cpp/android/binder_to_string.h:118:5)",
   "referenced_type" : "_ZTIN7android8internal7details13IsPointerLikeIN4aidl7android8hardware4gnss18visibility_control30IGnssVisibilityControlCallback16NfwProtocolStackEE6$valueE",
   "self_type" : "_ZTIN7android8internal7details13IsPointerLikeIN4aidl7android8hardware4gnss18visibility_control30IGnssVisibilityControlCallback16NfwProtocolStackEE6$valueE",
   "size" : 4,
   "source_file" : "frameworks/native/libs/binder/ndk/include_cpp/android/binder_to_string.h",
   "underlying_type" : "_ZTIj"
  },
  {
   "alignment" : 4,
   "enum_fields" :
   [
    {
     "enum_field_value" : 0,
     "name" : "android::internal::details::IsPointerLike<aidl::android::hardware::gnss::GnssConstellationType>::value"
    }
   ],
   "linker_set_key" : "_ZTIN7android8internal7details13IsPointerLikeIN4aidl7android8hardware4gnss21GnssConstellationTypeEE6$valueE",
   "name" : "android::internal::details::IsPointerLike<aidl::android::hardware::gnss::GnssConstellationType>::(unnamed enum at frameworks/native/libs/binder/ndk/include_cpp/android/binder_to_string.h:118:5)",
   "referenced_type" : "_ZTIN7android8internal7details13IsPointerLikeIN4aidl7android8hardware4gnss21GnssConstellationTypeEE6$valueE",
   "self_type" : "_ZTIN7android8internal7details13IsPointerLikeIN4aidl7android8hardware4gnss21GnssConstellationTypeEE6$valueE",
   "size" : 4,
   "source_file" : "frameworks/native/libs/binder/ndk/include_cpp/android/binder_to_string.h",
   "underlying_type" : "_ZTIj"
  },
  {
   "alignment" : 4,
   "enum_fields" :
   [
    {
     "enum_field_value" : 0,
     "name" : "android::internal::details::IsPointerLike<aidl::android::hardware::gnss::SatellitePositionEcef>::value"
    }
   ],
   "linker_set_key" : "_ZTIN7android8internal7details13IsPointerLikeIN4aidl7android8hardware4gnss21SatellitePositionEcefEE6$valueE",
   "name" : "android::internal::details::IsPointerLike<aidl::android::hardware::gnss::SatellitePositionEcef>::(unnamed enum at frameworks/native/libs/binder/ndk/include_cpp/android/binder_to_string.h:118:5)",
   "referenced_type" : "_ZTIN7android8internal7details13IsPointerLikeIN4aidl7android8hardware4gnss21SatellitePositionEcefEE6$valueE",
   "self_type" : "_ZTIN7android8internal7details13IsPointerLikeIN4aidl7android8hardware4gnss21SatellitePositionEcefEE6$valueE",
   "size" : 4,
   "source_file" : "frameworks/native/libs/binder/ndk/include_cpp/android/binder_to_string.h",
   "underlying_type" : "_ZTIj"
  },
  {
   "alignment" : 4,
   "enum_fields" :
   [
    {
     "enum_field_value" : 0,
     "name" : "android::internal::details::IsPointerLike<aidl::android::hardware::gnss::SatelliteVelocityEcef>::value"
    }
   ],
   "linker_set_key" : "_ZTIN7android8internal7details13IsPointerLikeIN4aidl7android8hardware4gnss21SatelliteVelocityEcefEE6$valueE",
   "name" : "android::internal::details::IsPointerLike<aidl::android::hardware::gnss::SatelliteVelocityEcef>::(unnamed enum at frameworks/native/libs/binder/ndk/include_cpp/android/binder_to_string.h:118:5)",
   "referenced_type" : "_ZTIN7android8internal7details13IsPointerLikeIN4aidl7android8hardware4gnss21SatelliteVelocityEcefEE6$valueE",
   "self_type" : "_ZTIN7android8internal7details13IsPointerLikeIN4aidl7android8hardware4gnss21SatelliteVelocityEcefEE6$valueE",
   "size" : 4,
   "source_file" : "frameworks/native/libs/binder/ndk/include_cpp/android/binder_to_string.h",
   "underlying_type" : "_ZTIj"
  },
  {
   "alignment" : 4,
   "enum_fields" :
   [
    {
     "enum_field_value" : 0,
     "name" : "android::internal::details::IsPointerLike<aidl::android::hardware::gnss::GnssMultipathIndicator>::value"
    }
   ],
   "linker_set_key" : "_ZTIN7android8internal7details13IsPointerLikeIN4aidl7android8hardware4gnss22GnssMultipathIndicatorEE6$valueE",
   "name" : "android::internal::details::IsPointerLike<aidl::android::hardware::gnss::GnssMultipathIndicator>::(unnamed enum at frameworks/native/libs/binder/ndk/include_cpp/android/binder_to_string.h:118:5)",
   "referenced_type" : "_ZTIN7android8internal7details13IsPointerLikeIN4aidl7android8hardware4gnss22GnssMultipathIndicatorEE6$valueE",
   "self_type" : "_ZTIN7android8internal7details13IsPointerLikeIN4aidl7android8hardware4gnss22GnssMultipathIndicatorEE6$valueE",
   "size" : 4,
   "source_file" : "frameworks/native/libs/binder/ndk/include_cpp/android/binder_to_string.h",
   "underlying_type" : "_ZTIj"
  },
  {
   "alignment" : 4,
   "enum_fields" :
   [
    {
     "enum_field_value" : 0,
     "name" : "android::internal::details::IsPointerLike<aidl::android::hardware::gnss::measurement_corrections::ReflectingPlane>::value"
    }
   ],
   "linker_set_key" : "_ZTIN7android8internal7details13IsPointerLikeIN4aidl7android8hardware4gnss23measurement_corrections15ReflectingPlaneEE6$valueE",
   "name" : "android::internal::details::IsPointerLike<aidl::android::hardware::gnss::measurement_corrections::ReflectingPlane>::(unnamed enum at frameworks/native/libs/binder/ndk/include_cpp/android/binder_to_string.h:118:5)",
   "referenced_type" : "_ZTIN7android8internal7details13IsPointerLikeIN4aidl7android8hardware4gnss23measurement_corrections15ReflectingPlaneEE6$valueE",
   "self_type" : "_ZTIN7android8internal7details13IsPointerLikeIN4aidl7android8hardware4gnss23measurement_corrections15ReflectingPlaneEE6$valueE",
   "size" : 4,
   "source_file" : "frameworks/native/libs/binder/ndk/include_cpp/android/binder_to_string.h",
   "underlying_type" : "_ZTIj"
  },
  {
   "alignment" : 4,
   "enum_fields" :
   [
    {
     "enum_field_value" : 0,
     "name" : "android::internal::details::IsPointerLike<aidl::android::hardware::gnss::measurement_corrections::SingleSatCorrection::ExcessPathInfo>::value"
    }
   ],
   "linker_set_key" : "_ZTIN7android8internal7details13IsPointerLikeIN4aidl7android8hardware4gnss23measurement_corrections19SingleSatCorrection14ExcessPathInfoEE6$valueE",
   "name" : "android::internal::details::IsPointerLike<aidl::android::hardware::gnss::measurement_corrections::SingleSatCorrection::ExcessPathInfo>::(unnamed enum at frameworks/native/libs/binder/ndk/include_cpp/android/binder_to_string.h:118:5)",
   "referenced_type" : "_ZTIN7android8internal7details13IsPointerLikeIN4aidl7android8hardware4gnss23measurement_corrections19SingleSatCorrection14ExcessPathInfoEE6$valueE",
   "self_type" : "_ZTIN7android8internal7details13IsPointerLikeIN4aidl7android8hardware4gnss23measurement_corrections19SingleSatCorrection14ExcessPathInfoEE6$valueE",
   "size" : 4,
   "source_file" : "frameworks/native/libs/binder/ndk/include_cpp/android/binder_to_string.h",
   "underlying_type" : "_ZTIj"
  },
  {
   "alignment" : 4,
   "enum_fields" :
   [
    {
     "enum_field_value" : 0,
     "name" : "android::internal::details::IsPointerLike<aidl::android::hardware::gnss::measurement_corrections::SingleSatCorrection>::value"
    }
   ],
   "linker_set_key" : "_ZTIN7android8internal7details13IsPointerLikeIN4aidl7android8hardware4gnss23measurement_corrections19SingleSatCorrectionEE6$valueE",
   "name" : "android::internal::details::IsPointerLike<aidl::android::hardware::gnss::measurement_corrections::SingleSatCorrection>::(unnamed enum at frameworks/native/libs/binder/ndk/include_cpp/android/binder_to_string.h:118:5)",
   "referenced_type" : "_ZTIN7android8internal7details13IsPointerLikeIN4aidl7android8hardware4gnss23measurement_corrections19SingleSatCorrectionEE6$valueE",
   "self_type" : "_ZTIN7android8internal7details13IsPointerLikeIN4aidl7android8hardware4gnss23measurement_corrections19SingleSatCorrectionEE6$valueE",
   "size" : 4,
   "source_file" : "frameworks/native/libs/binder/ndk/include_cpp/android/binder_to_string.h",
   "underlying_type" : "_ZTIj"
  },
  {
   "alignment" : 4,
   "enum_fields" :
   [
    {
     "enum_field_value" : 0,
     "name" : "android::internal::details::IsPointerLike<aidl::android::hardware::gnss::IGnssAntennaInfoCallback::Row>::value"
    }
   ],
   "linker_set_key" : "_ZTIN7android8internal7details13IsPointerLikeIN4aidl7android8hardware4gnss24IGnssAntennaInfoCallback3RowEE6$valueE",
   "name" : "android::internal::details::IsPointerLike<aidl::android::hardware::gnss::IGnssAntennaInfoCallback::Row>::(unnamed enum at frameworks/native/libs/binder/ndk/include_cpp/android/binder_to_string.h:118:5)",
   "referenced_type" : "_ZTIN7android8internal7details13IsPointerLikeIN4aidl7android8hardware4gnss24IGnssAntennaInfoCallback3RowEE6$valueE",
   "self_type" : "_ZTIN7android8internal7details13IsPointerLikeIN4aidl7android8hardware4gnss24IGnssAntennaInfoCallback3RowEE6$valueE",
   "size" : 4,
   "source_file" : "frameworks/native/libs/binder/ndk/include_cpp/android/binder_to_string.h",
   "underlying_type" : "_ZTIj"
  },
  {
   "alignment" : 4,
   "enum_fields" :
   [
    {
     "enum_field_value" : 0,
     "name" : "android::internal::details::IsPointerLike<aidl::android::hardware::gnss::IGnssAntennaInfoCallback::Coord>::value"
    }
   ],
   "linker_set_key" : "_ZTIN7android8internal7details13IsPointerLikeIN4aidl7android8hardware4gnss24IGnssAntennaInfoCallback5CoordEE6$valueE",
   "name" : "android::internal::details::IsPointerLike<aidl::android::hardware::gnss::IGnssAntennaInfoCallback::Coord>::(unnamed enum at frameworks/native/libs/binder/ndk/include_cpp/android/binder_to_string.h:118:5)",
   "referenced_type" : "_ZTIN7android8internal7details13IsPointerLikeIN4aidl7android8hardware4gnss24IGnssAntennaInfoCallback5CoordEE6$valueE",
   "self_type" : "_ZTIN7android8internal7details13IsPointerLikeIN4aidl7android8hardware4gnss24IGnssAntennaInfoCallback5CoordEE6$valueE",
   "size" : 4,
   "source_file" : "frameworks/native/libs/binder/ndk/include_cpp/android/binder_to_string.h",
   "underlying_type" : "_ZTIj"
  },
  {
   "alignment" : 4,
   "enum_fields" :
   [
    {
     "enum_field_value" : 0,
     "name" : "android::internal::details::IsPointerLike<aidl::android::hardware::gnss::IGnssNavigationMessageCallback::GnssNavigationMessage::GnssNavigationMessageType>::value"
    }
   ],
   "linker_set_key" : "_ZTIN7android8internal7details13IsPointerLikeIN4aidl7android8hardware4gnss30IGnssNavigationMessageCallback21GnssNavigationMessage25GnssNavigationMessageTypeEE6$valueE",
   "name" : "android::internal::details::IsPointerLike<aidl::android::hardware::gnss::IGnssNavigationMessageCallback::GnssNavigationMessage::GnssNavigationMessageType>::(unnamed enum at frameworks/native/libs/binder/ndk/include_cpp/android/binder_to_string.h:118:5)",
   "referenced_type" : "_ZTIN7android8internal7details13IsPointerLikeIN4aidl7android8hardware4gnss30IGnssNavigationMessageCallback21GnssNavigationMessage25GnssNavigationMessageTypeEE6$valueE",
   "self_type" : "_ZTIN7android8internal7details13IsPointerLikeIN4aidl7android8hardware4gnss30IGnssNavigationMessageCallback21GnssNavigationMessage25GnssNavigationMessageTypeEE6$valueE",
   "size" : 4,
   "source_file" : "frameworks/native/libs/binder/ndk/include_cpp/android/binder_to_string.h",
   "underlying_type" : "_ZTIj"
  },
  {
   "alignment" : 4,
   "enum_fields" :
   [
    {
     "enum_field_value" : 0,
     "name" : "android::internal::details::IsPointerLike<aidl::android::hardware::gnss::IGnss::GnssPositionMode>::value"
    }
   ],
   "linker_set_key" : "_ZTIN7android8internal7details13IsPointerLikeIN4aidl7android8hardware4gnss5IGnss16GnssPositionModeEE6$valueE",
   "name" : "android::internal::details::IsPointerLike<aidl::android::hardware::gnss::IGnss::GnssPositionMode>::(unnamed enum at frameworks/native/libs/binder/ndk/include_cpp/android/binder_to_string.h:118:5)",
   "referenced_type" : "_ZTIN7android8internal7details13IsPointerLikeIN4aidl7android8hardware4gnss5IGnss16GnssPositionModeEE6$valueE",
   "self_type" : "_ZTIN7android8internal7details13IsPointerLikeIN4aidl7android8hardware4gnss5IGnss16GnssPositionModeEE6$valueE",
   "size" : 4,
   "source_file" : "frameworks/native/libs/binder/ndk/include_cpp/android/binder_to_string.h",
   "underlying_type" : "_ZTIj"
  },
  {
   "alignment" : 4,
   "enum_fields" :
   [
    {
     "enum_field_value" : 0,
     "name" : "android::internal::details::IsPointerLike<aidl::android::hardware::gnss::IGnss::GnssPositionRecurrence>::value"
    }
   ],
   "linker_set_key" : "_ZTIN7android8internal7details13IsPointerLikeIN4aidl7android8hardware4gnss5IGnss22GnssPositionRecurrenceEE6$valueE",
   "name" : "android::internal::details::IsPointerLike<aidl::android::hardware::gnss::IGnss::GnssPositionRecurrence>::(unnamed enum at frameworks/native/libs/binder/ndk/include_cpp/android/binder_to_string.h:118:5)",
   "referenced_type" : "_ZTIN7android8internal7details13IsPointerLikeIN4aidl7android8hardware4gnss5IGnss22GnssPositionRecurrenceEE6$valueE",
   "self_type" : "_ZTIN7android8internal7details13IsPointerLikeIN4aidl7android8hardware4gnss5IGnss22GnssPositionRecurrenceEE6$valueE",
   "size" : 4,
   "source_file" : "frameworks/native/libs/binder/ndk/include_cpp/android/binder_to_string.h",
   "underlying_type" : "_ZTIj"
  },
  {
   "alignment" : 4,
   "enum_fields" :
   [
    {
     "enum_field_value" : 0,
     "name" : "android::internal::details::IsPointerLike<aidl::android::hardware::gnss::GnssData::GnssAgc>::value"
    }
   ],
   "linker_set_key" : "_ZTIN7android8internal7details13IsPointerLikeIN4aidl7android8hardware4gnss8GnssData7GnssAgcEE6$valueE",
   "name" : "android::internal::details::IsPointerLike<aidl::android::hardware::gnss::GnssData::GnssAgc>::(unnamed enum at frameworks/native/libs/binder/ndk/include_cpp/android/binder_to_string.h:118:5)",
   "referenced_type" : "_ZTIN7android8internal7details13IsPointerLikeIN4aidl7android8hardware4gnss8GnssData7GnssAgcEE6$valueE",
   "self_type" : "_ZTIN7android8internal7details13IsPointerLikeIN4aidl7android8hardware4gnss8GnssData7GnssAgcEE6$valueE",
   "size" : 4,
   "source_file" : "frameworks/native/libs/binder/ndk/include_cpp/android/binder_to_string.h",
   "underlying_type" : "_ZTIj"
  },
  {
   "alignment" : 4,
   "enum_fields" :
   [
    {
     "enum_field_value" : 0,
     "name" : "android::internal::details::IsPointerLike<aidl::android::hardware::gnss::GnssClock>::value"
    }
   ],
   "linker_set_key" : "_ZTIN7android8internal7details13IsPointerLikeIN4aidl7android8hardware4gnss9GnssClockEE6$valueE",
   "name" : "android::internal::details::IsPointerLike<aidl::android::hardware::gnss::GnssClock>::(unnamed enum at frameworks/native/libs/binder/ndk/include_cpp/android/binder_to_string.h:118:5)",
   "referenced_type" : "_ZTIN7android8internal7details13IsPointerLikeIN4aidl7android8hardware4gnss9GnssClockEE6$valueE",
   "self_type" : "_ZTIN7android8internal7details13IsPointerLikeIN4aidl7android8hardware4gnss9GnssClockEE6$valueE",
   "size" : 4,
   "source_file" : "frameworks/native/libs/binder/ndk/include_cpp/android/binder_to_string.h",
   "underlying_type" : "_ZTIj"
  },
  {
   "alignment" : 4,
   "enum_fields" :
   [
    {
     "enum_field_value" : 0,
     "name" : "android::internal::details::IsPointerLike<aidl::android::hardware::gnss::IAGnssRil::AGnssRefLocationType>::value"
    }
   ],
   "linker_set_key" : "_ZTIN7android8internal7details13IsPointerLikeIN4aidl7android8hardware4gnss9IAGnssRil20AGnssRefLocationTypeEE6$valueE",
   "name" : "android::internal::details::IsPointerLike<aidl::android::hardware::gnss::IAGnssRil::AGnssRefLocationType>::(unnamed enum at frameworks/native/libs/binder/ndk/include_cpp/android/binder_to_string.h:118:5)",
   "referenced_type" : "_ZTIN7android8internal7details13IsPointerLikeIN4aidl7android8hardware4gnss9IAGnssRil20AGnssRefLocationTypeEE6$valueE",
   "self_type" : "_ZTIN7android8internal7details13IsPointerLikeIN4aidl7android8hardware4gnss9IAGnssRil20AGnssRefLocationTypeEE6$valueE",
   "size" : 4,
   "source_file" : "frameworks/native/libs/binder/ndk/include_cpp/android/binder_to_string.h",
   "underlying_type" : "_ZTIj"
  },
  {
   "alignment" : 4,
   "enum_fields" :
   [
    {
     "enum_field_value" : 0,
     "name" : "android::internal::details::IsPointerLike<aidl::android::hardware::gnss::IAGnssRil::AGnssRefLocationCellID>::value"
    }
   ],
   "linker_set_key" : "_ZTIN7android8internal7details13IsPointerLikeIN4aidl7android8hardware4gnss9IAGnssRil22AGnssRefLocationCellIDEE6$valueE",
   "name" : "android::internal::details::IsPointerLike<aidl::android::hardware::gnss::IAGnssRil::AGnssRefLocationCellID>::(unnamed enum at frameworks/native/libs/binder/ndk/include_cpp/android/binder_to_string.h:118:5)",
   "referenced_type" : "_ZTIN7android8internal7details13IsPointerLikeIN4aidl7android8hardware4gnss9IAGnssRil22AGnssRefLocationCellIDEE6$valueE",
   "self_type" : "_ZTIN7android8internal7details13IsPointerLikeIN4aidl7android8hardware4gnss9IAGnssRil22AGnssRefLocationCellIDEE6$valueE",
   "size" : 4,
   "source_file" : "frameworks/native/libs/binder/ndk/include_cpp/android/binder_to_string.h",
   "underlying_type" : "_ZTIj"
  },
  {
   "alignment" : 4,
   "enum_fields" :
   [
    {
     "enum_field_value" : 0,
     "name" : "android::internal::details::IsPointerLike<std::vector<aidl::android::hardware::gnss::IGnssDebug::SatelliteData>>::value"
    }
   ],
   "linker_set_key" : "_ZTIN7android8internal7details13IsPointerLikeINSt3__16vectorIN4aidl7android8hardware4gnss10IGnssDebug13SatelliteDataENS3_9allocatorISA_EEEEE6$valueE",
   "name" : "android::internal::details::IsPointerLike<std::vector<aidl::android::hardware::gnss::IGnssDebug::SatelliteData, std::allocator<aidl::android::hardware::gnss::IGnssDebug::SatelliteData>>>::(unnamed enum at frameworks/native/libs/binder/ndk/include_cpp/android/binder_to_string.h:118:5)",
   "referenced_type" : "_ZTIN7android8internal7details13IsPointerLikeINSt3__16vectorIN4aidl7android8hardware4gnss10IGnssDebug13SatelliteDataENS3_9allocatorISA_EEEEE6$valueE",
   "self_type" : "_ZTIN7android8internal7details13IsPointerLikeINSt3__16vectorIN4aidl7android8hardware4gnss10IGnssDebug13SatelliteDataENS3_9allocatorISA_EEEEE6$valueE",
   "size" : 4,
   "source_file" : "frameworks/native/libs/binder/ndk/include_cpp/android/binder_to_string.h",
   "underlying_type" : "_ZTIj"
  },
  {
   "alignment" : 4,
   "enum_fields" :
   [
    {
     "enum_field_value" : 0,
     "name" : "android::internal::details::IsPointerLike<std::vector<aidl::android::hardware::gnss::GnssMeasurement>>::value"
    }
   ],
   "linker_set_key" : "_ZTIN7android8internal7details13IsPointerLikeINSt3__16vectorIN4aidl7android8hardware4gnss15GnssMeasurementENS3_9allocatorIS9_EEEEE6$valueE",
   "name" : "android::internal::details::IsPointerLike<std::vector<aidl::android::hardware::gnss::GnssMeasurement, std::allocator<aidl::android::hardware::gnss::GnssMeasurement>>>::(unnamed enum at frameworks/native/libs/binder/ndk/include_cpp/android/binder_to_string.h:118:5)",
   "referenced_type" : "_ZTIN7android8internal7details13IsPointerLikeINSt3__16vectorIN4aidl7android8hardware4gnss15GnssMeasurementENS3_9allocatorIS9_EEEEE6$valueE",
   "self_type" : "_ZTIN7android8internal7details13IsPointerLikeINSt3__16vectorIN4aidl7android8hardware4gnss15GnssMeasurementENS3_9allocatorIS9_EEEEE6$valueE",
   "size" : 4,
   "source_file" : "frameworks/native/libs/binder/ndk/include_cpp/android/binder_to_string.h",
   "underlying_type" : "_ZTIj"
  },
  {
   "alignment" : 4,
   "enum_fields" :
   [
    {
     "enum_field_value" : 0,
     "name" : "android::internal::details::IsPointerLike<std::vector<aidl::android::hardware::gnss::CorrelationVector>>::value"
    }
   ],
   "linker_set_key" : "_ZTIN7android8internal7details13IsPointerLikeINSt3__16vectorIN4aidl7android8hardware4gnss17CorrelationVectorENS3_9allocatorIS9_EEEEE6$valueE",
   "name" : "android::internal::details::IsPointerLike<std::vector<aidl::android::hardware::gnss::CorrelationVector, std::allocator<aidl::android::hardware::gnss::CorrelationVector>>>::(unnamed enum at frameworks/native/libs/binder/ndk/include_cpp/android/binder_to_string.h:118:5)",
   "referenced_type" : "_ZTIN7android8internal7details13IsPointerLikeINSt3__16vectorIN4aidl7android8hardware4gnss17CorrelationVectorENS3_9allocatorIS9_EEEEE6$valueE",
   "self_type" : "_ZTIN7android8internal7details13IsPointerLikeINSt3__16vectorIN4aidl7android8hardware4gnss17CorrelationVectorENS3_9allocatorIS9_EEEEE6$valueE",
   "size" : 4,
   "source_file" : "frameworks/native/libs/binder/ndk/include_cpp/android/binder_to_string.h",
   "underlying_type" : "_ZTIj"
  },
  {
   "alignment" : 4,
   "enum_fields" :
   [
    {
     "enum_field_value" : 0,
     "name" : "android::internal::details::IsPointerLike<std::vector<aidl::android::hardware::gnss::measurement_corrections::SingleSatCorrection::ExcessPathInfo>>::value"
    }
   ],
   "linker_set_key" : "_ZTIN7android8internal7details13IsPointerLikeINSt3__16vectorIN4aidl7android8hardware4gnss23measurement_corrections19SingleSatCorrection14ExcessPathInfoENS3_9allocatorISB_EEEEE6$valueE",
   "name" : "android::internal::details::IsPointerLike<std::vector<aidl::android::hardware::gnss::measurement_corrections::SingleSatCorrection::ExcessPathInfo, std::allocator<aidl::android::hardware::gnss::measurement_corrections::SingleSatCorrection::ExcessPathInfo>>>::(unnamed enum at frameworks/native/libs/binder/ndk/include_cpp/android/binder_to_string.h:118:5)",
   "referenced_type" : "_ZTIN7android8internal7details13IsPointerLikeINSt3__16vectorIN4aidl7android8hardware4gnss23measurement_corrections19SingleSatCorrection14ExcessPathInfoENS3_9allocatorISB_EEEEE6$valueE",
   "self_type" : "_ZTIN7android8internal7details13IsPointerLikeINSt3__16vectorIN4aidl7android8hardware4gnss23measurement_corrections19SingleSatCorrection14ExcessPathInfoENS3_9allocatorISB_EEEEE6$valueE",
   "size" : 4,
   "source_file" : "frameworks/native/libs/binder/ndk/include_cpp/android/binder_to_string.h",
   "underlying_type" : "_ZTIj"
  },
  {
   "alignment" : 4,
   "enum_fields" :
   [
    {
     "enum_field_value" : 0,
     "name" : "android::internal::details::IsPointerLike<std::vector<aidl::android::hardware::gnss::measurement_corrections::SingleSatCorrection>>::value"
    }
   ],
   "linker_set_key" : "_ZTIN7android8internal7details13IsPointerLikeINSt3__16vectorIN4aidl7android8hardware4gnss23measurement_corrections19SingleSatCorrectionENS3_9allocatorISA_EEEEE6$valueE",
   "name" : "android::internal::details::IsPointerLike<std::vector<aidl::android::hardware::gnss::measurement_corrections::SingleSatCorrection, std::allocator<aidl::android::hardware::gnss::measurement_corrections::SingleSatCorrection>>>::(unnamed enum at frameworks/native/libs/binder/ndk/include_cpp/android/binder_to_string.h:118:5)",
   "referenced_type" : "_ZTIN7android8internal7details13IsPointerLikeINSt3__16vectorIN4aidl7android8hardware4gnss23measurement_corrections19SingleSatCorrectionENS3_9allocatorISA_EEEEE6$valueE",
   "self_type" : "_ZTIN7android8internal7details13IsPointerLikeINSt3__16vectorIN4aidl7android8hardware4gnss23measurement_corrections19SingleSatCorrectionENS3_9allocatorISA_EEEEE6$valueE",
   "size" : 4,
   "source_file" : "frameworks/native/libs/binder/ndk/include_cpp/android/binder_to_string.h",
   "underlying_type" : "_ZTIj"
  },
  {
   "alignment" : 4,
   "enum_fields" :
   [
    {
     "enum_field_value" : 0,
     "name" : "android::internal::details::IsPointerLike<std::vector<aidl::android::hardware::gnss::IGnssAntennaInfoCallback::Row>>::value"
    }
   ],
   "linker_set_key" : "_ZTIN7android8internal7details13IsPointerLikeINSt3__16vectorIN4aidl7android8hardware4gnss24IGnssAntennaInfoCallback3RowENS3_9allocatorISA_EEEEE6$valueE",
   "name" : "android::internal::details::IsPointerLike<std::vector<aidl::android::hardware::gnss::IGnssAntennaInfoCallback::Row, std::allocator<aidl::android::hardware::gnss::IGnssAntennaInfoCallback::Row>>>::(unnamed enum at frameworks/native/libs/binder/ndk/include_cpp/android/binder_to_string.h:118:5)",
   "referenced_type" : "_ZTIN7android8internal7details13IsPointerLikeINSt3__16vectorIN4aidl7android8hardware4gnss24IGnssAntennaInfoCallback3RowENS3_9allocatorISA_EEEEE6$valueE",
   "self_type" : "_ZTIN7android8internal7details13IsPointerLikeINSt3__16vectorIN4aidl7android8hardware4gnss24IGnssAntennaInfoCallback3RowENS3_9allocatorISA_EEEEE6$valueE",
   "size" : 4,
   "source_file" : "frameworks/native/libs/binder/ndk/include_cpp/android/binder_to_string.h",
   "underlying_type" : "_ZTIj"
  },
  {
   "alignment" : 4,
   "enum_fields" :
   [
    {
     "enum_field_value" : 0,
     "name" : "android::internal::details::IsPointerLike<std::vector<aidl::android::hardware::gnss::GnssData::GnssAgc>>::value"
    }
   ],
   "linker_set_key" : "_ZTIN7android8internal7details13IsPointerLikeINSt3__16vectorIN4aidl7android8hardware4gnss8GnssData7GnssAgcENS3_9allocatorISA_EEEEE6$valueE",
   "name" : "android::internal::details::IsPointerLike<std::vector<aidl::android::hardware::gnss::GnssData::GnssAgc, std::allocator<aidl::android::hardware::gnss::GnssData::GnssAgc>>>::(unnamed enum at frameworks/native/libs/binder/ndk/include_cpp/android/binder_to_string.h:118:5)",
   "referenced_type" : "_ZTIN7android8internal7details13IsPointerLikeINSt3__16vectorIN4aidl7android8hardware4gnss8GnssData7GnssAgcENS3_9allocatorISA_EEEEE6$valueE",
   "self_type" : "_ZTIN7android8internal7details13IsPointerLikeINSt3__16vectorIN4aidl7android8hardware4gnss8GnssData7GnssAgcENS3_9allocatorISA_EEEEE6$valueE",
   "size" : 4,
   "source_file" : "frameworks/native/libs/binder/ndk/include_cpp/android/binder_to_string.h",
   "underlying_type" : "_ZTIj"
  },
  {
   "alignment" : 4,
   "enum_fields" :
   [
    {
     "enum_field_value" : 0,
     "name" : "android::internal::details::IsPointerLike<std::vector<double>>::value"
    }
   ],
   "linker_set_key" : "_ZTIN7android8internal7details13IsPointerLikeINSt3__16vectorIdNS3_9allocatorIdEEEEE6$valueE",
   "name" : "android::internal::details::IsPointerLike<std::vector<double, std::allocator<double>>>::(unnamed enum at frameworks/native/libs/binder/ndk/include_cpp/android/binder_to_string.h:118:5)",
   "referenced_type" : "_ZTIN7android8internal7details13IsPointerLikeINSt3__16vectorIdNS3_9allocatorIdEEEEE6$valueE",
   "self_type" : "_ZTIN7android8internal7details13IsPointerLikeINSt3__16vectorIdNS3_9allocatorIdEEEEE6$valueE",
   "size" : 4,
   "source_file" : "frameworks/native/libs/binder/ndk/include_cpp/android/binder_to_string.h",
   "underlying_type" : "_ZTIj"
  },
  {
   "alignment" : 4,
   "enum_fields" :
   [
    {
     "enum_field_value" : 0,
     "name" : "android::internal::details::IsPointerLike<std::vector<unsigned char>>::value"
    }
   ],
   "linker_set_key" : "_ZTIN7android8internal7details13IsPointerLikeINSt3__16vectorIhNS3_9allocatorIhEEEEE6$valueE",
   "name" : "android::internal::details::IsPointerLike<std::vector<unsigned char, std::allocator<unsigned char>>>::(unnamed enum at frameworks/native/libs/binder/ndk/include_cpp/android/binder_to_string.h:118:5)",
   "referenced_type" : "_ZTIN7android8internal7details13IsPointerLikeINSt3__16vectorIhNS3_9allocatorIhEEEEE6$valueE",
   "self_type" : "_ZTIN7android8internal7details13IsPointerLikeINSt3__16vectorIhNS3_9allocatorIhEEEEE6$valueE",
   "size" : 4,
   "source_file" : "frameworks/native/libs/binder/ndk/include_cpp/android/binder_to_string.h",
   "underlying_type" : "_ZTIj"
  },
  {
   "alignment" : 4,
   "enum_fields" :
   [
    {
     "enum_field_value" : 0,
     "name" : "android::internal::details::IsPointerLike<std::vector<int>>::value"
    }
   ],
   "linker_set_key" : "_ZTIN7android8internal7details13IsPointerLikeINSt3__16vectorIiNS3_9allocatorIiEEEEE6$valueE",
   "name" : "android::internal::details::IsPointerLike<std::vector<int, std::allocator<int>>>::(unnamed enum at frameworks/native/libs/binder/ndk/include_cpp/android/binder_to_string.h:118:5)",
   "referenced_type" : "_ZTIN7android8internal7details13IsPointerLikeINSt3__16vectorIiNS3_9allocatorIiEEEEE6$valueE",
   "self_type" : "_ZTIN7android8internal7details13IsPointerLikeINSt3__16vectorIiNS3_9allocatorIiEEEEE6$valueE",
   "size" : 4,
   "source_file" : "frameworks/native/libs/binder/ndk/include_cpp/android/binder_to_string.h",
   "underlying_type" : "_ZTIj"
  },
  {
   "alignment" : 4,
   "enum_fields" :
   [
    {
     "enum_field_value" : 0,
     "name" : "android::internal::details::ToEmptyString<aidl::android::hardware::gnss::IGnssDebug::PositionDebug>::value"
    }
   ],
   "linker_set_key" : "_ZTIN7android8internal7details13ToEmptyStringIN4aidl7android8hardware4gnss10IGnssDebug13PositionDebugEE6$valueE",
   "name" : "android::internal::details::ToEmptyString<aidl::android::hardware::gnss::IGnssDebug::PositionDebug>::(unnamed enum at frameworks/native/libs/binder/ndk/include_cpp/android/binder_to_string.h:153:5)",
   "referenced_type" : "_ZTIN7android8internal7details13ToEmptyStringIN4aidl7android8hardware4gnss10IGnssDebug13PositionDebugEE6$valueE",
   "self_type" : "_ZTIN7android8internal7details13ToEmptyStringIN4aidl7android8hardware4gnss10IGnssDebug13PositionDebugEE6$valueE",
   "size" : 4,
   "source_file" : "frameworks/native/libs/binder/ndk/include_cpp/android/binder_to_string.h",
   "underlying_type" : "_ZTIj"
  },
  {
   "alignment" : 4,
   "enum_fields" :
   [
    {
     "enum_field_value" : 0,
     "name" : "android::internal::details::ToEmptyString<aidl::android::hardware::gnss::IGnssDebug::SatelliteData>::value"
    }
   ],
   "linker_set_key" : "_ZTIN7android8internal7details13ToEmptyStringIN4aidl7android8hardware4gnss10IGnssDebug13SatelliteDataEE6$valueE",
   "name" : "android::internal::details::ToEmptyString<aidl::android::hardware::gnss::IGnssDebug::SatelliteData>::(unnamed enum at frameworks/native/libs/binder/ndk/include_cpp/android/binder_to_string.h:153:5)",
   "referenced_type" : "_ZTIN7android8internal7details13ToEmptyStringIN4aidl7android8hardware4gnss10IGnssDebug13SatelliteDataEE6$valueE",
   "self_type" : "_ZTIN7android8internal7details13ToEmptyStringIN4aidl7android8hardware4gnss10IGnssDebug13SatelliteDataEE6$valueE",
   "size" : 4,
   "source_file" : "frameworks/native/libs/binder/ndk/include_cpp/android/binder_to_string.h",
   "underlying_type" : "_ZTIj"
  },
  {
   "alignment" : 4,
   "enum_fields" :
   [
    {
     "enum_field_value" : 0,
     "name" : "android::internal::details::ToEmptyString<aidl::android::hardware::gnss::IGnssDebug::SatelliteEphemerisType>::value"
    }
   ],
   "linker_set_key" : "_ZTIN7android8internal7details13ToEmptyStringIN4aidl7android8hardware4gnss10IGnssDebug22SatelliteEphemerisTypeEE6$valueE",
   "name" : "android::internal::details::ToEmptyString<aidl::android::hardware::gnss::IGnssDebug::SatelliteEphemerisType>::(unnamed enum at frameworks/native/libs/binder/ndk/include_cpp/android/binder_to_string.h:153:5)",
   "referenced_type" : "_ZTIN7android8internal7details13ToEmptyStringIN4aidl7android8hardware4gnss10IGnssDebug22SatelliteEphemerisTypeEE6$valueE",
   "self_type" : "_ZTIN7android8internal7details13ToEmptyStringIN4aidl7android8hardware4gnss10IGnssDebug22SatelliteEphemerisTypeEE6$valueE",
   "size" : 4,
   "source_file" : "frameworks/native/libs/binder/ndk/include_cpp/android/binder_to_string.h",
   "underlying_type" : "_ZTIj"
  },
  {
   "alignment" : 4,
   "enum_fields" :
   [
    {
     "enum_field_value" : 0,
     "name" : "android::internal::details::ToEmptyString<aidl::android::hardware::gnss::IGnssDebug::SatelliteEphemerisHealth>::value"
    }
   ],
   "linker_set_key" : "_ZTIN7android8internal7details13ToEmptyStringIN4aidl7android8hardware4gnss10IGnssDebug24SatelliteEphemerisHealthEE6$valueE",
   "name" : "android::internal::details::ToEmptyString<aidl::android::hardware::gnss::IGnssDebug::SatelliteEphemerisHealth>::(unnamed enum at frameworks/native/libs/binder/ndk/include_cpp/android/binder_to_string.h:153:5)",
   "referenced_type" : "_ZTIN7android8internal7details13ToEmptyStringIN4aidl7android8hardware4gnss10IGnssDebug24SatelliteEphemerisHealthEE6$valueE",
   "self_type" : "_ZTIN7android8internal7details13ToEmptyStringIN4aidl7android8hardware4gnss10IGnssDebug24SatelliteEphemerisHealthEE6$valueE",
   "size" : 4,
   "source_file" : "frameworks/native/libs/binder/ndk/include_cpp/android/binder_to_string.h",
   "underlying_type" : "_ZTIj"
  },
  {
   "alignment" : 4,
   "enum_fields" :
   [
    {
     "enum_field_value" : 0,
     "name" : "android::internal::details::ToEmptyString<aidl::android::hardware::gnss::IGnssDebug::TimeDebug>::value"
    }
   ],
   "linker_set_key" : "_ZTIN7android8internal7details13ToEmptyStringIN4aidl7android8hardware4gnss10IGnssDebug9TimeDebugEE6$valueE",
   "name" : "android::internal::details::ToEmptyString<aidl::android::hardware::gnss::IGnssDebug::TimeDebug>::(unnamed enum at frameworks/native/libs/binder/ndk/include_cpp/android/binder_to_string.h:153:5)",
   "referenced_type" : "_ZTIN7android8internal7details13ToEmptyStringIN4aidl7android8hardware4gnss10IGnssDebug9TimeDebugEE6$valueE",
   "self_type" : "_ZTIN7android8internal7details13ToEmptyStringIN4aidl7android8hardware4gnss10IGnssDebug9TimeDebugEE6$valueE",
   "size" : 4,
   "source_file" : "frameworks/native/libs/binder/ndk/include_cpp/android/binder_to_string.h",
   "underlying_type" : "_ZTIj"
  },
  {
   "alignment" : 4,
   "enum_fields" :
   [
    {
     "enum_field_value" : 0,
     "name" : "android::internal::details::ToEmptyString<aidl::android::hardware::gnss::SatellitePvt::SatelliteEphemerisSource>::value"
    }
   ],
   "linker_set_key" : "_ZTIN7android8internal7details13ToEmptyStringIN4aidl7android8hardware4gnss12SatellitePvt24SatelliteEphemerisSourceEE6$valueE",
   "name" : "android::internal::details::ToEmptyString<aidl::android::hardware::gnss::SatellitePvt::SatelliteEphemerisSource>::(unnamed enum at frameworks/native/libs/binder/ndk/include_cpp/android/binder_to_string.h:153:5)",
   "referenced_type" : "_ZTIN7android8internal7details13ToEmptyStringIN4aidl7android8hardware4gnss12SatellitePvt24SatelliteEphemerisSourceEE6$valueE",
   "self_type" : "_ZTIN7android8internal7details13ToEmptyStringIN4aidl7android8hardware4gnss12SatellitePvt24SatelliteEphemerisSourceEE6$valueE",
   "size" : 4,
   "source_file" : "frameworks/native/libs/binder/ndk/include_cpp/android/binder_to_string.h",
   "underlying_type" : "_ZTIj"
  },
  {
   "alignment" : 4,
   "enum_fields" :
   [
    {
     "enum_field_value" : 0,
     "name" : "android::internal::details::ToEmptyString<aidl::android::hardware::gnss::SatellitePvt>::value"
    }
   ],
   "linker_set_key" : "_ZTIN7android8internal7details13ToEmptyStringIN4aidl7android8hardware4gnss12SatellitePvtEE6$valueE",
   "name" : "android::internal::details::ToEmptyString<aidl::android::hardware::gnss::SatellitePvt>::(unnamed enum at frameworks/native/libs/binder/ndk/include_cpp/android/binder_to_string.h:153:5)",
   "referenced_type" : "_ZTIN7android8internal7details13ToEmptyStringIN4aidl7android8hardware4gnss12SatellitePvtEE6$valueE",
   "self_type" : "_ZTIN7android8internal7details13ToEmptyStringIN4aidl7android8hardware4gnss12SatellitePvtEE6$valueE",
   "size" : 4,
   "source_file" : "frameworks/native/libs/binder/ndk/include_cpp/android/binder_to_string.h",
   "underlying_type" : "_ZTIj"
  },
  {
   "alignment" : 4,
   "enum_fields" :
   [
    {
     "enum_field_value" : 0,
     "name" : "android::internal::details::ToEmptyString<aidl::android::hardware::gnss::GnssSignalType>::value"
    }
   ],
   "linker_set_key" : "_ZTIN7android8internal7details13ToEmptyStringIN4aidl7android8hardware4gnss14GnssSignalTypeEE6$valueE",
   "name" : "android::internal::details::ToEmptyString<aidl::android::hardware::gnss::GnssSignalType>::(unnamed enum at frameworks/native/libs/binder/ndk/include_cpp/android/binder_to_string.h:153:5)",
   "referenced_type" : "_ZTIN7android8internal7details13ToEmptyStringIN4aidl7android8hardware4gnss14GnssSignalTypeEE6$valueE",
   "self_type" : "_ZTIN7android8internal7details13ToEmptyStringIN4aidl7android8hardware4gnss14GnssSignalTypeEE6$valueE",
   "size" : 4,
   "source_file" : "frameworks/native/libs/binder/ndk/include_cpp/android/binder_to_string.h",
   "underlying_type" : "_ZTIj"
  },
  {
   "alignment" : 4,
   "enum_fields" :
   [
    {
     "enum_field_value" : 0,
     "name" : "android::internal::details::ToEmptyString<aidl::android::hardware::gnss::ElapsedRealtime>::value"
    }
   ],
   "linker_set_key" : "_ZTIN7android8internal7details13ToEmptyStringIN4aidl7android8hardware4gnss15ElapsedRealtimeEE6$valueE",
   "name" : "android::internal::details::ToEmptyString<aidl::android::hardware::gnss::ElapsedRealtime>::(unnamed enum at frameworks/native/libs/binder/ndk/include_cpp/android/binder_to_string.h:153:5)",
   "referenced_type" : "_ZTIN7android8internal7details13ToEmptyStringIN4aidl7android8hardware4gnss15ElapsedRealtimeEE6$valueE",
   "self_type" : "_ZTIN7android8internal7details13ToEmptyStringIN4aidl7android8hardware4gnss15ElapsedRealtimeEE6$valueE",
   "size" : 4,
   "source_file" : "frameworks/native/libs/binder/ndk/include_cpp/android/binder_to_string.h",
   "underlying_type" : "_ZTIj"
  },
  {
   "alignment" : 4,
   "enum_fields" :
   [
    {
     "enum_field_value" : 0,
     "name" : "android::internal::details::ToEmptyString<aidl::android::hardware::gnss::GnssMeasurement>::value"
    }
   ],
   "linker_set_key" : "_ZTIN7android8internal7details13ToEmptyStringIN4aidl7android8hardware4gnss15GnssMeasurementEE6$valueE",
   "name" : "android::internal::details::ToEmptyString<aidl::android::hardware::gnss::GnssMeasurement>::(unnamed enum at frameworks/native/libs/binder/ndk/include_cpp/android/binder_to_string.h:153:5)",
   "referenced_type" : "_ZTIN7android8internal7details13ToEmptyStringIN4aidl7android8hardware4gnss15GnssMeasurementEE6$valueE",
   "self_type" : "_ZTIN7android8internal7details13ToEmptyStringIN4aidl7android8hardware4gnss15GnssMeasurementEE6$valueE",
   "size" : 4,
   "source_file" : "frameworks/native/libs/binder/ndk/include_cpp/android/binder_to_string.h",
   "underlying_type" : "_ZTIj"
  },
  {
   "alignment" : 4,
   "enum_fields" :
   [
    {
     "enum_field_value" : 0,
     "name" : "android::internal::details::ToEmptyString<aidl::android::hardware::gnss::CorrelationVector>::value"
    }
   ],
   "linker_set_key" : "_ZTIN7android8internal7details13ToEmptyStringIN4aidl7android8hardware4gnss17CorrelationVectorEE6$valueE",
   "name" : "android::internal::details::ToEmptyString<aidl::android::hardware::gnss::CorrelationVector>::(unnamed enum at frameworks/native/libs/binder/ndk/include_cpp/android/binder_to_string.h:153:5)",
   "referenced_type" : "_ZTIN7android8internal7details13ToEmptyStringIN4aidl7android8hardware4gnss17CorrelationVectorEE6$valueE",
   "self_type" : "_ZTIN7android8internal7details13ToEmptyStringIN4aidl7android8hardware4gnss17CorrelationVectorEE6$valueE",
   "size" : 4,
   "source_file" : "frameworks/native/libs/binder/ndk/include_cpp/android/binder_to_string.h",
   "underlying_type" : "_ZTIj"
  },
  {
   "alignment" : 4,
   "enum_fields" :
   [
    {
     "enum_field_value" : 0,
     "name" : "android::internal::details::ToEmptyString<aidl::android::hardware::gnss::SatelliteClockInfo>::value"
    }
   ],
   "linker_set_key" : "_ZTIN7android8internal7details13ToEmptyStringIN4aidl7android8hardware4gnss18SatelliteClockInfoEE6$valueE",
   "name" : "android::internal::details::ToEmptyString<aidl::android::hardware::gnss::SatelliteClockInfo>::(unnamed enum at frameworks/native/libs/binder/ndk/include_cpp/android/binder_to_string.h:153:5)",
   "referenced_type" : "_ZTIN7android8internal7details13ToEmptyStringIN4aidl7android8hardware4gnss18SatelliteClockInfoEE6$valueE",
   "self_type" : "_ZTIN7android8internal7details13ToEmptyStringIN4aidl7android8hardware4gnss18SatelliteClockInfoEE6$valueE",
   "size" : 4,
   "source_file" : "frameworks/native/libs/binder/ndk/include_cpp/android/binder_to_string.h",
   "underlying_type" : "_ZTIj"
  },
  {
   "alignment" : 4,
   "enum_fields" :
   [
    {
     "enum_field_value" : 0,
     "name" : "android::internal::details::ToEmptyString<aidl::android::hardware::gnss::visibility_control::IGnssVisibilityControlCallback::NfwRequestor>::value"
    }
   ],
   "linker_set_key" : "_ZTIN7android8internal7details13ToEmptyStringIN4aidl7android8hardware4gnss18visibility_control30IGnssVisibilityControlCallback12NfwRequestorEE6$valueE",
   "name" : "android::internal::details::ToEmptyString<aidl::android::hardware::gnss::visibility_control::IGnssVisibilityControlCallback::NfwRequestor>::(unnamed enum at frameworks/native/libs/binder/ndk/include_cpp/android/binder_to_string.h:153:5)",
   "referenced_type" : "_ZTIN7android8internal7details13ToEmptyStringIN4aidl7android8hardware4gnss18visibility_control30IGnssVisibilityControlCallback12NfwRequestorEE6$valueE",
   "self_type" : "_ZTIN7android8internal7details13ToEmptyStringIN4aidl7android8hardware4gnss18visibility_control30IGnssVisibilityControlCallback12NfwRequestorEE6$valueE",
   "size" : 4,
   "source_file" : "frameworks/native/libs/binder/ndk/include_cpp/android/binder_to_string.h",
   "underlying_type" : "_ZTIj"
  },
  {
   "alignment" : 4,
   "enum_fields" :
   [
    {
     "enum_field_value" : 0,
     "name" : "android::internal::details::ToEmptyString<aidl::android::hardware::gnss::visibility_control::IGnssVisibilityControlCallback::NfwResponseType>::value"
    }
   ],
   "linker_set_key" : "_ZTIN7android8internal7details13ToEmptyStringIN4aidl7android8hardware4gnss18visibility_control30IGnssVisibilityControlCallback15NfwResponseTypeEE6$valueE",
   "name" : "android::internal::details::ToEmptyString<aidl::android::hardware::gnss::visibility_control::IGnssVisibilityControlCallback::NfwResponseType>::(unnamed enum at frameworks/native/libs/binder/ndk/include_cpp/android/binder_to_string.h:153:5)",
   "referenced_type" : "_ZTIN7android8internal7details13ToEmptyStringIN4aidl7android8hardware4gnss18visibility_control30IGnssVisibilityControlCallback15NfwResponseTypeEE6$valueE",
   "self_type" : "_ZTIN7android8internal7details13ToEmptyStringIN4aidl7android8hardware4gnss18visibility_control30IGnssVisibilityControlCallback15NfwResponseTypeEE6$valueE",
   "size" : 4,
   "source_file" : "frameworks/native/libs/binder/ndk/include_cpp/android/binder_to_string.h",
   "underlying_type" : "_ZTIj"
  },
  {
   "alignment" : 4,
   "enum_fields" :
   [
    {
     "enum_field_value" : 0,
     "name" : "android::internal::details::ToEmptyString<aidl::android::hardware::gnss::visibility_control::IGnssVisibilityControlCallback::NfwProtocolStack>::value"
    }
   ],
   "linker_set_key" : "_ZTIN7android8internal7details13ToEmptyStringIN4aidl7android8hardware4gnss18visibility_control30IGnssVisibilityControlCallback16NfwProtocolStackEE6$valueE",
   "name" : "android::internal::details::ToEmptyString<aidl::android::hardware::gnss::visibility_control::IGnssVisibilityControlCallback::NfwProtocolStack>::(unnamed enum at frameworks/native/libs/binder/ndk/include_cpp/android/binder_to_string.h:153:5)",
   "referenced_type" : "_ZTIN7android8internal7details13ToEmptyStringIN4aidl7android8hardware4gnss18visibility_control30IGnssVisibilityControlCallback16NfwProtocolStackEE6$valueE",
   "self_type" : "_ZTIN7android8internal7details13ToEmptyStringIN4aidl7android8hardware4gnss18visibility_control30IGnssVisibilityControlCallback16NfwProtocolStackEE6$valueE",
   "size" : 4,
   "source_file" : "frameworks/native/libs/binder/ndk/include_cpp/android/binder_to_string.h",
   "underlying_type" : "_ZTIj"
  },
  {
   "alignment" : 4,
   "enum_fields" :
   [
    {
     "enum_field_value" : 0,
     "name" : "android::internal::details::ToEmptyString<aidl::android::hardware::gnss::GnssConstellationType>::value"
    }
   ],
   "linker_set_key" : "_ZTIN7android8internal7details13ToEmptyStringIN4aidl7android8hardware4gnss21GnssConstellationTypeEE6$valueE",
   "name" : "android::internal::details::ToEmptyString<aidl::android::hardware::gnss::GnssConstellationType>::(unnamed enum at frameworks/native/libs/binder/ndk/include_cpp/android/binder_to_string.h:153:5)",
   "referenced_type" : "_ZTIN7android8internal7details13ToEmptyStringIN4aidl7android8hardware4gnss21GnssConstellationTypeEE6$valueE",
   "self_type" : "_ZTIN7android8internal7details13ToEmptyStringIN4aidl7android8hardware4gnss21GnssConstellationTypeEE6$valueE",
   "size" : 4,
   "source_file" : "frameworks/native/libs/binder/ndk/include_cpp/android/binder_to_string.h",
   "underlying_type" : "_ZTIj"
  },
  {
   "alignment" : 4,
   "enum_fields" :
   [
    {
     "enum_field_value" : 0,
     "name" : "android::internal::details::ToEmptyString<aidl::android::hardware::gnss::SatellitePositionEcef>::value"
    }
   ],
   "linker_set_key" : "_ZTIN7android8internal7details13ToEmptyStringIN4aidl7android8hardware4gnss21SatellitePositionEcefEE6$valueE",
   "name" : "android::internal::details::ToEmptyString<aidl::android::hardware::gnss::SatellitePositionEcef>::(unnamed enum at frameworks/native/libs/binder/ndk/include_cpp/android/binder_to_string.h:153:5)",
   "referenced_type" : "_ZTIN7android8internal7details13ToEmptyStringIN4aidl7android8hardware4gnss21SatellitePositionEcefEE6$valueE",
   "self_type" : "_ZTIN7android8internal7details13ToEmptyStringIN4aidl7android8hardware4gnss21SatellitePositionEcefEE6$valueE",
   "size" : 4,
   "source_file" : "frameworks/native/libs/binder/ndk/include_cpp/android/binder_to_string.h",
   "underlying_type" : "_ZTIj"
  },
  {
   "alignment" : 4,
   "enum_fields" :
   [
    {
     "enum_field_value" : 0,
     "name" : "android::internal::details::ToEmptyString<aidl::android::hardware::gnss::SatelliteVelocityEcef>::value"
    }
   ],
   "linker_set_key" : "_ZTIN7android8internal7details13ToEmptyStringIN4aidl7android8hardware4gnss21SatelliteVelocityEcefEE6$valueE",
   "name" : "android::internal::details::ToEmptyString<aidl::android::hardware::gnss::SatelliteVelocityEcef>::(unnamed enum at frameworks/native/libs/binder/ndk/include_cpp/android/binder_to_string.h:153:5)",
   "referenced_type" : "_ZTIN7android8internal7details13ToEmptyStringIN4aidl7android8hardware4gnss21SatelliteVelocityEcefEE6$valueE",
   "self_type" : "_ZTIN7android8internal7details13ToEmptyStringIN4aidl7android8hardware4gnss21SatelliteVelocityEcefEE6$valueE",
   "size" : 4,
   "source_file" : "frameworks/native/libs/binder/ndk/include_cpp/android/binder_to_string.h",
   "underlying_type" : "_ZTIj"
  },
  {
   "alignment" : 4,
   "enum_fields" :
   [
    {
     "enum_field_value" : 0,
     "name" : "android::internal::details::ToEmptyString<aidl::android::hardware::gnss::GnssMultipathIndicator>::value"
    }
   ],
   "linker_set_key" : "_ZTIN7android8internal7details13ToEmptyStringIN4aidl7android8hardware4gnss22GnssMultipathIndicatorEE6$valueE",
   "name" : "android::internal::details::ToEmptyString<aidl::android::hardware::gnss::GnssMultipathIndicator>::(unnamed enum at frameworks/native/libs/binder/ndk/include_cpp/android/binder_to_string.h:153:5)",
   "referenced_type" : "_ZTIN7android8internal7details13ToEmptyStringIN4aidl7android8hardware4gnss22GnssMultipathIndicatorEE6$valueE",
   "self_type" : "_ZTIN7android8internal7details13ToEmptyStringIN4aidl7android8hardware4gnss22GnssMultipathIndicatorEE6$valueE",
   "size" : 4,
   "source_file" : "frameworks/native/libs/binder/ndk/include_cpp/android/binder_to_string.h",
   "underlying_type" : "_ZTIj"
  },
  {
   "alignment" : 4,
   "enum_fields" :
   [
    {
     "enum_field_value" : 0,
     "name" : "android::internal::details::ToEmptyString<aidl::android::hardware::gnss::measurement_corrections::ReflectingPlane>::value"
    }
   ],
   "linker_set_key" : "_ZTIN7android8internal7details13ToEmptyStringIN4aidl7android8hardware4gnss23measurement_corrections15ReflectingPlaneEE6$valueE",
   "name" : "android::internal::details::ToEmptyString<aidl::android::hardware::gnss::measurement_corrections::ReflectingPlane>::(unnamed enum at frameworks/native/libs/binder/ndk/include_cpp/android/binder_to_string.h:153:5)",
   "referenced_type" : "_ZTIN7android8internal7details13ToEmptyStringIN4aidl7android8hardware4gnss23measurement_corrections15ReflectingPlaneEE6$valueE",
   "self_type" : "_ZTIN7android8internal7details13ToEmptyStringIN4aidl7android8hardware4gnss23measurement_corrections15ReflectingPlaneEE6$valueE",
   "size" : 4,
   "source_file" : "frameworks/native/libs/binder/ndk/include_cpp/android/binder_to_string.h",
   "underlying_type" : "_ZTIj"
  },
  {
   "alignment" : 4,
   "enum_fields" :
   [
    {
     "enum_field_value" : 0,
     "name" : "android::internal::details::ToEmptyString<aidl::android::hardware::gnss::measurement_corrections::SingleSatCorrection::ExcessPathInfo>::value"
    }
   ],
   "linker_set_key" : "_ZTIN7android8internal7details13ToEmptyStringIN4aidl7android8hardware4gnss23measurement_corrections19SingleSatCorrection14ExcessPathInfoEE6$valueE",
   "name" : "android::internal::details::ToEmptyString<aidl::android::hardware::gnss::measurement_corrections::SingleSatCorrection::ExcessPathInfo>::(unnamed enum at frameworks/native/libs/binder/ndk/include_cpp/android/binder_to_string.h:153:5)",
   "referenced_type" : "_ZTIN7android8internal7details13ToEmptyStringIN4aidl7android8hardware4gnss23measurement_corrections19SingleSatCorrection14ExcessPathInfoEE6$valueE",
   "self_type" : "_ZTIN7android8internal7details13ToEmptyStringIN4aidl7android8hardware4gnss23measurement_corrections19SingleSatCorrection14ExcessPathInfoEE6$valueE",
   "size" : 4,
   "source_file" : "frameworks/native/libs/binder/ndk/include_cpp/android/binder_to_string.h",
   "underlying_type" : "_ZTIj"
  },
  {
   "alignment" : 4,
   "enum_fields" :
   [
    {
     "enum_field_value" : 0,
     "name" : "android::internal::details::ToEmptyString<aidl::android::hardware::gnss::measurement_corrections::SingleSatCorrection>::value"
    }
   ],
   "linker_set_key" : "_ZTIN7android8internal7details13ToEmptyStringIN4aidl7android8hardware4gnss23measurement_corrections19SingleSatCorrectionEE6$valueE",
   "name" : "android::internal::details::ToEmptyString<aidl::android::hardware::gnss::measurement_corrections::SingleSatCorrection>::(unnamed enum at frameworks/native/libs/binder/ndk/include_cpp/android/binder_to_string.h:153:5)",
   "referenced_type" : "_ZTIN7android8internal7details13ToEmptyStringIN4aidl7android8hardware4gnss23measurement_corrections19SingleSatCorrectionEE6$valueE",
   "self_type" : "_ZTIN7android8internal7details13ToEmptyStringIN4aidl7android8hardware4gnss23measurement_corrections19SingleSatCorrectionEE6$valueE",
   "size" : 4,
   "source_file" : "frameworks/native/libs/binder/ndk/include_cpp/android/binder_to_string.h",
   "underlying_type" : "_ZTIj"
  },
  {
   "alignment" : 4,
   "enum_fields" :
   [
    {
     "enum_field_value" : 0,
     "name" : "android::internal::details::ToEmptyString<aidl::android::hardware::gnss::IGnssAntennaInfoCallback::Row>::value"
    }
   ],
   "linker_set_key" : "_ZTIN7android8internal7details13ToEmptyStringIN4aidl7android8hardware4gnss24IGnssAntennaInfoCallback3RowEE6$valueE",
   "name" : "android::internal::details::ToEmptyString<aidl::android::hardware::gnss::IGnssAntennaInfoCallback::Row>::(unnamed enum at frameworks/native/libs/binder/ndk/include_cpp/android/binder_to_string.h:153:5)",
   "referenced_type" : "_ZTIN7android8internal7details13ToEmptyStringIN4aidl7android8hardware4gnss24IGnssAntennaInfoCallback3RowEE6$valueE",
   "self_type" : "_ZTIN7android8internal7details13ToEmptyStringIN4aidl7android8hardware4gnss24IGnssAntennaInfoCallback3RowEE6$valueE",
   "size" : 4,
   "source_file" : "frameworks/native/libs/binder/ndk/include_cpp/android/binder_to_string.h",
   "underlying_type" : "_ZTIj"
  },
  {
   "alignment" : 4,
   "enum_fields" :
   [
    {
     "enum_field_value" : 0,
     "name" : "android::internal::details::ToEmptyString<aidl::android::hardware::gnss::IGnssAntennaInfoCallback::Coord>::value"
    }
   ],
   "linker_set_key" : "_ZTIN7android8internal7details13ToEmptyStringIN4aidl7android8hardware4gnss24IGnssAntennaInfoCallback5CoordEE6$valueE",
   "name" : "android::internal::details::ToEmptyString<aidl::android::hardware::gnss::IGnssAntennaInfoCallback::Coord>::(unnamed enum at frameworks/native/libs/binder/ndk/include_cpp/android/binder_to_string.h:153:5)",
   "referenced_type" : "_ZTIN7android8internal7details13ToEmptyStringIN4aidl7android8hardware4gnss24IGnssAntennaInfoCallback5CoordEE6$valueE",
   "self_type" : "_ZTIN7android8internal7details13ToEmptyStringIN4aidl7android8hardware4gnss24IGnssAntennaInfoCallback5CoordEE6$valueE",
   "size" : 4,
   "source_file" : "frameworks/native/libs/binder/ndk/include_cpp/android/binder_to_string.h",
   "underlying_type" : "_ZTIj"
  },
  {
   "alignment" : 4,
   "enum_fields" :
   [
    {
     "enum_field_value" : 0,
     "name" : "android::internal::details::ToEmptyString<aidl::android::hardware::gnss::IGnssNavigationMessageCallback::GnssNavigationMessage::GnssNavigationMessageType>::value"
    }
   ],
   "linker_set_key" : "_ZTIN7android8internal7details13ToEmptyStringIN4aidl7android8hardware4gnss30IGnssNavigationMessageCallback21GnssNavigationMessage25GnssNavigationMessageTypeEE6$valueE",
   "name" : "android::internal::details::ToEmptyString<aidl::android::hardware::gnss::IGnssNavigationMessageCallback::GnssNavigationMessage::GnssNavigationMessageType>::(unnamed enum at frameworks/native/libs/binder/ndk/include_cpp/android/binder_to_string.h:153:5)",
   "referenced_type" : "_ZTIN7android8internal7details13ToEmptyStringIN4aidl7android8hardware4gnss30IGnssNavigationMessageCallback21GnssNavigationMessage25GnssNavigationMessageTypeEE6$valueE",
   "self_type" : "_ZTIN7android8internal7details13ToEmptyStringIN4aidl7android8hardware4gnss30IGnssNavigationMessageCallback21GnssNavigationMessage25GnssNavigationMessageTypeEE6$valueE",
   "size" : 4,
   "source_file" : "frameworks/native/libs/binder/ndk/include_cpp/android/binder_to_string.h",
   "underlying_type" : "_ZTIj"
  },
  {
   "alignment" : 4,
   "enum_fields" :
   [
    {
     "enum_field_value" : 0,
     "name" : "android::internal::details::ToEmptyString<aidl::android::hardware::gnss::IGnss::GnssPositionMode>::value"
    }
   ],
   "linker_set_key" : "_ZTIN7android8internal7details13ToEmptyStringIN4aidl7android8hardware4gnss5IGnss16GnssPositionModeEE6$valueE",
   "name" : "android::internal::details::ToEmptyString<aidl::android::hardware::gnss::IGnss::GnssPositionMode>::(unnamed enum at frameworks/native/libs/binder/ndk/include_cpp/android/binder_to_string.h:153:5)",
   "referenced_type" : "_ZTIN7android8internal7details13ToEmptyStringIN4aidl7android8hardware4gnss5IGnss16GnssPositionModeEE6$valueE",
   "self_type" : "_ZTIN7android8internal7details13ToEmptyStringIN4aidl7android8hardware4gnss5IGnss16GnssPositionModeEE6$valueE",
   "size" : 4,
   "source_file" : "frameworks/native/libs/binder/ndk/include_cpp/android/binder_to_string.h",
   "underlying_type" : "_ZTIj"
  },
  {
   "alignment" : 4,
   "enum_fields" :
   [
    {
     "enum_field_value" : 0,
     "name" : "android::internal::details::ToEmptyString<aidl::android::hardware::gnss::IGnss::GnssPositionRecurrence>::value"
    }
   ],
   "linker_set_key" : "_ZTIN7android8internal7details13ToEmptyStringIN4aidl7android8hardware4gnss5IGnss22GnssPositionRecurrenceEE6$valueE",
   "name" : "android::internal::details::ToEmptyString<aidl::android::hardware::gnss::IGnss::GnssPositionRecurrence>::(unnamed enum at frameworks/native/libs/binder/ndk/include_cpp/android/binder_to_string.h:153:5)",
   "referenced_type" : "_ZTIN7android8internal7details13ToEmptyStringIN4aidl7android8hardware4gnss5IGnss22GnssPositionRecurrenceEE6$valueE",
   "self_type" : "_ZTIN7android8internal7details13ToEmptyStringIN4aidl7android8hardware4gnss5IGnss22GnssPositionRecurrenceEE6$valueE",
   "size" : 4,
   "source_file" : "frameworks/native/libs/binder/ndk/include_cpp/android/binder_to_string.h",
   "underlying_type" : "_ZTIj"
  },
  {
   "alignment" : 4,
   "enum_fields" :
   [
    {
     "enum_field_value" : 0,
     "name" : "android::internal::details::ToEmptyString<aidl::android::hardware::gnss::GnssData::GnssAgc>::value"
    }
   ],
   "linker_set_key" : "_ZTIN7android8internal7details13ToEmptyStringIN4aidl7android8hardware4gnss8GnssData7GnssAgcEE6$valueE",
   "name" : "android::internal::details::ToEmptyString<aidl::android::hardware::gnss::GnssData::GnssAgc>::(unnamed enum at frameworks/native/libs/binder/ndk/include_cpp/android/binder_to_string.h:153:5)",
   "referenced_type" : "_ZTIN7android8internal7details13ToEmptyStringIN4aidl7android8hardware4gnss8GnssData7GnssAgcEE6$valueE",
   "self_type" : "_ZTIN7android8internal7details13ToEmptyStringIN4aidl7android8hardware4gnss8GnssData7GnssAgcEE6$valueE",
   "size" : 4,
   "source_file" : "frameworks/native/libs/binder/ndk/include_cpp/android/binder_to_string.h",
   "underlying_type" : "_ZTIj"
  },
  {
   "alignment" : 4,
   "enum_fields" :
   [
    {
     "enum_field_value" : 0,
     "name" : "android::internal::details::ToEmptyString<aidl::android::hardware::gnss::GnssClock>::value"
    }
   ],
   "linker_set_key" : "_ZTIN7android8internal7details13ToEmptyStringIN4aidl7android8hardware4gnss9GnssClockEE6$valueE",
   "name" : "android::internal::details::ToEmptyString<aidl::android::hardware::gnss::GnssClock>::(unnamed enum at frameworks/native/libs/binder/ndk/include_cpp/android/binder_to_string.h:153:5)",
   "referenced_type" : "_ZTIN7android8internal7details13ToEmptyStringIN4aidl7android8hardware4gnss9GnssClockEE6$valueE",
   "self_type" : "_ZTIN7android8internal7details13ToEmptyStringIN4aidl7android8hardware4gnss9GnssClockEE6$valueE",
   "size" : 4,
   "source_file" : "frameworks/native/libs/binder/ndk/include_cpp/android/binder_to_string.h",
   "underlying_type" : "_ZTIj"
  },
  {
   "alignment" : 4,
   "enum_fields" :
   [
    {
     "enum_field_value" : 0,
     "name" : "android::internal::details::ToEmptyString<aidl::android::hardware::gnss::IAGnssRil::AGnssRefLocationType>::value"
    }
   ],
   "linker_set_key" : "_ZTIN7android8internal7details13ToEmptyStringIN4aidl7android8hardware4gnss9IAGnssRil20AGnssRefLocationTypeEE6$valueE",
   "name" : "android::internal::details::ToEmptyString<aidl::android::hardware::gnss::IAGnssRil::AGnssRefLocationType>::(unnamed enum at frameworks/native/libs/binder/ndk/include_cpp/android/binder_to_string.h:153:5)",
   "referenced_type" : "_ZTIN7android8internal7details13ToEmptyStringIN4aidl7android8hardware4gnss9IAGnssRil20AGnssRefLocationTypeEE6$valueE",
   "self_type" : "_ZTIN7android8internal7details13ToEmptyStringIN4aidl7android8hardware4gnss9IAGnssRil20AGnssRefLocationTypeEE6$valueE",
   "size" : 4,
   "source_file" : "frameworks/native/libs/binder/ndk/include_cpp/android/binder_to_string.h",
   "underlying_type" : "_ZTIj"
  },
  {
   "alignment" : 4,
   "enum_fields" :
   [
    {
     "enum_field_value" : 0,
     "name" : "android::internal::details::ToEmptyString<aidl::android::hardware::gnss::IAGnssRil::AGnssRefLocationCellID>::value"
    }
   ],
   "linker_set_key" : "_ZTIN7android8internal7details13ToEmptyStringIN4aidl7android8hardware4gnss9IAGnssRil22AGnssRefLocationCellIDEE6$valueE",
   "name" : "android::internal::details::ToEmptyString<aidl::android::hardware::gnss::IAGnssRil::AGnssRefLocationCellID>::(unnamed enum at frameworks/native/libs/binder/ndk/include_cpp/android/binder_to_string.h:153:5)",
   "referenced_type" : "_ZTIN7android8internal7details13ToEmptyStringIN4aidl7android8hardware4gnss9IAGnssRil22AGnssRefLocationCellIDEE6$valueE",
   "self_type" : "_ZTIN7android8internal7details13ToEmptyStringIN4aidl7android8hardware4gnss9IAGnssRil22AGnssRefLocationCellIDEE6$valueE",
   "size" : 4,
   "source_file" : "frameworks/native/libs/binder/ndk/include_cpp/android/binder_to_string.h",
   "underlying_type" : "_ZTIj"
  },
  {
   "alignment" : 4,
   "enum_fields" :
   [
    {
     "enum_field_value" : 0,
     "name" : "android::internal::details::ToEmptyString<std::basic_string<char>>::value"
    }
   ],
   "linker_set_key" : "_ZTIN7android8internal7details13ToEmptyStringINSt3__112basic_stringIcNS3_11char_traitsIcEENS3_9allocatorIcEEEEE6$valueE",
   "name" : "android::internal::details::ToEmptyString<std::basic_string<char, std::char_traits<char>, std::allocator<char>>>::(unnamed enum at frameworks/native/libs/binder/ndk/include_cpp/android/binder_to_string.h:153:5)",
   "referenced_type" : "_ZTIN7android8internal7details13ToEmptyStringINSt3__112basic_stringIcNS3_11char_traitsIcEENS3_9allocatorIcEEEEE6$valueE",
   "self_type" : "_ZTIN7android8internal7details13ToEmptyStringINSt3__112basic_stringIcNS3_11char_traitsIcEENS3_9allocatorIcEEEEE6$valueE",
   "size" : 4,
   "source_file" : "frameworks/native/libs/binder/ndk/include_cpp/android/binder_to_string.h",
   "underlying_type" : "_ZTIj"
  },
  {
   "alignment" : 4,
   "enum_fields" :
   [
    {
     "enum_field_value" : 0,
     "name" : "android::internal::details::ToEmptyString<std::vector<aidl::android::hardware::gnss::IGnssDebug::SatelliteData>>::value"
    }
   ],
   "linker_set_key" : "_ZTIN7android8internal7details13ToEmptyStringINSt3__16vectorIN4aidl7android8hardware4gnss10IGnssDebug13SatelliteDataENS3_9allocatorISA_EEEEE6$valueE",
   "name" : "android::internal::details::ToEmptyString<std::vector<aidl::android::hardware::gnss::IGnssDebug::SatelliteData, std::allocator<aidl::android::hardware::gnss::IGnssDebug::SatelliteData>>>::(unnamed enum at frameworks/native/libs/binder/ndk/include_cpp/android/binder_to_string.h:153:5)",
   "referenced_type" : "_ZTIN7android8internal7details13ToEmptyStringINSt3__16vectorIN4aidl7android8hardware4gnss10IGnssDebug13SatelliteDataENS3_9allocatorISA_EEEEE6$valueE",
   "self_type" : "_ZTIN7android8internal7details13ToEmptyStringINSt3__16vectorIN4aidl7android8hardware4gnss10IGnssDebug13SatelliteDataENS3_9allocatorISA_EEEEE6$valueE",
   "size" : 4,
   "source_file" : "frameworks/native/libs/binder/ndk/include_cpp/android/binder_to_string.h",
   "underlying_type" : "_ZTIj"
  },
  {
   "alignment" : 4,
   "enum_fields" :
   [
    {
     "enum_field_value" : 0,
     "name" : "android::internal::details::ToEmptyString<std::vector<aidl::android::hardware::gnss::GnssMeasurement>>::value"
    }
   ],
   "linker_set_key" : "_ZTIN7android8internal7details13ToEmptyStringINSt3__16vectorIN4aidl7android8hardware4gnss15GnssMeasurementENS3_9allocatorIS9_EEEEE6$valueE",
   "name" : "android::internal::details::ToEmptyString<std::vector<aidl::android::hardware::gnss::GnssMeasurement, std::allocator<aidl::android::hardware::gnss::GnssMeasurement>>>::(unnamed enum at frameworks/native/libs/binder/ndk/include_cpp/android/binder_to_string.h:153:5)",
   "referenced_type" : "_ZTIN7android8internal7details13ToEmptyStringINSt3__16vectorIN4aidl7android8hardware4gnss15GnssMeasurementENS3_9allocatorIS9_EEEEE6$valueE",
   "self_type" : "_ZTIN7android8internal7details13ToEmptyStringINSt3__16vectorIN4aidl7android8hardware4gnss15GnssMeasurementENS3_9allocatorIS9_EEEEE6$valueE",
   "size" : 4,
   "source_file" : "frameworks/native/libs/binder/ndk/include_cpp/android/binder_to_string.h",
   "underlying_type" : "_ZTIj"
  },
  {
   "alignment" : 4,
   "enum_fields" :
   [
    {
     "enum_field_value" : 0,
     "name" : "android::internal::details::ToEmptyString<std::vector<aidl::android::hardware::gnss::CorrelationVector>>::value"
    }
   ],
   "linker_set_key" : "_ZTIN7android8internal7details13ToEmptyStringINSt3__16vectorIN4aidl7android8hardware4gnss17CorrelationVectorENS3_9allocatorIS9_EEEEE6$valueE",
   "name" : "android::internal::details::ToEmptyString<std::vector<aidl::android::hardware::gnss::CorrelationVector, std::allocator<aidl::android::hardware::gnss::CorrelationVector>>>::(unnamed enum at frameworks/native/libs/binder/ndk/include_cpp/android/binder_to_string.h:153:5)",
   "referenced_type" : "_ZTIN7android8internal7details13ToEmptyStringINSt3__16vectorIN4aidl7android8hardware4gnss17CorrelationVectorENS3_9allocatorIS9_EEEEE6$valueE",
   "self_type" : "_ZTIN7android8internal7details13ToEmptyStringINSt3__16vectorIN4aidl7android8hardware4gnss17CorrelationVectorENS3_9allocatorIS9_EEEEE6$valueE",
   "size" : 4,
   "source_file" : "frameworks/native/libs/binder/ndk/include_cpp/android/binder_to_string.h",
   "underlying_type" : "_ZTIj"
  },
  {
   "alignment" : 4,
   "enum_fields" :
   [
    {
     "enum_field_value" : 0,
     "name" : "android::internal::details::ToEmptyString<std::vector<aidl::android::hardware::gnss::measurement_corrections::SingleSatCorrection::ExcessPathInfo>>::value"
    }
   ],
   "linker_set_key" : "_ZTIN7android8internal7details13ToEmptyStringINSt3__16vectorIN4aidl7android8hardware4gnss23measurement_corrections19SingleSatCorrection14ExcessPathInfoENS3_9allocatorISB_EEEEE6$valueE",
   "name" : "android::internal::details::ToEmptyString<std::vector<aidl::android::hardware::gnss::measurement_corrections::SingleSatCorrection::ExcessPathInfo, std::allocator<aidl::android::hardware::gnss::measurement_corrections::SingleSatCorrection::ExcessPathInfo>>>::(unnamed enum at frameworks/native/libs/binder/ndk/include_cpp/android/binder_to_string.h:153:5)",
   "referenced_type" : "_ZTIN7android8internal7details13ToEmptyStringINSt3__16vectorIN4aidl7android8hardware4gnss23measurement_corrections19SingleSatCorrection14ExcessPathInfoENS3_9allocatorISB_EEEEE6$valueE",
   "self_type" : "_ZTIN7android8internal7details13ToEmptyStringINSt3__16vectorIN4aidl7android8hardware4gnss23measurement_corrections19SingleSatCorrection14ExcessPathInfoENS3_9allocatorISB_EEEEE6$valueE",
   "size" : 4,
   "source_file" : "frameworks/native/libs/binder/ndk/include_cpp/android/binder_to_string.h",
   "underlying_type" : "_ZTIj"
  },
  {
   "alignment" : 4,
   "enum_fields" :
   [
    {
     "enum_field_value" : 0,
     "name" : "android::internal::details::ToEmptyString<std::vector<aidl::android::hardware::gnss::measurement_corrections::SingleSatCorrection>>::value"
    }
   ],
   "linker_set_key" : "_ZTIN7android8internal7details13ToEmptyStringINSt3__16vectorIN4aidl7android8hardware4gnss23measurement_corrections19SingleSatCorrectionENS3_9allocatorISA_EEEEE6$valueE",
   "name" : "android::internal::details::ToEmptyString<std::vector<aidl::android::hardware::gnss::measurement_corrections::SingleSatCorrection, std::allocator<aidl::android::hardware::gnss::measurement_corrections::SingleSatCorrection>>>::(unnamed enum at frameworks/native/libs/binder/ndk/include_cpp/android/binder_to_string.h:153:5)",
   "referenced_type" : "_ZTIN7android8internal7details13ToEmptyStringINSt3__16vectorIN4aidl7android8hardware4gnss23measurement_corrections19SingleSatCorrectionENS3_9allocatorISA_EEEEE6$valueE",
   "self_type" : "_ZTIN7android8internal7details13ToEmptyStringINSt3__16vectorIN4aidl7android8hardware4gnss23measurement_corrections19SingleSatCorrectionENS3_9allocatorISA_EEEEE6$valueE",
   "size" : 4,
   "source_file" : "frameworks/native/libs/binder/ndk/include_cpp/android/binder_to_string.h",
   "underlying_type" : "_ZTIj"
  },
  {
   "alignment" : 4,
   "enum_fields" :
   [
    {
     "enum_field_value" : 0,
     "name" : "android::internal::details::ToEmptyString<std::vector<aidl::android::hardware::gnss::IGnssAntennaInfoCallback::Row>>::value"
    }
   ],
   "linker_set_key" : "_ZTIN7android8internal7details13ToEmptyStringINSt3__16vectorIN4aidl7android8hardware4gnss24IGnssAntennaInfoCallback3RowENS3_9allocatorISA_EEEEE6$valueE",
   "name" : "android::internal::details::ToEmptyString<std::vector<aidl::android::hardware::gnss::IGnssAntennaInfoCallback::Row, std::allocator<aidl::android::hardware::gnss::IGnssAntennaInfoCallback::Row>>>::(unnamed enum at frameworks/native/libs/binder/ndk/include_cpp/android/binder_to_string.h:153:5)",
   "referenced_type" : "_ZTIN7android8internal7details13ToEmptyStringINSt3__16vectorIN4aidl7android8hardware4gnss24IGnssAntennaInfoCallback3RowENS3_9allocatorISA_EEEEE6$valueE",
   "self_type" : "_ZTIN7android8internal7details13ToEmptyStringINSt3__16vectorIN4aidl7android8hardware4gnss24IGnssAntennaInfoCallback3RowENS3_9allocatorISA_EEEEE6$valueE",
   "size" : 4,
   "source_file" : "frameworks/native/libs/binder/ndk/include_cpp/android/binder_to_string.h",
   "underlying_type" : "_ZTIj"
  },
  {
   "alignment" : 4,
   "enum_fields" :
   [
    {
     "enum_field_value" : 0,
     "name" : "android::internal::details::ToEmptyString<std::vector<aidl::android::hardware::gnss::GnssData::GnssAgc>>::value"
    }
   ],
   "linker_set_key" : "_ZTIN7android8internal7details13ToEmptyStringINSt3__16vectorIN4aidl7android8hardware4gnss8GnssData7GnssAgcENS3_9allocatorISA_EEEEE6$valueE",
   "name" : "android::internal::details::ToEmptyString<std::vector<aidl::android::hardware::gnss::GnssData::GnssAgc, std::allocator<aidl::android::hardware::gnss::GnssData::GnssAgc>>>::(unnamed enum at frameworks/native/libs/binder/ndk/include_cpp/android/binder_to_string.h:153:5)",
   "referenced_type" : "_ZTIN7android8internal7details13ToEmptyStringINSt3__16vectorIN4aidl7android8hardware4gnss8GnssData7GnssAgcENS3_9allocatorISA_EEEEE6$valueE",
   "self_type" : "_ZTIN7android8internal7details13ToEmptyStringINSt3__16vectorIN4aidl7android8hardware4gnss8GnssData7GnssAgcENS3_9allocatorISA_EEEEE6$valueE",
   "size" : 4,
   "source_file" : "frameworks/native/libs/binder/ndk/include_cpp/android/binder_to_string.h",
   "underlying_type" : "_ZTIj"
  },
  {
   "alignment" : 4,
   "enum_fields" :
   [
    {
     "enum_field_value" : 0,
     "name" : "android::internal::details::ToEmptyString<std::vector<double>>::value"
    }
   ],
   "linker_set_key" : "_ZTIN7android8internal7details13ToEmptyStringINSt3__16vectorIdNS3_9allocatorIdEEEEE6$valueE",
   "name" : "android::internal::details::ToEmptyString<std::vector<double, std::allocator<double>>>::(unnamed enum at frameworks/native/libs/binder/ndk/include_cpp/android/binder_to_string.h:153:5)",
   "referenced_type" : "_ZTIN7android8internal7details13ToEmptyStringINSt3__16vectorIdNS3_9allocatorIdEEEEE6$valueE",
   "self_type" : "_ZTIN7android8internal7details13ToEmptyStringINSt3__16vectorIdNS3_9allocatorIdEEEEE6$valueE",
   "size" : 4,
   "source_file" : "frameworks/native/libs/binder/ndk/include_cpp/android/binder_to_string.h",
   "underlying_type" : "_ZTIj"
  },
  {
   "alignment" : 4,
   "enum_fields" :
   [
    {
     "enum_field_value" : 0,
     "name" : "android::internal::details::ToEmptyString<std::vector<unsigned char>>::value"
    }
   ],
   "linker_set_key" : "_ZTIN7android8internal7details13ToEmptyStringINSt3__16vectorIhNS3_9allocatorIhEEEEE6$valueE",
   "name" : "android::internal::details::ToEmptyString<std::vector<unsigned char, std::allocator<unsigned char>>>::(unnamed enum at frameworks/native/libs/binder/ndk/include_cpp/android/binder_to_string.h:153:5)",
   "referenced_type" : "_ZTIN7android8internal7details13ToEmptyStringINSt3__16vectorIhNS3_9allocatorIhEEEEE6$valueE",
   "self_type" : "_ZTIN7android8internal7details13ToEmptyStringINSt3__16vectorIhNS3_9allocatorIhEEEEE6$valueE",
   "size" : 4,
   "source_file" : "frameworks/native/libs/binder/ndk/include_cpp/android/binder_to_string.h",
   "underlying_type" : "_ZTIj"
  },
  {
   "alignment" : 4,
   "enum_fields" :
   [
    {
     "enum_field_value" : 0,
     "name" : "android::internal::details::ToEmptyString<std::vector<int>>::value"
    }
   ],
   "linker_set_key" : "_ZTIN7android8internal7details13ToEmptyStringINSt3__16vectorIiNS3_9allocatorIiEEEEE6$valueE",
   "name" : "android::internal::details::ToEmptyString<std::vector<int, std::allocator<int>>>::(unnamed enum at frameworks/native/libs/binder/ndk/include_cpp/android/binder_to_string.h:153:5)",
   "referenced_type" : "_ZTIN7android8internal7details13ToEmptyStringINSt3__16vectorIiNS3_9allocatorIiEEEEE6$valueE",
   "self_type" : "_ZTIN7android8internal7details13ToEmptyStringINSt3__16vectorIiNS3_9allocatorIiEEEEE6$valueE",
   "size" : 4,
   "source_file" : "frameworks/native/libs/binder/ndk/include_cpp/android/binder_to_string.h",
   "underlying_type" : "_ZTIj"
  },
  {
   "alignment" : 4,
   "enum_fields" :
   [
    {
     "enum_field_value" : 0,
     "name" : "android::internal::details::ToEmptyString<bool>::value"
    }
   ],
   "linker_set_key" : "_ZTIN7android8internal7details13ToEmptyStringIbE6$valueE",
   "name" : "android::internal::details::ToEmptyString<bool>::(unnamed enum at frameworks/native/libs/binder/ndk/include_cpp/android/binder_to_string.h:153:5)",
   "referenced_type" : "_ZTIN7android8internal7details13ToEmptyStringIbE6$valueE",
   "self_type" : "_ZTIN7android8internal7details13ToEmptyStringIbE6$valueE",
   "size" : 4,
   "source_file" : "frameworks/native/libs/binder/ndk/include_cpp/android/binder_to_string.h",
   "underlying_type" : "_ZTIj"
  },
  {
   "alignment" : 4,
   "enum_fields" :
   [
    {
     "enum_field_value" : 0,
     "name" : "android::internal::details::ToEmptyString<double>::value"
    }
   ],
   "linker_set_key" : "_ZTIN7android8internal7details13ToEmptyStringIdE6$valueE",
   "name" : "android::internal::details::ToEmptyString<double>::(unnamed enum at frameworks/native/libs/binder/ndk/include_cpp/android/binder_to_string.h:153:5)",
   "referenced_type" : "_ZTIN7android8internal7details13ToEmptyStringIdE6$valueE",
   "self_type" : "_ZTIN7android8internal7details13ToEmptyStringIdE6$valueE",
   "size" : 4,
   "source_file" : "frameworks/native/libs/binder/ndk/include_cpp/android/binder_to_string.h",
   "underlying_type" : "_ZTIj"
  },
  {
   "alignment" : 4,
   "enum_fields" :
   [
    {
     "enum_field_value" : 0,
     "name" : "android::internal::details::ToEmptyString<float>::value"
    }
   ],
   "linker_set_key" : "_ZTIN7android8internal7details13ToEmptyStringIfE6$valueE",
   "name" : "android::internal::details::ToEmptyString<float>::(unnamed enum at frameworks/native/libs/binder/ndk/include_cpp/android/binder_to_string.h:153:5)",
   "referenced_type" : "_ZTIN7android8internal7details13ToEmptyStringIfE6$valueE",
   "self_type" : "_ZTIN7android8internal7details13ToEmptyStringIfE6$valueE",
   "size" : 4,
   "source_file" : "frameworks/native/libs/binder/ndk/include_cpp/android/binder_to_string.h",
   "underlying_type" : "_ZTIj"
  },
  {
   "alignment" : 4,
   "enum_fields" :
   [
    {
     "enum_field_value" : 0,
     "name" : "android::internal::details::ToEmptyString<unsigned char>::value"
    }
   ],
   "linker_set_key" : "_ZTIN7android8internal7details13ToEmptyStringIhE6$valueE",
   "name" : "android::internal::details::ToEmptyString<unsigned char>::(unnamed enum at frameworks/native/libs/binder/ndk/include_cpp/android/binder_to_string.h:153:5)",
   "referenced_type" : "_ZTIN7android8internal7details13ToEmptyStringIhE6$valueE",
   "self_type" : "_ZTIN7android8internal7details13ToEmptyStringIhE6$valueE",
   "size" : 4,
   "source_file" : "frameworks/native/libs/binder/ndk/include_cpp/android/binder_to_string.h",
   "underlying_type" : "_ZTIj"
  },
  {
   "alignment" : 4,
   "enum_fields" :
   [
    {
     "enum_field_value" : 0,
     "name" : "android::internal::details::ToEmptyString<int>::value"
    }
   ],
   "linker_set_key" : "_ZTIN7android8internal7details13ToEmptyStringIiE6$valueE",
   "name" : "android::internal::details::ToEmptyString<int>::(unnamed enum at frameworks/native/libs/binder/ndk/include_cpp/android/binder_to_string.h:153:5)",
   "referenced_type" : "_ZTIN7android8internal7details13ToEmptyStringIiE6$valueE",
   "self_type" : "_ZTIN7android8internal7details13ToEmptyStringIiE6$valueE",
   "size" : 4,
   "source_file" : "frameworks/native/libs/binder/ndk/include_cpp/android/binder_to_string.h",
   "underlying_type" : "_ZTIj"
  },
  {
   "alignment" : 4,
   "enum_fields" :
   [
    {
     "enum_field_value" : 0,
     "name" : "android::internal::details::ToEmptyString<long long>::value"
    }
   ],
   "linker_set_key" : "_ZTIN7android8internal7details13ToEmptyStringIxE6$valueE",
   "name" : "android::internal::details::ToEmptyString<long long>::(unnamed enum at frameworks/native/libs/binder/ndk/include_cpp/android/binder_to_string.h:153:5)",
   "referenced_type" : "_ZTIN7android8internal7details13ToEmptyStringIxE6$valueE",
   "self_type" : "_ZTIN7android8internal7details13ToEmptyStringIxE6$valueE",
   "size" : 4,
   "source_file" : "frameworks/native/libs/binder/ndk/include_cpp/android/binder_to_string.h",
   "underlying_type" : "_ZTIj"
  },
  {
   "alignment" : 4,
   "enum_fields" :
   [
    {
     "enum_field_value" : 1,
     "name" : "android::internal::details::HasToStringMethod<aidl::android::hardware::gnss::IGnssDebug::PositionDebug>::value"
    }
   ],
   "linker_set_key" : "_ZTIN7android8internal7details17HasToStringMethodIN4aidl7android8hardware4gnss10IGnssDebug13PositionDebugEE6$valueE",
   "name" : "android::internal::details::HasToStringMethod<aidl::android::hardware::gnss::IGnssDebug::PositionDebug>::(unnamed enum at frameworks/native/libs/binder/ndk/include_cpp/android/binder_to_string.h:77:5)",
   "referenced_type" : "_ZTIN7android8internal7details17HasToStringMethodIN4aidl7android8hardware4gnss10IGnssDebug13PositionDebugEE6$valueE",
   "self_type" : "_ZTIN7android8internal7details17HasToStringMethodIN4aidl7android8hardware4gnss10IGnssDebug13PositionDebugEE6$valueE",
   "size" : 4,
   "source_file" : "frameworks/native/libs/binder/ndk/include_cpp/android/binder_to_string.h",
   "underlying_type" : "_ZTIj"
  },
  {
   "alignment" : 4,
   "enum_fields" :
   [
    {
     "enum_field_value" : 1,
     "name" : "android::internal::details::HasToStringMethod<aidl::android::hardware::gnss::IGnssDebug::SatelliteData>::value"
    }
   ],
   "linker_set_key" : "_ZTIN7android8internal7details17HasToStringMethodIN4aidl7android8hardware4gnss10IGnssDebug13SatelliteDataEE6$valueE",
   "name" : "android::internal::details::HasToStringMethod<aidl::android::hardware::gnss::IGnssDebug::SatelliteData>::(unnamed enum at frameworks/native/libs/binder/ndk/include_cpp/android/binder_to_string.h:77:5)",
   "referenced_type" : "_ZTIN7android8internal7details17HasToStringMethodIN4aidl7android8hardware4gnss10IGnssDebug13SatelliteDataEE6$valueE",
   "self_type" : "_ZTIN7android8internal7details17HasToStringMethodIN4aidl7android8hardware4gnss10IGnssDebug13SatelliteDataEE6$valueE",
   "size" : 4,
   "source_file" : "frameworks/native/libs/binder/ndk/include_cpp/android/binder_to_string.h",
   "underlying_type" : "_ZTIj"
  },
  {
   "alignment" : 4,
   "enum_fields" :
   [
    {
     "enum_field_value" : 0,
     "name" : "android::internal::details::HasToStringMethod<aidl::android::hardware::gnss::IGnssDebug::SatelliteEphemerisType>::value"
    }
   ],
   "linker_set_key" : "_ZTIN7android8internal7details17HasToStringMethodIN4aidl7android8hardware4gnss10IGnssDebug22SatelliteEphemerisTypeEE6$valueE",
   "name" : "android::internal::details::HasToStringMethod<aidl::android::hardware::gnss::IGnssDebug::SatelliteEphemerisType>::(unnamed enum at frameworks/native/libs/binder/ndk/include_cpp/android/binder_to_string.h:77:5)",
   "referenced_type" : "_ZTIN7android8internal7details17HasToStringMethodIN4aidl7android8hardware4gnss10IGnssDebug22SatelliteEphemerisTypeEE6$valueE",
   "self_type" : "_ZTIN7android8internal7details17HasToStringMethodIN4aidl7android8hardware4gnss10IGnssDebug22SatelliteEphemerisTypeEE6$valueE",
   "size" : 4,
   "source_file" : "frameworks/native/libs/binder/ndk/include_cpp/android/binder_to_string.h",
   "underlying_type" : "_ZTIj"
  },
  {
   "alignment" : 4,
   "enum_fields" :
   [
    {
     "enum_field_value" : 0,
     "name" : "android::internal::details::HasToStringMethod<aidl::android::hardware::gnss::IGnssDebug::SatelliteEphemerisHealth>::value"
    }
   ],
   "linker_set_key" : "_ZTIN7android8internal7details17HasToStringMethodIN4aidl7android8hardware4gnss10IGnssDebug24SatelliteEphemerisHealthEE6$valueE",
   "name" : "android::internal::details::HasToStringMethod<aidl::android::hardware::gnss::IGnssDebug::SatelliteEphemerisHealth>::(unnamed enum at frameworks/native/libs/binder/ndk/include_cpp/android/binder_to_string.h:77:5)",
   "referenced_type" : "_ZTIN7android8internal7details17HasToStringMethodIN4aidl7android8hardware4gnss10IGnssDebug24SatelliteEphemerisHealthEE6$valueE",
   "self_type" : "_ZTIN7android8internal7details17HasToStringMethodIN4aidl7android8hardware4gnss10IGnssDebug24SatelliteEphemerisHealthEE6$valueE",
   "size" : 4,
   "source_file" : "frameworks/native/libs/binder/ndk/include_cpp/android/binder_to_string.h",
   "underlying_type" : "_ZTIj"
  },
  {
   "alignment" : 4,
   "enum_fields" :
   [
    {
     "enum_field_value" : 1,
     "name" : "android::internal::details::HasToStringMethod<aidl::android::hardware::gnss::IGnssDebug::TimeDebug>::value"
    }
   ],
   "linker_set_key" : "_ZTIN7android8internal7details17HasToStringMethodIN4aidl7android8hardware4gnss10IGnssDebug9TimeDebugEE6$valueE",
   "name" : "android::internal::details::HasToStringMethod<aidl::android::hardware::gnss::IGnssDebug::TimeDebug>::(unnamed enum at frameworks/native/libs/binder/ndk/include_cpp/android/binder_to_string.h:77:5)",
   "referenced_type" : "_ZTIN7android8internal7details17HasToStringMethodIN4aidl7android8hardware4gnss10IGnssDebug9TimeDebugEE6$valueE",
   "self_type" : "_ZTIN7android8internal7details17HasToStringMethodIN4aidl7android8hardware4gnss10IGnssDebug9TimeDebugEE6$valueE",
   "size" : 4,
   "source_file" : "frameworks/native/libs/binder/ndk/include_cpp/android/binder_to_string.h",
   "underlying_type" : "_ZTIj"
  },
  {
   "alignment" : 4,
   "enum_fields" :
   [
    {
     "enum_field_value" : 0,
     "name" : "android::internal::details::HasToStringMethod<aidl::android::hardware::gnss::SatellitePvt::SatelliteEphemerisSource>::value"
    }
   ],
   "linker_set_key" : "_ZTIN7android8internal7details17HasToStringMethodIN4aidl7android8hardware4gnss12SatellitePvt24SatelliteEphemerisSourceEE6$valueE",
   "name" : "android::internal::details::HasToStringMethod<aidl::android::hardware::gnss::SatellitePvt::SatelliteEphemerisSource>::(unnamed enum at frameworks/native/libs/binder/ndk/include_cpp/android/binder_to_string.h:77:5)",
   "referenced_type" : "_ZTIN7android8internal7details17HasToStringMethodIN4aidl7android8hardware4gnss12SatellitePvt24SatelliteEphemerisSourceEE6$valueE",
   "self_type" : "_ZTIN7android8internal7details17HasToStringMethodIN4aidl7android8hardware4gnss12SatellitePvt24SatelliteEphemerisSourceEE6$valueE",
   "size" : 4,
   "source_file" : "frameworks/native/libs/binder/ndk/include_cpp/android/binder_to_string.h",
   "underlying_type" : "_ZTIj"
  },
  {
   "alignment" : 4,
   "enum_fields" :
   [
    {
     "enum_field_value" : 1,
     "name" : "android::internal::details::HasToStringMethod<aidl::android::hardware::gnss::SatellitePvt>::value"
    }
   ],
   "linker_set_key" : "_ZTIN7android8internal7details17HasToStringMethodIN4aidl7android8hardware4gnss12SatellitePvtEE6$valueE",
   "name" : "android::internal::details::HasToStringMethod<aidl::android::hardware::gnss::SatellitePvt>::(unnamed enum at frameworks/native/libs/binder/ndk/include_cpp/android/binder_to_string.h:77:5)",
   "referenced_type" : "_ZTIN7android8internal7details17HasToStringMethodIN4aidl7android8hardware4gnss12SatellitePvtEE6$valueE",
   "self_type" : "_ZTIN7android8internal7details17HasToStringMethodIN4aidl7android8hardware4gnss12SatellitePvtEE6$valueE",
   "size" : 4,
   "source_file" : "frameworks/native/libs/binder/ndk/include_cpp/android/binder_to_string.h",
   "underlying_type" : "_ZTIj"
  },
  {
   "alignment" : 4,
   "enum_fields" :
   [
    {
     "enum_field_value" : 1,
     "name" : "android::internal::details::HasToStringMethod<aidl::android::hardware::gnss::GnssSignalType>::value"
    }
   ],
   "linker_set_key" : "_ZTIN7android8internal7details17HasToStringMethodIN4aidl7android8hardware4gnss14GnssSignalTypeEE6$valueE",
   "name" : "android::internal::details::HasToStringMethod<aidl::android::hardware::gnss::GnssSignalType>::(unnamed enum at frameworks/native/libs/binder/ndk/include_cpp/android/binder_to_string.h:77:5)",
   "referenced_type" : "_ZTIN7android8internal7details17HasToStringMethodIN4aidl7android8hardware4gnss14GnssSignalTypeEE6$valueE",
   "self_type" : "_ZTIN7android8internal7details17HasToStringMethodIN4aidl7android8hardware4gnss14GnssSignalTypeEE6$valueE",
   "size" : 4,
   "source_file" : "frameworks/native/libs/binder/ndk/include_cpp/android/binder_to_string.h",
   "underlying_type" : "_ZTIj"
  },
  {
   "alignment" : 4,
   "enum_fields" :
   [
    {
     "enum_field_value" : 1,
     "name" : "android::internal::details::HasToStringMethod<aidl::android::hardware::gnss::ElapsedRealtime>::value"
    }
   ],
   "linker_set_key" : "_ZTIN7android8internal7details17HasToStringMethodIN4aidl7android8hardware4gnss15ElapsedRealtimeEE6$valueE",
   "name" : "android::internal::details::HasToStringMethod<aidl::android::hardware::gnss::ElapsedRealtime>::(unnamed enum at frameworks/native/libs/binder/ndk/include_cpp/android/binder_to_string.h:77:5)",
   "referenced_type" : "_ZTIN7android8internal7details17HasToStringMethodIN4aidl7android8hardware4gnss15ElapsedRealtimeEE6$valueE",
   "self_type" : "_ZTIN7android8internal7details17HasToStringMethodIN4aidl7android8hardware4gnss15ElapsedRealtimeEE6$valueE",
   "size" : 4,
   "source_file" : "frameworks/native/libs/binder/ndk/include_cpp/android/binder_to_string.h",
   "underlying_type" : "_ZTIj"
  },
  {
   "alignment" : 4,
   "enum_fields" :
   [
    {
     "enum_field_value" : 1,
     "name" : "android::internal::details::HasToStringMethod<aidl::android::hardware::gnss::GnssMeasurement>::value"
    }
   ],
   "linker_set_key" : "_ZTIN7android8internal7details17HasToStringMethodIN4aidl7android8hardware4gnss15GnssMeasurementEE6$valueE",
   "name" : "android::internal::details::HasToStringMethod<aidl::android::hardware::gnss::GnssMeasurement>::(unnamed enum at frameworks/native/libs/binder/ndk/include_cpp/android/binder_to_string.h:77:5)",
   "referenced_type" : "_ZTIN7android8internal7details17HasToStringMethodIN4aidl7android8hardware4gnss15GnssMeasurementEE6$valueE",
   "self_type" : "_ZTIN7android8internal7details17HasToStringMethodIN4aidl7android8hardware4gnss15GnssMeasurementEE6$valueE",
   "size" : 4,
   "source_file" : "frameworks/native/libs/binder/ndk/include_cpp/android/binder_to_string.h",
   "underlying_type" : "_ZTIj"
  },
  {
   "alignment" : 4,
   "enum_fields" :
   [
    {
     "enum_field_value" : 1,
     "name" : "android::internal::details::HasToStringMethod<aidl::android::hardware::gnss::CorrelationVector>::value"
    }
   ],
   "linker_set_key" : "_ZTIN7android8internal7details17HasToStringMethodIN4aidl7android8hardware4gnss17CorrelationVectorEE6$valueE",
   "name" : "android::internal::details::HasToStringMethod<aidl::android::hardware::gnss::CorrelationVector>::(unnamed enum at frameworks/native/libs/binder/ndk/include_cpp/android/binder_to_string.h:77:5)",
   "referenced_type" : "_ZTIN7android8internal7details17HasToStringMethodIN4aidl7android8hardware4gnss17CorrelationVectorEE6$valueE",
   "self_type" : "_ZTIN7android8internal7details17HasToStringMethodIN4aidl7android8hardware4gnss17CorrelationVectorEE6$valueE",
   "size" : 4,
   "source_file" : "frameworks/native/libs/binder/ndk/include_cpp/android/binder_to_string.h",
   "underlying_type" : "_ZTIj"
  },
  {
   "alignment" : 4,
   "enum_fields" :
   [
    {
     "enum_field_value" : 1,
     "name" : "android::internal::details::HasToStringMethod<aidl::android::hardware::gnss::SatelliteClockInfo>::value"
    }
   ],
   "linker_set_key" : "_ZTIN7android8internal7details17HasToStringMethodIN4aidl7android8hardware4gnss18SatelliteClockInfoEE6$valueE",
   "name" : "android::internal::details::HasToStringMethod<aidl::android::hardware::gnss::SatelliteClockInfo>::(unnamed enum at frameworks/native/libs/binder/ndk/include_cpp/android/binder_to_string.h:77:5)",
   "referenced_type" : "_ZTIN7android8internal7details17HasToStringMethodIN4aidl7android8hardware4gnss18SatelliteClockInfoEE6$valueE",
   "self_type" : "_ZTIN7android8internal7details17HasToStringMethodIN4aidl7android8hardware4gnss18SatelliteClockInfoEE6$valueE",
   "size" : 4,
   "source_file" : "frameworks/native/libs/binder/ndk/include_cpp/android/binder_to_string.h",
   "underlying_type" : "_ZTIj"
  },
  {
   "alignment" : 4,
   "enum_fields" :
   [
    {
     "enum_field_value" : 0,
     "name" : "android::internal::details::HasToStringMethod<aidl::android::hardware::gnss::visibility_control::IGnssVisibilityControlCallback::NfwRequestor>::value"
    }
   ],
   "linker_set_key" : "_ZTIN7android8internal7details17HasToStringMethodIN4aidl7android8hardware4gnss18visibility_control30IGnssVisibilityControlCallback12NfwRequestorEE6$valueE",
   "name" : "android::internal::details::HasToStringMethod<aidl::android::hardware::gnss::visibility_control::IGnssVisibilityControlCallback::NfwRequestor>::(unnamed enum at frameworks/native/libs/binder/ndk/include_cpp/android/binder_to_string.h:77:5)",
   "referenced_type" : "_ZTIN7android8internal7details17HasToStringMethodIN4aidl7android8hardware4gnss18visibility_control30IGnssVisibilityControlCallback12NfwRequestorEE6$valueE",
   "self_type" : "_ZTIN7android8internal7details17HasToStringMethodIN4aidl7android8hardware4gnss18visibility_control30IGnssVisibilityControlCallback12NfwRequestorEE6$valueE",
   "size" : 4,
   "source_file" : "frameworks/native/libs/binder/ndk/include_cpp/android/binder_to_string.h",
   "underlying_type" : "_ZTIj"
  },
  {
   "alignment" : 4,
   "enum_fields" :
   [
    {
     "enum_field_value" : 0,
     "name" : "android::internal::details::HasToStringMethod<aidl::android::hardware::gnss::visibility_control::IGnssVisibilityControlCallback::NfwResponseType>::value"
    }
   ],
   "linker_set_key" : "_ZTIN7android8internal7details17HasToStringMethodIN4aidl7android8hardware4gnss18visibility_control30IGnssVisibilityControlCallback15NfwResponseTypeEE6$valueE",
   "name" : "android::internal::details::HasToStringMethod<aidl::android::hardware::gnss::visibility_control::IGnssVisibilityControlCallback::NfwResponseType>::(unnamed enum at frameworks/native/libs/binder/ndk/include_cpp/android/binder_to_string.h:77:5)",
   "referenced_type" : "_ZTIN7android8internal7details17HasToStringMethodIN4aidl7android8hardware4gnss18visibility_control30IGnssVisibilityControlCallback15NfwResponseTypeEE6$valueE",
   "self_type" : "_ZTIN7android8internal7details17HasToStringMethodIN4aidl7android8hardware4gnss18visibility_control30IGnssVisibilityControlCallback15NfwResponseTypeEE6$valueE",
   "size" : 4,
   "source_file" : "frameworks/native/libs/binder/ndk/include_cpp/android/binder_to_string.h",
   "underlying_type" : "_ZTIj"
  },
  {
   "alignment" : 4,
   "enum_fields" :
   [
    {
     "enum_field_value" : 0,
     "name" : "android::internal::details::HasToStringMethod<aidl::android::hardware::gnss::visibility_control::IGnssVisibilityControlCallback::NfwProtocolStack>::value"
    }
   ],
   "linker_set_key" : "_ZTIN7android8internal7details17HasToStringMethodIN4aidl7android8hardware4gnss18visibility_control30IGnssVisibilityControlCallback16NfwProtocolStackEE6$valueE",
   "name" : "android::internal::details::HasToStringMethod<aidl::android::hardware::gnss::visibility_control::IGnssVisibilityControlCallback::NfwProtocolStack>::(unnamed enum at frameworks/native/libs/binder/ndk/include_cpp/android/binder_to_string.h:77:5)",
   "referenced_type" : "_ZTIN7android8internal7details17HasToStringMethodIN4aidl7android8hardware4gnss18visibility_control30IGnssVisibilityControlCallback16NfwProtocolStackEE6$valueE",
   "self_type" : "_ZTIN7android8internal7details17HasToStringMethodIN4aidl7android8hardware4gnss18visibility_control30IGnssVisibilityControlCallback16NfwProtocolStackEE6$valueE",
   "size" : 4,
   "source_file" : "frameworks/native/libs/binder/ndk/include_cpp/android/binder_to_string.h",
   "underlying_type" : "_ZTIj"
  },
  {
   "alignment" : 4,
   "enum_fields" :
   [
    {
     "enum_field_value" : 0,
     "name" : "android::internal::details::HasToStringMethod<aidl::android::hardware::gnss::GnssConstellationType>::value"
    }
   ],
   "linker_set_key" : "_ZTIN7android8internal7details17HasToStringMethodIN4aidl7android8hardware4gnss21GnssConstellationTypeEE6$valueE",
   "name" : "android::internal::details::HasToStringMethod<aidl::android::hardware::gnss::GnssConstellationType>::(unnamed enum at frameworks/native/libs/binder/ndk/include_cpp/android/binder_to_string.h:77:5)",
   "referenced_type" : "_ZTIN7android8internal7details17HasToStringMethodIN4aidl7android8hardware4gnss21GnssConstellationTypeEE6$valueE",
   "self_type" : "_ZTIN7android8internal7details17HasToStringMethodIN4aidl7android8hardware4gnss21GnssConstellationTypeEE6$valueE",
   "size" : 4,
   "source_file" : "frameworks/native/libs/binder/ndk/include_cpp/android/binder_to_string.h",
   "underlying_type" : "_ZTIj"
  },
  {
   "alignment" : 4,
   "enum_fields" :
   [
    {
     "enum_field_value" : 1,
     "name" : "android::internal::details::HasToStringMethod<aidl::android::hardware::gnss::SatellitePositionEcef>::value"
    }
   ],
   "linker_set_key" : "_ZTIN7android8internal7details17HasToStringMethodIN4aidl7android8hardware4gnss21SatellitePositionEcefEE6$valueE",
   "name" : "android::internal::details::HasToStringMethod<aidl::android::hardware::gnss::SatellitePositionEcef>::(unnamed enum at frameworks/native/libs/binder/ndk/include_cpp/android/binder_to_string.h:77:5)",
   "referenced_type" : "_ZTIN7android8internal7details17HasToStringMethodIN4aidl7android8hardware4gnss21SatellitePositionEcefEE6$valueE",
   "self_type" : "_ZTIN7android8internal7details17HasToStringMethodIN4aidl7android8hardware4gnss21SatellitePositionEcefEE6$valueE",
   "size" : 4,
   "source_file" : "frameworks/native/libs/binder/ndk/include_cpp/android/binder_to_string.h",
   "underlying_type" : "_ZTIj"
  },
  {
   "alignment" : 4,
   "enum_fields" :
   [
    {
     "enum_field_value" : 1,
     "name" : "android::internal::details::HasToStringMethod<aidl::android::hardware::gnss::SatelliteVelocityEcef>::value"
    }
   ],
   "linker_set_key" : "_ZTIN7android8internal7details17HasToStringMethodIN4aidl7android8hardware4gnss21SatelliteVelocityEcefEE6$valueE",
   "name" : "android::internal::details::HasToStringMethod<aidl::android::hardware::gnss::SatelliteVelocityEcef>::(unnamed enum at frameworks/native/libs/binder/ndk/include_cpp/android/binder_to_string.h:77:5)",
   "referenced_type" : "_ZTIN7android8internal7details17HasToStringMethodIN4aidl7android8hardware4gnss21SatelliteVelocityEcefEE6$valueE",
   "self_type" : "_ZTIN7android8internal7details17HasToStringMethodIN4aidl7android8hardware4gnss21SatelliteVelocityEcefEE6$valueE",
   "size" : 4,
   "source_file" : "frameworks/native/libs/binder/ndk/include_cpp/android/binder_to_string.h",
   "underlying_type" : "_ZTIj"
  },
  {
   "alignment" : 4,
   "enum_fields" :
   [
    {
     "enum_field_value" : 0,
     "name" : "android::internal::details::HasToStringMethod<aidl::android::hardware::gnss::GnssMultipathIndicator>::value"
    }
   ],
   "linker_set_key" : "_ZTIN7android8internal7details17HasToStringMethodIN4aidl7android8hardware4gnss22GnssMultipathIndicatorEE6$valueE",
   "name" : "android::internal::details::HasToStringMethod<aidl::android::hardware::gnss::GnssMultipathIndicator>::(unnamed enum at frameworks/native/libs/binder/ndk/include_cpp/android/binder_to_string.h:77:5)",
   "referenced_type" : "_ZTIN7android8internal7details17HasToStringMethodIN4aidl7android8hardware4gnss22GnssMultipathIndicatorEE6$valueE",
   "self_type" : "_ZTIN7android8internal7details17HasToStringMethodIN4aidl7android8hardware4gnss22GnssMultipathIndicatorEE6$valueE",
   "size" : 4,
   "source_file" : "frameworks/native/libs/binder/ndk/include_cpp/android/binder_to_string.h",
   "underlying_type" : "_ZTIj"
  },
  {
   "alignment" : 4,
   "enum_fields" :
   [
    {
     "enum_field_value" : 1,
     "name" : "android::internal::details::HasToStringMethod<aidl::android::hardware::gnss::measurement_corrections::ReflectingPlane>::value"
    }
   ],
   "linker_set_key" : "_ZTIN7android8internal7details17HasToStringMethodIN4aidl7android8hardware4gnss23measurement_corrections15ReflectingPlaneEE6$valueE",
   "name" : "android::internal::details::HasToStringMethod<aidl::android::hardware::gnss::measurement_corrections::ReflectingPlane>::(unnamed enum at frameworks/native/libs/binder/ndk/include_cpp/android/binder_to_string.h:77:5)",
   "referenced_type" : "_ZTIN7android8internal7details17HasToStringMethodIN4aidl7android8hardware4gnss23measurement_corrections15ReflectingPlaneEE6$valueE",
   "self_type" : "_ZTIN7android8internal7details17HasToStringMethodIN4aidl7android8hardware4gnss23measurement_corrections15ReflectingPlaneEE6$valueE",
   "size" : 4,
   "source_file" : "frameworks/native/libs/binder/ndk/include_cpp/android/binder_to_string.h",
   "underlying_type" : "_ZTIj"
  },
  {
   "alignment" : 4,
   "enum_fields" :
   [
    {
     "enum_field_value" : 1,
     "name" : "android::internal::details::HasToStringMethod<aidl::android::hardware::gnss::measurement_corrections::SingleSatCorrection::ExcessPathInfo>::value"
    }
   ],
   "linker_set_key" : "_ZTIN7android8internal7details17HasToStringMethodIN4aidl7android8hardware4gnss23measurement_corrections19SingleSatCorrection14ExcessPathInfoEE6$valueE",
   "name" : "android::internal::details::HasToStringMethod<aidl::android::hardware::gnss::measurement_corrections::SingleSatCorrection::ExcessPathInfo>::(unnamed enum at frameworks/native/libs/binder/ndk/include_cpp/android/binder_to_string.h:77:5)",
   "referenced_type" : "_ZTIN7android8internal7details17HasToStringMethodIN4aidl7android8hardware4gnss23measurement_corrections19SingleSatCorrection14ExcessPathInfoEE6$valueE",
   "self_type" : "_ZTIN7android8internal7details17HasToStringMethodIN4aidl7android8hardware4gnss23measurement_corrections19SingleSatCorrection14ExcessPathInfoEE6$valueE",
   "size" : 4,
   "source_file" : "frameworks/native/libs/binder/ndk/include_cpp/android/binder_to_string.h",
   "underlying_type" : "_ZTIj"
  },
  {
   "alignment" : 4,
   "enum_fields" :
   [
    {
     "enum_field_value" : 1,
     "name" : "android::internal::details::HasToStringMethod<aidl::android::hardware::gnss::measurement_corrections::SingleSatCorrection>::value"
    }
   ],
   "linker_set_key" : "_ZTIN7android8internal7details17HasToStringMethodIN4aidl7android8hardware4gnss23measurement_corrections19SingleSatCorrectionEE6$valueE",
   "name" : "android::internal::details::HasToStringMethod<aidl::android::hardware::gnss::measurement_corrections::SingleSatCorrection>::(unnamed enum at frameworks/native/libs/binder/ndk/include_cpp/android/binder_to_string.h:77:5)",
   "referenced_type" : "_ZTIN7android8internal7details17HasToStringMethodIN4aidl7android8hardware4gnss23measurement_corrections19SingleSatCorrectionEE6$valueE",
   "self_type" : "_ZTIN7android8internal7details17HasToStringMethodIN4aidl7android8hardware4gnss23measurement_corrections19SingleSatCorrectionEE6$valueE",
   "size" : 4,
   "source_file" : "frameworks/native/libs/binder/ndk/include_cpp/android/binder_to_string.h",
   "underlying_type" : "_ZTIj"
  },
  {
   "alignment" : 4,
   "enum_fields" :
   [
    {
     "enum_field_value" : 1,
     "name" : "android::internal::details::HasToStringMethod<aidl::android::hardware::gnss::IGnssAntennaInfoCallback::Row>::value"
    }
   ],
   "linker_set_key" : "_ZTIN7android8internal7details17HasToStringMethodIN4aidl7android8hardware4gnss24IGnssAntennaInfoCallback3RowEE6$valueE",
   "name" : "android::internal::details::HasToStringMethod<aidl::android::hardware::gnss::IGnssAntennaInfoCallback::Row>::(unnamed enum at frameworks/native/libs/binder/ndk/include_cpp/android/binder_to_string.h:77:5)",
   "referenced_type" : "_ZTIN7android8internal7details17HasToStringMethodIN4aidl7android8hardware4gnss24IGnssAntennaInfoCallback3RowEE6$valueE",
   "self_type" : "_ZTIN7android8internal7details17HasToStringMethodIN4aidl7android8hardware4gnss24IGnssAntennaInfoCallback3RowEE6$valueE",
   "size" : 4,
   "source_file" : "frameworks/native/libs/binder/ndk/include_cpp/android/binder_to_string.h",
   "underlying_type" : "_ZTIj"
  },
  {
   "alignment" : 4,
   "enum_fields" :
   [
    {
     "enum_field_value" : 1,
     "name" : "android::internal::details::HasToStringMethod<aidl::android::hardware::gnss::IGnssAntennaInfoCallback::Coord>::value"
    }
   ],
   "linker_set_key" : "_ZTIN7android8internal7details17HasToStringMethodIN4aidl7android8hardware4gnss24IGnssAntennaInfoCallback5CoordEE6$valueE",
   "name" : "android::internal::details::HasToStringMethod<aidl::android::hardware::gnss::IGnssAntennaInfoCallback::Coord>::(unnamed enum at frameworks/native/libs/binder/ndk/include_cpp/android/binder_to_string.h:77:5)",
   "referenced_type" : "_ZTIN7android8internal7details17HasToStringMethodIN4aidl7android8hardware4gnss24IGnssAntennaInfoCallback5CoordEE6$valueE",
   "self_type" : "_ZTIN7android8internal7details17HasToStringMethodIN4aidl7android8hardware4gnss24IGnssAntennaInfoCallback5CoordEE6$valueE",
   "size" : 4,
   "source_file" : "frameworks/native/libs/binder/ndk/include_cpp/android/binder_to_string.h",
   "underlying_type" : "_ZTIj"
  },
  {
   "alignment" : 4,
   "enum_fields" :
   [
    {
     "enum_field_value" : 0,
     "name" : "android::internal::details::HasToStringMethod<aidl::android::hardware::gnss::IGnssNavigationMessageCallback::GnssNavigationMessage::GnssNavigationMessageType>::value"
    }
   ],
   "linker_set_key" : "_ZTIN7android8internal7details17HasToStringMethodIN4aidl7android8hardware4gnss30IGnssNavigationMessageCallback21GnssNavigationMessage25GnssNavigationMessageTypeEE6$valueE",
   "name" : "android::internal::details::HasToStringMethod<aidl::android::hardware::gnss::IGnssNavigationMessageCallback::GnssNavigationMessage::GnssNavigationMessageType>::(unnamed enum at frameworks/native/libs/binder/ndk/include_cpp/android/binder_to_string.h:77:5)",
   "referenced_type" : "_ZTIN7android8internal7details17HasToStringMethodIN4aidl7android8hardware4gnss30IGnssNavigationMessageCallback21GnssNavigationMessage25GnssNavigationMessageTypeEE6$valueE",
   "self_type" : "_ZTIN7android8internal7details17HasToStringMethodIN4aidl7android8hardware4gnss30IGnssNavigationMessageCallback21GnssNavigationMessage25GnssNavigationMessageTypeEE6$valueE",
   "size" : 4,
   "source_file" : "frameworks/native/libs/binder/ndk/include_cpp/android/binder_to_string.h",
   "underlying_type" : "_ZTIj"
  },
  {
   "alignment" : 4,
   "enum_fields" :
   [
    {
     "enum_field_value" : 0,
     "name" : "android::internal::details::HasToStringMethod<aidl::android::hardware::gnss::IGnss::GnssPositionMode>::value"
    }
   ],
   "linker_set_key" : "_ZTIN7android8internal7details17HasToStringMethodIN4aidl7android8hardware4gnss5IGnss16GnssPositionModeEE6$valueE",
   "name" : "android::internal::details::HasToStringMethod<aidl::android::hardware::gnss::IGnss::GnssPositionMode>::(unnamed enum at frameworks/native/libs/binder/ndk/include_cpp/android/binder_to_string.h:77:5)",
   "referenced_type" : "_ZTIN7android8internal7details17HasToStringMethodIN4aidl7android8hardware4gnss5IGnss16GnssPositionModeEE6$valueE",
   "self_type" : "_ZTIN7android8internal7details17HasToStringMethodIN4aidl7android8hardware4gnss5IGnss16GnssPositionModeEE6$valueE",
   "size" : 4,
   "source_file" : "frameworks/native/libs/binder/ndk/include_cpp/android/binder_to_string.h",
   "underlying_type" : "_ZTIj"
  },
  {
   "alignment" : 4,
   "enum_fields" :
   [
    {
     "enum_field_value" : 0,
     "name" : "android::internal::details::HasToStringMethod<aidl::android::hardware::gnss::IGnss::GnssPositionRecurrence>::value"
    }
   ],
   "linker_set_key" : "_ZTIN7android8internal7details17HasToStringMethodIN4aidl7android8hardware4gnss5IGnss22GnssPositionRecurrenceEE6$valueE",
   "name" : "android::internal::details::HasToStringMethod<aidl::android::hardware::gnss::IGnss::GnssPositionRecurrence>::(unnamed enum at frameworks/native/libs/binder/ndk/include_cpp/android/binder_to_string.h:77:5)",
   "referenced_type" : "_ZTIN7android8internal7details17HasToStringMethodIN4aidl7android8hardware4gnss5IGnss22GnssPositionRecurrenceEE6$valueE",
   "self_type" : "_ZTIN7android8internal7details17HasToStringMethodIN4aidl7android8hardware4gnss5IGnss22GnssPositionRecurrenceEE6$valueE",
   "size" : 4,
   "source_file" : "frameworks/native/libs/binder/ndk/include_cpp/android/binder_to_string.h",
   "underlying_type" : "_ZTIj"
  },
  {
   "alignment" : 4,
   "enum_fields" :
   [
    {
     "enum_field_value" : 1,
     "name" : "android::internal::details::HasToStringMethod<aidl::android::hardware::gnss::GnssData::GnssAgc>::value"
    }
   ],
   "linker_set_key" : "_ZTIN7android8internal7details17HasToStringMethodIN4aidl7android8hardware4gnss8GnssData7GnssAgcEE6$valueE",
   "name" : "android::internal::details::HasToStringMethod<aidl::android::hardware::gnss::GnssData::GnssAgc>::(unnamed enum at frameworks/native/libs/binder/ndk/include_cpp/android/binder_to_string.h:77:5)",
   "referenced_type" : "_ZTIN7android8internal7details17HasToStringMethodIN4aidl7android8hardware4gnss8GnssData7GnssAgcEE6$valueE",
   "self_type" : "_ZTIN7android8internal7details17HasToStringMethodIN4aidl7android8hardware4gnss8GnssData7GnssAgcEE6$valueE",
   "size" : 4,
   "source_file" : "frameworks/native/libs/binder/ndk/include_cpp/android/binder_to_string.h",
   "underlying_type" : "_ZTIj"
  },
  {
   "alignment" : 4,
   "enum_fields" :
   [
    {
     "enum_field_value" : 1,
     "name" : "android::internal::details::HasToStringMethod<aidl::android::hardware::gnss::GnssClock>::value"
    }
   ],
   "linker_set_key" : "_ZTIN7android8internal7details17HasToStringMethodIN4aidl7android8hardware4gnss9GnssClockEE6$valueE",
   "name" : "android::internal::details::HasToStringMethod<aidl::android::hardware::gnss::GnssClock>::(unnamed enum at frameworks/native/libs/binder/ndk/include_cpp/android/binder_to_string.h:77:5)",
   "referenced_type" : "_ZTIN7android8internal7details17HasToStringMethodIN4aidl7android8hardware4gnss9GnssClockEE6$valueE",
   "self_type" : "_ZTIN7android8internal7details17HasToStringMethodIN4aidl7android8hardware4gnss9GnssClockEE6$valueE",
   "size" : 4,
   "source_file" : "frameworks/native/libs/binder/ndk/include_cpp/android/binder_to_string.h",
   "underlying_type" : "_ZTIj"
  },
  {
   "alignment" : 4,
   "enum_fields" :
   [
    {
     "enum_field_value" : 0,
     "name" : "android::internal::details::HasToStringMethod<aidl::android::hardware::gnss::IAGnssRil::AGnssRefLocationType>::value"
    }
   ],
   "linker_set_key" : "_ZTIN7android8internal7details17HasToStringMethodIN4aidl7android8hardware4gnss9IAGnssRil20AGnssRefLocationTypeEE6$valueE",
   "name" : "android::internal::details::HasToStringMethod<aidl::android::hardware::gnss::IAGnssRil::AGnssRefLocationType>::(unnamed enum at frameworks/native/libs/binder/ndk/include_cpp/android/binder_to_string.h:77:5)",
   "referenced_type" : "_ZTIN7android8internal7details17HasToStringMethodIN4aidl7android8hardware4gnss9IAGnssRil20AGnssRefLocationTypeEE6$valueE",
   "self_type" : "_ZTIN7android8internal7details17HasToStringMethodIN4aidl7android8hardware4gnss9IAGnssRil20AGnssRefLocationTypeEE6$valueE",
   "size" : 4,
   "source_file" : "frameworks/native/libs/binder/ndk/include_cpp/android/binder_to_string.h",
   "underlying_type" : "_ZTIj"
  },
  {
   "alignment" : 4,
   "enum_fields" :
   [
    {
     "enum_field_value" : 1,
     "name" : "android::internal::details::HasToStringMethod<aidl::android::hardware::gnss::IAGnssRil::AGnssRefLocationCellID>::value"
    }
   ],
   "linker_set_key" : "_ZTIN7android8internal7details17HasToStringMethodIN4aidl7android8hardware4gnss9IAGnssRil22AGnssRefLocationCellIDEE6$valueE",
   "name" : "android::internal::details::HasToStringMethod<aidl::android::hardware::gnss::IAGnssRil::AGnssRefLocationCellID>::(unnamed enum at frameworks/native/libs/binder/ndk/include_cpp/android/binder_to_string.h:77:5)",
   "referenced_type" : "_ZTIN7android8internal7details17HasToStringMethodIN4aidl7android8hardware4gnss9IAGnssRil22AGnssRefLocationCellIDEE6$valueE",
   "self_type" : "_ZTIN7android8internal7details17HasToStringMethodIN4aidl7android8hardware4gnss9IAGnssRil22AGnssRefLocationCellIDEE6$valueE",
   "size" : 4,
   "source_file" : "frameworks/native/libs/binder/ndk/include_cpp/android/binder_to_string.h",
   "underlying_type" : "_ZTIj"
  },
  {
   "alignment" : 4,
   "enum_fields" :
   [
    {
     "enum_field_value" : 0,
     "name" : "android::internal::details::HasToStringMethod<std::vector<aidl::android::hardware::gnss::IGnssDebug::SatelliteData>>::value"
    }
   ],
   "linker_set_key" : "_ZTIN7android8internal7details17HasToStringMethodINSt3__16vectorIN4aidl7android8hardware4gnss10IGnssDebug13SatelliteDataENS3_9allocatorISA_EEEEE6$valueE",
   "name" : "android::internal::details::HasToStringMethod<std::vector<aidl::android::hardware::gnss::IGnssDebug::SatelliteData, std::allocator<aidl::android::hardware::gnss::IGnssDebug::SatelliteData>>>::(unnamed enum at frameworks/native/libs/binder/ndk/include_cpp/android/binder_to_string.h:77:5)",
   "referenced_type" : "_ZTIN7android8internal7details17HasToStringMethodINSt3__16vectorIN4aidl7android8hardware4gnss10IGnssDebug13SatelliteDataENS3_9allocatorISA_EEEEE6$valueE",
   "self_type" : "_ZTIN7android8internal7details17HasToStringMethodINSt3__16vectorIN4aidl7android8hardware4gnss10IGnssDebug13SatelliteDataENS3_9allocatorISA_EEEEE6$valueE",
   "size" : 4,
   "source_file" : "frameworks/native/libs/binder/ndk/include_cpp/android/binder_to_string.h",
   "underlying_type" : "_ZTIj"
  },
  {
   "alignment" : 4,
   "enum_fields" :
   [
    {
     "enum_field_value" : 0,
     "name" : "android::internal::details::HasToStringMethod<std::vector<aidl::android::hardware::gnss::GnssMeasurement>>::value"
    }
   ],
   "linker_set_key" : "_ZTIN7android8internal7details17HasToStringMethodINSt3__16vectorIN4aidl7android8hardware4gnss15GnssMeasurementENS3_9allocatorIS9_EEEEE6$valueE",
   "name" : "android::internal::details::HasToStringMethod<std::vector<aidl::android::hardware::gnss::GnssMeasurement, std::allocator<aidl::android::hardware::gnss::GnssMeasurement>>>::(unnamed enum at frameworks/native/libs/binder/ndk/include_cpp/android/binder_to_string.h:77:5)",
   "referenced_type" : "_ZTIN7android8internal7details17HasToStringMethodINSt3__16vectorIN4aidl7android8hardware4gnss15GnssMeasurementENS3_9allocatorIS9_EEEEE6$valueE",
   "self_type" : "_ZTIN7android8internal7details17HasToStringMethodINSt3__16vectorIN4aidl7android8hardware4gnss15GnssMeasurementENS3_9allocatorIS9_EEEEE6$valueE",
   "size" : 4,
   "source_file" : "frameworks/native/libs/binder/ndk/include_cpp/android/binder_to_string.h",
   "underlying_type" : "_ZTIj"
  },
  {
   "alignment" : 4,
   "enum_fields" :
   [
    {
     "enum_field_value" : 0,
     "name" : "android::internal::details::HasToStringMethod<std::vector<aidl::android::hardware::gnss::CorrelationVector>>::value"
    }
   ],
   "linker_set_key" : "_ZTIN7android8internal7details17HasToStringMethodINSt3__16vectorIN4aidl7android8hardware4gnss17CorrelationVectorENS3_9allocatorIS9_EEEEE6$valueE",
   "name" : "android::internal::details::HasToStringMethod<std::vector<aidl::android::hardware::gnss::CorrelationVector, std::allocator<aidl::android::hardware::gnss::CorrelationVector>>>::(unnamed enum at frameworks/native/libs/binder/ndk/include_cpp/android/binder_to_string.h:77:5)",
   "referenced_type" : "_ZTIN7android8internal7details17HasToStringMethodINSt3__16vectorIN4aidl7android8hardware4gnss17CorrelationVectorENS3_9allocatorIS9_EEEEE6$valueE",
   "self_type" : "_ZTIN7android8internal7details17HasToStringMethodINSt3__16vectorIN4aidl7android8hardware4gnss17CorrelationVectorENS3_9allocatorIS9_EEEEE6$valueE",
   "size" : 4,
   "source_file" : "frameworks/native/libs/binder/ndk/include_cpp/android/binder_to_string.h",
   "underlying_type" : "_ZTIj"
  },
  {
   "alignment" : 4,
   "enum_fields" :
   [
    {
     "enum_field_value" : 0,
     "name" : "android::internal::details::HasToStringMethod<std::vector<aidl::android::hardware::gnss::measurement_corrections::SingleSatCorrection::ExcessPathInfo>>::value"
    }
   ],
   "linker_set_key" : "_ZTIN7android8internal7details17HasToStringMethodINSt3__16vectorIN4aidl7android8hardware4gnss23measurement_corrections19SingleSatCorrection14ExcessPathInfoENS3_9allocatorISB_EEEEE6$valueE",
   "name" : "android::internal::details::HasToStringMethod<std::vector<aidl::android::hardware::gnss::measurement_corrections::SingleSatCorrection::ExcessPathInfo, std::allocator<aidl::android::hardware::gnss::measurement_corrections::SingleSatCorrection::ExcessPathInfo>>>::(unnamed enum at frameworks/native/libs/binder/ndk/include_cpp/android/binder_to_string.h:77:5)",
   "referenced_type" : "_ZTIN7android8internal7details17HasToStringMethodINSt3__16vectorIN4aidl7android8hardware4gnss23measurement_corrections19SingleSatCorrection14ExcessPathInfoENS3_9allocatorISB_EEEEE6$valueE",
   "self_type" : "_ZTIN7android8internal7details17HasToStringMethodINSt3__16vectorIN4aidl7android8hardware4gnss23measurement_corrections19SingleSatCorrection14ExcessPathInfoENS3_9allocatorISB_EEEEE6$valueE",
   "size" : 4,
   "source_file" : "frameworks/native/libs/binder/ndk/include_cpp/android/binder_to_string.h",
   "underlying_type" : "_ZTIj"
  },
  {
   "alignment" : 4,
   "enum_fields" :
   [
    {
     "enum_field_value" : 0,
     "name" : "android::internal::details::HasToStringMethod<std::vector<aidl::android::hardware::gnss::measurement_corrections::SingleSatCorrection>>::value"
    }
   ],
   "linker_set_key" : "_ZTIN7android8internal7details17HasToStringMethodINSt3__16vectorIN4aidl7android8hardware4gnss23measurement_corrections19SingleSatCorrectionENS3_9allocatorISA_EEEEE6$valueE",
   "name" : "android::internal::details::HasToStringMethod<std::vector<aidl::android::hardware::gnss::measurement_corrections::SingleSatCorrection, std::allocator<aidl::android::hardware::gnss::measurement_corrections::SingleSatCorrection>>>::(unnamed enum at frameworks/native/libs/binder/ndk/include_cpp/android/binder_to_string.h:77:5)",
   "referenced_type" : "_ZTIN7android8internal7details17HasToStringMethodINSt3__16vectorIN4aidl7android8hardware4gnss23measurement_corrections19SingleSatCorrectionENS3_9allocatorISA_EEEEE6$valueE",
   "self_type" : "_ZTIN7android8internal7details17HasToStringMethodINSt3__16vectorIN4aidl7android8hardware4gnss23measurement_corrections19SingleSatCorrectionENS3_9allocatorISA_EEEEE6$valueE",
   "size" : 4,
   "source_file" : "frameworks/native/libs/binder/ndk/include_cpp/android/binder_to_string.h",
   "underlying_type" : "_ZTIj"
  },
  {
   "alignment" : 4,
   "enum_fields" :
   [
    {
     "enum_field_value" : 0,
     "name" : "android::internal::details::HasToStringMethod<std::vector<aidl::android::hardware::gnss::IGnssAntennaInfoCallback::Row>>::value"
    }
   ],
   "linker_set_key" : "_ZTIN7android8internal7details17HasToStringMethodINSt3__16vectorIN4aidl7android8hardware4gnss24IGnssAntennaInfoCallback3RowENS3_9allocatorISA_EEEEE6$valueE",
   "name" : "android::internal::details::HasToStringMethod<std::vector<aidl::android::hardware::gnss::IGnssAntennaInfoCallback::Row, std::allocator<aidl::android::hardware::gnss::IGnssAntennaInfoCallback::Row>>>::(unnamed enum at frameworks/native/libs/binder/ndk/include_cpp/android/binder_to_string.h:77:5)",
   "referenced_type" : "_ZTIN7android8internal7details17HasToStringMethodINSt3__16vectorIN4aidl7android8hardware4gnss24IGnssAntennaInfoCallback3RowENS3_9allocatorISA_EEEEE6$valueE",
   "self_type" : "_ZTIN7android8internal7details17HasToStringMethodINSt3__16vectorIN4aidl7android8hardware4gnss24IGnssAntennaInfoCallback3RowENS3_9allocatorISA_EEEEE6$valueE",
   "size" : 4,
   "source_file" : "frameworks/native/libs/binder/ndk/include_cpp/android/binder_to_string.h",
   "underlying_type" : "_ZTIj"
  },
  {
   "alignment" : 4,
   "enum_fields" :
   [
    {
     "enum_field_value" : 0,
     "name" : "android::internal::details::HasToStringMethod<std::vector<aidl::android::hardware::gnss::GnssData::GnssAgc>>::value"
    }
   ],
   "linker_set_key" : "_ZTIN7android8internal7details17HasToStringMethodINSt3__16vectorIN4aidl7android8hardware4gnss8GnssData7GnssAgcENS3_9allocatorISA_EEEEE6$valueE",
   "name" : "android::internal::details::HasToStringMethod<std::vector<aidl::android::hardware::gnss::GnssData::GnssAgc, std::allocator<aidl::android::hardware::gnss::GnssData::GnssAgc>>>::(unnamed enum at frameworks/native/libs/binder/ndk/include_cpp/android/binder_to_string.h:77:5)",
   "referenced_type" : "_ZTIN7android8internal7details17HasToStringMethodINSt3__16vectorIN4aidl7android8hardware4gnss8GnssData7GnssAgcENS3_9allocatorISA_EEEEE6$valueE",
   "self_type" : "_ZTIN7android8internal7details17HasToStringMethodINSt3__16vectorIN4aidl7android8hardware4gnss8GnssData7GnssAgcENS3_9allocatorISA_EEEEE6$valueE",
   "size" : 4,
   "source_file" : "frameworks/native/libs/binder/ndk/include_cpp/android/binder_to_string.h",
   "underlying_type" : "_ZTIj"
  },
  {
   "alignment" : 4,
   "enum_fields" :
   [
    {
     "enum_field_value" : 0,
     "name" : "android::internal::details::HasToStringMethod<std::vector<double>>::value"
    }
   ],
   "linker_set_key" : "_ZTIN7android8internal7details17HasToStringMethodINSt3__16vectorIdNS3_9allocatorIdEEEEE6$valueE",
   "name" : "android::internal::details::HasToStringMethod<std::vector<double, std::allocator<double>>>::(unnamed enum at frameworks/native/libs/binder/ndk/include_cpp/android/binder_to_string.h:77:5)",
   "referenced_type" : "_ZTIN7android8internal7details17HasToStringMethodINSt3__16vectorIdNS3_9allocatorIdEEEEE6$valueE",
   "self_type" : "_ZTIN7android8internal7details17HasToStringMethodINSt3__16vectorIdNS3_9allocatorIdEEEEE6$valueE",
   "size" : 4,
   "source_file" : "frameworks/native/libs/binder/ndk/include_cpp/android/binder_to_string.h",
   "underlying_type" : "_ZTIj"
  },
  {
   "alignment" : 4,
   "enum_fields" :
   [
    {
     "enum_field_value" : 0,
     "name" : "android::internal::details::HasToStringMethod<std::vector<unsigned char>>::value"
    }
   ],
   "linker_set_key" : "_ZTIN7android8internal7details17HasToStringMethodINSt3__16vectorIhNS3_9allocatorIhEEEEE6$valueE",
   "name" : "android::internal::details::HasToStringMethod<std::vector<unsigned char, std::allocator<unsigned char>>>::(unnamed enum at frameworks/native/libs/binder/ndk/include_cpp/android/binder_to_string.h:77:5)",
   "referenced_type" : "_ZTIN7android8internal7details17HasToStringMethodINSt3__16vectorIhNS3_9allocatorIhEEEEE6$valueE",
   "self_type" : "_ZTIN7android8internal7details17HasToStringMethodINSt3__16vectorIhNS3_9allocatorIhEEEEE6$valueE",
   "size" : 4,
   "source_file" : "frameworks/native/libs/binder/ndk/include_cpp/android/binder_to_string.h",
   "underlying_type" : "_ZTIj"
  },
  {
   "alignment" : 4,
   "enum_fields" :
   [
    {
     "enum_field_value" : 0,
     "name" : "android::internal::details::HasToStringMethod<std::vector<int>>::value"
    }
   ],
   "linker_set_key" : "_ZTIN7android8internal7details17HasToStringMethodINSt3__16vectorIiNS3_9allocatorIiEEEEE6$valueE",
   "name" : "android::internal::details::HasToStringMethod<std::vector<int, std::allocator<int>>>::(unnamed enum at frameworks/native/libs/binder/ndk/include_cpp/android/binder_to_string.h:77:5)",
   "referenced_type" : "_ZTIN7android8internal7details17HasToStringMethodINSt3__16vectorIiNS3_9allocatorIiEEEEE6$valueE",
   "self_type" : "_ZTIN7android8internal7details17HasToStringMethodINSt3__16vectorIiNS3_9allocatorIiEEEEE6$valueE",
   "size" : 4,
   "source_file" : "frameworks/native/libs/binder/ndk/include_cpp/android/binder_to_string.h",
   "underlying_type" : "_ZTIj"
  },
  {
   "alignment" : 4,
   "enum_fields" :
   [
    {
     "enum_field_value" : 1,
     "name" : "android::internal::details::HasToStringFunction<aidl::android::hardware::gnss::IGnssDebug::SatelliteEphemerisType>::value"
    }
   ],
   "linker_set_key" : "_ZTIN7android8internal7details19HasToStringFunctionIN4aidl7android8hardware4gnss10IGnssDebug22SatelliteEphemerisTypeEE6$valueE",
   "name" : "android::internal::details::HasToStringFunction<aidl::android::hardware::gnss::IGnssDebug::SatelliteEphemerisType>::(unnamed enum at frameworks/native/libs/binder/ndk/include_cpp/android/binder_to_string.h:89:5)",
   "referenced_type" : "_ZTIN7android8internal7details19HasToStringFunctionIN4aidl7android8hardware4gnss10IGnssDebug22SatelliteEphemerisTypeEE6$valueE",
   "self_type" : "_ZTIN7android8internal7details19HasToStringFunctionIN4aidl7android8hardware4gnss10IGnssDebug22SatelliteEphemerisTypeEE6$valueE",
   "size" : 4,
   "source_file" : "frameworks/native/libs/binder/ndk/include_cpp/android/binder_to_string.h",
   "underlying_type" : "_ZTIj"
  },
  {
   "alignment" : 4,
   "enum_fields" :
   [
    {
     "enum_field_value" : 1,
     "name" : "android::internal::details::HasToStringFunction<aidl::android::hardware::gnss::IGnssDebug::SatelliteEphemerisHealth>::value"
    }
   ],
   "linker_set_key" : "_ZTIN7android8internal7details19HasToStringFunctionIN4aidl7android8hardware4gnss10IGnssDebug24SatelliteEphemerisHealthEE6$valueE",
   "name" : "android::internal::details::HasToStringFunction<aidl::android::hardware::gnss::IGnssDebug::SatelliteEphemerisHealth>::(unnamed enum at frameworks/native/libs/binder/ndk/include_cpp/android/binder_to_string.h:89:5)",
   "referenced_type" : "_ZTIN7android8internal7details19HasToStringFunctionIN4aidl7android8hardware4gnss10IGnssDebug24SatelliteEphemerisHealthEE6$valueE",
   "self_type" : "_ZTIN7android8internal7details19HasToStringFunctionIN4aidl7android8hardware4gnss10IGnssDebug24SatelliteEphemerisHealthEE6$valueE",
   "size" : 4,
   "source_file" : "frameworks/native/libs/binder/ndk/include_cpp/android/binder_to_string.h",
   "underlying_type" : "_ZTIj"
  },
  {
   "alignment" : 4,
   "enum_fields" :
   [
    {
     "enum_field_value" : 1,
     "name" : "android::internal::details::HasToStringFunction<aidl::android::hardware::gnss::SatellitePvt::SatelliteEphemerisSource>::value"
    }
   ],
   "linker_set_key" : "_ZTIN7android8internal7details19HasToStringFunctionIN4aidl7android8hardware4gnss12SatellitePvt24SatelliteEphemerisSourceEE6$valueE",
   "name" : "android::internal::details::HasToStringFunction<aidl::android::hardware::gnss::SatellitePvt::SatelliteEphemerisSource>::(unnamed enum at frameworks/native/libs/binder/ndk/include_cpp/android/binder_to_string.h:89:5)",
   "referenced_type" : "_ZTIN7android8internal7details19HasToStringFunctionIN4aidl7android8hardware4gnss12SatellitePvt24SatelliteEphemerisSourceEE6$valueE",
   "self_type" : "_ZTIN7android8internal7details19HasToStringFunctionIN4aidl7android8hardware4gnss12SatellitePvt24SatelliteEphemerisSourceEE6$valueE",
   "size" : 4,
   "source_file" : "frameworks/native/libs/binder/ndk/include_cpp/android/binder_to_string.h",
   "underlying_type" : "_ZTIj"
  },
  {
   "alignment" : 4,
   "enum_fields" :
   [
    {
     "enum_field_value" : 1,
     "name" : "android::internal::details::HasToStringFunction<aidl::android::hardware::gnss::visibility_control::IGnssVisibilityControlCallback::NfwRequestor>::value"
    }
   ],
   "linker_set_key" : "_ZTIN7android8internal7details19HasToStringFunctionIN4aidl7android8hardware4gnss18visibility_control30IGnssVisibilityControlCallback12NfwRequestorEE6$valueE",
   "name" : "android::internal::details::HasToStringFunction<aidl::android::hardware::gnss::visibility_control::IGnssVisibilityControlCallback::NfwRequestor>::(unnamed enum at frameworks/native/libs/binder/ndk/include_cpp/android/binder_to_string.h:89:5)",
   "referenced_type" : "_ZTIN7android8internal7details19HasToStringFunctionIN4aidl7android8hardware4gnss18visibility_control30IGnssVisibilityControlCallback12NfwRequestorEE6$valueE",
   "self_type" : "_ZTIN7android8internal7details19HasToStringFunctionIN4aidl7android8hardware4gnss18visibility_control30IGnssVisibilityControlCallback12NfwRequestorEE6$valueE",
   "size" : 4,
   "source_file" : "frameworks/native/libs/binder/ndk/include_cpp/android/binder_to_string.h",
   "underlying_type" : "_ZTIj"
  },
  {
   "alignment" : 4,
   "enum_fields" :
   [
    {
     "enum_field_value" : 1,
     "name" : "android::internal::details::HasToStringFunction<aidl::android::hardware::gnss::visibility_control::IGnssVisibilityControlCallback::NfwResponseType>::value"
    }
   ],
   "linker_set_key" : "_ZTIN7android8internal7details19HasToStringFunctionIN4aidl7android8hardware4gnss18visibility_control30IGnssVisibilityControlCallback15NfwResponseTypeEE6$valueE",
   "name" : "android::internal::details::HasToStringFunction<aidl::android::hardware::gnss::visibility_control::IGnssVisibilityControlCallback::NfwResponseType>::(unnamed enum at frameworks/native/libs/binder/ndk/include_cpp/android/binder_to_string.h:89:5)",
   "referenced_type" : "_ZTIN7android8internal7details19HasToStringFunctionIN4aidl7android8hardware4gnss18visibility_control30IGnssVisibilityControlCallback15NfwResponseTypeEE6$valueE",
   "self_type" : "_ZTIN7android8internal7details19HasToStringFunctionIN4aidl7android8hardware4gnss18visibility_control30IGnssVisibilityControlCallback15NfwResponseTypeEE6$valueE",
   "size" : 4,
   "source_file" : "frameworks/native/libs/binder/ndk/include_cpp/android/binder_to_string.h",
   "underlying_type" : "_ZTIj"
  },
  {
   "alignment" : 4,
   "enum_fields" :
   [
    {
     "enum_field_value" : 1,
     "name" : "android::internal::details::HasToStringFunction<aidl::android::hardware::gnss::visibility_control::IGnssVisibilityControlCallback::NfwProtocolStack>::value"
    }
   ],
   "linker_set_key" : "_ZTIN7android8internal7details19HasToStringFunctionIN4aidl7android8hardware4gnss18visibility_control30IGnssVisibilityControlCallback16NfwProtocolStackEE6$valueE",
   "name" : "android::internal::details::HasToStringFunction<aidl::android::hardware::gnss::visibility_control::IGnssVisibilityControlCallback::NfwProtocolStack>::(unnamed enum at frameworks/native/libs/binder/ndk/include_cpp/android/binder_to_string.h:89:5)",
   "referenced_type" : "_ZTIN7android8internal7details19HasToStringFunctionIN4aidl7android8hardware4gnss18visibility_control30IGnssVisibilityControlCallback16NfwProtocolStackEE6$valueE",
   "self_type" : "_ZTIN7android8internal7details19HasToStringFunctionIN4aidl7android8hardware4gnss18visibility_control30IGnssVisibilityControlCallback16NfwProtocolStackEE6$valueE",
   "size" : 4,
   "source_file" : "frameworks/native/libs/binder/ndk/include_cpp/android/binder_to_string.h",
   "underlying_type" : "_ZTIj"
  },
  {
   "alignment" : 4,
   "enum_fields" :
   [
    {
     "enum_field_value" : 1,
     "name" : "android::internal::details::HasToStringFunction<aidl::android::hardware::gnss::GnssConstellationType>::value"
    }
   ],
   "linker_set_key" : "_ZTIN7android8internal7details19HasToStringFunctionIN4aidl7android8hardware4gnss21GnssConstellationTypeEE6$valueE",
   "name" : "android::internal::details::HasToStringFunction<aidl::android::hardware::gnss::GnssConstellationType>::(unnamed enum at frameworks/native/libs/binder/ndk/include_cpp/android/binder_to_string.h:89:5)",
   "referenced_type" : "_ZTIN7android8internal7details19HasToStringFunctionIN4aidl7android8hardware4gnss21GnssConstellationTypeEE6$valueE",
   "self_type" : "_ZTIN7android8internal7details19HasToStringFunctionIN4aidl7android8hardware4gnss21GnssConstellationTypeEE6$valueE",
   "size" : 4,
   "source_file" : "frameworks/native/libs/binder/ndk/include_cpp/android/binder_to_string.h",
   "underlying_type" : "_ZTIj"
  },
  {
   "alignment" : 4,
   "enum_fields" :
   [
    {
     "enum_field_value" : 1,
     "name" : "android::internal::details::HasToStringFunction<aidl::android::hardware::gnss::GnssMultipathIndicator>::value"
    }
   ],
   "linker_set_key" : "_ZTIN7android8internal7details19HasToStringFunctionIN4aidl7android8hardware4gnss22GnssMultipathIndicatorEE6$valueE",
   "name" : "android::internal::details::HasToStringFunction<aidl::android::hardware::gnss::GnssMultipathIndicator>::(unnamed enum at frameworks/native/libs/binder/ndk/include_cpp/android/binder_to_string.h:89:5)",
   "referenced_type" : "_ZTIN7android8internal7details19HasToStringFunctionIN4aidl7android8hardware4gnss22GnssMultipathIndicatorEE6$valueE",
   "self_type" : "_ZTIN7android8internal7details19HasToStringFunctionIN4aidl7android8hardware4gnss22GnssMultipathIndicatorEE6$valueE",
   "size" : 4,
   "source_file" : "frameworks/native/libs/binder/ndk/include_cpp/android/binder_to_string.h",
   "underlying_type" : "_ZTIj"
  },
  {
   "alignment" : 4,
   "enum_fields" :
   [
    {
     "enum_field_value" : 1,
     "name" : "android::internal::details::HasToStringFunction<aidl::android::hardware::gnss::IGnssNavigationMessageCallback::GnssNavigationMessage::GnssNavigationMessageType>::value"
    }
   ],
   "linker_set_key" : "_ZTIN7android8internal7details19HasToStringFunctionIN4aidl7android8hardware4gnss30IGnssNavigationMessageCallback21GnssNavigationMessage25GnssNavigationMessageTypeEE6$valueE",
   "name" : "android::internal::details::HasToStringFunction<aidl::android::hardware::gnss::IGnssNavigationMessageCallback::GnssNavigationMessage::GnssNavigationMessageType>::(unnamed enum at frameworks/native/libs/binder/ndk/include_cpp/android/binder_to_string.h:89:5)",
   "referenced_type" : "_ZTIN7android8internal7details19HasToStringFunctionIN4aidl7android8hardware4gnss30IGnssNavigationMessageCallback21GnssNavigationMessage25GnssNavigationMessageTypeEE6$valueE",
   "self_type" : "_ZTIN7android8internal7details19HasToStringFunctionIN4aidl7android8hardware4gnss30IGnssNavigationMessageCallback21GnssNavigationMessage25GnssNavigationMessageTypeEE6$valueE",
   "size" : 4,
   "source_file" : "frameworks/native/libs/binder/ndk/include_cpp/android/binder_to_string.h",
   "underlying_type" : "_ZTIj"
  },
  {
   "alignment" : 4,
   "enum_fields" :
   [
    {
     "enum_field_value" : 1,
     "name" : "android::internal::details::HasToStringFunction<aidl::android::hardware::gnss::IGnss::GnssPositionMode>::value"
    }
   ],
   "linker_set_key" : "_ZTIN7android8internal7details19HasToStringFunctionIN4aidl7android8hardware4gnss5IGnss16GnssPositionModeEE6$valueE",
   "name" : "android::internal::details::HasToStringFunction<aidl::android::hardware::gnss::IGnss::GnssPositionMode>::(unnamed enum at frameworks/native/libs/binder/ndk/include_cpp/android/binder_to_string.h:89:5)",
   "referenced_type" : "_ZTIN7android8internal7details19HasToStringFunctionIN4aidl7android8hardware4gnss5IGnss16GnssPositionModeEE6$valueE",
   "self_type" : "_ZTIN7android8internal7details19HasToStringFunctionIN4aidl7android8hardware4gnss5IGnss16GnssPositionModeEE6$valueE",
   "size" : 4,
   "source_file" : "frameworks/native/libs/binder/ndk/include_cpp/android/binder_to_string.h",
   "underlying_type" : "_ZTIj"
  },
  {
   "alignment" : 4,
   "enum_fields" :
   [
    {
     "enum_field_value" : 1,
     "name" : "android::internal::details::HasToStringFunction<aidl::android::hardware::gnss::IGnss::GnssPositionRecurrence>::value"
    }
   ],
   "linker_set_key" : "_ZTIN7android8internal7details19HasToStringFunctionIN4aidl7android8hardware4gnss5IGnss22GnssPositionRecurrenceEE6$valueE",
   "name" : "android::internal::details::HasToStringFunction<aidl::android::hardware::gnss::IGnss::GnssPositionRecurrence>::(unnamed enum at frameworks/native/libs/binder/ndk/include_cpp/android/binder_to_string.h:89:5)",
   "referenced_type" : "_ZTIN7android8internal7details19HasToStringFunctionIN4aidl7android8hardware4gnss5IGnss22GnssPositionRecurrenceEE6$valueE",
   "self_type" : "_ZTIN7android8internal7details19HasToStringFunctionIN4aidl7android8hardware4gnss5IGnss22GnssPositionRecurrenceEE6$valueE",
   "size" : 4,
   "source_file" : "frameworks/native/libs/binder/ndk/include_cpp/android/binder_to_string.h",
   "underlying_type" : "_ZTIj"
  },
  {
   "alignment" : 4,
   "enum_fields" :
   [
    {
     "enum_field_value" : 1,
     "name" : "android::internal::details::HasToStringFunction<aidl::android::hardware::gnss::IAGnssRil::AGnssRefLocationType>::value"
    }
   ],
   "linker_set_key" : "_ZTIN7android8internal7details19HasToStringFunctionIN4aidl7android8hardware4gnss9IAGnssRil20AGnssRefLocationTypeEE6$valueE",
   "name" : "android::internal::details::HasToStringFunction<aidl::android::hardware::gnss::IAGnssRil::AGnssRefLocationType>::(unnamed enum at frameworks/native/libs/binder/ndk/include_cpp/android/binder_to_string.h:89:5)",
   "referenced_type" : "_ZTIN7android8internal7details19HasToStringFunctionIN4aidl7android8hardware4gnss9IAGnssRil20AGnssRefLocationTypeEE6$valueE",
   "self_type" : "_ZTIN7android8internal7details19HasToStringFunctionIN4aidl7android8hardware4gnss9IAGnssRil20AGnssRefLocationTypeEE6$valueE",
   "size" : 4,
   "source_file" : "frameworks/native/libs/binder/ndk/include_cpp/android/binder_to_string.h",
   "underlying_type" : "_ZTIj"
  },
  {
   "alignment" : 4,
   "enum_fields" :
   [
    {
     "enum_field_value" : 0,
     "name" : "android::internal::details::HasToStringFunction<std::vector<aidl::android::hardware::gnss::IGnssDebug::SatelliteData>>::value"
    }
   ],
   "linker_set_key" : "_ZTIN7android8internal7details19HasToStringFunctionINSt3__16vectorIN4aidl7android8hardware4gnss10IGnssDebug13SatelliteDataENS3_9allocatorISA_EEEEE6$valueE",
   "name" : "android::internal::details::HasToStringFunction<std::vector<aidl::android::hardware::gnss::IGnssDebug::SatelliteData, std::allocator<aidl::android::hardware::gnss::IGnssDebug::SatelliteData>>>::(unnamed enum at frameworks/native/libs/binder/ndk/include_cpp/android/binder_to_string.h:89:5)",
   "referenced_type" : "_ZTIN7android8internal7details19HasToStringFunctionINSt3__16vectorIN4aidl7android8hardware4gnss10IGnssDebug13SatelliteDataENS3_9allocatorISA_EEEEE6$valueE",
   "self_type" : "_ZTIN7android8internal7details19HasToStringFunctionINSt3__16vectorIN4aidl7android8hardware4gnss10IGnssDebug13SatelliteDataENS3_9allocatorISA_EEEEE6$valueE",
   "size" : 4,
   "source_file" : "frameworks/native/libs/binder/ndk/include_cpp/android/binder_to_string.h",
   "underlying_type" : "_ZTIj"
  },
  {
   "alignment" : 4,
   "enum_fields" :
   [
    {
     "enum_field_value" : 0,
     "name" : "android::internal::details::HasToStringFunction<std::vector<aidl::android::hardware::gnss::GnssMeasurement>>::value"
    }
   ],
   "linker_set_key" : "_ZTIN7android8internal7details19HasToStringFunctionINSt3__16vectorIN4aidl7android8hardware4gnss15GnssMeasurementENS3_9allocatorIS9_EEEEE6$valueE",
   "name" : "android::internal::details::HasToStringFunction<std::vector<aidl::android::hardware::gnss::GnssMeasurement, std::allocator<aidl::android::hardware::gnss::GnssMeasurement>>>::(unnamed enum at frameworks/native/libs/binder/ndk/include_cpp/android/binder_to_string.h:89:5)",
   "referenced_type" : "_ZTIN7android8internal7details19HasToStringFunctionINSt3__16vectorIN4aidl7android8hardware4gnss15GnssMeasurementENS3_9allocatorIS9_EEEEE6$valueE",
   "self_type" : "_ZTIN7android8internal7details19HasToStringFunctionINSt3__16vectorIN4aidl7android8hardware4gnss15GnssMeasurementENS3_9allocatorIS9_EEEEE6$valueE",
   "size" : 4,
   "source_file" : "frameworks/native/libs/binder/ndk/include_cpp/android/binder_to_string.h",
   "underlying_type" : "_ZTIj"
  },
  {
   "alignment" : 4,
   "enum_fields" :
   [
    {
     "enum_field_value" : 0,
     "name" : "android::internal::details::HasToStringFunction<std::vector<aidl::android::hardware::gnss::CorrelationVector>>::value"
    }
   ],
   "linker_set_key" : "_ZTIN7android8internal7details19HasToStringFunctionINSt3__16vectorIN4aidl7android8hardware4gnss17CorrelationVectorENS3_9allocatorIS9_EEEEE6$valueE",
   "name" : "android::internal::details::HasToStringFunction<std::vector<aidl::android::hardware::gnss::CorrelationVector, std::allocator<aidl::android::hardware::gnss::CorrelationVector>>>::(unnamed enum at frameworks/native/libs/binder/ndk/include_cpp/android/binder_to_string.h:89:5)",
   "referenced_type" : "_ZTIN7android8internal7details19HasToStringFunctionINSt3__16vectorIN4aidl7android8hardware4gnss17CorrelationVectorENS3_9allocatorIS9_EEEEE6$valueE",
   "self_type" : "_ZTIN7android8internal7details19HasToStringFunctionINSt3__16vectorIN4aidl7android8hardware4gnss17CorrelationVectorENS3_9allocatorIS9_EEEEE6$valueE",
   "size" : 4,
   "source_file" : "frameworks/native/libs/binder/ndk/include_cpp/android/binder_to_string.h",
   "underlying_type" : "_ZTIj"
  },
  {
   "alignment" : 4,
   "enum_fields" :
   [
    {
     "enum_field_value" : 0,
     "name" : "android::internal::details::HasToStringFunction<std::vector<aidl::android::hardware::gnss::measurement_corrections::SingleSatCorrection::ExcessPathInfo>>::value"
    }
   ],
   "linker_set_key" : "_ZTIN7android8internal7details19HasToStringFunctionINSt3__16vectorIN4aidl7android8hardware4gnss23measurement_corrections19SingleSatCorrection14ExcessPathInfoENS3_9allocatorISB_EEEEE6$valueE",
   "name" : "android::internal::details::HasToStringFunction<std::vector<aidl::android::hardware::gnss::measurement_corrections::SingleSatCorrection::ExcessPathInfo, std::allocator<aidl::android::hardware::gnss::measurement_corrections::SingleSatCorrection::ExcessPathInfo>>>::(unnamed enum at frameworks/native/libs/binder/ndk/include_cpp/android/binder_to_string.h:89:5)",
   "referenced_type" : "_ZTIN7android8internal7details19HasToStringFunctionINSt3__16vectorIN4aidl7android8hardware4gnss23measurement_corrections19SingleSatCorrection14ExcessPathInfoENS3_9allocatorISB_EEEEE6$valueE",
   "self_type" : "_ZTIN7android8internal7details19HasToStringFunctionINSt3__16vectorIN4aidl7android8hardware4gnss23measurement_corrections19SingleSatCorrection14ExcessPathInfoENS3_9allocatorISB_EEEEE6$valueE",
   "size" : 4,
   "source_file" : "frameworks/native/libs/binder/ndk/include_cpp/android/binder_to_string.h",
   "underlying_type" : "_ZTIj"
  },
  {
   "alignment" : 4,
   "enum_fields" :
   [
    {
     "enum_field_value" : 0,
     "name" : "android::internal::details::HasToStringFunction<std::vector<aidl::android::hardware::gnss::measurement_corrections::SingleSatCorrection>>::value"
    }
   ],
   "linker_set_key" : "_ZTIN7android8internal7details19HasToStringFunctionINSt3__16vectorIN4aidl7android8hardware4gnss23measurement_corrections19SingleSatCorrectionENS3_9allocatorISA_EEEEE6$valueE",
   "name" : "android::internal::details::HasToStringFunction<std::vector<aidl::android::hardware::gnss::measurement_corrections::SingleSatCorrection, std::allocator<aidl::android::hardware::gnss::measurement_corrections::SingleSatCorrection>>>::(unnamed enum at frameworks/native/libs/binder/ndk/include_cpp/android/binder_to_string.h:89:5)",
   "referenced_type" : "_ZTIN7android8internal7details19HasToStringFunctionINSt3__16vectorIN4aidl7android8hardware4gnss23measurement_corrections19SingleSatCorrectionENS3_9allocatorISA_EEEEE6$valueE",
   "self_type" : "_ZTIN7android8internal7details19HasToStringFunctionINSt3__16vectorIN4aidl7android8hardware4gnss23measurement_corrections19SingleSatCorrectionENS3_9allocatorISA_EEEEE6$valueE",
   "size" : 4,
   "source_file" : "frameworks/native/libs/binder/ndk/include_cpp/android/binder_to_string.h",
   "underlying_type" : "_ZTIj"
  },
  {
   "alignment" : 4,
   "enum_fields" :
   [
    {
     "enum_field_value" : 0,
     "name" : "android::internal::details::HasToStringFunction<std::vector<aidl::android::hardware::gnss::IGnssAntennaInfoCallback::Row>>::value"
    }
   ],
   "linker_set_key" : "_ZTIN7android8internal7details19HasToStringFunctionINSt3__16vectorIN4aidl7android8hardware4gnss24IGnssAntennaInfoCallback3RowENS3_9allocatorISA_EEEEE6$valueE",
   "name" : "android::internal::details::HasToStringFunction<std::vector<aidl::android::hardware::gnss::IGnssAntennaInfoCallback::Row, std::allocator<aidl::android::hardware::gnss::IGnssAntennaInfoCallback::Row>>>::(unnamed enum at frameworks/native/libs/binder/ndk/include_cpp/android/binder_to_string.h:89:5)",
   "referenced_type" : "_ZTIN7android8internal7details19HasToStringFunctionINSt3__16vectorIN4aidl7android8hardware4gnss24IGnssAntennaInfoCallback3RowENS3_9allocatorISA_EEEEE6$valueE",
   "self_type" : "_ZTIN7android8internal7details19HasToStringFunctionINSt3__16vectorIN4aidl7android8hardware4gnss24IGnssAntennaInfoCallback3RowENS3_9allocatorISA_EEEEE6$valueE",
   "size" : 4,
   "source_file" : "frameworks/native/libs/binder/ndk/include_cpp/android/binder_to_string.h",
   "underlying_type" : "_ZTIj"
  },
  {
   "alignment" : 4,
   "enum_fields" :
   [
    {
     "enum_field_value" : 0,
     "name" : "android::internal::details::HasToStringFunction<std::vector<aidl::android::hardware::gnss::GnssData::GnssAgc>>::value"
    }
   ],
   "linker_set_key" : "_ZTIN7android8internal7details19HasToStringFunctionINSt3__16vectorIN4aidl7android8hardware4gnss8GnssData7GnssAgcENS3_9allocatorISA_EEEEE6$valueE",
   "name" : "android::internal::details::HasToStringFunction<std::vector<aidl::android::hardware::gnss::GnssData::GnssAgc, std::allocator<aidl::android::hardware::gnss::GnssData::GnssAgc>>>::(unnamed enum at frameworks/native/libs/binder/ndk/include_cpp/android/binder_to_string.h:89:5)",
   "referenced_type" : "_ZTIN7android8internal7details19HasToStringFunctionINSt3__16vectorIN4aidl7android8hardware4gnss8GnssData7GnssAgcENS3_9allocatorISA_EEEEE6$valueE",
   "self_type" : "_ZTIN7android8internal7details19HasToStringFunctionINSt3__16vectorIN4aidl7android8hardware4gnss8GnssData7GnssAgcENS3_9allocatorISA_EEEEE6$valueE",
   "size" : 4,
   "source_file" : "frameworks/native/libs/binder/ndk/include_cpp/android/binder_to_string.h",
   "underlying_type" : "_ZTIj"
  },
  {
   "alignment" : 4,
   "enum_fields" :
   [
    {
     "enum_field_value" : 0,
     "name" : "android::internal::details::HasToStringFunction<std::vector<double>>::value"
    }
   ],
   "linker_set_key" : "_ZTIN7android8internal7details19HasToStringFunctionINSt3__16vectorIdNS3_9allocatorIdEEEEE6$valueE",
   "name" : "android::internal::details::HasToStringFunction<std::vector<double, std::allocator<double>>>::(unnamed enum at frameworks/native/libs/binder/ndk/include_cpp/android/binder_to_string.h:89:5)",
   "referenced_type" : "_ZTIN7android8internal7details19HasToStringFunctionINSt3__16vectorIdNS3_9allocatorIdEEEEE6$valueE",
   "self_type" : "_ZTIN7android8internal7details19HasToStringFunctionINSt3__16vectorIdNS3_9allocatorIdEEEEE6$valueE",
   "size" : 4,
   "source_file" : "frameworks/native/libs/binder/ndk/include_cpp/android/binder_to_string.h",
   "underlying_type" : "_ZTIj"
  },
  {
   "alignment" : 4,
   "enum_fields" :
   [
    {
     "enum_field_value" : 0,
     "name" : "android::internal::details::HasToStringFunction<std::vector<unsigned char>>::value"
    }
   ],
   "linker_set_key" : "_ZTIN7android8internal7details19HasToStringFunctionINSt3__16vectorIhNS3_9allocatorIhEEEEE6$valueE",
   "name" : "android::internal::details::HasToStringFunction<std::vector<unsigned char, std::allocator<unsigned char>>>::(unnamed enum at frameworks/native/libs/binder/ndk/include_cpp/android/binder_to_string.h:89:5)",
   "referenced_type" : "_ZTIN7android8internal7details19HasToStringFunctionINSt3__16vectorIhNS3_9allocatorIhEEEEE6$valueE",
   "self_type" : "_ZTIN7android8internal7details19HasToStringFunctionINSt3__16vectorIhNS3_9allocatorIhEEEEE6$valueE",
   "size" : 4,
   "source_file" : "frameworks/native/libs/binder/ndk/include_cpp/android/binder_to_string.h",
   "underlying_type" : "_ZTIj"
  },
  {
   "alignment" : 4,
   "enum_fields" :
   [
    {
     "enum_field_value" : 0,
     "name" : "android::internal::details::HasToStringFunction<std::vector<int>>::value"
    }
   ],
   "linker_set_key" : "_ZTIN7android8internal7details19HasToStringFunctionINSt3__16vectorIiNS3_9allocatorIiEEEEE6$valueE",
   "name" : "android::internal::details::HasToStringFunction<std::vector<int, std::allocator<int>>>::(unnamed enum at frameworks/native/libs/binder/ndk/include_cpp/android/binder_to_string.h:89:5)",
   "referenced_type" : "_ZTIN7android8internal7details19HasToStringFunctionINSt3__16vectorIiNS3_9allocatorIiEEEEE6$valueE",
   "self_type" : "_ZTIN7android8internal7details19HasToStringFunctionINSt3__16vectorIiNS3_9allocatorIiEEEEE6$valueE",
   "size" : 4,
   "source_file" : "frameworks/native/libs/binder/ndk/include_cpp/android/binder_to_string.h",
   "underlying_type" : "_ZTIj"
  }
 ],
 "function_types" :
 [
  {
   "alignment" : 4,
   "linker_set_key" : "_ZTIFiP8AIBinderjPK7AParcelPS1_E",
   "name" : "int (AIBinder *, unsigned int, const AParcel *, AParcel *)",
   "parameters" :
   [
    {
     "referenced_type" : "_ZTIP8AIBinder"
    },
    {
     "referenced_type" : "_ZTIj"
    },
    {
     "referenced_type" : "_ZTIPK7AParcel"
    },
    {
     "referenced_type" : "_ZTIP7AParcel"
    }
   ],
   "referenced_type" : "_ZTIFiP8AIBinderjPK7AParcelPS1_E",
   "return_type" : "_ZTIi",
   "self_type" : "_ZTIFiP8AIBinderjPK7AParcelPS1_E",
   "source_file" : "frameworks/native/libs/binder/ndk/include_cpp/android/binder_interface_utils.h"
  }
 ],
 "functions" :
 [
  {
   "function_name" : "ndk::BnCInterface<aidl::android::hardware::gnss::IGnssDebug>::asBinder",
   "linker_set_key" : "_ZN3ndk12BnCInterfaceIN4aidl7android8hardware4gnss10IGnssDebugEE8asBinderEv",
   "parameters" :
   [
    {
     "is_this_ptr" : true,
     "referenced_type" : "_ZTIPN3ndk12BnCInterfaceIN4aidl7android8hardware4gnss10IGnssDebugEEE"
    }
   ],
   "return_type" : "_ZTIN3ndk10SpAIBinderE",
   "source_file" : "frameworks/native/libs/binder/ndk/include_cpp/android/binder_interface_utils.h"
  },
  {
   "function_name" : "ndk::BnCInterface<aidl::android::hardware::gnss::IGnssBatching>::asBinder",
   "linker_set_key" : "_ZN3ndk12BnCInterfaceIN4aidl7android8hardware4gnss13IGnssBatchingEE8asBinderEv",
   "parameters" :
   [
    {
     "is_this_ptr" : true,
     "referenced_type" : "_ZTIPN3ndk12BnCInterfaceIN4aidl7android8hardware4gnss13IGnssBatchingEEE"
    }
   ],
   "return_type" : "_ZTIN3ndk10SpAIBinderE",
   "source_file" : "frameworks/native/libs/binder/ndk/include_cpp/android/binder_interface_utils.h"
  },
  {
   "function_name" : "ndk::BnCInterface<aidl::android::hardware::gnss::IGnssCallback>::asBinder",
   "linker_set_key" : "_ZN3ndk12BnCInterfaceIN4aidl7android8hardware4gnss13IGnssCallbackEE8asBinderEv",
   "parameters" :
   [
    {
     "is_this_ptr" : true,
     "referenced_type" : "_ZTIPN3ndk12BnCInterfaceIN4aidl7android8hardware4gnss13IGnssCallbackEEE"
    }
   ],
   "return_type" : "_ZTIN3ndk10SpAIBinderE",
   "source_file" : "frameworks/native/libs/binder/ndk/include_cpp/android/binder_interface_utils.h"
  },
  {
   "function_name" : "ndk::BnCInterface<aidl::android::hardware::gnss::IGnssGeofence>::asBinder",
   "linker_set_key" : "_ZN3ndk12BnCInterfaceIN4aidl7android8hardware4gnss13IGnssGeofenceEE8asBinderEv",
   "parameters" :
   [
    {
     "is_this_ptr" : true,
     "referenced_type" : "_ZTIPN3ndk12BnCInterfaceIN4aidl7android8hardware4gnss13IGnssGeofenceEEE"
    }
   ],
   "return_type" : "_ZTIN3ndk10SpAIBinderE",
   "source_file" : "frameworks/native/libs/binder/ndk/include_cpp/android/binder_interface_utils.h"
  },
  {
   "function_name" : "ndk::BnCInterface<aidl::android::hardware::gnss::IAGnssCallback>::asBinder",
   "linker_set_key" : "_ZN3ndk12BnCInterfaceIN4aidl7android8hardware4gnss14IAGnssCallbackEE8asBinderEv",
   "parameters" :
   [
    {
     "is_this_ptr" : true,
     "referenced_type" : "_ZTIPN3ndk12BnCInterfaceIN4aidl7android8hardware4gnss14IAGnssCallbackEEE"
    }
   ],
   "return_type" : "_ZTIN3ndk10SpAIBinderE",
   "source_file" : "frameworks/native/libs/binder/ndk/include_cpp/android/binder_interface_utils.h"
  },
  {
   "function_name" : "ndk::BnCInterface<aidl::android::hardware::gnss::IGnssAntennaInfo>::asBinder",
   "linker_set_key" : "_ZN3ndk12BnCInterfaceIN4aidl7android8hardware4gnss16IGnssAntennaInfoEE8asBinderEv",
   "parameters" :
   [
    {
     "is_this_ptr" : true,
     "referenced_type" : "_ZTIPN3ndk12BnCInterfaceIN4aidl7android8hardware4gnss16IGnssAntennaInfoEEE"
    }
   ],
   "return_type" : "_ZTIN3ndk10SpAIBinderE",
   "source_file" : "frameworks/native/libs/binder/ndk/include_cpp/android/binder_interface_utils.h"
  },
  {
   "function_name" : "ndk::BnCInterface<aidl::android::hardware::gnss::IAGnssRilCallback>::asBinder",
   "linker_set_key" : "_ZN3ndk12BnCInterfaceIN4aidl7android8hardware4gnss17IAGnssRilCallbackEE8asBinderEv",
   "parameters" :
   [
    {
     "is_this_ptr" : true,
     "referenced_type" : "_ZTIPN3ndk12BnCInterfaceIN4aidl7android8hardware4gnss17IAGnssRilCallbackEEE"
    }
   ],
   "return_type" : "_ZTIN3ndk10SpAIBinderE",
   "source_file" : "frameworks/native/libs/binder/ndk/include_cpp/android/binder_interface_utils.h"
  },
  {
   "function_name" : "ndk::BnCInterface<aidl::android::hardware::gnss::IGnssPsdsCallback>::asBinder",
   "linker_set_key" : "_ZN3ndk12BnCInterfaceIN4aidl7android8hardware4gnss17IGnssPsdsCallbackEE8asBinderEv",
   "parameters" :
   [
    {
     "is_this_ptr" : true,
     "referenced_type" : "_ZTIPN3ndk12BnCInterfaceIN4aidl7android8hardware4gnss17IGnssPsdsCallbackEEE"
    }
   ],
   "return_type" : "_ZTIN3ndk10SpAIBinderE",
   "source_file" : "frameworks/native/libs/binder/ndk/include_cpp/android/binder_interface_utils.h"
  },
  {
   "function_name" : "ndk::BnCInterface<aidl::android::hardware::gnss::IGnssConfiguration>::asBinder",
   "linker_set_key" : "_ZN3ndk12BnCInterfaceIN4aidl7android8hardware4gnss18IGnssConfigurationEE8asBinderEv",
   "parameters" :
   [
    {
     "is_this_ptr" : true,
     "referenced_type" : "_ZTIPN3ndk12BnCInterfaceIN4aidl7android8hardware4gnss18IGnssConfigurationEEE"
    }
   ],
   "return_type" : "_ZTIN3ndk10SpAIBinderE",
   "source_file" : "frameworks/native/libs/binder/ndk/include_cpp/android/binder_interface_utils.h"
  },
  {
   "function_name" : "ndk::BnCInterface<aidl::android::hardware::gnss::visibility_control::IGnssVisibilityControl>::asBinder",
   "linker_set_key" : "_ZN3ndk12BnCInterfaceIN4aidl7android8hardware4gnss18visibility_control22IGnssVisibilityControlEE8asBinderEv",
   "parameters" :
   [
    {
     "is_this_ptr" : true,
     "referenced_type" : "_ZTIPN3ndk12BnCInterfaceIN4aidl7android8hardware4gnss18visibility_control22IGnssVisibilityControlEEE"
    }
   ],
   "return_type" : "_ZTIN3ndk10SpAIBinderE",
   "source_file" : "frameworks/native/libs/binder/ndk/include_cpp/android/binder_interface_utils.h"
  },
  {
   "function_name" : "ndk::BnCInterface<aidl::android::hardware::gnss::visibility_control::IGnssVisibilityControlCallback>::asBinder",
   "linker_set_key" : "_ZN3ndk12BnCInterfaceIN4aidl7android8hardware4gnss18visibility_control30IGnssVisibilityControlCallbackEE8asBinderEv",
   "parameters" :
   [
    {
     "is_this_ptr" : true,
     "referenced_type" : "_ZTIPN3ndk12BnCInterfaceIN4aidl7android8hardware4gnss18visibility_control30IGnssVisibilityControlCallbackEEE"
    }
   ],
   "return_type" : "_ZTIN3ndk10SpAIBinderE",
   "source_file" : "frameworks/native/libs/binder/ndk/include_cpp/android/binder_interface_utils.h"
  },
  {
   "function_name" : "ndk::BnCInterface<aidl::android::hardware::gnss::IGnssPowerIndication>::asBinder",
   "linker_set_key" : "_ZN3ndk12BnCInterfaceIN4aidl7android8hardware4gnss20IGnssPowerIndicationEE8asBinderEv",
   "parameters" :
   [
    {
     "is_this_ptr" : true,
     "referenced_type" : "_ZTIPN3ndk12BnCInterfaceIN4aidl7android8hardware4gnss20IGnssPowerIndicationEEE"
    }
   ],
   "return_type" : "_ZTIN3ndk10SpAIBinderE",
   "source_file" : "frameworks/native/libs/binder/ndk/include_cpp/android/binder_interface_utils.h"
  },
  {
   "function_name" : "ndk::BnCInterface<aidl::android::hardware::gnss::IGnssBatchingCallback>::asBinder",
   "linker_set_key" : "_ZN3ndk12BnCInterfaceIN4aidl7android8hardware4gnss21IGnssBatchingCallbackEE8asBinderEv",
   "parameters" :
   [
    {
     "is_this_ptr" : true,
     "referenced_type" : "_ZTIPN3ndk12BnCInterfaceIN4aidl7android8hardware4gnss21IGnssBatchingCallbackEEE"
    }
   ],
   "return_type" : "_ZTIN3ndk10SpAIBinderE",
   "source_file" : "frameworks/native/libs/binder/ndk/include_cpp/android/binder_interface_utils.h"
  },
  {
   "function_name" : "ndk::BnCInterface<aidl::android::hardware::gnss::IGnssGeofenceCallback>::asBinder",
   "linker_set_key" : "_ZN3ndk12BnCInterfaceIN4aidl7android8hardware4gnss21IGnssGeofenceCallbackEE8asBinderEv",
   "parameters" :
   [
    {
     "is_this_ptr" : true,
     "referenced_type" : "_ZTIPN3ndk12BnCInterfaceIN4aidl7android8hardware4gnss21IGnssGeofenceCallbackEEE"
    }
   ],
   "return_type" : "_ZTIN3ndk10SpAIBinderE",
   "source_file" : "frameworks/native/libs/binder/ndk/include_cpp/android/binder_interface_utils.h"
  },
  {
   "function_name" : "ndk::BnCInterface<aidl::android::hardware::gnss::measurement_corrections::IMeasurementCorrectionsCallback>::asBinder",
   "linker_set_key" : "_ZN3ndk12BnCInterfaceIN4aidl7android8hardware4gnss23measurement_corrections31IMeasurementCorrectionsCallbackEE8asBinderEv",
   "parameters" :
   [
    {
     "is_this_ptr" : true,
     "referenced_type" : "_ZTIPN3ndk12BnCInterfaceIN4aidl7android8hardware4gnss23measurement_corrections31IMeasurementCorrectionsCallbackEEE"
    }
   ],
   "return_type" : "_ZTIN3ndk10SpAIBinderE",
   "source_file" : "frameworks/native/libs/binder/ndk/include_cpp/android/binder_interface_utils.h"
  },
  {
   "function_name" : "ndk::BnCInterface<aidl::android::hardware::gnss::measurement_corrections::IMeasurementCorrectionsInterface>::asBinder",
   "linker_set_key" : "_ZN3ndk12BnCInterfaceIN4aidl7android8hardware4gnss23measurement_corrections32IMeasurementCorrectionsInterfaceEE8asBinderEv",
   "parameters" :
   [
    {
     "is_this_ptr" : true,
     "referenced_type" : "_ZTIPN3ndk12BnCInterfaceIN4aidl7android8hardware4gnss23measurement_corrections32IMeasurementCorrectionsInterfaceEEE"
    }
   ],
   "return_type" : "_ZTIN3ndk10SpAIBinderE",
   "source_file" : "frameworks/native/libs/binder/ndk/include_cpp/android/binder_interface_utils.h"
  },
  {
   "function_name" : "ndk::BnCInterface<aidl::android::hardware::gnss::IGnssAntennaInfoCallback>::asBinder",
   "linker_set_key" : "_ZN3ndk12BnCInterfaceIN4aidl7android8hardware4gnss24IGnssAntennaInfoCallbackEE8asBinderEv",
   "parameters" :
   [
    {
     "is_this_ptr" : true,
     "referenced_type" : "_ZTIPN3ndk12BnCInterfaceIN4aidl7android8hardware4gnss24IGnssAntennaInfoCallbackEEE"
    }
   ],
   "return_type" : "_ZTIN3ndk10SpAIBinderE",
   "source_file" : "frameworks/native/libs/binder/ndk/include_cpp/android/binder_interface_utils.h"
  },
  {
   "function_name" : "ndk::BnCInterface<aidl::android::hardware::gnss::IGnssMeasurementCallback>::asBinder",
   "linker_set_key" : "_ZN3ndk12BnCInterfaceIN4aidl7android8hardware4gnss24IGnssMeasurementCallbackEE8asBinderEv",
   "parameters" :
   [
    {
     "is_this_ptr" : true,
     "referenced_type" : "_ZTIPN3ndk12BnCInterfaceIN4aidl7android8hardware4gnss24IGnssMeasurementCallbackEEE"
    }
   ],
   "return_type" : "_ZTIN3ndk10SpAIBinderE",
   "source_file" : "frameworks/native/libs/binder/ndk/include_cpp/android/binder_interface_utils.h"
  },
  {
   "function_name" : "ndk::BnCInterface<aidl::android::hardware::gnss::IGnssMeasurementInterface>::asBinder",
   "linker_set_key" : "_ZN3ndk12BnCInterfaceIN4aidl7android8hardware4gnss25IGnssMeasurementInterfaceEE8asBinderEv",
   "parameters" :
   [
    {
     "is_this_ptr" : true,
     "referenced_type" : "_ZTIPN3ndk12BnCInterfaceIN4aidl7android8hardware4gnss25IGnssMeasurementInterfaceEEE"
    }
   ],
   "return_type" : "_ZTIN3ndk10SpAIBinderE",
   "source_file" : "frameworks/native/libs/binder/ndk/include_cpp/android/binder_interface_utils.h"
  },
  {
   "function_name" : "ndk::BnCInterface<aidl::android::hardware::gnss::IGnssPowerIndicationCallback>::asBinder",
   "linker_set_key" : "_ZN3ndk12BnCInterfaceIN4aidl7android8hardware4gnss28IGnssPowerIndicationCallbackEE8asBinderEv",
   "parameters" :
   [
    {
     "is_this_ptr" : true,
     "referenced_type" : "_ZTIPN3ndk12BnCInterfaceIN4aidl7android8hardware4gnss28IGnssPowerIndicationCallbackEEE"
    }
   ],
   "return_type" : "_ZTIN3ndk10SpAIBinderE",
   "source_file" : "frameworks/native/libs/binder/ndk/include_cpp/android/binder_interface_utils.h"
  },
  {
   "function_name" : "ndk::BnCInterface<aidl::android::hardware::gnss::IGnssNavigationMessageCallback>::asBinder",
   "linker_set_key" : "_ZN3ndk12BnCInterfaceIN4aidl7android8hardware4gnss30IGnssNavigationMessageCallbackEE8asBinderEv",
   "parameters" :
   [
    {
     "is_this_ptr" : true,
     "referenced_type" : "_ZTIPN3ndk12BnCInterfaceIN4aidl7android8hardware4gnss30IGnssNavigationMessageCallbackEEE"
    }
   ],
   "return_type" : "_ZTIN3ndk10SpAIBinderE",
   "source_file" : "frameworks/native/libs/binder/ndk/include_cpp/android/binder_interface_utils.h"
  },
  {
   "function_name" : "ndk::BnCInterface<aidl::android::hardware::gnss::IGnssNavigationMessageInterface>::asBinder",
   "linker_set_key" : "_ZN3ndk12BnCInterfaceIN4aidl7android8hardware4gnss31IGnssNavigationMessageInterfaceEE8asBinderEv",
   "parameters" :
   [
    {
     "is_this_ptr" : true,
     "referenced_type" : "_ZTIPN3ndk12BnCInterfaceIN4aidl7android8hardware4gnss31IGnssNavigationMessageInterfaceEEE"
    }
   ],
   "return_type" : "_ZTIN3ndk10SpAIBinderE",
   "source_file" : "frameworks/native/libs/binder/ndk/include_cpp/android/binder_interface_utils.h"
  },
  {
   "function_name" : "ndk::BnCInterface<aidl::android::hardware::gnss::IGnss>::asBinder",
   "linker_set_key" : "_ZN3ndk12BnCInterfaceIN4aidl7android8hardware4gnss5IGnssEE8asBinderEv",
   "parameters" :
   [
    {
     "is_this_ptr" : true,
     "referenced_type" : "_ZTIPN3ndk12BnCInterfaceIN4aidl7android8hardware4gnss5IGnssEEE"
    }
   ],
   "return_type" : "_ZTIN3ndk10SpAIBinderE",
   "source_file" : "frameworks/native/libs/binder/ndk/include_cpp/android/binder_interface_utils.h"
  },
  {
   "function_name" : "ndk::BnCInterface<aidl::android::hardware::gnss::IAGnss>::asBinder",
   "linker_set_key" : "_ZN3ndk12BnCInterfaceIN4aidl7android8hardware4gnss6IAGnssEE8asBinderEv",
   "parameters" :
   [
    {
     "is_this_ptr" : true,
     "referenced_type" : "_ZTIPN3ndk12BnCInterfaceIN4aidl7android8hardware4gnss6IAGnssEEE"
    }
   ],
   "return_type" : "_ZTIN3ndk10SpAIBinderE",
   "source_file" : "frameworks/native/libs/binder/ndk/include_cpp/android/binder_interface_utils.h"
  },
  {
   "function_name" : "ndk::BnCInterface<aidl::android::hardware::gnss::IAGnssRil>::asBinder",
   "linker_set_key" : "_ZN3ndk12BnCInterfaceIN4aidl7android8hardware4gnss9IAGnssRilEE8asBinderEv",
   "parameters" :
   [
    {
     "is_this_ptr" : true,
     "referenced_type" : "_ZTIPN3ndk12BnCInterfaceIN4aidl7android8hardware4gnss9IAGnssRilEEE"
    }
   ],
   "return_type" : "_ZTIN3ndk10SpAIBinderE",
   "source_file" : "frameworks/native/libs/binder/ndk/include_cpp/android/binder_interface_utils.h"
  },
  {
   "function_name" : "ndk::BnCInterface<aidl::android::hardware::gnss::IGnssPsds>::asBinder",
   "linker_set_key" : "_ZN3ndk12BnCInterfaceIN4aidl7android8hardware4gnss9IGnssPsdsEE8asBinderEv",
   "parameters" :
   [
    {
     "is_this_ptr" : true,
     "referenced_type" : "_ZTIPN3ndk12BnCInterfaceIN4aidl7android8hardware4gnss9IGnssPsdsEEE"
    }
   ],
   "return_type" : "_ZTIN3ndk10SpAIBinderE",
   "source_file" : "frameworks/native/libs/binder/ndk/include_cpp/android/binder_interface_utils.h"
  },
  {
   "function_name" : "ndk::BpCInterface<aidl::android::hardware::gnss::IGnssDebug>::asBinder",
   "linker_set_key" : "_ZN3ndk12BpCInterfaceIN4aidl7android8hardware4gnss10IGnssDebugEE8asBinderEv",
   "parameters" :
   [
    {
     "is_this_ptr" : true,
     "referenced_type" : "_ZTIPN3ndk12BpCInterfaceIN4aidl7android8hardware4gnss10IGnssDebugEEE"
    }
   ],
   "return_type" : "_ZTIN3ndk10SpAIBinderE",
   "source_file" : "frameworks/native/libs/binder/ndk/include_cpp/android/binder_interface_utils.h"
  },
  {
   "function_name" : "ndk::BpCInterface<aidl::android::hardware::gnss::IGnssBatching>::asBinder",
   "linker_set_key" : "_ZN3ndk12BpCInterfaceIN4aidl7android8hardware4gnss13IGnssBatchingEE8asBinderEv",
   "parameters" :
   [
    {
     "is_this_ptr" : true,
     "referenced_type" : "_ZTIPN3ndk12BpCInterfaceIN4aidl7android8hardware4gnss13IGnssBatchingEEE"
    }
   ],
   "return_type" : "_ZTIN3ndk10SpAIBinderE",
   "source_file" : "frameworks/native/libs/binder/ndk/include_cpp/android/binder_interface_utils.h"
  },
  {
   "function_name" : "ndk::BpCInterface<aidl::android::hardware::gnss::IGnssCallback>::asBinder",
   "linker_set_key" : "_ZN3ndk12BpCInterfaceIN4aidl7android8hardware4gnss13IGnssCallbackEE8asBinderEv",
   "parameters" :
   [
    {
     "is_this_ptr" : true,
     "referenced_type" : "_ZTIPN3ndk12BpCInterfaceIN4aidl7android8hardware4gnss13IGnssCallbackEEE"
    }
   ],
   "return_type" : "_ZTIN3ndk10SpAIBinderE",
   "source_file" : "frameworks/native/libs/binder/ndk/include_cpp/android/binder_interface_utils.h"
  },
  {
   "function_name" : "ndk::BpCInterface<aidl::android::hardware::gnss::IGnssGeofence>::asBinder",
   "linker_set_key" : "_ZN3ndk12BpCInterfaceIN4aidl7android8hardware4gnss13IGnssGeofenceEE8asBinderEv",
   "parameters" :
   [
    {
     "is_this_ptr" : true,
     "referenced_type" : "_ZTIPN3ndk12BpCInterfaceIN4aidl7android8hardware4gnss13IGnssGeofenceEEE"
    }
   ],
   "return_type" : "_ZTIN3ndk10SpAIBinderE",
   "source_file" : "frameworks/native/libs/binder/ndk/include_cpp/android/binder_interface_utils.h"
  },
  {
   "function_name" : "ndk::BpCInterface<aidl::android::hardware::gnss::IAGnssCallback>::asBinder",
   "linker_set_key" : "_ZN3ndk12BpCInterfaceIN4aidl7android8hardware4gnss14IAGnssCallbackEE8asBinderEv",
   "parameters" :
   [
    {
     "is_this_ptr" : true,
     "referenced_type" : "_ZTIPN3ndk12BpCInterfaceIN4aidl7android8hardware4gnss14IAGnssCallbackEEE"
    }
   ],
   "return_type" : "_ZTIN3ndk10SpAIBinderE",
   "source_file" : "frameworks/native/libs/binder/ndk/include_cpp/android/binder_interface_utils.h"
  },
  {
   "function_name" : "ndk::BpCInterface<aidl::android::hardware::gnss::IGnssAntennaInfo>::asBinder",
   "linker_set_key" : "_ZN3ndk12BpCInterfaceIN4aidl7android8hardware4gnss16IGnssAntennaInfoEE8asBinderEv",
   "parameters" :
   [
    {
     "is_this_ptr" : true,
     "referenced_type" : "_ZTIPN3ndk12BpCInterfaceIN4aidl7android8hardware4gnss16IGnssAntennaInfoEEE"
    }
   ],
   "return_type" : "_ZTIN3ndk10SpAIBinderE",
   "source_file" : "frameworks/native/libs/binder/ndk/include_cpp/android/binder_interface_utils.h"
  },
  {
   "function_name" : "ndk::BpCInterface<aidl::android::hardware::gnss::IAGnssRilCallback>::asBinder",
   "linker_set_key" : "_ZN3ndk12BpCInterfaceIN4aidl7android8hardware4gnss17IAGnssRilCallbackEE8asBinderEv",
   "parameters" :
   [
    {
     "is_this_ptr" : true,
     "referenced_type" : "_ZTIPN3ndk12BpCInterfaceIN4aidl7android8hardware4gnss17IAGnssRilCallbackEEE"
    }
   ],
   "return_type" : "_ZTIN3ndk10SpAIBinderE",
   "source_file" : "frameworks/native/libs/binder/ndk/include_cpp/android/binder_interface_utils.h"
  },
  {
   "function_name" : "ndk::BpCInterface<aidl::android::hardware::gnss::IGnssPsdsCallback>::asBinder",
   "linker_set_key" : "_ZN3ndk12BpCInterfaceIN4aidl7android8hardware4gnss17IGnssPsdsCallbackEE8asBinderEv",
   "parameters" :
   [
    {
     "is_this_ptr" : true,
     "referenced_type" : "_ZTIPN3ndk12BpCInterfaceIN4aidl7android8hardware4gnss17IGnssPsdsCallbackEEE"
    }
   ],
   "return_type" : "_ZTIN3ndk10SpAIBinderE",
   "source_file" : "frameworks/native/libs/binder/ndk/include_cpp/android/binder_interface_utils.h"
  },
  {
   "function_name" : "ndk::BpCInterface<aidl::android::hardware::gnss::IGnssConfiguration>::asBinder",
   "linker_set_key" : "_ZN3ndk12BpCInterfaceIN4aidl7android8hardware4gnss18IGnssConfigurationEE8asBinderEv",
   "parameters" :
   [
    {
     "is_this_ptr" : true,
     "referenced_type" : "_ZTIPN3ndk12BpCInterfaceIN4aidl7android8hardware4gnss18IGnssConfigurationEEE"
    }
   ],
   "return_type" : "_ZTIN3ndk10SpAIBinderE",
   "source_file" : "frameworks/native/libs/binder/ndk/include_cpp/android/binder_interface_utils.h"
  },
  {
   "function_name" : "ndk::BpCInterface<aidl::android::hardware::gnss::visibility_control::IGnssVisibilityControl>::asBinder",
   "linker_set_key" : "_ZN3ndk12BpCInterfaceIN4aidl7android8hardware4gnss18visibility_control22IGnssVisibilityControlEE8asBinderEv",
   "parameters" :
   [
    {
     "is_this_ptr" : true,
     "referenced_type" : "_ZTIPN3ndk12BpCInterfaceIN4aidl7android8hardware4gnss18visibility_control22IGnssVisibilityControlEEE"
    }
   ],
   "return_type" : "_ZTIN3ndk10SpAIBinderE",
   "source_file" : "frameworks/native/libs/binder/ndk/include_cpp/android/binder_interface_utils.h"
  },
  {
   "function_name" : "ndk::BpCInterface<aidl::android::hardware::gnss::visibility_control::IGnssVisibilityControlCallback>::asBinder",
   "linker_set_key" : "_ZN3ndk12BpCInterfaceIN4aidl7android8hardware4gnss18visibility_control30IGnssVisibilityControlCallbackEE8asBinderEv",
   "parameters" :
   [
    {
     "is_this_ptr" : true,
     "referenced_type" : "_ZTIPN3ndk12BpCInterfaceIN4aidl7android8hardware4gnss18visibility_control30IGnssVisibilityControlCallbackEEE"
    }
   ],
   "return_type" : "_ZTIN3ndk10SpAIBinderE",
   "source_file" : "frameworks/native/libs/binder/ndk/include_cpp/android/binder_interface_utils.h"
  },
  {
   "function_name" : "ndk::BpCInterface<aidl::android::hardware::gnss::IGnssPowerIndication>::asBinder",
   "linker_set_key" : "_ZN3ndk12BpCInterfaceIN4aidl7android8hardware4gnss20IGnssPowerIndicationEE8asBinderEv",
   "parameters" :
   [
    {
     "is_this_ptr" : true,
     "referenced_type" : "_ZTIPN3ndk12BpCInterfaceIN4aidl7android8hardware4gnss20IGnssPowerIndicationEEE"
    }
   ],
   "return_type" : "_ZTIN3ndk10SpAIBinderE",
   "source_file" : "frameworks/native/libs/binder/ndk/include_cpp/android/binder_interface_utils.h"
  },
  {
   "function_name" : "ndk::BpCInterface<aidl::android::hardware::gnss::IGnssBatchingCallback>::asBinder",
   "linker_set_key" : "_ZN3ndk12BpCInterfaceIN4aidl7android8hardware4gnss21IGnssBatchingCallbackEE8asBinderEv",
   "parameters" :
   [
    {
     "is_this_ptr" : true,
     "referenced_type" : "_ZTIPN3ndk12BpCInterfaceIN4aidl7android8hardware4gnss21IGnssBatchingCallbackEEE"
    }
   ],
   "return_type" : "_ZTIN3ndk10SpAIBinderE",
   "source_file" : "frameworks/native/libs/binder/ndk/include_cpp/android/binder_interface_utils.h"
  },
  {
   "function_name" : "ndk::BpCInterface<aidl::android::hardware::gnss::IGnssGeofenceCallback>::asBinder",
   "linker_set_key" : "_ZN3ndk12BpCInterfaceIN4aidl7android8hardware4gnss21IGnssGeofenceCallbackEE8asBinderEv",
   "parameters" :
   [
    {
     "is_this_ptr" : true,
     "referenced_type" : "_ZTIPN3ndk12BpCInterfaceIN4aidl7android8hardware4gnss21IGnssGeofenceCallbackEEE"
    }
   ],
   "return_type" : "_ZTIN3ndk10SpAIBinderE",
   "source_file" : "frameworks/native/libs/binder/ndk/include_cpp/android/binder_interface_utils.h"
  },
  {
   "function_name" : "ndk::BpCInterface<aidl::android::hardware::gnss::measurement_corrections::IMeasurementCorrectionsCallback>::asBinder",
   "linker_set_key" : "_ZN3ndk12BpCInterfaceIN4aidl7android8hardware4gnss23measurement_corrections31IMeasurementCorrectionsCallbackEE8asBinderEv",
   "parameters" :
   [
    {
     "is_this_ptr" : true,
     "referenced_type" : "_ZTIPN3ndk12BpCInterfaceIN4aidl7android8hardware4gnss23measurement_corrections31IMeasurementCorrectionsCallbackEEE"
    }
   ],
   "return_type" : "_ZTIN3ndk10SpAIBinderE",
   "source_file" : "frameworks/native/libs/binder/ndk/include_cpp/android/binder_interface_utils.h"
  },
  {
   "function_name" : "ndk::BpCInterface<aidl::android::hardware::gnss::measurement_corrections::IMeasurementCorrectionsInterface>::asBinder",
   "linker_set_key" : "_ZN3ndk12BpCInterfaceIN4aidl7android8hardware4gnss23measurement_corrections32IMeasurementCorrectionsInterfaceEE8asBinderEv",
   "parameters" :
   [
    {
     "is_this_ptr" : true,
     "referenced_type" : "_ZTIPN3ndk12BpCInterfaceIN4aidl7android8hardware4gnss23measurement_corrections32IMeasurementCorrectionsInterfaceEEE"
    }
   ],
   "return_type" : "_ZTIN3ndk10SpAIBinderE",
   "source_file" : "frameworks/native/libs/binder/ndk/include_cpp/android/binder_interface_utils.h"
  },
  {
   "function_name" : "ndk::BpCInterface<aidl::android::hardware::gnss::IGnssAntennaInfoCallback>::asBinder",
   "linker_set_key" : "_ZN3ndk12BpCInterfaceIN4aidl7android8hardware4gnss24IGnssAntennaInfoCallbackEE8asBinderEv",
   "parameters" :
   [
    {
     "is_this_ptr" : true,
     "referenced_type" : "_ZTIPN3ndk12BpCInterfaceIN4aidl7android8hardware4gnss24IGnssAntennaInfoCallbackEEE"
    }
   ],
   "return_type" : "_ZTIN3ndk10SpAIBinderE",
   "source_file" : "frameworks/native/libs/binder/ndk/include_cpp/android/binder_interface_utils.h"
  },
  {
   "function_name" : "ndk::BpCInterface<aidl::android::hardware::gnss::IGnssMeasurementCallback>::asBinder",
   "linker_set_key" : "_ZN3ndk12BpCInterfaceIN4aidl7android8hardware4gnss24IGnssMeasurementCallbackEE8asBinderEv",
   "parameters" :
   [
    {
     "is_this_ptr" : true,
     "referenced_type" : "_ZTIPN3ndk12BpCInterfaceIN4aidl7android8hardware4gnss24IGnssMeasurementCallbackEEE"
    }
   ],
   "return_type" : "_ZTIN3ndk10SpAIBinderE",
   "source_file" : "frameworks/native/libs/binder/ndk/include_cpp/android/binder_interface_utils.h"
  },
  {
   "function_name" : "ndk::BpCInterface<aidl::android::hardware::gnss::IGnssMeasurementInterface>::asBinder",
   "linker_set_key" : "_ZN3ndk12BpCInterfaceIN4aidl7android8hardware4gnss25IGnssMeasurementInterfaceEE8asBinderEv",
   "parameters" :
   [
    {
     "is_this_ptr" : true,
     "referenced_type" : "_ZTIPN3ndk12BpCInterfaceIN4aidl7android8hardware4gnss25IGnssMeasurementInterfaceEEE"
    }
   ],
   "return_type" : "_ZTIN3ndk10SpAIBinderE",
   "source_file" : "frameworks/native/libs/binder/ndk/include_cpp/android/binder_interface_utils.h"
  },
  {
   "function_name" : "ndk::BpCInterface<aidl::android::hardware::gnss::IGnssPowerIndicationCallback>::asBinder",
   "linker_set_key" : "_ZN3ndk12BpCInterfaceIN4aidl7android8hardware4gnss28IGnssPowerIndicationCallbackEE8asBinderEv",
   "parameters" :
   [
    {
     "is_this_ptr" : true,
     "referenced_type" : "_ZTIPN3ndk12BpCInterfaceIN4aidl7android8hardware4gnss28IGnssPowerIndicationCallbackEEE"
    }
   ],
   "return_type" : "_ZTIN3ndk10SpAIBinderE",
   "source_file" : "frameworks/native/libs/binder/ndk/include_cpp/android/binder_interface_utils.h"
  },
  {
   "function_name" : "ndk::BpCInterface<aidl::android::hardware::gnss::IGnssNavigationMessageCallback>::asBinder",
   "linker_set_key" : "_ZN3ndk12BpCInterfaceIN4aidl7android8hardware4gnss30IGnssNavigationMessageCallbackEE8asBinderEv",
   "parameters" :
   [
    {
     "is_this_ptr" : true,
     "referenced_type" : "_ZTIPN3ndk12BpCInterfaceIN4aidl7android8hardware4gnss30IGnssNavigationMessageCallbackEEE"
    }
   ],
   "return_type" : "_ZTIN3ndk10SpAIBinderE",
   "source_file" : "frameworks/native/libs/binder/ndk/include_cpp/android/binder_interface_utils.h"
  },
  {
   "function_name" : "ndk::BpCInterface<aidl::android::hardware::gnss::IGnssNavigationMessageInterface>::asBinder",
   "linker_set_key" : "_ZN3ndk12BpCInterfaceIN4aidl7android8hardware4gnss31IGnssNavigationMessageInterfaceEE8asBinderEv",
   "parameters" :
   [
    {
     "is_this_ptr" : true,
     "referenced_type" : "_ZTIPN3ndk12BpCInterfaceIN4aidl7android8hardware4gnss31IGnssNavigationMessageInterfaceEEE"
    }
   ],
   "return_type" : "_ZTIN3ndk10SpAIBinderE",
   "source_file" : "frameworks/native/libs/binder/ndk/include_cpp/android/binder_interface_utils.h"
  },
  {
   "function_name" : "ndk::BpCInterface<aidl::android::hardware::gnss::IGnss>::asBinder",
   "linker_set_key" : "_ZN3ndk12BpCInterfaceIN4aidl7android8hardware4gnss5IGnssEE8asBinderEv",
   "parameters" :
   [
    {
     "is_this_ptr" : true,
     "referenced_type" : "_ZTIPN3ndk12BpCInterfaceIN4aidl7android8hardware4gnss5IGnssEEE"
    }
   ],
   "return_type" : "_ZTIN3ndk10SpAIBinderE",
   "source_file" : "frameworks/native/libs/binder/ndk/include_cpp/android/binder_interface_utils.h"
  },
  {
   "function_name" : "ndk::BpCInterface<aidl::android::hardware::gnss::IAGnss>::asBinder",
   "linker_set_key" : "_ZN3ndk12BpCInterfaceIN4aidl7android8hardware4gnss6IAGnssEE8asBinderEv",
   "parameters" :
   [
    {
     "is_this_ptr" : true,
     "referenced_type" : "_ZTIPN3ndk12BpCInterfaceIN4aidl7android8hardware4gnss6IAGnssEEE"
    }
   ],
   "return_type" : "_ZTIN3ndk10SpAIBinderE",
   "source_file" : "frameworks/native/libs/binder/ndk/include_cpp/android/binder_interface_utils.h"
  },
  {
   "function_name" : "ndk::BpCInterface<aidl::android::hardware::gnss::IAGnssRil>::asBinder",
   "linker_set_key" : "_ZN3ndk12BpCInterfaceIN4aidl7android8hardware4gnss9IAGnssRilEE8asBinderEv",
   "parameters" :
   [
    {
     "is_this_ptr" : true,
     "referenced_type" : "_ZTIPN3ndk12BpCInterfaceIN4aidl7android8hardware4gnss9IAGnssRilEEE"
    }
   ],
   "return_type" : "_ZTIN3ndk10SpAIBinderE",
   "source_file" : "frameworks/native/libs/binder/ndk/include_cpp/android/binder_interface_utils.h"
  },
  {
   "function_name" : "ndk::BpCInterface<aidl::android::hardware::gnss::IGnssPsds>::asBinder",
   "linker_set_key" : "_ZN3ndk12BpCInterfaceIN4aidl7android8hardware4gnss9IGnssPsdsEE8asBinderEv",
   "parameters" :
   [
    {
     "is_this_ptr" : true,
     "referenced_type" : "_ZTIPN3ndk12BpCInterfaceIN4aidl7android8hardware4gnss9IGnssPsdsEEE"
    }
   ],
   "return_type" : "_ZTIN3ndk10SpAIBinderE",
   "source_file" : "frameworks/native/libs/binder/ndk/include_cpp/android/binder_interface_utils.h"
  },
  {
   "function_name" : "ndk::AParcel_readStdVectorParcelableElement",
   "linker_set_key" : "_ZN3ndk38AParcel_readStdVectorParcelableElementIN4aidl7android8hardware4gnss10IGnssDebug13SatelliteDataEEEiPK7AParcelPvj",
   "parameters" :
   [
    {
     "referenced_type" : "_ZTIPK7AParcel"
    },
    {
     "referenced_type" : "_ZTIPv"
    },
    {
     "referenced_type" : "_ZTIj"
    }
   ],
   "return_type" : "_ZTIi",
   "source_file" : "frameworks/native/libs/binder/ndk/include_cpp/android/binder_parcel_utils.h",
   "template_args" :
   [
    "_ZTIN4aidl7android8hardware4gnss10IGnssDebug13SatelliteDataE"
   ]
  },
  {
   "function_name" : "ndk::AParcel_readStdVectorParcelableElement",
   "linker_set_key" : "_ZN3ndk38AParcel_readStdVectorParcelableElementIN4aidl7android8hardware4gnss12GnssLocationEEEiPK7AParcelPvj",
   "parameters" :
   [
    {
     "referenced_type" : "_ZTIPK7AParcel"
    },
    {
     "referenced_type" : "_ZTIPv"
    },
    {
     "referenced_type" : "_ZTIj"
    }
   ],
   "return_type" : "_ZTIi",
   "source_file" : "frameworks/native/libs/binder/ndk/include_cpp/android/binder_parcel_utils.h",
   "template_args" :
   [
    "_ZTIN4aidl7android8hardware4gnss12GnssLocationE"
   ]
  },
  {
   "function_name" : "ndk::AParcel_readStdVectorParcelableElement",
   "linker_set_key" : "_ZN3ndk38AParcel_readStdVectorParcelableElementIN4aidl7android8hardware4gnss13IGnssCallback10GnssSvInfoEEEiPK7AParcelPvj",
   "parameters" :
   [
    {
     "referenced_type" : "_ZTIPK7AParcel"
    },
    {
     "referenced_type" : "_ZTIPv"
    },
    {
     "referenced_type" : "_ZTIj"
    }
   ],
   "return_type" : "_ZTIi",
   "source_file" : "frameworks/native/libs/binder/ndk/include_cpp/android/binder_parcel_utils.h",
   "template_args" :
   [
    "_ZTIN4aidl7android8hardware4gnss13IGnssCallback10GnssSvInfoE"
   ]
  },
  {
   "function_name" : "ndk::AParcel_readStdVectorParcelableElement",
   "linker_set_key" : "_ZN3ndk38AParcel_readStdVectorParcelableElementIN4aidl7android8hardware4gnss15GnssMeasurementEEEiPK7AParcelPvj",
   "parameters" :
   [
    {
     "referenced_type" : "_ZTIPK7AParcel"
    },
    {
     "referenced_type" : "_ZTIPv"
    },
    {
     "referenced_type" : "_ZTIj"
    }
   ],
   "return_type" : "_ZTIi",
   "source_file" : "frameworks/native/libs/binder/ndk/include_cpp/android/binder_parcel_utils.h",
   "template_args" :
   [
    "_ZTIN4aidl7android8hardware4gnss15GnssMeasurementE"
   ]
  },
  {
   "function_name" : "ndk::AParcel_readStdVectorParcelableElement",
   "linker_set_key" : "_ZN3ndk38AParcel_readStdVectorParcelableElementIN4aidl7android8hardware4gnss17BlocklistedSourceEEEiPK7AParcelPvj",
   "parameters" :
   [
    {
     "referenced_type" : "_ZTIPK7AParcel"
    },
    {
     "referenced_type" : "_ZTIPv"
    },
    {
     "referenced_type" : "_ZTIj"
    }
   ],
   "return_type" : "_ZTIi",
   "source_file" : "frameworks/native/libs/binder/ndk/include_cpp/android/binder_parcel_utils.h",
   "template_args" :
   [
    "_ZTIN4aidl7android8hardware4gnss17BlocklistedSourceE"
   ]
  },
  {
   "function_name" : "ndk::AParcel_readStdVectorParcelableElement",
