<abi-corpus version='2.1' path='data/test-read-dwarf/test11-pr18828.so'>
  <elf-needed>
    <dependency name='build/debug/mongo/db/libserver_parameters.so'/>
    <dependency name='build/debug/mongo/libbase.so'/>
    <dependency name='build/debug/mongo/platform/libplatform.so'/>
    <dependency name='build/debug/mongo/util/concurrency/libsynchronization.so'/>
    <dependency name='build/debug/mongo/util/libdebugger.so'/>
    <dependency name='build/debug/mongo/util/libfoundation.so'/>
    <dependency name='build/debug/mongo/util/libquick_exit.so'/>
    <dependency name='build/debug/mongo/util/options_parser/liboptions_parser.so'/>
    <dependency name='build/debug/third_party/boost-1.56.0/libboost_chrono.so'/>
    <dependency name='build/debug/third_party/boost-1.56.0/libboost_filesystem.so'/>
    <dependency name='build/debug/third_party/boost-1.56.0/libboost_program_options.so'/>
    <dependency name='build/debug/third_party/boost-1.56.0/libboost_system.so'/>
    <dependency name='build/debug/third_party/boost-1.56.0/libboost_thread.so'/>
    <dependency name='build/debug/third_party/gperftools-2.2/libtcmalloc_minimal.so'/>
    <dependency name='build/debug/third_party/libshim_allocator.so'/>
    <dependency name='build/debug/third_party/libshim_boost.so'/>
    <dependency name='build/debug/third_party/libshim_pcrecpp.so'/>
    <dependency name='build/debug/third_party/libshim_tz.so'/>
    <dependency name='build/debug/third_party/libshim_yaml.so'/>
    <dependency name='build/debug/third_party/murmurhash3/libmurmurhash3.so'/>
    <dependency name='build/debug/third_party/pcre-8.37/libpcrecpp.so'/>
    <dependency name='build/debug/third_party/yaml-cpp-0.5.1/libyaml.so'/>
    <dependency name='libssl.so.1.0.0'/>
    <dependency name='libcrypto.so.1.0.0'/>
    <dependency name='librt.so.1'/>
    <dependency name='libdl.so.2'/>
    <dependency name='libstdc++.so.6'/>
    <dependency name='libm.so.6'/>
    <dependency name='libgcc_s.so.1'/>
    <dependency name='libpthread.so.0'/>
    <dependency name='libc.so.6'/>
  </elf-needed>
  <elf-function-symbols>
    <elf-symbol name='_ZN10mongoutils3str6streamC1Ev' type='func-type' binding='weak-binding' visibility='default-visibility' alias='_ZN10mongoutils3str6streamC2Ev' is-defined='yes'/>
    <elf-symbol name='_ZN10mongoutils3str6streamC2Ev' type='func-type' binding='weak-binding' visibility='default-visibility' is-defined='yes'/>
    <elf-symbol name='_ZN10mongoutils3str6streamD1Ev' type='func-type' binding='weak-binding' visibility='default-visibility' alias='_ZN10mongoutils3str6streamD2Ev' is-defined='yes'/>
    <elf-symbol name='_ZN10mongoutils3str6streamD2Ev' type='func-type' binding='weak-binding' visibility='default-visibility' is-defined='yes'/>
    <elf-symbol name='_ZN10mongoutils3str6streamlsIA42_cEERS1_RKT_' type='func-type' binding='weak-binding' visibility='default-visibility' is-defined='yes'/>
    <elf-symbol name='_ZN10mongoutils3str6streamlsIA50_cEERS1_RKT_' type='func-type' binding='weak-binding' visibility='default-visibility' is-defined='yes'/>
    <elf-symbol name='_ZN10mongoutils3str6streamlsIiEERS1_RKT_' type='func-type' binding='weak-binding' visibility='default-visibility' is-defined='yes'/>
    <elf-symbol name='_ZN5boost13intrusive_ptrIN5mongo12SharedBuffer6HolderEEC1Ev' type='func-type' binding='weak-binding' visibility='default-visibility' is-defined='yes'/>
    <elf-symbol name='_ZN5boost13intrusive_ptrIN5mongo12SharedBuffer6HolderEEC2Ev' type='func-type' binding='weak-binding' visibility='default-visibility' alias='_ZN5boost13intrusive_ptrIN5mongo12SharedBuffer6HolderEEC1Ev' is-defined='yes'/>
    <elf-symbol name='_ZN5boost13intrusive_ptrIN5mongo12SharedBuffer6HolderEED1Ev' type='func-type' binding='weak-binding' visibility='default-visibility' is-defined='yes'/>
    <elf-symbol name='_ZN5boost13intrusive_ptrIN5mongo12SharedBuffer6HolderEED2Ev' type='func-type' binding='weak-binding' visibility='default-visibility' alias='_ZN5boost13intrusive_ptrIN5mongo12SharedBuffer6HolderEED1Ev' is-defined='yes'/>
    <elf-symbol name='_ZN5mongo10AtomicWordIjE16fetchAndSubtractEj' type='func-type' binding='weak-binding' visibility='default-visibility' is-defined='yes'/>
    <elf-symbol name='_ZN5mongo10AtomicWordIjE16subtractAndFetchEj' type='func-type' binding='weak-binding' visibility='default-visibility' is-defined='yes'/>
    <elf-symbol name='_ZN5mongo10StringDataC1EPKc' type='func-type' binding='weak-binding' visibility='default-visibility' is-defined='yes'/>
    <elf-symbol name='_ZN5mongo10StringDataC1ERKSs' type='func-type' binding='weak-binding' visibility='default-visibility' is-defined='yes'/>
    <elf-symbol name='_ZN5mongo10StringDataC1Ev' type='func-type' binding='weak-binding' visibility='default-visibility' is-defined='yes'/>
    <elf-symbol name='_ZN5mongo10StringDataC2EPKc' type='func-type' binding='weak-binding' visibility='default-visibility' alias='_ZN5mongo10StringDataC1EPKc' is-defined='yes'/>
    <elf-symbol name='_ZN5mongo10StringDataC2ERKSs' type='func-type' binding='weak-binding' visibility='default-visibility' alias='_ZN5mongo10StringDataC1ERKSs' is-defined='yes'/>
    <elf-symbol name='_ZN5mongo10StringDataC2Ev' type='func-type' binding='weak-binding' visibility='default-visibility' alias='_ZN5mongo10StringDataC1Ev' is-defined='yes'/>
    <elf-symbol name='_ZN5mongo11DBException10addContextERKSs' type='func-type' binding='weak-binding' visibility='default-visibility' is-defined='yes'/>
    <elf-symbol name='_ZN5mongo11DBExceptionC1ERKSsi' type='func-type' binding='weak-binding' visibility='default-visibility' is-defined='yes'/>
    <elf-symbol name='_ZN5mongo11DBExceptionC2ERKSsi' type='func-type' binding='weak-binding' visibility='default-visibility' alias='_ZN5mongo11DBExceptionC1ERKSsi' is-defined='yes'/>
    <elf-symbol name='_ZN5mongo11DBExceptionD0Ev' type='func-type' binding='weak-binding' visibility='default-visibility' is-defined='yes'/>
    <elf-symbol name='_ZN5mongo11DBExceptionD1Ev' type='func-type' binding='weak-binding' visibility='default-visibility' is-defined='yes'/>
    <elf-symbol name='_ZN5mongo11DBExceptionD2Ev' type='func-type' binding='weak-binding' visibility='default-visibility' alias='_ZN5mongo11DBExceptionD1Ev' is-defined='yes'/>
    <elf-symbol name='_ZN5mongo11_BufBuilderINS_16TrivialAllocatorEE12reserveBytesEi' type='func-type' binding='weak-binding' visibility='default-visibility' is-defined='yes'/>
    <elf-symbol name='_ZN5mongo11_BufBuilderINS_16TrivialAllocatorEE13appendNumImplIcEEvT_' type='func-type' binding='weak-binding' visibility='default-visibility' is-defined='yes'/>
    <elf-symbol name='_ZN5mongo11_BufBuilderINS_16TrivialAllocatorEE13appendNumImplIiEEvT_' type='func-type' binding='weak-binding' visibility='default-visibility' is-defined='yes'/>
    <elf-symbol name='_ZN5mongo11_BufBuilderINS_16TrivialAllocatorEE15grow_reallocateEi' type='func-type' binding='weak-binding' visibility='default-visibility' is-defined='yes'/>
    <elf-symbol name='_ZN5mongo11_BufBuilderINS_16TrivialAllocatorEE18claimReservedBytesEi' type='func-type' binding='weak-binding' visibility='default-visibility' is-defined='yes'/>
    <elf-symbol name='_ZN5mongo11_BufBuilderINS_16TrivialAllocatorEE3bufEv' type='func-type' binding='weak-binding' visibility='default-visibility' is-defined='yes'/>
    <elf-symbol name='_ZN5mongo11_BufBuilderINS_16TrivialAllocatorEE4growEi' type='func-type' binding='weak-binding' visibility='default-visibility' is-defined='yes'/>
    <elf-symbol name='_ZN5mongo11_BufBuilderINS_16TrivialAllocatorEE4killEv' type='func-type' binding='weak-binding' visibility='default-visibility' is-defined='yes'/>
    <elf-symbol name='_ZN5mongo11_BufBuilderINS_16TrivialAllocatorEE4skipEi' type='func-type' binding='weak-binding' visibility='default-visibility' is-defined='yes'/>
    <elf-symbol name='_ZN5mongo11_BufBuilderINS_16TrivialAllocatorEE9appendBufEPKvm' type='func-type' binding='weak-binding' visibility='default-visibility' is-defined='yes'/>
    <elf-symbol name='_ZN5mongo11_BufBuilderINS_16TrivialAllocatorEE9appendNumEc' type='func-type' binding='weak-binding' visibility='default-visibility' is-defined='yes'/>
    <elf-symbol name='_ZN5mongo11_BufBuilderINS_16TrivialAllocatorEE9appendNumEi' type='func-type' binding='weak-binding' visibility='default-visibility' is-defined='yes'/>
    <elf-symbol name='_ZN5mongo11_BufBuilderINS_16TrivialAllocatorEE9appendStrENS_10StringDataEb' type='func-type' binding='weak-binding' visibility='default-visibility' is-defined='yes'/>
    <elf-symbol name='_ZN5mongo11_BufBuilderINS_16TrivialAllocatorEEC1Ei' type='func-type' binding='weak-binding' visibility='default-visibility' is-defined='yes'/>
    <elf-symbol name='_ZN5mongo11_BufBuilderINS_16TrivialAllocatorEEC2Ei' type='func-type' binding='weak-binding' visibility='default-visibility' alias='_ZN5mongo11_BufBuilderINS_16TrivialAllocatorEEC1Ei' is-defined='yes'/>
    <elf-symbol name='_ZN5mongo11_BufBuilderINS_16TrivialAllocatorEED1Ev' type='func-type' binding='weak-binding' visibility='default-visibility' is-defined='yes'/>
    <elf-symbol name='_ZN5mongo11_BufBuilderINS_16TrivialAllocatorEED2Ev' type='func-type' binding='weak-binding' visibility='default-visibility' alias='_ZN5mongo11_BufBuilderINS_16TrivialAllocatorEED1Ev' is-defined='yes'/>
    <elf-symbol name='_ZN5mongo12LittleEndianIcEC1Ec' type='func-type' binding='weak-binding' visibility='default-visibility' is-defined='yes'/>
    <elf-symbol name='_ZN5mongo12LittleEndianIcEC2Ec' type='func-type' binding='weak-binding' visibility='default-visibility' alias='_ZN5mongo12LittleEndianIcEC1Ec' is-defined='yes'/>
    <elf-symbol name='_ZN5mongo12LittleEndianIiEC1Ei' type='func-type' binding='weak-binding' visibility='default-visibility' is-defined='yes'/>
    <elf-symbol name='_ZN5mongo12LittleEndianIiEC2Ei' type='func-type' binding='weak-binding' visibility='default-visibility' alias='_ZN5mongo12LittleEndianIiEC1Ei' is-defined='yes'/>
    <elf-symbol name='_ZN5mongo12SharedBufferC1Ev' type='func-type' binding='weak-binding' visibility='default-visibility' is-defined='yes'/>
    <elf-symbol name='_ZN5mongo12SharedBufferC2Ev' type='func-type' binding='weak-binding' visibility='default-visibility' alias='_ZN5mongo12SharedBufferC1Ev' is-defined='yes'/>
    <elf-symbol name='_ZN5mongo12SharedBufferD1Ev' type='func-type' binding='weak-binding' visibility='default-visibility' alias='_ZN5mongo12SharedBufferD2Ev' is-defined='yes'/>
    <elf-symbol name='_ZN5mongo12SharedBufferD2Ev' type='func-type' binding='weak-binding' visibility='default-visibility' is-defined='yes'/>
    <elf-symbol name='_ZN5mongo13ConstDataViewC1EPKc' type='func-type' binding='weak-binding' visibility='default-visibility' is-defined='yes'/>
    <elf-symbol name='_ZN5mongo13ConstDataViewC2EPKc' type='func-type' binding='weak-binding' visibility='default-visibility' alias='_ZN5mongo13ConstDataViewC1EPKc' is-defined='yes'/>
    <elf-symbol name='_ZN5mongo13ExceptionInfoC1ERKSsi' type='func-type' binding='weak-binding' visibility='default-visibility' is-defined='yes'/>
    <elf-symbol name='_ZN5mongo13ExceptionInfoC2ERKSsi' type='func-type' binding='weak-binding' visibility='default-visibility' alias='_ZN5mongo13ExceptionInfoC1ERKSsi' is-defined='yes'/>
    <elf-symbol name='_ZN5mongo13ExceptionInfoD1Ev' type='func-type' binding='weak-binding' visibility='default-visibility' alias='_ZN5mongo13ExceptionInfoD2Ev' is-defined='yes'/>
    <elf-symbol name='_ZN5mongo13ExceptionInfoD2Ev' type='func-type' binding='weak-binding' visibility='default-visibility' is-defined='yes'/>
    <elf-symbol name='_ZN5mongo14BSONObjBuilder11appendArrayENS_10StringDataERKNS_7BSONObjE' type='func-type' binding='weak-binding' visibility='default-visibility' is-defined='yes'/>
    <elf-symbol name='_ZN5mongo14BSONObjBuilder4doneEv' type='func-type' binding='weak-binding' visibility='default-visibility' is-defined='yes'/>
    <elf-symbol name='_ZN5mongo14BSONObjBuilder5_doneEv' type='func-type' binding='weak-binding' visibility='default-visibility' is-defined='yes'/>
    <elf-symbol name='_ZN5mongo14BSONObjBuilder6appendENS_10StringDataEPKci' type='func-type' binding='weak-binding' visibility='default-visibility' is-defined='yes'/>
    <elf-symbol name='_ZN5mongo14BSONObjBuilder6appendENS_10StringDataERKSs' type='func-type' binding='weak-binding' visibility='default-visibility' is-defined='yes'/>
    <elf-symbol name='_ZN5mongo14BSONObjBuilder6appendENS_10StringDataEi' type='func-type' binding='weak-binding' visibility='default-visibility' is-defined='yes'/>
    <elf-symbol name='_ZN5mongo14BSONObjBuilder6appendISsEERS0_NS_10StringDataERKSt6vectorIT_SaIS5_EE' type='func-type' binding='weak-binding' visibility='default-visibility' is-defined='yes'/>
    <elf-symbol name='_ZN5mongo14BSONObjBuilder6numStrEi' type='func-type' binding='weak-binding' visibility='default-visibility' is-defined='yes'/>
    <elf-symbol name='_ZN5mongo14BSONObjBuilderC1Ei' type='func-type' binding='weak-binding' visibility='default-visibility' is-defined='yes'/>
    <elf-symbol name='_ZN5mongo14BSONObjBuilderC2Ei' type='func-type' binding='weak-binding' visibility='default-visibility' alias='_ZN5mongo14BSONObjBuilderC1Ei' is-defined='yes'/>
    <elf-symbol name='_ZN5mongo14BSONObjBuilderD1Ev' type='func-type' binding='weak-binding' visibility='default-visibility' is-defined='yes'/>
    <elf-symbol name='_ZN5mongo14BSONObjBuilderD2Ev' type='func-type' binding='weak-binding' visibility='default-visibility' alias='_ZN5mongo14BSONObjBuilderD1Ev' is-defined='yes'/>
    <elf-symbol name='_ZN5mongo14addSASLOptionsEPNS_17optionenvironment13OptionSectionE' type='func-type' binding='global-binding' visibility='default-visibility' is-defined='yes'/>
    <elf-symbol name='_ZN5mongo15BSONSizeTracker3gotEi' type='func-type' binding='weak-binding' visibility='default-visibility' is-defined='yes'/>
    <elf-symbol name='_ZN5mongo15tagLittleEndianIcEENS_12LittleEndianIT_EES2_' type='func-type' binding='weak-binding' visibility='default-visibility' is-defined='yes'/>
    <elf-symbol name='_ZN5mongo15tagLittleEndianIiEENS_12LittleEndianIT_EES2_' type='func-type' binding='weak-binding' visibility='default-visibility' is-defined='yes'/>
    <elf-symbol name='_ZN5mongo16SASLGlobalParamsC1Ev' type='func-type' binding='global-binding' visibility='default-visibility' is-defined='yes'/>
    <elf-symbol name='_ZN5mongo16SASLGlobalParamsC2Ev' type='func-type' binding='global-binding' visibility='default-visibility' alias='_ZN5mongo16SASLGlobalParamsC1Ev' is-defined='yes'/>
    <elf-symbol name='_ZN5mongo16SASLGlobalParamsD1Ev' type='func-type' binding='weak-binding' visibility='default-visibility' alias='_ZN5mongo16SASLGlobalParamsD2Ev' is-defined='yes'/>
    <elf-symbol name='_ZN5mongo16SASLGlobalParamsD2Ev' type='func-type' binding='weak-binding' visibility='default-visibility' is-defined='yes'/>
    <elf-symbol name='_ZN5mongo16TrivialAllocator4FreeEPv' type='func-type' binding='weak-binding' visibility='default-visibility' is-defined='yes'/>
    <elf-symbol name='_ZN5mongo16TrivialAllocator6MallocEm' type='func-type' binding='weak-binding' visibility='default-visibility' is-defined='yes'/>
    <elf-symbol name='_ZN5mongo16TrivialAllocator7ReallocEPvm' type='func-type' binding='weak-binding' visibility='default-visibility' is-defined='yes'/>
    <elf-symbol name='_ZN5mongo16storeSASLOptionsERKNS_17optionenvironment11EnvironmentE' type='func-type' binding='global-binding' visibility='default-visibility' is-defined='yes'/>
    <elf-symbol name='_ZN5mongo17StringBuilderImplINS_16TrivialAllocatorEE5SBNUMIiEERS2_T_iPKc' type='func-type' binding='weak-binding' visibility='default-visibility' is-defined='yes'/>
    <elf-symbol name='_ZN5mongo17StringBuilderImplINS_16TrivialAllocatorEE6appendENS_10StringDataE' type='func-type' binding='weak-binding' visibility='default-visibility' is-defined='yes'/>
    <elf-symbol name='_ZN5mongo17StringBuilderImplINS_16TrivialAllocatorEEC1Ev' type='func-type' binding='weak-binding' visibility='default-visibility' is-defined='yes'/>
    <elf-symbol name='_ZN5mongo17StringBuilderImplINS_16TrivialAllocatorEEC2Ev' type='func-type' binding='weak-binding' visibility='default-visibility' alias='_ZN5mongo17StringBuilderImplINS_16TrivialAllocatorEEC1Ev' is-defined='yes'/>
    <elf-symbol name='_ZN5mongo17StringBuilderImplINS_16TrivialAllocatorEED1Ev' type='func-type' binding='weak-binding' visibility='default-visibility' alias='_ZN5mongo17StringBuilderImplINS_16TrivialAllocatorEED2Ev' is-defined='yes'/>
    <elf-symbol name='_ZN5mongo17StringBuilderImplINS_16TrivialAllocatorEED2Ev' type='func-type' binding='weak-binding' visibility='default-visibility' is-defined='yes'/>
    <elf-symbol name='_ZN5mongo17StringBuilderImplINS_16TrivialAllocatorEElsENS_10StringDataE' type='func-type' binding='weak-binding' visibility='default-visibility' is-defined='yes'/>
    <elf-symbol name='_ZN5mongo17StringBuilderImplINS_16TrivialAllocatorEElsEPKc' type='func-type' binding='weak-binding' visibility='default-visibility' is-defined='yes'/>
    <elf-symbol name='_ZN5mongo17StringBuilderImplINS_16TrivialAllocatorEElsEi' type='func-type' binding='weak-binding' visibility='default-visibility' is-defined='yes'/>
    <elf-symbol name='_ZN5mongo17optionenvironment13OptionSectionC1ERKSs' type='func-type' binding='weak-binding' visibility='default-visibility' is-defined='yes'/>
    <elf-symbol name='_ZN5mongo17optionenvironment13OptionSectionC2ERKSs' type='func-type' binding='weak-binding' visibility='default-visibility' alias='_ZN5mongo17optionenvironment13OptionSectionC1ERKSs' is-defined='yes'/>
    <elf-symbol name='_ZN5mongo17optionenvironment13OptionSectionD1Ev' type='func-type' binding='weak-binding' visibility='default-visibility' alias='_ZN5mongo17optionenvironment13OptionSectionD2Ev' is-defined='yes'/>
    <elf-symbol name='_ZN5mongo17optionenvironment13OptionSectionD2Ev' type='func-type' binding='weak-binding' visibility='default-visibility' is-defined='yes'/>
    <elf-symbol name='_ZN5mongo17optionenvironment17OptionDescriptionD1Ev' type='func-type' binding='weak-binding' visibility='default-visibility' alias='_ZN5mongo17optionenvironment17OptionDescriptionD2Ev' is-defined='yes'/>
    <elf-symbol name='_ZN5mongo17optionenvironment17OptionDescriptionD2Ev' type='func-type' binding='weak-binding' visibility='default-visibility' is-defined='yes'/>
    <elf-symbol name='_ZN5mongo17optionenvironment5ValueD1Ev' type='func-type' binding='weak-binding' visibility='default-visibility' alias='_ZN5mongo17optionenvironment5ValueD2Ev' is-defined='yes'/>
    <elf-symbol name='_ZN5mongo17optionenvironment5ValueD2Ev' type='func-type' binding='weak-binding' visibility='default-visibility' is-defined='yes'/>
    <elf-symbol name='_ZN5mongo18AssertionExceptionC1ERKSsi' type='func-type' binding='weak-binding' visibility='default-visibility' is-defined='yes'/>
    <elf-symbol name='_ZN5mongo18AssertionExceptionC2ERKSsi' type='func-type' binding='weak-binding' visibility='default-visibility' alias='_ZN5mongo18AssertionExceptionC1ERKSsi' is-defined='yes'/>
    <elf-symbol name='_ZN5mongo18AssertionExceptionD0Ev' type='func-type' binding='weak-binding' visibility='default-visibility' is-defined='yes'/>
    <elf-symbol name='_ZN5mongo18AssertionExceptionD1Ev' type='func-type' binding='weak-binding' visibility='default-visibility' is-defined='yes'/>
    <elf-symbol name='_ZN5mongo18AssertionExceptionD2Ev' type='func-type' binding='weak-binding' visibility='default-visibility' alias='_ZN5mongo18AssertionExceptionD1Ev' is-defined='yes'/>
    <elf-symbol name='_ZN5mongo21MsgAssertionExceptionC1EiRKSs' type='func-type' binding='weak-binding' visibility='default-visibility' is-defined='yes'/>
    <elf-symbol name='_ZN5mongo21MsgAssertionExceptionC2EiRKSs' type='func-type' binding='weak-binding' visibility='default-visibility' alias='_ZN5mongo21MsgAssertionExceptionC1EiRKSs' is-defined='yes'/>
    <elf-symbol name='_ZN5mongo21MsgAssertionExceptionD0Ev' type='func-type' binding='weak-binding' visibility='default-visibility' is-defined='yes'/>
    <elf-symbol name='_ZN5mongo21MsgAssertionExceptionD1Ev' type='func-type' binding='weak-binding' visibility='default-visibility' alias='_ZN5mongo21MsgAssertionExceptionD2Ev' is-defined='yes'/>
    <elf-symbol name='_ZN5mongo21MsgAssertionExceptionD2Ev' type='func-type' binding='weak-binding' visibility='default-visibility' is-defined='yes'/>
    <elf-symbol name='_ZN5mongo21intrusive_ptr_releaseEPNS_12SharedBuffer6HolderE' type='func-type' binding='weak-binding' visibility='default-visibility' is-defined='yes'/>
    <elf-symbol name='_ZN5mongo23ExportedServerParameterISsE3setERKNS_11BSONElementE' type='func-type' binding='weak-binding' visibility='default-visibility' is-defined='yes'/>
    <elf-symbol name='_ZN5mongo23ExportedServerParameterISsE3setERKSs' type='func-type' binding='weak-binding' visibility='default-visibility' is-defined='yes'/>
    <elf-symbol name='_ZN5mongo23ExportedServerParameterISsE6appendEPNS_16OperationContextERNS_14BSONObjBuilderERKSs' type='func-type' binding='weak-binding' visibility='default-visibility' is-defined='yes'/>
    <elf-symbol name='_ZN5mongo23ExportedServerParameterISsE8validateERKSs' type='func-type' binding='weak-binding' visibility='default-visibility' is-defined='yes'/>
    <elf-symbol name='_ZN5mongo23ExportedServerParameterISsEC1EPNS_18ServerParameterSetERKSsPSsbb' type='func-type' binding='weak-binding' visibility='default-visibility' is-defined='yes'/>
    <elf-symbol name='_ZN5mongo23ExportedServerParameterISsEC2EPNS_18ServerParameterSetERKSsPSsbb' type='func-type' binding='weak-binding' visibility='default-visibility' alias='_ZN5mongo23ExportedServerParameterISsEC1EPNS_18ServerParameterSetERKSsPSsbb' is-defined='yes'/>
    <elf-symbol name='_ZN5mongo23ExportedServerParameterISsED0Ev' type='func-type' binding='weak-binding' visibility='default-visibility' is-defined='yes'/>
    <elf-symbol name='_ZN5mongo23ExportedServerParameterISsED1Ev' type='func-type' binding='weak-binding' visibility='default-visibility' is-defined='yes'/>
    <elf-symbol name='_ZN5mongo23ExportedServerParameterISsED2Ev' type='func-type' binding='weak-binding' visibility='default-visibility' alias='_ZN5mongo23ExportedServerParameterISsED1Ev' is-defined='yes'/>
    <elf-symbol name='_ZN5mongo23ExportedServerParameterISt6vectorISsSaISsEEE3setERKNS_11BSONElementE' type='func-type' binding='weak-binding' visibility='default-visibility' is-defined='yes'/>
    <elf-symbol name='_ZN5mongo23ExportedServerParameterISt6vectorISsSaISsEEE3setERKS3_' type='func-type' binding='weak-binding' visibility='default-visibility' is-defined='yes'/>
    <elf-symbol name='_ZN5mongo23ExportedServerParameterISt6vectorISsSaISsEEE6appendEPNS_16OperationContextERNS_14BSONObjBuilderERKSs' type='func-type' binding='weak-binding' visibility='default-visibility' is-defined='yes'/>
    <elf-symbol name='_ZN5mongo23ExportedServerParameterISt6vectorISsSaISsEEE8validateERKS3_' type='func-type' binding='weak-binding' visibility='default-visibility' is-defined='yes'/>
    <elf-symbol name='_ZN5mongo23ExportedServerParameterISt6vectorISsSaISsEEEC1EPNS_18ServerParameterSetERKSsPS3_bb' type='func-type' binding='weak-binding' visibility='default-visibility' is-defined='yes'/>
    <elf-symbol name='_ZN5mongo23ExportedServerParameterISt6vectorISsSaISsEEEC2EPNS_18ServerParameterSetERKSsPS3_bb' type='func-type' binding='weak-binding' visibility='default-visibility' alias='_ZN5mongo23ExportedServerParameterISt6vectorISsSaISsEEEC1EPNS_18ServerParameterSetERKSsPS3_bb' is-defined='yes'/>
    <elf-symbol name='_ZN5mongo23ExportedServerParameterISt6vectorISsSaISsEEED0Ev' type='func-type' binding='weak-binding' visibility='default-visibility' is-defined='yes'/>
    <elf-symbol name='_ZN5mongo23ExportedServerParameterISt6vectorISsSaISsEEED1Ev' type='func-type' binding='weak-binding' visibility='default-visibility' is-defined='yes'/>
    <elf-symbol name='_ZN5mongo23ExportedServerParameterISt6vectorISsSaISsEEED2Ev' type='func-type' binding='weak-binding' visibility='default-visibility' alias='_ZN5mongo23ExportedServerParameterISt6vectorISsSaISsEEED1Ev' is-defined='yes'/>
    <elf-symbol name='_ZN5mongo23ExportedServerParameterIiE3setERKNS_11BSONElementE' type='func-type' binding='weak-binding' visibility='default-visibility' is-defined='yes'/>
    <elf-symbol name='_ZN5mongo23ExportedServerParameterIiE3setERKi' type='func-type' binding='weak-binding' visibility='default-visibility' is-defined='yes'/>
    <elf-symbol name='_ZN5mongo23ExportedServerParameterIiE6appendEPNS_16OperationContextERNS_14BSONObjBuilderERKSs' type='func-type' binding='weak-binding' visibility='default-visibility' is-defined='yes'/>
    <elf-symbol name='_ZN5mongo23ExportedServerParameterIiE8validateERKi' type='func-type' binding='weak-binding' visibility='default-visibility' is-defined='yes'/>
    <elf-symbol name='_ZN5mongo23ExportedServerParameterIiEC1EPNS_18ServerParameterSetERKSsPibb' type='func-type' binding='weak-binding' visibility='default-visibility' is-defined='yes'/>
    <elf-symbol name='_ZN5mongo23ExportedServerParameterIiEC2EPNS_18ServerParameterSetERKSsPibb' type='func-type' binding='weak-binding' visibility='default-visibility' alias='_ZN5mongo23ExportedServerParameterIiEC1EPNS_18ServerParameterSetERKSsPibb' is-defined='yes'/>
    <elf-symbol name='_ZN5mongo23ExportedServerParameterIiED0Ev' type='func-type' binding='weak-binding' visibility='default-visibility' is-defined='yes'/>
    <elf-symbol name='_ZN5mongo23ExportedServerParameterIiED1Ev' type='func-type' binding='weak-binding' visibility='default-visibility' is-defined='yes'/>
    <elf-symbol name='_ZN5mongo23ExportedServerParameterIiED2Ev' type='func-type' binding='weak-binding' visibility='default-visibility' alias='_ZN5mongo23ExportedServerParameterIiED1Ev' is-defined='yes'/>
    <elf-symbol name='_ZN5mongo25BSONObjBuilderValueStreamD1Ev' type='func-type' binding='weak-binding' visibility='default-visibility' alias='_ZN5mongo25BSONObjBuilderValueStreamD2Ev' is-defined='yes'/>
    <elf-symbol name='_ZN5mongo25BSONObjBuilderValueStreamD2Ev' type='func-type' binding='weak-binding' visibility='default-visibility' is-defined='yes'/>
    <elf-symbol name='_ZN5mongo36ExportedScramIterationCountParameter8validateERKi' type='func-type' binding='weak-binding' visibility='default-visibility' is-defined='yes'/>
    <elf-symbol name='_ZN5mongo36ExportedScramIterationCountParameterC1Ev' type='func-type' binding='weak-binding' visibility='default-visibility' is-defined='yes'/>
    <elf-symbol name='_ZN5mongo36ExportedScramIterationCountParameterC2Ev' type='func-type' binding='weak-binding' visibility='default-visibility' alias='_ZN5mongo36ExportedScramIterationCountParameterC1Ev' is-defined='yes'/>
    <elf-symbol name='_ZN5mongo36ExportedScramIterationCountParameterD0Ev' type='func-type' binding='weak-binding' visibility='default-visibility' is-defined='yes'/>
    <elf-symbol name='_ZN5mongo36ExportedScramIterationCountParameterD1Ev' type='func-type' binding='weak-binding' visibility='default-visibility' is-defined='yes'/>
    <elf-symbol name='_ZN5mongo36ExportedScramIterationCountParameterD2Ev' type='func-type' binding='weak-binding' visibility='default-visibility' alias='_ZN5mongo36ExportedScramIterationCountParameterD1Ev' is-defined='yes'/>
    <elf-symbol name='_ZN5mongo43_mongoInitializerFunction_SASLOptions_StoreEPNS_18InitializerContextE' type='func-type' binding='global-binding' visibility='default-visibility' is-defined='yes'/>
    <elf-symbol name='_ZN5mongo46_mongoInitializerFunction_SASLOptions_RegisterEPNS_18InitializerContextE' type='func-type' binding='global-binding' visibility='default-visibility' is-defined='yes'/>
    <elf-symbol name='_ZN5mongo6Status2OKEv' type='func-type' binding='weak-binding' visibility='default-visibility' is-defined='yes'/>
    <elf-symbol name='_ZN5mongo6Status5unrefEPNS0_9ErrorInfoE' type='func-type' binding='weak-binding' visibility='default-visibility' is-defined='yes'/>
    <elf-symbol name='_ZN5mongo6Status9ErrorInfoD1Ev' type='func-type' binding='weak-binding' visibility='default-visibility' alias='_ZN5mongo6Status9ErrorInfoD2Ev' is-defined='yes'/>
    <elf-symbol name='_ZN5mongo6Status9ErrorInfoD2Ev' type='func-type' binding='weak-binding' visibility='default-visibility' is-defined='yes'/>
    <elf-symbol name='_ZN5mongo6StatusC1EOS0_' type='func-type' binding='weak-binding' visibility='default-visibility' is-defined='yes'/>
    <elf-symbol name='_ZN5mongo6StatusC1Ev' type='func-type' binding='weak-binding' visibility='default-visibility' is-defined='yes'/>
    <elf-symbol name='_ZN5mongo6StatusC2EOS0_' type='func-type' binding='weak-binding' visibility='default-visibility' alias='_ZN5mongo6StatusC1EOS0_' is-defined='yes'/>
    <elf-symbol name='_ZN5mongo6StatusC2Ev' type='func-type' binding='weak-binding' visibility='default-visibility' alias='_ZN5mongo6StatusC1Ev' is-defined='yes'/>
    <elf-symbol name='_ZN5mongo6StatusD1Ev' type='func-type' binding='weak-binding' visibility='default-visibility' is-defined='yes'/>
    <elf-symbol name='_ZN5mongo6StatusD2Ev' type='func-type' binding='weak-binding' visibility='default-visibility' alias='_ZN5mongo6StatusD1Ev' is-defined='yes'/>
    <elf-symbol name='_ZN5mongo6endian14littleToNativeIiEET_S2_' type='func-type' binding='weak-binding' visibility='default-visibility' is-defined='yes'/>
    <elf-symbol name='_ZN5mongo6endian14nativeToLittleIcEET_S2_' type='func-type' binding='weak-binding' visibility='default-visibility' is-defined='yes'/>
    <elf-symbol name='_ZN5mongo6endian14nativeToLittleIiEET_S2_' type='func-type' binding='weak-binding' visibility='default-visibility' is-defined='yes'/>
    <elf-symbol name='_ZN5mongo6endian18ByteOrderConverterIaE14nativeToLittleEa' type='func-type' binding='weak-binding' visibility='default-visibility' is-defined='yes'/>
    <elf-symbol name='_ZN5mongo6endian18ByteOrderConverterIiE14littleToNativeEi' type='func-type' binding='weak-binding' visibility='default-visibility' is-defined='yes'/>
    <elf-symbol name='_ZN5mongo6endian18ByteOrderConverterIiE14nativeToLittleEi' type='func-type' binding='weak-binding' visibility='default-visibility' is-defined='yes'/>
    <elf-symbol name='_ZN5mongo6logger10LogManager15getGlobalDomainEv' type='func-type' binding='weak-binding' visibility='default-visibility' is-defined='yes'/>
    <elf-symbol name='_ZN5mongo6logger11LogSeverity3LogEv' type='func-type' binding='weak-binding' visibility='default-visibility' is-defined='yes'/>
    <elf-symbol name='_ZN5mongo6logger11LogSeverityC1Ei' type='func-type' binding='weak-binding' visibility='default-visibility' is-defined='yes'/>
    <elf-symbol name='_ZN5mongo6logger11LogSeverityC2Ei' type='func-type' binding='weak-binding' visibility='default-visibility' alias='_ZN5mongo6logger11LogSeverityC1Ei' is-defined='yes'/>
    <elf-symbol name='_ZN5mongo6logger12LogComponentC1ENS1_5ValueE' type='func-type' binding='weak-binding' visibility='default-visibility' is-defined='yes'/>
    <elf-symbol name='_ZN5mongo6logger12LogComponentC2ENS1_5ValueE' type='func-type' binding='weak-binding' visibility='default-visibility' alias='_ZN5mongo6logger12LogComponentC1ENS1_5ValueE' is-defined='yes'/>
    <elf-symbol name='_ZN5mongo6logger15globalLogDomainEv' type='func-type' binding='weak-binding' visibility='default-visibility' is-defined='yes'/>
    <elf-symbol name='_ZN5mongo6logger16LogstreamBuilder6streamEv' type='func-type' binding='weak-binding' visibility='default-visibility' is-defined='yes'/>
    <elf-symbol name='_ZN5mongo6logger16LogstreamBuilderlsEPKc' type='func-type' binding='weak-binding' visibility='default-visibility' is-defined='yes'/>
    <elf-symbol name='_ZN5mongo6logger16LogstreamBuilderlsERKSs' type='func-type' binding='weak-binding' visibility='default-visibility' is-defined='yes'/>
    <elf-symbol name='_ZN5mongo7BSONObj4initEPKc' type='func-type' binding='weak-binding' visibility='default-visibility' is-defined='yes'/>
    <elf-symbol name='_ZN5mongo7BSONObjC1EPKc' type='func-type' binding='weak-binding' visibility='default-visibility' is-defined='yes'/>
    <elf-symbol name='_ZN5mongo7BSONObjC2EPKc' type='func-type' binding='weak-binding' visibility='default-visibility' alias='_ZN5mongo7BSONObjC1EPKc' is-defined='yes'/>
    <elf-symbol name='_ZN5mongo7BSONObjD1Ev' type='func-type' binding='weak-binding' visibility='default-visibility' alias='_ZN5mongo7BSONObjD2Ev' is-defined='yes'/>
    <elf-symbol name='_ZN5mongo7BSONObjD2Ev' type='func-type' binding='weak-binding' visibility='default-visibility' is-defined='yes'/>
    <elf-symbol name='_ZN5mongo8DataType10unsafeLoadINS_12LittleEndianIiEEEEvPT_PKcPm' type='func-type' binding='weak-binding' visibility='default-visibility' is-defined='yes'/>
    <elf-symbol name='_ZN5mongo8DataType10unsafeLoadIiEEvPT_PKcPm' type='func-type' binding='weak-binding' visibility='default-visibility' is-defined='yes'/>
    <elf-symbol name='_ZN5mongo8DataType11unsafeStoreINS_12LittleEndianIcEEEEvRKT_PcPm' type='func-type' binding='weak-binding' visibility='default-visibility' is-defined='yes'/>
    <elf-symbol name='_ZN5mongo8DataType11unsafeStoreINS_12LittleEndianIiEEEEvRKT_PcPm' type='func-type' binding='weak-binding' visibility='default-visibility' is-defined='yes'/>
    <elf-symbol name='_ZN5mongo8DataType11unsafeStoreIcEEvRKT_PcPm' type='func-type' binding='weak-binding' visibility='default-visibility' is-defined='yes'/>
    <elf-symbol name='_ZN5mongo8DataType11unsafeStoreIiEEvRKT_PcPm' type='func-type' binding='weak-binding' visibility='default-visibility' is-defined='yes'/>
    <elf-symbol name='_ZN5mongo8DataType16defaultConstructINS_12LittleEndianIiEEEET_v' type='func-type' binding='weak-binding' visibility='default-visibility' is-defined='yes'/>
    <elf-symbol name='_ZN5mongo8DataType16defaultConstructIiEET_v' type='func-type' binding='weak-binding' visibility='default-visibility' is-defined='yes'/>
    <elf-symbol name='_ZN5mongo8DataType7HandlerINS_12LittleEndianIcEEvE11unsafeStoreERKS3_PcPm' type='func-type' binding='weak-binding' visibility='default-visibility' is-defined='yes'/>
    <elf-symbol name='_ZN5mongo8DataType7HandlerINS_12LittleEndianIiEEvE10unsafeLoadEPS3_PKcPm' type='func-type' binding='weak-binding' visibility='default-visibility' is-defined='yes'/>
    <elf-symbol name='_ZN5mongo8DataType7HandlerINS_12LittleEndianIiEEvE11unsafeStoreERKS3_PcPm' type='func-type' binding='weak-binding' visibility='default-visibility' is-defined='yes'/>
    <elf-symbol name='_ZN5mongo8DataType7HandlerINS_12LittleEndianIiEEvE16defaultConstructEv' type='func-type' binding='weak-binding' visibility='default-visibility' is-defined='yes'/>
    <elf-symbol name='_ZN5mongo8DataType7HandlerIcvE11unsafeStoreERKcPcPm' type='func-type' binding='weak-binding' visibility='default-visibility' is-defined='yes'/>
    <elf-symbol name='_ZN5mongo8DataType7HandlerIivE10unsafeLoadEPiPKcPm' type='func-type' binding='weak-binding' visibility='default-visibility' is-defined='yes'/>
    <elf-symbol name='_ZN5mongo8DataType7HandlerIivE11unsafeStoreERKiPcPm' type='func-type' binding='weak-binding' visibility='default-visibility' is-defined='yes'/>
    <elf-symbol name='_ZN5mongo8DataType7HandlerIivE16defaultConstructEv' type='func-type' binding='weak-binding' visibility='default-visibility' is-defined='yes'/>
    <elf-symbol name='_ZN5mongo8DataView5writeINS_12LittleEndianIcEEEERS0_RKT_m' type='func-type' binding='weak-binding' visibility='default-visibility' is-defined='yes'/>
    <elf-symbol name='_ZN5mongo8DataView5writeINS_12LittleEndianIiEEEERS0_RKT_m' type='func-type' binding='weak-binding' visibility='default-visibility' is-defined='yes'/>
    <elf-symbol name='_ZN5mongo8DataViewC1EPc' type='func-type' binding='weak-binding' visibility='default-visibility' is-defined='yes'/>
    <elf-symbol name='_ZN5mongo8DataViewC2EPc' type='func-type' binding='weak-binding' visibility='default-visibility' alias='_ZN5mongo8DataViewC1EPc' is-defined='yes'/>
    <elf-symbol name='_ZN9__gnu_cxx13new_allocatorISsE10deallocateEPSsm' type='func-type' binding='weak-binding' visibility='default-visibility' is-defined='yes'/>
    <elf-symbol name='_ZN9__gnu_cxx13new_allocatorISsE7destroyISsEEvPT_' type='func-type' binding='weak-binding' visibility='default-visibility' is-defined='yes'/>
    <elf-symbol name='_ZN9__gnu_cxx13new_allocatorISsE8allocateEmPKv' type='func-type' binding='weak-binding' visibility='default-visibility' is-defined='yes'/>
    <elf-symbol name='_ZN9__gnu_cxx13new_allocatorISsE9constructISsISsEEEvPT_DpOT0_' type='func-type' binding='weak-binding' visibility='default-visibility' alias='_ZN9__gnu_cxx13new_allocatorISsE9constructISsJSsEEEvPT_DpOT0_' is-defined='yes'/>
    <elf-symbol name='_ZN9__gnu_cxx13new_allocatorISsE9constructISsJSsEEEvPT_DpOT0_' type='func-type' binding='weak-binding' visibility='default-visibility' is-defined='yes'/>
    <elf-symbol name='_ZN9__gnu_cxx13new_allocatorISsEC1ERKS1_' type='func-type' binding='weak-binding' visibility='default-visibility' is-defined='yes'/>
    <elf-symbol name='_ZN9__gnu_cxx13new_allocatorISsEC1Ev' type='func-type' binding='weak-binding' visibility='default-visibility' is-defined='yes'/>
    <elf-symbol name='_ZN9__gnu_cxx13new_allocatorISsEC2ERKS1_' type='func-type' binding='weak-binding' visibility='default-visibility' alias='_ZN9__gnu_cxx13new_allocatorISsEC1ERKS1_' is-defined='yes'/>
    <elf-symbol name='_ZN9__gnu_cxx13new_allocatorISsEC2Ev' type='func-type' binding='weak-binding' visibility='default-visibility' alias='_ZN9__gnu_cxx13new_allocatorISsEC1Ev' is-defined='yes'/>
    <elf-symbol name='_ZN9__gnu_cxx13new_allocatorISsED1Ev' type='func-type' binding='weak-binding' visibility='default-visibility' is-defined='yes'/>
    <elf-symbol name='_ZN9__gnu_cxx13new_allocatorISsED2Ev' type='func-type' binding='weak-binding' visibility='default-visibility' alias='_ZN9__gnu_cxx13new_allocatorISsED1Ev' is-defined='yes'/>
    <elf-symbol name='_ZN9__gnu_cxx13new_allocatorISt10_List_nodeIN5mongo17optionenvironment13OptionSectionEEE10deallocateEPS5_m' type='func-type' binding='weak-binding' visibility='default-visibility' is-defined='yes'/>
    <elf-symbol name='_ZN9__gnu_cxx13new_allocatorISt10_List_nodeIN5mongo17optionenvironment13OptionSectionEEE7destroyIS5_EEvPT_' type='func-type' binding='weak-binding' visibility='default-visibility' is-defined='yes'/>
    <elf-symbol name='_ZN9__gnu_cxx13new_allocatorISt10_List_nodeIN5mongo17optionenvironment13OptionSectionEEEC1Ev' type='func-type' binding='weak-binding' visibility='default-visibility' is-defined='yes'/>
    <elf-symbol name='_ZN9__gnu_cxx13new_allocatorISt10_List_nodeIN5mongo17optionenvironment13OptionSectionEEEC2Ev' type='func-type' binding='weak-binding' visibility='default-visibility' alias='_ZN9__gnu_cxx13new_allocatorISt10_List_nodeIN5mongo17optionenvironment13OptionSectionEEEC1Ev' is-defined='yes'/>
    <elf-symbol name='_ZN9__gnu_cxx13new_allocatorISt10_List_nodeIN5mongo17optionenvironment13OptionSectionEEED1Ev' type='func-type' binding='weak-binding' visibility='default-visibility' is-defined='yes'/>
    <elf-symbol name='_ZN9__gnu_cxx13new_allocatorISt10_List_nodeIN5mongo17optionenvironment13OptionSectionEEED2Ev' type='func-type' binding='weak-binding' visibility='default-visibility' alias='_ZN9__gnu_cxx13new_allocatorISt10_List_nodeIN5mongo17optionenvironment13OptionSectionEEED1Ev' is-defined='yes'/>
    <elf-symbol name='_ZN9__gnu_cxx13new_allocatorISt10_List_nodeIN5mongo17optionenvironment17OptionDescriptionEEE10deallocateEPS5_m' type='func-type' binding='weak-binding' visibility='default-visibility' is-defined='yes'/>
    <elf-symbol name='_ZN9__gnu_cxx13new_allocatorISt10_List_nodeIN5mongo17optionenvironment17OptionDescriptionEEE7destroyIS5_EEvPT_' type='func-type' binding='weak-binding' visibility='default-visibility' is-defined='yes'/>
    <elf-symbol name='_ZN9__gnu_cxx13new_allocatorISt10_List_nodeIN5mongo17optionenvironment17OptionDescriptionEEEC1Ev' type='func-type' binding='weak-binding' visibility='default-visibility' is-defined='yes'/>
    <elf-symbol name='_ZN9__gnu_cxx13new_allocatorISt10_List_nodeIN5mongo17optionenvironment17OptionDescriptionEEEC2Ev' type='func-type' binding='weak-binding' visibility='default-visibility' alias='_ZN9__gnu_cxx13new_allocatorISt10_List_nodeIN5mongo17optionenvironment17OptionDescriptionEEEC1Ev' is-defined='yes'/>
    <elf-symbol name='_ZN9__gnu_cxx13new_allocatorISt10_List_nodeIN5mongo17optionenvironment17OptionDescriptionEEED1Ev' type='func-type' binding='weak-binding' visibility='default-visibility' is-defined='yes'/>
    <elf-symbol name='_ZN9__gnu_cxx13new_allocatorISt10_List_nodeIN5mongo17optionenvironment17OptionDescriptionEEED2Ev' type='func-type' binding='weak-binding' visibility='default-visibility' alias='_ZN9__gnu_cxx13new_allocatorISt10_List_nodeIN5mongo17optionenvironment17OptionDescriptionEEED1Ev' is-defined='yes'/>
    <elf-symbol name='_ZN9__gnu_cxx13new_allocatorISt10shared_ptrIN5mongo17optionenvironment10ConstraintEEE10deallocateEPS5_m' type='func-type' binding='weak-binding' visibility='default-visibility' is-defined='yes'/>
    <elf-symbol name='_ZN9__gnu_cxx13new_allocatorISt10shared_ptrIN5mongo17optionenvironment10ConstraintEEED1Ev' type='func-type' binding='weak-binding' visibility='default-visibility' is-defined='yes'/>
    <elf-symbol name='_ZN9__gnu_cxx13new_allocatorISt10shared_ptrIN5mongo17optionenvironment10ConstraintEEED2Ev' type='func-type' binding='weak-binding' visibility='default-visibility' alias='_ZN9__gnu_cxx13new_allocatorISt10shared_ptrIN5mongo17optionenvironment10ConstraintEEED1Ev' is-defined='yes'/>
    <elf-symbol name='_ZN9__gnu_cxx13new_allocatorISt13_Rb_tree_nodeISt4pairIKSsSsEEE10deallocateEPS5_m' type='func-type' binding='weak-binding' visibility='default-visibility' is-defined='yes'/>
    <elf-symbol name='_ZN9__gnu_cxx13new_allocatorISt13_Rb_tree_nodeISt4pairIKSsSsEEE7destroyIS4_EEvPT_' type='func-type' binding='weak-binding' visibility='default-visibility' is-defined='yes'/>
    <elf-symbol name='_ZN9__gnu_cxx13new_allocatorISt13_Rb_tree_nodeISt4pairIKSsSsEEEC1Ev' type='func-type' binding='weak-binding' visibility='default-visibility' is-defined='yes'/>
    <elf-symbol name='_ZN9__gnu_cxx13new_allocatorISt13_Rb_tree_nodeISt4pairIKSsSsEEEC2Ev' type='func-type' binding='weak-binding' visibility='default-visibility' alias='_ZN9__gnu_cxx13new_allocatorISt13_Rb_tree_nodeISt4pairIKSsSsEEEC1Ev' is-defined='yes'/>
    <elf-symbol name='_ZN9__gnu_cxx13new_allocatorISt13_Rb_tree_nodeISt4pairIKSsSsEEED1Ev' type='func-type' binding='weak-binding' visibility='default-visibility' is-defined='yes'/>
    <elf-symbol name='_ZN9__gnu_cxx13new_allocatorISt13_Rb_tree_nodeISt4pairIKSsSsEEED2Ev' type='func-type' binding='weak-binding' visibility='default-visibility' alias='_ZN9__gnu_cxx13new_allocatorISt13_Rb_tree_nodeISt4pairIKSsSsEEED1Ev' is-defined='yes'/>
    <elf-symbol name='_ZN9__gnu_cxx14__alloc_traitsISaISsEE15_S_always_equalEv' type='func-type' binding='weak-binding' visibility='default-visibility' is-defined='yes'/>
    <elf-symbol name='_ZN9__gnu_cxx14__alloc_traitsISaISsEE27_S_propagate_on_copy_assignEv' type='func-type' binding='weak-binding' visibility='default-visibility' is-defined='yes'/>
    <elf-symbol name='_ZN9__gnu_cxx16__aligned_bufferISt4pairIKSsSsEE6_M_ptrEv' type='func-type' binding='weak-binding' visibility='default-visibility' is-defined='yes'/>
    <elf-symbol name='_ZN9__gnu_cxx16__aligned_bufferISt4pairIKSsSsEE7_M_addrEv' type='func-type' binding='weak-binding' visibility='default-visibility' is-defined='yes'/>
    <elf-symbol name='_ZN9__gnu_cxx17__normal_iteratorIPKSsSt6vectorISsSaISsEEEC1ERKS2_' type='func-type' binding='weak-binding' visibility='default-visibility' is-defined='yes'/>
    <elf-symbol name='_ZN9__gnu_cxx17__normal_iteratorIPKSsSt6vectorISsSaISsEEEC2ERKS2_' type='func-type' binding='weak-binding' visibility='default-visibility' alias='_ZN9__gnu_cxx17__normal_iteratorIPKSsSt6vectorISsSaISsEEEC1ERKS2_' is-defined='yes'/>
    <elf-symbol name='_ZN9__gnu_cxx17__normal_iteratorIPKSsSt6vectorISsSaISsEEEppEv' type='func-type' binding='weak-binding' visibility='default-visibility' is-defined='yes'/>
    <elf-symbol name='_ZN9__gnu_cxx17__normal_iteratorIPSsSt6vectorISsSaISsEEEC1ERKS1_' type='func-type' binding='weak-binding' visibility='default-visibility' is-defined='yes'/>
    <elf-symbol name='_ZN9__gnu_cxx17__normal_iteratorIPSsSt6vectorISsSaISsEEEC2ERKS1_' type='func-type' binding='weak-binding' visibility='default-visibility' alias='_ZN9__gnu_cxx17__normal_iteratorIPSsSt6vectorISsSaISsEEEC1ERKS1_' is-defined='yes'/>
    <elf-symbol name='_ZN9__gnu_cxx17__normal_iteratorIPSsSt6vectorISsSaISsEEEppEv' type='func-type' binding='weak-binding' visibility='default-visibility' is-defined='yes'/>
    <elf-symbol name='_ZN9__gnu_cxxneIPKSsSt6vectorISsSaISsEEEEbRKNS_17__normal_iteratorIT_T0_EESB_' type='func-type' binding='weak-binding' visibility='default-visibility' is-defined='yes'/>
    <elf-symbol name='_ZN9__gnu_cxxneIPSsSt6vectorISsSaISsEEEEbRKNS_17__normal_iteratorIT_T0_EESA_' type='func-type' binding='weak-binding' visibility='default-visibility' is-defined='yes'/>
    <elf-symbol name='_ZNK10mongoutils3str6streamcvSsEv' type='func-type' binding='weak-binding' visibility='default-visibility' is-defined='yes'/>
    <elf-symbol name='_ZNK5mongo10StringData4sizeEv' type='func-type' binding='weak-binding' visibility='default-visibility' is-defined='yes'/>
    <elf-symbol name='_ZNK5mongo10StringData6copyToEPcb' type='func-type' binding='weak-binding' visibility='default-visibility' is-defined='yes'/>
    <elf-symbol name='_ZNK5mongo11DBException12appendPrefixERSt18basic_stringstreamIcSt11char_traitsIcESaIcEE' type='func-type' binding='weak-binding' visibility='default-visibility' is-defined='yes'/>
    <elf-symbol name='_ZNK5mongo11DBException4whatEv' type='func-type' binding='weak-binding' visibility='default-visibility' is-defined='yes'/>
    <elf-symbol name='_ZNK5mongo11DBException7getCodeEv' type='func-type' binding='weak-binding' visibility='default-visibility' is-defined='yes'/>
    <elf-symbol name='_ZNK5mongo11_BufBuilderINS_16TrivialAllocatorEE3lenEv' type='func-type' binding='weak-binding' visibility='default-visibility' is-defined='yes'/>
    <elf-symbol name='_ZNK5mongo11_BufBuilderINS_16TrivialAllocatorEE7getSizeEv' type='func-type' binding='weak-binding' visibility='default-visibility' is-defined='yes'/>
    <elf-symbol name='_ZNK5mongo12LittleEndianIiEcviEv' type='func-type' binding='weak-binding' visibility='default-visibility' is-defined='yes'/>
    <elf-symbol name='_ZNK5mongo13ConstDataView4readINS_12LittleEndianIiEEEERKS0_PT_m' type='func-type' binding='weak-binding' visibility='default-visibility' is-defined='yes'/>
    <elf-symbol name='_ZNK5mongo13ConstDataView4readINS_12LittleEndianIiEEEET_m' type='func-type' binding='weak-binding' visibility='default-visibility' is-defined='yes'/>
    <elf-symbol name='_ZNK5mongo13ConstDataView4viewEm' type='func-type' binding='weak-binding' visibility='default-visibility' is-defined='yes'/>
    <elf-symbol name='_ZNK5mongo17StringBuilderImplINS_16TrivialAllocatorEE3strEv' type='func-type' binding='weak-binding' visibility='default-visibility' is-defined='yes'/>
    <elf-symbol name='_ZNK5mongo17optionenvironment5Value2asISsEET_v' type='func-type' binding='weak-binding' visibility='default-visibility' is-defined='yes'/>
    <elf-symbol name='_ZNK5mongo17optionenvironment5Value2asISt3mapISsSsSt4lessISsESaISt4pairIKSsSsEEEEET_v' type='func-type' binding='weak-binding' visibility='default-visibility' is-defined='yes'/>
    <elf-symbol name='_ZNK5mongo17optionenvironment5Value2asISt6vectorISsSaISsEEEET_v' type='func-type' binding='weak-binding' visibility='default-visibility' is-defined='yes'/>
    <elf-symbol name='_ZNK5mongo17optionenvironment5Value2asIiEET_v' type='func-type' binding='weak-binding' visibility='default-visibility' is-defined='yes'/>
    <elf-symbol name='_ZNK5mongo18AssertionException15isUserAssertionEv' type='func-type' binding='weak-binding' visibility='default-visibility' is-defined='yes'/>
    <elf-symbol name='_ZNK5mongo18AssertionException6severeEv' type='func-type' binding='weak-binding' visibility='default-visibility' is-defined='yes'/>
    <elf-symbol name='_ZNK5mongo23ExportedServerParameterISsE3getEv' type='func-type' binding='weak-binding' visibility='default-visibility' is-defined='yes'/>
    <elf-symbol name='_ZNK5mongo23ExportedServerParameterISt6vectorISsSaISsEEE3getEv' type='func-type' binding='weak-binding' visibility='default-visibility' is-defined='yes'/>
    <elf-symbol name='_ZNK5mongo23ExportedServerParameterIiE3getEv' type='func-type' binding='weak-binding' visibility='default-visibility' is-defined='yes'/>
    <elf-symbol name='_ZNK5mongo6Status4codeEv' type='func-type' binding='weak-binding' visibility='default-visibility' is-defined='yes'/>
    <elf-symbol name='_ZNK5mongo6Status4isOKEv' type='func-type' binding='weak-binding' visibility='default-visibility' is-defined='yes'/>
    <elf-symbol name='_ZNK5mongo7BSONObj7isValidEv' type='func-type' binding='weak-binding' visibility='default-visibility' is-defined='yes'/>
    <elf-symbol name='_ZNK5mongo7BSONObj7objdataEv' type='func-type' binding='weak-binding' visibility='default-visibility' is-defined='yes'/>
    <elf-symbol name='_ZNK5mongo7BSONObj7objsizeEv' type='func-type' binding='weak-binding' visibility='default-visibility' is-defined='yes'/>
    <elf-symbol name='_ZNK5mongo8DataView4viewEm' type='func-type' binding='weak-binding' visibility='default-visibility' is-defined='yes'/>
    <elf-symbol name='_ZNK9__gnu_cxx13new_allocatorISsE8max_sizeEv' type='func-type' binding='weak-binding' visibility='default-visibility' is-defined='yes'/>
    <elf-symbol name='_ZNK9__gnu_cxx17__normal_iteratorIPKSsSt6vectorISsSaISsEEE4baseEv' type='func-type' binding='weak-binding' visibility='default-visibility' is-defined='yes'/>
    <elf-symbol name='_ZNK9__gnu_cxx17__normal_iteratorIPKSsSt6vectorISsSaISsEEEdeEv' type='func-type' binding='weak-binding' visibility='default-visibility' is-defined='yes'/>
    <elf-symbol name='_ZNK9__gnu_cxx17__normal_iteratorIPSsSt6vectorISsSaISsEEE4baseEv' type='func-type' binding='weak-binding' visibility='default-visibility' is-defined='yes'/>
    <elf-symbol name='_ZNK9__gnu_cxx17__normal_iteratorIPSsSt6vectorISsSaISsEEEdeEv' type='func-type' binding='weak-binding' visibility='default-visibility' is-defined='yes'/>
    <elf-symbol name='_ZNKSt10unique_ptrISt19basic_ostringstreamIcSt11char_traitsIcESaIcEESt14default_deleteIS4_EE3getEv' type='func-type' binding='weak-binding' visibility='default-visibility' is-defined='yes'/>
    <elf-symbol name='_ZNKSt10unique_ptrISt19basic_ostringstreamIcSt11char_traitsIcESaIcEESt14default_deleteIS4_EEcvbEv' type='func-type' binding='weak-binding' visibility='default-visibility' is-defined='yes'/>
    <elf-symbol name='_ZNKSt10unique_ptrISt19basic_ostringstreamIcSt11char_traitsIcESaIcEESt14default_deleteIS4_EEdeEv' type='func-type' binding='weak-binding' visibility='default-visibility' is-defined='yes'/>
    <elf-symbol name='_ZNKSt12_Vector_baseISsSaISsEE13get_allocatorEv' type='func-type' binding='weak-binding' visibility='default-visibility' is-defined='yes'/>
    <elf-symbol name='_ZNKSt12_Vector_baseISsSaISsEE19_M_get_Tp_allocatorEv' type='func-type' binding='weak-binding' visibility='default-visibility' is-defined='yes'/>
    <elf-symbol name='_ZNKSt13move_iteratorIPSsE4baseEv' type='func-type' binding='weak-binding' visibility='default-visibility' is-defined='yes'/>
    <elf-symbol name='_ZNKSt13move_iteratorIPSsEdeEv' type='func-type' binding='weak-binding' visibility='default-visibility' is-defined='yes'/>
    <elf-symbol name='_ZNKSt14default_deleteIN5mongo14BSONObjBuilderEEclEPS1_' type='func-type' binding='weak-binding' visibility='default-visibility' is-defined='yes'/>
    <elf-symbol name='_ZNKSt17_Rb_tree_iteratorISt4pairIKSsSsEEneERKS3_' type='func-type' binding='weak-binding' visibility='default-visibility' is-defined='yes'/>
    <elf-symbol name='_ZNKSt17_Rb_tree_iteratorISt4pairIKSsSsEEptEv' type='func-type' binding='weak-binding' visibility='default-visibility' is-defined='yes'/>
    <elf-symbol name='_ZNKSt6vectorISsSaISsEE12_M_check_lenEmPKc' type='func-type' binding='weak-binding' visibility='default-visibility' is-defined='yes'/>
    <elf-symbol name='_ZNKSt6vectorISsSaISsEE3endEv' type='func-type' binding='weak-binding' visibility='default-visibility' is-defined='yes'/>
    <elf-symbol name='_ZNKSt6vectorISsSaISsEE4sizeEv' type='func-type' binding='weak-binding' visibility='default-visibility' is-defined='yes'/>
    <elf-symbol name='_ZNKSt6vectorISsSaISsEE5beginEv' type='func-type' binding='weak-binding' visibility='default-visibility' is-defined='yes'/>
    <elf-symbol name='_ZNKSt6vectorISsSaISsEE8capacityEv' type='func-type' binding='weak-binding' visibility='default-visibility' is-defined='yes'/>
    <elf-symbol name='_ZNKSt6vectorISsSaISsEE8max_sizeEv' type='func-type' binding='weak-binding' visibility='default-visibility' is-defined='yes'/>
    <elf-symbol name='_ZNKSt6vectorISsSaISsEEixEm' type='func-type' binding='weak-binding' visibility='default-visibility' is-defined='yes'/>
    <elf-symbol name='_ZNKSt9_Any_data9_M_accessEv' type='func-type' binding='weak-binding' visibility='default-visibility' is-defined='yes'/>
    <elf-symbol name='_ZNKSt9_Any_data9_M_accessIPFN5mongo6StatusEPNS1_18InitializerContextEEEERKT_v' type='func-type' binding='weak-binding' visibility='default-visibility' is-defined='yes'/>
    <elf-symbol name='_ZNSaISsEC1ERKS_' type='func-type' binding='weak-binding' visibility='default-visibility' is-defined='yes'/>
    <elf-symbol name='_ZNSaISsEC1Ev' type='func-type' binding='weak-binding' visibility='default-visibility' is-defined='yes'/>
    <elf-symbol name='_ZNSaISsEC2ERKS_' type='func-type' binding='weak-binding' visibility='default-visibility' alias='_ZNSaISsEC1ERKS_' is-defined='yes'/>
    <elf-symbol name='_ZNSaISsEC2Ev' type='func-type' binding='weak-binding' visibility='default-visibility' alias='_ZNSaISsEC1Ev' is-defined='yes'/>
    <elf-symbol name='_ZNSaISsED1Ev' type='func-type' binding='weak-binding' visibility='default-visibility' is-defined='yes'/>
    <elf-symbol name='_ZNSaISsED2Ev' type='func-type' binding='weak-binding' visibility='default-visibility' alias='_ZNSaISsED1Ev' is-defined='yes'/>
    <elf-symbol name='_ZNSaISt10_List_nodeIN5mongo17optionenvironment13OptionSectionEEEC1Ev' type='func-type' binding='weak-binding' visibility='default-visibility' is-defined='yes'/>
    <elf-symbol name='_ZNSaISt10_List_nodeIN5mongo17optionenvironment13OptionSectionEEEC2Ev' type='func-type' binding='weak-binding' visibility='default-visibility' alias='_ZNSaISt10_List_nodeIN5mongo17optionenvironment13OptionSectionEEEC1Ev' is-defined='yes'/>
    <elf-symbol name='_ZNSaISt10_List_nodeIN5mongo17optionenvironment13OptionSectionEEED1Ev' type='func-type' binding='weak-binding' visibility='default-visibility' is-defined='yes'/>
    <elf-symbol name='_ZNSaISt10_List_nodeIN5mongo17optionenvironment13OptionSectionEEED2Ev' type='func-type' binding='weak-binding' visibility='default-visibility' alias='_ZNSaISt10_List_nodeIN5mongo17optionenvironment13OptionSectionEEED1Ev' is-defined='yes'/>
    <elf-symbol name='_ZNSaISt10_List_nodeIN5mongo17optionenvironment17OptionDescriptionEEEC1Ev' type='func-type' binding='weak-binding' visibility='default-visibility' is-defined='yes'/>
    <elf-symbol name='_ZNSaISt10_List_nodeIN5mongo17optionenvironment17OptionDescriptionEEEC2Ev' type='func-type' binding='weak-binding' visibility='default-visibility' alias='_ZNSaISt10_List_nodeIN5mongo17optionenvironment17OptionDescriptionEEEC1Ev' is-defined='yes'/>
    <elf-symbol name='_ZNSaISt10_List_nodeIN5mongo17optionenvironment17OptionDescriptionEEED1Ev' type='func-type' binding='weak-binding' visibility='default-visibility' is-defined='yes'/>
    <elf-symbol name='_ZNSaISt10_List_nodeIN5mongo17optionenvironment17OptionDescriptionEEED2Ev' type='func-type' binding='weak-binding' visibility='default-visibility' alias='_ZNSaISt10_List_nodeIN5mongo17optionenvironment17OptionDescriptionEEED1Ev' is-defined='yes'/>
    <elf-symbol name='_ZNSaISt10shared_ptrIN5mongo17optionenvironment10ConstraintEEED1Ev' type='func-type' binding='weak-binding' visibility='default-visibility' is-defined='yes'/>
    <elf-symbol name='_ZNSaISt10shared_ptrIN5mongo17optionenvironment10ConstraintEEED2Ev' type='func-type' binding='weak-binding' visibility='default-visibility' alias='_ZNSaISt10shared_ptrIN5mongo17optionenvironment10ConstraintEEED1Ev' is-defined='yes'/>
    <elf-symbol name='_ZNSaISt13_Rb_tree_nodeISt4pairIKSsSsEEEC1Ev' type='func-type' binding='weak-binding' visibility='default-visibility' is-defined='yes'/>
    <elf-symbol name='_ZNSaISt13_Rb_tree_nodeISt4pairIKSsSsEEEC2Ev' type='func-type' binding='weak-binding' visibility='default-visibility' alias='_ZNSaISt13_Rb_tree_nodeISt4pairIKSsSsEEEC1Ev' is-defined='yes'/>
    <elf-symbol name='_ZNSaISt13_Rb_tree_nodeISt4pairIKSsSsEEED1Ev' type='func-type' binding='weak-binding' visibility='default-visibility' is-defined='yes'/>
    <elf-symbol name='_ZNSaISt13_Rb_tree_nodeISt4pairIKSsSsEEED2Ev' type='func-type' binding='weak-binding' visibility='default-visibility' alias='_ZNSaISt13_Rb_tree_nodeISt4pairIKSsSsEEED1Ev' is-defined='yes'/>
    <elf-symbol name='_ZNSt10_Head_baseILm0EPN5mongo14BSONObjBuilderELb0EE7_M_headERS3_' type='func-type' binding='weak-binding' visibility='default-visibility' is-defined='yes'/>
    <elf-symbol name='_ZNSt10_Head_baseILm0EPSt19basic_ostringstreamIcSt11char_traitsIcESaIcEELb0EE7_M_headERKS6_' type='func-type' binding='weak-binding' visibility='default-visibility' is-defined='yes'/>
    <elf-symbol name='_ZNSt10_Head_baseILm1ESt14default_deleteIN5mongo14BSONObjBuilderEELb1EE7_M_headERS4_' type='func-type' binding='weak-binding' visibility='default-visibility' is-defined='yes'/>
    <elf-symbol name='_ZNSt10_Iter_baseIN9__gnu_cxx17__normal_iteratorIPKSsSt6vectorISsSaISsEEEELb0EE7_S_baseES7_' type='func-type' binding='weak-binding' visibility='default-visibility' is-defined='yes'/>
    <elf-symbol name='_ZNSt10_Iter_baseIN9__gnu_cxx17__normal_iteratorIPKSsSt6vectorISsSaISsEEEELb1EE7_S_baseES7_' type='func-type' binding='weak-binding' visibility='default-visibility' is-defined='yes'/>
    <elf-symbol name='_ZNSt10_Iter_baseIN9__gnu_cxx17__normal_iteratorIPSsSt6vectorISsSaISsEEEELb1EE7_S_baseES6_' type='func-type' binding='weak-binding' visibility='default-visibility' is-defined='yes'/>
    <elf-symbol name='_ZNSt10_Iter_baseIPSsLb0EE7_S_baseES0_' type='func-type' binding='weak-binding' visibility='default-visibility' is-defined='yes'/>
    <elf-symbol name='_ZNSt10_List_baseIN5mongo17optionenvironment13OptionSectionESaIS2_EE10_List_implC1Ev' type='func-type' binding='weak-binding' visibility='default-visibility' is-defined='yes'/>
    <elf-symbol name='_ZNSt10_List_baseIN5mongo17optionenvironment13OptionSectionESaIS2_EE10_List_implC2Ev' type='func-type' binding='weak-binding' visibility='default-visibility' alias='_ZNSt10_List_baseIN5mongo17optionenvironment13OptionSectionESaIS2_EE10_List_implC1Ev' is-defined='yes'/>
    <elf-symbol name='_ZNSt10_List_baseIN5mongo17optionenvironment13OptionSectionESaIS2_EE10_List_implD1Ev' type='func-type' binding='weak-binding' visibility='default-visibility' alias='_ZNSt10_List_baseIN5mongo17optionenvironment13OptionSectionESaIS2_EE10_List_implD2Ev' is-defined='yes'/>
    <elf-symbol name='_ZNSt10_List_baseIN5mongo17optionenvironment13OptionSectionESaIS2_EE10_List_implD2Ev' type='func-type' binding='weak-binding' visibility='default-visibility' is-defined='yes'/>
    <elf-symbol name='_ZNSt10_List_baseIN5mongo17optionenvironment13OptionSectionESaIS2_EE11_M_put_nodeEPSt10_List_nodeIS2_E' type='func-type' binding='weak-binding' visibility='default-visibility' is-defined='yes'/>
    <elf-symbol name='_ZNSt10_List_baseIN5mongo17optionenvironment13OptionSectionESaIS2_EE21_M_get_Node_allocatorEv' type='func-type' binding='weak-binding' visibility='default-visibility' is-defined='yes'/>
    <elf-symbol name='_ZNSt10_List_baseIN5mongo17optionenvironment13OptionSectionESaIS2_EE7_M_initEv' type='func-type' binding='weak-binding' visibility='default-visibility' is-defined='yes'/>
    <elf-symbol name='_ZNSt10_List_baseIN5mongo17optionenvironment13OptionSectionESaIS2_EE8_M_clearEv' type='func-type' binding='weak-binding' visibility='default-visibility' is-defined='yes'/>
    <elf-symbol name='_ZNSt10_List_baseIN5mongo17optionenvironment13OptionSectionESaIS2_EEC1Ev' type='func-type' binding='weak-binding' visibility='default-visibility' is-defined='yes'/>
    <elf-symbol name='_ZNSt10_List_baseIN5mongo17optionenvironment13OptionSectionESaIS2_EEC2Ev' type='func-type' binding='weak-binding' visibility='default-visibility' alias='_ZNSt10_List_baseIN5mongo17optionenvironment13OptionSectionESaIS2_EEC1Ev' is-defined='yes'/>
    <elf-symbol name='_ZNSt10_List_baseIN5mongo17optionenvironment13OptionSectionESaIS2_EED1Ev' type='func-type' binding='weak-binding' visibility='default-visibility' is-defined='yes'/>
    <elf-symbol name='_ZNSt10_List_baseIN5mongo17optionenvironment13OptionSectionESaIS2_EED2Ev' type='func-type' binding='weak-binding' visibility='default-visibility' alias='_ZNSt10_List_baseIN5mongo17optionenvironment13OptionSectionESaIS2_EED1Ev' is-defined='yes'/>
    <elf-symbol name='_ZNSt10_List_baseIN5mongo17optionenvironment17OptionDescriptionESaIS2_EE10_List_implC1Ev' type='func-type' binding='weak-binding' visibility='default-visibility' is-defined='yes'/>
    <elf-symbol name='_ZNSt10_List_baseIN5mongo17optionenvironment17OptionDescriptionESaIS2_EE10_List_implC2Ev' type='func-type' binding='weak-binding' visibility='default-visibility' alias='_ZNSt10_List_baseIN5mongo17optionenvironment17OptionDescriptionESaIS2_EE10_List_implC1Ev' is-defined='yes'/>
    <elf-symbol name='_ZNSt10_List_baseIN5mongo17optionenvironment17OptionDescriptionESaIS2_EE10_List_implD1Ev' type='func-type' binding='weak-binding' visibility='default-visibility' alias='_ZNSt10_List_baseIN5mongo17optionenvironment17OptionDescriptionESaIS2_EE10_List_implD2Ev' is-defined='yes'/>
    <elf-symbol name='_ZNSt10_List_baseIN5mongo17optionenvironment17OptionDescriptionESaIS2_EE10_List_implD2Ev' type='func-type' binding='weak-binding' visibility='default-visibility' is-defined='yes'/>
    <elf-symbol name='_ZNSt10_List_baseIN5mongo17optionenvironment17OptionDescriptionESaIS2_EE11_M_put_nodeEPSt10_List_nodeIS2_E' type='func-type' binding='weak-binding' visibility='default-visibility' is-defined='yes'/>
    <elf-symbol name='_ZNSt10_List_baseIN5mongo17optionenvironment17OptionDescriptionESaIS2_EE21_M_get_Node_allocatorEv' type='func-type' binding='weak-binding' visibility='default-visibility' is-defined='yes'/>
    <elf-symbol name='_ZNSt10_List_baseIN5mongo17optionenvironment17OptionDescriptionESaIS2_EE7_M_initEv' type='func-type' binding='weak-binding' visibility='default-visibility' is-defined='yes'/>
    <elf-symbol name='_ZNSt10_List_baseIN5mongo17optionenvironment17OptionDescriptionESaIS2_EE8_M_clearEv' type='func-type' binding='weak-binding' visibility='default-visibility' is-defined='yes'/>
    <elf-symbol name='_ZNSt10_List_baseIN5mongo17optionenvironment17OptionDescriptionESaIS2_EEC1Ev' type='func-type' binding='weak-binding' visibility='default-visibility' is-defined='yes'/>
    <elf-symbol name='_ZNSt10_List_baseIN5mongo17optionenvironment17OptionDescriptionESaIS2_EEC2Ev' type='func-type' binding='weak-binding' visibility='default-visibility' alias='_ZNSt10_List_baseIN5mongo17optionenvironment17OptionDescriptionESaIS2_EEC1Ev' is-defined='yes'/>
    <elf-symbol name='_ZNSt10_List_baseIN5mongo17optionenvironment17OptionDescriptionESaIS2_EED1Ev' type='func-type' binding='weak-binding' visibility='default-visibility' is-defined='yes'/>
    <elf-symbol name='_ZNSt10_List_baseIN5mongo17optionenvironment17OptionDescriptionESaIS2_EED2Ev' type='func-type' binding='weak-binding' visibility='default-visibility' alias='_ZNSt10_List_baseIN5mongo17optionenvironment17OptionDescriptionESaIS2_EED1Ev' is-defined='yes'/>
    <elf-symbol name='_ZNSt10_List_nodeIN5mongo17optionenvironment13OptionSectionEED1Ev' type='func-type' binding='weak-binding' visibility='default-visibility' alias='_ZNSt10_List_nodeIN5mongo17optionenvironment13OptionSectionEED2Ev' is-defined='yes'/>
    <elf-symbol name='_ZNSt10_List_nodeIN5mongo17optionenvironment13OptionSectionEED2Ev' type='func-type' binding='weak-binding' visibility='default-visibility' is-defined='yes'/>
    <elf-symbol name='_ZNSt10_List_nodeIN5mongo17optionenvironment17OptionDescriptionEED1Ev' type='func-type' binding='weak-binding' visibility='default-visibility' alias='_ZNSt10_List_nodeIN5mongo17optionenvironment17OptionDescriptionEED2Ev' is-defined='yes'/>
    <elf-symbol name='_ZNSt10_List_nodeIN5mongo17optionenvironment17OptionDescriptionEED2Ev' type='func-type' binding='weak-binding' visibility='default-visibility' is-defined='yes'/>
    <elf-symbol name='_ZNSt10shared_ptrIN5mongo17optionenvironment10ConstraintEED1Ev' type='func-type' binding='weak-binding' visibility='default-visibility' alias='_ZNSt10shared_ptrIN5mongo17optionenvironment10ConstraintEED2Ev' is-defined='yes'/>
    <elf-symbol name='_ZNSt10shared_ptrIN5mongo17optionenvironment10ConstraintEED2Ev' type='func-type' binding='weak-binding' visibility='default-visibility' is-defined='yes'/>
    <elf-symbol name='_ZNSt10unique_ptrIN5mongo14BSONObjBuilderESt14default_deleteIS1_EE11get_deleterEv' type='func-type' binding='weak-binding' visibility='default-visibility' is-defined='yes'/>
    <elf-symbol name='_ZNSt10unique_ptrIN5mongo14BSONObjBuilderESt14default_deleteIS1_EED1Ev' type='func-type' binding='weak-binding' visibility='default-visibility' is-defined='yes'/>
    <elf-symbol name='_ZNSt10unique_ptrIN5mongo14BSONObjBuilderESt14default_deleteIS1_EED2Ev' type='func-type' binding='weak-binding' visibility='default-visibility' alias='_ZNSt10unique_ptrIN5mongo14BSONObjBuilderESt14default_deleteIS1_EED1Ev' is-defined='yes'/>
    <elf-symbol name='_ZNSt11_Tuple_implILm0EIPN5mongo14BSONObjBuilderESt14default_deleteIS1_EEE7_M_headERS5_' type='func-type' binding='weak-binding' visibility='default-visibility' alias='_ZNSt11_Tuple_implILm0EJPN5mongo14BSONObjBuilderESt14default_deleteIS1_EEE7_M_headERS5_' is-defined='yes'/>
    <elf-symbol name='_ZNSt11_Tuple_implILm0EIPSt19basic_ostringstreamIcSt11char_traitsIcESaIcEESt14default_deleteIS4_EEE7_M_headERKS8_' type='func-type' binding='weak-binding' visibility='default-visibility' alias='_ZNSt11_Tuple_implILm0EJPSt19basic_ostringstreamIcSt11char_traitsIcESaIcEESt14default_deleteIS4_EEE7_M_headERKS8_' is-defined='yes'/>
    <elf-symbol name='_ZNSt11_Tuple_implILm0EJPN5mongo14BSONObjBuilderESt14default_deleteIS1_EEE7_M_headERS5_' type='func-type' binding='weak-binding' visibility='default-visibility' is-defined='yes'/>
    <elf-symbol name='_ZNSt11_Tuple_implILm0EJPSt19basic_ostringstreamIcSt11char_traitsIcESaIcEESt14default_deleteIS4_EEE7_M_headERKS8_' type='func-type' binding='weak-binding' visibility='default-visibility' is-defined='yes'/>
    <elf-symbol name='_ZNSt11_Tuple_implILm1EISt14default_deleteIN5mongo14BSONObjBuilderEEEE7_M_headERS4_' type='func-type' binding='weak-binding' visibility='default-visibility' alias='_ZNSt11_Tuple_implILm1EJSt14default_deleteIN5mongo14BSONObjBuilderEEEE7_M_headERS4_' is-defined='yes'/>
    <elf-symbol name='_ZNSt11_Tuple_implILm1EJSt14default_deleteIN5mongo14BSONObjBuilderEEEE7_M_headERS4_' type='func-type' binding='weak-binding' visibility='default-visibility' is-defined='yes'/>
    <elf-symbol name='_ZNSt11__copy_moveILb0ELb0ESt26random_access_iterator_tagE8__copy_mIPKSsPSsEET0_T_S7_S6_' type='func-type' binding='weak-binding' visibility='default-visibility' is-defined='yes'/>
    <elf-symbol name='_ZNSt11__copy_moveILb0ELb0ESt26random_access_iterator_tagE8__copy_mIPSsS3_EET0_T_S5_S4_' type='func-type' binding='weak-binding' visibility='default-visibility' is-defined='yes'/>
    <elf-symbol name='_ZNSt12_Destroy_auxILb0EE9__destroyIN9__gnu_cxx17__normal_iteratorIPSsSt6vectorISsSaISsEEEEEEvT_S9_' type='func-type' binding='weak-binding' visibility='default-visibility' is-defined='yes'/>
    <elf-symbol name='_ZNSt12_Destroy_auxILb0EE9__destroyIPSsEEvT_S3_' type='func-type' binding='weak-binding' visibility='default-visibility' is-defined='yes'/>
    <elf-symbol name='_ZNSt12_Destroy_auxILb0EE9__destroyIPSt10shared_ptrIN5mongo17optionenvironment10ConstraintEEEEvT_S8_' type='func-type' binding='weak-binding' visibility='default-visibility' is-defined='yes'/>
    <elf-symbol name='_ZNSt12_Vector_baseISsSaISsEE11_M_allocateEm' type='func-type' binding='weak-binding' visibility='default-visibility' is-defined='yes'/>
    <elf-symbol name='_ZNSt12_Vector_baseISsSaISsEE12_Vector_impl12_M_swap_dataERS2_' type='func-type' binding='weak-binding' visibility='default-visibility' is-defined='yes'/>
    <elf-symbol name='_ZNSt12_Vector_baseISsSaISsEE12_Vector_implC1ERKS0_' type='func-type' binding='weak-binding' visibility='default-visibility' is-defined='yes'/>
    <elf-symbol name='_ZNSt12_Vector_baseISsSaISsEE12_Vector_implC1Ev' type='func-type' binding='weak-binding' visibility='default-visibility' is-defined='yes'/>
    <elf-symbol name='_ZNSt12_Vector_baseISsSaISsEE12_Vector_implC2ERKS0_' type='func-type' binding='weak-binding' visibility='default-visibility' alias='_ZNSt12_Vector_baseISsSaISsEE12_Vector_implC1ERKS0_' is-defined='yes'/>
    <elf-symbol name='_ZNSt12_Vector_baseISsSaISsEE12_Vector_implC2Ev' type='func-type' binding='weak-binding' visibility='default-visibility' alias='_ZNSt12_Vector_baseISsSaISsEE12_Vector_implC1Ev' is-defined='yes'/>
    <elf-symbol name='_ZNSt12_Vector_baseISsSaISsEE12_Vector_implD1Ev' type='func-type' binding='weak-binding' visibility='default-visibility' alias='_ZNSt12_Vector_baseISsSaISsEE12_Vector_implD2Ev' is-defined='yes'/>
    <elf-symbol name='_ZNSt12_Vector_baseISsSaISsEE12_Vector_implD2Ev' type='func-type' binding='weak-binding' visibility='default-visibility' is-defined='yes'/>
    <elf-symbol name='_ZNSt12_Vector_baseISsSaISsEE13_M_deallocateEPSsm' type='func-type' binding='weak-binding' visibility='default-visibility' is-defined='yes'/>
    <elf-symbol name='_ZNSt12_Vector_baseISsSaISsEE19_M_get_Tp_allocatorEv' type='func-type' binding='weak-binding' visibility='default-visibility' is-defined='yes'/>
    <elf-symbol name='_ZNSt12_Vector_baseISsSaISsEEC1ERKS0_' type='func-type' binding='weak-binding' visibility='default-visibility' is-defined='yes'/>
    <elf-symbol name='_ZNSt12_Vector_baseISsSaISsEEC1Ev' type='func-type' binding='weak-binding' visibility='default-visibility' is-defined='yes'/>
    <elf-symbol name='_ZNSt12_Vector_baseISsSaISsEEC2ERKS0_' type='func-type' binding='weak-binding' visibility='default-visibility' alias='_ZNSt12_Vector_baseISsSaISsEEC1ERKS0_' is-defined='yes'/>
    <elf-symbol name='_ZNSt12_Vector_baseISsSaISsEEC2Ev' type='func-type' binding='weak-binding' visibility='default-visibility' alias='_ZNSt12_Vector_baseISsSaISsEEC1Ev' is-defined='yes'/>
    <elf-symbol name='_ZNSt12_Vector_baseISsSaISsEED1Ev' type='func-type' binding='weak-binding' visibility='default-visibility' is-defined='yes'/>
    <elf-symbol name='_ZNSt12_Vector_baseISsSaISsEED2Ev' type='func-type' binding='weak-binding' visibility='default-visibility' alias='_ZNSt12_Vector_baseISsSaISsEED1Ev' is-defined='yes'/>
    <elf-symbol name='_ZNSt12_Vector_baseISt10shared_ptrIN5mongo17optionenvironment10ConstraintEESaIS4_EE12_Vector_implD1Ev' type='func-type' binding='weak-binding' visibility='default-visibility' alias='_ZNSt12_Vector_baseISt10shared_ptrIN5mongo17optionenvironment10ConstraintEESaIS4_EE12_Vector_implD2Ev' is-defined='yes'/>
    <elf-symbol name='_ZNSt12_Vector_baseISt10shared_ptrIN5mongo17optionenvironment10ConstraintEESaIS4_EE12_Vector_implD2Ev' type='func-type' binding='weak-binding' visibility='default-visibility' is-defined='yes'/>
    <elf-symbol name='_ZNSt12_Vector_baseISt10shared_ptrIN5mongo17optionenvironment10ConstraintEESaIS4_EE13_M_deallocateEPS4_m' type='func-type' binding='weak-binding' visibility='default-visibility' is-defined='yes'/>
    <elf-symbol name='_ZNSt12_Vector_baseISt10shared_ptrIN5mongo17optionenvironment10ConstraintEESaIS4_EE19_M_get_Tp_allocatorEv' type='func-type' binding='weak-binding' visibility='default-visibility' is-defined='yes'/>
    <elf-symbol name='_ZNSt12_Vector_baseISt10shared_ptrIN5mongo17optionenvironment10ConstraintEESaIS4_EED1Ev' type='func-type' binding='weak-binding' visibility='default-visibility' is-defined='yes'/>
    <elf-symbol name='_ZNSt12_Vector_baseISt10shared_ptrIN5mongo17optionenvironment10ConstraintEESaIS4_EED2Ev' type='func-type' binding='weak-binding' visibility='default-visibility' alias='_ZNSt12_Vector_baseISt10shared_ptrIN5mongo17optionenvironment10ConstraintEESaIS4_EED1Ev' is-defined='yes'/>
    <elf-symbol name='_ZNSt12__shared_ptrIN5mongo17optionenvironment10ConstraintELN9__gnu_cxx12_Lock_policyE2EED1Ev' type='func-type' binding='weak-binding' visibility='default-visibility' is-defined='yes'/>
    <elf-symbol name='_ZNSt12__shared_ptrIN5mongo17optionenvironment10ConstraintELN9__gnu_cxx12_Lock_policyE2EED2Ev' type='func-type' binding='weak-binding' visibility='default-visibility' alias='_ZNSt12__shared_ptrIN5mongo17optionenvironment10ConstraintELN9__gnu_cxx12_Lock_policyE2EED1Ev' is-defined='yes'/>
    <elf-symbol name='_ZNSt13_Rb_tree_nodeISt4pairIKSsSsEE9_M_valptrEv' type='func-type' binding='weak-binding' visibility='default-visibility' is-defined='yes'/>
    <elf-symbol name='_ZNSt13move_iteratorIPSsEC1ES0_' type='func-type' binding='weak-binding' visibility='default-visibility' is-defined='yes'/>
    <elf-symbol name='_ZNSt13move_iteratorIPSsEC2ES0_' type='func-type' binding='weak-binding' visibility='default-visibility' alias='_ZNSt13move_iteratorIPSsEC1ES0_' is-defined='yes'/>
    <elf-symbol name='_ZNSt13move_iteratorIPSsEppEv' type='func-type' binding='weak-binding' visibility='default-visibility' is-defined='yes'/>
    <elf-symbol name='_ZNSt14_Function_base13_Base_managerIPFN5mongo6StatusEPNS1_18InitializerContextEEE10_M_destroyERSt9_Any_dataSt17integral_constantIbLb1EE' type='func-type' binding='weak-binding' visibility='default-visibility' is-defined='yes'/>
    <elf-symbol name='_ZNSt14_Function_base13_Base_managerIPFN5mongo6StatusEPNS1_18InitializerContextEEE10_M_managerERSt9_Any_dataRKS8_St18_Manager_operation' type='func-type' binding='weak-binding' visibility='default-visibility' is-defined='yes'/>
    <elf-symbol name='_ZNSt14_Function_base13_Base_managerIPFN5mongo6StatusEPNS1_18InitializerContextEEE14_M_get_pointerERKSt9_Any_data' type='func-type' binding='weak-binding' visibility='default-visibility' is-defined='yes'/>
    <elf-symbol name='_ZNSt14_Function_base13_Base_managerIPFN5mongo6StatusEPNS1_18InitializerContextEEE15_M_init_functorERSt9_Any_dataOS6_' type='func-type' binding='weak-binding' visibility='default-visibility' is-defined='yes'/>
    <elf-symbol name='_ZNSt14_Function_base13_Base_managerIPFN5mongo6StatusEPNS1_18InitializerContextEEE15_M_init_functorERSt9_Any_dataOS6_St17integral_constantIbLb1EE' type='func-type' binding='weak-binding' visibility='default-visibility' is-defined='yes'/>
    <elf-symbol name='_ZNSt14_Function_base13_Base_managerIPFN5mongo6StatusEPNS1_18InitializerContextEEE21_M_not_empty_functionIS5_EEbRKPT_' type='func-type' binding='weak-binding' visibility='default-visibility' is-defined='yes'/>
    <elf-symbol name='_ZNSt14_Function_base13_Base_managerIPFN5mongo6StatusEPNS1_18InitializerContextEEE8_M_cloneERSt9_Any_dataRKS8_St17integral_constantIbLb1EE' type='func-type' binding='weak-binding' visibility='default-visibility' is-defined='yes'/>
    <elf-symbol name='_ZNSt14_Function_baseC1Ev' type='func-type' binding='weak-binding' visibility='default-visibility' is-defined='yes'/>
    <elf-symbol name='_ZNSt14_Function_baseC2Ev' type='func-type' binding='weak-binding' visibility='default-visibility' alias='_ZNSt14_Function_baseC1Ev' is-defined='yes'/>
    <elf-symbol name='_ZNSt14_Function_baseD1Ev' type='func-type' binding='weak-binding' visibility='default-visibility' is-defined='yes'/>
    <elf-symbol name='_ZNSt14_Function_baseD2Ev' type='func-type' binding='weak-binding' visibility='default-visibility' alias='_ZNSt14_Function_baseD1Ev' is-defined='yes'/>
    <elf-symbol name='_ZNSt14__shared_countILN9__gnu_cxx12_Lock_policyE2EED1Ev' type='func-type' binding='weak-binding' visibility='default-visibility' is-defined='yes'/>
    <elf-symbol name='_ZNSt14__shared_countILN9__gnu_cxx12_Lock_policyE2EED2Ev' type='func-type' binding='weak-binding' visibility='default-visibility' alias='_ZNSt14__shared_countILN9__gnu_cxx12_Lock_policyE2EED1Ev' is-defined='yes'/>
    <elf-symbol name='_ZNSt14unary_functionIPN5mongo18InitializerContextENS0_6StatusEEC1Ev' type='func-type' binding='weak-binding' visibility='default-visibility' alias='_ZNSt14unary_functionIPN5mongo18InitializerContextENS0_6StatusEEC2Ev' is-defined='yes'/>
    <elf-symbol name='_ZNSt14unary_functionIPN5mongo18InitializerContextENS0_6StatusEEC2Ev' type='func-type' binding='weak-binding' visibility='default-visibility' is-defined='yes'/>
    <elf-symbol name='_ZNSt16_Sp_counted_baseILN9__gnu_cxx12_Lock_policyE2EE10_M_releaseEv' type='func-type' binding='weak-binding' visibility='default-visibility' is-defined='yes'/>
    <elf-symbol name='_ZNSt16allocator_traitsISaISsEE10_S_destroyISsEENSt9enable_ifIXsrSt6__and_IINS1_16__destroy_helperIT_E4typeEEE5valueEvE4typeERS0_PS6_' type='func-type' binding='weak-binding' visibility='default-visibility' alias='_ZNSt16allocator_traitsISaISsEE10_S_destroyISsEENSt9enable_ifIXsrSt6__and_IJNS1_16__destroy_helperIT_E4typeEEE5valueEvE4typeERS0_PS6_' is-defined='yes'/>
    <elf-symbol name='_ZNSt16allocator_traitsISaISsEE10_S_destroyISsEENSt9enable_ifIXsrSt6__and_IJNS1_16__destroy_helperIT_E4typeEEE5valueEvE4typeERS0_PS6_' type='func-type' binding='weak-binding' visibility='default-visibility' is-defined='yes'/>
    <elf-symbol name='_ZNSt16allocator_traitsISaISsEE10deallocateERS0_PSsm' type='func-type' binding='weak-binding' visibility='default-visibility' is-defined='yes'/>
    <elf-symbol name='_ZNSt16allocator_traitsISaISsEE11_S_max_sizeIKS0_vEEmRT_i' type='func-type' binding='weak-binding' visibility='default-visibility' is-defined='yes'/>
    <elf-symbol name='_ZNSt16allocator_traitsISaISsEE12_S_constructISsISsEEENSt9enable_ifIXsrSt6__and_IINS1_18__construct_helperIT_IDpT0_EE4typeEEE5valueEvE4typeERS0_PS6_DpOS7_' type='func-type' binding='weak-binding' visibility='default-visibility' alias='_ZNSt16allocator_traitsISaISsEE12_S_constructISsJSsEEENSt9enable_ifIXsrSt6__and_IJNS1_18__construct_helperIT_JDpT0_EE4typeEEE5valueEvE4typeERS0_PS6_DpOS7_' is-defined='yes'/>
    <elf-symbol name='_ZNSt16allocator_traitsISaISsEE12_S_constructISsJSsEEENSt9enable_ifIXsrSt6__and_IJNS1_18__construct_helperIT_JDpT0_EE4typeEEE5valueEvE4typeERS0_PS6_DpOS7_' type='func-type' binding='weak-binding' visibility='default-visibility' is-defined='yes'/>
    <elf-symbol name='_ZNSt16allocator_traitsISaISsEE7destroyISsEEvRS0_PT_' type='func-type' binding='weak-binding' visibility='default-visibility' is-defined='yes'/>
    <elf-symbol name='_ZNSt16allocator_traitsISaISsEE8allocateERS0_m' type='func-type' binding='weak-binding' visibility='default-visibility' is-defined='yes'/>
    <elf-symbol name='_ZNSt16allocator_traitsISaISsEE8max_sizeERKS0_' type='func-type' binding='weak-binding' visibility='default-visibility' is-defined='yes'/>
    <elf-symbol name='_ZNSt16allocator_traitsISaISsEE9constructISsISsEEEDTcl12_S_constructfp_fp0_spcl7forwardIT0_Efp1_EEERS0_PT_DpOS3_' type='func-type' binding='weak-binding' visibility='default-visibility' alias='_ZNSt16allocator_traitsISaISsEE9constructISsJSsEEEDTcl12_S_constructfp_fp0_spcl7forwardIT0_Efp1_EEERS0_PT_DpOS3_' is-defined='yes'/>
    <elf-symbol name='_ZNSt16allocator_traitsISaISsEE9constructISsJSsEEEDTcl12_S_constructfp_fp0_spcl7forwardIT0_Efp1_EEERS0_PT_DpOS3_' type='func-type' binding='weak-binding' visibility='default-visibility' is-defined='yes'/>
    <elf-symbol name='_ZNSt16allocator_traitsISaISt10shared_ptrIN5mongo17optionenvironment10ConstraintEEEE10deallocateERS5_PS4_m' type='func-type' binding='weak-binding' visibility='default-visibility' is-defined='yes'/>
    <elf-symbol name='_ZNSt16allocator_traitsISaISt13_Rb_tree_nodeISt4pairIKSsSsEEEE10_S_destroyIS3_EENSt9enable_ifIXsrSt6__and_IINS6_16__destroy_helperIT_E4typeEEE5valueEvE4typeERS5_PSB_' type='func-type' binding='weak-binding' visibility='default-visibility' alias='_ZNSt16allocator_traitsISaISt13_Rb_tree_nodeISt4pairIKSsSsEEEE10_S_destroyIS3_EENSt9enable_ifIXsrSt6__and_IJNS6_16__destroy_helperIT_E4typeEEE5valueEvE4typeERS5_PSB_' is-defined='yes'/>
    <elf-symbol name='_ZNSt16allocator_traitsISaISt13_Rb_tree_nodeISt4pairIKSsSsEEEE10_S_destroyIS3_EENSt9enable_ifIXsrSt6__and_IJNS6_16__destroy_helperIT_E4typeEEE5valueEvE4typeERS5_PSB_' type='func-type' binding='weak-binding' visibility='default-visibility' is-defined='yes'/>
    <elf-symbol name='_ZNSt16allocator_traitsISaISt13_Rb_tree_nodeISt4pairIKSsSsEEEE10deallocateERS5_PS4_m' type='func-type' binding='weak-binding' visibility='default-visibility' is-defined='yes'/>
    <elf-symbol name='_ZNSt16allocator_traitsISaISt13_Rb_tree_nodeISt4pairIKSsSsEEEE7destroyIS3_EEvRS5_PT_' type='func-type' binding='weak-binding' visibility='default-visibility' is-defined='yes'/>
    <elf-symbol name='_ZNSt17_Function_handlerIFN5mongo6StatusEPNS0_18InitializerContextEEPS4_E9_M_invokeERKSt9_Any_dataS3_' type='func-type' binding='weak-binding' visibility='default-visibility' is-defined='yes'/>
    <elf-symbol name='_ZNSt17_Rb_tree_iteratorISt4pairIKSsSsEEC1EPSt13_Rb_tree_nodeIS2_E' type='func-type' binding='weak-binding' visibility='default-visibility' is-defined='yes'/>
    <elf-symbol name='_ZNSt17_Rb_tree_iteratorISt4pairIKSsSsEEC2EPSt13_Rb_tree_nodeIS2_E' type='func-type' binding='weak-binding' visibility='default-visibility' alias='_ZNSt17_Rb_tree_iteratorISt4pairIKSsSsEEC1EPSt13_Rb_tree_nodeIS2_E' is-defined='yes'/>
    <elf-symbol name='_ZNSt17_Rb_tree_iteratorISt4pairIKSsSsEEppEi' type='func-type' binding='weak-binding' visibility='default-visibility' is-defined='yes'/>
    <elf-symbol name='_ZNSt20__uninitialized_copyILb0EE13__uninit_copyIN9__gnu_cxx17__normal_iteratorIPKSsSt6vectorISsSaISsEEEEPSsEET0_T_SC_SB_' type='func-type' binding='weak-binding' visibility='default-visibility' is-defined='yes'/>
    <elf-symbol name='_ZNSt20__uninitialized_copyILb0EE13__uninit_copyIPSsS2_EET0_T_S4_S3_' type='func-type' binding='weak-binding' visibility='default-visibility' is-defined='yes'/>
    <elf-symbol name='_ZNSt20__uninitialized_copyILb0EE13__uninit_copyISt13move_iteratorIPSsES3_EET0_T_S6_S5_' type='func-type' binding='weak-binding' visibility='default-visibility' is-defined='yes'/>
    <elf-symbol name='_ZNSt31_Maybe_unary_or_binary_functionIN5mongo6StatusEIPNS0_18InitializerContextEEEC1Ev' type='func-type' binding='weak-binding' visibility='default-visibility' is-defined='yes'/>
    <elf-symbol name='_ZNSt31_Maybe_unary_or_binary_functionIN5mongo6StatusEIPNS0_18InitializerContextEEEC2Ev' type='func-type' binding='weak-binding' visibility='default-visibility' is-defined='yes'/>
    <elf-symbol name='_ZNSt31_Maybe_unary_or_binary_functionIN5mongo6StatusEJPNS0_18InitializerContextEEEC1Ev' type='func-type' binding='weak-binding' visibility='default-visibility' alias='_ZNSt31_Maybe_unary_or_binary_functionIN5mongo6StatusEJPNS0_18InitializerContextEEEC2Ev,_ZNSt31_Maybe_unary_or_binary_functionIN5mongo6StatusEIPNS0_18InitializerContextEEEC1Ev,_ZNSt31_Maybe_unary_or_binary_functionIN5mongo6StatusEIPNS0_18InitializerContextEEEC2Ev' is-defined='yes'/>
    <elf-symbol name='_ZNSt31_Maybe_unary_or_binary_functionIN5mongo6StatusEJPNS0_18InitializerContextEEEC2Ev' type='func-type' binding='weak-binding' visibility='default-visibility' is-defined='yes'/>
    <elf-symbol name='_ZNSt3mapISsSsSt4lessISsESaISt4pairIKSsSsEEE3endEv' type='func-type' binding='weak-binding' visibility='default-visibility' is-defined='yes'/>
    <elf-symbol name='_ZNSt3mapISsSsSt4lessISsESaISt4pairIKSsSsEEE5beginEv' type='func-type' binding='weak-binding' visibility='default-visibility' is-defined='yes'/>
    <elf-symbol name='_ZNSt3mapISsSsSt4lessISsESaISt4pairIKSsSsEEEC1Ev' type='func-type' binding='weak-binding' visibility='default-visibility' is-defined='yes'/>
    <elf-symbol name='_ZNSt3mapISsSsSt4lessISsESaISt4pairIKSsSsEEEC2Ev' type='func-type' binding='weak-binding' visibility='default-visibility' alias='_ZNSt3mapISsSsSt4lessISsESaISt4pairIKSsSsEEEC1Ev' is-defined='yes'/>
    <elf-symbol name='_ZNSt3mapISsSsSt4lessISsESaISt4pairIKSsSsEEED1Ev' type='func-type' binding='weak-binding' visibility='default-visibility' alias='_ZNSt3mapISsSsSt4lessISsESaISt4pairIKSsSsEEED2Ev' is-defined='yes'/>
    <elf-symbol name='_ZNSt3mapISsSsSt4lessISsESaISt4pairIKSsSsEEED2Ev' type='func-type' binding='weak-binding' visibility='default-visibility' is-defined='yes'/>
    <elf-symbol name='_ZNSt4listIN5mongo17optionenvironment13OptionSectionESaIS2_EEC1Ev' type='func-type' binding='weak-binding' visibility='default-visibility' is-defined='yes'/>
    <elf-symbol name='_ZNSt4listIN5mongo17optionenvironment13OptionSectionESaIS2_EEC2Ev' type='func-type' binding='weak-binding' visibility='default-visibility' alias='_ZNSt4listIN5mongo17optionenvironment13OptionSectionESaIS2_EEC1Ev' is-defined='yes'/>
    <elf-symbol name='_ZNSt4listIN5mongo17optionenvironment13OptionSectionESaIS2_EED1Ev' type='func-type' binding='weak-binding' visibility='default-visibility' alias='_ZNSt4listIN5mongo17optionenvironment13OptionSectionESaIS2_EED2Ev' is-defined='yes'/>
    <elf-symbol name='_ZNSt4listIN5mongo17optionenvironment13OptionSectionESaIS2_EED2Ev' type='func-type' binding='weak-binding' visibility='default-visibility' is-defined='yes'/>
    <elf-symbol name='_ZNSt4listIN5mongo17optionenvironment17OptionDescriptionESaIS2_EEC1Ev' type='func-type' binding='weak-binding' visibility='default-visibility' is-defined='yes'/>
    <elf-symbol name='_ZNSt4listIN5mongo17optionenvironment17OptionDescriptionESaIS2_EEC2Ev' type='func-type' binding='weak-binding' visibility='default-visibility' alias='_ZNSt4listIN5mongo17optionenvironment17OptionDescriptionESaIS2_EEC1Ev' is-defined='yes'/>
    <elf-symbol name='_ZNSt4listIN5mongo17optionenvironment17OptionDescriptionESaIS2_EED1Ev' type='func-type' binding='weak-binding' visibility='default-visibility' is-defined='yes'/>
    <elf-symbol name='_ZNSt4listIN5mongo17optionenvironment17OptionDescriptionESaIS2_EED2Ev' type='func-type' binding='weak-binding' visibility='default-visibility' alias='_ZNSt4listIN5mongo17optionenvironment17OptionDescriptionESaIS2_EED1Ev' is-defined='yes'/>
    <elf-symbol name='_ZNSt4pairIKSsSsED1Ev' type='func-type' binding='weak-binding' visibility='default-visibility' is-defined='yes'/>
    <elf-symbol name='_ZNSt4pairIKSsSsED2Ev' type='func-type' binding='weak-binding' visibility='default-visibility' alias='_ZNSt4pairIKSsSsED1Ev' is-defined='yes'/>
    <elf-symbol name='_ZNSt6vectorISsSaISsEE12emplace_backIISsEEEvDpOT_' type='func-type' binding='weak-binding' visibility='default-visibility' alias='_ZNSt6vectorISsSaISsEE12emplace_backIJSsEEEvDpOT_' is-defined='yes'/>
    <elf-symbol name='_ZNSt6vectorISsSaISsEE12emplace_backIJSsEEEvDpOT_' type='func-type' binding='weak-binding' visibility='default-visibility' is-defined='yes'/>
    <elf-symbol name='_ZNSt6vectorISsSaISsEE14_M_move_assignEOS1_St17integral_constantIbLb1EE' type='func-type' binding='weak-binding' visibility='default-visibility' is-defined='yes'/>
    <elf-symbol name='_ZNSt6vectorISsSaISsEE15_M_erase_at_endEPSs' type='func-type' binding='weak-binding' visibility='default-visibility' is-defined='yes'/>
    <elf-symbol name='_ZNSt6vectorISsSaISsEE19_M_emplace_back_auxIISsEEEvDpOT_' type='func-type' binding='weak-binding' visibility='default-visibility' alias='_ZNSt6vectorISsSaISsEE19_M_emplace_back_auxIJSsEEEvDpOT_' is-defined='yes'/>
    <elf-symbol name='_ZNSt6vectorISsSaISsEE19_M_emplace_back_auxIJSsEEEvDpOT_' type='func-type' binding='weak-binding' visibility='default-visibility' is-defined='yes'/>
    <elf-symbol name='_ZNSt6vectorISsSaISsEE20_M_allocate_and_copyIN9__gnu_cxx17__normal_iteratorIPKSsS1_EEEEPSsmT_S9_' type='func-type' binding='weak-binding' visibility='default-visibility' is-defined='yes'/>
    <elf-symbol name='_ZNSt6vectorISsSaISsEE3endEv' type='func-type' binding='weak-binding' visibility='default-visibility' is-defined='yes'/>
    <elf-symbol name='_ZNSt6vectorISsSaISsEE5beginEv' type='func-type' binding='weak-binding' visibility='default-visibility' is-defined='yes'/>
    <elf-symbol name='_ZNSt6vectorISsSaISsEE5clearEv' type='func-type' binding='weak-binding' visibility='default-visibility' is-defined='yes'/>
    <elf-symbol name='_ZNSt6vectorISsSaISsEE9push_backEOSs' type='func-type' binding='weak-binding' visibility='default-visibility' is-defined='yes'/>
    <elf-symbol name='_ZNSt6vectorISsSaISsEEC1ERKS0_' type='func-type' binding='weak-binding' visibility='default-visibility' is-defined='yes'/>
    <elf-symbol name='_ZNSt6vectorISsSaISsEEC1Ev' type='func-type' binding='weak-binding' visibility='default-visibility' is-defined='yes'/>
    <elf-symbol name='_ZNSt6vectorISsSaISsEEC2ERKS0_' type='func-type' binding='weak-binding' visibility='default-visibility' alias='_ZNSt6vectorISsSaISsEEC1ERKS0_' is-defined='yes'/>
    <elf-symbol name='_ZNSt6vectorISsSaISsEEC2Ev' type='func-type' binding='weak-binding' visibility='default-visibility' alias='_ZNSt6vectorISsSaISsEEC1Ev' is-defined='yes'/>
    <elf-symbol name='_ZNSt6vectorISsSaISsEED1Ev' type='func-type' binding='weak-binding' visibility='default-visibility' is-defined='yes'/>
    <elf-symbol name='_ZNSt6vectorISsSaISsEED2Ev' type='func-type' binding='weak-binding' visibility='default-visibility' alias='_ZNSt6vectorISsSaISsEED1Ev' is-defined='yes'/>
    <elf-symbol name='_ZNSt6vectorISsSaISsEEaSEOS1_' type='func-type' binding='weak-binding' visibility='default-visibility' is-defined='yes'/>
    <elf-symbol name='_ZNSt6vectorISsSaISsEEaSERKS1_' type='func-type' binding='weak-binding' visibility='default-visibility' is-defined='yes'/>
    <elf-symbol name='_ZNSt6vectorISt10shared_ptrIN5mongo17optionenvironment10ConstraintEESaIS4_EED1Ev' type='func-type' binding='weak-binding' visibility='default-visibility' is-defined='yes'/>
    <elf-symbol name='_ZNSt6vectorISt10shared_ptrIN5mongo17optionenvironment10ConstraintEESaIS4_EED2Ev' type='func-type' binding='weak-binding' visibility='default-visibility' alias='_ZNSt6vectorISt10shared_ptrIN5mongo17optionenvironment10ConstraintEESaIS4_EED1Ev' is-defined='yes'/>
    <elf-symbol name='_ZNSt8_Rb_treeISsSt4pairIKSsSsESt10_Select1stIS2_ESt4lessISsESaIS2_EE11_M_put_nodeEPSt13_Rb_tree_nodeIS2_E' type='func-type' binding='weak-binding' visibility='default-visibility' is-defined='yes'/>
    <elf-symbol name='_ZNSt8_Rb_treeISsSt4pairIKSsSsESt10_Select1stIS2_ESt4lessISsESaIS2_EE13_Rb_tree_implIS6_Lb1EE13_M_initializeEv' type='func-type' binding='weak-binding' visibility='default-visibility' is-defined='yes'/>
    <elf-symbol name='_ZNSt8_Rb_treeISsSt4pairIKSsSsESt10_Select1stIS2_ESt4lessISsESaIS2_EE13_Rb_tree_implIS6_Lb1EEC1Ev' type='func-type' binding='weak-binding' visibility='default-visibility' is-defined='yes'/>
    <elf-symbol name='_ZNSt8_Rb_treeISsSt4pairIKSsSsESt10_Select1stIS2_ESt4lessISsESaIS2_EE13_Rb_tree_implIS6_Lb1EEC2Ev' type='func-type' binding='weak-binding' visibility='default-visibility' alias='_ZNSt8_Rb_treeISsSt4pairIKSsSsESt10_Select1stIS2_ESt4lessISsESaIS2_EE13_Rb_tree_implIS6_Lb1EEC1Ev' is-defined='yes'/>
    <elf-symbol name='_ZNSt8_Rb_treeISsSt4pairIKSsSsESt10_Select1stIS2_ESt4lessISsESaIS2_EE13_Rb_tree_implIS6_Lb1EED1Ev' type='func-type' binding='weak-binding' visibility='default-visibility' alias='_ZNSt8_Rb_treeISsSt4pairIKSsSsESt10_Select1stIS2_ESt4lessISsESaIS2_EE13_Rb_tree_implIS6_Lb1EED2Ev' is-defined='yes'/>
    <elf-symbol name='_ZNSt8_Rb_treeISsSt4pairIKSsSsESt10_Select1stIS2_ESt4lessISsESaIS2_EE13_Rb_tree_implIS6_Lb1EED2Ev' type='func-type' binding='weak-binding' visibility='default-visibility' is-defined='yes'/>
    <elf-symbol name='_ZNSt8_Rb_treeISsSt4pairIKSsSsESt10_Select1stIS2_ESt4lessISsESaIS2_EE15_M_destroy_nodeEPSt13_Rb_tree_nodeIS2_E' type='func-type' binding='weak-binding' visibility='default-visibility' is-defined='yes'/>
    <elf-symbol name='_ZNSt8_Rb_treeISsSt4pairIKSsSsESt10_Select1stIS2_ESt4lessISsESaIS2_EE21_M_get_Node_allocatorEv' type='func-type' binding='weak-binding' visibility='default-visibility' is-defined='yes'/>
    <elf-symbol name='_ZNSt8_Rb_treeISsSt4pairIKSsSsESt10_Select1stIS2_ESt4lessISsESaIS2_EE3endEv' type='func-type' binding='weak-binding' visibility='default-visibility' is-defined='yes'/>
    <elf-symbol name='_ZNSt8_Rb_treeISsSt4pairIKSsSsESt10_Select1stIS2_ESt4lessISsESaIS2_EE5beginEv' type='func-type' binding='weak-binding' visibility='default-visibility' is-defined='yes'/>
    <elf-symbol name='_ZNSt8_Rb_treeISsSt4pairIKSsSsESt10_Select1stIS2_ESt4lessISsESaIS2_EE7_S_leftEPSt18_Rb_tree_node_base' type='func-type' binding='weak-binding' visibility='default-visibility' is-defined='yes'/>
    <elf-symbol name='_ZNSt8_Rb_treeISsSt4pairIKSsSsESt10_Select1stIS2_ESt4lessISsESaIS2_EE8_M_beginEv' type='func-type' binding='weak-binding' visibility='default-visibility' is-defined='yes'/>
    <elf-symbol name='_ZNSt8_Rb_treeISsSt4pairIKSsSsESt10_Select1stIS2_ESt4lessISsESaIS2_EE8_M_eraseEPSt13_Rb_tree_nodeIS2_E' type='func-type' binding='weak-binding' visibility='default-visibility' is-defined='yes'/>
    <elf-symbol name='_ZNSt8_Rb_treeISsSt4pairIKSsSsESt10_Select1stIS2_ESt4lessISsESaIS2_EE8_S_rightEPSt18_Rb_tree_node_base' type='func-type' binding='weak-binding' visibility='default-visibility' is-defined='yes'/>
    <elf-symbol name='_ZNSt8_Rb_treeISsSt4pairIKSsSsESt10_Select1stIS2_ESt4lessISsESaIS2_EEC1Ev' type='func-type' binding='weak-binding' visibility='default-visibility' is-defined='yes'/>
    <elf-symbol name='_ZNSt8_Rb_treeISsSt4pairIKSsSsESt10_Select1stIS2_ESt4lessISsESaIS2_EEC2Ev' type='func-type' binding='weak-binding' visibility='default-visibility' alias='_ZNSt8_Rb_treeISsSt4pairIKSsSsESt10_Select1stIS2_ESt4lessISsESaIS2_EEC1Ev' is-defined='yes'/>
    <elf-symbol name='_ZNSt8_Rb_treeISsSt4pairIKSsSsESt10_Select1stIS2_ESt4lessISsESaIS2_EED1Ev' type='func-type' binding='weak-binding' visibility='default-visibility' is-defined='yes'/>
    <elf-symbol name='_ZNSt8_Rb_treeISsSt4pairIKSsSsESt10_Select1stIS2_ESt4lessISsESaIS2_EED2Ev' type='func-type' binding='weak-binding' visibility='default-visibility' alias='_ZNSt8_Rb_treeISsSt4pairIKSsSsESt10_Select1stIS2_ESt4lessISsESaIS2_EED1Ev' is-defined='yes'/>
    <elf-symbol name='_ZNSt8functionIFN5mongo6StatusEPNS0_18InitializerContextEEEC1IPS4_vEET_' type='func-type' binding='weak-binding' visibility='default-visibility' is-defined='yes'/>
    <elf-symbol name='_ZNSt8functionIFN5mongo6StatusEPNS0_18InitializerContextEEEC2IPS4_vEET_' type='func-type' binding='weak-binding' visibility='default-visibility' alias='_ZNSt8functionIFN5mongo6StatusEPNS0_18InitializerContextEEEC1IPS4_vEET_' is-defined='yes'/>
    <elf-symbol name='_ZNSt8functionIFN5mongo6StatusEPNS0_18InitializerContextEEED1Ev' type='func-type' binding='weak-binding' visibility='default-visibility' is-defined='yes'/>
    <elf-symbol name='_ZNSt8functionIFN5mongo6StatusEPNS0_18InitializerContextEEED2Ev' type='func-type' binding='weak-binding' visibility='default-visibility' alias='_ZNSt8functionIFN5mongo6StatusEPNS0_18InitializerContextEEED1Ev' is-defined='yes'/>
    <elf-symbol name='_ZNSt9_Any_data9_M_accessEv' type='func-type' binding='weak-binding' visibility='default-visibility' is-defined='yes'/>
    <elf-symbol name='_ZNSt9_Any_data9_M_accessIPFN5mongo6StatusEPNS1_18InitializerContextEEEERT_v' type='func-type' binding='weak-binding' visibility='default-visibility' is-defined='yes'/>
    <elf-symbol name='_ZNSt9_Any_data9_M_accessIPKSt9type_infoEERT_v' type='func-type' binding='weak-binding' visibility='default-visibility' is-defined='yes'/>
    <elf-symbol name='_ZNSt9_Any_data9_M_accessIPPFN5mongo6StatusEPNS1_18InitializerContextEEEERT_v' type='func-type' binding='weak-binding' visibility='default-visibility' is-defined='yes'/>
    <elf-symbol name='_ZNSt9exceptionC1Ev' type='func-type' binding='weak-binding' visibility='default-visibility' is-defined='yes'/>
    <elf-symbol name='_ZNSt9exceptionC2Ev' type='func-type' binding='weak-binding' visibility='default-visibility' alias='_ZNSt9exceptionC1Ev' is-defined='yes'/>
    <elf-symbol name='_ZSt10_ConstructISsIRKSsEEvPT_DpOT0_' type='func-type' binding='weak-binding' visibility='default-visibility' alias='_ZSt10_ConstructISsJRKSsEEvPT_DpOT0_' is-defined='yes'/>
    <elf-symbol name='_ZSt10_ConstructISsIRSsEEvPT_DpOT0_' type='func-type' binding='weak-binding' visibility='default-visibility' alias='_ZSt10_ConstructISsJRSsEEvPT_DpOT0_' is-defined='yes'/>
    <elf-symbol name='_ZSt10_ConstructISsISsEEvPT_DpOT0_' type='func-type' binding='weak-binding' visibility='default-visibility' alias='_ZSt10_ConstructISsJSsEEvPT_DpOT0_' is-defined='yes'/>
    <elf-symbol name='_ZSt10_ConstructISsJRKSsEEvPT_DpOT0_' type='func-type' binding='weak-binding' visibility='default-visibility' is-defined='yes'/>
    <elf-symbol name='_ZSt10_ConstructISsJRSsEEvPT_DpOT0_' type='func-type' binding='weak-binding' visibility='default-visibility' is-defined='yes'/>
    <elf-symbol name='_ZSt10_ConstructISsJSsEEvPT_DpOT0_' type='func-type' binding='weak-binding' visibility='default-visibility' is-defined='yes'/>
    <elf-symbol name='_ZSt11__addressofIKPFN5mongo6StatusEPNS0_18InitializerContextEEEPT_RS7_' type='func-type' binding='weak-binding' visibility='default-visibility' is-defined='yes'/>
    <elf-symbol name='_ZSt11__addressofISsEPT_RS0_' type='func-type' binding='weak-binding' visibility='default-visibility' is-defined='yes'/>
    <elf-symbol name='_ZSt11__addressofISt10shared_ptrIN5mongo17optionenvironment10ConstraintEEEPT_RS5_' type='func-type' binding='weak-binding' visibility='default-visibility' is-defined='yes'/>
    <elf-symbol name='_ZSt12__get_helperILm0EPN5mongo14BSONObjBuilderEISt14default_deleteIS1_EEENSt9__add_refIT0_E4typeERSt11_Tuple_implIXT_EIS6_DpT1_EE' type='func-type' binding='weak-binding' visibility='default-visibility' alias='_ZSt12__get_helperILm0EPN5mongo14BSONObjBuilderEJSt14default_deleteIS1_EEENSt9__add_refIT0_E4typeERSt11_Tuple_implIXT_EJS6_DpT1_EE' is-defined='yes'/>
    <elf-symbol name='_ZSt12__get_helperILm0EPN5mongo14BSONObjBuilderEJSt14default_deleteIS1_EEENSt9__add_refIT0_E4typeERSt11_Tuple_implIXT_EJS6_DpT1_EE' type='func-type' binding='weak-binding' visibility='default-visibility' is-defined='yes'/>
    <elf-symbol name='_ZSt12__get_helperILm0EPSt19basic_ostringstreamIcSt11char_traitsIcESaIcEEISt14default_deleteIS4_EEENSt11__add_c_refIT0_E4typeERKSt11_Tuple_implIXT_EIS9_DpT1_EE' type='func-type' binding='weak-binding' visibility='default-visibility' alias='_ZSt12__get_helperILm0EPSt19basic_ostringstreamIcSt11char_traitsIcESaIcEEJSt14default_deleteIS4_EEENSt11__add_c_refIT0_E4typeERKSt11_Tuple_implIXT_EJS9_DpT1_EE' is-defined='yes'/>
    <elf-symbol name='_ZSt12__get_helperILm0EPSt19basic_ostringstreamIcSt11char_traitsIcESaIcEEJSt14default_deleteIS4_EEENSt11__add_c_refIT0_E4typeERKSt11_Tuple_implIXT_EJS9_DpT1_EE' type='func-type' binding='weak-binding' visibility='default-visibility' is-defined='yes'/>
    <elf-symbol name='_ZSt12__get_helperILm1ESt14default_deleteIN5mongo14BSONObjBuilderEEIEENSt9__add_refIT0_E4typeERSt11_Tuple_implIXT_EIS5_DpT1_EE' type='func-type' binding='weak-binding' visibility='default-visibility' alias='_ZSt12__get_helperILm1ESt14default_deleteIN5mongo14BSONObjBuilderEEJEENSt9__add_refIT0_E4typeERSt11_Tuple_implIXT_EJS5_DpT1_EE' is-defined='yes'/>
    <elf-symbol name='_ZSt12__get_helperILm1ESt14default_deleteIN5mongo14BSONObjBuilderEEJEENSt9__add_refIT0_E4typeERSt11_Tuple_implIXT_EJS5_DpT1_EE' type='func-type' binding='weak-binding' visibility='default-visibility' is-defined='yes'/>
    <elf-symbol name='_ZSt12__miter_baseIN9__gnu_cxx17__normal_iteratorIPKSsSt6vectorISsSaISsEEEEENSt11_Miter_baseIT_E13iterator_typeES9_' type='func-type' binding='weak-binding' visibility='default-visibility' is-defined='yes'/>
    <elf-symbol name='_ZSt12__miter_baseIPSsENSt11_Miter_baseIT_E13iterator_typeES2_' type='func-type' binding='weak-binding' visibility='default-visibility' is-defined='yes'/>
    <elf-symbol name='_ZSt12__niter_baseIN9__gnu_cxx17__normal_iteratorIPKSsSt6vectorISsSaISsEEEEENSt11_Niter_baseIT_E13iterator_typeES9_' type='func-type' binding='weak-binding' visibility='default-visibility' is-defined='yes'/>
    <elf-symbol name='_ZSt12__niter_baseIN9__gnu_cxx17__normal_iteratorIPSsSt6vectorISsSaISsEEEEENSt11_Niter_baseIT_E13iterator_typeES8_' type='func-type' binding='weak-binding' visibility='default-visibility' is-defined='yes'/>
    <elf-symbol name='_ZSt12__niter_baseIPSsENSt11_Niter_baseIT_E13iterator_typeES2_' type='func-type' binding='weak-binding' visibility='default-visibility' is-defined='yes'/>
    <elf-symbol name='_ZSt13__copy_move_aILb0EPKSsPSsET1_T0_S4_S3_' type='func-type' binding='weak-binding' visibility='default-visibility' is-defined='yes'/>
    <elf-symbol name='_ZSt13__copy_move_aILb0EPSsS0_ET1_T0_S2_S1_' type='func-type' binding='weak-binding' visibility='default-visibility' is-defined='yes'/>
    <elf-symbol name='_ZSt14__copy_move_a2ILb0EN9__gnu_cxx17__normal_iteratorIPKSsSt6vectorISsSaISsEEEENS1_IPSsS6_EEET1_T0_SB_SA_' type='func-type' binding='weak-binding' visibility='default-visibility' is-defined='yes'/>
    <elf-symbol name='_ZSt14__copy_move_a2ILb0EPSsS0_ET1_T0_S2_S1_' type='func-type' binding='weak-binding' visibility='default-visibility' is-defined='yes'/>
    <elf-symbol name='_ZSt15__alloc_on_copyISaISsEEvRT_RKS1_' type='func-type' binding='weak-binding' visibility='default-visibility' is-defined='yes'/>
    <elf-symbol name='_ZSt15__alloc_on_moveISaISsEEvRT_S2_' type='func-type' binding='weak-binding' visibility='default-visibility' is-defined='yes'/>
    <elf-symbol name='_ZSt18__do_alloc_on_copyISaISsEEvRT_RKS1_St17integral_constantIbLb0EE' type='func-type' binding='weak-binding' visibility='default-visibility' is-defined='yes'/>
    <elf-symbol name='_ZSt18__do_alloc_on_moveISaISsEEvRT_S2_St17integral_constantIbLb1EE' type='func-type' binding='weak-binding' visibility='default-visibility' is-defined='yes'/>
    <elf-symbol name='_ZSt18uninitialized_copyIN9__gnu_cxx17__normal_iteratorIPKSsSt6vectorISsSaISsEEEEPSsET0_T_SA_S9_' type='func-type' binding='weak-binding' visibility='default-visibility' is-defined='yes'/>
    <elf-symbol name='_ZSt18uninitialized_copyIPSsS0_ET0_T_S2_S1_' type='func-type' binding='weak-binding' visibility='default-visibility' is-defined='yes'/>
    <elf-symbol name='_ZSt18uninitialized_copyISt13move_iteratorIPSsES1_ET0_T_S4_S3_' type='func-type' binding='weak-binding' visibility='default-visibility' is-defined='yes'/>
    <elf-symbol name='_ZSt22__uninitialized_copy_aIN9__gnu_cxx17__normal_iteratorIPKSsSt6vectorISsSaISsEEEEPSsSsET0_T_SA_S9_RSaIT1_E' type='func-type' binding='weak-binding' visibility='default-visibility' is-defined='yes'/>
    <elf-symbol name='_ZSt22__uninitialized_copy_aIPSsS0_SsET0_T_S2_S1_RSaIT1_E' type='func-type' binding='weak-binding' visibility='default-visibility' is-defined='yes'/>
    <elf-symbol name='_ZSt22__uninitialized_copy_aISt13move_iteratorIPSsES1_SsET0_T_S4_S3_RSaIT1_E' type='func-type' binding='weak-binding' visibility='default-visibility' is-defined='yes'/>
    <elf-symbol name='_ZSt32__make_move_if_noexcept_iteratorIPSsSt13move_iteratorIS0_EET0_T_' type='func-type' binding='weak-binding' visibility='default-visibility' is-defined='yes'/>
    <elf-symbol name='_ZSt34__uninitialized_move_if_noexcept_aIPSsS0_SaISsEET0_T_S3_S2_RT1_' type='func-type' binding='weak-binding' visibility='default-visibility' is-defined='yes'/>
    <elf-symbol name='_ZSt3getILm0EIPN5mongo14BSONObjBuilderESt14default_deleteIS1_EEENSt9__add_refINSt13tuple_elementIXT_ESt5tupleIIDpT0_EEE4typeEE4typeERSA_' type='func-type' binding='weak-binding' visibility='default-visibility' alias='_ZSt3getILm0EJPN5mongo14BSONObjBuilderESt14default_deleteIS1_EEENSt9__add_refINSt13tuple_elementIXT_ESt5tupleIJDpT0_EEE4typeEE4typeERSA_' is-defined='yes'/>
    <elf-symbol name='_ZSt3getILm0EIPSt19basic_ostringstreamIcSt11char_traitsIcESaIcEESt14default_deleteIS4_EEENSt11__add_c_refINSt13tuple_elementIXT_ESt5tupleIIDpT0_EEE4typeEE4typeERKSD_' type='func-type' binding='weak-binding' visibility='default-visibility' alias='_ZSt3getILm0EJPSt19basic_ostringstreamIcSt11char_traitsIcESaIcEESt14default_deleteIS4_EEENSt11__add_c_refINSt13tuple_elementIXT_ESt5tupleIJDpT0_EEE4typeEE4typeERKSD_' is-defined='yes'/>
    <elf-symbol name='_ZSt3getILm0EJPN5mongo14BSONObjBuilderESt14default_deleteIS1_EEENSt9__add_refINSt13tuple_elementIXT_ESt5tupleIJDpT0_EEE4typeEE4typeERSA_' type='func-type' binding='weak-binding' visibility='default-visibility' is-defined='yes'/>
    <elf-symbol name='_ZSt3getILm0EJPSt19basic_ostringstreamIcSt11char_traitsIcESaIcEESt14default_deleteIS4_EEENSt11__add_c_refINSt13tuple_elementIXT_ESt5tupleIJDpT0_EEE4typeEE4typeERKSD_' type='func-type' binding='weak-binding' visibility='default-visibility' is-defined='yes'/>
    <elf-symbol name='_ZSt3getILm1EIPN5mongo14BSONObjBuilderESt14default_deleteIS1_EEENSt9__add_refINSt13tuple_elementIXT_ESt5tupleIIDpT0_EEE4typeEE4typeERSA_' type='func-type' binding='weak-binding' visibility='default-visibility' alias='_ZSt3getILm1EJPN5mongo14BSONObjBuilderESt14default_deleteIS1_EEENSt9__add_refINSt13tuple_elementIXT_ESt5tupleIJDpT0_EEE4typeEE4typeERSA_' is-defined='yes'/>
    <elf-symbol name='_ZSt3getILm1EJPN5mongo14BSONObjBuilderESt14default_deleteIS1_EEENSt9__add_refINSt13tuple_elementIXT_ESt5tupleIJDpT0_EEE4typeEE4typeERSA_' type='func-type' binding='weak-binding' visibility='default-visibility' is-defined='yes'/>
    <elf-symbol name='_ZSt3maxImERKT_S2_S2_' type='func-type' binding='weak-binding' visibility='default-visibility' is-defined='yes'/>
    <elf-symbol name='_ZSt4copyIN9__gnu_cxx17__normal_iteratorIPKSsSt6vectorISsSaISsEEEENS1_IPSsS6_EEET0_T_SB_SA_' type='func-type' binding='weak-binding' visibility='default-visibility' is-defined='yes'/>
    <elf-symbol name='_ZSt4copyIPSsS0_ET0_T_S2_S1_' type='func-type' binding='weak-binding' visibility='default-visibility' is-defined='yes'/>
    <elf-symbol name='_ZSt4moveIRPFN5mongo6StatusEPNS0_18InitializerContextEEEONSt16remove_referenceIT_E4typeEOS8_' type='func-type' binding='weak-binding' visibility='default-visibility' is-defined='yes'/>
    <elf-symbol name='_ZSt4moveIRPSsEONSt16remove_referenceIT_E4typeEOS3_' type='func-type' binding='weak-binding' visibility='default-visibility' is-defined='yes'/>
    <elf-symbol name='_ZSt4moveIRSaISsEEONSt16remove_referenceIT_E4typeEOS3_' type='func-type' binding='weak-binding' visibility='default-visibility' is-defined='yes'/>
    <elf-symbol name='_ZSt4moveIRSsEONSt16remove_referenceIT_E4typeEOS2_' type='func-type' binding='weak-binding' visibility='default-visibility' is-defined='yes'/>
    <elf-symbol name='_ZSt4moveIRSt6vectorISsSaISsEEEONSt16remove_referenceIT_E4typeEOS5_' type='func-type' binding='weak-binding' visibility='default-visibility' is-defined='yes'/>
    <elf-symbol name='_ZSt4swapIPSsEvRT_S2_' type='func-type' binding='weak-binding' visibility='default-visibility' is-defined='yes'/>
    <elf-symbol name='_ZSt7forwardIPN5mongo18InitializerContextEEOT_RNSt16remove_referenceIS3_E4typeE' type='func-type' binding='weak-binding' visibility='default-visibility' is-defined='yes'/>
    <elf-symbol name='_ZSt7forwardIRKSsEOT_RNSt16remove_referenceIS2_E4typeE' type='func-type' binding='weak-binding' visibility='default-visibility' is-defined='yes'/>
    <elf-symbol name='_ZSt7forwardIRSsEOT_RNSt16remove_referenceIS1_E4typeE' type='func-type' binding='weak-binding' visibility='default-visibility' is-defined='yes'/>
    <elf-symbol name='_ZSt7forwardISsEOT_RNSt16remove_referenceIS0_E4typeE' type='func-type' binding='weak-binding' visibility='default-visibility' is-defined='yes'/>
    <elf-symbol name='_ZSt8_DestroyIN9__gnu_cxx17__normal_iteratorIPSsSt6vectorISsSaISsEEEEEvT_S7_' type='func-type' binding='weak-binding' visibility='default-visibility' is-defined='yes'/>
    <elf-symbol name='_ZSt8_DestroyIN9__gnu_cxx17__normal_iteratorIPSsSt6vectorISsSaISsEEEESsEvT_S7_RSaIT0_E' type='func-type' binding='weak-binding' visibility='default-visibility' is-defined='yes'/>
    <elf-symbol name='_ZSt8_DestroyIPSsEvT_S1_' type='func-type' binding='weak-binding' visibility='default-visibility' is-defined='yes'/>
    <elf-symbol name='_ZSt8_DestroyIPSsSsEvT_S1_RSaIT0_E' type='func-type' binding='weak-binding' visibility='default-visibility' is-defined='yes'/>
    <elf-symbol name='_ZSt8_DestroyIPSt10shared_ptrIN5mongo17optionenvironment10ConstraintEEEvT_S6_' type='func-type' binding='weak-binding' visibility='default-visibility' is-defined='yes'/>
    <elf-symbol name='_ZSt8_DestroyIPSt10shared_ptrIN5mongo17optionenvironment10ConstraintEES4_EvT_S6_RSaIT0_E' type='func-type' binding='weak-binding' visibility='default-visibility' is-defined='yes'/>
    <elf-symbol name='_ZSt8_DestroyISsEvPT_' type='func-type' binding='weak-binding' visibility='default-visibility' is-defined='yes'/>
    <elf-symbol name='_ZSt8_DestroyISt10shared_ptrIN5mongo17optionenvironment10ConstraintEEEvPT_' type='func-type' binding='weak-binding' visibility='default-visibility' is-defined='yes'/>
    <elf-symbol name='_ZSteqIPSsEbRKSt13move_iteratorIT_ES5_' type='func-type' binding='weak-binding' visibility='default-visibility' is-defined='yes'/>
    <elf-symbol name='_ZSteqIcSt11char_traitsIcESaIcEEbRKSbIT_T0_T1_EPKS3_' type='func-type' binding='weak-binding' visibility='default-visibility' is-defined='yes'/>
    <elf-symbol name='_ZStneIPSsEbRKSt13move_iteratorIT_ES5_' type='func-type' binding='weak-binding' visibility='default-visibility' is-defined='yes'/>
    <elf-symbol name='_ZStneISsEbRKSaIT_ES3_' type='func-type' binding='weak-binding' visibility='default-visibility' is-defined='yes'/>
    <elf-symbol name='_ZStorSt13_Ios_OpenmodeS_' type='func-type' binding='weak-binding' visibility='default-visibility' is-defined='yes'/>
    <elf-symbol name='_ZStplIcSt11char_traitsIcESaIcEESbIT_T0_T1_ERKS6_OS6_' type='func-type' binding='weak-binding' visibility='default-visibility' is-defined='yes'/>
    <elf-symbol name='_ZdlPvS_' type='func-type' binding='weak-binding' visibility='default-visibility' is-defined='yes'/>
    <elf-symbol name='_ZnwmPv' type='func-type' binding='weak-binding' visibility='default-visibility' is-defined='yes'/>
    <elf-symbol name='_fini' type='func-type' binding='global-binding' visibility='default-visibility' is-defined='yes'/>
    <elf-symbol name='_init' type='func-type' binding='global-binding' visibility='default-visibility' is-defined='yes'/>
  </elf-function-symbols>
  <elf-variable-symbols>
    <elf-symbol name='_ZN5mongo16saslGlobalParamsE' size='56' type='object-type' binding='global-binding' visibility='default-visibility' is-defined='yes'/>
    <elf-symbol name='_ZN5mongo19SASLHostNameSettingE' size='32' type='object-type' binding='global-binding' visibility='default-visibility' is-defined='yes'/>
    <elf-symbol name='_ZN5mongo20SASLAuthdPathSettingE' size='32' type='object-type' binding='global-binding' visibility='default-visibility' is-defined='yes'/>
    <elf-symbol name='_ZN5mongo22SASLServiceNameSettingE' size='32' type='object-type' binding='global-binding' visibility='default-visibility' is-defined='yes'/>
    <elf-symbol name='_ZN5mongo24scramIterationCountParamE' size='32' type='object-type' binding='global-binding' visibility='default-visibility' is-defined='yes'/>
    <elf-symbol name='_ZN5mongo35SASLAuthenticationMechanismsSettingE' size='32' type='object-type' binding='global-binding' visibility='default-visibility' is-defined='yes'/>
    <elf-symbol name='_ZTIFN5mongo6StatusEPNS_18InitializerContextEE' size='16' type='object-type' binding='weak-binding' visibility='default-visibility' is-defined='yes'/>
    <elf-symbol name='_ZTIN5mongo18AssertionExceptionE' size='24' type='object-type' binding='weak-binding' visibility='default-visibility' is-defined='yes'/>
    <elf-symbol name='_ZTIN5mongo23ExportedServerParameterISsEE' size='24' type='object-type' binding='weak-binding' visibility='default-visibility' is-defined='yes'/>
    <elf-symbol name='_ZTIN5mongo23ExportedServerParameterISt6vectorISsSaISsEEEE' size='24' type='object-type' binding='weak-binding' visibility='default-visibility' is-defined='yes'/>
    <elf-symbol name='_ZTIN5mongo23ExportedServerParameterIiEE' size='24' type='object-type' binding='weak-binding' visibility='default-visibility' is-defined='yes'/>
    <elf-symbol name='_ZTIN5mongo36ExportedScramIterationCountParameterE' size='24' type='object-type' binding='weak-binding' visibility='default-visibility' is-defined='yes'/>
    <elf-symbol name='_ZTIPFN5mongo6StatusEPNS_18InitializerContextEE' size='32' type='object-type' binding='weak-binding' visibility='default-visibility' is-defined='yes'/>
    <elf-symbol name='_ZTSFN5mongo6StatusEPNS_18InitializerContextEE' size='43' type='object-type' binding='weak-binding' visibility='default-visibility' is-defined='yes'/>
    <elf-symbol name='_ZTSN5mongo18AssertionExceptionE' size='29' type='object-type' binding='weak-binding' visibility='default-visibility' is-defined='yes'/>
    <elf-symbol name='_ZTSN5mongo23ExportedServerParameterISsEE' size='38' type='object-type' binding='weak-binding' visibility='default-visibility' is-defined='yes'/>
    <elf-symbol name='_ZTSN5mongo23ExportedServerParameterISt6vectorISsSaISsEEEE' size='55' type='object-type' binding='weak-binding' visibility='default-visibility' is-defined='yes'/>
    <elf-symbol name='_ZTSN5mongo23ExportedServerParameterIiEE' size='37' type='object-type' binding='weak-binding' visibility='default-visibility' is-defined='yes'/>
    <elf-symbol name='_ZTSN5mongo36ExportedScramIterationCountParameterE' size='47' type='object-type' binding='weak-binding' visibility='default-visibility' is-defined='yes'/>
    <elf-symbol name='_ZTSPFN5mongo6StatusEPNS_18InitializerContextEE' size='44' type='object-type' binding='weak-binding' visibility='default-visibility' is-defined='yes'/>
    <elf-symbol name='_ZTVN5mongo18AssertionExceptionE' size='88' type='object-type' binding='weak-binding' visibility='default-visibility' is-defined='yes'/>
    <elf-symbol name='_ZTVN5mongo23ExportedServerParameterISsEE' size='80' type='object-type' binding='weak-binding' visibility='default-visibility' is-defined='yes'/>
    <elf-symbol name='_ZTVN5mongo23ExportedServerParameterISt6vectorISsSaISsEEEE' size='80' type='object-type' binding='weak-binding' visibility='default-visibility' is-defined='yes'/>
    <elf-symbol name='_ZTVN5mongo23ExportedServerParameterIiEE' size='80' type='object-type' binding='weak-binding' visibility='default-visibility' is-defined='yes'/>
    <elf-symbol name='_ZTVN5mongo36ExportedScramIterationCountParameterE' size='80' type='object-type' binding='weak-binding' visibility='default-visibility' is-defined='yes'/>
  </elf-variable-symbols>
  <abi-instr address-size='64' path='src/mongo/db/auth/sasl_options.cpp' comp-dir-path='/home/andrew/Documents/10gen/dev/src/mongodb' language='LANG_C_plus_plus'>
    <type-decl name='bool' size-in-bits='8' id='type-id-1'/>
    <array-type-def dimensions='1' type-id='type-id-1' size-in-bits='112' id='type-id-2'>
      <subrange length='14' type-id='type-id-3' id='type-id-4'/>
    </array-type-def>
    <type-decl name='char' size-in-bits='8' id='type-id-5'/>
    <array-type-def dimensions='1' type-id='type-id-5' size-in-bits='96' id='type-id-6'>
      <subrange length='12' type-id='type-id-3' id='type-id-7'/>
    </array-type-def>
    <array-type-def dimensions='1' type-id='type-id-5' size-in-bits='112' id='type-id-8'>
      <subrange length='14' type-id='type-id-3' id='type-id-4'/>
    </array-type-def>
    <array-type-def dimensions='1' type-id='type-id-5' size-in-bits='128' id='type-id-9'>
      <subrange length='16' type-id='type-id-3' id='type-id-10'/>
    </array-type-def>
    <array-type-def dimensions='1' type-id='type-id-5' size-in-bits='8' id='type-id-11'>
      <subrange length='1' type-id='type-id-3' id='type-id-12'/>
    </array-type-def>
    <array-type-def dimensions='1' type-id='type-id-5' size-in-bits='160' id='type-id-13'>
      <subrange length='20' type-id='type-id-3' id='type-id-14'/>
    </array-type-def>
    <array-type-def dimensions='1' type-id='type-id-5' size-in-bits='336' id='type-id-15'>
      <subrange length='42' type-id='type-id-3' id='type-id-16'/>
    </array-type-def>
    <array-type-def dimensions='1' type-id='type-id-5' size-in-bits='32' id='type-id-17'>
      <subrange length='4' type-id='type-id-3' id='type-id-18'/>
    </array-type-def>
    <array-type-def dimensions='1' type-id='type-id-5' size-in-bits='400' id='type-id-19'>
      <subrange length='50' type-id='type-id-3' id='type-id-20'/>
    </array-type-def>
    <class-decl name='__anonymous_struct__' size-in-bits='128' is-struct='yes' is-anonymous='yes' visibility='default' id='type-id-21'>
      <data-member access='public' layout-offset-in-bits='0'>
        <var-decl name='__pfn' type-id='type-id-22' visibility='default' filepath='/usr/include/c++/4.9/functional' line='1761' column='1'/>
      </data-member>
      <data-member access='public' layout-offset-in-bits='64'>
        <var-decl name='__delta' type-id='type-id-23' visibility='default' filepath='/usr/include/c++/4.9/functional' line='1761' column='1'/>
      </data-member>
    </class-decl>
    <class-decl name='typedef __va_list_tag __va_list_tag' size-in-bits='192' is-struct='yes' visibility='default' id='type-id-24'>
      <data-member access='public' layout-offset-in-bits='0'>
        <var-decl name='gp_offset' type-id='type-id-25' visibility='default'/>
      </data-member>
      <data-member access='public' layout-offset-in-bits='32'>
        <var-decl name='fp_offset' type-id='type-id-25' visibility='default'/>
      </data-member>
      <data-member access='public' layout-offset-in-bits='64'>
        <var-decl name='overflow_arg_area' type-id='type-id-26' visibility='default'/>
      </data-member>
      <data-member access='public' layout-offset-in-bits='128'>
        <var-decl name='reg_save_area' type-id='type-id-26' visibility='default'/>
      </data-member>
    </class-decl>
    <type-decl name='double' size-in-bits='64' id='type-id-27'/>
    <type-decl name='float' size-in-bits='32' id='type-id-28'/>
    <type-decl name='int' size-in-bits='32' id='type-id-29'/>
    <array-type-def dimensions='1' type-id='type-id-29' size-in-bits='320' id='type-id-30'>
      <subrange length='10' type-id='type-id-3' id='type-id-31'/>
    </array-type-def>
    <type-decl name='long double' size-in-bits='128' id='type-id-32'/>
    <type-decl name='long int' size-in-bits='64' id='type-id-23'/>
    <type-decl name='long long int' size-in-bits='64' id='type-id-33'/>
    <type-decl name='long long unsigned int' size-in-bits='64' id='type-id-34'/>
    <type-decl name='short int' size-in-bits='16' id='type-id-35'/>
    <type-decl name='signed char' size-in-bits='8' id='type-id-36'/>
    <type-decl name='sizetype' size-in-bits='64' id='type-id-3'/>
    <array-type-def dimensions='1' type-id='type-id-37' size-in-bits='6400' id='type-id-38'>
      <subrange length='100' type-id='type-id-3' id='type-id-39'/>
    </array-type-def>
    <type-decl name='unnamed-enum-underlying-type-32' is-anonymous='yes' size-in-bits='32' alignment-in-bits='32' id='type-id-40'/>
    <type-decl name='unsigned char' size-in-bits='8' id='type-id-41'/>
    <array-type-def dimensions='1' type-id='type-id-41' size-in-bits='832' id='type-id-42'>
      <subrange length='104' type-id='type-id-3' id='type-id-43'/>
    </array-type-def>
    <array-type-def dimensions='1' type-id='type-id-41' size-in-bits='96' id='type-id-44'>
      <subrange length='12' type-id='type-id-3' id='type-id-7'/>
    </array-type-def>
    <array-type-def dimensions='1' type-id='type-id-41' size-in-bits='128' id='type-id-45'>
      <subrange length='16' type-id='type-id-3' id='type-id-10'/>
    </array-type-def>
    <array-type-def dimensions='1' type-id='type-id-41' size-in-bits='24' id='type-id-46'>
      <subrange length='3' type-id='type-id-3' id='type-id-47'/>
    </array-type-def>
    <array-type-def dimensions='1' type-id='type-id-41' size-in-bits='40' id='type-id-48'>
      <subrange length='5' type-id='type-id-3' id='type-id-49'/>
    </array-type-def>
    <type-decl name='unsigned int' size-in-bits='32' id='type-id-25'/>
    <type-decl name='unsigned long int' size-in-bits='64' id='type-id-50'/>
    <array-type-def dimensions='1' type-id='type-id-50' size-in-bits='39936' id='type-id-51'>
      <subrange length='624' type-id='type-id-3' id='type-id-52'/>
    </array-type-def>
    <array-type-def dimensions='1' type-id='type-id-50' size-in-bits='infinite' id='type-id-53'>
      <subrange length='infinite' id='type-id-54'/>
    </array-type-def>
    <type-decl name='unsigned short int' size-in-bits='16' id='type-id-55'/>
    <type-decl name='variadic parameter type' id='type-id-56'/>
    <type-decl name='wchar_t' size-in-bits='32' id='type-id-57'/>
    <class-decl name='_G_fpos_t' size-in-bits='128' is-struct='yes' naming-typedef-id='type-id-58' visibility='default' filepath='/usr/include/_G_config.h' line='22' column='1' id='type-id-59'>
      <data-member access='public' layout-offset-in-bits='0'>
        <var-decl name='__pos' type-id='type-id-60' visibility='default' filepath='/usr/include/_G_config.h' line='23' column='1'/>
      </data-member>
      <data-member access='public' layout-offset-in-bits='64'>
        <var-decl name='__state' type-id='type-id-61' visibility='default' filepath='/usr/include/_G_config.h' line='24' column='1'/>
      </data-member>
    </class-decl>
    <typedef-decl name='_G_fpos_t' type-id='type-id-59' filepath='/usr/include/_G_config.h' line='25' column='1' id='type-id-58'/>
    <typedef-decl name='_IO_lock_t' type-id='type-id-62' filepath='/usr/include/libio.h' line='154' column='1' id='type-id-63'/>
    <class-decl name='_IO_marker' size-in-bits='192' is-struct='yes' visibility='default' filepath='/usr/include/libio.h' line='160' column='1' id='type-id-64'>
      <data-member access='public' layout-offset-in-bits='0'>
        <var-decl name='_next' type-id='type-id-65' visibility='default' filepath='/usr/include/libio.h' line='161' column='1'/>
      </data-member>
      <data-member access='public' layout-offset-in-bits='64'>
        <var-decl name='_sbuf' type-id='type-id-66' visibility='default' filepath='/usr/include/libio.h' line='162' column='1'/>
      </data-member>
      <data-member access='public' layout-offset-in-bits='128'>
        <var-decl name='_pos' type-id='type-id-29' visibility='default' filepath='/usr/include/libio.h' line='166' column='1'/>
      </data-member>
    </class-decl>
    <class-decl name='_IO_FILE' size-in-bits='1728' is-struct='yes' visibility='default' filepath='/usr/include/libio.h' line='245' column='1' id='type-id-67'>
      <data-member access='public' layout-offset-in-bits='0'>
        <var-decl name='_flags' type-id='type-id-29' visibility='default' filepath='/usr/include/libio.h' line='246' column='1'/>
      </data-member>
      <data-member access='public' layout-offset-in-bits='64'>
        <var-decl name='_IO_read_ptr' type-id='type-id-68' visibility='default' filepath='/usr/include/libio.h' line='251' column='1'/>
      </data-member>
      <data-member access='public' layout-offset-in-bits='128'>
        <var-decl name='_IO_read_end' type-id='type-id-68' visibility='default' filepath='/usr/include/libio.h' line='252' column='1'/>
      </data-member>
      <data-member access='public' layout-offset-in-bits='192'>
        <var-decl name='_IO_read_base' type-id='type-id-68' visibility='default' filepath='/usr/include/libio.h' line='253' column='1'/>
      </data-member>
      <data-member access='public' layout-offset-in-bits='256'>
        <var-decl name='_IO_write_base' type-id='type-id-68' visibility='default' filepath='/usr/include/libio.h' line='254' column='1'/>
      </data-member>
      <data-member access='public' layout-offset-in-bits='320'>
        <var-decl name='_IO_write_ptr' type-id='type-id-68' visibility='default' filepath='/usr/include/libio.h' line='255' column='1'/>
      </data-member>
      <data-member access='public' layout-offset-in-bits='384'>
        <var-decl name='_IO_write_end' type-id='type-id-68' visibility='default' filepath='/usr/include/libio.h' line='256' column='1'/>
      </data-member>
      <data-member access='public' layout-offset-in-bits='448'>
        <var-decl name='_IO_buf_base' type-id='type-id-68' visibility='default' filepath='/usr/include/libio.h' line='257' column='1'/>
      </data-member>
      <data-member access='public' layout-offset-in-bits='512'>
        <var-decl name='_IO_buf_end' type-id='type-id-68' visibility='default' filepath='/usr/include/libio.h' line='258' column='1'/>
      </data-member>
      <data-member access='public' layout-offset-in-bits='576'>
        <var-decl name='_IO_save_base' type-id='type-id-68' visibility='default' filepath='/usr/include/libio.h' line='260' column='1'/>
      </data-member>
      <data-member access='public' layout-offset-in-bits='640'>
        <var-decl name='_IO_backup_base' type-id='type-id-68' visibility='default' filepath='/usr/include/libio.h' line='261' column='1'/>
      </data-member>
      <data-member access='public' layout-offset-in-bits='704'>
        <var-decl name='_IO_save_end' type-id='type-id-68' visibility='default' filepath='/usr/include/libio.h' line='262' column='1'/>
      </data-member>
      <data-member access='public' layout-offset-in-bits='768'>
        <var-decl name='_markers' type-id='type-id-65' visibility='default' filepath='/usr/include/libio.h' line='264' column='1'/>
      </data-member>
      <data-member access='public' layout-offset-in-bits='832'>
        <var-decl name='_chain' type-id='type-id-66' visibility='default' filepath='/usr/include/libio.h' line='266' column='1'/>
      </data-member>
      <data-member access='public' layout-offset-in-bits='896'>
        <var-decl name='_fileno' type-id='type-id-29' visibility='default' filepath='/usr/include/libio.h' line='268' column='1'/>
      </data-member>
      <data-member access='public' layout-offset-in-bits='928'>
        <var-decl name='_flags2' type-id='type-id-29' visibility='default' filepath='/usr/include/libio.h' line='272' column='1'/>
      </data-member>
      <data-member access='public' layout-offset-in-bits='960'>
        <var-decl name='_old_offset' type-id='type-id-60' visibility='default' filepath='/usr/include/libio.h' line='274' column='1'/>
      </data-member>
      <data-member access='public' layout-offset-in-bits='1024'>
        <var-decl name='_cur_column' type-id='type-id-55' visibility='default' filepath='/usr/include/libio.h' line='278' column='1'/>
      </data-member>
      <data-member access='public' layout-offset-in-bits='1040'>
        <var-decl name='_vtable_offset' type-id='type-id-36' visibility='default' filepath='/usr/include/libio.h' line='279' column='1'/>
      </data-member>
      <data-member access='public' layout-offset-in-bits='1048'>
        <var-decl name='_shortbuf' type-id='type-id-11' visibility='default' filepath='/usr/include/libio.h' line='280' column='1'/>
      </data-member>
      <data-member access='public' layout-offset-in-bits='1088'>
        <var-decl name='_lock' type-id='type-id-69' visibility='default' filepath='/usr/include/libio.h' line='284' column='1'/>
      </data-member>
      <data-member access='public' layout-offset-in-bits='1152'>
        <var-decl name='_offset' type-id='type-id-70' visibility='default' filepath='/usr/include/libio.h' line='293' column='1'/>
      </data-member>
      <data-member access='public' layout-offset-in-bits='1216'>
        <var-decl name='__pad1' type-id='type-id-26' visibility='default' filepath='/usr/include/libio.h' line='302' column='1'/>
      </data-member>
      <data-member access='public' layout-offset-in-bits='1280'>
        <var-decl name='__pad2' type-id='type-id-26' visibility='default' filepath='/usr/include/libio.h' line='303' column='1'/>
      </data-member>
      <data-member access='public' layout-offset-in-bits='1344'>
        <var-decl name='__pad3' type-id='type-id-26' visibility='default' filepath='/usr/include/libio.h' line='304' column='1'/>
      </data-member>
      <data-member access='public' layout-offset-in-bits='1408'>
        <var-decl name='__pad4' type-id='type-id-26' visibility='default' filepath='/usr/include/libio.h' line='305' column='1'/>
      </data-member>
      <data-member access='public' layout-offset-in-bits='1472'>
        <var-decl name='__pad5' type-id='type-id-71' visibility='default' filepath='/usr/include/libio.h' line='306' column='1'/>
      </data-member>
      <data-member access='public' layout-offset-in-bits='1536'>
        <var-decl name='_mode' type-id='type-id-29' visibility='default' filepath='/usr/include/libio.h' line='308' column='1'/>
      </data-member>
      <data-member access='public' layout-offset-in-bits='1568'>
        <var-decl name='_unused2' type-id='type-id-13' visibility='default' filepath='/usr/include/libio.h' line='310' column='1'/>
      </data-member>
    </class-decl>
    <class-decl name='lconv' size-in-bits='768' is-struct='yes' visibility='default' filepath='/usr/include/locale.h' line='53' column='1' id='type-id-72'>
      <data-member access='public' layout-offset-in-bits='0'>
        <var-decl name='decimal_point' type-id='type-id-68' visibility='default' filepath='/usr/include/locale.h' line='57' column='1'/>
      </data-member>
      <data-member access='public' layout-offset-in-bits='64'>
        <var-decl name='thousands_sep' type-id='type-id-68' visibility='default' filepath='/usr/include/locale.h' line='58' column='1'/>
      </data-member>
      <data-member access='public' layout-offset-in-bits='128'>
        <var-decl name='grouping' type-id='type-id-68' visibility='default' filepath='/usr/include/locale.h' line='64' column='1'/>
      </data-member>
      <data-member access='public' layout-offset-in-bits='192'>
        <var-decl name='int_curr_symbol' type-id='type-id-68' visibility='default' filepath='/usr/include/locale.h' line='70' column='1'/>
      </data-member>
      <data-member access='public' layout-offset-in-bits='256'>
        <var-decl name='currency_symbol' type-id='type-id-68' visibility='default' filepath='/usr/include/locale.h' line='71' column='1'/>
      </data-member>
      <data-member access='public' layout-offset-in-bits='320'>
        <var-decl name='mon_decimal_point' type-id='type-id-68' visibility='default' filepath='/usr/include/locale.h' line='72' column='1'/>
      </data-member>
      <data-member access='public' layout-offset-in-bits='384'>
        <var-decl name='mon_thousands_sep' type-id='type-id-68' visibility='default' filepath='/usr/include/locale.h' line='73' column='1'/>
      </data-member>
      <data-member access='public' layout-offset-in-bits='448'>
        <var-decl name='mon_grouping' type-id='type-id-68' visibility='default' filepath='/usr/include/locale.h' line='74' column='1'/>
      </data-member>
      <data-member access='public' layout-offset-in-bits='512'>
        <var-decl name='positive_sign' type-id='type-id-68' visibility='default' filepath='/usr/include/locale.h' line='75' column='1'/>
      </data-member>
      <data-member access='public' layout-offset-in-bits='576'>
        <var-decl name='negative_sign' type-id='type-id-68' visibility='default' filepath='/usr/include/locale.h' line='76' column='1'/>
      </data-member>
      <data-member access='public' layout-offset-in-bits='640'>
        <var-decl name='int_frac_digits' type-id='type-id-5' visibility='default' filepath='/usr/include/locale.h' line='77' column='1'/>
      </data-member>
      <data-member access='public' layout-offset-in-bits='648'>
        <var-decl name='frac_digits' type-id='type-id-5' visibility='default' filepath='/usr/include/locale.h' line='78' column='1'/>
      </data-member>
      <data-member access='public' layout-offset-in-bits='656'>
        <var-decl name='p_cs_precedes' type-id='type-id-5' visibility='default' filepath='/usr/include/locale.h' line='80' column='1'/>
      </data-member>
      <data-member access='public' layout-offset-in-bits='664'>
        <var-decl name='p_sep_by_space' type-id='type-id-5' visibility='default' filepath='/usr/include/locale.h' line='82' column='1'/>
      </data-member>
      <data-member access='public' layout-offset-in-bits='672'>
        <var-decl name='n_cs_precedes' type-id='type-id-5' visibility='default' filepath='/usr/include/locale.h' line='84' column='1'/>
      </data-member>
      <data-member access='public' layout-offset-in-bits='680'>
        <var-decl name='n_sep_by_space' type-id='type-id-5' visibility='default' filepath='/usr/include/locale.h' line='86' column='1'/>
      </data-member>
      <data-member access='public' layout-offset-in-bits='688'>
        <var-decl name='p_sign_posn' type-id='type-id-5' visibility='default' filepath='/usr/include/locale.h' line='93' column='1'/>
      </data-member>
      <data-member access='public' layout-offset-in-bits='696'>
        <var-decl name='n_sign_posn' type-id='type-id-5' visibility='default' filepath='/usr/include/locale.h' line='94' column='1'/>
      </data-member>
      <data-member access='public' layout-offset-in-bits='704'>
        <var-decl name='int_p_cs_precedes' type-id='type-id-5' visibility='default' filepath='/usr/include/locale.h' line='97' column='1'/>
      </data-member>
      <data-member access='public' layout-offset-in-bits='712'>
        <var-decl name='int_p_sep_by_space' type-id='type-id-5' visibility='default' filepath='/usr/include/locale.h' line='99' column='1'/>
      </data-member>
      <data-member access='public' layout-offset-in-bits='720'>
        <var-decl name='int_n_cs_precedes' type-id='type-id-5' visibility='default' filepath='/usr/include/locale.h' line='101' column='1'/>
      </data-member>
      <data-member access='public' layout-offset-in-bits='728'>
        <var-decl name='int_n_sep_by_space' type-id='type-id-5' visibility='default' filepath='/usr/include/locale.h' line='103' column='1'/>
      </data-member>
      <data-member access='public' layout-offset-in-bits='736'>
        <var-decl name='int_p_sign_posn' type-id='type-id-5' visibility='default' filepath='/usr/include/locale.h' line='110' column='1'/>
      </data-member>
      <data-member access='public' layout-offset-in-bits='744'>
        <var-decl name='int_n_sign_posn' type-id='type-id-5' visibility='default' filepath='/usr/include/locale.h' line='111' column='1'/>
      </data-member>
    </class-decl>
    <typedef-decl name='int8_t' type-id='type-id-36' filepath='/usr/include/stdint.h' line='36' column='1' id='type-id-73'/>
    <typedef-decl name='int32_t' type-id='type-id-29' filepath='/usr/include/stdint.h' line='38' column='1' id='type-id-74'/>
    <typedef-decl name='int64_t' type-id='type-id-23' filepath='/usr/include/stdint.h' line='40' column='1' id='type-id-75'/>
    <typedef-decl name='uint32_t' type-id='type-id-25' filepath='/usr/include/stdint.h' line='51' column='1' id='type-id-76'/>
    <typedef-decl name='uint64_t' type-id='type-id-50' filepath='/usr/include/stdint.h' line='55' column='1' id='type-id-77'/>
    <typedef-decl name='intmax_t' type-id='type-id-23' filepath='/usr/include/stdint.h' line='134' column='1' id='type-id-78'/>
    <typedef-decl name='FILE' type-id='type-id-67' filepath='/usr/include/stdio.h' line='48' column='1' id='type-id-79'/>
    <typedef-decl name='__FILE' type-id='type-id-67' filepath='/usr/include/stdio.h' line='64' column='1' id='type-id-80'/>
    <typedef-decl name='fpos_t' type-id='type-id-58' filepath='/usr/include/stdio.h' line='110' column='1' id='type-id-81'/>
    <class-decl name='div_t' size-in-bits='64' is-struct='yes' naming-typedef-id='type-id-82' visibility='default' filepath='/usr/include/stdlib.h' line='98' column='1' id='type-id-83'>
      <data-member access='public' layout-offset-in-bits='0'>
        <var-decl name='quot' type-id='type-id-29' visibility='default' filepath='/usr/include/stdlib.h' line='99' column='1'/>
      </data-member>
      <data-member access='public' layout-offset-in-bits='32'>
        <var-decl name='rem' type-id='type-id-29' visibility='default' filepath='/usr/include/stdlib.h' line='100' column='1'/>
      </data-member>
    </class-decl>
    <typedef-decl name='div_t' type-id='type-id-83' filepath='/usr/include/stdlib.h' line='101' column='1' id='type-id-82'/>
    <class-decl name='ldiv_t' size-in-bits='128' is-struct='yes' naming-typedef-id='type-id-84' visibility='default' filepath='/usr/include/stdlib.h' line='106' column='1' id='type-id-85'>
      <data-member access='public' layout-offset-in-bits='0'>
        <var-decl name='quot' type-id='type-id-23' visibility='default' filepath='/usr/include/stdlib.h' line='107' column='1'/>
      </data-member>
      <data-member access='public' layout-offset-in-bits='64'>
        <var-decl name='rem' type-id='type-id-23' visibility='default' filepath='/usr/include/stdlib.h' line='108' column='1'/>
      </data-member>
    </class-decl>
    <typedef-decl name='ldiv_t' type-id='type-id-85' filepath='/usr/include/stdlib.h' line='109' column='1' id='type-id-84'/>
    <class-decl name='lldiv_t' size-in-bits='128' is-struct='yes' naming-typedef-id='type-id-86' visibility='default' filepath='/usr/include/stdlib.h' line='118' column='1' id='type-id-87'>
      <data-member access='public' layout-offset-in-bits='0'>
        <var-decl name='quot' type-id='type-id-33' visibility='default' filepath='/usr/include/stdlib.h' line='119' column='1'/>
      </data-member>
      <data-member access='public' layout-offset-in-bits='64'>
        <var-decl name='rem' type-id='type-id-33' visibility='default' filepath='/usr/include/stdlib.h' line='120' column='1'/>
      </data-member>
    </class-decl>
    <typedef-decl name='lldiv_t' type-id='type-id-87' filepath='/usr/include/stdlib.h' line='121' column='1' id='type-id-86'/>
    <typedef-decl name='__compar_fn_t' type-id='type-id-88' filepath='/usr/include/stdlib.h' line='741' column='1' id='type-id-89'/>
    <typedef-decl name='clock_t' type-id='type-id-90' filepath='/usr/include/time.h' line='59' column='1' id='type-id-91'/>
    <typedef-decl name='time_t' type-id='type-id-92' filepath='/usr/include/time.h' line='75' column='1' id='type-id-93'/>
    <class-decl name='tm' size-in-bits='448' is-struct='yes' visibility='default' filepath='/usr/include/time.h' line='133' column='1' id='type-id-94'>
      <data-member access='public' layout-offset-in-bits='0'>
        <var-decl name='tm_sec' type-id='type-id-29' visibility='default' filepath='/usr/include/time.h' line='135' column='1'/>
      </data-member>
      <data-member access='public' layout-offset-in-bits='32'>
        <var-decl name='tm_min' type-id='type-id-29' visibility='default' filepath='/usr/include/time.h' line='136' column='1'/>
      </data-member>
      <data-member access='public' layout-offset-in-bits='64'>
        <var-decl name='tm_hour' type-id='type-id-29' visibility='default' filepath='/usr/include/time.h' line='137' column='1'/>
      </data-member>
      <data-member access='public' layout-offset-in-bits='96'>
        <var-decl name='tm_mday' type-id='type-id-29' visibility='default' filepath='/usr/include/time.h' line='138' column='1'/>
      </data-member>
      <data-member access='public' layout-offset-in-bits='128'>
        <var-decl name='tm_mon' type-id='type-id-29' visibility='default' filepath='/usr/include/time.h' line='139' column='1'/>
      </data-member>
      <data-member access='public' layout-offset-in-bits='160'>
        <var-decl name='tm_year' type-id='type-id-29' visibility='default' filepath='/usr/include/time.h' line='140' column='1'/>
      </data-member>
      <data-member access='public' layout-offset-in-bits='192'>
        <var-decl name='tm_wday' type-id='type-id-29' visibility='default' filepath='/usr/include/time.h' line='141' column='1'/>
      </data-member>
      <data-member access='public' layout-offset-in-bits='224'>
        <var-decl name='tm_yday' type-id='type-id-29' visibility='default' filepath='/usr/include/time.h' line='142' column='1'/>
      </data-member>
      <data-member access='public' layout-offset-in-bits='256'>
        <var-decl name='tm_isdst' type-id='type-id-29' visibility='default' filepath='/usr/include/time.h' line='143' column='1'/>
      </data-member>
      <data-member access='public' layout-offset-in-bits='320'>
        <var-decl name='tm_gmtoff' type-id='type-id-23' visibility='default' filepath='/usr/include/time.h' line='146' column='1'/>
      </data-member>
      <data-member access='public' layout-offset-in-bits='384'>
        <var-decl name='tm_zone' type-id='type-id-95' visibility='default' filepath='/usr/include/time.h' line='147' column='1'/>
      </data-member>
    </class-decl>
    <class-decl name='__mbstate_t' size-in-bits='64' is-struct='yes' naming-typedef-id='type-id-61' visibility='default' filepath='/usr/include/wchar.h' line='83' column='1' id='type-id-96'>
      <member-type access='public'>
        <union-decl name='__anonymous_union__' size-in-bits='32' is-anonymous='yes' visibility='default' filepath='/usr/include/wchar.h' line='86' column='1' id='type-id-97'>
          <data-member access='public'>
            <var-decl name='__wch' type-id='type-id-25' visibility='default' filepath='/usr/include/wchar.h' line='88' column='1'/>
          </data-member>
          <data-member access='public'>
            <var-decl name='__wchb' type-id='type-id-17' visibility='default' filepath='/usr/include/wchar.h' line='92' column='1'/>
          </data-member>
        </union-decl>
      </member-type>
      <data-member access='public' layout-offset-in-bits='0'>
        <var-decl name='__count' type-id='type-id-29' visibility='default' filepath='/usr/include/wchar.h' line='84' column='1'/>
      </data-member>
      <data-member access='public' layout-offset-in-bits='32'>
        <var-decl name='__value' type-id='type-id-97' visibility='default' filepath='/usr/include/wchar.h' line='93' column='1'/>
      </data-member>
    </class-decl>
    <typedef-decl name='__mbstate_t' type-id='type-id-96' filepath='/usr/include/wchar.h' line='94' column='1' id='type-id-61'/>
    <typedef-decl name='mbstate_t' type-id='type-id-61' filepath='/usr/include/wchar.h' line='106' column='1' id='type-id-98'/>
    <typedef-decl name='wctype_t' type-id='type-id-50' filepath='/usr/include/wctype.h' line='52' column='1' id='type-id-99'/>
    <typedef-decl name='wctrans_t' type-id='type-id-100' filepath='/usr/include/wctype.h' line='186' column='1' id='type-id-101'/>
    <typedef-decl name='__int32_t' type-id='type-id-29' filepath='/usr/include/x86_64-linux-gnu/bits/types.h' line='40' column='1' id='type-id-102'/>
    <typedef-decl name='__off_t' type-id='type-id-23' filepath='/usr/include/x86_64-linux-gnu/bits/types.h' line='131' column='1' id='type-id-60'/>
    <typedef-decl name='__off64_t' type-id='type-id-23' filepath='/usr/include/x86_64-linux-gnu/bits/types.h' line='132' column='1' id='type-id-70'/>
    <typedef-decl name='__clock_t' type-id='type-id-23' filepath='/usr/include/x86_64-linux-gnu/bits/types.h' line='135' column='1' id='type-id-90'/>
    <typedef-decl name='__time_t' type-id='type-id-23' filepath='/usr/include/x86_64-linux-gnu/bits/types.h' line='139' column='1' id='type-id-92'/>
    <typedef-decl name='_Atomic_word' type-id='type-id-29' filepath='/usr/include/x86_64-linux-gnu/c++/4.9/bits/atomic_word.h' line='32' column='1' id='type-id-103'/>
    <typedef-decl name='size_t' type-id='type-id-50' filepath='/usr/lib/gcc/x86_64-linux-gnu/4.9/include/stddef.h' line='212' column='1' id='type-id-71'/>
    <typedef-decl name='wint_t' type-id='type-id-25' filepath='/usr/lib/gcc/x86_64-linux-gnu/4.9/include/stddef.h' line='353' column='1' id='type-id-104'/>
    <pointer-type-def type-id='type-id-79' size-in-bits='64' id='type-id-105'/>
    <pointer-type-def type-id='type-id-67' size-in-bits='64' id='type-id-66'/>
    <pointer-type-def type-id='type-id-63' size-in-bits='64' id='type-id-69'/>
    <pointer-type-def type-id='type-id-64' size-in-bits='64' id='type-id-65'/>
    <pointer-type-def type-id='type-id-80' size-in-bits='64' id='type-id-106'/>
    <pointer-type-def type-id='type-id-107' size-in-bits='64' id='type-id-108'/>
    <pointer-type-def type-id='type-id-109' size-in-bits='64' id='type-id-110'/>
    <pointer-type-def type-id='type-id-111' size-in-bits='64' id='type-id-112'/>
    <reference-type-def kind='lvalue' type-id='type-id-113' size-in-bits='64' id='type-id-114'/>
    <reference-type-def kind='lvalue' type-id='type-id-115' size-in-bits='64' id='type-id-116'/>
    <reference-type-def kind='lvalue' type-id='type-id-117' size-in-bits='64' id='type-id-118'/>
    <reference-type-def kind='lvalue' type-id='type-id-119' size-in-bits='64' id='type-id-120'/>
    <reference-type-def kind='lvalue' type-id='type-id-121' size-in-bits='64' id='type-id-122'/>
    <reference-type-def kind='lvalue' type-id='type-id-123' size-in-bits='64' id='type-id-124'/>
    <reference-type-def kind='lvalue' type-id='type-id-125' size-in-bits='64' id='type-id-126'/>
    <reference-type-def kind='lvalue' type-id='type-id-127' size-in-bits='64' id='type-id-128'/>
    <pointer-type-def type-id='type-id-127' size-in-bits='64' id='type-id-129'/>
    <reference-type-def kind='lvalue' type-id='type-id-130' size-in-bits='64' id='type-id-131'/>
    <pointer-type-def type-id='type-id-130' size-in-bits='64' id='type-id-132'/>
    <reference-type-def kind='lvalue' type-id='type-id-133' size-in-bits='64' id='type-id-134'/>
    <pointer-type-def type-id='type-id-133' size-in-bits='64' id='type-id-135'/>
    <reference-type-def kind='lvalue' type-id='type-id-136' size-in-bits='64' id='type-id-137'/>
    <pointer-type-def type-id='type-id-136' size-in-bits='64' id='type-id-138'/>
    <pointer-type-def type-id='type-id-139' size-in-bits='64' id='type-id-140'/>
    <pointer-type-def type-id='type-id-141' size-in-bits='64' id='type-id-142'/>
    <pointer-type-def type-id='type-id-143' size-in-bits='64' id='type-id-144'/>
    <pointer-type-def type-id='type-id-145' size-in-bits='64' id='type-id-146'/>
    <pointer-type-def type-id='type-id-147' size-in-bits='64' id='type-id-148'/>
    <pointer-type-def type-id='type-id-149' size-in-bits='64' id='type-id-150'/>
    <pointer-type-def type-id='type-id-151' size-in-bits='64' id='type-id-152'/>
    <pointer-type-def type-id='type-id-153' size-in-bits='64' id='type-id-154'/>
    <pointer-type-def type-id='type-id-155' size-in-bits='64' id='type-id-156'/>
    <pointer-type-def type-id='type-id-157' size-in-bits='64' id='type-id-158'/>
    <pointer-type-def type-id='type-id-159' size-in-bits='64' id='type-id-160'/>
    <pointer-type-def type-id='type-id-161' size-in-bits='64' id='type-id-162'/>
    <pointer-type-def type-id='type-id-163' size-in-bits='64' id='type-id-164'/>
    <pointer-type-def type-id='type-id-165' size-in-bits='64' id='type-id-166'/>
    <pointer-type-def type-id='type-id-167' size-in-bits='64' id='type-id-168'/>
    <pointer-type-def type-id='type-id-169' size-in-bits='64' id='type-id-170'/>
    <pointer-type-def type-id='type-id-171' size-in-bits='64' id='type-id-172'/>
    <pointer-type-def type-id='type-id-173' size-in-bits='64' id='type-id-174'/>
    <pointer-type-def type-id='type-id-175' size-in-bits='64' id='type-id-176'/>
    <pointer-type-def type-id='type-id-177' size-in-bits='64' id='type-id-178'/>
    <pointer-type-def type-id='type-id-179' size-in-bits='64' id='type-id-180'/>
    <pointer-type-def type-id='type-id-181' size-in-bits='64' id='type-id-182'/>
    <pointer-type-def type-id='type-id-183' size-in-bits='64' id='type-id-184'/>
    <pointer-type-def type-id='type-id-185' size-in-bits='64' id='type-id-186'/>
    <reference-type-def kind='lvalue' type-id='type-id-1' size-in-bits='64' id='type-id-187'/>
    <pointer-type-def type-id='type-id-1' size-in-bits='64' id='type-id-188'/>
    <reference-type-def kind='lvalue' type-id='type-id-189' size-in-bits='64' id='type-id-190'/>
    <reference-type-def kind='rvalue' type-id='type-id-189' size-in-bits='64' id='type-id-191'/>
    <pointer-type-def type-id='type-id-189' size-in-bits='64' id='type-id-192'/>
    <pointer-type-def type-id='type-id-193' size-in-bits='64' id='type-id-194'/>
    <reference-type-def kind='lvalue' type-id='type-id-195' size-in-bits='64' id='type-id-196'/>
    <reference-type-def kind='rvalue' type-id='type-id-195' size-in-bits='64' id='type-id-197'/>
    <pointer-type-def type-id='type-id-195' size-in-bits='64' id='type-id-198'/>
    <reference-type-def kind='lvalue' type-id='type-id-199' size-in-bits='64' id='type-id-200'/>
    <pointer-type-def type-id='type-id-199' size-in-bits='64' id='type-id-201'/>
    <reference-type-def kind='lvalue' type-id='type-id-202' size-in-bits='64' id='type-id-203'/>
    <pointer-type-def type-id='type-id-202' size-in-bits='64' id='type-id-204'/>
    <reference-type-def kind='lvalue' type-id='type-id-205' size-in-bits='64' id='type-id-206'/>
    <pointer-type-def type-id='type-id-205' size-in-bits='64' id='type-id-207'/>
    <pointer-type-def type-id='type-id-208' size-in-bits='64' id='type-id-209'/>
    <reference-type-def kind='lvalue' type-id='type-id-210' size-in-bits='64' id='type-id-211'/>
    <pointer-type-def type-id='type-id-210' size-in-bits='64' id='type-id-212'/>
    <reference-type-def kind='lvalue' type-id='type-id-213' size-in-bits='64' id='type-id-214'/>
    <pointer-type-def type-id='type-id-213' size-in-bits='64' id='type-id-215'/>
    <reference-type-def kind='lvalue' type-id='type-id-5' size-in-bits='64' id='type-id-216'/>
    <pointer-type-def type-id='type-id-5' size-in-bits='64' id='type-id-68'/>
    <qualified-type-def type-id='type-id-68' const='yes' id='type-id-217'/>
    <reference-type-def kind='lvalue' type-id='type-id-217' size-in-bits='64' id='type-id-218'/>
    <pointer-type-def type-id='type-id-68' size-in-bits='64' id='type-id-219'/>
    <reference-type-def kind='lvalue' type-id='type-id-15' size-in-bits='64' id='type-id-220'/>
    <reference-type-def kind='lvalue' type-id='type-id-19' size-in-bits='64' id='type-id-221'/>
    <pointer-type-def type-id='type-id-222' size-in-bits='64' id='type-id-223'/>
    <pointer-type-def type-id='type-id-224' size-in-bits='64' id='type-id-225'/>
    <qualified-type-def type-id='type-id-225' const='yes' id='type-id-226'/>
    <reference-type-def kind='lvalue' type-id='type-id-226' size-in-bits='64' id='type-id-227'/>
    <pointer-type-def type-id='type-id-226' size-in-bits='64' id='type-id-228'/>
    <reference-type-def kind='lvalue' type-id='type-id-225' size-in-bits='64' id='type-id-229'/>
    <reference-type-def kind='rvalue' type-id='type-id-225' size-in-bits='64' id='type-id-230'/>
    <pointer-type-def type-id='type-id-225' size-in-bits='64' id='type-id-231'/>
    <reference-type-def kind='lvalue' type-id='type-id-231' size-in-bits='64' id='type-id-232'/>
    <qualified-type-def type-id='type-id-107' const='yes' id='type-id-233'/>
    <pointer-type-def type-id='type-id-233' size-in-bits='64' id='type-id-234'/>
    <qualified-type-def type-id='type-id-109' const='yes' id='type-id-235'/>
    <pointer-type-def type-id='type-id-235' size-in-bits='64' id='type-id-236'/>
    <qualified-type-def type-id='type-id-111' const='yes' id='type-id-237'/>
    <pointer-type-def type-id='type-id-237' size-in-bits='64' id='type-id-238'/>
    <qualified-type-def type-id='type-id-113' const='yes' id='type-id-239'/>
    <reference-type-def kind='lvalue' type-id='type-id-239' size-in-bits='64' id='type-id-240'/>
    <qualified-type-def type-id='type-id-115' const='yes' id='type-id-241'/>
    <reference-type-def kind='lvalue' type-id='type-id-241' size-in-bits='64' id='type-id-242'/>
    <qualified-type-def type-id='type-id-117' const='yes' id='type-id-243'/>
    <reference-type-def kind='lvalue' type-id='type-id-243' size-in-bits='64' id='type-id-244'/>
    <qualified-type-def type-id='type-id-119' const='yes' id='type-id-245'/>
    <reference-type-def kind='lvalue' type-id='type-id-245' size-in-bits='64' id='type-id-246'/>
    <qualified-type-def type-id='type-id-121' const='yes' id='type-id-247'/>
    <reference-type-def kind='lvalue' type-id='type-id-247' size-in-bits='64' id='type-id-248'/>
    <qualified-type-def type-id='type-id-123' const='yes' id='type-id-249'/>
    <reference-type-def kind='lvalue' type-id='type-id-249' size-in-bits='64' id='type-id-250'/>
    <qualified-type-def type-id='type-id-125' const='yes' id='type-id-251'/>
    <reference-type-def kind='lvalue' type-id='type-id-251' size-in-bits='64' id='type-id-252'/>
    <qualified-type-def type-id='type-id-127' const='yes' id='type-id-253'/>
    <pointer-type-def type-id='type-id-253' size-in-bits='64' id='type-id-254'/>
    <qualified-type-def type-id='type-id-130' const='yes' id='type-id-255'/>
    <pointer-type-def type-id='type-id-255' size-in-bits='64' id='type-id-256'/>
    <qualified-type-def type-id='type-id-133' const='yes' id='type-id-257'/>
    <reference-type-def kind='lvalue' type-id='type-id-257' size-in-bits='64' id='type-id-258'/>
    <pointer-type-def type-id='type-id-257' size-in-bits='64' id='type-id-259'/>
    <qualified-type-def type-id='type-id-136' const='yes' id='type-id-260'/>
    <reference-type-def kind='lvalue' type-id='type-id-260' size-in-bits='64' id='type-id-261'/>
    <pointer-type-def type-id='type-id-260' size-in-bits='64' id='type-id-262'/>
    <qualified-type-def type-id='type-id-139' const='yes' id='type-id-263'/>
    <reference-type-def kind='lvalue' type-id='type-id-263' size-in-bits='64' id='type-id-264'/>
    <pointer-type-def type-id='type-id-263' size-in-bits='64' id='type-id-265'/>
    <qualified-type-def type-id='type-id-141' const='yes' id='type-id-266'/>
    <reference-type-def kind='lvalue' type-id='type-id-266' size-in-bits='64' id='type-id-267'/>
    <pointer-type-def type-id='type-id-266' size-in-bits='64' id='type-id-268'/>
    <qualified-type-def type-id='type-id-143' const='yes' id='type-id-269'/>
    <reference-type-def kind='lvalue' type-id='type-id-269' size-in-bits='64' id='type-id-270'/>
    <pointer-type-def type-id='type-id-269' size-in-bits='64' id='type-id-271'/>
    <qualified-type-def type-id='type-id-145' const='yes' id='type-id-272'/>
    <reference-type-def kind='lvalue' type-id='type-id-272' size-in-bits='64' id='type-id-273'/>
    <pointer-type-def type-id='type-id-272' size-in-bits='64' id='type-id-274'/>
    <qualified-type-def type-id='type-id-147' const='yes' id='type-id-275'/>
    <reference-type-def kind='lvalue' type-id='type-id-275' size-in-bits='64' id='type-id-276'/>
    <pointer-type-def type-id='type-id-275' size-in-bits='64' id='type-id-277'/>
    <qualified-type-def type-id='type-id-149' const='yes' id='type-id-278'/>
    <reference-type-def kind='lvalue' type-id='type-id-278' size-in-bits='64' id='type-id-279'/>
    <pointer-type-def type-id='type-id-278' size-in-bits='64' id='type-id-280'/>
    <qualified-type-def type-id='type-id-151' const='yes' id='type-id-281'/>
    <reference-type-def kind='lvalue' type-id='type-id-281' size-in-bits='64' id='type-id-282'/>
    <pointer-type-def type-id='type-id-281' size-in-bits='64' id='type-id-283'/>
    <qualified-type-def type-id='type-id-153' const='yes' id='type-id-284'/>
    <reference-type-def kind='lvalue' type-id='type-id-284' size-in-bits='64' id='type-id-285'/>
    <pointer-type-def type-id='type-id-284' size-in-bits='64' id='type-id-286'/>
    <qualified-type-def type-id='type-id-155' const='yes' id='type-id-287'/>
    <reference-type-def kind='lvalue' type-id='type-id-287' size-in-bits='64' id='type-id-288'/>
    <pointer-type-def type-id='type-id-287' size-in-bits='64' id='type-id-289'/>
    <qualified-type-def type-id='type-id-157' const='yes' id='type-id-290'/>
    <reference-type-def kind='lvalue' type-id='type-id-290' size-in-bits='64' id='type-id-291'/>
    <pointer-type-def type-id='type-id-290' size-in-bits='64' id='type-id-292'/>
    <qualified-type-def type-id='type-id-159' const='yes' id='type-id-293'/>
    <reference-type-def kind='lvalue' type-id='type-id-293' size-in-bits='64' id='type-id-294'/>
    <pointer-type-def type-id='type-id-293' size-in-bits='64' id='type-id-295'/>
    <qualified-type-def type-id='type-id-161' const='yes' id='type-id-296'/>
    <reference-type-def kind='lvalue' type-id='type-id-296' size-in-bits='64' id='type-id-297'/>
    <pointer-type-def type-id='type-id-296' size-in-bits='64' id='type-id-298'/>
    <qualified-type-def type-id='type-id-163' const='yes' id='type-id-299'/>
    <reference-type-def kind='lvalue' type-id='type-id-299' size-in-bits='64' id='type-id-300'/>
    <pointer-type-def type-id='type-id-299' size-in-bits='64' id='type-id-301'/>
    <qualified-type-def type-id='type-id-165' const='yes' id='type-id-302'/>
    <reference-type-def kind='lvalue' type-id='type-id-302' size-in-bits='64' id='type-id-303'/>
    <pointer-type-def type-id='type-id-302' size-in-bits='64' id='type-id-304'/>
    <qualified-type-def type-id='type-id-167' const='yes' id='type-id-305'/>
    <reference-type-def kind='lvalue' type-id='type-id-305' size-in-bits='64' id='type-id-306'/>
    <pointer-type-def type-id='type-id-305' size-in-bits='64' id='type-id-307'/>
    <qualified-type-def type-id='type-id-169' const='yes' id='type-id-308'/>
    <reference-type-def kind='lvalue' type-id='type-id-308' size-in-bits='64' id='type-id-309'/>
    <pointer-type-def type-id='type-id-308' size-in-bits='64' id='type-id-310'/>
    <qualified-type-def type-id='type-id-171' const='yes' id='type-id-311'/>
    <reference-type-def kind='lvalue' type-id='type-id-311' size-in-bits='64' id='type-id-312'/>
    <pointer-type-def type-id='type-id-311' size-in-bits='64' id='type-id-313'/>
    <qualified-type-def type-id='type-id-173' const='yes' id='type-id-314'/>
    <reference-type-def kind='lvalue' type-id='type-id-314' size-in-bits='64' id='type-id-315'/>
    <pointer-type-def type-id='type-id-314' size-in-bits='64' id='type-id-316'/>
    <qualified-type-def type-id='type-id-175' const='yes' id='type-id-317'/>
    <reference-type-def kind='lvalue' type-id='type-id-317' size-in-bits='64' id='type-id-318'/>
    <pointer-type-def type-id='type-id-317' size-in-bits='64' id='type-id-319'/>
    <qualified-type-def type-id='type-id-177' const='yes' id='type-id-320'/>
    <reference-type-def kind='lvalue' type-id='type-id-320' size-in-bits='64' id='type-id-321'/>
    <pointer-type-def type-id='type-id-320' size-in-bits='64' id='type-id-322'/>
    <qualified-type-def type-id='type-id-179' const='yes' id='type-id-323'/>
    <reference-type-def kind='lvalue' type-id='type-id-323' size-in-bits='64' id='type-id-324'/>
    <pointer-type-def type-id='type-id-323' size-in-bits='64' id='type-id-325'/>
    <qualified-type-def type-id='type-id-181' const='yes' id='type-id-326'/>
    <reference-type-def kind='lvalue' type-id='type-id-326' size-in-bits='64' id='type-id-327'/>
    <pointer-type-def type-id='type-id-326' size-in-bits='64' id='type-id-328'/>
    <qualified-type-def type-id='type-id-183' const='yes' id='type-id-329'/>
    <reference-type-def kind='lvalue' type-id='type-id-329' size-in-bits='64' id='type-id-330'/>
    <pointer-type-def type-id='type-id-329' size-in-bits='64' id='type-id-331'/>
    <qualified-type-def type-id='type-id-102' const='yes' id='type-id-332'/>
    <pointer-type-def type-id='type-id-332' size-in-bits='64' id='type-id-100'/>
    <qualified-type-def type-id='type-id-1' const='yes' id='type-id-333'/>
    <reference-type-def kind='lvalue' type-id='type-id-333' size-in-bits='64' id='type-id-334'/>
    <pointer-type-def type-id='type-id-333' size-in-bits='64' id='type-id-335'/>
    <qualified-type-def type-id='type-id-189' const='yes' id='type-id-336'/>
    <reference-type-def kind='lvalue' type-id='type-id-336' size-in-bits='64' id='type-id-337'/>
    <pointer-type-def type-id='type-id-336' size-in-bits='64' id='type-id-338'/>
    <qualified-type-def type-id='type-id-193' const='yes' id='type-id-339'/>
    <pointer-type-def type-id='type-id-339' size-in-bits='64' id='type-id-340'/>
    <qualified-type-def type-id='type-id-195' const='yes' id='type-id-341'/>
    <reference-type-def kind='lvalue' type-id='type-id-341' size-in-bits='64' id='type-id-342'/>
    <pointer-type-def type-id='type-id-341' size-in-bits='64' id='type-id-343'/>
    <qualified-type-def type-id='type-id-344' const='yes' id='type-id-345'/>
    <reference-type-def kind='lvalue' type-id='type-id-345' size-in-bits='64' id='type-id-346'/>
    <pointer-type-def type-id='type-id-345' size-in-bits='64' id='type-id-347'/>
    <qualified-type-def type-id='type-id-199' const='yes' id='type-id-348'/>
    <reference-type-def kind='lvalue' type-id='type-id-348' size-in-bits='64' id='type-id-349'/>
    <pointer-type-def type-id='type-id-348' size-in-bits='64' id='type-id-350'/>
    <qualified-type-def type-id='type-id-205' const='yes' id='type-id-351'/>
    <pointer-type-def type-id='type-id-351' size-in-bits='64' id='type-id-352'/>
    <qualified-type-def type-id='type-id-208' const='yes' id='type-id-353'/>
    <pointer-type-def type-id='type-id-353' size-in-bits='64' id='type-id-354'/>
    <qualified-type-def type-id='type-id-210' const='yes' id='type-id-355'/>
    <reference-type-def kind='lvalue' type-id='type-id-355' size-in-bits='64' id='type-id-356'/>
    <pointer-type-def type-id='type-id-355' size-in-bits='64' id='type-id-357'/>
    <qualified-type-def type-id='type-id-213' const='yes' id='type-id-358'/>
    <reference-type-def kind='lvalue' type-id='type-id-358' size-in-bits='64' id='type-id-359'/>
    <pointer-type-def type-id='type-id-358' size-in-bits='64' id='type-id-360'/>
    <qualified-type-def type-id='type-id-5' const='yes' id='type-id-361'/>
    <reference-type-def kind='lvalue' type-id='type-id-361' size-in-bits='64' id='type-id-362'/>
    <pointer-type-def type-id='type-id-361' size-in-bits='64' id='type-id-95'/>
    <qualified-type-def type-id='type-id-95' const='yes' id='type-id-363'/>
    <reference-type-def kind='lvalue' type-id='type-id-363' size-in-bits='64' id='type-id-364'/>
    <reference-type-def kind='lvalue' type-id='type-id-95' size-in-bits='64' id='type-id-365'/>
    <pointer-type-def type-id='type-id-95' size-in-bits='64' id='type-id-366'/>
    <qualified-type-def type-id='type-id-81' const='yes' id='type-id-367'/>
    <pointer-type-def type-id='type-id-367' size-in-bits='64' id='type-id-368'/>
    <qualified-type-def type-id='type-id-29' const='yes' id='type-id-369'/>
    <reference-type-def kind='lvalue' type-id='type-id-369' size-in-bits='64' id='type-id-370'/>
    <qualified-type-def type-id='type-id-78' const='yes' id='type-id-371'/>
    <qualified-type-def type-id='type-id-23' const='yes' id='type-id-372'/>
    <qualified-type-def type-id='type-id-33' const='yes' id='type-id-373'/>
    <qualified-type-def type-id='type-id-34' const='yes' id='type-id-374'/>
    <qualified-type-def type-id='type-id-98' const='yes' id='type-id-375'/>
    <pointer-type-def type-id='type-id-375' size-in-bits='64' id='type-id-376'/>
    <qualified-type-def type-id='type-id-377' const='yes' id='type-id-378'/>
    <pointer-type-def type-id='type-id-378' size-in-bits='64' id='type-id-379'/>
    <qualified-type-def type-id='type-id-380' const='yes' id='type-id-381'/>
    <pointer-type-def type-id='type-id-381' size-in-bits='64' id='type-id-382'/>
    <qualified-type-def type-id='type-id-383' const='yes' id='type-id-384'/>
    <reference-type-def kind='lvalue' type-id='type-id-384' size-in-bits='64' id='type-id-385'/>
    <qualified-type-def type-id='type-id-386' const='yes' id='type-id-387'/>
    <reference-type-def kind='lvalue' type-id='type-id-387' size-in-bits='64' id='type-id-388'/>
    <qualified-type-def type-id='type-id-389' const='yes' id='type-id-390'/>
    <reference-type-def kind='lvalue' type-id='type-id-390' size-in-bits='64' id='type-id-391'/>
    <qualified-type-def type-id='type-id-392' const='yes' id='type-id-393'/>
    <reference-type-def kind='lvalue' type-id='type-id-393' size-in-bits='64' id='type-id-394'/>
    <qualified-type-def type-id='type-id-395' const='yes' id='type-id-396'/>
    <reference-type-def kind='lvalue' type-id='type-id-396' size-in-bits='64' id='type-id-397'/>
    <pointer-type-def type-id='type-id-396' size-in-bits='64' id='type-id-398'/>
    <qualified-type-def type-id='type-id-399' const='yes' id='type-id-400'/>
    <reference-type-def kind='lvalue' type-id='type-id-400' size-in-bits='64' id='type-id-401'/>
    <pointer-type-def type-id='type-id-400' size-in-bits='64' id='type-id-402'/>
    <qualified-type-def type-id='type-id-403' const='yes' id='type-id-404'/>
    <reference-type-def kind='lvalue' type-id='type-id-404' size-in-bits='64' id='type-id-405'/>
    <qualified-type-def type-id='type-id-406' const='yes' id='type-id-407'/>
    <reference-type-def kind='lvalue' type-id='type-id-407' size-in-bits='64' id='type-id-408'/>
    <pointer-type-def type-id='type-id-407' size-in-bits='64' id='type-id-409'/>
    <qualified-type-def type-id='type-id-410' const='yes' id='type-id-411'/>
    <reference-type-def kind='lvalue' type-id='type-id-411' size-in-bits='64' id='type-id-412'/>
    <pointer-type-def type-id='type-id-411' size-in-bits='64' id='type-id-413'/>
    <qualified-type-def type-id='type-id-414' const='yes' id='type-id-415'/>
    <reference-type-def kind='lvalue' type-id='type-id-415' size-in-bits='64' id='type-id-416'/>
    <qualified-type-def type-id='type-id-417' const='yes' id='type-id-418'/>
    <reference-type-def kind='lvalue' type-id='type-id-418' size-in-bits='64' id='type-id-419'/>
    <qualified-type-def type-id='type-id-420' const='yes' id='type-id-421'/>
    <reference-type-def kind='lvalue' type-id='type-id-421' size-in-bits='64' id='type-id-422'/>
    <pointer-type-def type-id='type-id-421' size-in-bits='64' id='type-id-423'/>
    <qualified-type-def type-id='type-id-424' const='yes' id='type-id-425'/>
    <reference-type-def kind='lvalue' type-id='type-id-425' size-in-bits='64' id='type-id-426'/>
    <qualified-type-def type-id='type-id-427' const='yes' id='type-id-428'/>
    <reference-type-def kind='lvalue' type-id='type-id-428' size-in-bits='64' id='type-id-429'/>
    <pointer-type-def type-id='type-id-428' size-in-bits='64' id='type-id-430'/>
    <qualified-type-def type-id='type-id-431' const='yes' id='type-id-432'/>
    <reference-type-def kind='lvalue' type-id='type-id-432' size-in-bits='64' id='type-id-433'/>
    <pointer-type-def type-id='type-id-432' size-in-bits='64' id='type-id-434'/>
    <qualified-type-def type-id='type-id-435' const='yes' id='type-id-436'/>
    <pointer-type-def type-id='type-id-436' size-in-bits='64' id='type-id-437'/>
    <qualified-type-def type-id='type-id-438' const='yes' id='type-id-439'/>
    <pointer-type-def type-id='type-id-439' size-in-bits='64' id='type-id-440'/>
    <qualified-type-def type-id='type-id-441' const='yes' id='type-id-442'/>
    <reference-type-def kind='lvalue' type-id='type-id-442' size-in-bits='64' id='type-id-443'/>
    <qualified-type-def type-id='type-id-444' const='yes' id='type-id-445'/>
    <pointer-type-def type-id='type-id-445' size-in-bits='64' id='type-id-446'/>
    <qualified-type-def type-id='type-id-447' const='yes' id='type-id-448'/>
    <reference-type-def kind='lvalue' type-id='type-id-448' size-in-bits='64' id='type-id-449'/>
    <pointer-type-def type-id='type-id-448' size-in-bits='64' id='type-id-450'/>
    <qualified-type-def type-id='type-id-451' const='yes' id='type-id-452'/>
    <qualified-type-def type-id='type-id-453' const='yes' id='type-id-454'/>
    <reference-type-def kind='lvalue' type-id='type-id-454' size-in-bits='64' id='type-id-455'/>
    <pointer-type-def type-id='type-id-454' size-in-bits='64' id='type-id-456'/>
    <qualified-type-def type-id='type-id-457' const='yes' id='type-id-458'/>
    <pointer-type-def type-id='type-id-458' size-in-bits='64' id='type-id-459'/>
    <qualified-type-def type-id='type-id-460' const='yes' id='type-id-461'/>
    <pointer-type-def type-id='type-id-461' size-in-bits='64' id='type-id-462'/>
    <qualified-type-def type-id='type-id-463' const='yes' id='type-id-464'/>
    <pointer-type-def type-id='type-id-464' size-in-bits='64' id='type-id-465'/>
    <qualified-type-def type-id='type-id-466' const='yes' id='type-id-467'/>
    <reference-type-def kind='lvalue' type-id='type-id-467' size-in-bits='64' id='type-id-468'/>
    <pointer-type-def type-id='type-id-467' size-in-bits='64' id='type-id-469'/>
    <qualified-type-def type-id='type-id-470' const='yes' id='type-id-471'/>
    <reference-type-def kind='lvalue' type-id='type-id-471' size-in-bits='64' id='type-id-472'/>
    <qualified-type-def type-id='type-id-473' const='yes' id='type-id-474'/>
    <reference-type-def kind='lvalue' type-id='type-id-474' size-in-bits='64' id='type-id-475'/>
    <qualified-type-def type-id='type-id-476' const='yes' id='type-id-477'/>
    <reference-type-def kind='lvalue' type-id='type-id-477' size-in-bits='64' id='type-id-478'/>
    <qualified-type-def type-id='type-id-479' const='yes' id='type-id-480'/>
    <reference-type-def kind='lvalue' type-id='type-id-480' size-in-bits='64' id='type-id-481'/>
    <pointer-type-def type-id='type-id-480' size-in-bits='64' id='type-id-482'/>
    <qualified-type-def type-id='type-id-483' const='yes' id='type-id-484'/>
    <reference-type-def kind='lvalue' type-id='type-id-484' size-in-bits='64' id='type-id-485'/>
    <pointer-type-def type-id='type-id-484' size-in-bits='64' id='type-id-486'/>
    <qualified-type-def type-id='type-id-487' const='yes' id='type-id-488'/>
    <reference-type-def kind='lvalue' type-id='type-id-488' size-in-bits='64' id='type-id-489'/>
    <qualified-type-def type-id='type-id-490' const='yes' id='type-id-491'/>
    <reference-type-def kind='lvalue' type-id='type-id-491' size-in-bits='64' id='type-id-492'/>
    <qualified-type-def type-id='type-id-493' const='yes' id='type-id-494'/>
    <reference-type-def kind='lvalue' type-id='type-id-494' size-in-bits='64' id='type-id-495'/>
    <qualified-type-def type-id='type-id-496' const='yes' id='type-id-497'/>
    <reference-type-def kind='lvalue' type-id='type-id-497' size-in-bits='64' id='type-id-498'/>
    <pointer-type-def type-id='type-id-497' size-in-bits='64' id='type-id-499'/>
    <qualified-type-def type-id='type-id-500' const='yes' id='type-id-501'/>
    <reference-type-def kind='lvalue' type-id='type-id-501' size-in-bits='64' id='type-id-502'/>
    <pointer-type-def type-id='type-id-501' size-in-bits='64' id='type-id-503'/>
    <qualified-type-def type-id='type-id-504' const='yes' id='type-id-505'/>
    <pointer-type-def type-id='type-id-505' size-in-bits='64' id='type-id-506'/>
    <qualified-type-def type-id='type-id-507' const='yes' id='type-id-508'/>
    <reference-type-def kind='lvalue' type-id='type-id-508' size-in-bits='64' id='type-id-509'/>
    <qualified-type-def type-id='type-id-510' const='yes' id='type-id-511'/>
    <reference-type-def kind='lvalue' type-id='type-id-511' size-in-bits='64' id='type-id-512'/>
    <pointer-type-def type-id='type-id-511' size-in-bits='64' id='type-id-513'/>
    <qualified-type-def type-id='type-id-514' const='yes' id='type-id-515'/>
    <pointer-type-def type-id='type-id-515' size-in-bits='64' id='type-id-516'/>
    <qualified-type-def type-id='type-id-517' const='yes' id='type-id-518'/>
    <reference-type-def kind='lvalue' type-id='type-id-518' size-in-bits='64' id='type-id-519'/>
    <pointer-type-def type-id='type-id-518' size-in-bits='64' id='type-id-520'/>
    <qualified-type-def type-id='type-id-521' const='yes' id='type-id-522'/>
    <reference-type-def kind='lvalue' type-id='type-id-522' size-in-bits='64' id='type-id-523'/>
    <pointer-type-def type-id='type-id-522' size-in-bits='64' id='type-id-524'/>
    <qualified-type-def type-id='type-id-525' const='yes' id='type-id-526'/>
    <reference-type-def kind='lvalue' type-id='type-id-526' size-in-bits='64' id='type-id-527'/>
    <pointer-type-def type-id='type-id-526' size-in-bits='64' id='type-id-528'/>
    <qualified-type-def type-id='type-id-529' const='yes' id='type-id-530'/>
    <reference-type-def kind='lvalue' type-id='type-id-530' size-in-bits='64' id='type-id-531'/>
    <pointer-type-def type-id='type-id-530' size-in-bits='64' id='type-id-532'/>
    <qualified-type-def type-id='type-id-533' const='yes' id='type-id-534'/>
    <reference-type-def kind='lvalue' type-id='type-id-534' size-in-bits='64' id='type-id-535'/>
    <qualified-type-def type-id='type-id-536' const='yes' id='type-id-537'/>
    <reference-type-def kind='lvalue' type-id='type-id-537' size-in-bits='64' id='type-id-538'/>
    <pointer-type-def type-id='type-id-537' size-in-bits='64' id='type-id-539'/>
    <qualified-type-def type-id='type-id-540' const='yes' id='type-id-541'/>
    <reference-type-def kind='lvalue' type-id='type-id-541' size-in-bits='64' id='type-id-542'/>
    <pointer-type-def type-id='type-id-541' size-in-bits='64' id='type-id-543'/>
    <qualified-type-def type-id='type-id-544' const='yes' id='type-id-545'/>
    <reference-type-def kind='lvalue' type-id='type-id-545' size-in-bits='64' id='type-id-546'/>
    <pointer-type-def type-id='type-id-545' size-in-bits='64' id='type-id-547'/>
    <qualified-type-def type-id='type-id-548' const='yes' id='type-id-549'/>
    <pointer-type-def type-id='type-id-549' size-in-bits='64' id='type-id-550'/>
    <qualified-type-def type-id='type-id-551' const='yes' id='type-id-552'/>
    <reference-type-def kind='lvalue' type-id='type-id-552' size-in-bits='64' id='type-id-553'/>
    <pointer-type-def type-id='type-id-552' size-in-bits='64' id='type-id-554'/>
    <qualified-type-def type-id='type-id-555' const='yes' id='type-id-556'/>
    <reference-type-def kind='lvalue' type-id='type-id-556' size-in-bits='64' id='type-id-557'/>
    <pointer-type-def type-id='type-id-556' size-in-bits='64' id='type-id-558'/>
    <qualified-type-def type-id='type-id-559' const='yes' id='type-id-560'/>
    <reference-type-def kind='lvalue' type-id='type-id-560' size-in-bits='64' id='type-id-561'/>
    <qualified-type-def type-id='type-id-562' const='yes' id='type-id-563'/>
    <reference-type-def kind='lvalue' type-id='type-id-563' size-in-bits='64' id='type-id-564'/>
    <qualified-type-def type-id='type-id-565' const='yes' id='type-id-566'/>
    <pointer-type-def type-id='type-id-566' size-in-bits='64' id='type-id-567'/>
    <qualified-type-def type-id='type-id-568' const='yes' id='type-id-569'/>
    <pointer-type-def type-id='type-id-569' size-in-bits='64' id='type-id-570'/>
    <qualified-type-def type-id='type-id-571' const='yes' id='type-id-572'/>
    <reference-type-def kind='lvalue' type-id='type-id-572' size-in-bits='64' id='type-id-573'/>
    <pointer-type-def type-id='type-id-572' size-in-bits='64' id='type-id-574'/>
    <qualified-type-def type-id='type-id-575' const='yes' id='type-id-576'/>
    <reference-type-def kind='lvalue' type-id='type-id-576' size-in-bits='64' id='type-id-577'/>
    <qualified-type-def type-id='type-id-578' const='yes' id='type-id-579'/>
    <reference-type-def kind='lvalue' type-id='type-id-579' size-in-bits='64' id='type-id-580'/>
    <pointer-type-def type-id='type-id-579' size-in-bits='64' id='type-id-581'/>
    <qualified-type-def type-id='type-id-582' const='yes' id='type-id-583'/>
    <reference-type-def kind='lvalue' type-id='type-id-583' size-in-bits='64' id='type-id-584'/>
    <pointer-type-def type-id='type-id-583' size-in-bits='64' id='type-id-585'/>
    <qualified-type-def type-id='type-id-586' const='yes' id='type-id-587'/>
    <reference-type-def kind='lvalue' type-id='type-id-587' size-in-bits='64' id='type-id-588'/>
    <pointer-type-def type-id='type-id-587' size-in-bits='64' id='type-id-589'/>
    <qualified-type-def type-id='type-id-590' const='yes' id='type-id-591'/>
    <pointer-type-def type-id='type-id-591' size-in-bits='64' id='type-id-592'/>
    <qualified-type-def type-id='type-id-593' const='yes' id='type-id-594'/>
    <pointer-type-def type-id='type-id-594' size-in-bits='64' id='type-id-595'/>
    <qualified-type-def type-id='type-id-596' const='yes' id='type-id-597'/>
    <pointer-type-def type-id='type-id-597' size-in-bits='64' id='type-id-598'/>
    <qualified-type-def type-id='type-id-599' const='yes' id='type-id-600'/>
    <pointer-type-def type-id='type-id-600' size-in-bits='64' id='type-id-601'/>
    <qualified-type-def type-id='type-id-602' const='yes' id='type-id-603'/>
    <pointer-type-def type-id='type-id-603' size-in-bits='64' id='type-id-604'/>
    <qualified-type-def type-id='type-id-605' const='yes' id='type-id-606'/>
    <pointer-type-def type-id='type-id-606' size-in-bits='64' id='type-id-607'/>
    <qualified-type-def type-id='type-id-608' const='yes' id='type-id-609'/>
    <pointer-type-def type-id='type-id-609' size-in-bits='64' id='type-id-610'/>
    <qualified-type-def type-id='type-id-611' const='yes' id='type-id-612'/>
    <pointer-type-def type-id='type-id-612' size-in-bits='64' id='type-id-613'/>
    <qualified-type-def type-id='type-id-614' const='yes' id='type-id-615'/>
    <pointer-type-def type-id='type-id-615' size-in-bits='64' id='type-id-616'/>
    <qualified-type-def type-id='type-id-617' const='yes' id='type-id-618'/>
    <pointer-type-def type-id='type-id-618' size-in-bits='64' id='type-id-619'/>
    <qualified-type-def type-id='type-id-620' const='yes' id='type-id-621'/>
    <pointer-type-def type-id='type-id-621' size-in-bits='64' id='type-id-622'/>
    <qualified-type-def type-id='type-id-623' const='yes' id='type-id-624'/>
    <pointer-type-def type-id='type-id-624' size-in-bits='64' id='type-id-625'/>
    <qualified-type-def type-id='type-id-626' const='yes' id='type-id-627'/>
    <pointer-type-def type-id='type-id-627' size-in-bits='64' id='type-id-628'/>
    <qualified-type-def type-id='type-id-629' const='yes' id='type-id-630'/>
    <pointer-type-def type-id='type-id-630' size-in-bits='64' id='type-id-631'/>
    <qualified-type-def type-id='type-id-632' const='yes' id='type-id-633'/>
    <pointer-type-def type-id='type-id-633' size-in-bits='64' id='type-id-634'/>
    <qualified-type-def type-id='type-id-635' const='yes' id='type-id-636'/>
    <pointer-type-def type-id='type-id-636' size-in-bits='64' id='type-id-637'/>
    <qualified-type-def type-id='type-id-638' const='yes' id='type-id-639'/>
    <pointer-type-def type-id='type-id-639' size-in-bits='64' id='type-id-640'/>
    <qualified-type-def type-id='type-id-641' const='yes' id='type-id-642'/>
    <pointer-type-def type-id='type-id-642' size-in-bits='64' id='type-id-643'/>
    <qualified-type-def type-id='type-id-644' const='yes' id='type-id-645'/>
    <pointer-type-def type-id='type-id-645' size-in-bits='64' id='type-id-646'/>
    <qualified-type-def type-id='type-id-647' const='yes' id='type-id-648'/>
    <pointer-type-def type-id='type-id-648' size-in-bits='64' id='type-id-649'/>
    <qualified-type-def type-id='type-id-650' const='yes' id='type-id-651'/>
    <pointer-type-def type-id='type-id-651' size-in-bits='64' id='type-id-652'/>
    <qualified-type-def type-id='type-id-35' const='yes' id='type-id-653'/>
    <qualified-type-def type-id='type-id-36' const='yes' id='type-id-654'/>
    <qualified-type-def type-id='type-id-71' const='yes' id='type-id-655'/>
    <qualified-type-def type-id='type-id-656' const='yes' id='type-id-657'/>
    <reference-type-def kind='lvalue' type-id='type-id-657' size-in-bits='64' id='type-id-658'/>
    <pointer-type-def type-id='type-id-657' size-in-bits='64' id='type-id-659'/>
    <qualified-type-def type-id='type-id-659' const='yes' id='type-id-660'/>
    <qualified-type-def type-id='type-id-661' const='yes' id='type-id-662'/>
    <pointer-type-def type-id='type-id-662' size-in-bits='64' id='type-id-663'/>
    <qualified-type-def type-id='type-id-664' const='yes' id='type-id-665'/>
    <reference-type-def kind='lvalue' type-id='type-id-665' size-in-bits='64' id='type-id-666'/>
    <pointer-type-def type-id='type-id-665' size-in-bits='64' id='type-id-667'/>
    <qualified-type-def type-id='type-id-668' const='yes' id='type-id-669'/>
    <reference-type-def kind='lvalue' type-id='type-id-669' size-in-bits='64' id='type-id-670'/>
    <pointer-type-def type-id='type-id-669' size-in-bits='64' id='type-id-671'/>
    <qualified-type-def type-id='type-id-672' const='yes' id='type-id-673'/>
    <reference-type-def kind='lvalue' type-id='type-id-673' size-in-bits='64' id='type-id-674'/>
    <pointer-type-def type-id='type-id-673' size-in-bits='64' id='type-id-675'/>
    <qualified-type-def type-id='type-id-676' const='yes' id='type-id-677'/>
    <pointer-type-def type-id='type-id-677' size-in-bits='64' id='type-id-678'/>
    <qualified-type-def type-id='type-id-679' const='yes' id='type-id-680'/>
    <reference-type-def kind='lvalue' type-id='type-id-680' size-in-bits='64' id='type-id-681'/>
    <qualified-type-def type-id='type-id-682' const='yes' id='type-id-683'/>
    <reference-type-def kind='lvalue' type-id='type-id-683' size-in-bits='64' id='type-id-684'/>
    <qualified-type-def type-id='type-id-685' const='yes' id='type-id-686'/>
    <pointer-type-def type-id='type-id-686' size-in-bits='64' id='type-id-687'/>
    <qualified-type-def type-id='type-id-688' const='yes' id='type-id-689'/>
    <reference-type-def kind='lvalue' type-id='type-id-689' size-in-bits='64' id='type-id-690'/>
    <pointer-type-def type-id='type-id-689' size-in-bits='64' id='type-id-691'/>
    <qualified-type-def type-id='type-id-692' const='yes' id='type-id-693'/>
    <reference-type-def kind='lvalue' type-id='type-id-693' size-in-bits='64' id='type-id-694'/>
    <qualified-type-def type-id='type-id-695' const='yes' id='type-id-696'/>
    <reference-type-def kind='lvalue' type-id='type-id-696' size-in-bits='64' id='type-id-697'/>
    <qualified-type-def type-id='type-id-698' const='yes' id='type-id-699'/>
    <reference-type-def kind='lvalue' type-id='type-id-699' size-in-bits='64' id='type-id-700'/>
    <qualified-type-def type-id='type-id-701' const='yes' id='type-id-702'/>
    <reference-type-def kind='lvalue' type-id='type-id-702' size-in-bits='64' id='type-id-703'/>
    <qualified-type-def type-id='type-id-704' const='yes' id='type-id-705'/>
    <reference-type-def kind='lvalue' type-id='type-id-705' size-in-bits='64' id='type-id-706'/>
    <qualified-type-def type-id='type-id-707' const='yes' id='type-id-708'/>
    <reference-type-def kind='lvalue' type-id='type-id-708' size-in-bits='64' id='type-id-709'/>
    <qualified-type-def type-id='type-id-710' const='yes' id='type-id-711'/>
    <reference-type-def kind='lvalue' type-id='type-id-711' size-in-bits='64' id='type-id-712'/>
    <qualified-type-def type-id='type-id-713' const='yes' id='type-id-714'/>
    <reference-type-def kind='lvalue' type-id='type-id-714' size-in-bits='64' id='type-id-715'/>
    <qualified-type-def type-id='type-id-716' const='yes' id='type-id-717'/>
    <reference-type-def kind='lvalue' type-id='type-id-717' size-in-bits='64' id='type-id-718'/>
    <qualified-type-def type-id='type-id-719' const='yes' id='type-id-720'/>
    <reference-type-def kind='lvalue' type-id='type-id-720' size-in-bits='64' id='type-id-721'/>
    <qualified-type-def type-id='type-id-722' const='yes' id='type-id-723'/>
    <pointer-type-def type-id='type-id-723' size-in-bits='64' id='type-id-724'/>
    <qualified-type-def type-id='type-id-725' const='yes' id='type-id-726'/>
    <reference-type-def kind='lvalue' type-id='type-id-726' size-in-bits='64' id='type-id-727'/>
    <qualified-type-def type-id='type-id-728' const='yes' id='type-id-729'/>
    <pointer-type-def type-id='type-id-729' size-in-bits='64' id='type-id-730'/>
    <qualified-type-def type-id='type-id-731' const='yes' id='type-id-732'/>
    <reference-type-def kind='lvalue' type-id='type-id-732' size-in-bits='64' id='type-id-733'/>
    <qualified-type-def type-id='type-id-734' const='yes' id='type-id-735'/>
    <reference-type-def kind='lvalue' type-id='type-id-735' size-in-bits='64' id='type-id-736'/>
    <pointer-type-def type-id='type-id-735' size-in-bits='64' id='type-id-737'/>
    <qualified-type-def type-id='type-id-738' const='yes' id='type-id-739'/>
    <reference-type-def kind='lvalue' type-id='type-id-739' size-in-bits='64' id='type-id-740'/>
    <pointer-type-def type-id='type-id-739' size-in-bits='64' id='type-id-741'/>
    <qualified-type-def type-id='type-id-742' const='yes' id='type-id-743'/>
    <reference-type-def kind='lvalue' type-id='type-id-743' size-in-bits='64' id='type-id-744'/>
    <pointer-type-def type-id='type-id-743' size-in-bits='64' id='type-id-745'/>
    <qualified-type-def type-id='type-id-746' const='yes' id='type-id-747'/>
    <reference-type-def kind='lvalue' type-id='type-id-747' size-in-bits='64' id='type-id-748'/>
    <qualified-type-def type-id='type-id-749' const='yes' id='type-id-750'/>
    <reference-type-def kind='lvalue' type-id='type-id-750' size-in-bits='64' id='type-id-751'/>
    <qualified-type-def type-id='type-id-752' const='yes' id='type-id-753'/>
    <reference-type-def kind='lvalue' type-id='type-id-753' size-in-bits='64' id='type-id-754'/>
    <qualified-type-def type-id='type-id-755' const='yes' id='type-id-756'/>
    <reference-type-def kind='lvalue' type-id='type-id-756' size-in-bits='64' id='type-id-757'/>
    <qualified-type-def type-id='type-id-758' const='yes' id='type-id-759'/>
    <reference-type-def kind='lvalue' type-id='type-id-759' size-in-bits='64' id='type-id-760'/>
    <pointer-type-def type-id='type-id-759' size-in-bits='64' id='type-id-761'/>
    <qualified-type-def type-id='type-id-762' const='yes' id='type-id-763'/>
    <reference-type-def kind='lvalue' type-id='type-id-763' size-in-bits='64' id='type-id-764'/>
    <qualified-type-def type-id='type-id-765' const='yes' id='type-id-766'/>
    <reference-type-def kind='lvalue' type-id='type-id-766' size-in-bits='64' id='type-id-767'/>
    <qualified-type-def type-id='type-id-768' const='yes' id='type-id-769'/>
    <reference-type-def kind='lvalue' type-id='type-id-769' size-in-bits='64' id='type-id-770'/>
    <qualified-type-def type-id='type-id-771' const='yes' id='type-id-772'/>
    <reference-type-def kind='lvalue' type-id='type-id-772' size-in-bits='64' id='type-id-773'/>
    <qualified-type-def type-id='type-id-774' const='yes' id='type-id-775'/>
    <reference-type-def kind='lvalue' type-id='type-id-775' size-in-bits='64' id='type-id-776'/>
    <pointer-type-def type-id='type-id-775' size-in-bits='64' id='type-id-777'/>
    <qualified-type-def type-id='type-id-778' const='yes' id='type-id-779'/>
    <reference-type-def kind='lvalue' type-id='type-id-779' size-in-bits='64' id='type-id-780'/>
    <qualified-type-def type-id='type-id-781' const='yes' id='type-id-782'/>
    <reference-type-def kind='lvalue' type-id='type-id-782' size-in-bits='64' id='type-id-783'/>
    <qualified-type-def type-id='type-id-784' const='yes' id='type-id-785'/>
    <reference-type-def kind='lvalue' type-id='type-id-785' size-in-bits='64' id='type-id-786'/>
    <qualified-type-def type-id='type-id-787' const='yes' id='type-id-788'/>
    <reference-type-def kind='lvalue' type-id='type-id-788' size-in-bits='64' id='type-id-789'/>
    <qualified-type-def type-id='type-id-790' const='yes' id='type-id-791'/>
    <reference-type-def kind='lvalue' type-id='type-id-791' size-in-bits='64' id='type-id-792'/>
    <pointer-type-def type-id='type-id-791' size-in-bits='64' id='type-id-793'/>
    <qualified-type-def type-id='type-id-794' const='yes' id='type-id-795'/>
    <reference-type-def kind='lvalue' type-id='type-id-795' size-in-bits='64' id='type-id-796'/>
    <qualified-type-def type-id='type-id-797' const='yes' id='type-id-798'/>
    <reference-type-def kind='lvalue' type-id='type-id-798' size-in-bits='64' id='type-id-799'/>
    <qualified-type-def type-id='type-id-800' const='yes' id='type-id-801'/>
    <reference-type-def kind='lvalue' type-id='type-id-801' size-in-bits='64' id='type-id-802'/>
    <qualified-type-def type-id='type-id-803' const='yes' id='type-id-804'/>
    <reference-type-def kind='lvalue' type-id='type-id-804' size-in-bits='64' id='type-id-805'/>
    <qualified-type-def type-id='type-id-806' const='yes' id='type-id-807'/>
    <pointer-type-def type-id='type-id-807' size-in-bits='64' id='type-id-808'/>
    <qualified-type-def type-id='type-id-809' const='yes' id='type-id-810'/>
    <reference-type-def kind='lvalue' type-id='type-id-810' size-in-bits='64' id='type-id-811'/>
    <qualified-type-def type-id='type-id-812' const='yes' id='type-id-813'/>
    <reference-type-def kind='lvalue' type-id='type-id-813' size-in-bits='64' id='type-id-814'/>
    <qualified-type-def type-id='type-id-815' const='yes' id='type-id-816'/>
    <pointer-type-def type-id='type-id-816' size-in-bits='64' id='type-id-817'/>
    <qualified-type-def type-id='type-id-818' const='yes' id='type-id-819'/>
    <reference-type-def kind='lvalue' type-id='type-id-819' size-in-bits='64' id='type-id-820'/>
    <qualified-type-def type-id='type-id-821' const='yes' id='type-id-822'/>
    <reference-type-def kind='lvalue' type-id='type-id-822' size-in-bits='64' id='type-id-823'/>
    <pointer-type-def type-id='type-id-822' size-in-bits='64' id='type-id-824'/>
    <qualified-type-def type-id='type-id-825' const='yes' id='type-id-826'/>
    <reference-type-def kind='lvalue' type-id='type-id-826' size-in-bits='64' id='type-id-827'/>
    <pointer-type-def type-id='type-id-826' size-in-bits='64' id='type-id-828'/>
    <qualified-type-def type-id='type-id-829' const='yes' id='type-id-830'/>
    <reference-type-def kind='lvalue' type-id='type-id-830' size-in-bits='64' id='type-id-831'/>
    <pointer-type-def type-id='type-id-830' size-in-bits='64' id='type-id-832'/>
    <qualified-type-def type-id='type-id-833' const='yes' id='type-id-834'/>
    <reference-type-def kind='lvalue' type-id='type-id-834' size-in-bits='64' id='type-id-835'/>
    <pointer-type-def type-id='type-id-834' size-in-bits='64' id='type-id-836'/>
    <qualified-type-def type-id='type-id-837' const='yes' id='type-id-838'/>
    <pointer-type-def type-id='type-id-838' size-in-bits='64' id='type-id-839'/>
    <qualified-type-def type-id='type-id-840' const='yes' id='type-id-841'/>
    <reference-type-def kind='lvalue' type-id='type-id-841' size-in-bits='64' id='type-id-842'/>
    <pointer-type-def type-id='type-id-841' size-in-bits='64' id='type-id-843'/>
    <qualified-type-def type-id='type-id-844' const='yes' id='type-id-845'/>
    <reference-type-def kind='lvalue' type-id='type-id-845' size-in-bits='64' id='type-id-846'/>
    <qualified-type-def type-id='type-id-847' const='yes' id='type-id-848'/>
    <reference-type-def kind='lvalue' type-id='type-id-848' size-in-bits='64' id='type-id-849'/>
    <qualified-type-def type-id='type-id-850' const='yes' id='type-id-851'/>
    <reference-type-def kind='lvalue' type-id='type-id-851' size-in-bits='64' id='type-id-852'/>
    <qualified-type-def type-id='type-id-853' const='yes' id='type-id-854'/>
    <reference-type-def kind='lvalue' type-id='type-id-854' size-in-bits='64' id='type-id-855'/>
    <qualified-type-def type-id='type-id-856' const='yes' id='type-id-857'/>
    <reference-type-def kind='lvalue' type-id='type-id-857' size-in-bits='64' id='type-id-858'/>
    <qualified-type-def type-id='type-id-859' const='yes' id='type-id-860'/>
    <reference-type-def kind='lvalue' type-id='type-id-860' size-in-bits='64' id='type-id-861'/>
    <qualified-type-def type-id='type-id-862' const='yes' id='type-id-863'/>
    <reference-type-def kind='lvalue' type-id='type-id-863' size-in-bits='64' id='type-id-864'/>
    <qualified-type-def type-id='type-id-865' const='yes' id='type-id-866'/>
    <reference-type-def kind='lvalue' type-id='type-id-866' size-in-bits='64' id='type-id-867'/>
    <qualified-type-def type-id='type-id-868' const='yes' id='type-id-869'/>
    <reference-type-def kind='lvalue' type-id='type-id-869' size-in-bits='64' id='type-id-870'/>
    <qualified-type-def type-id='type-id-871' const='yes' id='type-id-872'/>
    <reference-type-def kind='lvalue' type-id='type-id-872' size-in-bits='64' id='type-id-873'/>
    <qualified-type-def type-id='type-id-874' const='yes' id='type-id-875'/>
    <reference-type-def kind='lvalue' type-id='type-id-875' size-in-bits='64' id='type-id-876'/>
    <qualified-type-def type-id='type-id-877' const='yes' id='type-id-878'/>
    <reference-type-def kind='lvalue' type-id='type-id-878' size-in-bits='64' id='type-id-879'/>
    <qualified-type-def type-id='type-id-880' const='yes' id='type-id-881'/>
    <pointer-type-def type-id='type-id-881' size-in-bits='64' id='type-id-882'/>
    <qualified-type-def type-id='type-id-883' const='yes' id='type-id-884'/>
    <reference-type-def kind='lvalue' type-id='type-id-884' size-in-bits='64' id='type-id-885'/>
    <qualified-type-def type-id='type-id-886' const='yes' id='type-id-887'/>
    <reference-type-def kind='lvalue' type-id='type-id-887' size-in-bits='64' id='type-id-888'/>
    <qualified-type-def type-id='type-id-889' const='yes' id='type-id-890'/>
    <pointer-type-def type-id='type-id-890' size-in-bits='64' id='type-id-891'/>
    <qualified-type-def type-id='type-id-892' const='yes' id='type-id-893'/>
    <reference-type-def kind='lvalue' type-id='type-id-893' size-in-bits='64' id='type-id-894'/>
    <qualified-type-def type-id='type-id-895' const='yes' id='type-id-896'/>
    <reference-type-def kind='lvalue' type-id='type-id-896' size-in-bits='64' id='type-id-897'/>
    <qualified-type-def type-id='type-id-898' const='yes' id='type-id-899'/>
    <pointer-type-def type-id='type-id-899' size-in-bits='64' id='type-id-900'/>
    <qualified-type-def type-id='type-id-901' const='yes' id='type-id-902'/>
    <reference-type-def kind='lvalue' type-id='type-id-902' size-in-bits='64' id='type-id-903'/>
    <qualified-type-def type-id='type-id-904' const='yes' id='type-id-905'/>
    <reference-type-def kind='lvalue' type-id='type-id-905' size-in-bits='64' id='type-id-906'/>
    <qualified-type-def type-id='type-id-907' const='yes' id='type-id-908'/>
    <pointer-type-def type-id='type-id-908' size-in-bits='64' id='type-id-909'/>
    <qualified-type-def type-id='type-id-910' const='yes' id='type-id-911'/>
    <reference-type-def kind='lvalue' type-id='type-id-911' size-in-bits='64' id='type-id-912'/>
    <qualified-type-def type-id='type-id-913' const='yes' id='type-id-914'/>
    <reference-type-def kind='lvalue' type-id='type-id-914' size-in-bits='64' id='type-id-915'/>
    <qualified-type-def type-id='type-id-916' const='yes' id='type-id-917'/>
    <pointer-type-def type-id='type-id-917' size-in-bits='64' id='type-id-918'/>
    <qualified-type-def type-id='type-id-919' const='yes' id='type-id-920'/>
    <reference-type-def kind='lvalue' type-id='type-id-920' size-in-bits='64' id='type-id-921'/>
    <qualified-type-def type-id='type-id-922' const='yes' id='type-id-923'/>
    <reference-type-def kind='lvalue' type-id='type-id-923' size-in-bits='64' id='type-id-924'/>
    <qualified-type-def type-id='type-id-925' const='yes' id='type-id-926'/>
    <pointer-type-def type-id='type-id-926' size-in-bits='64' id='type-id-927'/>
    <qualified-type-def type-id='type-id-928' const='yes' id='type-id-929'/>
    <reference-type-def kind='lvalue' type-id='type-id-929' size-in-bits='64' id='type-id-930'/>
    <qualified-type-def type-id='type-id-931' const='yes' id='type-id-932'/>
    <reference-type-def kind='lvalue' type-id='type-id-932' size-in-bits='64' id='type-id-933'/>
    <qualified-type-def type-id='type-id-934' const='yes' id='type-id-935'/>
    <pointer-type-def type-id='type-id-935' size-in-bits='64' id='type-id-936'/>
    <qualified-type-def type-id='type-id-937' const='yes' id='type-id-938'/>
    <reference-type-def kind='lvalue' type-id='type-id-938' size-in-bits='64' id='type-id-939'/>
    <qualified-type-def type-id='type-id-940' const='yes' id='type-id-941'/>
    <reference-type-def kind='lvalue' type-id='type-id-941' size-in-bits='64' id='type-id-942'/>
    <qualified-type-def type-id='type-id-943' const='yes' id='type-id-944'/>
    <reference-type-def kind='lvalue' type-id='type-id-944' size-in-bits='64' id='type-id-945'/>
    <pointer-type-def type-id='type-id-944' size-in-bits='64' id='type-id-946'/>
    <qualified-type-def type-id='type-id-947' const='yes' id='type-id-948'/>
    <reference-type-def kind='lvalue' type-id='type-id-948' size-in-bits='64' id='type-id-949'/>
    <qualified-type-def type-id='type-id-950' const='yes' id='type-id-951'/>
    <pointer-type-def type-id='type-id-951' size-in-bits='64' id='type-id-952'/>
    <qualified-type-def type-id='type-id-953' const='yes' id='type-id-954'/>
    <reference-type-def kind='lvalue' type-id='type-id-954' size-in-bits='64' id='type-id-955'/>
    <qualified-type-def type-id='type-id-956' const='yes' id='type-id-957'/>
    <pointer-type-def type-id='type-id-957' size-in-bits='64' id='type-id-958'/>
    <qualified-type-def type-id='type-id-959' const='yes' id='type-id-960'/>
    <pointer-type-def type-id='type-id-960' size-in-bits='64' id='type-id-961'/>
    <qualified-type-def type-id='type-id-962' const='yes' id='type-id-963'/>
    <reference-type-def kind='lvalue' type-id='type-id-963' size-in-bits='64' id='type-id-964'/>
    <pointer-type-def type-id='type-id-963' size-in-bits='64' id='type-id-965'/>
    <qualified-type-def type-id='type-id-966' const='yes' id='type-id-967'/>
    <pointer-type-def type-id='type-id-967' size-in-bits='64' id='type-id-968'/>
    <qualified-type-def type-id='type-id-969' const='yes' id='type-id-970'/>
    <reference-type-def kind='lvalue' type-id='type-id-970' size-in-bits='64' id='type-id-971'/>
    <pointer-type-def type-id='type-id-970' size-in-bits='64' id='type-id-972'/>
    <qualified-type-def type-id='type-id-973' const='yes' id='type-id-974'/>
    <reference-type-def kind='lvalue' type-id='type-id-974' size-in-bits='64' id='type-id-975'/>
    <qualified-type-def type-id='type-id-976' const='yes' id='type-id-977'/>
    <pointer-type-def type-id='type-id-977' size-in-bits='64' id='type-id-978'/>
    <qualified-type-def type-id='type-id-979' const='yes' id='type-id-980'/>
    <reference-type-def kind='lvalue' type-id='type-id-980' size-in-bits='64' id='type-id-981'/>
    <qualified-type-def type-id='type-id-982' const='yes' id='type-id-983'/>
    <reference-type-def kind='lvalue' type-id='type-id-983' size-in-bits='64' id='type-id-984'/>
    <qualified-type-def type-id='type-id-985' const='yes' id='type-id-986'/>
    <reference-type-def kind='lvalue' type-id='type-id-986' size-in-bits='64' id='type-id-987'/>
    <qualified-type-def type-id='type-id-988' const='yes' id='type-id-989'/>
    <reference-type-def kind='lvalue' type-id='type-id-989' size-in-bits='64' id='type-id-990'/>
    <qualified-type-def type-id='type-id-991' const='yes' id='type-id-992'/>
    <reference-type-def kind='lvalue' type-id='type-id-992' size-in-bits='64' id='type-id-993'/>
    <qualified-type-def type-id='type-id-994' const='yes' id='type-id-995'/>
    <reference-type-def kind='lvalue' type-id='type-id-995' size-in-bits='64' id='type-id-996'/>
    <qualified-type-def type-id='type-id-997' const='yes' id='type-id-998'/>
    <pointer-type-def type-id='type-id-998' size-in-bits='64' id='type-id-999'/>
    <qualified-type-def type-id='type-id-1000' const='yes' id='type-id-1001'/>
    <reference-type-def kind='lvalue' type-id='type-id-1001' size-in-bits='64' id='type-id-1002'/>
    <qualified-type-def type-id='type-id-1003' const='yes' id='type-id-1004'/>
    <reference-type-def kind='lvalue' type-id='type-id-1004' size-in-bits='64' id='type-id-1005'/>
    <qualified-type-def type-id='type-id-1006' const='yes' id='type-id-1007'/>
    <reference-type-def kind='lvalue' type-id='type-id-1007' size-in-bits='64' id='type-id-1008'/>
    <pointer-type-def type-id='type-id-1007' size-in-bits='64' id='type-id-1009'/>
    <qualified-type-def type-id='type-id-1010' const='yes' id='type-id-1011'/>
    <reference-type-def kind='lvalue' type-id='type-id-1011' size-in-bits='64' id='type-id-1012'/>
    <pointer-type-def type-id='type-id-1011' size-in-bits='64' id='type-id-1013'/>
    <qualified-type-def type-id='type-id-1014' const='yes' id='type-id-1015'/>
    <pointer-type-def type-id='type-id-1015' size-in-bits='64' id='type-id-1016'/>
    <qualified-type-def type-id='type-id-1017' const='yes' id='type-id-1018'/>
    <reference-type-def kind='lvalue' type-id='type-id-1018' size-in-bits='64' id='type-id-1019'/>
    <qualified-type-def type-id='type-id-1020' const='yes' id='type-id-1021'/>
    <reference-type-def kind='lvalue' type-id='type-id-1021' size-in-bits='64' id='type-id-1022'/>
    <pointer-type-def type-id='type-id-1021' size-in-bits='64' id='type-id-1023'/>
    <qualified-type-def type-id='type-id-1024' const='yes' id='type-id-1025'/>
    <reference-type-def kind='lvalue' type-id='type-id-1025' size-in-bits='64' id='type-id-1026'/>
    <pointer-type-def type-id='type-id-1025' size-in-bits='64' id='type-id-1027'/>
    <qualified-type-def type-id='type-id-1028' const='yes' id='type-id-1029'/>
    <reference-type-def kind='lvalue' type-id='type-id-1029' size-in-bits='64' id='type-id-1030'/>
    <qualified-type-def type-id='type-id-1031' const='yes' id='type-id-1032'/>
    <reference-type-def kind='lvalue' type-id='type-id-1032' size-in-bits='64' id='type-id-1033'/>
    <qualified-type-def type-id='type-id-1034' const='yes' id='type-id-1035'/>
    <reference-type-def kind='lvalue' type-id='type-id-1035' size-in-bits='64' id='type-id-1036'/>
    <qualified-type-def type-id='type-id-1037' const='yes' id='type-id-1038'/>
    <reference-type-def kind='lvalue' type-id='type-id-1038' size-in-bits='64' id='type-id-1039'/>
    <qualified-type-def type-id='type-id-1040' const='yes' id='type-id-1041'/>
    <reference-type-def kind='lvalue' type-id='type-id-1041' size-in-bits='64' id='type-id-1042'/>
    <qualified-type-def type-id='type-id-1043' const='yes' id='type-id-1044'/>
    <reference-type-def kind='lvalue' type-id='type-id-1044' size-in-bits='64' id='type-id-1045'/>
    <qualified-type-def type-id='type-id-1046' const='yes' id='type-id-1047'/>
    <reference-type-def kind='lvalue' type-id='type-id-1047' size-in-bits='64' id='type-id-1048'/>
    <qualified-type-def type-id='type-id-1049' const='yes' id='type-id-1050'/>
    <reference-type-def kind='lvalue' type-id='type-id-1050' size-in-bits='64' id='type-id-1051'/>
    <qualified-type-def type-id='type-id-1052' const='yes' id='type-id-1053'/>
    <reference-type-def kind='lvalue' type-id='type-id-1053' size-in-bits='64' id='type-id-1054'/>
    <qualified-type-def type-id='type-id-1055' const='yes' id='type-id-1056'/>
    <reference-type-def kind='lvalue' type-id='type-id-1056' size-in-bits='64' id='type-id-1057'/>
    <qualified-type-def type-id='type-id-1058' const='yes' id='type-id-1059'/>
    <reference-type-def kind='lvalue' type-id='type-id-1059' size-in-bits='64' id='type-id-1060'/>
    <qualified-type-def type-id='type-id-1061' const='yes' id='type-id-1062'/>
    <reference-type-def kind='lvalue' type-id='type-id-1062' size-in-bits='64' id='type-id-1063'/>
    <qualified-type-def type-id='type-id-1064' const='yes' id='type-id-1065'/>
    <reference-type-def kind='lvalue' type-id='type-id-1065' size-in-bits='64' id='type-id-1066'/>
    <qualified-type-def type-id='type-id-1067' const='yes' id='type-id-1068'/>
    <reference-type-def kind='lvalue' type-id='type-id-1068' size-in-bits='64' id='type-id-1069'/>
    <qualified-type-def type-id='type-id-1070' const='yes' id='type-id-1071'/>
    <reference-type-def kind='lvalue' type-id='type-id-1071' size-in-bits='64' id='type-id-1072'/>
    <qualified-type-def type-id='type-id-1073' const='yes' id='type-id-1074'/>
    <reference-type-def kind='lvalue' type-id='type-id-1074' size-in-bits='64' id='type-id-1075'/>
    <qualified-type-def type-id='type-id-1076' const='yes' id='type-id-1077'/>
    <reference-type-def kind='lvalue' type-id='type-id-1077' size-in-bits='64' id='type-id-1078'/>
    <qualified-type-def type-id='type-id-1079' const='yes' id='type-id-1080'/>
    <reference-type-def kind='lvalue' type-id='type-id-1080' size-in-bits='64' id='type-id-1081'/>
    <qualified-type-def type-id='type-id-1082' const='yes' id='type-id-1083'/>
    <reference-type-def kind='lvalue' type-id='type-id-1083' size-in-bits='64' id='type-id-1084'/>
    <qualified-type-def type-id='type-id-1085' const='yes' id='type-id-1086'/>
    <reference-type-def kind='lvalue' type-id='type-id-1086' size-in-bits='64' id='type-id-1087'/>
    <qualified-type-def type-id='type-id-1088' const='yes' id='type-id-1089'/>
    <reference-type-def kind='lvalue' type-id='type-id-1089' size-in-bits='64' id='type-id-1090'/>
    <qualified-type-def type-id='type-id-1091' const='yes' id='type-id-1092'/>
    <reference-type-def kind='lvalue' type-id='type-id-1092' size-in-bits='64' id='type-id-1093'/>
    <qualified-type-def type-id='type-id-1094' const='yes' id='type-id-1095'/>
    <reference-type-def kind='lvalue' type-id='type-id-1095' size-in-bits='64' id='type-id-1096'/>
    <qualified-type-def type-id='type-id-1097' const='yes' id='type-id-1098'/>
    <reference-type-def kind='lvalue' type-id='type-id-1098' size-in-bits='64' id='type-id-1099'/>
    <qualified-type-def type-id='type-id-1100' const='yes' id='type-id-1101'/>
    <reference-type-def kind='lvalue' type-id='type-id-1101' size-in-bits='64' id='type-id-1102'/>
    <qualified-type-def type-id='type-id-1103' const='yes' id='type-id-1104'/>
    <reference-type-def kind='lvalue' type-id='type-id-1104' size-in-bits='64' id='type-id-1105'/>
    <qualified-type-def type-id='type-id-37' const='yes' id='type-id-1106'/>
    <reference-type-def kind='lvalue' type-id='type-id-1106' size-in-bits='64' id='type-id-1107'/>
    <pointer-type-def type-id='type-id-1106' size-in-bits='64' id='type-id-1108'/>
    <qualified-type-def type-id='type-id-1108' const='yes' id='type-id-1109'/>
    <reference-type-def kind='lvalue' type-id='type-id-1109' size-in-bits='64' id='type-id-1110'/>
    <qualified-type-def type-id='type-id-1111' const='yes' id='type-id-1112'/>
    <pointer-type-def type-id='type-id-1112' size-in-bits='64' id='type-id-1113'/>
    <qualified-type-def type-id='type-id-1114' const='yes' id='type-id-1115'/>
    <qualified-type-def type-id='type-id-1116' const='yes' id='type-id-1117'/>
    <reference-type-def kind='lvalue' type-id='type-id-1117' size-in-bits='64' id='type-id-1118'/>
    <qualified-type-def type-id='type-id-1119' const='yes' id='type-id-1120'/>
    <reference-type-def kind='lvalue' type-id='type-id-1120' size-in-bits='64' id='type-id-1121'/>
    <pointer-type-def type-id='type-id-1120' size-in-bits='64' id='type-id-1122'/>
    <qualified-type-def type-id='type-id-1123' const='yes' id='type-id-1124'/>
    <reference-type-def kind='lvalue' type-id='type-id-1124' size-in-bits='64' id='type-id-1125'/>
    <qualified-type-def type-id='type-id-1126' const='yes' id='type-id-1127'/>
    <reference-type-def kind='lvalue' type-id='type-id-1127' size-in-bits='64' id='type-id-1128'/>
    <pointer-type-def type-id='type-id-1127' size-in-bits='64' id='type-id-1129'/>
    <qualified-type-def type-id='type-id-1130' const='yes' id='type-id-1131'/>
    <reference-type-def kind='lvalue' type-id='type-id-1131' size-in-bits='64' id='type-id-1132'/>
    <qualified-type-def type-id='type-id-1133' const='yes' id='type-id-1134'/>
    <reference-type-def kind='lvalue' type-id='type-id-1134' size-in-bits='64' id='type-id-1135'/>
    <pointer-type-def type-id='type-id-1134' size-in-bits='64' id='type-id-1136'/>
    <qualified-type-def type-id='type-id-1137' const='yes' id='type-id-1138'/>
    <reference-type-def kind='lvalue' type-id='type-id-1138' size-in-bits='64' id='type-id-1139'/>
    <qualified-type-def type-id='type-id-1140' const='yes' id='type-id-1141'/>
    <pointer-type-def type-id='type-id-1141' size-in-bits='64' id='type-id-1142'/>
    <qualified-type-def type-id='type-id-1143' const='yes' id='type-id-1144'/>
    <reference-type-def kind='lvalue' type-id='type-id-1144' size-in-bits='64' id='type-id-1145'/>
    <qualified-type-def type-id='type-id-1146' const='yes' id='type-id-1147'/>
    <reference-type-def kind='lvalue' type-id='type-id-1147' size-in-bits='64' id='type-id-1148'/>
    <pointer-type-def type-id='type-id-1147' size-in-bits='64' id='type-id-1149'/>
    <qualified-type-def type-id='type-id-1150' const='yes' id='type-id-1151'/>
    <reference-type-def kind='lvalue' type-id='type-id-1151' size-in-bits='64' id='type-id-1152'/>
    <pointer-type-def type-id='type-id-1151' size-in-bits='64' id='type-id-1153'/>
    <qualified-type-def type-id='type-id-1154' const='yes' id='type-id-1155'/>
    <reference-type-def kind='lvalue' type-id='type-id-1155' size-in-bits='64' id='type-id-1156'/>
    <pointer-type-def type-id='type-id-1155' size-in-bits='64' id='type-id-1157'/>
    <qualified-type-def type-id='type-id-1158' const='yes' id='type-id-1159'/>
    <reference-type-def kind='lvalue' type-id='type-id-1159' size-in-bits='64' id='type-id-1160'/>
    <pointer-type-def type-id='type-id-1159' size-in-bits='64' id='type-id-1161'/>
    <qualified-type-def type-id='type-id-1162' const='yes' id='type-id-1163'/>
    <reference-type-def kind='lvalue' type-id='type-id-1163' size-in-bits='64' id='type-id-1164'/>
    <pointer-type-def type-id='type-id-1163' size-in-bits='64' id='type-id-1165'/>
    <qualified-type-def type-id='type-id-1166' const='yes' id='type-id-1167'/>
    <pointer-type-def type-id='type-id-1167' size-in-bits='64' id='type-id-1168'/>
    <qualified-type-def type-id='type-id-1169' const='yes' id='type-id-1170'/>
    <pointer-type-def type-id='type-id-1170' size-in-bits='64' id='type-id-1171'/>
    <qualified-type-def type-id='type-id-1172' const='yes' id='type-id-1173'/>
    <pointer-type-def type-id='type-id-1173' size-in-bits='64' id='type-id-1174'/>
    <qualified-type-def type-id='type-id-1175' const='yes' id='type-id-1176'/>
    <pointer-type-def type-id='type-id-1176' size-in-bits='64' id='type-id-1177'/>
    <qualified-type-def type-id='type-id-1178' const='yes' id='type-id-1179'/>
    <pointer-type-def type-id='type-id-1179' size-in-bits='64' id='type-id-1180'/>
    <qualified-type-def type-id='type-id-1181' const='yes' id='type-id-1182'/>
    <pointer-type-def type-id='type-id-1182' size-in-bits='64' id='type-id-1183'/>
    <qualified-type-def type-id='type-id-1184' const='yes' id='type-id-1185'/>
    <pointer-type-def type-id='type-id-1185' size-in-bits='64' id='type-id-1186'/>
    <qualified-type-def type-id='type-id-1187' const='yes' id='type-id-1188'/>
    <pointer-type-def type-id='type-id-1188' size-in-bits='64' id='type-id-1189'/>
    <qualified-type-def type-id='type-id-1190' const='yes' id='type-id-1191'/>
    <pointer-type-def type-id='type-id-1191' size-in-bits='64' id='type-id-1192'/>
    <qualified-type-def type-id='type-id-1193' const='yes' id='type-id-1194'/>
    <pointer-type-def type-id='type-id-1194' size-in-bits='64' id='type-id-1195'/>
    <qualified-type-def type-id='type-id-1196' const='yes' id='type-id-1197'/>
    <pointer-type-def type-id='type-id-1197' size-in-bits='64' id='type-id-1198'/>
    <qualified-type-def type-id='type-id-1199' const='yes' id='type-id-1200'/>
    <pointer-type-def type-id='type-id-1200' size-in-bits='64' id='type-id-1201'/>
    <qualified-type-def type-id='type-id-1202' const='yes' id='type-id-1203'/>
    <qualified-type-def type-id='type-id-1204' const='yes' id='type-id-1205'/>
    <qualified-type-def type-id='type-id-1206' const='yes' id='type-id-1207'/>
    <qualified-type-def type-id='type-id-1208' const='yes' id='type-id-1209'/>
    <qualified-type-def type-id='type-id-1210' const='yes' id='type-id-1211'/>
    <reference-type-def kind='lvalue' type-id='type-id-1211' size-in-bits='64' id='type-id-1212'/>
    <pointer-type-def type-id='type-id-1211' size-in-bits='64' id='type-id-1213'/>
    <qualified-type-def type-id='type-id-1214' const='yes' id='type-id-1215'/>
    <reference-type-def kind='lvalue' type-id='type-id-1215' size-in-bits='64' id='type-id-1216'/>
    <pointer-type-def type-id='type-id-1215' size-in-bits='64' id='type-id-1217'/>
    <qualified-type-def type-id='type-id-1218' const='yes' id='type-id-1219'/>
    <reference-type-def kind='lvalue' type-id='type-id-1219' size-in-bits='64' id='type-id-1220'/>
    <qualified-type-def type-id='type-id-1221' const='yes' id='type-id-1222'/>
    <reference-type-def kind='lvalue' type-id='type-id-1222' size-in-bits='64' id='type-id-1223'/>
    <qualified-type-def type-id='type-id-1224' const='yes' id='type-id-1225'/>
    <reference-type-def kind='lvalue' type-id='type-id-1225' size-in-bits='64' id='type-id-1226'/>
    <pointer-type-def type-id='type-id-1225' size-in-bits='64' id='type-id-1227'/>
    <qualified-type-def type-id='type-id-1228' const='yes' id='type-id-1229'/>
    <reference-type-def kind='lvalue' type-id='type-id-1229' size-in-bits='64' id='type-id-1230'/>
    <qualified-type-def type-id='type-id-1231' const='yes' id='type-id-1232'/>
    <reference-type-def kind='lvalue' type-id='type-id-1232' size-in-bits='64' id='type-id-1233'/>
    <qualified-type-def type-id='type-id-1234' const='yes' id='type-id-1235'/>
    <reference-type-def kind='lvalue' type-id='type-id-1235' size-in-bits='64' id='type-id-1236'/>
    <pointer-type-def type-id='type-id-1235' size-in-bits='64' id='type-id-1237'/>
    <qualified-type-def type-id='type-id-1238' const='yes' id='type-id-1239'/>
    <reference-type-def kind='lvalue' type-id='type-id-1239' size-in-bits='64' id='type-id-1240'/>
    <qualified-type-def type-id='type-id-1241' const='yes' id='type-id-1242'/>
    <reference-type-def kind='lvalue' type-id='type-id-1242' size-in-bits='64' id='type-id-1243'/>
    <qualified-type-def type-id='type-id-1244' const='yes' id='type-id-1245'/>
    <reference-type-def kind='lvalue' type-id='type-id-1245' size-in-bits='64' id='type-id-1246'/>
    <qualified-type-def type-id='type-id-1247' const='yes' id='type-id-1248'/>
    <reference-type-def kind='lvalue' type-id='type-id-1248' size-in-bits='64' id='type-id-1249'/>
    <qualified-type-def type-id='type-id-1250' const='yes' id='type-id-1251'/>
    <reference-type-def kind='lvalue' type-id='type-id-1251' size-in-bits='64' id='type-id-1252'/>
    <pointer-type-def type-id='type-id-1251' size-in-bits='64' id='type-id-1253'/>
    <qualified-type-def type-id='type-id-1254' const='yes' id='type-id-1255'/>
    <reference-type-def kind='lvalue' type-id='type-id-1255' size-in-bits='64' id='type-id-1256'/>
    <qualified-type-def type-id='type-id-1257' const='yes' id='type-id-1258'/>
    <reference-type-def kind='lvalue' type-id='type-id-1258' size-in-bits='64' id='type-id-1259'/>
    <qualified-type-def type-id='type-id-1260' const='yes' id='type-id-1261'/>
    <reference-type-def kind='lvalue' type-id='type-id-1261' size-in-bits='64' id='type-id-1262'/>
    <qualified-type-def type-id='type-id-1263' const='yes' id='type-id-1264'/>
    <reference-type-def kind='lvalue' type-id='type-id-1264' size-in-bits='64' id='type-id-1265'/>
    <qualified-type-def type-id='type-id-1266' const='yes' id='type-id-1267'/>
    <reference-type-def kind='lvalue' type-id='type-id-1267' size-in-bits='64' id='type-id-1268'/>
    <pointer-type-def type-id='type-id-1267' size-in-bits='64' id='type-id-1269'/>
    <qualified-type-def type-id='type-id-1270' const='yes' id='type-id-1271'/>
    <reference-type-def kind='lvalue' type-id='type-id-1271' size-in-bits='64' id='type-id-1272'/>
    <qualified-type-def type-id='type-id-1273' const='yes' id='type-id-1274'/>
    <reference-type-def kind='lvalue' type-id='type-id-1274' size-in-bits='64' id='type-id-1275'/>
    <qualified-type-def type-id='type-id-1276' const='yes' id='type-id-1277'/>
    <reference-type-def kind='lvalue' type-id='type-id-1277' size-in-bits='64' id='type-id-1278'/>
    <qualified-type-def type-id='type-id-1279' const='yes' id='type-id-1280'/>
    <reference-type-def kind='lvalue' type-id='type-id-1280' size-in-bits='64' id='type-id-1281'/>
    <qualified-type-def type-id='type-id-1282' const='yes' id='type-id-1283'/>
    <qualified-type-def type-id='type-id-1284' const='yes' id='type-id-1285'/>
    <reference-type-def kind='lvalue' type-id='type-id-1285' size-in-bits='64' id='type-id-1286'/>
    <pointer-type-def type-id='type-id-1285' size-in-bits='64' id='type-id-1287'/>
    <qualified-type-def type-id='type-id-1288' const='yes' id='type-id-1289'/>
    <reference-type-def kind='lvalue' type-id='type-id-1289' size-in-bits='64' id='type-id-1290'/>
    <qualified-type-def type-id='type-id-1291' const='yes' id='type-id-1292'/>
    <reference-type-def kind='lvalue' type-id='type-id-1292' size-in-bits='64' id='type-id-1293'/>
    <pointer-type-def type-id='type-id-1292' size-in-bits='64' id='type-id-1294'/>
    <qualified-type-def type-id='type-id-1295' const='yes' id='type-id-1296'/>
    <reference-type-def kind='lvalue' type-id='type-id-1296' size-in-bits='64' id='type-id-1297'/>
    <pointer-type-def type-id='type-id-1296' size-in-bits='64' id='type-id-1298'/>
    <qualified-type-def type-id='type-id-1299' const='yes' id='type-id-1300'/>
    <reference-type-def kind='lvalue' type-id='type-id-1300' size-in-bits='64' id='type-id-1301'/>
    <pointer-type-def type-id='type-id-1300' size-in-bits='64' id='type-id-1302'/>
    <qualified-type-def type-id='type-id-1303' const='yes' id='type-id-1304'/>
    <reference-type-def kind='lvalue' type-id='type-id-1304' size-in-bits='64' id='type-id-1305'/>
    <pointer-type-def type-id='type-id-1304' size-in-bits='64' id='type-id-1306'/>
    <qualified-type-def type-id='type-id-1307' const='yes' id='type-id-1308'/>
    <reference-type-def kind='lvalue' type-id='type-id-1308' size-in-bits='64' id='type-id-1309'/>
    <qualified-type-def type-id='type-id-1310' const='yes' id='type-id-1311'/>
    <reference-type-def kind='lvalue' type-id='type-id-1311' size-in-bits='64' id='type-id-1312'/>
    <pointer-type-def type-id='type-id-1311' size-in-bits='64' id='type-id-1313'/>
    <qualified-type-def type-id='type-id-1314' const='yes' id='type-id-1315'/>
    <reference-type-def kind='lvalue' type-id='type-id-1315' size-in-bits='64' id='type-id-1316'/>
    <pointer-type-def type-id='type-id-1315' size-in-bits='64' id='type-id-1317'/>
    <qualified-type-def type-id='type-id-1318' const='yes' id='type-id-1319'/>
    <reference-type-def kind='lvalue' type-id='type-id-1319' size-in-bits='64' id='type-id-1320'/>
    <pointer-type-def type-id='type-id-1319' size-in-bits='64' id='type-id-1321'/>
    <qualified-type-def type-id='type-id-1322' const='yes' id='type-id-1323'/>
    <reference-type-def kind='lvalue' type-id='type-id-1323' size-in-bits='64' id='type-id-1324'/>
    <qualified-type-def type-id='type-id-1325' const='yes' id='type-id-1326'/>
    <reference-type-def kind='lvalue' type-id='type-id-1326' size-in-bits='64' id='type-id-1327'/>
    <qualified-type-def type-id='type-id-1328' const='yes' id='type-id-1329'/>
    <reference-type-def kind='lvalue' type-id='type-id-1329' size-in-bits='64' id='type-id-1330'/>
    <qualified-type-def type-id='type-id-1331' const='yes' id='type-id-1332'/>
    <reference-type-def kind='lvalue' type-id='type-id-1332' size-in-bits='64' id='type-id-1333'/>
    <pointer-type-def type-id='type-id-1332' size-in-bits='64' id='type-id-1334'/>
    <qualified-type-def type-id='type-id-1335' const='yes' id='type-id-1336'/>
    <qualified-type-def type-id='type-id-1337' const='yes' id='type-id-1338'/>
    <reference-type-def kind='lvalue' type-id='type-id-1338' size-in-bits='64' id='type-id-1339'/>
    <qualified-type-def type-id='type-id-1340' const='yes' id='type-id-1341'/>
    <reference-type-def kind='lvalue' type-id='type-id-1341' size-in-bits='64' id='type-id-1342'/>
    <qualified-type-def type-id='type-id-1343' const='yes' id='type-id-1344'/>
    <reference-type-def kind='lvalue' type-id='type-id-1344' size-in-bits='64' id='type-id-1345'/>
    <qualified-type-def type-id='type-id-1346' const='yes' id='type-id-1347'/>
    <reference-type-def kind='lvalue' type-id='type-id-1347' size-in-bits='64' id='type-id-1348'/>
    <qualified-type-def type-id='type-id-1349' const='yes' id='type-id-1350'/>
    <reference-type-def kind='lvalue' type-id='type-id-1350' size-in-bits='64' id='type-id-1351'/>
    <pointer-type-def type-id='type-id-1350' size-in-bits='64' id='type-id-1352'/>
    <reference-type-def kind='lvalue' type-id='type-id-1352' size-in-bits='64' id='type-id-1353'/>
    <qualified-type-def type-id='type-id-1354' const='yes' id='type-id-1355'/>
    <reference-type-def kind='lvalue' type-id='type-id-1355' size-in-bits='64' id='type-id-1356'/>
    <pointer-type-def type-id='type-id-1355' size-in-bits='64' id='type-id-1357'/>
    <qualified-type-def type-id='type-id-1358' const='yes' id='type-id-1359'/>
    <reference-type-def kind='lvalue' type-id='type-id-1359' size-in-bits='64' id='type-id-1360'/>
    <qualified-type-def type-id='type-id-1361' const='yes' id='type-id-1362'/>
    <reference-type-def kind='lvalue' type-id='type-id-1362' size-in-bits='64' id='type-id-1363'/>
    <pointer-type-def type-id='type-id-1362' size-in-bits='64' id='type-id-1364'/>
    <qualified-type-def type-id='type-id-1365' const='yes' id='type-id-1366'/>
    <reference-type-def kind='lvalue' type-id='type-id-1366' size-in-bits='64' id='type-id-1367'/>
    <qualified-type-def type-id='type-id-1368' const='yes' id='type-id-1369'/>
    <reference-type-def kind='lvalue' type-id='type-id-1369' size-in-bits='64' id='type-id-1370'/>
    <pointer-type-def type-id='type-id-1369' size-in-bits='64' id='type-id-1371'/>
    <qualified-type-def type-id='type-id-1372' const='yes' id='type-id-1373'/>
    <reference-type-def kind='lvalue' type-id='type-id-1373' size-in-bits='64' id='type-id-1374'/>
    <qualified-type-def type-id='type-id-1375' const='yes' id='type-id-1376'/>
    <reference-type-def kind='lvalue' type-id='type-id-1376' size-in-bits='64' id='type-id-1377'/>
    <qualified-type-def type-id='type-id-1378' const='yes' id='type-id-1379'/>
    <reference-type-def kind='lvalue' type-id='type-id-1379' size-in-bits='64' id='type-id-1380'/>
    <qualified-type-def type-id='type-id-1381' const='yes' id='type-id-1382'/>
    <reference-type-def kind='lvalue' type-id='type-id-1382' size-in-bits='64' id='type-id-1383'/>
    <qualified-type-def type-id='type-id-1384' const='yes' id='type-id-1385'/>
    <reference-type-def kind='lvalue' type-id='type-id-1385' size-in-bits='64' id='type-id-1386'/>
    <qualified-type-def type-id='type-id-1387' const='yes' id='type-id-1388'/>
    <reference-type-def kind='lvalue' type-id='type-id-1388' size-in-bits='64' id='type-id-1389'/>
    <qualified-type-def type-id='type-id-1390' const='yes' id='type-id-1391'/>
    <reference-type-def kind='lvalue' type-id='type-id-1391' size-in-bits='64' id='type-id-1392'/>
    <pointer-type-def type-id='type-id-1391' size-in-bits='64' id='type-id-1393'/>
    <qualified-type-def type-id='type-id-1394' const='yes' id='type-id-1395'/>
    <reference-type-def kind='lvalue' type-id='type-id-1395' size-in-bits='64' id='type-id-1396'/>
    <qualified-type-def type-id='type-id-1397' const='yes' id='type-id-1398'/>
    <reference-type-def kind='lvalue' type-id='type-id-1398' size-in-bits='64' id='type-id-1399'/>
    <pointer-type-def type-id='type-id-1398' size-in-bits='64' id='type-id-1400'/>
    <qualified-type-def type-id='type-id-1401' const='yes' id='type-id-1402'/>
    <reference-type-def kind='lvalue' type-id='type-id-1402' size-in-bits='64' id='type-id-1403'/>
    <qualified-type-def type-id='type-id-1404' const='yes' id='type-id-1405'/>
    <reference-type-def kind='lvalue' type-id='type-id-1405' size-in-bits='64' id='type-id-1406'/>
    <qualified-type-def type-id='type-id-1407' const='yes' id='type-id-1408'/>
    <reference-type-def kind='lvalue' type-id='type-id-1408' size-in-bits='64' id='type-id-1409'/>
    <pointer-type-def type-id='type-id-1408' size-in-bits='64' id='type-id-1410'/>
    <qualified-type-def type-id='type-id-1411' const='yes' id='type-id-1412'/>
    <reference-type-def kind='lvalue' type-id='type-id-1412' size-in-bits='64' id='type-id-1413'/>
    <qualified-type-def type-id='type-id-1414' const='yes' id='type-id-1415'/>
    <reference-type-def kind='lvalue' type-id='type-id-1415' size-in-bits='64' id='type-id-1416'/>
    <qualified-type-def type-id='type-id-1417' const='yes' id='type-id-1418'/>
    <reference-type-def kind='lvalue' type-id='type-id-1418' size-in-bits='64' id='type-id-1419'/>
    <pointer-type-def type-id='type-id-1418' size-in-bits='64' id='type-id-1420'/>
    <qualified-type-def type-id='type-id-1421' const='yes' id='type-id-1422'/>
    <reference-type-def kind='lvalue' type-id='type-id-1422' size-in-bits='64' id='type-id-1423'/>
    <qualified-type-def type-id='type-id-1424' const='yes' id='type-id-1425'/>
    <reference-type-def kind='lvalue' type-id='type-id-1425' size-in-bits='64' id='type-id-1426'/>
    <qualified-type-def type-id='type-id-1427' const='yes' id='type-id-1428'/>
    <reference-type-def kind='lvalue' type-id='type-id-1428' size-in-bits='64' id='type-id-1429'/>
    <pointer-type-def type-id='type-id-1428' size-in-bits='64' id='type-id-1430'/>
    <qualified-type-def type-id='type-id-1431' const='yes' id='type-id-1432'/>
    <reference-type-def kind='lvalue' type-id='type-id-1432' size-in-bits='64' id='type-id-1433'/>
    <qualified-type-def type-id='type-id-1434' const='yes' id='type-id-1435'/>
    <reference-type-def kind='lvalue' type-id='type-id-1435' size-in-bits='64' id='type-id-1436'/>
    <qualified-type-def type-id='type-id-1437' const='yes' id='type-id-1438'/>
    <reference-type-def kind='lvalue' type-id='type-id-1438' size-in-bits='64' id='type-id-1439'/>
    <pointer-type-def type-id='type-id-1438' size-in-bits='64' id='type-id-1440'/>
    <qualified-type-def type-id='type-id-1441' const='yes' id='type-id-1442'/>
    <reference-type-def kind='lvalue' type-id='type-id-1442' size-in-bits='64' id='type-id-1443'/>
    <qualified-type-def type-id='type-id-1444' const='yes' id='type-id-1445'/>
    <reference-type-def kind='lvalue' type-id='type-id-1445' size-in-bits='64' id='type-id-1446'/>
    <qualified-type-def type-id='type-id-1447' const='yes' id='type-id-1448'/>
    <reference-type-def kind='lvalue' type-id='type-id-1448' size-in-bits='64' id='type-id-1449'/>
    <pointer-type-def type-id='type-id-1448' size-in-bits='64' id='type-id-1450'/>
    <qualified-type-def type-id='type-id-1451' const='yes' id='type-id-1452'/>
    <reference-type-def kind='lvalue' type-id='type-id-1452' size-in-bits='64' id='type-id-1453'/>
    <qualified-type-def type-id='type-id-1454' const='yes' id='type-id-1455'/>
    <qualified-type-def type-id='type-id-1456' const='yes' id='type-id-1457'/>
    <reference-type-def kind='lvalue' type-id='type-id-1457' size-in-bits='64' id='type-id-1458'/>
    <qualified-type-def type-id='type-id-1459' const='yes' id='type-id-1460'/>
    <reference-type-def kind='lvalue' type-id='type-id-1460' size-in-bits='64' id='type-id-1461'/>
    <pointer-type-def type-id='type-id-1460' size-in-bits='64' id='type-id-1462'/>
    <qualified-type-def type-id='type-id-1463' const='yes' id='type-id-1464'/>
    <reference-type-def kind='lvalue' type-id='type-id-1464' size-in-bits='64' id='type-id-1465'/>
    <qualified-type-def type-id='type-id-1466' const='yes' id='type-id-1467'/>
    <reference-type-def kind='lvalue' type-id='type-id-1467' size-in-bits='64' id='type-id-1468'/>
    <qualified-type-def type-id='type-id-1469' const='yes' id='type-id-1470'/>
    <reference-type-def kind='lvalue' type-id='type-id-1470' size-in-bits='64' id='type-id-1471'/>
    <qualified-type-def type-id='type-id-93' const='yes' id='type-id-1472'/>
    <pointer-type-def type-id='type-id-1472' size-in-bits='64' id='type-id-1473'/>
    <qualified-type-def type-id='type-id-94' const='yes' id='type-id-1474'/>
    <pointer-type-def type-id='type-id-1474' size-in-bits='64' id='type-id-1475'/>
    <qualified-type-def type-id='type-id-41' const='yes' id='type-id-1476'/>
    <qualified-type-def type-id='type-id-25' const='yes' id='type-id-1477'/>
    <reference-type-def kind='lvalue' type-id='type-id-1477' size-in-bits='64' id='type-id-1478'/>
    <qualified-type-def type-id='type-id-50' const='yes' id='type-id-1479'/>
    <reference-type-def kind='lvalue' type-id='type-id-1479' size-in-bits='64' id='type-id-1480'/>
    <pointer-type-def type-id='type-id-1479' size-in-bits='64' id='type-id-1481'/>
    <qualified-type-def type-id='type-id-55' const='yes' id='type-id-1482'/>
    <qualified-type-def type-id='type-id-1483' const='yes' id='type-id-1484'/>
    <pointer-type-def type-id='type-id-1484' size-in-bits='64' id='type-id-1485'/>
    <qualified-type-def type-id='type-id-57' const='yes' id='type-id-1486'/>
    <pointer-type-def type-id='type-id-1486' size-in-bits='64' id='type-id-1487'/>
    <pointer-type-def type-id='type-id-1487' size-in-bits='64' id='type-id-1488'/>
    <reference-type-def kind='lvalue' type-id='type-id-27' size-in-bits='64' id='type-id-1489'/>
    <pointer-type-def type-id='type-id-27' size-in-bits='64' id='type-id-1490'/>
    <pointer-type-def type-id='type-id-81' size-in-bits='64' id='type-id-1491'/>
    <pointer-type-def type-id='type-id-1492' size-in-bits='64' id='type-id-88'/>
    <reference-type-def kind='lvalue' type-id='type-id-29' size-in-bits='64' id='type-id-1493'/>
    <pointer-type-def type-id='type-id-29' size-in-bits='64' id='type-id-1494'/>
    <pointer-type-def type-id='type-id-72' size-in-bits='64' id='type-id-1495'/>
    <pointer-type-def type-id='type-id-23' size-in-bits='64' id='type-id-1496'/>
    <reference-type-def kind='lvalue' type-id='type-id-33' size-in-bits='64' id='type-id-1497'/>
    <pointer-type-def type-id='type-id-34' size-in-bits='64' id='type-id-1498'/>
    <pointer-type-def type-id='type-id-98' size-in-bits='64' id='type-id-1499'/>
    <pointer-type-def type-id='type-id-377' size-in-bits='64' id='type-id-1500'/>
    <pointer-type-def type-id='type-id-380' size-in-bits='64' id='type-id-1501'/>
    <pointer-type-def type-id='type-id-1502' size-in-bits='64' id='type-id-1503'/>
    <pointer-type-def type-id='type-id-383' size-in-bits='64' id='type-id-1504'/>
    <pointer-type-def type-id='type-id-386' size-in-bits='64' id='type-id-1505'/>
    <pointer-type-def type-id='type-id-389' size-in-bits='64' id='type-id-1506'/>
    <pointer-type-def type-id='type-id-392' size-in-bits='64' id='type-id-1507'/>
    <reference-type-def kind='lvalue' type-id='type-id-395' size-in-bits='64' id='type-id-1508'/>
    <pointer-type-def type-id='type-id-395' size-in-bits='64' id='type-id-1509'/>
    <reference-type-def kind='lvalue' type-id='type-id-1510' size-in-bits='64' id='type-id-1511'/>
    <reference-type-def kind='lvalue' type-id='type-id-1512' size-in-bits='64' id='type-id-1513'/>
    <reference-type-def kind='lvalue' type-id='type-id-399' size-in-bits='64' id='type-id-1514'/>
    <reference-type-def kind='rvalue' type-id='type-id-399' size-in-bits='64' id='type-id-1515'/>
    <pointer-type-def type-id='type-id-399' size-in-bits='64' id='type-id-1516'/>
    <reference-type-def kind='lvalue' type-id='type-id-406' size-in-bits='64' id='type-id-1517'/>
    <pointer-type-def type-id='type-id-406' size-in-bits='64' id='type-id-1518'/>
    <qualified-type-def type-id='type-id-1518' const='yes' id='type-id-1519'/>
    <reference-type-def kind='lvalue' type-id='type-id-1519' size-in-bits='64' id='type-id-1520'/>
    <reference-type-def kind='lvalue' type-id='type-id-1518' size-in-bits='64' id='type-id-1521'/>
    <reference-type-def kind='lvalue' type-id='type-id-410' size-in-bits='64' id='type-id-1522'/>
    <pointer-type-def type-id='type-id-410' size-in-bits='64' id='type-id-1523'/>
    <reference-type-def kind='lvalue' type-id='type-id-414' size-in-bits='64' id='type-id-1524'/>
    <pointer-type-def type-id='type-id-414' size-in-bits='64' id='type-id-1525'/>
    <pointer-type-def type-id='type-id-417' size-in-bits='64' id='type-id-1526'/>
    <pointer-type-def type-id='type-id-420' size-in-bits='64' id='type-id-1527'/>
    <pointer-type-def type-id='type-id-424' size-in-bits='64' id='type-id-1528'/>
    <reference-type-def kind='lvalue' type-id='type-id-1529' size-in-bits='64' id='type-id-1530'/>
    <reference-type-def kind='lvalue' type-id='type-id-427' size-in-bits='64' id='type-id-1531'/>
    <pointer-type-def type-id='type-id-427' size-in-bits='64' id='type-id-1532'/>
    <pointer-type-def type-id='type-id-431' size-in-bits='64' id='type-id-1533'/>
    <pointer-type-def type-id='type-id-435' size-in-bits='64' id='type-id-1534'/>
    <reference-type-def kind='lvalue' type-id='type-id-438' size-in-bits='64' id='type-id-1535'/>
    <pointer-type-def type-id='type-id-438' size-in-bits='64' id='type-id-1536'/>
    <reference-type-def kind='lvalue' type-id='type-id-444' size-in-bits='64' id='type-id-1537'/>
    <pointer-type-def type-id='type-id-444' size-in-bits='64' id='type-id-1538'/>
    <reference-type-def kind='lvalue' type-id='type-id-447' size-in-bits='64' id='type-id-1539'/>
    <pointer-type-def type-id='type-id-447' size-in-bits='64' id='type-id-1540'/>
    <pointer-type-def type-id='type-id-453' size-in-bits='64' id='type-id-1541'/>
    <pointer-type-def type-id='type-id-1542' size-in-bits='64' id='type-id-1543'/>
    <pointer-type-def type-id='type-id-457' size-in-bits='64' id='type-id-1544'/>
    <pointer-type-def type-id='type-id-460' size-in-bits='64' id='type-id-1545'/>
    <pointer-type-def type-id='type-id-463' size-in-bits='64' id='type-id-1546'/>
    <reference-type-def kind='lvalue' type-id='type-id-466' size-in-bits='64' id='type-id-1547'/>
    <pointer-type-def type-id='type-id-466' size-in-bits='64' id='type-id-1548'/>
    <reference-type-def kind='rvalue' type-id='type-id-1548' size-in-bits='64' id='type-id-1549'/>
    <pointer-type-def type-id='type-id-1550' size-in-bits='64' id='type-id-1551'/>
    <pointer-type-def type-id='type-id-476' size-in-bits='64' id='type-id-1552'/>
    <pointer-type-def type-id='type-id-479' size-in-bits='64' id='type-id-1553'/>
    <pointer-type-def type-id='type-id-483' size-in-bits='64' id='type-id-1554'/>
    <pointer-type-def type-id='type-id-1555' size-in-bits='64' id='type-id-1556'/>
    <reference-type-def kind='lvalue' type-id='type-id-496' size-in-bits='64' id='type-id-1557'/>
    <pointer-type-def type-id='type-id-496' size-in-bits='64' id='type-id-1558'/>
    <pointer-type-def type-id='type-id-1559' size-in-bits='64' id='type-id-1560'/>
    <pointer-type-def type-id='type-id-500' size-in-bits='64' id='type-id-1561'/>
    <pointer-type-def type-id='type-id-1562' size-in-bits='64' id='type-id-1563'/>
    <reference-type-def kind='lvalue' type-id='type-id-1564' size-in-bits='64' id='type-id-1565'/>
    <pointer-type-def type-id='type-id-1566' size-in-bits='64' id='type-id-1567'/>
    <pointer-type-def type-id='type-id-504' size-in-bits='64' id='type-id-1568'/>
    <reference-type-def kind='lvalue' type-id='type-id-510' size-in-bits='64' id='type-id-1569'/>
    <reference-type-def kind='rvalue' type-id='type-id-510' size-in-bits='64' id='type-id-1570'/>
    <pointer-type-def type-id='type-id-510' size-in-bits='64' id='type-id-1571'/>
    <reference-type-def kind='lvalue' type-id='type-id-514' size-in-bits='64' id='type-id-1572'/>
    <pointer-type-def type-id='type-id-514' size-in-bits='64' id='type-id-1573'/>
    <reference-type-def kind='lvalue' type-id='type-id-517' size-in-bits='64' id='type-id-1574'/>
    <reference-type-def kind='rvalue' type-id='type-id-517' size-in-bits='64' id='type-id-1575'/>
    <pointer-type-def type-id='type-id-517' size-in-bits='64' id='type-id-1576'/>
    <pointer-type-def type-id='type-id-1577' size-in-bits='64' id='type-id-1578'/>
    <reference-type-def kind='lvalue' type-id='type-id-1579' size-in-bits='64' id='type-id-1580'/>
    <reference-type-def kind='lvalue' type-id='type-id-521' size-in-bits='64' id='type-id-1581'/>
    <pointer-type-def type-id='type-id-521' size-in-bits='64' id='type-id-1582'/>
    <pointer-type-def type-id='type-id-525' size-in-bits='64' id='type-id-1583'/>
    <pointer-type-def type-id='type-id-529' size-in-bits='64' id='type-id-1584'/>
    <pointer-type-def type-id='type-id-1585' size-in-bits='64' id='type-id-1586'/>
    <reference-type-def kind='lvalue' type-id='type-id-536' size-in-bits='64' id='type-id-1587'/>
    <pointer-type-def type-id='type-id-536' size-in-bits='64' id='type-id-1588'/>
    <pointer-type-def type-id='type-id-1589' size-in-bits='64' id='type-id-1590'/>
    <qualified-type-def type-id='type-id-1590' const='yes' id='type-id-1591'/>
    <reference-type-def kind='lvalue' type-id='type-id-1591' size-in-bits='64' id='type-id-1592'/>
    <pointer-type-def type-id='type-id-1591' size-in-bits='64' id='type-id-1593'/>
    <reference-type-def kind='lvalue' type-id='type-id-1590' size-in-bits='64' id='type-id-1594'/>
    <pointer-type-def type-id='type-id-1590' size-in-bits='64' id='type-id-1595'/>
    <reference-type-def kind='lvalue' type-id='type-id-540' size-in-bits='64' id='type-id-1596'/>
    <pointer-type-def type-id='type-id-540' size-in-bits='64' id='type-id-1597'/>
    <pointer-type-def type-id='type-id-544' size-in-bits='64' id='type-id-1598'/>
    <pointer-type-def type-id='type-id-548' size-in-bits='64' id='type-id-1599'/>
    <reference-type-def kind='lvalue' type-id='type-id-551' size-in-bits='64' id='type-id-1600'/>
    <pointer-type-def type-id='type-id-551' size-in-bits='64' id='type-id-1601'/>
    <reference-type-def kind='lvalue' type-id='type-id-555' size-in-bits='64' id='type-id-1602'/>
    <pointer-type-def type-id='type-id-555' size-in-bits='64' id='type-id-1603'/>
    <qualified-type-def type-id='type-id-1603' const='yes' id='type-id-1604'/>
    <reference-type-def kind='lvalue' type-id='type-id-1604' size-in-bits='64' id='type-id-1605'/>
    <reference-type-def kind='lvalue' type-id='type-id-562' size-in-bits='64' id='type-id-1606'/>
    <pointer-type-def type-id='type-id-562' size-in-bits='64' id='type-id-1607'/>
    <pointer-type-def type-id='type-id-565' size-in-bits='64' id='type-id-1608'/>
    <reference-type-def kind='lvalue' type-id='type-id-1609' size-in-bits='64' id='type-id-1610'/>
    <reference-type-def kind='rvalue' type-id='type-id-1609' size-in-bits='64' id='type-id-1611'/>
    <pointer-type-def type-id='type-id-1609' size-in-bits='64' id='type-id-1612'/>
    <pointer-type-def type-id='type-id-568' size-in-bits='64' id='type-id-1613'/>
    <pointer-type-def type-id='type-id-1614' size-in-bits='64' id='type-id-1615'/>
    <pointer-type-def type-id='type-id-1616' size-in-bits='64' id='type-id-1617'/>
    <reference-type-def kind='lvalue' type-id='type-id-1618' size-in-bits='64' id='type-id-1619'/>
    <pointer-type-def type-id='type-id-1618' size-in-bits='64' id='type-id-1620'/>
    <qualified-type-def type-id='type-id-1620' const='yes' id='type-id-1621'/>
    <reference-type-def kind='lvalue' type-id='type-id-1621' size-in-bits='64' id='type-id-1622'/>
    <pointer-type-def type-id='type-id-1621' size-in-bits='64' id='type-id-1623'/>
    <reference-type-def kind='lvalue' type-id='type-id-1620' size-in-bits='64' id='type-id-1624'/>
    <pointer-type-def type-id='type-id-1620' size-in-bits='64' id='type-id-1625'/>
    <pointer-type-def type-id='type-id-571' size-in-bits='64' id='type-id-1626'/>
    <pointer-type-def type-id='type-id-1627' size-in-bits='64' id='type-id-1628'/>
    <qualified-type-def type-id='type-id-1628' const='yes' id='type-id-1629'/>
    <reference-type-def kind='lvalue' type-id='type-id-1629' size-in-bits='64' id='type-id-1630'/>
    <pointer-type-def type-id='type-id-1629' size-in-bits='64' id='type-id-1631'/>
    <reference-type-def kind='lvalue' type-id='type-id-1628' size-in-bits='64' id='type-id-1632'/>
    <pointer-type-def type-id='type-id-1628' size-in-bits='64' id='type-id-1633'/>
    <reference-type-def kind='lvalue' type-id='type-id-578' size-in-bits='64' id='type-id-1634'/>
    <pointer-type-def type-id='type-id-578' size-in-bits='64' id='type-id-1635'/>
    <reference-type-def kind='lvalue' type-id='type-id-582' size-in-bits='64' id='type-id-1636'/>
    <pointer-type-def type-id='type-id-582' size-in-bits='64' id='type-id-1637'/>
    <pointer-type-def type-id='type-id-1638' size-in-bits='64' id='type-id-1639'/>
    <pointer-type-def type-id='type-id-1640' size-in-bits='64' id='type-id-1641'/>
    <pointer-type-def type-id='type-id-586' size-in-bits='64' id='type-id-1642'/>
    <reference-type-def kind='lvalue' type-id='type-id-590' size-in-bits='64' id='type-id-1643'/>
    <pointer-type-def type-id='type-id-590' size-in-bits='64' id='type-id-1644'/>
    <reference-type-def kind='lvalue' type-id='type-id-71' size-in-bits='64' id='type-id-1645'/>
    <pointer-type-def type-id='type-id-71' size-in-bits='64' id='type-id-1646'/>
    <reference-type-def kind='lvalue' type-id='type-id-656' size-in-bits='64' id='type-id-1647'/>
    <pointer-type-def type-id='type-id-656' size-in-bits='64' id='type-id-1648'/>
    <qualified-type-def type-id='type-id-1648' const='yes' id='type-id-1649'/>
    <pointer-type-def type-id='type-id-661' size-in-bits='64' id='type-id-1650'/>
    <reference-type-def kind='lvalue' type-id='type-id-1651' size-in-bits='64' id='type-id-1652'/>
    <pointer-type-def type-id='type-id-664' size-in-bits='64' id='type-id-1653'/>
    <reference-type-def kind='lvalue' type-id='type-id-1654' size-in-bits='64' id='type-id-1655'/>
    <pointer-type-def type-id='type-id-668' size-in-bits='64' id='type-id-1656'/>
    <reference-type-def kind='lvalue' type-id='type-id-672' size-in-bits='64' id='type-id-1657'/>
    <pointer-type-def type-id='type-id-672' size-in-bits='64' id='type-id-1658'/>
    <pointer-type-def type-id='type-id-1659' size-in-bits='64' id='type-id-1660'/>
    <reference-type-def kind='rvalue' type-id='type-id-676' size-in-bits='64' id='type-id-1661'/>
    <pointer-type-def type-id='type-id-676' size-in-bits='64' id='type-id-1662'/>
    <reference-type-def kind='lvalue' type-id='type-id-679' size-in-bits='64' id='type-id-1663'/>
    <reference-type-def kind='rvalue' type-id='type-id-679' size-in-bits='64' id='type-id-1664'/>
    <pointer-type-def type-id='type-id-1665' size-in-bits='64' id='type-id-1666'/>
    <pointer-type-def type-id='type-id-685' size-in-bits='64' id='type-id-1667'/>
    <reference-type-def kind='lvalue' type-id='type-id-688' size-in-bits='64' id='type-id-1668'/>
    <reference-type-def kind='rvalue' type-id='type-id-688' size-in-bits='64' id='type-id-1669'/>
    <pointer-type-def type-id='type-id-688' size-in-bits='64' id='type-id-1670'/>
    <pointer-type-def type-id='type-id-1671' size-in-bits='64' id='type-id-1672'/>
    <reference-type-def kind='lvalue' type-id='type-id-1673' size-in-bits='64' id='type-id-1674'/>
    <pointer-type-def type-id='type-id-1675' size-in-bits='64' id='type-id-1676'/>
    <pointer-type-def type-id='type-id-1677' size-in-bits='64' id='type-id-1678'/>
    <reference-type-def kind='lvalue' type-id='type-id-704' size-in-bits='64' id='type-id-1679'/>
    <reference-type-def kind='rvalue' type-id='type-id-704' size-in-bits='64' id='type-id-1680'/>
    <pointer-type-def type-id='type-id-704' size-in-bits='64' id='type-id-1681'/>
    <reference-type-def kind='lvalue' type-id='type-id-707' size-in-bits='64' id='type-id-1682'/>
    <reference-type-def kind='rvalue' type-id='type-id-707' size-in-bits='64' id='type-id-1683'/>
    <pointer-type-def type-id='type-id-707' size-in-bits='64' id='type-id-1684'/>
    <reference-type-def kind='lvalue' type-id='type-id-710' size-in-bits='64' id='type-id-1685'/>
    <reference-type-def kind='rvalue' type-id='type-id-710' size-in-bits='64' id='type-id-1686'/>
    <pointer-type-def type-id='type-id-710' size-in-bits='64' id='type-id-1687'/>
    <reference-type-def kind='lvalue' type-id='type-id-713' size-in-bits='64' id='type-id-1688'/>
    <reference-type-def kind='rvalue' type-id='type-id-713' size-in-bits='64' id='type-id-1689'/>
    <pointer-type-def type-id='type-id-713' size-in-bits='64' id='type-id-1690'/>
    <reference-type-def kind='lvalue' type-id='type-id-716' size-in-bits='64' id='type-id-1691'/>
    <reference-type-def kind='rvalue' type-id='type-id-716' size-in-bits='64' id='type-id-1692'/>
    <pointer-type-def type-id='type-id-716' size-in-bits='64' id='type-id-1693'/>
    <reference-type-def kind='lvalue' type-id='type-id-719' size-in-bits='64' id='type-id-1694'/>
    <reference-type-def kind='rvalue' type-id='type-id-719' size-in-bits='64' id='type-id-1695'/>
    <pointer-type-def type-id='type-id-719' size-in-bits='64' id='type-id-1696'/>
    <reference-type-def kind='rvalue' type-id='type-id-722' size-in-bits='64' id='type-id-1697'/>
    <pointer-type-def type-id='type-id-722' size-in-bits='64' id='type-id-1698'/>
    <pointer-type-def type-id='type-id-1699' size-in-bits='64' id='type-id-1700'/>
    <reference-type-def kind='lvalue' type-id='type-id-725' size-in-bits='64' id='type-id-1701'/>
    <reference-type-def kind='rvalue' type-id='type-id-725' size-in-bits='64' id='type-id-1702'/>
    <reference-type-def kind='rvalue' type-id='type-id-728' size-in-bits='64' id='type-id-1703'/>
    <pointer-type-def type-id='type-id-728' size-in-bits='64' id='type-id-1704'/>
    <pointer-type-def type-id='type-id-1705' size-in-bits='64' id='type-id-1706'/>
    <reference-type-def kind='lvalue' type-id='type-id-731' size-in-bits='64' id='type-id-1707'/>
    <reference-type-def kind='rvalue' type-id='type-id-731' size-in-bits='64' id='type-id-1708'/>
    <reference-type-def kind='lvalue' type-id='type-id-734' size-in-bits='64' id='type-id-1709'/>
    <pointer-type-def type-id='type-id-734' size-in-bits='64' id='type-id-1710'/>
    <reference-type-def kind='lvalue' type-id='type-id-738' size-in-bits='64' id='type-id-1711'/>
    <pointer-type-def type-id='type-id-738' size-in-bits='64' id='type-id-1712'/>
    <reference-type-def kind='lvalue' type-id='type-id-742' size-in-bits='64' id='type-id-1713'/>
    <reference-type-def kind='rvalue' type-id='type-id-742' size-in-bits='64' id='type-id-1714'/>
    <pointer-type-def type-id='type-id-742' size-in-bits='64' id='type-id-1715'/>
    <reference-type-def kind='lvalue' type-id='type-id-1716' size-in-bits='64' id='type-id-1717'/>
    <reference-type-def kind='lvalue' type-id='type-id-746' size-in-bits='64' id='type-id-1718'/>
    <reference-type-def kind='rvalue' type-id='type-id-746' size-in-bits='64' id='type-id-1719'/>
    <pointer-type-def type-id='type-id-1720' size-in-bits='64' id='type-id-1721'/>
    <reference-type-def kind='lvalue' type-id='type-id-758' size-in-bits='64' id='type-id-1722'/>
    <reference-type-def kind='rvalue' type-id='type-id-758' size-in-bits='64' id='type-id-1723'/>
    <pointer-type-def type-id='type-id-758' size-in-bits='64' id='type-id-1724'/>
    <reference-type-def kind='lvalue' type-id='type-id-1725' size-in-bits='64' id='type-id-1726'/>
    <reference-type-def kind='lvalue' type-id='type-id-762' size-in-bits='64' id='type-id-1727'/>
    <reference-type-def kind='rvalue' type-id='type-id-762' size-in-bits='64' id='type-id-1728'/>
    <pointer-type-def type-id='type-id-1729' size-in-bits='64' id='type-id-1730'/>
    <reference-type-def kind='lvalue' type-id='type-id-774' size-in-bits='64' id='type-id-1731'/>
    <reference-type-def kind='rvalue' type-id='type-id-774' size-in-bits='64' id='type-id-1732'/>
    <pointer-type-def type-id='type-id-774' size-in-bits='64' id='type-id-1733'/>
    <reference-type-def kind='lvalue' type-id='type-id-1734' size-in-bits='64' id='type-id-1735'/>
    <reference-type-def kind='lvalue' type-id='type-id-778' size-in-bits='64' id='type-id-1736'/>
    <reference-type-def kind='rvalue' type-id='type-id-778' size-in-bits='64' id='type-id-1737'/>
    <pointer-type-def type-id='type-id-1738' size-in-bits='64' id='type-id-1739'/>
    <reference-type-def kind='lvalue' type-id='type-id-790' size-in-bits='64' id='type-id-1740'/>
    <reference-type-def kind='rvalue' type-id='type-id-790' size-in-bits='64' id='type-id-1741'/>
    <pointer-type-def type-id='type-id-790' size-in-bits='64' id='type-id-1742'/>
    <reference-type-def kind='lvalue' type-id='type-id-1743' size-in-bits='64' id='type-id-1744'/>
    <reference-type-def kind='lvalue' type-id='type-id-794' size-in-bits='64' id='type-id-1745'/>
    <reference-type-def kind='rvalue' type-id='type-id-794' size-in-bits='64' id='type-id-1746'/>
    <pointer-type-def type-id='type-id-1747' size-in-bits='64' id='type-id-1748'/>
    <pointer-type-def type-id='type-id-806' size-in-bits='64' id='type-id-1749'/>
    <reference-type-def kind='lvalue' type-id='type-id-809' size-in-bits='64' id='type-id-1750'/>
    <pointer-type-def type-id='type-id-815' size-in-bits='64' id='type-id-1751'/>
    <reference-type-def kind='lvalue' type-id='type-id-818' size-in-bits='64' id='type-id-1752'/>
    <reference-type-def kind='lvalue' type-id='type-id-821' size-in-bits='64' id='type-id-1753'/>
    <pointer-type-def type-id='type-id-821' size-in-bits='64' id='type-id-1754'/>
    <reference-type-def kind='lvalue' type-id='type-id-825' size-in-bits='64' id='type-id-1755'/>
    <pointer-type-def type-id='type-id-825' size-in-bits='64' id='type-id-1756'/>
    <reference-type-def kind='lvalue' type-id='type-id-829' size-in-bits='64' id='type-id-1757'/>
    <pointer-type-def type-id='type-id-829' size-in-bits='64' id='type-id-1758'/>
    <reference-type-def kind='lvalue' type-id='type-id-833' size-in-bits='64' id='type-id-1759'/>
    <pointer-type-def type-id='type-id-833' size-in-bits='64' id='type-id-1760'/>
    <pointer-type-def type-id='type-id-837' size-in-bits='64' id='type-id-1761'/>
    <qualified-type-def type-id='type-id-1761' const='yes' id='type-id-1762'/>
    <reference-type-def kind='lvalue' type-id='type-id-1762' size-in-bits='64' id='type-id-1763'/>
    <reference-type-def kind='lvalue' type-id='type-id-840' size-in-bits='64' id='type-id-1764'/>
    <pointer-type-def type-id='type-id-840' size-in-bits='64' id='type-id-1765'/>
    <reference-type-def kind='lvalue' type-id='type-id-844' size-in-bits='64' id='type-id-1766'/>
    <reference-type-def kind='rvalue' type-id='type-id-844' size-in-bits='64' id='type-id-1767'/>
    <pointer-type-def type-id='type-id-844' size-in-bits='64' id='type-id-1768'/>
    <reference-type-def kind='lvalue' type-id='type-id-847' size-in-bits='64' id='type-id-1769'/>
    <reference-type-def kind='lvalue' type-id='type-id-850' size-in-bits='64' id='type-id-1770'/>
    <reference-type-def kind='rvalue' type-id='type-id-850' size-in-bits='64' id='type-id-1771'/>
    <pointer-type-def type-id='type-id-850' size-in-bits='64' id='type-id-1772'/>
    <reference-type-def kind='lvalue' type-id='type-id-853' size-in-bits='64' id='type-id-1773'/>
    <reference-type-def kind='lvalue' type-id='type-id-856' size-in-bits='64' id='type-id-1774'/>
    <reference-type-def kind='rvalue' type-id='type-id-856' size-in-bits='64' id='type-id-1775'/>
    <pointer-type-def type-id='type-id-856' size-in-bits='64' id='type-id-1776'/>
    <reference-type-def kind='lvalue' type-id='type-id-859' size-in-bits='64' id='type-id-1777'/>
    <reference-type-def kind='lvalue' type-id='type-id-862' size-in-bits='64' id='type-id-1778'/>
    <reference-type-def kind='rvalue' type-id='type-id-862' size-in-bits='64' id='type-id-1779'/>
    <pointer-type-def type-id='type-id-862' size-in-bits='64' id='type-id-1780'/>
    <reference-type-def kind='lvalue' type-id='type-id-865' size-in-bits='64' id='type-id-1781'/>
    <reference-type-def kind='lvalue' type-id='type-id-868' size-in-bits='64' id='type-id-1782'/>
    <reference-type-def kind='rvalue' type-id='type-id-868' size-in-bits='64' id='type-id-1783'/>
    <pointer-type-def type-id='type-id-868' size-in-bits='64' id='type-id-1784'/>
    <reference-type-def kind='lvalue' type-id='type-id-871' size-in-bits='64' id='type-id-1785'/>
    <reference-type-def kind='lvalue' type-id='type-id-874' size-in-bits='64' id='type-id-1786'/>
    <reference-type-def kind='rvalue' type-id='type-id-874' size-in-bits='64' id='type-id-1787'/>
    <pointer-type-def type-id='type-id-874' size-in-bits='64' id='type-id-1788'/>
    <reference-type-def kind='lvalue' type-id='type-id-877' size-in-bits='64' id='type-id-1789'/>
    <reference-type-def kind='lvalue' type-id='type-id-1790' size-in-bits='64' id='type-id-1791'/>
    <pointer-type-def type-id='type-id-1790' size-in-bits='64' id='type-id-1792'/>
    <pointer-type-def type-id='type-id-1793' size-in-bits='64' id='type-id-1794'/>
    <reference-type-def kind='rvalue' type-id='type-id-880' size-in-bits='64' id='type-id-1795'/>
    <pointer-type-def type-id='type-id-880' size-in-bits='64' id='type-id-1796'/>
    <reference-type-def kind='lvalue' type-id='type-id-883' size-in-bits='64' id='type-id-1797'/>
    <reference-type-def kind='rvalue' type-id='type-id-883' size-in-bits='64' id='type-id-1798'/>
    <reference-type-def kind='lvalue' type-id='type-id-1799' size-in-bits='64' id='type-id-1800'/>
    <pointer-type-def type-id='type-id-1799' size-in-bits='64' id='type-id-1801'/>
    <reference-type-def kind='rvalue' type-id='type-id-889' size-in-bits='64' id='type-id-1802'/>
    <pointer-type-def type-id='type-id-889' size-in-bits='64' id='type-id-1803'/>
    <reference-type-def kind='lvalue' type-id='type-id-892' size-in-bits='64' id='type-id-1804'/>
    <reference-type-def kind='rvalue' type-id='type-id-892' size-in-bits='64' id='type-id-1805'/>
    <reference-type-def kind='lvalue' type-id='type-id-1806' size-in-bits='64' id='type-id-1807'/>
    <pointer-type-def type-id='type-id-1806' size-in-bits='64' id='type-id-1808'/>
    <reference-type-def kind='rvalue' type-id='type-id-898' size-in-bits='64' id='type-id-1809'/>
    <pointer-type-def type-id='type-id-898' size-in-bits='64' id='type-id-1810'/>
    <reference-type-def kind='lvalue' type-id='type-id-901' size-in-bits='64' id='type-id-1811'/>
    <reference-type-def kind='rvalue' type-id='type-id-901' size-in-bits='64' id='type-id-1812'/>
    <reference-type-def kind='lvalue' type-id='type-id-1813' size-in-bits='64' id='type-id-1814'/>
    <pointer-type-def type-id='type-id-1813' size-in-bits='64' id='type-id-1815'/>
    <reference-type-def kind='rvalue' type-id='type-id-907' size-in-bits='64' id='type-id-1816'/>
    <pointer-type-def type-id='type-id-907' size-in-bits='64' id='type-id-1817'/>
    <reference-type-def kind='lvalue' type-id='type-id-910' size-in-bits='64' id='type-id-1818'/>
    <reference-type-def kind='rvalue' type-id='type-id-910' size-in-bits='64' id='type-id-1819'/>
    <reference-type-def kind='lvalue' type-id='type-id-1820' size-in-bits='64' id='type-id-1821'/>
    <pointer-type-def type-id='type-id-1820' size-in-bits='64' id='type-id-1822'/>
    <reference-type-def kind='rvalue' type-id='type-id-916' size-in-bits='64' id='type-id-1823'/>
    <pointer-type-def type-id='type-id-916' size-in-bits='64' id='type-id-1824'/>
    <reference-type-def kind='lvalue' type-id='type-id-919' size-in-bits='64' id='type-id-1825'/>
    <reference-type-def kind='rvalue' type-id='type-id-919' size-in-bits='64' id='type-id-1826'/>
    <reference-type-def kind='lvalue' type-id='type-id-1827' size-in-bits='64' id='type-id-1828'/>
    <pointer-type-def type-id='type-id-1827' size-in-bits='64' id='type-id-1829'/>
    <reference-type-def kind='rvalue' type-id='type-id-925' size-in-bits='64' id='type-id-1830'/>
    <pointer-type-def type-id='type-id-925' size-in-bits='64' id='type-id-1831'/>
    <reference-type-def kind='lvalue' type-id='type-id-928' size-in-bits='64' id='type-id-1832'/>
    <reference-type-def kind='rvalue' type-id='type-id-928' size-in-bits='64' id='type-id-1833'/>
    <reference-type-def kind='lvalue' type-id='type-id-1834' size-in-bits='64' id='type-id-1835'/>
    <pointer-type-def type-id='type-id-1834' size-in-bits='64' id='type-id-1836'/>
    <reference-type-def kind='rvalue' type-id='type-id-934' size-in-bits='64' id='type-id-1837'/>
    <pointer-type-def type-id='type-id-934' size-in-bits='64' id='type-id-1838'/>
    <reference-type-def kind='lvalue' type-id='type-id-937' size-in-bits='64' id='type-id-1839'/>
    <reference-type-def kind='rvalue' type-id='type-id-937' size-in-bits='64' id='type-id-1840'/>
    <reference-type-def kind='lvalue' type-id='type-id-1841' size-in-bits='64' id='type-id-1842'/>
    <pointer-type-def type-id='type-id-1841' size-in-bits='64' id='type-id-1843'/>
    <reference-type-def kind='lvalue' type-id='type-id-943' size-in-bits='64' id='type-id-1844'/>
    <pointer-type-def type-id='type-id-943' size-in-bits='64' id='type-id-1845'/>
    <reference-type-def kind='lvalue' type-id='type-id-1846' size-in-bits='64' id='type-id-1847'/>
    <reference-type-def kind='lvalue' type-id='type-id-956' size-in-bits='64' id='type-id-1848'/>
    <pointer-type-def type-id='type-id-956' size-in-bits='64' id='type-id-1849'/>
    <pointer-type-def type-id='type-id-959' size-in-bits='64' id='type-id-1850'/>
    <reference-type-def kind='lvalue' type-id='type-id-962' size-in-bits='64' id='type-id-1851'/>
    <pointer-type-def type-id='type-id-962' size-in-bits='64' id='type-id-1852'/>
    <pointer-type-def type-id='type-id-1853' size-in-bits='64' id='type-id-1854'/>
    <pointer-type-def type-id='type-id-966' size-in-bits='64' id='type-id-1855'/>
    <reference-type-def kind='rvalue' type-id='type-id-969' size-in-bits='64' id='type-id-1856'/>
    <pointer-type-def type-id='type-id-969' size-in-bits='64' id='type-id-1857'/>
    <pointer-type-def type-id='type-id-1858' size-in-bits='64' id='type-id-1859'/>
    <reference-type-def kind='lvalue' type-id='type-id-973' size-in-bits='64' id='type-id-1860'/>
    <pointer-type-def type-id='type-id-1861' size-in-bits='64' id='type-id-1862'/>
    <pointer-type-def type-id='type-id-1863' size-in-bits='64' id='type-id-1864'/>
    <reference-type-def kind='lvalue' type-id='type-id-976' size-in-bits='64' id='type-id-1865'/>
    <pointer-type-def type-id='type-id-976' size-in-bits='64' id='type-id-1866'/>
    <pointer-type-def type-id='type-id-1867' size-in-bits='64' id='type-id-1868'/>
    <reference-type-def kind='lvalue' type-id='type-id-979' size-in-bits='64' id='type-id-1869'/>
    <pointer-type-def type-id='type-id-979' size-in-bits='64' id='type-id-1870'/>
    <reference-type-def kind='lvalue' type-id='type-id-982' size-in-bits='64' id='type-id-1871'/>
    <pointer-type-def type-id='type-id-982' size-in-bits='64' id='type-id-1872'/>
    <reference-type-def kind='lvalue' type-id='type-id-985' size-in-bits='64' id='type-id-1873'/>
    <pointer-type-def type-id='type-id-985' size-in-bits='64' id='type-id-1874'/>
    <reference-type-def kind='lvalue' type-id='type-id-988' size-in-bits='64' id='type-id-1875'/>
    <pointer-type-def type-id='type-id-988' size-in-bits='64' id='type-id-1876'/>
    <reference-type-def kind='lvalue' type-id='type-id-991' size-in-bits='64' id='type-id-1877'/>
    <pointer-type-def type-id='type-id-991' size-in-bits='64' id='type-id-1878'/>
    <pointer-type-def type-id='type-id-1879' size-in-bits='64' id='type-id-1880'/>
    <reference-type-def kind='lvalue' type-id='type-id-1881' size-in-bits='64' id='type-id-1882'/>
    <reference-type-def kind='lvalue' type-id='type-id-1883' size-in-bits='64' id='type-id-1884'/>
    <pointer-type-def type-id='type-id-1883' size-in-bits='64' id='type-id-1885'/>
    <pointer-type-def type-id='type-id-997' size-in-bits='64' id='type-id-1886'/>
    <reference-type-def kind='rvalue' type-id='type-id-1000' size-in-bits='64' id='type-id-1887'/>
    <reference-type-def kind='lvalue' type-id='type-id-1003' size-in-bits='64' id='type-id-1888'/>
    <reference-type-def kind='lvalue' type-id='type-id-1006' size-in-bits='64' id='type-id-1889'/>
    <pointer-type-def type-id='type-id-1010' size-in-bits='64' id='type-id-1890'/>
    <pointer-type-def type-id='type-id-1014' size-in-bits='64' id='type-id-1891'/>
    <reference-type-def kind='lvalue' type-id='type-id-1017' size-in-bits='64' id='type-id-1892'/>
    <reference-type-def kind='lvalue' type-id='type-id-1893' size-in-bits='64' id='type-id-1894'/>
    <reference-type-def kind='lvalue' type-id='type-id-1895' size-in-bits='64' id='type-id-1896'/>
    <reference-type-def kind='lvalue' type-id='type-id-1897' size-in-bits='64' id='type-id-1898'/>
    <reference-type-def kind='lvalue' type-id='type-id-1899' size-in-bits='64' id='type-id-1900'/>
    <reference-type-def kind='lvalue' type-id='type-id-1901' size-in-bits='64' id='type-id-1902'/>
    <reference-type-def kind='lvalue' type-id='type-id-1903' size-in-bits='64' id='type-id-1904'/>
    <reference-type-def kind='lvalue' type-id='type-id-1905' size-in-bits='64' id='type-id-1906'/>
    <reference-type-def kind='lvalue' type-id='type-id-1907' size-in-bits='64' id='type-id-1908'/>
    <reference-type-def kind='lvalue' type-id='type-id-1909' size-in-bits='64' id='type-id-1910'/>
    <reference-type-def kind='lvalue' type-id='type-id-1911' size-in-bits='64' id='type-id-1912'/>
    <reference-type-def kind='lvalue' type-id='type-id-1913' size-in-bits='64' id='type-id-1914'/>
    <reference-type-def kind='lvalue' type-id='type-id-1020' size-in-bits='64' id='type-id-1915'/>
    <pointer-type-def type-id='type-id-1020' size-in-bits='64' id='type-id-1916'/>
    <reference-type-def kind='lvalue' type-id='type-id-1024' size-in-bits='64' id='type-id-1917'/>
    <reference-type-def kind='rvalue' type-id='type-id-1024' size-in-bits='64' id='type-id-1918'/>
    <pointer-type-def type-id='type-id-1024' size-in-bits='64' id='type-id-1919'/>
    <pointer-type-def type-id='type-id-1920' size-in-bits='64' id='type-id-1921'/>
    <pointer-type-def type-id='type-id-1034' size-in-bits='64' id='type-id-1922'/>
    <reference-type-def kind='lvalue' type-id='type-id-1037' size-in-bits='64' id='type-id-1923'/>
    <pointer-type-def type-id='type-id-1037' size-in-bits='64' id='type-id-1924'/>
    <reference-type-def kind='lvalue' type-id='type-id-1040' size-in-bits='64' id='type-id-1925'/>
    <pointer-type-def type-id='type-id-1040' size-in-bits='64' id='type-id-1926'/>
    <pointer-type-def type-id='type-id-1043' size-in-bits='64' id='type-id-1927'/>
    <pointer-type-def type-id='type-id-1046' size-in-bits='64' id='type-id-1928'/>
    <reference-type-def kind='lvalue' type-id='type-id-1049' size-in-bits='64' id='type-id-1929'/>
    <pointer-type-def type-id='type-id-1049' size-in-bits='64' id='type-id-1930'/>
    <reference-type-def kind='lvalue' type-id='type-id-1052' size-in-bits='64' id='type-id-1931'/>
    <pointer-type-def type-id='type-id-1052' size-in-bits='64' id='type-id-1932'/>
    <reference-type-def kind='lvalue' type-id='type-id-1055' size-in-bits='64' id='type-id-1933'/>
    <pointer-type-def type-id='type-id-1055' size-in-bits='64' id='type-id-1934'/>
    <pointer-type-def type-id='type-id-1058' size-in-bits='64' id='type-id-1935'/>
    <pointer-type-def type-id='type-id-1061' size-in-bits='64' id='type-id-1936'/>
    <pointer-type-def type-id='type-id-1064' size-in-bits='64' id='type-id-1937'/>
    <pointer-type-def type-id='type-id-1067' size-in-bits='64' id='type-id-1938'/>
    <pointer-type-def type-id='type-id-1070' size-in-bits='64' id='type-id-1939'/>
    <pointer-type-def type-id='type-id-1073' size-in-bits='64' id='type-id-1940'/>
    <pointer-type-def type-id='type-id-1076' size-in-bits='64' id='type-id-1941'/>
    <reference-type-def kind='lvalue' type-id='type-id-1079' size-in-bits='64' id='type-id-1942'/>
    <pointer-type-def type-id='type-id-1079' size-in-bits='64' id='type-id-1943'/>
    <reference-type-def kind='lvalue' type-id='type-id-1082' size-in-bits='64' id='type-id-1944'/>
    <pointer-type-def type-id='type-id-1082' size-in-bits='64' id='type-id-1945'/>
    <reference-type-def kind='lvalue' type-id='type-id-1085' size-in-bits='64' id='type-id-1946'/>
    <pointer-type-def type-id='type-id-1085' size-in-bits='64' id='type-id-1947'/>
    <reference-type-def kind='lvalue' type-id='type-id-1088' size-in-bits='64' id='type-id-1948'/>
    <pointer-type-def type-id='type-id-1088' size-in-bits='64' id='type-id-1949'/>
    <pointer-type-def type-id='type-id-1091' size-in-bits='64' id='type-id-1950'/>
    <reference-type-def kind='lvalue' type-id='type-id-1094' size-in-bits='64' id='type-id-1951'/>
    <pointer-type-def type-id='type-id-1094' size-in-bits='64' id='type-id-1952'/>
    <reference-type-def kind='lvalue' type-id='type-id-1097' size-in-bits='64' id='type-id-1953'/>
    <pointer-type-def type-id='type-id-1097' size-in-bits='64' id='type-id-1954'/>
    <reference-type-def kind='lvalue' type-id='type-id-1100' size-in-bits='64' id='type-id-1955'/>
    <pointer-type-def type-id='type-id-1100' size-in-bits='64' id='type-id-1956'/>
    <pointer-type-def type-id='type-id-1957' size-in-bits='64' id='type-id-1958'/>
    <pointer-type-def type-id='type-id-1959' size-in-bits='64' id='type-id-1960'/>
    <pointer-type-def type-id='type-id-1961' size-in-bits='64' id='type-id-1962'/>
    <pointer-type-def type-id='type-id-1963' size-in-bits='64' id='type-id-1964'/>
    <pointer-type-def type-id='type-id-1965' size-in-bits='64' id='type-id-1966'/>
    <pointer-type-def type-id='type-id-1967' size-in-bits='64' id='type-id-1968'/>
    <pointer-type-def type-id='type-id-1969' size-in-bits='64' id='type-id-1970'/>
    <pointer-type-def type-id='type-id-1971' size-in-bits='64' id='type-id-1972'/>
    <pointer-type-def type-id='type-id-1973' size-in-bits='64' id='type-id-1974'/>
    <pointer-type-def type-id='type-id-1975' size-in-bits='64' id='type-id-1976'/>
    <pointer-type-def type-id='type-id-1977' size-in-bits='64' id='type-id-1978'/>
    <reference-type-def kind='lvalue' type-id='type-id-1103' size-in-bits='64' id='type-id-1979'/>
    <pointer-type-def type-id='type-id-1103' size-in-bits='64' id='type-id-1980'/>
    <reference-type-def kind='lvalue' type-id='type-id-1981' size-in-bits='64' id='type-id-1982'/>
    <pointer-type-def type-id='type-id-1981' size-in-bits='64' id='type-id-1983'/>
    <qualified-type-def type-id='type-id-1983' const='yes' id='type-id-1984'/>
    <reference-type-def kind='lvalue' type-id='type-id-1984' size-in-bits='64' id='type-id-1985'/>
    <reference-type-def kind='lvalue' type-id='type-id-1983' size-in-bits='64' id='type-id-1986'/>
    <reference-type-def kind='lvalue' type-id='type-id-37' size-in-bits='64' id='type-id-1987'/>
    <reference-type-def kind='rvalue' type-id='type-id-37' size-in-bits='64' id='type-id-1988'/>
    <pointer-type-def type-id='type-id-37' size-in-bits='64' id='type-id-1989'/>
    <qualified-type-def type-id='type-id-1989' const='yes' id='type-id-1990'/>
    <reference-type-def kind='lvalue' type-id='type-id-1990' size-in-bits='64' id='type-id-1991'/>
    <reference-type-def kind='lvalue' type-id='type-id-1989' size-in-bits='64' id='type-id-1992'/>
    <pointer-type-def type-id='type-id-1993' size-in-bits='64' id='type-id-1994'/>
    <reference-type-def kind='lvalue' type-id='type-id-1111' size-in-bits='64' id='type-id-1995'/>
    <pointer-type-def type-id='type-id-1111' size-in-bits='64' id='type-id-1996'/>
    <reference-type-def kind='lvalue' type-id='type-id-1119' size-in-bits='64' id='type-id-1997'/>
    <pointer-type-def type-id='type-id-1119' size-in-bits='64' id='type-id-1998'/>
    <reference-type-def kind='lvalue' type-id='type-id-1126' size-in-bits='64' id='type-id-1999'/>
    <pointer-type-def type-id='type-id-1126' size-in-bits='64' id='type-id-2000'/>
    <reference-type-def kind='lvalue' type-id='type-id-1133' size-in-bits='64' id='type-id-2001'/>
    <pointer-type-def type-id='type-id-1133' size-in-bits='64' id='type-id-2002'/>
    <reference-type-def kind='lvalue' type-id='type-id-1140' size-in-bits='64' id='type-id-2003'/>
    <pointer-type-def type-id='type-id-1140' size-in-bits='64' id='type-id-2004'/>
    <reference-type-def kind='lvalue' type-id='type-id-1146' size-in-bits='64' id='type-id-2005'/>
    <pointer-type-def type-id='type-id-1146' size-in-bits='64' id='type-id-2006'/>
    <reference-type-def kind='lvalue' type-id='type-id-1150' size-in-bits='64' id='type-id-2007'/>
    <pointer-type-def type-id='type-id-1150' size-in-bits='64' id='type-id-2008'/>
    <reference-type-def kind='lvalue' type-id='type-id-1154' size-in-bits='64' id='type-id-2009'/>
    <pointer-type-def type-id='type-id-2010' size-in-bits='64' id='type-id-2011'/>
    <reference-type-def kind='lvalue' type-id='type-id-1158' size-in-bits='64' id='type-id-2012'/>
    <reference-type-def kind='rvalue' type-id='type-id-1158' size-in-bits='64' id='type-id-2013'/>
    <pointer-type-def type-id='type-id-1158' size-in-bits='64' id='type-id-2014'/>
    <reference-type-def kind='lvalue' type-id='type-id-1162' size-in-bits='64' id='type-id-2015'/>
    <pointer-type-def type-id='type-id-1166' size-in-bits='64' id='type-id-2016'/>
    <pointer-type-def type-id='type-id-1169' size-in-bits='64' id='type-id-2017'/>
    <pointer-type-def type-id='type-id-1172' size-in-bits='64' id='type-id-2018'/>
    <pointer-type-def type-id='type-id-1175' size-in-bits='64' id='type-id-2019'/>
    <reference-type-def kind='lvalue' type-id='type-id-2020' size-in-bits='64' id='type-id-2021'/>
    <pointer-type-def type-id='type-id-2022' size-in-bits='64' id='type-id-2023'/>
    <pointer-type-def type-id='type-id-2024' size-in-bits='64' id='type-id-2025'/>
    <reference-type-def kind='lvalue' type-id='type-id-2026' size-in-bits='64' id='type-id-2027'/>
    <reference-type-def kind='lvalue' type-id='type-id-1214' size-in-bits='64' id='type-id-2028'/>
    <reference-type-def kind='rvalue' type-id='type-id-1214' size-in-bits='64' id='type-id-2029'/>
    <pointer-type-def type-id='type-id-1214' size-in-bits='64' id='type-id-2030'/>
    <reference-type-def kind='rvalue' type-id='type-id-1221' size-in-bits='64' id='type-id-2031'/>
    <reference-type-def kind='lvalue' type-id='type-id-1224' size-in-bits='64' id='type-id-2032'/>
    <reference-type-def kind='rvalue' type-id='type-id-1224' size-in-bits='64' id='type-id-2033'/>
    <pointer-type-def type-id='type-id-1224' size-in-bits='64' id='type-id-2034'/>
    <reference-type-def kind='rvalue' type-id='type-id-1231' size-in-bits='64' id='type-id-2035'/>
    <reference-type-def kind='lvalue' type-id='type-id-1234' size-in-bits='64' id='type-id-2036'/>
    <reference-type-def kind='rvalue' type-id='type-id-1234' size-in-bits='64' id='type-id-2037'/>
    <pointer-type-def type-id='type-id-1234' size-in-bits='64' id='type-id-2038'/>
    <reference-type-def kind='rvalue' type-id='type-id-1241' size-in-bits='64' id='type-id-2039'/>
    <reference-type-def kind='lvalue' type-id='type-id-1244' size-in-bits='64' id='type-id-2040'/>
    <reference-type-def kind='lvalue' type-id='type-id-1250' size-in-bits='64' id='type-id-2041'/>
    <reference-type-def kind='rvalue' type-id='type-id-1250' size-in-bits='64' id='type-id-2042'/>
    <pointer-type-def type-id='type-id-1250' size-in-bits='64' id='type-id-2043'/>
    <reference-type-def kind='rvalue' type-id='type-id-1257' size-in-bits='64' id='type-id-2044'/>
    <reference-type-def kind='lvalue' type-id='type-id-1260' size-in-bits='64' id='type-id-2045'/>
    <reference-type-def kind='lvalue' type-id='type-id-1266' size-in-bits='64' id='type-id-2046'/>
    <reference-type-def kind='rvalue' type-id='type-id-1266' size-in-bits='64' id='type-id-2047'/>
    <pointer-type-def type-id='type-id-1266' size-in-bits='64' id='type-id-2048'/>
    <reference-type-def kind='rvalue' type-id='type-id-1273' size-in-bits='64' id='type-id-2049'/>
    <reference-type-def kind='lvalue' type-id='type-id-1276' size-in-bits='64' id='type-id-2050'/>
    <pointer-type-def type-id='type-id-2051' size-in-bits='64' id='type-id-2052'/>
    <reference-type-def kind='lvalue' type-id='type-id-1284' size-in-bits='64' id='type-id-2053'/>
    <pointer-type-def type-id='type-id-1284' size-in-bits='64' id='type-id-2054'/>
    <reference-type-def kind='rvalue' type-id='type-id-2055' size-in-bits='64' id='type-id-2056'/>
    <reference-type-def kind='lvalue' type-id='type-id-2057' size-in-bits='64' id='type-id-2058'/>
    <pointer-type-def type-id='type-id-2059' size-in-bits='64' id='type-id-2060'/>
    <reference-type-def kind='lvalue' type-id='type-id-1288' size-in-bits='64' id='type-id-2061'/>
    <reference-type-def kind='rvalue' type-id='type-id-1288' size-in-bits='64' id='type-id-2062'/>
    <pointer-type-def type-id='type-id-1288' size-in-bits='64' id='type-id-2063'/>
    <reference-type-def kind='lvalue' type-id='type-id-1291' size-in-bits='64' id='type-id-2064'/>
    <pointer-type-def type-id='type-id-1291' size-in-bits='64' id='type-id-2065'/>
    <reference-type-def kind='lvalue' type-id='type-id-1295' size-in-bits='64' id='type-id-2066'/>
    <reference-type-def kind='rvalue' type-id='type-id-1295' size-in-bits='64' id='type-id-2067'/>
    <pointer-type-def type-id='type-id-1295' size-in-bits='64' id='type-id-2068'/>
    <reference-type-def kind='lvalue' type-id='type-id-1299' size-in-bits='64' id='type-id-2069'/>
    <reference-type-def kind='rvalue' type-id='type-id-1299' size-in-bits='64' id='type-id-2070'/>
    <pointer-type-def type-id='type-id-1299' size-in-bits='64' id='type-id-2071'/>
    <reference-type-def kind='lvalue' type-id='type-id-1303' size-in-bits='64' id='type-id-2072'/>
    <reference-type-def kind='rvalue' type-id='type-id-1303' size-in-bits='64' id='type-id-2073'/>
    <pointer-type-def type-id='type-id-1303' size-in-bits='64' id='type-id-2074'/>
    <reference-type-def kind='lvalue' type-id='type-id-1307' size-in-bits='64' id='type-id-2075'/>
    <reference-type-def kind='rvalue' type-id='type-id-1307' size-in-bits='64' id='type-id-2076'/>
    <pointer-type-def type-id='type-id-1307' size-in-bits='64' id='type-id-2077'/>
    <reference-type-def kind='lvalue' type-id='type-id-2078' size-in-bits='64' id='type-id-2079'/>
    <reference-type-def kind='lvalue' type-id='type-id-2080' size-in-bits='64' id='type-id-2081'/>
    <reference-type-def kind='rvalue' type-id='type-id-2082' size-in-bits='64' id='type-id-2083'/>
    <reference-type-def kind='rvalue' type-id='type-id-2084' size-in-bits='64' id='type-id-2085'/>
    <reference-type-def kind='lvalue' type-id='type-id-2086' size-in-bits='64' id='type-id-2087'/>
    <reference-type-def kind='lvalue' type-id='type-id-2088' size-in-bits='64' id='type-id-2089'/>
    <reference-type-def kind='rvalue' type-id='type-id-2088' size-in-bits='64' id='type-id-2090'/>
    <reference-type-def kind='rvalue' type-id='type-id-2091' size-in-bits='64' id='type-id-2092'/>
    <reference-type-def kind='rvalue' type-id='type-id-2093' size-in-bits='64' id='type-id-2094'/>
    <reference-type-def kind='rvalue' type-id='type-id-2095' size-in-bits='64' id='type-id-2096'/>
    <reference-type-def kind='rvalue' type-id='type-id-2097' size-in-bits='64' id='type-id-2098'/>
    <reference-type-def kind='lvalue' type-id='type-id-1310' size-in-bits='64' id='type-id-2099'/>
    <pointer-type-def type-id='type-id-1310' size-in-bits='64' id='type-id-2100'/>
    <reference-type-def kind='lvalue' type-id='type-id-1314' size-in-bits='64' id='type-id-2101'/>
    <pointer-type-def type-id='type-id-1314' size-in-bits='64' id='type-id-2102'/>
    <reference-type-def kind='lvalue' type-id='type-id-1318' size-in-bits='64' id='type-id-2103'/>
    <reference-type-def kind='rvalue' type-id='type-id-1318' size-in-bits='64' id='type-id-2104'/>
    <pointer-type-def type-id='type-id-1318' size-in-bits='64' id='type-id-2105'/>
    <reference-type-def kind='rvalue' type-id='type-id-1328' size-in-bits='64' id='type-id-2106'/>
    <reference-type-def kind='lvalue' type-id='type-id-1331' size-in-bits='64' id='type-id-2107'/>
    <reference-type-def kind='rvalue' type-id='type-id-1331' size-in-bits='64' id='type-id-2108'/>
    <pointer-type-def type-id='type-id-1331' size-in-bits='64' id='type-id-2109'/>
    <reference-type-def kind='lvalue' type-id='type-id-1337' size-in-bits='64' id='type-id-2110'/>
    <pointer-type-def type-id='type-id-1337' size-in-bits='64' id='type-id-2111'/>
    <reference-type-def kind='lvalue' type-id='type-id-2112' size-in-bits='64' id='type-id-2113'/>
    <reference-type-def kind='lvalue' type-id='type-id-1340' size-in-bits='64' id='type-id-2114'/>
    <reference-type-def kind='rvalue' type-id='type-id-1340' size-in-bits='64' id='type-id-2115'/>
    <pointer-type-def type-id='type-id-1340' size-in-bits='64' id='type-id-2116'/>
    <reference-type-def kind='lvalue' type-id='type-id-1343' size-in-bits='64' id='type-id-2117'/>
    <reference-type-def kind='rvalue' type-id='type-id-1343' size-in-bits='64' id='type-id-2118'/>
    <pointer-type-def type-id='type-id-1343' size-in-bits='64' id='type-id-2119'/>
    <reference-type-def kind='lvalue' type-id='type-id-1346' size-in-bits='64' id='type-id-2120'/>
    <reference-type-def kind='rvalue' type-id='type-id-1346' size-in-bits='64' id='type-id-2121'/>
    <pointer-type-def type-id='type-id-1346' size-in-bits='64' id='type-id-2122'/>
    <reference-type-def kind='lvalue' type-id='type-id-1354' size-in-bits='64' id='type-id-2123'/>
    <reference-type-def kind='rvalue' type-id='type-id-1354' size-in-bits='64' id='type-id-2124'/>
    <pointer-type-def type-id='type-id-1354' size-in-bits='64' id='type-id-2125'/>
    <reference-type-def kind='lvalue' type-id='type-id-1358' size-in-bits='64' id='type-id-2126'/>
    <reference-type-def kind='lvalue' type-id='type-id-1361' size-in-bits='64' id='type-id-2127'/>
    <reference-type-def kind='rvalue' type-id='type-id-1361' size-in-bits='64' id='type-id-2128'/>
    <pointer-type-def type-id='type-id-1361' size-in-bits='64' id='type-id-2129'/>
    <reference-type-def kind='lvalue' type-id='type-id-1365' size-in-bits='64' id='type-id-2130'/>
    <reference-type-def kind='lvalue' type-id='type-id-1368' size-in-bits='64' id='type-id-2131'/>
    <reference-type-def kind='rvalue' type-id='type-id-1368' size-in-bits='64' id='type-id-2132'/>
    <pointer-type-def type-id='type-id-1368' size-in-bits='64' id='type-id-2133'/>
    <reference-type-def kind='rvalue' type-id='type-id-1381' size-in-bits='64' id='type-id-2134'/>
    <reference-type-def kind='lvalue' type-id='type-id-1384' size-in-bits='64' id='type-id-2135'/>
    <reference-type-def kind='lvalue' type-id='type-id-1390' size-in-bits='64' id='type-id-2136'/>
    <reference-type-def kind='rvalue' type-id='type-id-1390' size-in-bits='64' id='type-id-2137'/>
    <pointer-type-def type-id='type-id-1390' size-in-bits='64' id='type-id-2138'/>
    <reference-type-def kind='lvalue' type-id='type-id-1397' size-in-bits='64' id='type-id-2139'/>
    <reference-type-def kind='rvalue' type-id='type-id-1397' size-in-bits='64' id='type-id-2140'/>
    <pointer-type-def type-id='type-id-1397' size-in-bits='64' id='type-id-2141'/>
    <reference-type-def kind='rvalue' type-id='type-id-1404' size-in-bits='64' id='type-id-2142'/>
    <reference-type-def kind='lvalue' type-id='type-id-1407' size-in-bits='64' id='type-id-2143'/>
    <reference-type-def kind='rvalue' type-id='type-id-1407' size-in-bits='64' id='type-id-2144'/>
    <pointer-type-def type-id='type-id-1407' size-in-bits='64' id='type-id-2145'/>
    <reference-type-def kind='rvalue' type-id='type-id-1414' size-in-bits='64' id='type-id-2146'/>
    <reference-type-def kind='lvalue' type-id='type-id-2147' size-in-bits='64' id='type-id-2148'/>
    <reference-type-def kind='lvalue' type-id='type-id-1417' size-in-bits='64' id='type-id-2149'/>
    <reference-type-def kind='rvalue' type-id='type-id-1417' size-in-bits='64' id='type-id-2150'/>
    <pointer-type-def type-id='type-id-1417' size-in-bits='64' id='type-id-2151'/>
    <reference-type-def kind='rvalue' type-id='type-id-1424' size-in-bits='64' id='type-id-2152'/>
    <reference-type-def kind='lvalue' type-id='type-id-1427' size-in-bits='64' id='type-id-2153'/>
    <reference-type-def kind='rvalue' type-id='type-id-1427' size-in-bits='64' id='type-id-2154'/>
    <pointer-type-def type-id='type-id-1427' size-in-bits='64' id='type-id-2155'/>
    <reference-type-def kind='rvalue' type-id='type-id-1434' size-in-bits='64' id='type-id-2156'/>
    <reference-type-def kind='lvalue' type-id='type-id-1437' size-in-bits='64' id='type-id-2157'/>
    <reference-type-def kind='rvalue' type-id='type-id-1437' size-in-bits='64' id='type-id-2158'/>
    <pointer-type-def type-id='type-id-1437' size-in-bits='64' id='type-id-2159'/>
    <reference-type-def kind='rvalue' type-id='type-id-1444' size-in-bits='64' id='type-id-2160'/>
    <pointer-type-def type-id='type-id-2161' size-in-bits='64' id='type-id-2162'/>
    <reference-type-def kind='lvalue' type-id='type-id-1447' size-in-bits='64' id='type-id-2163'/>
    <reference-type-def kind='rvalue' type-id='type-id-1447' size-in-bits='64' id='type-id-2164'/>
    <pointer-type-def type-id='type-id-1447' size-in-bits='64' id='type-id-2165'/>
    <reference-type-def kind='rvalue' type-id='type-id-1456' size-in-bits='64' id='type-id-2166'/>
    <reference-type-def kind='lvalue' type-id='type-id-1459' size-in-bits='64' id='type-id-2167'/>
    <reference-type-def kind='rvalue' type-id='type-id-1459' size-in-bits='64' id='type-id-2168'/>
    <pointer-type-def type-id='type-id-1459' size-in-bits='64' id='type-id-2169'/>
    <reference-type-def kind='rvalue' type-id='type-id-1466' size-in-bits='64' id='type-id-2170'/>
    <pointer-type-def type-id='type-id-93' size-in-bits='64' id='type-id-2171'/>
    <pointer-type-def type-id='type-id-94' size-in-bits='64' id='type-id-2172'/>
    <pointer-type-def type-id='type-id-24' size-in-bits='64' id='type-id-2173'/>
    <pointer-type-def type-id='type-id-76' size-in-bits='64' id='type-id-2174'/>
    <reference-type-def kind='lvalue' type-id='type-id-44' size-in-bits='64' id='type-id-2175'/>
    <reference-type-def kind='lvalue' type-id='type-id-25' size-in-bits='64' id='type-id-2176'/>
    <pointer-type-def type-id='type-id-25' size-in-bits='64' id='type-id-2177'/>
    <reference-type-def kind='lvalue' type-id='type-id-50' size-in-bits='64' id='type-id-2178'/>
    <pointer-type-def type-id='type-id-50' size-in-bits='64' id='type-id-2179'/>
    <pointer-type-def type-id='type-id-2180' size-in-bits='64' id='type-id-2181'/>
    <pointer-type-def type-id='type-id-2182' size-in-bits='64' id='type-id-22'/>
    <pointer-type-def type-id='type-id-62' size-in-bits='64' id='type-id-26'/>
    <qualified-type-def type-id='type-id-943' volatile='yes' id='type-id-1483'/>
    <pointer-type-def type-id='type-id-1483' size-in-bits='64' id='type-id-2183'/>
    <qualified-type-def type-id='type-id-1103' volatile='yes' id='type-id-2184'/>
    <pointer-type-def type-id='type-id-2184' size-in-bits='64' id='type-id-2185'/>
    <pointer-type-def type-id='type-id-57' size-in-bits='64' id='type-id-2186'/>
    <pointer-type-def type-id='type-id-2186' size-in-bits='64' id='type-id-2187'/>
    <namespace-decl name='std'>
      <class-decl name='atomic&lt;unsigned int&gt;' size-in-bits='32' is-struct='yes' visibility='default' filepath='/usr/include/c++/4.9/atomic' line='617' column='1' id='type-id-1103'>
        <base-class access='public' layout-offset-in-bits='0' type-id='type-id-943'/>
        <member-type access='public'>
          <typedef-decl name='__integral_type' type-id='type-id-25' filepath='/usr/include/c++/4.9/atomic' line='619' column='1' id='type-id-2188'/>
        </member-type>
        <member-function access='public'>
          <function-decl name='atomic' filepath='/usr/include/c++/4.9/atomic' line='622' column='1' visibility='default' binding='global' size-in-bits='64'>
            <parameter type-id='type-id-1980' is-artificial='yes'/>
            <return type-id='type-id-62'/>
          </function-decl>
        </member-function>
        <member-function access='public' destructor='yes'>
          <function-decl name='~atomic' filepath='/usr/include/c++/4.9/atomic' line='623' column='1' visibility='default' binding='global' size-in-bits='64'>
            <parameter type-id='type-id-1980' is-artificial='yes'/>
            <parameter type-id='type-id-29' is-artificial='yes'/>
            <return type-id='type-id-62'/>
          </function-decl>
        </member-function>
        <member-function access='public'>
          <function-decl name='atomic' filepath='/usr/include/c++/4.9/atomic' line='624' column='1' visibility='default' binding='global' size-in-bits='64'>
            <parameter type-id='type-id-1980' is-artificial='yes'/>
            <parameter type-id='type-id-1105'/>
            <return type-id='type-id-62'/>
          </function-decl>
        </member-function>
        <member-function access='public'>
          <function-decl name='atomic' filepath='/usr/include/c++/4.9/atomic' line='628' column='1' visibility='default' binding='global' size-in-bits='64'>
            <parameter type-id='type-id-1980' is-artificial='yes'/>
            <parameter type-id='type-id-2188'/>
            <return type-id='type-id-62'/>
          </function-decl>
        </member-function>
      </class-decl>
      <class-decl name='__alloctr_rebind&lt;std::allocator&lt;boost::shared_ptr&lt;boost::program_options::option_description&gt; &gt;, boost::shared_ptr&lt;boost::program_options::option_description&gt;, true&gt;' size-in-bits='8' is-struct='yes' visibility='default' filepath='/usr/include/c++/4.9/bits/alloc_traits.h' line='63' column='1' id='type-id-2189'>
        <member-type access='public'>
          <typedef-decl name='__type' type-id='type-id-2190' filepath='/usr/include/c++/4.9/bits/alloc_traits.h' line='65' column='1' id='type-id-2191'/>
        </member-type>
      </class-decl>
      <class-decl name='__alloctr_rebind&lt;std::allocator&lt;boost::shared_ptr&lt;boost::program_options::options_description&gt; &gt;, boost::shared_ptr&lt;boost::program_options::options_description&gt;, true&gt;' size-in-bits='8' is-struct='yes' visibility='default' filepath='/usr/include/c++/4.9/bits/alloc_traits.h' line='63' column='1' id='type-id-2192'>
        <member-type access='public'>
          <typedef-decl name='__type' type-id='type-id-2193' filepath='/usr/include/c++/4.9/bits/alloc_traits.h' line='65' column='1' id='type-id-2194'/>
        </member-type>
      </class-decl>
      <class-decl name='__alloctr_rebind&lt;std::allocator&lt;mongo::logger::Appender&lt;mongo::logger::MessageEventEphemeral&gt;*&gt;, mongo::logger::Appender&lt;mongo::logger::MessageEventEphemeral&gt;*, true&gt;' size-in-bits='8' is-struct='yes' visibility='default' filepath='/usr/include/c++/4.9/bits/alloc_traits.h' line='63' column='1' id='type-id-2195'>
        <member-type access='public'>
          <typedef-decl name='__type' type-id='type-id-2196' filepath='/usr/include/c++/4.9/bits/alloc_traits.h' line='65' column='1' id='type-id-2197'/>
        </member-type>
      </class-decl>
      <class-decl name='__alloctr_rebind&lt;std::allocator&lt;mongo::optionenvironment::Constraint*&gt;, mongo::optionenvironment::Constraint*, true&gt;' size-in-bits='8' is-struct='yes' visibility='default' filepath='/usr/include/c++/4.9/bits/alloc_traits.h' line='63' column='1' id='type-id-2198'>
        <member-type access='public'>
          <typedef-decl name='__type' type-id='type-id-2199' filepath='/usr/include/c++/4.9/bits/alloc_traits.h' line='65' column='1' id='type-id-2200'/>
        </member-type>
      </class-decl>
      <class-decl name='__alloctr_rebind&lt;std::allocator&lt;mongo::optionenvironment::KeyConstraint*&gt;, mongo::optionenvironment::KeyConstraint*, true&gt;' size-in-bits='8' is-struct='yes' visibility='default' filepath='/usr/include/c++/4.9/bits/alloc_traits.h' line='63' column='1' id='type-id-2201'>
        <member-type access='public'>
          <typedef-decl name='__type' type-id='type-id-2202' filepath='/usr/include/c++/4.9/bits/alloc_traits.h' line='65' column='1' id='type-id-2203'/>
        </member-type>
      </class-decl>
      <class-decl name='__alloctr_rebind&lt;std::allocator&lt;std::basic_string&lt;char, std::char_traits&lt;char&gt;, std::allocator&lt;char&gt; &gt; &gt;, std::_Rb_tree_node&lt;std::basic_string&lt;char, std::char_traits&lt;char&gt;, std::allocator&lt;char&gt; &gt; &gt;, true&gt;' size-in-bits='8' is-struct='yes' visibility='default' filepath='/usr/include/c++/4.9/bits/alloc_traits.h' line='63' column='1' id='type-id-2204'>
        <member-type access='public'>
          <typedef-decl name='__type' type-id='type-id-2205' filepath='/usr/include/c++/4.9/bits/alloc_traits.h' line='65' column='1' id='type-id-2206'/>
        </member-type>
      </class-decl>
      <class-decl name='__alloctr_rebind&lt;std::allocator&lt;std::basic_string&lt;char, std::char_traits&lt;char&gt;, std::allocator&lt;char&gt; &gt; &gt;, std::basic_string&lt;char, std::char_traits&lt;char&gt;, std::allocator&lt;char&gt; &gt;, true&gt;' size-in-bits='8' is-struct='yes' visibility='default' filepath='/usr/include/c++/4.9/bits/alloc_traits.h' line='63' column='1' id='type-id-2207'>
        <member-type access='public'>
          <typedef-decl name='__type' type-id='type-id-2208' filepath='/usr/include/c++/4.9/bits/alloc_traits.h' line='65' column='1' id='type-id-2209'/>
        </member-type>
      </class-decl>
      <class-decl name='__alloctr_rebind&lt;std::allocator&lt;std::pair&lt;const std::basic_string&lt;char, std::char_traits&lt;char&gt;, std::allocator&lt;char&gt; &gt;, mongo::ServerParameter*&gt; &gt;, std::_Rb_tree_node&lt;std::pair&lt;const std::basic_string&lt;char, std::char_traits&lt;char&gt;, std::allocator&lt;char&gt; &gt;, mongo::ServerParameter*&gt; &gt;, true&gt;' size-in-bits='8' is-struct='yes' visibility='default' filepath='/usr/include/c++/4.9/bits/alloc_traits.h' line='63' column='1' id='type-id-2210'>
        <member-type access='public'>
          <typedef-decl name='__type' type-id='type-id-2211' filepath='/usr/include/c++/4.9/bits/alloc_traits.h' line='65' column='1' id='type-id-2212'/>
        </member-type>
      </class-decl>
      <class-decl name='__alloctr_rebind&lt;std::allocator&lt;std::pair&lt;const std::basic_string&lt;char, std::char_traits&lt;char&gt;, std::allocator&lt;char&gt; &gt;, mongo::optionenvironment::Value&gt; &gt;, std::_Rb_tree_node&lt;std::pair&lt;const std::basic_string&lt;char, std::char_traits&lt;char&gt;, std::allocator&lt;char&gt; &gt;, mongo::optionenvironment::Value&gt; &gt;, true&gt;' size-in-bits='8' is-struct='yes' visibility='default' filepath='/usr/include/c++/4.9/bits/alloc_traits.h' line='63' column='1' id='type-id-2213'>
        <member-type access='public'>
          <typedef-decl name='__type' type-id='type-id-2214' filepath='/usr/include/c++/4.9/bits/alloc_traits.h' line='65' column='1' id='type-id-2215'/>
        </member-type>
      </class-decl>
      <class-decl name='__alloctr_rebind&lt;std::allocator&lt;std::pair&lt;const std::basic_string&lt;char, std::char_traits&lt;char&gt;, std::allocator&lt;char&gt; &gt;, std::basic_string&lt;char, std::char_traits&lt;char&gt;, std::allocator&lt;char&gt; &gt; &gt; &gt;, std::_Rb_tree_node&lt;std::pair&lt;const std::basic_string&lt;char, std::char_traits&lt;char&gt;, std::allocator&lt;char&gt; &gt;, std::basic_string&lt;char, std::char_traits&lt;char&gt;, std::allocator&lt;char&gt; &gt; &gt; &gt;, true&gt;' size-in-bits='8' is-struct='yes' visibility='default' filepath='/usr/include/c++/4.9/bits/alloc_traits.h' line='63' column='1' id='type-id-2216'>
        <member-type access='public'>
          <typedef-decl name='__type' type-id='type-id-2217' filepath='/usr/include/c++/4.9/bits/alloc_traits.h' line='65' column='1' id='type-id-2218'/>
        </member-type>
      </class-decl>
      <class-decl name='__alloctr_rebind&lt;std::allocator&lt;std::shared_ptr&lt;mongo::optionenvironment::Constraint&gt; &gt;, std::shared_ptr&lt;mongo::optionenvironment::Constraint&gt;, true&gt;' size-in-bits='8' is-struct='yes' visibility='default' filepath='/usr/include/c++/4.9/bits/alloc_traits.h' line='63' column='1' id='type-id-2219'>
        <member-type access='public'>
          <typedef-decl name='__type' type-id='type-id-2220' filepath='/usr/include/c++/4.9/bits/alloc_traits.h' line='65' column='1' id='type-id-2221'/>
        </member-type>
      </class-decl>
      <class-decl name='allocator_traits&lt;std::allocator&lt;boost::shared_ptr&lt;boost::program_options::option_description&gt; &gt; &gt;' size-in-bits='8' is-struct='yes' visibility='default' filepath='/usr/include/c++/4.9/bits/alloc_traits.h' line='80' column='1' id='type-id-2222'>
        <member-type access='public'>
          <typedef-decl name='value_type' type-id='type-id-2223' filepath='/usr/include/c++/4.9/bits/alloc_traits.h' line='85' column='1' id='type-id-1957'/>
        </member-type>
        <member-type access='private'>
          <typedef-decl name='__pointer' type-id='type-id-2224' filepath='/usr/include/c++/4.9/bits/alloc_traits.h' line='95' column='1' id='type-id-2225'/>
        </member-type>
        <member-type access='public'>
          <typedef-decl name='pointer' type-id='type-id-2225' filepath='/usr/include/c++/4.9/bits/alloc_traits.h' line='102' column='1' id='type-id-2226'/>
        </member-type>
        <member-type access='private'>
          <typedef-decl name='__const_void_pointer' type-id='type-id-2227' filepath='/usr/include/c++/4.9/bits/alloc_traits.h' line='126' column='1' id='type-id-2228'/>
        </member-type>
        <member-type access='public'>
          <typedef-decl name='const_void_pointer' type-id='type-id-2228' filepath='/usr/include/c++/4.9/bits/alloc_traits.h' line='135' column='1' id='type-id-2229'/>
        </member-type>
        <member-type access='private'>
          <typedef-decl name='__size_type' type-id='type-id-2230' filepath='/usr/include/c++/4.9/bits/alloc_traits.h' line='148' column='1' id='type-id-2231'/>
        </member-type>
        <member-type access='public'>
          <typedef-decl name='size_type' type-id='type-id-2231' filepath='/usr/include/c++/4.9/bits/alloc_traits.h' line='157' column='1' id='type-id-2232'/>
        </member-type>
        <member-type access='public'>
          <typedef-decl name='rebind_alloc' type-id='type-id-2191' filepath='/usr/include/c++/4.9/bits/alloc_traits.h' line='197' column='1' id='type-id-2233'/>
        </member-type>
      </class-decl>
      <class-decl name='allocator_traits&lt;std::allocator&lt;boost::shared_ptr&lt;boost::program_options::options_description&gt; &gt; &gt;' size-in-bits='8' is-struct='yes' visibility='default' filepath='/usr/include/c++/4.9/bits/alloc_traits.h' line='80' column='1' id='type-id-2234'>
        <member-type access='public'>
          <typedef-decl name='value_type' type-id='type-id-2235' filepath='/usr/include/c++/4.9/bits/alloc_traits.h' line='85' column='1' id='type-id-1959'/>
        </member-type>
        <member-type access='private'>
          <typedef-decl name='__pointer' type-id='type-id-2236' filepath='/usr/include/c++/4.9/bits/alloc_traits.h' line='95' column='1' id='type-id-2237'/>
        </member-type>
        <member-type access='public'>
          <typedef-decl name='pointer' type-id='type-id-2237' filepath='/usr/include/c++/4.9/bits/alloc_traits.h' line='102' column='1' id='type-id-2238'/>
        </member-type>
        <member-type access='private'>
          <typedef-decl name='__const_void_pointer' type-id='type-id-2239' filepath='/usr/include/c++/4.9/bits/alloc_traits.h' line='126' column='1' id='type-id-2240'/>
        </member-type>
        <member-type access='public'>
          <typedef-decl name='const_void_pointer' type-id='type-id-2240' filepath='/usr/include/c++/4.9/bits/alloc_traits.h' line='135' column='1' id='type-id-2241'/>
        </member-type>
        <member-type access='private'>
          <typedef-decl name='__size_type' type-id='type-id-2242' filepath='/usr/include/c++/4.9/bits/alloc_traits.h' line='148' column='1' id='type-id-2243'/>
        </member-type>
        <member-type access='public'>
          <typedef-decl name='size_type' type-id='type-id-2243' filepath='/usr/include/c++/4.9/bits/alloc_traits.h' line='157' column='1' id='type-id-2244'/>
        </member-type>
        <member-type access='public'>
          <typedef-decl name='rebind_alloc' type-id='type-id-2194' filepath='/usr/include/c++/4.9/bits/alloc_traits.h' line='197' column='1' id='type-id-2245'/>
        </member-type>
      </class-decl>
      <class-decl name='allocator_traits&lt;std::allocator&lt;mongo::logger::Appender&lt;mongo::logger::MessageEventEphemeral&gt;*&gt; &gt;' size-in-bits='8' is-struct='yes' visibility='default' filepath='/usr/include/c++/4.9/bits/alloc_traits.h' line='80' column='1' id='type-id-2246'>
        <member-type access='public'>
          <typedef-decl name='value_type' type-id='type-id-2247' filepath='/usr/include/c++/4.9/bits/alloc_traits.h' line='85' column='1' id='type-id-1961'/>
        </member-type>
        <member-type access='private'>
          <typedef-decl name='__pointer' type-id='type-id-2248' filepath='/usr/include/c++/4.9/bits/alloc_traits.h' line='95' column='1' id='type-id-2249'/>
        </member-type>
        <member-type access='public'>
          <typedef-decl name='pointer' type-id='type-id-2249' filepath='/usr/include/c++/4.9/bits/alloc_traits.h' line='102' column='1' id='type-id-2250'/>
        </member-type>
        <member-type access='private'>
          <typedef-decl name='__const_void_pointer' type-id='type-id-2251' filepath='/usr/include/c++/4.9/bits/alloc_traits.h' line='126' column='1' id='type-id-2252'/>
        </member-type>
        <member-type access='public'>
          <typedef-decl name='const_void_pointer' type-id='type-id-2252' filepath='/usr/include/c++/4.9/bits/alloc_traits.h' line='135' column='1' id='type-id-2253'/>
        </member-type>
        <member-type access='private'>
          <typedef-decl name='__size_type' type-id='type-id-2254' filepath='/usr/include/c++/4.9/bits/alloc_traits.h' line='148' column='1' id='type-id-2255'/>
        </member-type>
        <member-type access='public'>
          <typedef-decl name='size_type' type-id='type-id-2255' filepath='/usr/include/c++/4.9/bits/alloc_traits.h' line='157' column='1' id='type-id-2256'/>
        </member-type>
        <member-type access='public'>
          <typedef-decl name='rebind_alloc' type-id='type-id-2197' filepath='/usr/include/c++/4.9/bits/alloc_traits.h' line='197' column='1' id='type-id-2257'/>
        </member-type>
      </class-decl>
      <class-decl name='allocator_traits&lt;std::allocator&lt;mongo::optionenvironment::Constraint*&gt; &gt;' size-in-bits='8' is-struct='yes' visibility='default' filepath='/usr/include/c++/4.9/bits/alloc_traits.h' line='80' column='1' id='type-id-2258'>
        <member-type access='public'>
          <typedef-decl name='value_type' type-id='type-id-2259' filepath='/usr/include/c++/4.9/bits/alloc_traits.h' line='85' column='1' id='type-id-1963'/>
        </member-type>
        <member-type access='private'>
          <typedef-decl name='__pointer' type-id='type-id-2260' filepath='/usr/include/c++/4.9/bits/alloc_traits.h' line='95' column='1' id='type-id-2261'/>
        </member-type>
        <member-type access='public'>
          <typedef-decl name='pointer' type-id='type-id-2261' filepath='/usr/include/c++/4.9/bits/alloc_traits.h' line='102' column='1' id='type-id-2262'/>
        </member-type>
        <member-type access='private'>
          <typedef-decl name='__const_void_pointer' type-id='type-id-2263' filepath='/usr/include/c++/4.9/bits/alloc_traits.h' line='126' column='1' id='type-id-2264'/>
        </member-type>
        <member-type access='public'>
          <typedef-decl name='const_void_pointer' type-id='type-id-2264' filepath='/usr/include/c++/4.9/bits/alloc_traits.h' line='135' column='1' id='type-id-2265'/>
        </member-type>
        <member-type access='private'>
          <typedef-decl name='__size_type' type-id='type-id-2266' filepath='/usr/include/c++/4.9/bits/alloc_traits.h' line='148' column='1' id='type-id-2267'/>
        </member-type>
        <member-type access='public'>
          <typedef-decl name='size_type' type-id='type-id-2267' filepath='/usr/include/c++/4.9/bits/alloc_traits.h' line='157' column='1' id='type-id-2268'/>
        </member-type>
        <member-type access='public'>
          <typedef-decl name='rebind_alloc' type-id='type-id-2200' filepath='/usr/include/c++/4.9/bits/alloc_traits.h' line='197' column='1' id='type-id-2269'/>
        </member-type>
      </class-decl>
      <class-decl name='allocator_traits&lt;std::allocator&lt;mongo::optionenvironment::KeyConstraint*&gt; &gt;' size-in-bits='8' is-struct='yes' visibility='default' filepath='/usr/include/c++/4.9/bits/alloc_traits.h' line='80' column='1' id='type-id-2270'>
        <member-type access='public'>
          <typedef-decl name='value_type' type-id='type-id-2271' filepath='/usr/include/c++/4.9/bits/alloc_traits.h' line='85' column='1' id='type-id-1965'/>
        </member-type>
        <member-type access='private'>
          <typedef-decl name='__pointer' type-id='type-id-2272' filepath='/usr/include/c++/4.9/bits/alloc_traits.h' line='95' column='1' id='type-id-2273'/>
        </member-type>
        <member-type access='public'>
          <typedef-decl name='pointer' type-id='type-id-2273' filepath='/usr/include/c++/4.9/bits/alloc_traits.h' line='102' column='1' id='type-id-2274'/>
        </member-type>
        <member-type access='private'>
          <typedef-decl name='__const_void_pointer' type-id='type-id-2275' filepath='/usr/include/c++/4.9/bits/alloc_traits.h' line='126' column='1' id='type-id-2276'/>
        </member-type>
        <member-type access='public'>
          <typedef-decl name='const_void_pointer' type-id='type-id-2276' filepath='/usr/include/c++/4.9/bits/alloc_traits.h' line='135' column='1' id='type-id-2277'/>
        </member-type>
        <member-type access='private'>
          <typedef-decl name='__size_type' type-id='type-id-2278' filepath='/usr/include/c++/4.9/bits/alloc_traits.h' line='148' column='1' id='type-id-2279'/>
        </member-type>
        <member-type access='public'>
          <typedef-decl name='size_type' type-id='type-id-2279' filepath='/usr/include/c++/4.9/bits/alloc_traits.h' line='157' column='1' id='type-id-2280'/>
        </member-type>
        <member-type access='public'>
          <typedef-decl name='rebind_alloc' type-id='type-id-2203' filepath='/usr/include/c++/4.9/bits/alloc_traits.h' line='197' column='1' id='type-id-2281'/>
        </member-type>
      </class-decl>
      <class-decl name='allocator_traits&lt;std::allocator&lt;std::_Rb_tree_node&lt;std::pair&lt;const std::basic_string&lt;char, std::char_traits&lt;char&gt;, std::allocator&lt;char&gt; &gt;, std::basic_string&lt;char, std::char_traits&lt;char&gt;, std::allocator&lt;char&gt; &gt; &gt; &gt; &gt; &gt;' size-in-bits='8' is-struct='yes' visibility='default' filepath='/usr/include/c++/4.9/bits/alloc_traits.h' line='80' column='1' id='type-id-2282'>
        <member-type access='public'>
          <typedef-decl name='value_type' type-id='type-id-2283' filepath='/usr/include/c++/4.9/bits/alloc_traits.h' line='85' column='1' id='type-id-1967'/>
        </member-type>
        <member-type access='private'>
          <typedef-decl name='__pointer' type-id='type-id-2284' filepath='/usr/include/c++/4.9/bits/alloc_traits.h' line='95' column='1' id='type-id-2285'/>
        </member-type>
        <member-type access='public'>
          <typedef-decl name='pointer' type-id='type-id-2285' filepath='/usr/include/c++/4.9/bits/alloc_traits.h' line='102' column='1' id='type-id-2286'/>
        </member-type>
        <member-type access='private'>
          <typedef-decl name='__const_void_pointer' type-id='type-id-2287' filepath='/usr/include/c++/4.9/bits/alloc_traits.h' line='126' column='1' id='type-id-2288'/>
        </member-type>
        <member-type access='public'>
          <typedef-decl name='const_void_pointer' type-id='type-id-2288' filepath='/usr/include/c++/4.9/bits/alloc_traits.h' line='135' column='1' id='type-id-2289'/>
        </member-type>
        <member-type access='private'>
          <typedef-decl name='__size_type' type-id='type-id-2290' filepath='/usr/include/c++/4.9/bits/alloc_traits.h' line='148' column='1' id='type-id-2291'/>
        </member-type>
        <member-type access='public'>
          <typedef-decl name='size_type' type-id='type-id-2291' filepath='/usr/include/c++/4.9/bits/alloc_traits.h' line='157' column='1' id='type-id-2292'/>
        </member-type>
        <member-function access='public' static='yes'>
          <function-decl name='destroy&lt;std::pair&lt;const std::basic_string&lt;char&gt;, std::basic_string&lt;char&gt; &gt; &gt;' mangled-name='_ZNSt16allocator_traitsISaISt13_Rb_tree_nodeISt4pairIKSsSsEEEE7destroyIS3_EEvRS5_PT_' filepath='/usr/include/c++/4.9/bits/alloc_traits.h' line='410' column='1' visibility='default' binding='global' size-in-bits='64' elf-symbol-id='_ZNSt16allocator_traitsISaISt13_Rb_tree_nodeISt4pairIKSsSsEEEE7destroyIS3_EEvRS5_PT_'>
            <parameter type-id='type-id-1942'/>
            <parameter type-id='type-id-2074'/>
            <return type-id='type-id-62'/>
          </function-decl>
        </member-function>
        <member-function access='private' static='yes'>
          <function-decl name='_S_destroy&lt;std::pair&lt;const std::basic_string&lt;char&gt;, std::basic_string&lt;char&gt; &gt; &gt;' mangled-name='_ZNSt16allocator_traitsISaISt13_Rb_tree_nodeISt4pairIKSsSsEEEE10_S_destroyIS3_EENSt9enable_ifIXsrSt6__and_IINS6_16__destroy_helperIT_E4typeEEE5valueEvE4typeERS5_PSB_' filepath='/usr/include/c++/4.9/bits/alloc_traits.h' line='281' column='1' visibility='default' binding='global' size-in-bits='64' elf-symbol-id='_ZNSt16allocator_traitsISaISt13_Rb_tree_nodeISt4pairIKSsSsEEEE10_S_destroyIS3_EENSt9enable_ifIXsrSt6__and_IINS6_16__destroy_helperIT_E4typeEEE5valueEvE4typeERS5_PSB_'>
            <parameter type-id='type-id-1942'/>
            <parameter type-id='type-id-2074'/>
            <return type-id='type-id-62'/>
          </function-decl>
        </member-function>
        <member-function access='public' static='yes'>
          <function-decl name='deallocate' mangled-name='_ZNSt16allocator_traitsISaISt13_Rb_tree_nodeISt4pairIKSsSsEEEE10deallocateERS5_PS4_m' filepath='/usr/include/c++/4.9/bits/alloc_traits.h' line='382' column='1' visibility='default' binding='global' size-in-bits='64' elf-symbol-id='_ZNSt16allocator_traitsISaISt13_Rb_tree_nodeISt4pairIKSsSsEEEE10deallocateERS5_PS4_m'>
            <parameter type-id='type-id-1942'/>
            <parameter type-id='type-id-2286'/>
            <parameter type-id='type-id-2292'/>
            <return type-id='type-id-62'/>
          </function-decl>
        </member-function>
      </class-decl>
      <class-decl name='allocator_traits&lt;std::allocator&lt;std::basic_string&lt;char, std::char_traits&lt;char&gt;, std::allocator&lt;char&gt; &gt; &gt; &gt;' size-in-bits='8' is-struct='yes' visibility='default' filepath='/usr/include/c++/4.9/bits/alloc_traits.h' line='80' column='1' id='type-id-2293'>
        <member-type access='public'>
          <typedef-decl name='value_type' type-id='type-id-2294' filepath='/usr/include/c++/4.9/bits/alloc_traits.h' line='85' column='1' id='type-id-1969'/>
        </member-type>
        <member-type access='private'>
          <typedef-decl name='__pointer' type-id='type-id-2295' filepath='/usr/include/c++/4.9/bits/alloc_traits.h' line='95' column='1' id='type-id-2296'/>
        </member-type>
        <member-type access='public'>
          <typedef-decl name='pointer' type-id='type-id-2296' filepath='/usr/include/c++/4.9/bits/alloc_traits.h' line='102' column='1' id='type-id-2297'/>
        </member-type>
        <member-type access='private'>
          <typedef-decl name='__const_void_pointer' type-id='type-id-2298' filepath='/usr/include/c++/4.9/bits/alloc_traits.h' line='126' column='1' id='type-id-2299'/>
        </member-type>
        <member-type access='public'>
          <typedef-decl name='const_void_pointer' type-id='type-id-2299' filepath='/usr/include/c++/4.9/bits/alloc_traits.h' line='135' column='1' id='type-id-2300'/>
        </member-type>
        <member-type access='private'>
          <typedef-decl name='__size_type' type-id='type-id-2301' filepath='/usr/include/c++/4.9/bits/alloc_traits.h' line='148' column='1' id='type-id-2302'/>
        </member-type>
        <member-type access='public'>
          <typedef-decl name='size_type' type-id='type-id-2302' filepath='/usr/include/c++/4.9/bits/alloc_traits.h' line='157' column='1' id='type-id-2303'/>
        </member-type>
        <member-type access='public'>
          <typedef-decl name='rebind_alloc' type-id='type-id-2209' filepath='/usr/include/c++/4.9/bits/alloc_traits.h' line='197' column='1' id='type-id-2304'/>
        </member-type>
        <member-function access='public' static='yes'>
          <function-decl name='construct&lt;std::basic_string&lt;char&gt;, std::basic_string&lt;char, std::char_traits&lt;char&gt;, std::allocator&lt;char&gt; &gt; &gt;' mangled-name='_ZNSt16allocator_traitsISaISsEE9constructISsISsEEEDTcl12_S_constructfp_fp0_spcl7forwardIT0_Efp1_EEERS0_PT_DpOS3_' filepath='/usr/include/c++/4.9/bits/alloc_traits.h' line='397' column='1' visibility='default' binding='global' size-in-bits='64' elf-symbol-id='_ZNSt16allocator_traitsISaISsEE9constructISsISsEEEDTcl12_S_constructfp_fp0_spcl7forwardIT0_Efp1_EEERS0_PT_DpOS3_'>
            <parameter type-id='type-id-1946'/>
            <parameter type-id='type-id-1989'/>
            <parameter type-id='type-id-1988'/>
            <return type-id='type-id-62'/>
          </function-decl>
        </member-function>
        <member-function access='public' static='yes'>
          <function-decl name='deallocate' mangled-name='_ZNSt16allocator_traitsISaISsEE10deallocateERS0_PSsm' filepath='/usr/include/c++/4.9/bits/alloc_traits.h' line='382' column='1' visibility='default' binding='global' size-in-bits='64' elf-symbol-id='_ZNSt16allocator_traitsISaISsEE10deallocateERS0_PSsm'>
            <parameter type-id='type-id-1946'/>
            <parameter type-id='type-id-2297'/>
            <parameter type-id='type-id-2303'/>
            <return type-id='type-id-62'/>
          </function-decl>
        </member-function>
        <member-function access='private' static='yes'>
          <function-decl name='_S_construct&lt;std::basic_string&lt;char&gt;, std::basic_string&lt;char, std::char_traits&lt;char&gt;, std::allocator&lt;char&gt; &gt; &gt;' mangled-name='_ZNSt16allocator_traitsISaISsEE12_S_constructISsISsEEENSt9enable_ifIXsrSt6__and_IINS1_18__construct_helperIT_IDpT0_EE4typeEEE5valueEvE4typeERS0_PS6_DpOS7_' filepath='/usr/include/c++/4.9/bits/alloc_traits.h' line='252' column='1' visibility='default' binding='global' size-in-bits='64' elf-symbol-id='_ZNSt16allocator_traitsISaISsEE12_S_constructISsISsEEENSt9enable_ifIXsrSt6__and_IINS1_18__construct_helperIT_IDpT0_EE4typeEEE5valueEvE4typeERS0_PS6_DpOS7_'>
            <parameter type-id='type-id-1946'/>
            <parameter type-id='type-id-1989'/>
            <parameter type-id='type-id-1988'/>
            <return type-id='type-id-62'/>
          </function-decl>
        </member-function>
        <member-function access='public' static='yes'>
          <function-decl name='destroy&lt;std::basic_string&lt;char&gt; &gt;' mangled-name='_ZNSt16allocator_traitsISaISsEE7destroyISsEEvRS0_PT_' filepath='/usr/include/c++/4.9/bits/alloc_traits.h' line='410' column='1' visibility='default' binding='global' size-in-bits='64' elf-symbol-id='_ZNSt16allocator_traitsISaISsEE7destroyISsEEvRS0_PT_'>
            <parameter type-id='type-id-1946'/>
            <parameter type-id='type-id-1989'/>
            <return type-id='type-id-62'/>
          </function-decl>
        </member-function>
        <member-function access='public' static='yes'>
          <function-decl name='allocate' mangled-name='_ZNSt16allocator_traitsISaISsEE8allocateERS0_m' filepath='/usr/include/c++/4.9/bits/alloc_traits.h' line='356' column='1' visibility='default' binding='global' size-in-bits='64' elf-symbol-id='_ZNSt16allocator_traitsISaISsEE8allocateERS0_m'>
            <parameter type-id='type-id-1946'/>
            <parameter type-id='type-id-2303'/>
            <return type-id='type-id-2297'/>
          </function-decl>
        </member-function>
        <member-function access='private' static='yes'>
          <function-decl name='_S_destroy&lt;std::basic_string&lt;char&gt; &gt;' mangled-name='_ZNSt16allocator_traitsISaISsEE10_S_destroyISsEENSt9enable_ifIXsrSt6__and_IINS1_16__destroy_helperIT_E4typeEEE5valueEvE4typeERS0_PS6_' filepath='/usr/include/c++/4.9/bits/alloc_traits.h' line='281' column='1' visibility='default' binding='global' size-in-bits='64' elf-symbol-id='_ZNSt16allocator_traitsISaISsEE10_S_destroyISsEENSt9enable_ifIXsrSt6__and_IINS1_16__destroy_helperIT_E4typeEEE5valueEvE4typeERS0_PS6_'>
            <parameter type-id='type-id-1946'/>
            <parameter type-id='type-id-1989'/>
            <return type-id='type-id-62'/>
          </function-decl>
        </member-function>
        <member-function access='public' static='yes'>
          <function-decl name='max_size' mangled-name='_ZNSt16allocator_traitsISaISsEE8max_sizeERKS0_' filepath='/usr/include/c++/4.9/bits/alloc_traits.h' line='421' column='1' visibility='default' binding='global' size-in-bits='64' elf-symbol-id='_ZNSt16allocator_traitsISaISsEE8max_sizeERKS0_'>
            <parameter type-id='type-id-1087'/>
            <return type-id='type-id-2303'/>
          </function-decl>
        </member-function>
        <member-function access='private' static='yes'>
          <function-decl name='_S_max_size&lt;const std::allocator&lt;std::basic_string&lt;char&gt; &gt;, void&gt;' mangled-name='_ZNSt16allocator_traitsISaISsEE11_S_max_sizeIKS0_vEEmRT_i' filepath='/usr/include/c++/4.9/bits/alloc_traits.h' line='308' column='1' visibility='default' binding='global' size-in-bits='64' elf-symbol-id='_ZNSt16allocator_traitsISaISsEE11_S_max_sizeIKS0_vEEmRT_i'>
            <parameter type-id='type-id-1087'/>
            <parameter type-id='type-id-29'/>
            <return type-id='type-id-2303'/>
          </function-decl>
        </member-function>
      </class-decl>
      <class-decl name='allocator_traits&lt;std::allocator&lt;std::pair&lt;const std::basic_string&lt;char, std::char_traits&lt;char&gt;, std::allocator&lt;char&gt; &gt;, mongo::ServerParameter*&gt; &gt; &gt;' size-in-bits='8' is-struct='yes' visibility='default' filepath='/usr/include/c++/4.9/bits/alloc_traits.h' line='80' column='1' id='type-id-2305'>
        <member-type access='public'>
          <typedef-decl name='value_type' type-id='type-id-2306' filepath='/usr/include/c++/4.9/bits/alloc_traits.h' line='85' column='1' id='type-id-1971'/>
        </member-type>
        <member-type access='private'>
          <typedef-decl name='__pointer' type-id='type-id-2307' filepath='/usr/include/c++/4.9/bits/alloc_traits.h' line='95' column='1' id='type-id-2308'/>
        </member-type>
        <member-type access='public'>
          <typedef-decl name='pointer' type-id='type-id-2308' filepath='/usr/include/c++/4.9/bits/alloc_traits.h' line='102' column='1' id='type-id-2309'/>
        </member-type>
        <member-type access='private'>
          <typedef-decl name='__const_void_pointer' type-id='type-id-2310' filepath='/usr/include/c++/4.9/bits/alloc_traits.h' line='126' column='1' id='type-id-2311'/>
        </member-type>
        <member-type access='public'>
          <typedef-decl name='const_void_pointer' type-id='type-id-2311' filepath='/usr/include/c++/4.9/bits/alloc_traits.h' line='135' column='1' id='type-id-2312'/>
        </member-type>
        <member-type access='private'>
          <typedef-decl name='__size_type' type-id='type-id-2313' filepath='/usr/include/c++/4.9/bits/alloc_traits.h' line='148' column='1' id='type-id-2314'/>
        </member-type>
        <member-type access='public'>
          <typedef-decl name='size_type' type-id='type-id-2314' filepath='/usr/include/c++/4.9/bits/alloc_traits.h' line='157' column='1' id='type-id-2315'/>
        </member-type>
        <member-type access='public'>
          <typedef-decl name='rebind_alloc' type-id='type-id-2212' filepath='/usr/include/c++/4.9/bits/alloc_traits.h' line='197' column='1' id='type-id-2316'/>
        </member-type>
      </class-decl>
      <class-decl name='allocator_traits&lt;std::allocator&lt;std::pair&lt;const std::basic_string&lt;char, std::char_traits&lt;char&gt;, std::allocator&lt;char&gt; &gt;, mongo::optionenvironment::Value&gt; &gt; &gt;' size-in-bits='8' is-struct='yes' visibility='default' filepath='/usr/include/c++/4.9/bits/alloc_traits.h' line='80' column='1' id='type-id-2317'>
        <member-type access='public'>
          <typedef-decl name='value_type' type-id='type-id-2318' filepath='/usr/include/c++/4.9/bits/alloc_traits.h' line='85' column='1' id='type-id-1973'/>
        </member-type>
        <member-type access='private'>
          <typedef-decl name='__pointer' type-id='type-id-2319' filepath='/usr/include/c++/4.9/bits/alloc_traits.h' line='95' column='1' id='type-id-2320'/>
        </member-type>
        <member-type access='public'>
          <typedef-decl name='pointer' type-id='type-id-2320' filepath='/usr/include/c++/4.9/bits/alloc_traits.h' line='102' column='1' id='type-id-2321'/>
        </member-type>
        <member-type access='private'>
          <typedef-decl name='__const_void_pointer' type-id='type-id-2322' filepath='/usr/include/c++/4.9/bits/alloc_traits.h' line='126' column='1' id='type-id-2323'/>
        </member-type>
        <member-type access='public'>
          <typedef-decl name='const_void_pointer' type-id='type-id-2323' filepath='/usr/include/c++/4.9/bits/alloc_traits.h' line='135' column='1' id='type-id-2324'/>
        </member-type>
        <member-type access='private'>
          <typedef-decl name='__size_type' type-id='type-id-2325' filepath='/usr/include/c++/4.9/bits/alloc_traits.h' line='148' column='1' id='type-id-2326'/>
        </member-type>
        <member-type access='public'>
          <typedef-decl name='size_type' type-id='type-id-2326' filepath='/usr/include/c++/4.9/bits/alloc_traits.h' line='157' column='1' id='type-id-2327'/>
        </member-type>
        <member-type access='public'>
          <typedef-decl name='rebind_alloc' type-id='type-id-2215' filepath='/usr/include/c++/4.9/bits/alloc_traits.h' line='197' column='1' id='type-id-2328'/>
        </member-type>
      </class-decl>
      <class-decl name='allocator_traits&lt;std::allocator&lt;std::pair&lt;const std::basic_string&lt;char, std::char_traits&lt;char&gt;, std::allocator&lt;char&gt; &gt;, std::basic_string&lt;char, std::char_traits&lt;char&gt;, std::allocator&lt;char&gt; &gt; &gt; &gt; &gt;' size-in-bits='8' is-struct='yes' visibility='default' filepath='/usr/include/c++/4.9/bits/alloc_traits.h' line='80' column='1' id='type-id-2329'>
        <member-type access='public'>
          <typedef-decl name='value_type' type-id='type-id-2330' filepath='/usr/include/c++/4.9/bits/alloc_traits.h' line='85' column='1' id='type-id-1975'/>
        </member-type>
        <member-type access='private'>
          <typedef-decl name='__pointer' type-id='type-id-2331' filepath='/usr/include/c++/4.9/bits/alloc_traits.h' line='95' column='1' id='type-id-2332'/>
        </member-type>
        <member-type access='public'>
          <typedef-decl name='pointer' type-id='type-id-2332' filepath='/usr/include/c++/4.9/bits/alloc_traits.h' line='102' column='1' id='type-id-2333'/>
        </member-type>
        <member-type access='private'>
          <typedef-decl name='__const_void_pointer' type-id='type-id-2334' filepath='/usr/include/c++/4.9/bits/alloc_traits.h' line='126' column='1' id='type-id-2335'/>
        </member-type>
        <member-type access='public'>
          <typedef-decl name='const_void_pointer' type-id='type-id-2335' filepath='/usr/include/c++/4.9/bits/alloc_traits.h' line='135' column='1' id='type-id-2336'/>
        </member-type>
        <member-type access='private'>
          <typedef-decl name='__size_type' type-id='type-id-2337' filepath='/usr/include/c++/4.9/bits/alloc_traits.h' line='148' column='1' id='type-id-2338'/>
        </member-type>
        <member-type access='public'>
          <typedef-decl name='size_type' type-id='type-id-2338' filepath='/usr/include/c++/4.9/bits/alloc_traits.h' line='157' column='1' id='type-id-2339'/>
        </member-type>
        <member-type access='public'>
          <typedef-decl name='rebind_alloc' type-id='type-id-2218' filepath='/usr/include/c++/4.9/bits/alloc_traits.h' line='197' column='1' id='type-id-2340'/>
        </member-type>
      </class-decl>
      <class-decl name='allocator_traits&lt;std::allocator&lt;std::shared_ptr&lt;mongo::optionenvironment::Constraint&gt; &gt; &gt;' size-in-bits='8' is-struct='yes' visibility='default' filepath='/usr/include/c++/4.9/bits/alloc_traits.h' line='80' column='1' id='type-id-2341'>
        <member-type access='public'>
          <typedef-decl name='value_type' type-id='type-id-2342' filepath='/usr/include/c++/4.9/bits/alloc_traits.h' line='85' column='1' id='type-id-1977'/>
        </member-type>
        <member-type access='private'>
          <typedef-decl name='__pointer' type-id='type-id-2343' filepath='/usr/include/c++/4.9/bits/alloc_traits.h' line='95' column='1' id='type-id-2344'/>
        </member-type>
        <member-type access='public'>
          <typedef-decl name='pointer' type-id='type-id-2344' filepath='/usr/include/c++/4.9/bits/alloc_traits.h' line='102' column='1' id='type-id-2345'/>
        </member-type>
        <member-type access='private'>
          <typedef-decl name='__const_void_pointer' type-id='type-id-2346' filepath='/usr/include/c++/4.9/bits/alloc_traits.h' line='126' column='1' id='type-id-2347'/>
        </member-type>
        <member-type access='public'>
          <typedef-decl name='const_void_pointer' type-id='type-id-2347' filepath='/usr/include/c++/4.9/bits/alloc_traits.h' line='135' column='1' id='type-id-2348'/>
        </member-type>
        <member-type access='private'>
          <typedef-decl name='__size_type' type-id='type-id-2349' filepath='/usr/include/c++/4.9/bits/alloc_traits.h' line='148' column='1' id='type-id-2350'/>
        </member-type>
        <member-type access='public'>
          <typedef-decl name='size_type' type-id='type-id-2350' filepath='/usr/include/c++/4.9/bits/alloc_traits.h' line='157' column='1' id='type-id-2351'/>
        </member-type>
        <member-type access='public'>
          <typedef-decl name='rebind_alloc' type-id='type-id-2221' filepath='/usr/include/c++/4.9/bits/alloc_traits.h' line='197' column='1' id='type-id-2352'/>
        </member-type>
        <member-function access='public' static='yes'>
          <function-decl name='deallocate' mangled-name='_ZNSt16allocator_traitsISaISt10shared_ptrIN5mongo17optionenvironment10ConstraintEEEE10deallocateERS5_PS4_m' filepath='/usr/include/c++/4.9/bits/alloc_traits.h' line='382' column='1' visibility='default' binding='global' size-in-bits='64' elf-symbol-id='_ZNSt16allocator_traitsISaISt10shared_ptrIN5mongo17optionenvironment10ConstraintEEEE10deallocateERS5_PS4_m'>
            <parameter type-id='type-id-1955'/>
            <parameter type-id='type-id-2345'/>
            <parameter type-id='type-id-2351'/>
            <return type-id='type-id-62'/>
          </function-decl>
        </member-function>
      </class-decl>
      <class-decl name='allocator&lt;bool&gt;' size-in-bits='8' visibility='default' filepath='/usr/include/c++/4.9/bits/allocator.h' line='92' column='1' id='type-id-1034'>
        <base-class access='public' layout-offset-in-bits='0' type-id='type-id-139'/>
        <member-type access='public'>
          <class-decl name='rebind&lt;long unsigned int&gt;' size-in-bits='8' is-struct='yes' visibility='default' filepath='/usr/include/c++/4.9/bits/allocator.h' line='104' column='1' id='type-id-2353'>
            <member-type access='public'>
              <typedef-decl name='other' type-id='type-id-1046' filepath='/usr/include/c++/4.9/bits/allocator.h' line='105' column='1' id='type-id-2354'/>
            </member-type>
          </class-decl>
        </member-type>
        <member-function access='public'>
          <function-decl name='allocator' filepath='/usr/include/c++/4.9/bits/allocator.h' line='113' column='1' visibility='default' binding='global' size-in-bits='64'>
            <parameter type-id='type-id-1922' is-artificial='yes'/>
            <return type-id='type-id-62'/>
          </function-decl>
        </member-function>
        <member-function access='public'>
          <function-decl name='allocator' filepath='/usr/include/c++/4.9/bits/allocator.h' line='115' column='1' visibility='default' binding='global' size-in-bits='64'>
            <parameter type-id='type-id-1922' is-artificial='yes'/>
            <parameter type-id='type-id-1036'/>
            <return type-id='type-id-62'/>
          </function-decl>
        </member-function>
        <member-function access='public' destructor='yes'>
          <function-decl name='~allocator' filepath='/usr/include/c++/4.9/bits/allocator.h' line='121' column='1' visibility='default' binding='global' size-in-bits='64'>
            <parameter type-id='type-id-1922' is-artificial='yes'/>
            <parameter type-id='type-id-29' is-artificial='yes'/>
            <return type-id='type-id-62'/>
          </function-decl>
        </member-function>
      </class-decl>
      <class-decl name='allocator&lt;boost::shared_ptr&lt;boost::program_options::option_description&gt; &gt;' size-in-bits='8' visibility='default' filepath='/usr/include/c++/4.9/bits/allocator.h' line='92' column='1' id='type-id-1037'>
        <base-class access='public' layout-offset-in-bits='0' type-id='type-id-141'/>
        <member-type access='public'>
          <typedef-decl name='size_type' type-id='type-id-1335' filepath='/usr/include/c++/4.9/bits/allocator.h' line='95' column='1' id='type-id-2230'/>
        </member-type>
        <member-type access='public'>
          <typedef-decl name='pointer' type-id='type-id-212' filepath='/usr/include/c++/4.9/bits/allocator.h' line='97' column='1' id='type-id-2224'/>
        </member-type>
        <member-type access='public'>
          <typedef-decl name='value_type' type-id='type-id-210' filepath='/usr/include/c++/4.9/bits/allocator.h' line='101' column='1' id='type-id-2223'/>
        </member-type>
        <member-type access='public'>
          <class-decl name='rebind&lt;boost::shared_ptr&lt;boost::program_options::option_description&gt; &gt;' size-in-bits='8' is-struct='yes' visibility='default' filepath='/usr/include/c++/4.9/bits/allocator.h' line='104' column='1' id='type-id-2355'>
            <member-type access='public'>
              <typedef-decl name='other' type-id='type-id-1037' filepath='/usr/include/c++/4.9/bits/allocator.h' line='105' column='1' id='type-id-2190'/>
            </member-type>
          </class-decl>
        </member-type>
        <member-function access='public'>
          <function-decl name='allocator' filepath='/usr/include/c++/4.9/bits/allocator.h' line='113' column='1' visibility='default' binding='global' size-in-bits='64'>
            <parameter type-id='type-id-1924' is-artificial='yes'/>
            <return type-id='type-id-62'/>
          </function-decl>
        </member-function>
        <member-function access='public'>
          <function-decl name='allocator' filepath='/usr/include/c++/4.9/bits/allocator.h' line='115' column='1' visibility='default' binding='global' size-in-bits='64'>
            <parameter type-id='type-id-1924' is-artificial='yes'/>
            <parameter type-id='type-id-1039'/>
            <return type-id='type-id-62'/>
          </function-decl>
        </member-function>
        <member-function access='public' destructor='yes'>
          <function-decl name='~allocator' filepath='/usr/include/c++/4.9/bits/allocator.h' line='121' column='1' visibility='default' binding='global' size-in-bits='64'>
            <parameter type-id='type-id-1924' is-artificial='yes'/>
            <parameter type-id='type-id-29' is-artificial='yes'/>
            <return type-id='type-id-62'/>
          </function-decl>
        </member-function>
      </class-decl>
      <class-decl name='allocator&lt;boost::shared_ptr&lt;boost::program_options::options_description&gt; &gt;' size-in-bits='8' visibility='default' filepath='/usr/include/c++/4.9/bits/allocator.h' line='92' column='1' id='type-id-1040'>
        <base-class access='public' layout-offset-in-bits='0' type-id='type-id-143'/>
        <member-type access='public'>
          <typedef-decl name='size_type' type-id='type-id-1335' filepath='/usr/include/c++/4.9/bits/allocator.h' line='95' column='1' id='type-id-2242'/>
        </member-type>
        <member-type access='public'>
          <typedef-decl name='pointer' type-id='type-id-215' filepath='/usr/include/c++/4.9/bits/allocator.h' line='97' column='1' id='type-id-2236'/>
        </member-type>
        <member-type access='public'>
          <typedef-decl name='value_type' type-id='type-id-213' filepath='/usr/include/c++/4.9/bits/allocator.h' line='101' column='1' id='type-id-2235'/>
        </member-type>
        <member-type access='public'>
          <class-decl name='rebind&lt;boost::shared_ptr&lt;boost::program_options::options_description&gt; &gt;' size-in-bits='8' is-struct='yes' visibility='default' filepath='/usr/include/c++/4.9/bits/allocator.h' line='104' column='1' id='type-id-2356'>
            <member-type access='public'>
              <typedef-decl name='other' type-id='type-id-1040' filepath='/usr/include/c++/4.9/bits/allocator.h' line='105' column='1' id='type-id-2193'/>
            </member-type>
          </class-decl>
        </member-type>
        <member-function access='public'>
          <function-decl name='allocator' filepath='/usr/include/c++/4.9/bits/allocator.h' line='113' column='1' visibility='default' binding='global' size-in-bits='64'>
            <parameter type-id='type-id-1926' is-artificial='yes'/>
            <return type-id='type-id-62'/>
          </function-decl>
        </member-function>
        <member-function access='public'>
          <function-decl name='allocator' filepath='/usr/include/c++/4.9/bits/allocator.h' line='115' column='1' visibility='default' binding='global' size-in-bits='64'>
            <parameter type-id='type-id-1926' is-artificial='yes'/>
            <parameter type-id='type-id-1042'/>
            <return type-id='type-id-62'/>
          </function-decl>
        </member-function>
        <member-function access='public' destructor='yes'>
          <function-decl name='~allocator' filepath='/usr/include/c++/4.9/bits/allocator.h' line='121' column='1' visibility='default' binding='global' size-in-bits='64'>
            <parameter type-id='type-id-1926' is-artificial='yes'/>
            <parameter type-id='type-id-29' is-artificial='yes'/>
            <return type-id='type-id-62'/>
          </function-decl>
        </member-function>
      </class-decl>
      <class-decl name='allocator&lt;char&gt;' size-in-bits='8' visibility='default' filepath='/usr/include/c++/4.9/bits/allocator.h' line='92' column='1' id='type-id-1043'>
        <base-class access='public' layout-offset-in-bits='0' type-id='type-id-145'/>
        <member-type access='public'>
          <typedef-decl name='size_type' type-id='type-id-1335' filepath='/usr/include/c++/4.9/bits/allocator.h' line='95' column='1' id='type-id-2357'/>
        </member-type>
        <member-type access='public'>
          <typedef-decl name='reference' type-id='type-id-216' filepath='/usr/include/c++/4.9/bits/allocator.h' line='99' column='1' id='type-id-2358'/>
        </member-type>
        <member-type access='public'>
          <typedef-decl name='const_reference' type-id='type-id-362' filepath='/usr/include/c++/4.9/bits/allocator.h' line='100' column='1' id='type-id-2359'/>
        </member-type>
        <member-function access='public'>
          <function-decl name='allocator' filepath='/usr/include/c++/4.9/bits/allocator.h' line='113' column='1' visibility='default' binding='global' size-in-bits='64'>
            <parameter type-id='type-id-1927' is-artificial='yes'/>
            <return type-id='type-id-62'/>
          </function-decl>
        </member-function>
        <member-function access='public'>
          <function-decl name='allocator' filepath='/usr/include/c++/4.9/bits/allocator.h' line='115' column='1' visibility='default' binding='global' size-in-bits='64'>
            <parameter type-id='type-id-1927' is-artificial='yes'/>
            <parameter type-id='type-id-1045'/>
            <return type-id='type-id-62'/>
          </function-decl>
        </member-function>
        <member-function access='public' destructor='yes'>
          <function-decl name='~allocator' filepath='/usr/include/c++/4.9/bits/allocator.h' line='121' column='1' visibility='default' binding='global' size-in-bits='64'>
            <parameter type-id='type-id-1927' is-artificial='yes'/>
            <parameter type-id='type-id-29' is-artificial='yes'/>
            <return type-id='type-id-62'/>
          </function-decl>
        </member-function>
      </class-decl>
      <class-decl name='allocator&lt;long unsigned int&gt;' size-in-bits='8' visibility='default' filepath='/usr/include/c++/4.9/bits/allocator.h' line='92' column='1' id='type-id-1046'>
        <base-class access='public' layout-offset-in-bits='0' type-id='type-id-147'/>
        <member-function access='public'>
          <function-decl name='allocator' filepath='/usr/include/c++/4.9/bits/allocator.h' line='113' column='1' visibility='default' binding='global' size-in-bits='64'>
            <parameter type-id='type-id-1928' is-artificial='yes'/>
            <return type-id='type-id-62'/>
          </function-decl>
        </member-function>
        <member-function access='public'>
          <function-decl name='allocator' filepath='/usr/include/c++/4.9/bits/allocator.h' line='115' column='1' visibility='default' binding='global' size-in-bits='64'>
            <parameter type-id='type-id-1928' is-artificial='yes'/>
            <parameter type-id='type-id-1048'/>
            <return type-id='type-id-62'/>
          </function-decl>
        </member-function>
        <member-function access='public' destructor='yes'>
          <function-decl name='~allocator' filepath='/usr/include/c++/4.9/bits/allocator.h' line='121' column='1' visibility='default' binding='global' size-in-bits='64'>
            <parameter type-id='type-id-1928' is-artificial='yes'/>
            <parameter type-id='type-id-29' is-artificial='yes'/>
            <return type-id='type-id-62'/>
          </function-decl>
        </member-function>
      </class-decl>
      <class-decl name='allocator&lt;mongo::logger::Appender&lt;mongo::logger::MessageEventEphemeral&gt;*&gt;' size-in-bits='8' visibility='default' filepath='/usr/include/c++/4.9/bits/allocator.h' line='92' column='1' id='type-id-1049'>
        <base-class access='public' layout-offset-in-bits='0' type-id='type-id-149'/>
        <member-type access='public'>
          <typedef-decl name='size_type' type-id='type-id-1335' filepath='/usr/include/c++/4.9/bits/allocator.h' line='95' column='1' id='type-id-2254'/>
        </member-type>
        <member-type access='public'>
          <typedef-decl name='pointer' type-id='type-id-1595' filepath='/usr/include/c++/4.9/bits/allocator.h' line='97' column='1' id='type-id-2248'/>
        </member-type>
        <member-type access='public'>
          <typedef-decl name='value_type' type-id='type-id-1590' filepath='/usr/include/c++/4.9/bits/allocator.h' line='101' column='1' id='type-id-2247'/>
        </member-type>
        <member-type access='public'>
          <class-decl name='rebind&lt;mongo::logger::Appender&lt;mongo::logger::MessageEventEphemeral&gt;*&gt;' size-in-bits='8' is-struct='yes' visibility='default' filepath='/usr/include/c++/4.9/bits/allocator.h' line='104' column='1' id='type-id-2360'>
            <member-type access='public'>
              <typedef-decl name='other' type-id='type-id-1049' filepath='/usr/include/c++/4.9/bits/allocator.h' line='105' column='1' id='type-id-2196'/>
            </member-type>
          </class-decl>
        </member-type>
        <member-function access='public'>
          <function-decl name='allocator' filepath='/usr/include/c++/4.9/bits/allocator.h' line='113' column='1' visibility='default' binding='global' size-in-bits='64'>
            <parameter type-id='type-id-1930' is-artificial='yes'/>
            <return type-id='type-id-62'/>
          </function-decl>
        </member-function>
        <member-function access='public'>
          <function-decl name='allocator' filepath='/usr/include/c++/4.9/bits/allocator.h' line='115' column='1' visibility='default' binding='global' size-in-bits='64'>
            <parameter type-id='type-id-1930' is-artificial='yes'/>
            <parameter type-id='type-id-1051'/>
            <return type-id='type-id-62'/>
          </function-decl>
        </member-function>
        <member-function access='public' destructor='yes'>
          <function-decl name='~allocator' filepath='/usr/include/c++/4.9/bits/allocator.h' line='121' column='1' visibility='default' binding='global' size-in-bits='64'>
            <parameter type-id='type-id-1930' is-artificial='yes'/>
            <parameter type-id='type-id-29' is-artificial='yes'/>
            <return type-id='type-id-62'/>
          </function-decl>
        </member-function>
      </class-decl>
      <class-decl name='allocator&lt;mongo::optionenvironment::Constraint*&gt;' size-in-bits='8' visibility='default' filepath='/usr/include/c++/4.9/bits/allocator.h' line='92' column='1' id='type-id-1052'>
        <base-class access='public' layout-offset-in-bits='0' type-id='type-id-151'/>
        <member-type access='public'>
          <typedef-decl name='size_type' type-id='type-id-1335' filepath='/usr/include/c++/4.9/bits/allocator.h' line='95' column='1' id='type-id-2266'/>
        </member-type>
        <member-type access='public'>
          <typedef-decl name='pointer' type-id='type-id-1625' filepath='/usr/include/c++/4.9/bits/allocator.h' line='97' column='1' id='type-id-2260'/>
        </member-type>
        <member-type access='public'>
          <typedef-decl name='value_type' type-id='type-id-1620' filepath='/usr/include/c++/4.9/bits/allocator.h' line='101' column='1' id='type-id-2259'/>
        </member-type>
        <member-type access='public'>
          <class-decl name='rebind&lt;mongo::optionenvironment::Constraint*&gt;' size-in-bits='8' is-struct='yes' visibility='default' filepath='/usr/include/c++/4.9/bits/allocator.h' line='104' column='1' id='type-id-2361'>
            <member-type access='public'>
              <typedef-decl name='other' type-id='type-id-1052' filepath='/usr/include/c++/4.9/bits/allocator.h' line='105' column='1' id='type-id-2199'/>
            </member-type>
          </class-decl>
        </member-type>
        <member-function access='public'>
          <function-decl name='allocator' filepath='/usr/include/c++/4.9/bits/allocator.h' line='113' column='1' visibility='default' binding='global' size-in-bits='64'>
            <parameter type-id='type-id-1932' is-artificial='yes'/>
            <return type-id='type-id-62'/>
          </function-decl>
        </member-function>
        <member-function access='public'>
          <function-decl name='allocator' filepath='/usr/include/c++/4.9/bits/allocator.h' line='115' column='1' visibility='default' binding='global' size-in-bits='64'>
            <parameter type-id='type-id-1932' is-artificial='yes'/>
            <parameter type-id='type-id-1054'/>
            <return type-id='type-id-62'/>
          </function-decl>
        </member-function>
        <member-function access='public' destructor='yes'>
          <function-decl name='~allocator' filepath='/usr/include/c++/4.9/bits/allocator.h' line='121' column='1' visibility='default' binding='global' size-in-bits='64'>
            <parameter type-id='type-id-1932' is-artificial='yes'/>
            <parameter type-id='type-id-29' is-artificial='yes'/>
            <return type-id='type-id-62'/>
          </function-decl>
        </member-function>
      </class-decl>
      <class-decl name='allocator&lt;mongo::optionenvironment::KeyConstraint*&gt;' size-in-bits='8' visibility='default' filepath='/usr/include/c++/4.9/bits/allocator.h' line='92' column='1' id='type-id-1055'>
        <base-class access='public' layout-offset-in-bits='0' type-id='type-id-153'/>
        <member-type access='public'>
          <typedef-decl name='size_type' type-id='type-id-1335' filepath='/usr/include/c++/4.9/bits/allocator.h' line='95' column='1' id='type-id-2278'/>
        </member-type>
        <member-type access='public'>
          <typedef-decl name='pointer' type-id='type-id-1633' filepath='/usr/include/c++/4.9/bits/allocator.h' line='97' column='1' id='type-id-2272'/>
        </member-type>
        <member-type access='public'>
          <typedef-decl name='value_type' type-id='type-id-1628' filepath='/usr/include/c++/4.9/bits/allocator.h' line='101' column='1' id='type-id-2271'/>
        </member-type>
        <member-type access='public'>
          <class-decl name='rebind&lt;mongo::optionenvironment::KeyConstraint*&gt;' size-in-bits='8' is-struct='yes' visibility='default' filepath='/usr/include/c++/4.9/bits/allocator.h' line='104' column='1' id='type-id-2362'>
            <member-type access='public'>
              <typedef-decl name='other' type-id='type-id-1055' filepath='/usr/include/c++/4.9/bits/allocator.h' line='105' column='1' id='type-id-2202'/>
            </member-type>
          </class-decl>
        </member-type>
        <member-function access='public'>
          <function-decl name='allocator' filepath='/usr/include/c++/4.9/bits/allocator.h' line='113' column='1' visibility='default' binding='global' size-in-bits='64'>
            <parameter type-id='type-id-1934' is-artificial='yes'/>
            <return type-id='type-id-62'/>
          </function-decl>
        </member-function>
        <member-function access='public'>
          <function-decl name='allocator' filepath='/usr/include/c++/4.9/bits/allocator.h' line='115' column='1' visibility='default' binding='global' size-in-bits='64'>
            <parameter type-id='type-id-1934' is-artificial='yes'/>
            <parameter type-id='type-id-1057'/>
            <return type-id='type-id-62'/>
          </function-decl>
        </member-function>
        <member-function access='public' destructor='yes'>
          <function-decl name='~allocator' filepath='/usr/include/c++/4.9/bits/allocator.h' line='121' column='1' visibility='default' binding='global' size-in-bits='64'>
            <parameter type-id='type-id-1934' is-artificial='yes'/>
            <parameter type-id='type-id-29' is-artificial='yes'/>
            <return type-id='type-id-62'/>
          </function-decl>
        </member-function>
      </class-decl>
      <class-decl name='allocator&lt;mongo::optionenvironment::OptionDescription&gt;' size-in-bits='8' visibility='default' filepath='/usr/include/c++/4.9/bits/allocator.h' line='92' column='1' id='type-id-1058'>
        <base-class access='public' layout-offset-in-bits='0' type-id='type-id-155'/>
        <member-type access='public'>
          <typedef-decl name='reference' type-id='type-id-1634' filepath='/usr/include/c++/4.9/bits/allocator.h' line='99' column='1' id='type-id-2363'/>
        </member-type>
        <member-type access='public'>
          <typedef-decl name='const_reference' type-id='type-id-580' filepath='/usr/include/c++/4.9/bits/allocator.h' line='100' column='1' id='type-id-2364'/>
        </member-type>
        <member-type access='public'>
          <class-decl name='rebind&lt;mongo::optionenvironment::OptionDescription&gt;' size-in-bits='8' is-struct='yes' visibility='default' filepath='/usr/include/c++/4.9/bits/allocator.h' line='104' column='1' id='type-id-2365'>
            <member-type access='public'>
              <typedef-decl name='other' type-id='type-id-1058' filepath='/usr/include/c++/4.9/bits/allocator.h' line='105' column='1' id='type-id-2366'/>
            </member-type>
          </class-decl>
        </member-type>
        <member-type access='public'>
          <class-decl name='rebind&lt;std::_List_node&lt;mongo::optionenvironment::OptionDescription&gt; &gt;' size-in-bits='8' is-struct='yes' visibility='default' filepath='/usr/include/c++/4.9/bits/allocator.h' line='104' column='1' id='type-id-2367'>
            <member-type access='public'>
              <typedef-decl name='other' type-id='type-id-1064' filepath='/usr/include/c++/4.9/bits/allocator.h' line='105' column='1' id='type-id-2368'/>
            </member-type>
          </class-decl>
        </member-type>
        <member-function access='public'>
          <function-decl name='allocator' filepath='/usr/include/c++/4.9/bits/allocator.h' line='113' column='1' visibility='default' binding='global' size-in-bits='64'>
            <parameter type-id='type-id-1935' is-artificial='yes'/>
            <return type-id='type-id-62'/>
          </function-decl>
        </member-function>
        <member-function access='public'>
          <function-decl name='allocator' filepath='/usr/include/c++/4.9/bits/allocator.h' line='115' column='1' visibility='default' binding='global' size-in-bits='64'>
            <parameter type-id='type-id-1935' is-artificial='yes'/>
            <parameter type-id='type-id-1060'/>
            <return type-id='type-id-62'/>
          </function-decl>
        </member-function>
        <member-function access='public' destructor='yes'>
          <function-decl name='~allocator' filepath='/usr/include/c++/4.9/bits/allocator.h' line='121' column='1' visibility='default' binding='global' size-in-bits='64'>
            <parameter type-id='type-id-1935' is-artificial='yes'/>
            <parameter type-id='type-id-29' is-artificial='yes'/>
            <return type-id='type-id-62'/>
          </function-decl>
        </member-function>
      </class-decl>
      <class-decl name='allocator&lt;mongo::optionenvironment::OptionSection&gt;' size-in-bits='8' visibility='default' filepath='/usr/include/c++/4.9/bits/allocator.h' line='92' column='1' id='type-id-1061'>
        <base-class access='public' layout-offset-in-bits='0' type-id='type-id-157'/>
        <member-type access='public'>
          <typedef-decl name='reference' type-id='type-id-1636' filepath='/usr/include/c++/4.9/bits/allocator.h' line='99' column='1' id='type-id-2369'/>
        </member-type>
        <member-type access='public'>
          <typedef-decl name='const_reference' type-id='type-id-584' filepath='/usr/include/c++/4.9/bits/allocator.h' line='100' column='1' id='type-id-2370'/>
        </member-type>
        <member-type access='public'>
          <class-decl name='rebind&lt;mongo::optionenvironment::OptionSection&gt;' size-in-bits='8' is-struct='yes' visibility='default' filepath='/usr/include/c++/4.9/bits/allocator.h' line='104' column='1' id='type-id-2371'>
            <member-type access='public'>
              <typedef-decl name='other' type-id='type-id-1061' filepath='/usr/include/c++/4.9/bits/allocator.h' line='105' column='1' id='type-id-2372'/>
            </member-type>
          </class-decl>
        </member-type>
        <member-type access='public'>
          <class-decl name='rebind&lt;std::_List_node&lt;mongo::optionenvironment::OptionSection&gt; &gt;' size-in-bits='8' is-struct='yes' visibility='default' filepath='/usr/include/c++/4.9/bits/allocator.h' line='104' column='1' id='type-id-2373'>
            <member-type access='public'>
              <typedef-decl name='other' type-id='type-id-1067' filepath='/usr/include/c++/4.9/bits/allocator.h' line='105' column='1' id='type-id-2374'/>
            </member-type>
          </class-decl>
        </member-type>
        <member-function access='public'>
          <function-decl name='allocator' filepath='/usr/include/c++/4.9/bits/allocator.h' line='113' column='1' visibility='default' binding='global' size-in-bits='64'>
            <parameter type-id='type-id-1936' is-artificial='yes'/>
            <return type-id='type-id-62'/>
          </function-decl>
        </member-function>
        <member-function access='public'>
          <function-decl name='allocator' filepath='/usr/include/c++/4.9/bits/allocator.h' line='115' column='1' visibility='default' binding='global' size-in-bits='64'>
            <parameter type-id='type-id-1936' is-artificial='yes'/>
            <parameter type-id='type-id-1063'/>
            <return type-id='type-id-62'/>
          </function-decl>
        </member-function>
        <member-function access='public' destructor='yes'>
          <function-decl name='~allocator' filepath='/usr/include/c++/4.9/bits/allocator.h' line='121' column='1' visibility='default' binding='global' size-in-bits='64'>
            <parameter type-id='type-id-1936' is-artificial='yes'/>
            <parameter type-id='type-id-29' is-artificial='yes'/>
            <return type-id='type-id-62'/>
          </function-decl>
        </member-function>
      </class-decl>
      <class-decl name='allocator&lt;std::_List_node&lt;mongo::optionenvironment::OptionDescription&gt; &gt;' size-in-bits='8' visibility='default' filepath='/usr/include/c++/4.9/bits/allocator.h' line='92' column='1' id='type-id-1064'>
        <base-class access='public' layout-offset-in-bits='0' type-id='type-id-159'/>
        <member-function access='public'>
          <function-decl name='allocator' filepath='/usr/include/c++/4.9/bits/allocator.h' line='113' column='1' visibility='default' binding='global' size-in-bits='64'>
            <parameter type-id='type-id-1937' is-artificial='yes'/>
            <return type-id='type-id-62'/>
          </function-decl>
        </member-function>
        <member-function access='public'>
          <function-decl name='allocator' filepath='/usr/include/c++/4.9/bits/allocator.h' line='115' column='1' visibility='default' binding='global' size-in-bits='64'>
            <parameter type-id='type-id-1937' is-artificial='yes'/>
            <parameter type-id='type-id-1066'/>
            <return type-id='type-id-62'/>
          </function-decl>
        </member-function>
        <member-function access='public' destructor='yes'>
          <function-decl name='~allocator' filepath='/usr/include/c++/4.9/bits/allocator.h' line='121' column='1' visibility='default' binding='global' size-in-bits='64'>
            <parameter type-id='type-id-1937' is-artificial='yes'/>
            <parameter type-id='type-id-29' is-artificial='yes'/>
            <return type-id='type-id-62'/>
          </function-decl>
        </member-function>
        <member-function access='public' destructor='yes'>
          <function-decl name='~allocator' mangled-name='_ZNSaISt10_List_nodeIN5mongo17optionenvironment17OptionDescriptionEEED2Ev' filepath='/usr/include/c++/4.9/bits/allocator.h' line='121' column='1' visibility='default' binding='global' size-in-bits='64' elf-symbol-id='_ZNSaISt10_List_nodeIN5mongo17optionenvironment17OptionDescriptionEEED2Ev'>
            <parameter type-id='type-id-1937' is-artificial='yes'/>
            <parameter type-id='type-id-29' is-artificial='yes'/>
            <return type-id='type-id-62'/>
          </function-decl>
        </member-function>
        <member-function access='public'>
          <function-decl name='allocator' mangled-name='_ZNSaISt10_List_nodeIN5mongo17optionenvironment17OptionDescriptionEEEC2Ev' filepath='/usr/include/c++/4.9/bits/allocator.h' line='113' column='1' visibility='default' binding='global' size-in-bits='64' elf-symbol-id='_ZNSaISt10_List_nodeIN5mongo17optionenvironment17OptionDescriptionEEEC2Ev'>
            <parameter type-id='type-id-1937' is-artificial='yes'/>
            <return type-id='type-id-62'/>
          </function-decl>
        </member-function>
      </class-decl>
      <class-decl name='allocator&lt;std::_List_node&lt;mongo::optionenvironment::OptionSection&gt; &gt;' size-in-bits='8' visibility='default' filepath='/usr/include/c++/4.9/bits/allocator.h' line='92' column='1' id='type-id-1067'>
        <base-class access='public' layout-offset-in-bits='0' type-id='type-id-161'/>
        <member-function access='public'>
          <function-decl name='allocator' filepath='/usr/include/c++/4.9/bits/allocator.h' line='113' column='1' visibility='default' binding='global' size-in-bits='64'>
            <parameter type-id='type-id-1938' is-artificial='yes'/>
            <return type-id='type-id-62'/>
          </function-decl>
        </member-function>
        <member-function access='public'>
          <function-decl name='allocator' filepath='/usr/include/c++/4.9/bits/allocator.h' line='115' column='1' visibility='default' binding='global' size-in-bits='64'>
            <parameter type-id='type-id-1938' is-artificial='yes'/>
            <parameter type-id='type-id-1069'/>
            <return type-id='type-id-62'/>
          </function-decl>
        </member-function>
        <member-function access='public' destructor='yes'>
          <function-decl name='~allocator' filepath='/usr/include/c++/4.9/bits/allocator.h' line='121' column='1' visibility='default' binding='global' size-in-bits='64'>
            <parameter type-id='type-id-1938' is-artificial='yes'/>
            <parameter type-id='type-id-29' is-artificial='yes'/>
            <return type-id='type-id-62'/>
          </function-decl>
        </member-function>
        <member-function access='public' destructor='yes'>
          <function-decl name='~allocator' mangled-name='_ZNSaISt10_List_nodeIN5mongo17optionenvironment13OptionSectionEEED2Ev' filepath='/usr/include/c++/4.9/bits/allocator.h' line='121' column='1' visibility='default' binding='global' size-in-bits='64' elf-symbol-id='_ZNSaISt10_List_nodeIN5mongo17optionenvironment13OptionSectionEEED2Ev'>
            <parameter type-id='type-id-1938' is-artificial='yes'/>
            <parameter type-id='type-id-29' is-artificial='yes'/>
            <return type-id='type-id-62'/>
          </function-decl>
        </member-function>
        <member-function access='public'>
          <function-decl name='allocator' mangled-name='_ZNSaISt10_List_nodeIN5mongo17optionenvironment13OptionSectionEEEC2Ev' filepath='/usr/include/c++/4.9/bits/allocator.h' line='113' column='1' visibility='default' binding='global' size-in-bits='64' elf-symbol-id='_ZNSaISt10_List_nodeIN5mongo17optionenvironment13OptionSectionEEEC2Ev'>
            <parameter type-id='type-id-1938' is-artificial='yes'/>
            <return type-id='type-id-62'/>
          </function-decl>
        </member-function>
      </class-decl>
      <class-decl name='allocator&lt;std::_Rb_tree_node&lt;std::basic_string&lt;char, std::char_traits&lt;char&gt;, std::allocator&lt;char&gt; &gt; &gt; &gt;' size-in-bits='8' visibility='default' filepath='/usr/include/c++/4.9/bits/allocator.h' line='92' column='1' id='type-id-1070'>
        <base-class access='public' layout-offset-in-bits='0' type-id='type-id-163'/>
        <member-function access='public'>
          <function-decl name='allocator' filepath='/usr/include/c++/4.9/bits/allocator.h' line='113' column='1' visibility='default' binding='global' size-in-bits='64'>
            <parameter type-id='type-id-1939' is-artificial='yes'/>
            <return type-id='type-id-62'/>
          </function-decl>
        </member-function>
        <member-function access='public'>
          <function-decl name='allocator' filepath='/usr/include/c++/4.9/bits/allocator.h' line='115' column='1' visibility='default' binding='global' size-in-bits='64'>
            <parameter type-id='type-id-1939' is-artificial='yes'/>
            <parameter type-id='type-id-1072'/>
            <return type-id='type-id-62'/>
          </function-decl>
        </member-function>
        <member-function access='public' destructor='yes'>
          <function-decl name='~allocator' filepath='/usr/include/c++/4.9/bits/allocator.h' line='121' column='1' visibility='default' binding='global' size-in-bits='64'>
            <parameter type-id='type-id-1939' is-artificial='yes'/>
            <parameter type-id='type-id-29' is-artificial='yes'/>
            <return type-id='type-id-62'/>
          </function-decl>
        </member-function>
      </class-decl>
      <class-decl name='allocator&lt;std::_Rb_tree_node&lt;std::pair&lt;const std::basic_string&lt;char, std::char_traits&lt;char&gt;, std::allocator&lt;char&gt; &gt;, mongo::ServerParameter*&gt; &gt; &gt;' size-in-bits='8' visibility='default' filepath='/usr/include/c++/4.9/bits/allocator.h' line='92' column='1' id='type-id-1073'>
        <base-class access='public' layout-offset-in-bits='0' type-id='type-id-165'/>
        <member-function access='public'>
          <function-decl name='allocator' filepath='/usr/include/c++/4.9/bits/allocator.h' line='113' column='1' visibility='default' binding='global' size-in-bits='64'>
            <parameter type-id='type-id-1940' is-artificial='yes'/>
            <return type-id='type-id-62'/>
          </function-decl>
        </member-function>
        <member-function access='public'>
          <function-decl name='allocator' filepath='/usr/include/c++/4.9/bits/allocator.h' line='115' column='1' visibility='default' binding='global' size-in-bits='64'>
            <parameter type-id='type-id-1940' is-artificial='yes'/>
            <parameter type-id='type-id-1075'/>
            <return type-id='type-id-62'/>
          </function-decl>
        </member-function>
        <member-function access='public' destructor='yes'>
          <function-decl name='~allocator' filepath='/usr/include/c++/4.9/bits/allocator.h' line='121' column='1' visibility='default' binding='global' size-in-bits='64'>
            <parameter type-id='type-id-1940' is-artificial='yes'/>
            <parameter type-id='type-id-29' is-artificial='yes'/>
            <return type-id='type-id-62'/>
          </function-decl>
        </member-function>
      </class-decl>
      <class-decl name='allocator&lt;std::_Rb_tree_node&lt;std::pair&lt;const std::basic_string&lt;char, std::char_traits&lt;char&gt;, std::allocator&lt;char&gt; &gt;, mongo::optionenvironment::Value&gt; &gt; &gt;' size-in-bits='8' visibility='default' filepath='/usr/include/c++/4.9/bits/allocator.h' line='92' column='1' id='type-id-1076'>
        <base-class access='public' layout-offset-in-bits='0' type-id='type-id-167'/>
        <member-function access='public'>
          <function-decl name='allocator' filepath='/usr/include/c++/4.9/bits/allocator.h' line='113' column='1' visibility='default' binding='global' size-in-bits='64'>
            <parameter type-id='type-id-1941' is-artificial='yes'/>
            <return type-id='type-id-62'/>
          </function-decl>
        </member-function>
        <member-function access='public'>
          <function-decl name='allocator' filepath='/usr/include/c++/4.9/bits/allocator.h' line='115' column='1' visibility='default' binding='global' size-in-bits='64'>
            <parameter type-id='type-id-1941' is-artificial='yes'/>
            <parameter type-id='type-id-1078'/>
            <return type-id='type-id-62'/>
          </function-decl>
        </member-function>
        <member-function access='public' destructor='yes'>
          <function-decl name='~allocator' filepath='/usr/include/c++/4.9/bits/allocator.h' line='121' column='1' visibility='default' binding='global' size-in-bits='64'>
            <parameter type-id='type-id-1941' is-artificial='yes'/>
            <parameter type-id='type-id-29' is-artificial='yes'/>
            <return type-id='type-id-62'/>
          </function-decl>
        </member-function>
      </class-decl>
      <class-decl name='allocator&lt;std::_Rb_tree_node&lt;std::pair&lt;const std::basic_string&lt;char, std::char_traits&lt;char&gt;, std::allocator&lt;char&gt; &gt;, std::basic_string&lt;char, std::char_traits&lt;char&gt;, std::allocator&lt;char&gt; &gt; &gt; &gt; &gt;' size-in-bits='8' visibility='default' filepath='/usr/include/c++/4.9/bits/allocator.h' line='92' column='1' id='type-id-1079'>
        <base-class access='public' layout-offset-in-bits='0' type-id='type-id-169'/>
        <member-type access='public'>
          <typedef-decl name='size_type' type-id='type-id-1335' filepath='/usr/include/c++/4.9/bits/allocator.h' line='95' column='1' id='type-id-2290'/>
        </member-type>
        <member-type access='public'>
          <typedef-decl name='pointer' type-id='type-id-1760' filepath='/usr/include/c++/4.9/bits/allocator.h' line='97' column='1' id='type-id-2284'/>
        </member-type>
        <member-type access='public'>
          <typedef-decl name='value_type' type-id='type-id-833' filepath='/usr/include/c++/4.9/bits/allocator.h' line='101' column='1' id='type-id-2283'/>
        </member-type>
        <member-function access='public'>
          <function-decl name='allocator' filepath='/usr/include/c++/4.9/bits/allocator.h' line='113' column='1' visibility='default' binding='global' size-in-bits='64'>
            <parameter type-id='type-id-1943' is-artificial='yes'/>
            <return type-id='type-id-62'/>
          </function-decl>
        </member-function>
        <member-function access='public'>
          <function-decl name='allocator' filepath='/usr/include/c++/4.9/bits/allocator.h' line='115' column='1' visibility='default' binding='global' size-in-bits='64'>
            <parameter type-id='type-id-1943' is-artificial='yes'/>
            <parameter type-id='type-id-1081'/>
            <return type-id='type-id-62'/>
          </function-decl>
        </member-function>
        <member-function access='public' destructor='yes'>
          <function-decl name='~allocator' filepath='/usr/include/c++/4.9/bits/allocator.h' line='121' column='1' visibility='default' binding='global' size-in-bits='64'>
            <parameter type-id='type-id-1943' is-artificial='yes'/>
            <parameter type-id='type-id-29' is-artificial='yes'/>
            <return type-id='type-id-62'/>
          </function-decl>
        </member-function>
        <member-function access='public' destructor='yes'>
          <function-decl name='~allocator' mangled-name='_ZNSaISt13_Rb_tree_nodeISt4pairIKSsSsEEED2Ev' filepath='/usr/include/c++/4.9/bits/allocator.h' line='121' column='1' visibility='default' binding='global' size-in-bits='64' elf-symbol-id='_ZNSaISt13_Rb_tree_nodeISt4pairIKSsSsEEED2Ev'>
            <parameter type-id='type-id-1943' is-artificial='yes'/>
            <parameter type-id='type-id-29' is-artificial='yes'/>
            <return type-id='type-id-62'/>
          </function-decl>
        </member-function>
        <member-function access='public'>
          <function-decl name='allocator' mangled-name='_ZNSaISt13_Rb_tree_nodeISt4pairIKSsSsEEEC2Ev' filepath='/usr/include/c++/4.9/bits/allocator.h' line='113' column='1' visibility='default' binding='global' size-in-bits='64' elf-symbol-id='_ZNSaISt13_Rb_tree_nodeISt4pairIKSsSsEEEC2Ev'>
            <parameter type-id='type-id-1943' is-artificial='yes'/>
            <return type-id='type-id-62'/>
          </function-decl>
        </member-function>
      </class-decl>
      <class-decl name='allocator&lt;std::__detail::_Hash_node&lt;std::pair&lt;const std::basic_string&lt;char, std::char_traits&lt;char&gt;, std::allocator&lt;char&gt; &gt;, mongo::logger::LogDomain&lt;mongo::logger::MessageEventEphemeral&gt;*&gt;, true&gt; &gt;' size-in-bits='8' visibility='default' filepath='/usr/include/c++/4.9/bits/allocator.h' line='92' column='1' id='type-id-1082'>
        <base-class access='public' layout-offset-in-bits='0' type-id='type-id-171'/>
        <member-type access='public'>
          <typedef-decl name='value_type' type-id='type-id-962' filepath='/usr/include/c++/4.9/bits/allocator.h' line='101' column='1' id='type-id-2375'/>
        </member-type>
        <member-function access='public'>
          <function-decl name='allocator' filepath='/usr/include/c++/4.9/bits/allocator.h' line='113' column='1' visibility='default' binding='global' size-in-bits='64'>
            <parameter type-id='type-id-1945' is-artificial='yes'/>
            <return type-id='type-id-62'/>
          </function-decl>
        </member-function>
        <member-function access='public'>
          <function-decl name='allocator' filepath='/usr/include/c++/4.9/bits/allocator.h' line='115' column='1' visibility='default' binding='global' size-in-bits='64'>
            <parameter type-id='type-id-1945' is-artificial='yes'/>
            <parameter type-id='type-id-1084'/>
            <return type-id='type-id-62'/>
          </function-decl>
        </member-function>
        <member-function access='public' destructor='yes'>
          <function-decl name='~allocator' filepath='/usr/include/c++/4.9/bits/allocator.h' line='121' column='1' visibility='default' binding='global' size-in-bits='64'>
            <parameter type-id='type-id-1945' is-artificial='yes'/>
            <parameter type-id='type-id-29' is-artificial='yes'/>
            <return type-id='type-id-62'/>
          </function-decl>
        </member-function>
      </class-decl>
      <class-decl name='allocator&lt;std::basic_string&lt;char, std::char_traits&lt;char&gt;, std::allocator&lt;char&gt; &gt; &gt;' size-in-bits='8' visibility='default' filepath='/usr/include/c++/4.9/bits/allocator.h' line='92' column='1' id='type-id-1085'>
        <base-class access='public' layout-offset-in-bits='0' type-id='type-id-173'/>
        <member-type access='public'>
          <typedef-decl name='size_type' type-id='type-id-1335' filepath='/usr/include/c++/4.9/bits/allocator.h' line='95' column='1' id='type-id-2301'/>
        </member-type>
        <member-type access='public'>
          <typedef-decl name='pointer' type-id='type-id-1989' filepath='/usr/include/c++/4.9/bits/allocator.h' line='97' column='1' id='type-id-2295'/>
        </member-type>
        <member-type access='public'>
          <typedef-decl name='value_type' type-id='type-id-37' filepath='/usr/include/c++/4.9/bits/allocator.h' line='101' column='1' id='type-id-2294'/>
        </member-type>
        <member-type access='public'>
          <class-decl name='rebind&lt;std::_Rb_tree_node&lt;std::basic_string&lt;char, std::char_traits&lt;char&gt;, std::allocator&lt;char&gt; &gt; &gt; &gt;' size-in-bits='8' is-struct='yes' visibility='default' filepath='/usr/include/c++/4.9/bits/allocator.h' line='104' column='1' id='type-id-2376'>
            <member-type access='public'>
              <typedef-decl name='other' type-id='type-id-1070' filepath='/usr/include/c++/4.9/bits/allocator.h' line='105' column='1' id='type-id-2205'/>
            </member-type>
          </class-decl>
        </member-type>
        <member-type access='public'>
          <class-decl name='rebind&lt;std::basic_string&lt;char, std::char_traits&lt;char&gt;, std::allocator&lt;char&gt; &gt; &gt;' size-in-bits='8' is-struct='yes' visibility='default' filepath='/usr/include/c++/4.9/bits/allocator.h' line='104' column='1' id='type-id-2377'>
            <member-type access='public'>
              <typedef-decl name='other' type-id='type-id-1085' filepath='/usr/include/c++/4.9/bits/allocator.h' line='105' column='1' id='type-id-2208'/>
            </member-type>
          </class-decl>
        </member-type>
        <member-function access='public'>
          <function-decl name='allocator' filepath='/usr/include/c++/4.9/bits/allocator.h' line='113' column='1' visibility='default' binding='global' size-in-bits='64'>
            <parameter type-id='type-id-1947' is-artificial='yes'/>
            <return type-id='type-id-62'/>
          </function-decl>
        </member-function>
        <member-function access='public'>
          <function-decl name='allocator' filepath='/usr/include/c++/4.9/bits/allocator.h' line='115' column='1' visibility='default' binding='global' size-in-bits='64'>
            <parameter type-id='type-id-1947' is-artificial='yes'/>
            <parameter type-id='type-id-1087'/>
            <return type-id='type-id-62'/>
          </function-decl>
        </member-function>
        <member-function access='public' destructor='yes'>
          <function-decl name='~allocator' filepath='/usr/include/c++/4.9/bits/allocator.h' line='121' column='1' visibility='default' binding='global' size-in-bits='64'>
            <parameter type-id='type-id-1947' is-artificial='yes'/>
            <parameter type-id='type-id-29' is-artificial='yes'/>
            <return type-id='type-id-62'/>
          </function-decl>
        </member-function>
        <member-function access='public' destructor='yes'>
          <function-decl name='~allocator' mangled-name='_ZNSaISsED2Ev' filepath='/usr/include/c++/4.9/bits/allocator.h' line='121' column='1' visibility='default' binding='global' size-in-bits='64' elf-symbol-id='_ZNSaISsED2Ev'>
            <parameter type-id='type-id-1947' is-artificial='yes'/>
            <parameter type-id='type-id-29' is-artificial='yes'/>
            <return type-id='type-id-62'/>
          </function-decl>
        </member-function>
        <member-function access='public'>
          <function-decl name='allocator' mangled-name='_ZNSaISsEC2ERKS_' filepath='/usr/include/c++/4.9/bits/allocator.h' line='115' column='1' visibility='default' binding='global' size-in-bits='64' elf-symbol-id='_ZNSaISsEC2ERKS_'>
            <parameter type-id='type-id-1947' is-artificial='yes'/>
            <parameter type-id='type-id-1087'/>
            <return type-id='type-id-62'/>
          </function-decl>
        </member-function>
        <member-function access='public'>
          <function-decl name='allocator' mangled-name='_ZNSaISsEC2Ev' filepath='/usr/include/c++/4.9/bits/allocator.h' line='113' column='1' visibility='default' binding='global' size-in-bits='64' elf-symbol-id='_ZNSaISsEC2Ev'>
            <parameter type-id='type-id-1947' is-artificial='yes'/>
            <return type-id='type-id-62'/>
          </function-decl>
        </member-function>
      </class-decl>
      <class-decl name='allocator&lt;std::pair&lt;const std::basic_string&lt;char, std::char_traits&lt;char&gt;, std::allocator&lt;char&gt; &gt;, mongo::ServerParameter*&gt; &gt;' size-in-bits='8' visibility='default' filepath='/usr/include/c++/4.9/bits/allocator.h' line='92' column='1' id='type-id-1088'>
        <base-class access='public' layout-offset-in-bits='0' type-id='type-id-175'/>
        <member-type access='public'>
          <typedef-decl name='size_type' type-id='type-id-1335' filepath='/usr/include/c++/4.9/bits/allocator.h' line='95' column='1' id='type-id-2313'/>
        </member-type>
        <member-type access='public'>
          <typedef-decl name='pointer' type-id='type-id-2065' filepath='/usr/include/c++/4.9/bits/allocator.h' line='97' column='1' id='type-id-2307'/>
        </member-type>
        <member-type access='public'>
          <typedef-decl name='value_type' type-id='type-id-1291' filepath='/usr/include/c++/4.9/bits/allocator.h' line='101' column='1' id='type-id-2306'/>
        </member-type>
        <member-type access='public'>
          <class-decl name='rebind&lt;std::_Rb_tree_node&lt;std::pair&lt;const std::basic_string&lt;char, std::char_traits&lt;char&gt;, std::allocator&lt;char&gt; &gt;, mongo::ServerParameter*&gt; &gt; &gt;' size-in-bits='8' is-struct='yes' visibility='default' filepath='/usr/include/c++/4.9/bits/allocator.h' line='104' column='1' id='type-id-2378'>
            <member-type access='public'>
              <typedef-decl name='other' type-id='type-id-1073' filepath='/usr/include/c++/4.9/bits/allocator.h' line='105' column='1' id='type-id-2211'/>
            </member-type>
          </class-decl>
        </member-type>
        <member-function access='public'>
          <function-decl name='allocator' filepath='/usr/include/c++/4.9/bits/allocator.h' line='113' column='1' visibility='default' binding='global' size-in-bits='64'>
            <parameter type-id='type-id-1949' is-artificial='yes'/>
            <return type-id='type-id-62'/>
          </function-decl>
        </member-function>
        <member-function access='public'>
          <function-decl name='allocator' filepath='/usr/include/c++/4.9/bits/allocator.h' line='115' column='1' visibility='default' binding='global' size-in-bits='64'>
            <parameter type-id='type-id-1949' is-artificial='yes'/>
            <parameter type-id='type-id-1090'/>
            <return type-id='type-id-62'/>
          </function-decl>
        </member-function>
        <member-function access='public' destructor='yes'>
          <function-decl name='~allocator' filepath='/usr/include/c++/4.9/bits/allocator.h' line='121' column='1' visibility='default' binding='global' size-in-bits='64'>
            <parameter type-id='type-id-1949' is-artificial='yes'/>
            <parameter type-id='type-id-29' is-artificial='yes'/>
            <return type-id='type-id-62'/>
          </function-decl>
        </member-function>
      </class-decl>
      <class-decl name='allocator&lt;std::pair&lt;const std::basic_string&lt;char, std::char_traits&lt;char&gt;, std::allocator&lt;char&gt; &gt;, mongo::logger::LogDomain&lt;mongo::logger::MessageEventEphemeral&gt;*&gt; &gt;' size-in-bits='8' visibility='default' filepath='/usr/include/c++/4.9/bits/allocator.h' line='92' column='1' id='type-id-1091'>
        <base-class access='public' layout-offset-in-bits='0' type-id='type-id-177'/>
        <member-function access='public'>
          <function-decl name='allocator' filepath='/usr/include/c++/4.9/bits/allocator.h' line='113' column='1' visibility='default' binding='global' size-in-bits='64'>
            <parameter type-id='type-id-1950' is-artificial='yes'/>
            <return type-id='type-id-62'/>
          </function-decl>
        </member-function>
        <member-function access='public'>
          <function-decl name='allocator' filepath='/usr/include/c++/4.9/bits/allocator.h' line='115' column='1' visibility='default' binding='global' size-in-bits='64'>
            <parameter type-id='type-id-1950' is-artificial='yes'/>
            <parameter type-id='type-id-1093'/>
            <return type-id='type-id-62'/>
          </function-decl>
        </member-function>
        <member-function access='public' destructor='yes'>
          <function-decl name='~allocator' filepath='/usr/include/c++/4.9/bits/allocator.h' line='121' column='1' visibility='default' binding='global' size-in-bits='64'>
            <parameter type-id='type-id-1950' is-artificial='yes'/>
            <parameter type-id='type-id-29' is-artificial='yes'/>
            <return type-id='type-id-62'/>
          </function-decl>
        </member-function>
      </class-decl>
      <class-decl name='allocator&lt;std::pair&lt;const std::basic_string&lt;char, std::char_traits&lt;char&gt;, std::allocator&lt;char&gt; &gt;, mongo::optionenvironment::Value&gt; &gt;' size-in-bits='8' visibility='default' filepath='/usr/include/c++/4.9/bits/allocator.h' line='92' column='1' id='type-id-1094'>
        <base-class access='public' layout-offset-in-bits='0' type-id='type-id-179'/>
        <member-type access='public'>
          <typedef-decl name='size_type' type-id='type-id-1335' filepath='/usr/include/c++/4.9/bits/allocator.h' line='95' column='1' id='type-id-2325'/>
        </member-type>
        <member-type access='public'>
          <typedef-decl name='pointer' type-id='type-id-2071' filepath='/usr/include/c++/4.9/bits/allocator.h' line='97' column='1' id='type-id-2319'/>
        </member-type>
        <member-type access='public'>
          <typedef-decl name='value_type' type-id='type-id-1299' filepath='/usr/include/c++/4.9/bits/allocator.h' line='101' column='1' id='type-id-2318'/>
        </member-type>
        <member-type access='public'>
          <class-decl name='rebind&lt;std::_Rb_tree_node&lt;std::pair&lt;const std::basic_string&lt;char, std::char_traits&lt;char&gt;, std::allocator&lt;char&gt; &gt;, mongo::optionenvironment::Value&gt; &gt; &gt;' size-in-bits='8' is-struct='yes' visibility='default' filepath='/usr/include/c++/4.9/bits/allocator.h' line='104' column='1' id='type-id-2379'>
            <member-type access='public'>
              <typedef-decl name='other' type-id='type-id-1076' filepath='/usr/include/c++/4.9/bits/allocator.h' line='105' column='1' id='type-id-2214'/>
            </member-type>
          </class-decl>
        </member-type>
        <member-function access='public'>
          <function-decl name='allocator' filepath='/usr/include/c++/4.9/bits/allocator.h' line='113' column='1' visibility='default' binding='global' size-in-bits='64'>
            <parameter type-id='type-id-1952' is-artificial='yes'/>
            <return type-id='type-id-62'/>
          </function-decl>
        </member-function>
        <member-function access='public'>
          <function-decl name='allocator' filepath='/usr/include/c++/4.9/bits/allocator.h' line='115' column='1' visibility='default' binding='global' size-in-bits='64'>
            <parameter type-id='type-id-1952' is-artificial='yes'/>
            <parameter type-id='type-id-1096'/>
            <return type-id='type-id-62'/>
          </function-decl>
        </member-function>
        <member-function access='public' destructor='yes'>
          <function-decl name='~allocator' filepath='/usr/include/c++/4.9/bits/allocator.h' line='121' column='1' visibility='default' binding='global' size-in-bits='64'>
            <parameter type-id='type-id-1952' is-artificial='yes'/>
            <parameter type-id='type-id-29' is-artificial='yes'/>
            <return type-id='type-id-62'/>
          </function-decl>
        </member-function>
      </class-decl>
      <class-decl name='allocator&lt;std::pair&lt;const std::basic_string&lt;char, std::char_traits&lt;char&gt;, std::allocator&lt;char&gt; &gt;, std::basic_string&lt;char, std::char_traits&lt;char&gt;, std::allocator&lt;char&gt; &gt; &gt; &gt;' size-in-bits='8' visibility='default' filepath='/usr/include/c++/4.9/bits/allocator.h' line='92' column='1' id='type-id-1097'>
        <base-class access='public' layout-offset-in-bits='0' type-id='type-id-181'/>
        <member-type access='public'>
          <typedef-decl name='size_type' type-id='type-id-1335' filepath='/usr/include/c++/4.9/bits/allocator.h' line='95' column='1' id='type-id-2337'/>
        </member-type>
        <member-type access='public'>
          <typedef-decl name='pointer' type-id='type-id-2074' filepath='/usr/include/c++/4.9/bits/allocator.h' line='97' column='1' id='type-id-2331'/>
        </member-type>
        <member-type access='public'>
          <typedef-decl name='value_type' type-id='type-id-1303' filepath='/usr/include/c++/4.9/bits/allocator.h' line='101' column='1' id='type-id-2330'/>
        </member-type>
        <member-type access='public'>
          <class-decl name='rebind&lt;std::_Rb_tree_node&lt;std::pair&lt;const std::basic_string&lt;char, std::char_traits&lt;char&gt;, std::allocator&lt;char&gt; &gt;, std::basic_string&lt;char, std::char_traits&lt;char&gt;, std::allocator&lt;char&gt; &gt; &gt; &gt; &gt;' size-in-bits='8' is-struct='yes' visibility='default' filepath='/usr/include/c++/4.9/bits/allocator.h' line='104' column='1' id='type-id-2380'>
            <member-type access='public'>
              <typedef-decl name='other' type-id='type-id-1079' filepath='/usr/include/c++/4.9/bits/allocator.h' line='105' column='1' id='type-id-2217'/>
            </member-type>
          </class-decl>
        </member-type>
        <member-function access='public'>
          <function-decl name='allocator' filepath='/usr/include/c++/4.9/bits/allocator.h' line='113' column='1' visibility='default' binding='global' size-in-bits='64'>
            <parameter type-id='type-id-1954' is-artificial='yes'/>
            <return type-id='type-id-62'/>
          </function-decl>
        </member-function>
        <member-function access='public'>
          <function-decl name='allocator' filepath='/usr/include/c++/4.9/bits/allocator.h' line='115' column='1' visibility='default' binding='global' size-in-bits='64'>
            <parameter type-id='type-id-1954' is-artificial='yes'/>
            <parameter type-id='type-id-1099'/>
            <return type-id='type-id-62'/>
          </function-decl>
        </member-function>
        <member-function access='public' destructor='yes'>
          <function-decl name='~allocator' filepath='/usr/include/c++/4.9/bits/allocator.h' line='121' column='1' visibility='default' binding='global' size-in-bits='64'>
            <parameter type-id='type-id-1954' is-artificial='yes'/>
            <parameter type-id='type-id-29' is-artificial='yes'/>
            <return type-id='type-id-62'/>
          </function-decl>
        </member-function>
      </class-decl>
      <class-decl name='allocator&lt;std::shared_ptr&lt;mongo::optionenvironment::Constraint&gt; &gt;' size-in-bits='8' visibility='default' filepath='/usr/include/c++/4.9/bits/allocator.h' line='92' column='1' id='type-id-1100'>
        <base-class access='public' layout-offset-in-bits='0' type-id='type-id-183'/>
        <member-type access='public'>
          <typedef-decl name='size_type' type-id='type-id-1335' filepath='/usr/include/c++/4.9/bits/allocator.h' line='95' column='1' id='type-id-2349'/>
        </member-type>
        <member-type access='public'>
          <typedef-decl name='pointer' type-id='type-id-2109' filepath='/usr/include/c++/4.9/bits/allocator.h' line='97' column='1' id='type-id-2343'/>
        </member-type>
        <member-type access='public'>
          <typedef-decl name='value_type' type-id='type-id-1331' filepath='/usr/include/c++/4.9/bits/allocator.h' line='101' column='1' id='type-id-2342'/>
        </member-type>
        <member-type access='public'>
          <class-decl name='rebind&lt;std::shared_ptr&lt;mongo::optionenvironment::Constraint&gt; &gt;' size-in-bits='8' is-struct='yes' visibility='default' filepath='/usr/include/c++/4.9/bits/allocator.h' line='104' column='1' id='type-id-2381'>
            <member-type access='public'>
              <typedef-decl name='other' type-id='type-id-1100' filepath='/usr/include/c++/4.9/bits/allocator.h' line='105' column='1' id='type-id-2220'/>
            </member-type>
          </class-decl>
        </member-type>
        <member-function access='public'>
          <function-decl name='allocator' filepath='/usr/include/c++/4.9/bits/allocator.h' line='113' column='1' visibility='default' binding='global' size-in-bits='64'>
            <parameter type-id='type-id-1956' is-artificial='yes'/>
            <return type-id='type-id-62'/>
          </function-decl>
        </member-function>
        <member-function access='public'>
          <function-decl name='allocator' filepath='/usr/include/c++/4.9/bits/allocator.h' line='115' column='1' visibility='default' binding='global' size-in-bits='64'>
            <parameter type-id='type-id-1956' is-artificial='yes'/>
            <parameter type-id='type-id-1102'/>
            <return type-id='type-id-62'/>
          </function-decl>
        </member-function>
        <member-function access='public' destructor='yes'>
          <function-decl name='~allocator' filepath='/usr/include/c++/4.9/bits/allocator.h' line='121' column='1' visibility='default' binding='global' size-in-bits='64'>
            <parameter type-id='type-id-1956' is-artificial='yes'/>
            <parameter type-id='type-id-29' is-artificial='yes'/>
            <return type-id='type-id-62'/>
          </function-decl>
        </member-function>
        <member-function access='public' destructor='yes'>
          <function-decl name='~allocator' mangled-name='_ZNSaISt10shared_ptrIN5mongo17optionenvironment10ConstraintEEED2Ev' filepath='/usr/include/c++/4.9/bits/allocator.h' line='121' column='1' visibility='default' binding='global' size-in-bits='64' elf-symbol-id='_ZNSaISt10shared_ptrIN5mongo17optionenvironment10ConstraintEEED2Ev'>
            <parameter type-id='type-id-1956' is-artificial='yes'/>
            <parameter type-id='type-id-29' is-artificial='yes'/>
            <return type-id='type-id-62'/>
          </function-decl>
        </member-function>
      </class-decl>
      <enum-decl name='memory_order' filepath='/usr/include/c++/4.9/bits/atomic_base.h' line='56' column='1' id='type-id-2382'>
        <underlying-type type-id='type-id-40'/>
        <enumerator name='memory_order_relaxed' value='0'/>
        <enumerator name='memory_order_consume' value='1'/>
        <enumerator name='memory_order_acquire' value='2'/>
        <enumerator name='memory_order_release' value='3'/>
        <enumerator name='memory_order_acq_rel' value='4'/>
        <enumerator name='memory_order_seq_cst' value='5'/>
      </enum-decl>
      <typedef-decl name='memory_order' type-id='type-id-2382' filepath='/usr/include/c++/4.9/bits/atomic_base.h' line='64' column='1' id='type-id-2383'/>
      <class-decl name='__atomic_base&lt;unsigned int&gt;' size-in-bits='32' is-struct='yes' visibility='default' filepath='/usr/include/c++/4.9/bits/atomic_base.h' line='353' column='1' id='type-id-943'>
        <member-type access='private'>
          <typedef-decl name='__int_type' type-id='type-id-25' filepath='/usr/include/c++/4.9/bits/atomic_base.h' line='356' column='1' id='type-id-1846'/>
        </member-type>
        <data-member access='private' layout-offset-in-bits='0'>
          <var-decl name='_M_i' type-id='type-id-1846' visibility='default' filepath='/usr/include/c++/4.9/bits/atomic_base.h' line='358' column='1'/>
        </data-member>
        <member-function access='public'>
          <function-decl name='__atomic_base' filepath='/usr/include/c++/4.9/bits/atomic_base.h' line='361' column='1' visibility='default' binding='global' size-in-bits='64'>
            <parameter type-id='type-id-1845' is-artificial='yes'/>
            <return type-id='type-id-62'/>
          </function-decl>
        </member-function>
        <member-function access='public' destructor='yes'>
          <function-decl name='~__atomic_base' filepath='/usr/include/c++/4.9/bits/atomic_base.h' line='362' column='1' visibility='default' binding='global' size-in-bits='64'>
            <parameter type-id='type-id-1845' is-artificial='yes'/>
            <parameter type-id='type-id-29' is-artificial='yes'/>
            <return type-id='type-id-62'/>
          </function-decl>
        </member-function>
        <member-function access='public'>
          <function-decl name='__atomic_base' filepath='/usr/include/c++/4.9/bits/atomic_base.h' line='363' column='1' visibility='default' binding='global' size-in-bits='64'>
            <parameter type-id='type-id-1845' is-artificial='yes'/>
            <parameter type-id='type-id-945'/>
            <return type-id='type-id-62'/>
          </function-decl>
        </member-function>
        <member-function access='public'>
          <function-decl name='__atomic_base' filepath='/usr/include/c++/4.9/bits/atomic_base.h' line='368' column='1' visibility='default' binding='global' size-in-bits='64'>
            <parameter type-id='type-id-1845' is-artificial='yes'/>
            <parameter type-id='type-id-1846'/>
            <return type-id='type-id-62'/>
          </function-decl>
        </member-function>
        <member-function access='public'>
          <function-decl name='fetch_sub' mangled-name='_ZNSt13__atomic_baseIjE9fetch_subEjSt12memory_order' filepath='/usr/include/c++/4.9/bits/atomic_base.h' line='626' column='1' visibility='default' binding='global' size-in-bits='64'>
            <parameter type-id='type-id-1845' is-artificial='yes'/>
            <parameter type-id='type-id-1846'/>
            <parameter type-id='type-id-2383'/>
            <return type-id='type-id-1846'/>
          </function-decl>
        </member-function>
      </class-decl>
      <class-decl name='basic_string&lt;char, std::char_traits&lt;char&gt;, std::allocator&lt;char&gt; &gt;' size-in-bits='64' visibility='default' filepath='/usr/include/c++/4.9/bits/basic_string.h' line='112' column='1' id='type-id-37'>
        <member-type access='public'>
          <typedef-decl name='allocator_type' type-id='type-id-1043' filepath='/usr/include/c++/4.9/bits/basic_string.h' line='120' column='1' id='type-id-2384'/>
        </member-type>
        <member-type access='public'>
          <typedef-decl name='size_type' type-id='type-id-2357' filepath='/usr/include/c++/4.9/bits/basic_string.h' line='121' column='1' id='type-id-1114'/>
        </member-type>
        <member-type access='public'>
          <typedef-decl name='reference' type-id='type-id-2358' filepath='/usr/include/c++/4.9/bits/basic_string.h' line='123' column='1' id='type-id-2385'/>
        </member-type>
        <member-type access='public'>
          <typedef-decl name='const_reference' type-id='type-id-2359' filepath='/usr/include/c++/4.9/bits/basic_string.h' line='124' column='1' id='type-id-2386'/>
        </member-type>
        <member-type access='public'>
          <typedef-decl name='iterator' type-id='type-id-130' filepath='/usr/include/c++/4.9/bits/basic_string.h' line='127' column='1' id='type-id-2387'/>
        </member-type>
        <member-type access='public'>
          <typedef-decl name='const_iterator' type-id='type-id-127' filepath='/usr/include/c++/4.9/bits/basic_string.h' line='129' column='1' id='type-id-2388'/>
        </member-type>
        <member-type access='public'>
          <typedef-decl name='const_reverse_iterator' type-id='type-id-2389' filepath='/usr/include/c++/4.9/bits/basic_string.h' line='130' column='1' id='type-id-2390'/>
        </member-type>
        <member-type access='public'>
          <typedef-decl name='reverse_iterator' type-id='type-id-2391' filepath='/usr/include/c++/4.9/bits/basic_string.h' line='131' column='1' id='type-id-2392'/>
        </member-type>
        <member-type access='private'>
          <class-decl name='_Rep_base' size-in-bits='192' is-struct='yes' visibility='default' filepath='/usr/include/c++/4.9/bits/basic_string.h' line='148' column='1' id='type-id-2393'>
            <data-member access='public' layout-offset-in-bits='0'>
              <var-decl name='_M_length' type-id='type-id-1114' visibility='default' filepath='/usr/include/c++/4.9/bits/basic_string.h' line='150' column='1'/>
            </data-member>
            <data-member access='public' layout-offset-in-bits='64'>
              <var-decl name='_M_capacity' type-id='type-id-1114' visibility='default' filepath='/usr/include/c++/4.9/bits/basic_string.h' line='151' column='1'/>
            </data-member>
            <data-member access='public' layout-offset-in-bits='128'>
              <var-decl name='_M_refcount' type-id='type-id-103' visibility='default' filepath='/usr/include/c++/4.9/bits/basic_string.h' line='152' column='1'/>
            </data-member>
          </class-decl>
        </member-type>
        <member-type access='private'>
          <class-decl name='_Rep' size-in-bits='192' is-struct='yes' visibility='default' filepath='/usr/include/c++/4.9/bits/basic_string.h' line='155' column='1' id='type-id-1111'>
            <base-class access='public' layout-offset-in-bits='0' type-id='type-id-2393'/>
            <data-member access='public' static='yes'>
              <var-decl name='_S_max_size' type-id='type-id-1115' visibility='default' filepath='/usr/include/c++/4.9/bits/basic_string.tcc' line='50' column='1'/>
            </data-member>
            <data-member access='public' static='yes'>
              <var-decl name='_S_terminal' type-id='type-id-361' visibility='default' filepath='/usr/include/c++/4.9/bits/basic_string.tcc' line='55' column='1'/>
            </data-member>
            <data-member access='public' static='yes'>
              <var-decl name='_S_empty_rep_storage' type-id='type-id-53' visibility='default' filepath='/usr/include/c++/4.9/bits/basic_string.tcc' line='66' column='1'/>
            </data-member>
          </class-decl>
        </member-type>
        <member-type access='private'>
          <class-decl name='_Alloc_hider' size-in-bits='64' is-struct='yes' visibility='default' filepath='/usr/include/c++/4.9/bits/basic_string.h' line='272' column='1' id='type-id-1993'>
            <base-class access='public' layout-offset-in-bits='0' type-id='type-id-1043'/>
            <data-member access='public' layout-offset-in-bits='0'>
              <var-decl name='_M_p' type-id='type-id-68' visibility='default' filepath='/usr/include/c++/4.9/bits/basic_string.h' line='277' column='1'/>
            </data-member>
            <member-function access='public' constructor='yes'>
              <function-decl name='_Alloc_hider' filepath='/usr/include/c++/4.9/bits/basic_string.h' line='274' column='1' visibility='default' binding='global' size-in-bits='64'>
                <parameter type-id='type-id-1994' is-artificial='yes'/>
                <parameter type-id='type-id-68'/>
                <parameter type-id='type-id-1045'/>
                <return type-id='type-id-62'/>
              </function-decl>
            </member-function>
          </class-decl>
        </member-type>
        <data-member access='public' static='yes'>
          <var-decl name='npos' type-id='type-id-1115' visibility='default' filepath='/usr/include/c++/4.9/bits/basic_string.h' line='285' column='1'/>
        </data-member>
        <data-member access='private' layout-offset-in-bits='0'>
          <var-decl name='_M_dataplus' type-id='type-id-1993' visibility='default' filepath='/usr/include/c++/4.9/bits/basic_string.h' line='289' column='1'/>
        </data-member>
        <member-function access='public'>
          <function-decl name='basic_string' filepath='/usr/include/c++/4.9/bits/basic_string.h' line='442' column='1' visibility='default' binding='global' size-in-bits='64'>
            <parameter type-id='type-id-1989' is-artificial='yes'/>
            <return type-id='type-id-62'/>
          </function-decl>
        </member-function>
        <member-function access='public'>
          <function-decl name='basic_string' filepath='/usr/include/c++/4.9/bits/basic_string.h' line='453' column='1' visibility='default' binding='global' size-in-bits='64'>
            <parameter type-id='type-id-1989' is-artificial='yes'/>
            <parameter type-id='type-id-1045'/>
            <return type-id='type-id-62'/>
          </function-decl>
        </member-function>
        <member-function access='public'>
          <function-decl name='basic_string' filepath='/usr/include/c++/4.9/bits/basic_string.h' line='460' column='1' visibility='default' binding='global' size-in-bits='64'>
            <parameter type-id='type-id-1989' is-artificial='yes'/>
            <parameter type-id='type-id-1107'/>
            <return type-id='type-id-62'/>
          </function-decl>
        </member-function>
        <member-function access='public'>
          <function-decl name='basic_string' filepath='/usr/include/c++/4.9/bits/basic_string.h' line='467' column='1' visibility='default' binding='global' size-in-bits='64'>
            <parameter type-id='type-id-1989' is-artificial='yes'/>
            <parameter type-id='type-id-1107'/>
            <parameter type-id='type-id-1114'/>
            <parameter type-id='type-id-1114'/>
            <return type-id='type-id-62'/>
          </function-decl>
        </member-function>
        <member-function access='public'>
          <function-decl name='basic_string' filepath='/usr/include/c++/4.9/bits/basic_string.h' line='476' column='1' visibility='default' binding='global' size-in-bits='64'>
            <parameter type-id='type-id-1989' is-artificial='yes'/>
            <parameter type-id='type-id-1107'/>
            <parameter type-id='type-id-1114'/>
            <parameter type-id='type-id-1114'/>
            <parameter type-id='type-id-1045'/>
            <return type-id='type-id-62'/>
          </function-decl>
        </member-function>
        <member-function access='public'>
          <function-decl name='basic_string' filepath='/usr/include/c++/4.9/bits/basic_string.h' line='488' column='1' visibility='default' binding='global' size-in-bits='64'>
            <parameter type-id='type-id-1989' is-artificial='yes'/>
            <parameter type-id='type-id-95'/>
            <parameter type-id='type-id-1114'/>
            <parameter type-id='type-id-1045'/>
            <return type-id='type-id-62'/>
          </function-decl>
        </member-function>
        <member-function access='public'>
          <function-decl name='basic_string' filepath='/usr/include/c++/4.9/bits/basic_string.h' line='495' column='1' visibility='default' binding='global' size-in-bits='64'>
            <parameter type-id='type-id-1989' is-artificial='yes'/>
            <parameter type-id='type-id-95'/>
            <parameter type-id='type-id-1045'/>
            <return type-id='type-id-62'/>
          </function-decl>
        </member-function>
        <member-function access='public'>
          <function-decl name='basic_string' filepath='/usr/include/c++/4.9/bits/basic_string.h' line='502' column='1' visibility='default' binding='global' size-in-bits='64'>
            <parameter type-id='type-id-1989' is-artificial='yes'/>
            <parameter type-id='type-id-1114'/>
            <parameter type-id='type-id-5'/>
            <parameter type-id='type-id-1045'/>
            <return type-id='type-id-62'/>
          </function-decl>
        </member-function>
        <member-function access='public'>
          <function-decl name='basic_string' filepath='/usr/include/c++/4.9/bits/basic_string.h' line='512' column='1' visibility='default' binding='global' size-in-bits='64'>
            <parameter type-id='type-id-1989' is-artificial='yes'/>
            <parameter type-id='type-id-1988'/>
            <return type-id='type-id-62'/>
          </function-decl>
        </member-function>
        <member-function access='public'>
          <function-decl name='basic_string' filepath='/usr/include/c++/4.9/bits/basic_string.h' line='530' column='1' visibility='default' binding='global' size-in-bits='64'>
            <parameter type-id='type-id-1989' is-artificial='yes'/>
            <parameter type-id='type-id-1169'/>
            <parameter type-id='type-id-1045'/>
            <return type-id='type-id-62'/>
          </function-decl>
        </member-function>
        <member-function access='public' destructor='yes'>
          <function-decl name='~basic_string' filepath='/usr/include/c++/4.9/bits/basic_string.h' line='546' column='1' visibility='default' binding='global' size-in-bits='64'>
            <parameter type-id='type-id-1989' is-artificial='yes'/>
            <parameter type-id='type-id-29' is-artificial='yes'/>
            <return type-id='type-id-62'/>
          </function-decl>
        </member-function>
      </class-decl>
      <class-decl name='hash&lt;std::basic_string&lt;char, std::char_traits&lt;char&gt;, std::allocator&lt;char&gt; &gt; &gt;' size-in-bits='8' is-struct='yes' visibility='default' filepath='/usr/include/c++/4.9/bits/basic_string.h' line='3079' column='1' id='type-id-1162'>
        <base-class access='public' layout-offset-in-bits='0' type-id='type-id-2394'/>
      </class-decl>
      <class-decl name='__hash_base&lt;long unsigned int, std::basic_string&lt;char, std::char_traits&lt;char&gt;, std::allocator&lt;char&gt; &gt; &gt;' size-in-bits='8' is-struct='yes' visibility='default' filepath='/usr/include/c++/4.9/bits/functional_hash.h' line='50' column='1' id='type-id-2394'/>
      <class-decl name='_Hashtable&lt;std::basic_string&lt;char, std::char_traits&lt;char&gt;, std::allocator&lt;char&gt; &gt;, std::pair&lt;const std::basic_string&lt;char, std::char_traits&lt;char&gt;, std::allocator&lt;char&gt; &gt;, mongo::logger::LogDomain&lt;mongo::logger::MessageEventEphemeral&gt;*&gt;, std::allocator&lt;std::pair&lt;const std::basic_string&lt;char, std::char_traits&lt;char&gt;, std::allocator&lt;char&gt; &gt;, mongo::logger::LogDomain&lt;mongo::logger::MessageEventEphemeral&gt;*&gt; &gt;, std::__detail::_Select1st, std::equal_to&lt;std::basic_string&lt;char, std::char_traits&lt;char&gt;, std::allocator&lt;char&gt; &gt; &gt;, std::hash&lt;std::basic_string&lt;char, std::char_traits&lt;char&gt;, std::allocator&lt;char&gt; &gt; &gt;, std::__detail::_Mod_range_hashing, std::__detail::_Default_ranged_hash, std::__detail::_Prime_rehash_policy, std::__detail::_Hashtable_traits&lt;true, false, true&gt; &gt;' size-in-bits='448' visibility='default' filepath='/usr/include/c++/4.9/bits/hashtable.h' line='170' column='1' id='type-id-688'>
        <base-class access='public' layout-offset-in-bits='0' type-id='type-id-976'/>
        <base-class access='public' layout-offset-in-bits='0' type-id='type-id-997'/>
        <base-class access='public' layout-offset-in-bits='0' type-id='type-id-2395'/>
        <base-class access='public' layout-offset-in-bits='0' type-id='type-id-1014'/>
        <base-class access='public' layout-offset-in-bits='0' type-id='type-id-950'/>
        <base-class access='private' layout-offset-in-bits='0' type-id='type-id-969'/>
        <member-type access='private'>
          <typedef-decl name='__node_type' type-id='type-id-962' filepath='/usr/include/c++/4.9/bits/hashtable.h' line='188' column='1' id='type-id-1677'/>
        </member-type>
        <member-type access='public'>
          <typedef-decl name='__hashtable_alloc' type-id='type-id-969' filepath='/usr/include/c++/4.9/bits/hashtable.h' line='192' column='1' id='type-id-1673'/>
        </member-type>
        <member-type access='private'>
          <typedef-decl name='__node_base' type-id='type-id-1861' filepath='/usr/include/c++/4.9/bits/hashtable.h' line='198' column='1' id='type-id-1675'/>
        </member-type>
        <member-type access='private'>
          <typedef-decl name='__bucket_type' type-id='type-id-1858' filepath='/usr/include/c++/4.9/bits/hashtable.h' line='199' column='1' id='type-id-1671'/>
        </member-type>
        <member-type access='public'>
          <typedef-decl name='key_type' type-id='type-id-37' filepath='/usr/include/c++/4.9/bits/hashtable.h' line='202' column='1' id='type-id-701'/>
        </member-type>
        <member-type access='public'>
          <typedef-decl name='value_type' type-id='type-id-1295' filepath='/usr/include/c++/4.9/bits/hashtable.h' line='203' column='1' id='type-id-2396'/>
        </member-type>
        <member-type access='public'>
          <typedef-decl name='allocator_type' type-id='type-id-1091' filepath='/usr/include/c++/4.9/bits/hashtable.h' line='204' column='1' id='type-id-695'/>
        </member-type>
        <member-type access='public'>
          <typedef-decl name='key_equal' type-id='type-id-1154' filepath='/usr/include/c++/4.9/bits/hashtable.h' line='205' column='1' id='type-id-698'/>
        </member-type>
        <member-type access='private'>
          <typedef-decl name='__rehash_state' type-id='type-id-2397' filepath='/usr/include/c++/4.9/bits/hashtable.h' line='216' column='1' id='type-id-692'/>
        </member-type>
        <member-type access='private'>
          <typedef-decl name='__hash_code' type-id='type-id-2398' filepath='/usr/include/c++/4.9/bits/hashtable.h' line='231' column='1' id='type-id-2399'/>
        </member-type>
        <member-type access='public'>
          <typedef-decl name='size_type' type-id='type-id-2400' filepath='/usr/include/c++/4.9/bits/hashtable.h' line='302' column='1' id='type-id-2401'/>
        </member-type>
        <member-type access='public'>
          <typedef-decl name='iterator' type-id='type-id-2402' filepath='/usr/include/c++/4.9/bits/hashtable.h' line='305' column='1' id='type-id-2403'/>
        </member-type>
        <member-type access='public'>
          <typedef-decl name='const_iterator' type-id='type-id-2404' filepath='/usr/include/c++/4.9/bits/hashtable.h' line='306' column='1' id='type-id-2405'/>
        </member-type>
        <member-type access='public'>
          <typedef-decl name='local_iterator' type-id='type-id-2406' filepath='/usr/include/c++/4.9/bits/hashtable.h' line='308' column='1' id='type-id-2407'/>
        </member-type>
        <member-type access='public'>
          <typedef-decl name='const_local_iterator' type-id='type-id-2408' filepath='/usr/include/c++/4.9/bits/hashtable.h' line='310' column='1' id='type-id-2409'/>
        </member-type>
        <data-member access='private' layout-offset-in-bits='0'>
          <var-decl name='_M_buckets' type-id='type-id-1672' visibility='default' filepath='/usr/include/c++/4.9/bits/hashtable.h' line='313' column='1'/>
        </data-member>
        <data-member access='private' layout-offset-in-bits='64'>
          <var-decl name='_M_bucket_count' type-id='type-id-2401' visibility='default' filepath='/usr/include/c++/4.9/bits/hashtable.h' line='314' column='1'/>
        </data-member>
        <data-member access='private' layout-offset-in-bits='128'>
          <var-decl name='_M_before_begin' type-id='type-id-1675' visibility='default' filepath='/usr/include/c++/4.9/bits/hashtable.h' line='315' column='1'/>
        </data-member>
        <data-member access='private' layout-offset-in-bits='192'>
          <var-decl name='_M_element_count' type-id='type-id-2401' visibility='default' filepath='/usr/include/c++/4.9/bits/hashtable.h' line='316' column='1'/>
        </data-member>
        <data-member access='private' layout-offset-in-bits='256'>
          <var-decl name='_M_rehash_policy' type-id='type-id-1010' visibility='default' filepath='/usr/include/c++/4.9/bits/hashtable.h' line='317' column='1'/>
        </data-member>
        <data-member access='private' layout-offset-in-bits='384'>
          <var-decl name='_M_single_bucket' type-id='type-id-1671' visibility='default' filepath='/usr/include/c++/4.9/bits/hashtable.h' line='325' column='1'/>
        </data-member>
        <member-function access='public'>
          <function-decl name='_Hashtable' filepath='/usr/include/c++/4.9/bits/hashtable.h' line='788' column='1' visibility='default' binding='global' size-in-bits='64'>
            <parameter type-id='type-id-1670' is-artificial='yes'/>
            <parameter type-id='type-id-2401'/>
            <parameter type-id='type-id-1164'/>
            <parameter type-id='type-id-1008'/>
            <parameter type-id='type-id-949'/>
            <parameter type-id='type-id-1156'/>
            <parameter type-id='type-id-1019'/>
            <parameter type-id='type-id-697'/>
            <return type-id='type-id-62'/>
          </function-decl>
        </member-function>
        <member-function access='public'>
          <function-decl name='_Hashtable' filepath='/usr/include/c++/4.9/bits/hashtable.h' line='1096' column='1' visibility='default' binding='global' size-in-bits='64'>
            <parameter type-id='type-id-1670' is-artificial='yes'/>
            <parameter type-id='type-id-690'/>
            <return type-id='type-id-62'/>
          </function-decl>
        </member-function>
        <member-function access='public'>
          <function-decl name='_Hashtable' filepath='/usr/include/c++/4.9/bits/hashtable.h' line='1118' column='1' visibility='default' binding='global' size-in-bits='64'>
            <parameter type-id='type-id-1670' is-artificial='yes'/>
            <parameter type-id='type-id-1669'/>
            <return type-id='type-id-62'/>
          </function-decl>
        </member-function>
        <member-function access='public'>
          <function-decl name='_Hashtable' filepath='/usr/include/c++/4.9/bits/hashtable.h' line='1150' column='1' visibility='default' binding='global' size-in-bits='64'>
            <parameter type-id='type-id-1670' is-artificial='yes'/>
            <parameter type-id='type-id-690'/>
            <parameter type-id='type-id-697'/>
            <return type-id='type-id-62'/>
          </function-decl>
        </member-function>
        <member-function access='public'>
          <function-decl name='_Hashtable' filepath='/usr/include/c++/4.9/bits/hashtable.h' line='1171' column='1' visibility='default' binding='global' size-in-bits='64'>
            <parameter type-id='type-id-1670' is-artificial='yes'/>
            <parameter type-id='type-id-1669'/>
            <parameter type-id='type-id-697'/>
            <return type-id='type-id-62'/>
          </function-decl>
        </member-function>
        <member-function access='public'>
          <function-decl name='_Hashtable' filepath='/usr/include/c++/4.9/bits/hashtable.h' line='409' column='1' visibility='default' binding='global' size-in-bits='64'>
            <parameter type-id='type-id-1670' is-artificial='yes'/>
            <parameter type-id='type-id-697'/>
            <return type-id='type-id-62'/>
          </function-decl>
        </member-function>
        <member-function access='public'>
          <function-decl name='_Hashtable' filepath='/usr/include/c++/4.9/bits/hashtable.h' line='415' column='1' visibility='default' binding='global' size-in-bits='64'>
            <parameter type-id='type-id-1670' is-artificial='yes'/>
            <parameter type-id='type-id-2401'/>
            <parameter type-id='type-id-1164'/>
            <parameter type-id='type-id-700'/>
            <parameter type-id='type-id-697'/>
            <return type-id='type-id-62'/>
          </function-decl>
        </member-function>
        <member-function access='public'>
          <function-decl name='_Hashtable' filepath='/usr/include/c++/4.9/bits/hashtable.h' line='433' column='1' visibility='default' binding='global' size-in-bits='64'>
            <parameter type-id='type-id-1670' is-artificial='yes'/>
            <parameter type-id='type-id-2410'/>
            <parameter type-id='type-id-2401'/>
            <parameter type-id='type-id-1164'/>
            <parameter type-id='type-id-700'/>
            <parameter type-id='type-id-697'/>
            <return type-id='type-id-62'/>
          </function-decl>
        </member-function>
        <member-function access='public' destructor='yes'>
          <function-decl name='~_Hashtable' filepath='/usr/include/c++/4.9/bits/hashtable.h' line='1216' column='1' visibility='default' binding='global' size-in-bits='64'>
            <parameter type-id='type-id-1670' is-artificial='yes'/>
            <parameter type-id='type-id-29' is-artificial='yes'/>
            <return type-id='type-id-62'/>
          </function-decl>
        </member-function>
      </class-decl>
      <enum-decl name='_Ios_Fmtflags' filepath='/usr/include/c++/4.9/bits/ios_base.h' line='51' column='1' id='type-id-2411'>
        <underlying-type type-id='type-id-40'/>
        <enumerator name='_S_boolalpha' value='1'/>
        <enumerator name='_S_dec' value='2'/>
        <enumerator name='_S_fixed' value='4'/>
        <enumerator name='_S_hex' value='8'/>
        <enumerator name='_S_internal' value='16'/>
        <enumerator name='_S_left' value='32'/>
        <enumerator name='_S_oct' value='64'/>
        <enumerator name='_S_right' value='128'/>
        <enumerator name='_S_scientific' value='256'/>
        <enumerator name='_S_showbase' value='512'/>
        <enumerator name='_S_showpoint' value='1024'/>
        <enumerator name='_S_showpos' value='2048'/>
        <enumerator name='_S_skipws' value='4096'/>
        <enumerator name='_S_unitbuf' value='8192'/>
        <enumerator name='_S_uppercase' value='16384'/>
        <enumerator name='_S_adjustfield' value='176'/>
        <enumerator name='_S_basefield' value='74'/>
        <enumerator name='_S_floatfield' value='260'/>
        <enumerator name='_S_ios_fmtflags_end' value='65536'/>
      </enum-decl>
      <enum-decl name='_Ios_Openmode' filepath='/usr/include/c++/4.9/bits/ios_base.h' line='103' column='1' id='type-id-2412'>
        <underlying-type type-id='type-id-40'/>
        <enumerator name='_S_app' value='1'/>
        <enumerator name='_S_ate' value='2'/>
        <enumerator name='_S_bin' value='4'/>
        <enumerator name='_S_in' value='8'/>
        <enumerator name='_S_out' value='16'/>
        <enumerator name='_S_trunc' value='32'/>
        <enumerator name='_S_ios_openmode_end' value='65536'/>
      </enum-decl>
      <enum-decl name='_Ios_Iostate' filepath='/usr/include/c++/4.9/bits/ios_base.h' line='143' column='1' id='type-id-2413'>
        <underlying-type type-id='type-id-40'/>
        <enumerator name='_S_goodbit' value='0'/>
        <enumerator name='_S_badbit' value='1'/>
        <enumerator name='_S_eofbit' value='2'/>
        <enumerator name='_S_failbit' value='4'/>
        <enumerator name='_S_ios_iostate_end' value='65536'/>
      </enum-decl>
      <enum-decl name='_Ios_Seekdir' filepath='/usr/include/c++/4.9/bits/ios_base.h' line='181' column='1' id='type-id-2414'>
        <underlying-type type-id='type-id-40'/>
        <enumerator name='_S_beg' value='0'/>
        <enumerator name='_S_cur' value='1'/>
        <enumerator name='_S_end' value='2'/>
        <enumerator name='_S_ios_seekdir_end' value='65536'/>
      </enum-decl>
      <class-decl name='__ptrtr_not_void&lt;boost::shared_ptr&lt;boost::program_options::option_description&gt;, boost::shared_ptr&lt;boost::program_options::option_description&gt; &gt;' size-in-bits='8' is-struct='yes' visibility='default' filepath='/usr/include/c++/4.9/bits/ptr_traits.h' line='105' column='1' id='type-id-2415'>
        <member-type access='public'>
          <typedef-decl name='__type' type-id='type-id-210' filepath='/usr/include/c++/4.9/bits/ptr_traits.h' line='107' column='1' id='type-id-1893'/>
        </member-type>
      </class-decl>
      <class-decl name='__ptrtr_not_void&lt;boost::shared_ptr&lt;boost::program_options::options_description&gt;, boost::shared_ptr&lt;boost::program_options::options_description&gt; &gt;' size-in-bits='8' is-struct='yes' visibility='default' filepath='/usr/include/c++/4.9/bits/ptr_traits.h' line='105' column='1' id='type-id-2416'>
        <member-type access='public'>
          <typedef-decl name='__type' type-id='type-id-213' filepath='/usr/include/c++/4.9/bits/ptr_traits.h' line='107' column='1' id='type-id-1895'/>
        </member-type>
      </class-decl>
      <class-decl name='__ptrtr_not_void&lt;mongo::logger::Appender&lt;mongo::logger::MessageEventEphemeral&gt;*, mongo::logger::Appender&lt;mongo::logger::MessageEventEphemeral&gt;*&gt;' size-in-bits='8' is-struct='yes' visibility='default' filepath='/usr/include/c++/4.9/bits/ptr_traits.h' line='105' column='1' id='type-id-2417'>
        <member-type access='public'>
          <typedef-decl name='__type' type-id='type-id-1590' filepath='/usr/include/c++/4.9/bits/ptr_traits.h' line='107' column='1' id='type-id-1897'/>
        </member-type>
      </class-decl>
      <class-decl name='__ptrtr_not_void&lt;mongo::optionenvironment::Constraint*, mongo::optionenvironment::Constraint*&gt;' size-in-bits='8' is-struct='yes' visibility='default' filepath='/usr/include/c++/4.9/bits/ptr_traits.h' line='105' column='1' id='type-id-2418'>
        <member-type access='public'>
          <typedef-decl name='__type' type-id='type-id-1620' filepath='/usr/include/c++/4.9/bits/ptr_traits.h' line='107' column='1' id='type-id-1899'/>
        </member-type>
      </class-decl>
      <class-decl name='__ptrtr_not_void&lt;mongo::optionenvironment::KeyConstraint*, mongo::optionenvironment::KeyConstraint*&gt;' size-in-bits='8' is-struct='yes' visibility='default' filepath='/usr/include/c++/4.9/bits/ptr_traits.h' line='105' column='1' id='type-id-2419'>
        <member-type access='public'>
          <typedef-decl name='__type' type-id='type-id-1628' filepath='/usr/include/c++/4.9/bits/ptr_traits.h' line='107' column='1' id='type-id-1901'/>
        </member-type>
      </class-decl>
      <class-decl name='__ptrtr_not_void&lt;std::_Rb_tree_node&lt;std::pair&lt;const std::basic_string&lt;char, std::char_traits&lt;char&gt;, std::allocator&lt;char&gt; &gt;, std::basic_string&lt;char, std::char_traits&lt;char&gt;, std::allocator&lt;char&gt; &gt; &gt; &gt;, std::_Rb_tree_node&lt;std::pair&lt;const std::basic_string&lt;char, std::char_traits&lt;char&gt;, std::allocator&lt;char&gt; &gt;, std::basic_string&lt;char, std::char_traits&lt;char&gt;, std::allocator&lt;char&gt; &gt; &gt; &gt; &gt;' size-in-bits='8' is-struct='yes' visibility='default' filepath='/usr/include/c++/4.9/bits/ptr_traits.h' line='105' column='1' id='type-id-2420'>
        <member-type access='public'>
          <typedef-decl name='__type' type-id='type-id-833' filepath='/usr/include/c++/4.9/bits/ptr_traits.h' line='107' column='1' id='type-id-1903'/>
        </member-type>
      </class-decl>
      <class-decl name='__ptrtr_not_void&lt;std::basic_string&lt;char, std::char_traits&lt;char&gt;, std::allocator&lt;char&gt; &gt;, std::basic_string&lt;char, std::char_traits&lt;char&gt;, std::allocator&lt;char&gt; &gt; &gt;' size-in-bits='8' is-struct='yes' visibility='default' filepath='/usr/include/c++/4.9/bits/ptr_traits.h' line='105' column='1' id='type-id-2421'>
        <member-type access='public'>
          <typedef-decl name='__type' type-id='type-id-37' filepath='/usr/include/c++/4.9/bits/ptr_traits.h' line='107' column='1' id='type-id-1905'/>
        </member-type>
      </class-decl>
      <class-decl name='__ptrtr_not_void&lt;std::pair&lt;const std::basic_string&lt;char, std::char_traits&lt;char&gt;, std::allocator&lt;char&gt; &gt;, mongo::ServerParameter*&gt;, std::pair&lt;const std::basic_string&lt;char, std::char_traits&lt;char&gt;, std::allocator&lt;char&gt; &gt;, mongo::ServerParameter*&gt; &gt;' size-in-bits='8' is-struct='yes' visibility='default' filepath='/usr/include/c++/4.9/bits/ptr_traits.h' line='105' column='1' id='type-id-2422'>
        <member-type access='public'>
          <typedef-decl name='__type' type-id='type-id-1291' filepath='/usr/include/c++/4.9/bits/ptr_traits.h' line='107' column='1' id='type-id-1907'/>
        </member-type>
      </class-decl>
      <class-decl name='__ptrtr_not_void&lt;std::pair&lt;const std::basic_string&lt;char, std::char_traits&lt;char&gt;, std::allocator&lt;char&gt; &gt;, mongo::optionenvironment::Value&gt;, std::pair&lt;const std::basic_string&lt;char, std::char_traits&lt;char&gt;, std::allocator&lt;char&gt; &gt;, mongo::optionenvironment::Value&gt; &gt;' size-in-bits='8' is-struct='yes' visibility='default' filepath='/usr/include/c++/4.9/bits/ptr_traits.h' line='105' column='1' id='type-id-2423'>
        <member-type access='public'>
          <typedef-decl name='__type' type-id='type-id-1299' filepath='/usr/include/c++/4.9/bits/ptr_traits.h' line='107' column='1' id='type-id-1909'/>
        </member-type>
      </class-decl>
      <class-decl name='__ptrtr_not_void&lt;std::pair&lt;const std::basic_string&lt;char, std::char_traits&lt;char&gt;, std::allocator&lt;char&gt; &gt;, std::basic_string&lt;char, std::char_traits&lt;char&gt;, std::allocator&lt;char&gt; &gt; &gt;, std::pair&lt;const std::basic_string&lt;char, std::char_traits&lt;char&gt;, std::allocator&lt;char&gt; &gt;, std::basic_string&lt;char, std::char_traits&lt;char&gt;, std::allocator&lt;char&gt; &gt; &gt; &gt;' size-in-bits='8' is-struct='yes' visibility='default' filepath='/usr/include/c++/4.9/bits/ptr_traits.h' line='105' column='1' id='type-id-2424'>
        <member-type access='public'>
          <typedef-decl name='__type' type-id='type-id-1303' filepath='/usr/include/c++/4.9/bits/ptr_traits.h' line='107' column='1' id='type-id-1911'/>
        </member-type>
      </class-decl>
      <class-decl name='__ptrtr_not_void&lt;std::shared_ptr&lt;mongo::optionenvironment::Constraint&gt;, std::shared_ptr&lt;mongo::optionenvironment::Constraint&gt; &gt;' size-in-bits='8' is-struct='yes' visibility='default' filepath='/usr/include/c++/4.9/bits/ptr_traits.h' line='105' column='1' id='type-id-2425'>
        <member-type access='public'>
          <typedef-decl name='__type' type-id='type-id-1331' filepath='/usr/include/c++/4.9/bits/ptr_traits.h' line='107' column='1' id='type-id-1913'/>
        </member-type>
      </class-decl>
      <class-decl name='pointer_traits&lt;boost::shared_ptr&lt;boost::program_options::option_description&gt;*&gt;' size-in-bits='8' is-struct='yes' visibility='default' filepath='/usr/include/c++/4.9/bits/ptr_traits.h' line='150' column='1' id='type-id-2426'>
        <member-type access='public'>
          <typedef-decl name='pointer' type-id='type-id-212' filepath='/usr/include/c++/4.9/bits/ptr_traits.h' line='153' column='1' id='type-id-2427'/>
        </member-type>
        <member-type access='public'>
          <typedef-decl name='difference_type' type-id='type-id-2428' filepath='/usr/include/c++/4.9/bits/ptr_traits.h' line='157' column='1' id='type-id-2429'/>
        </member-type>
        <member-type access='public'>
          <typedef-decl name='rebind' type-id='type-id-26' filepath='/usr/include/c++/4.9/bits/ptr_traits.h' line='160' column='1' id='type-id-2227'/>
        </member-type>
      </class-decl>
      <class-decl name='pointer_traits&lt;boost::shared_ptr&lt;boost::program_options::options_description&gt;*&gt;' size-in-bits='8' is-struct='yes' visibility='default' filepath='/usr/include/c++/4.9/bits/ptr_traits.h' line='150' column='1' id='type-id-2430'>
        <member-type access='public'>
          <typedef-decl name='pointer' type-id='type-id-215' filepath='/usr/include/c++/4.9/bits/ptr_traits.h' line='153' column='1' id='type-id-2431'/>
        </member-type>
        <member-type access='public'>
          <typedef-decl name='difference_type' type-id='type-id-2428' filepath='/usr/include/c++/4.9/bits/ptr_traits.h' line='157' column='1' id='type-id-2432'/>
        </member-type>
        <member-type access='public'>
          <typedef-decl name='rebind' type-id='type-id-26' filepath='/usr/include/c++/4.9/bits/ptr_traits.h' line='160' column='1' id='type-id-2239'/>
        </member-type>
      </class-decl>
      <class-decl name='pointer_traits&lt;mongo::logger::Appender&lt;mongo::logger::MessageEventEphemeral&gt;**&gt;' size-in-bits='8' is-struct='yes' visibility='default' filepath='/usr/include/c++/4.9/bits/ptr_traits.h' line='150' column='1' id='type-id-2433'>
        <member-type access='public'>
          <typedef-decl name='pointer' type-id='type-id-1595' filepath='/usr/include/c++/4.9/bits/ptr_traits.h' line='153' column='1' id='type-id-2434'/>
        </member-type>
        <member-type access='public'>
          <typedef-decl name='difference_type' type-id='type-id-2428' filepath='/usr/include/c++/4.9/bits/ptr_traits.h' line='157' column='1' id='type-id-2435'/>
        </member-type>
        <member-type access='public'>
          <typedef-decl name='rebind' type-id='type-id-26' filepath='/usr/include/c++/4.9/bits/ptr_traits.h' line='160' column='1' id='type-id-2251'/>
        </member-type>
      </class-decl>
      <class-decl name='pointer_traits&lt;mongo::optionenvironment::Constraint**&gt;' size-in-bits='8' is-struct='yes' visibility='default' filepath='/usr/include/c++/4.9/bits/ptr_traits.h' line='150' column='1' id='type-id-2436'>
        <member-type access='public'>
          <typedef-decl name='pointer' type-id='type-id-1625' filepath='/usr/include/c++/4.9/bits/ptr_traits.h' line='153' column='1' id='type-id-2437'/>
        </member-type>
        <member-type access='public'>
          <typedef-decl name='difference_type' type-id='type-id-2428' filepath='/usr/include/c++/4.9/bits/ptr_traits.h' line='157' column='1' id='type-id-2438'/>
        </member-type>
        <member-type access='public'>
          <typedef-decl name='rebind' type-id='type-id-26' filepath='/usr/include/c++/4.9/bits/ptr_traits.h' line='160' column='1' id='type-id-2263'/>
        </member-type>
      </class-decl>
      <class-decl name='pointer_traits&lt;mongo::optionenvironment::KeyConstraint**&gt;' size-in-bits='8' is-struct='yes' visibility='default' filepath='/usr/include/c++/4.9/bits/ptr_traits.h' line='150' column='1' id='type-id-2439'>
        <member-type access='public'>
          <typedef-decl name='pointer' type-id='type-id-1633' filepath='/usr/include/c++/4.9/bits/ptr_traits.h' line='153' column='1' id='type-id-2440'/>
        </member-type>
        <member-type access='public'>
          <typedef-decl name='difference_type' type-id='type-id-2428' filepath='/usr/include/c++/4.9/bits/ptr_traits.h' line='157' column='1' id='type-id-2441'/>
        </member-type>
        <member-type access='public'>
          <typedef-decl name='rebind' type-id='type-id-26' filepath='/usr/include/c++/4.9/bits/ptr_traits.h' line='160' column='1' id='type-id-2275'/>
        </member-type>
      </class-decl>
      <class-decl name='pointer_traits&lt;std::_Rb_tree_node&lt;std::pair&lt;const std::basic_string&lt;char, std::char_traits&lt;char&gt;, std::allocator&lt;char&gt; &gt;, std::basic_string&lt;char, std::char_traits&lt;char&gt;, std::allocator&lt;char&gt; &gt; &gt; &gt;*&gt;' size-in-bits='8' is-struct='yes' visibility='default' filepath='/usr/include/c++/4.9/bits/ptr_traits.h' line='150' column='1' id='type-id-2442'>
        <member-type access='public'>
          <typedef-decl name='pointer' type-id='type-id-1760' filepath='/usr/include/c++/4.9/bits/ptr_traits.h' line='153' column='1' id='type-id-2443'/>
        </member-type>
        <member-type access='public'>
          <typedef-decl name='difference_type' type-id='type-id-2428' filepath='/usr/include/c++/4.9/bits/ptr_traits.h' line='157' column='1' id='type-id-2444'/>
        </member-type>
        <member-type access='public'>
          <typedef-decl name='rebind' type-id='type-id-26' filepath='/usr/include/c++/4.9/bits/ptr_traits.h' line='160' column='1' id='type-id-2287'/>
        </member-type>
      </class-decl>
      <class-decl name='pointer_traits&lt;std::basic_string&lt;char, std::char_traits&lt;char&gt;, std::allocator&lt;char&gt; &gt;*&gt;' size-in-bits='8' is-struct='yes' visibility='default' filepath='/usr/include/c++/4.9/bits/ptr_traits.h' line='150' column='1' id='type-id-2445'>
        <member-type access='public'>
          <typedef-decl name='pointer' type-id='type-id-1989' filepath='/usr/include/c++/4.9/bits/ptr_traits.h' line='153' column='1' id='type-id-2446'/>
        </member-type>
        <member-type access='public'>
          <typedef-decl name='difference_type' type-id='type-id-2428' filepath='/usr/include/c++/4.9/bits/ptr_traits.h' line='157' column='1' id='type-id-2447'/>
        </member-type>
        <member-type access='public'>
          <typedef-decl name='rebind' type-id='type-id-26' filepath='/usr/include/c++/4.9/bits/ptr_traits.h' line='160' column='1' id='type-id-2298'/>
        </member-type>
      </class-decl>
      <class-decl name='pointer_traits&lt;std::pair&lt;const std::basic_string&lt;char, std::char_traits&lt;char&gt;, std::allocator&lt;char&gt; &gt;, mongo::ServerParameter*&gt;*&gt;' size-in-bits='8' is-struct='yes' visibility='default' filepath='/usr/include/c++/4.9/bits/ptr_traits.h' line='150' column='1' id='type-id-2448'>
        <member-type access='public'>
          <typedef-decl name='pointer' type-id='type-id-2065' filepath='/usr/include/c++/4.9/bits/ptr_traits.h' line='153' column='1' id='type-id-2449'/>
        </member-type>
        <member-type access='public'>
          <typedef-decl name='difference_type' type-id='type-id-2428' filepath='/usr/include/c++/4.9/bits/ptr_traits.h' line='157' column='1' id='type-id-2450'/>
        </member-type>
        <member-type access='public'>
          <typedef-decl name='rebind' type-id='type-id-26' filepath='/usr/include/c++/4.9/bits/ptr_traits.h' line='160' column='1' id='type-id-2310'/>
        </member-type>
      </class-decl>
      <class-decl name='pointer_traits&lt;std::pair&lt;const std::basic_string&lt;char, std::char_traits&lt;char&gt;, std::allocator&lt;char&gt; &gt;, mongo::optionenvironment::Value&gt;*&gt;' size-in-bits='8' is-struct='yes' visibility='default' filepath='/usr/include/c++/4.9/bits/ptr_traits.h' line='150' column='1' id='type-id-2451'>
        <member-type access='public'>
          <typedef-decl name='pointer' type-id='type-id-2071' filepath='/usr/include/c++/4.9/bits/ptr_traits.h' line='153' column='1' id='type-id-2452'/>
        </member-type>
        <member-type access='public'>
          <typedef-decl name='difference_type' type-id='type-id-2428' filepath='/usr/include/c++/4.9/bits/ptr_traits.h' line='157' column='1' id='type-id-2453'/>
        </member-type>
        <member-type access='public'>
          <typedef-decl name='rebind' type-id='type-id-26' filepath='/usr/include/c++/4.9/bits/ptr_traits.h' line='160' column='1' id='type-id-2322'/>
        </member-type>
      </class-decl>
      <class-decl name='pointer_traits&lt;std::pair&lt;const std::basic_string&lt;char, std::char_traits&lt;char&gt;, std::allocator&lt;char&gt; &gt;, std::basic_string&lt;char, std::char_traits&lt;char&gt;, std::allocator&lt;char&gt; &gt; &gt;*&gt;' size-in-bits='8' is-struct='yes' visibility='default' filepath='/usr/include/c++/4.9/bits/ptr_traits.h' line='150' column='1' id='type-id-2454'>
        <member-type access='public'>
          <typedef-decl name='pointer' type-id='type-id-2074' filepath='/usr/include/c++/4.9/bits/ptr_traits.h' line='153' column='1' id='type-id-2455'/>
        </member-type>
        <member-type access='public'>
          <typedef-decl name='difference_type' type-id='type-id-2428' filepath='/usr/include/c++/4.9/bits/ptr_traits.h' line='157' column='1' id='type-id-2456'/>
        </member-type>
        <member-type access='public'>
          <typedef-decl name='rebind' type-id='type-id-26' filepath='/usr/include/c++/4.9/bits/ptr_traits.h' line='160' column='1' id='type-id-2334'/>
        </member-type>
      </class-decl>
      <class-decl name='pointer_traits&lt;std::shared_ptr&lt;mongo::optionenvironment::Constraint&gt;*&gt;' size-in-bits='8' is-struct='yes' visibility='default' filepath='/usr/include/c++/4.9/bits/ptr_traits.h' line='150' column='1' id='type-id-2457'>
        <member-type access='public'>
          <typedef-decl name='pointer' type-id='type-id-2109' filepath='/usr/include/c++/4.9/bits/ptr_traits.h' line='153' column='1' id='type-id-2458'/>
        </member-type>
        <member-type access='public'>
          <typedef-decl name='difference_type' type-id='type-id-2428' filepath='/usr/include/c++/4.9/bits/ptr_traits.h' line='157' column='1' id='type-id-2459'/>
        </member-type>
        <member-type access='public'>
          <typedef-decl name='rebind' type-id='type-id-26' filepath='/usr/include/c++/4.9/bits/ptr_traits.h' line='160' column='1' id='type-id-2346'/>
        </member-type>
      </class-decl>
      <class-decl name='mersenne_twister_engine&lt;long unsigned int, 32ul, 624ul, 397ul, 31ul, 2567483615ul, 11ul, 4294967295ul, 7ul, 2636928640ul, 15ul, 4022730752ul, 18ul, 1812433253ul&gt;' size-in-bits='40000' visibility='default' filepath='/usr/include/c++/4.9/bits/random.h' line='451' column='1' id='type-id-2051'>
        <member-type access='public'>
          <typedef-decl name='result_type' type-id='type-id-50' filepath='/usr/include/c++/4.9/bits/random.h' line='482' column='1' id='type-id-1282'/>
        </member-type>
        <data-member access='public' static='yes'>
          <var-decl name='word_size' type-id='type-id-1336' visibility='default' filepath='/usr/include/c++/4.9/bits/random.h' line='485' column='1'/>
        </data-member>
        <data-member access='public' static='yes'>
          <var-decl name='state_size' type-id='type-id-1336' mangled-name='_ZNSt23mersenne_twister_engineImLm32ELm624ELm397ELm31ELm2567483615ELm11ELm4294967295ELm7ELm2636928640ELm15ELm4022730752ELm18ELm1812433253EE10state_sizeE' visibility='default' filepath='/usr/include/c++/4.9/bits/random.h' line='486' column='1'/>
        </data-member>
        <data-member access='public' static='yes'>
          <var-decl name='shift_size' type-id='type-id-1336' visibility='default' filepath='/usr/include/c++/4.9/bits/random.h' line='487' column='1'/>
        </data-member>
        <data-member access='public' static='yes'>
          <var-decl name='mask_bits' type-id='type-id-1336' visibility='default' filepath='/usr/include/c++/4.9/bits/random.h' line='488' column='1'/>
        </data-member>
        <data-member access='public' static='yes'>
          <var-decl name='xor_mask' type-id='type-id-1283' visibility='default' filepath='/usr/include/c++/4.9/bits/random.h' line='489' column='1'/>
        </data-member>
        <data-member access='public' static='yes'>
          <var-decl name='tempering_u' type-id='type-id-1336' visibility='default' filepath='/usr/include/c++/4.9/bits/random.h' line='490' column='1'/>
        </data-member>
        <data-member access='public' static='yes'>
          <var-decl name='tempering_d' type-id='type-id-1283' visibility='default' filepath='/usr/include/c++/4.9/bits/random.h' line='491' column='1'/>
        </data-member>
        <data-member access='public' static='yes'>
          <var-decl name='tempering_s' type-id='type-id-1336' visibility='default' filepath='/usr/include/c++/4.9/bits/random.h' line='492' column='1'/>
        </data-member>
        <data-member access='public' static='yes'>
          <var-decl name='tempering_b' type-id='type-id-1283' visibility='default' filepath='/usr/include/c++/4.9/bits/random.h' line='493' column='1'/>
        </data-member>
        <data-member access='public' static='yes'>
          <var-decl name='tempering_t' type-id='type-id-1336' visibility='default' filepath='/usr/include/c++/4.9/bits/random.h' line='494' column='1'/>
        </data-member>
        <data-member access='public' static='yes'>
          <var-decl name='tempering_c' type-id='type-id-1283' visibility='default' filepath='/usr/include/c++/4.9/bits/random.h' line='495' column='1'/>
        </data-member>
        <data-member access='public' static='yes'>
          <var-decl name='tempering_l' type-id='type-id-1336' visibility='default' filepath='/usr/include/c++/4.9/bits/random.h' line='496' column='1'/>
        </data-member>
        <data-member access='public' static='yes'>
          <var-decl name='initialization_multiplier' type-id='type-id-1283' visibility='default' filepath='/usr/include/c++/4.9/bits/random.h' line='497' column='1'/>
        </data-member>
        <data-member access='public' static='yes'>
          <var-decl name='default_seed' type-id='type-id-1283' visibility='default' filepath='/usr/include/c++/4.9/bits/random.h' line='498' column='1'/>
        </data-member>
        <data-member access='private' layout-offset-in-bits='0'>
          <var-decl name='_M_x' type-id='type-id-51' visibility='default' filepath='/usr/include/c++/4.9/bits/random.h' line='621' column='1'/>
        </data-member>
        <data-member access='private' layout-offset-in-bits='39936'>
          <var-decl name='_M_p' type-id='type-id-1335' visibility='default' filepath='/usr/include/c++/4.9/bits/random.h' line='622' column='1'/>
        </data-member>
        <member-function access='public'>
          <function-decl name='mersenne_twister_engine' filepath='/usr/include/c++/4.9/bits/random.h' line='502' column='1' visibility='default' binding='global' size-in-bits='64'>
            <parameter type-id='type-id-2052' is-artificial='yes'/>
            <parameter type-id='type-id-1282'/>
            <return type-id='type-id-62'/>
          </function-decl>
        </member-function>
      </class-decl>
      <class-decl name='shared_ptr&lt;mongo::optionenvironment::Constraint&gt;' size-in-bits='128' visibility='default' filepath='/usr/include/c++/4.9/bits/shared_ptr.h' line='93' column='1' id='type-id-1331'>
        <base-class access='public' layout-offset-in-bits='0' type-id='type-id-1024'/>
        <member-function access='public'>
          <function-decl name='shared_ptr' filepath='/usr/include/c++/4.9/bits/shared_ptr.h' line='100' column='1' visibility='default' binding='global' size-in-bits='64'>
            <parameter type-id='type-id-2109' is-artificial='yes'/>
            <return type-id='type-id-62'/>
          </function-decl>
        </member-function>
        <member-function access='public'>
          <function-decl name='shared_ptr' filepath='/usr/include/c++/4.9/bits/shared_ptr.h' line='103' column='1' visibility='default' binding='global' size-in-bits='64'>
            <parameter type-id='type-id-2109' is-artificial='yes'/>
            <parameter type-id='type-id-1333'/>
            <return type-id='type-id-62'/>
          </function-decl>
        </member-function>
        <member-function access='public'>
          <function-decl name='shared_ptr' filepath='/usr/include/c++/4.9/bits/shared_ptr.h' line='226' column='1' visibility='default' binding='global' size-in-bits='64'>
            <parameter type-id='type-id-2109' is-artificial='yes'/>
            <parameter type-id='type-id-2108'/>
            <return type-id='type-id-62'/>
          </function-decl>
        </member-function>
        <member-function access='private'>
          <function-decl name='shared_ptr' filepath='/usr/include/c++/4.9/bits/shared_ptr.h' line='324' column='1' visibility='default' binding='global' size-in-bits='64'>
            <parameter type-id='type-id-2109' is-artificial='yes'/>
            <parameter type-id='type-id-1471'/>
            <parameter type-id='type-id-2460'/>
            <return type-id='type-id-62'/>
          </function-decl>
        </member-function>
      </class-decl>
      <class-decl name='_Mutex_base&lt;(__gnu_cxx::_Lock_policy)2u&gt;' size-in-bits='8' visibility='default' filepath='/usr/include/c++/4.9/bits/shared_ptr_base.h' line='88' column='1' id='type-id-2461'>
        <member-type access='protected'>
          <enum-decl name='__anonymous_enum__' is-anonymous='yes' filepath='/usr/include/c++/4.9/bits/shared_ptr_base.h' line='92' column='1' id='type-id-2462'>
            <underlying-type type-id='type-id-40'/>
            <enumerator name='_S_need_barriers' value='0'/>
          </enum-decl>
        </member-type>
      </class-decl>
      <class-decl name='_Sp_counted_base&lt;(__gnu_cxx::_Lock_policy)2u&gt;' size-in-bits='128' visibility='default' filepath='/usr/include/c++/4.9/bits/shared_ptr_base.h' line='107' column='1' id='type-id-840'>
        <base-class access='public' layout-offset-in-bits='0' type-id='type-id-2461'/>
        <data-member access='private' layout-offset-in-bits='64'>
          <var-decl name='_M_use_count' type-id='type-id-103' visibility='default' filepath='/usr/include/c++/4.9/bits/shared_ptr_base.h' line='206' column='1'/>
        </data-member>
        <data-member access='private' layout-offset-in-bits='96'>
          <var-decl name='_M_weak_count' type-id='type-id-103' visibility='default' filepath='/usr/include/c++/4.9/bits/shared_ptr_base.h' line='207' column='1'/>
        </data-member>
        <member-function access='public'>
          <function-decl name='_Sp_counted_base' filepath='/usr/include/c++/4.9/bits/shared_ptr_base.h' line='111' column='1' visibility='default' binding='global' size-in-bits='64'>
            <parameter type-id='type-id-1765' is-artificial='yes'/>
            <return type-id='type-id-62'/>
          </function-decl>
        </member-function>
        <member-function access='private'>
          <function-decl name='_Sp_counted_base' filepath='/usr/include/c++/4.9/bits/shared_ptr_base.h' line='203' column='1' visibility='default' binding='global' size-in-bits='64'>
            <parameter type-id='type-id-1765' is-artificial='yes'/>
            <parameter type-id='type-id-842'/>
            <return type-id='type-id-62'/>
          </function-decl>
        </member-function>
        <member-function access='public'>
          <function-decl name='_M_release' mangled-name='_ZNSt16_Sp_counted_baseILN9__gnu_cxx12_Lock_policyE2EE10_M_releaseEv' filepath='/usr/include/c++/4.9/bits/shared_ptr_base.h' line='142' column='1' visibility='default' binding='global' size-in-bits='64' elf-symbol-id='_ZNSt16_Sp_counted_baseILN9__gnu_cxx12_Lock_policyE2EE10_M_releaseEv'>
            <parameter type-id='type-id-1765' is-artificial='yes'/>
            <return type-id='type-id-62'/>
          </function-decl>
        </member-function>
        <member-function access='public' destructor='yes' vtable-offset='-1'>
          <function-decl name='~_Sp_counted_base' filepath='/usr/include/c++/4.9/bits/shared_ptr_base.h' line='115' column='1' visibility='default' binding='global' size-in-bits='64'>
            <parameter type-id='type-id-1765' is-artificial='yes'/>
            <parameter type-id='type-id-29' is-artificial='yes'/>
            <return type-id='type-id-62'/>
          </function-decl>
        </member-function>
        <member-function access='public' vtable-offset='2'>
          <function-decl name='_M_dispose' mangled-name='_ZNSt16_Sp_counted_baseILN9__gnu_cxx12_Lock_policyE2EE10_M_disposeEv' filepath='/usr/include/c++/4.9/bits/shared_ptr_base.h' line='121' column='1' visibility='default' binding='global' size-in-bits='64'>
            <parameter type-id='type-id-1765' is-artificial='yes'/>
            <return type-id='type-id-62'/>
          </function-decl>
        </member-function>
        <member-function access='public' vtable-offset='3'>
          <function-decl name='_M_destroy' mangled-name='_ZNSt16_Sp_counted_baseILN9__gnu_cxx12_Lock_policyE2EE10_M_destroyEv' filepath='/usr/include/c++/4.9/bits/shared_ptr_base.h' line='125' column='1' visibility='default' binding='global' size-in-bits='64'>
            <parameter type-id='type-id-1765' is-artificial='yes'/>
            <return type-id='type-id-62'/>
          </function-decl>
        </member-function>
        <member-function access='public' vtable-offset='4'>
          <function-decl name='_M_get_deleter' mangled-name='_ZNSt16_Sp_counted_baseILN9__gnu_cxx12_Lock_policyE2EE14_M_get_deleterERKSt9type_info' filepath='/usr/include/c++/4.9/bits/shared_ptr_base.h' line='129' column='1' visibility='default' binding='global' size-in-bits='64'>
            <parameter type-id='type-id-1765' is-artificial='yes'/>
            <parameter type-id='type-id-1351'/>
            <return type-id='type-id-26'/>
          </function-decl>
        </member-function>
      </class-decl>
      <class-decl name='__shared_count&lt;(__gnu_cxx::_Lock_policy)2u&gt;' size-in-bits='64' visibility='default' filepath='/usr/include/c++/4.9/bits/shared_ptr_base.h' line='557' column='1' id='type-id-1020'>
        <data-member access='private' layout-offset-in-bits='0'>
          <var-decl name='_M_pi' type-id='type-id-1765' visibility='default' filepath='/usr/include/c++/4.9/bits/shared_ptr_base.h' line='727' column='1'/>
        </data-member>
        <member-function access='public'>
          <function-decl name='__shared_count' filepath='/usr/include/c++/4.9/bits/shared_ptr_base.h' line='560' column='1' visibility='default' binding='global' size-in-bits='64'>
            <parameter type-id='type-id-1916' is-artificial='yes'/>
            <return type-id='type-id-62'/>
          </function-decl>
        </member-function>
        <member-function access='public'>
          <function-decl name='__shared_count' filepath='/usr/include/c++/4.9/bits/shared_ptr_base.h' line='816' column='1' visibility='default' binding='global' size-in-bits='64'>
            <parameter type-id='type-id-1916' is-artificial='yes'/>
            <parameter type-id='type-id-1030'/>
            <return type-id='type-id-62'/>
          </function-decl>
        </member-function>
        <member-function access='public'>
          <function-decl name='__shared_count' filepath='/usr/include/c++/4.9/bits/shared_ptr_base.h' line='828' column='1' visibility='default' binding='global' size-in-bits='64'>
            <parameter type-id='type-id-1916' is-artificial='yes'/>
            <parameter type-id='type-id-1030'/>
            <parameter type-id='type-id-2460'/>
            <return type-id='type-id-62'/>
          </function-decl>
        </member-function>
        <member-function access='public' destructor='yes'>
          <function-decl name='~__shared_count' filepath='/usr/include/c++/4.9/bits/shared_ptr_base.h' line='663' column='1' visibility='default' binding='global' size-in-bits='64'>
            <parameter type-id='type-id-1916' is-artificial='yes'/>
            <parameter type-id='type-id-29' is-artificial='yes'/>
            <return type-id='type-id-62'/>
          </function-decl>
        </member-function>
        <member-function access='public'>
          <function-decl name='__shared_count' filepath='/usr/include/c++/4.9/bits/shared_ptr_base.h' line='669' column='1' visibility='default' binding='global' size-in-bits='64'>
            <parameter type-id='type-id-1916' is-artificial='yes'/>
            <parameter type-id='type-id-1022'/>
            <return type-id='type-id-62'/>
          </function-decl>
        </member-function>
        <member-function access='public' destructor='yes'>
          <function-decl name='~__shared_count' mangled-name='_ZNSt14__shared_countILN9__gnu_cxx12_Lock_policyE2EED2Ev' filepath='/usr/include/c++/4.9/bits/shared_ptr_base.h' line='663' column='1' visibility='default' binding='global' size-in-bits='64' elf-symbol-id='_ZNSt14__shared_countILN9__gnu_cxx12_Lock_policyE2EED2Ev'>
            <parameter type-id='type-id-1916' is-artificial='yes'/>
            <parameter type-id='type-id-29' is-artificial='yes'/>
            <return type-id='type-id-62'/>
          </function-decl>
        </member-function>
      </class-decl>
      <class-decl name='__shared_ptr&lt;mongo::optionenvironment::Constraint, (__gnu_cxx::_Lock_policy)2u&gt;' size-in-bits='128' visibility='default' filepath='/usr/include/c++/4.9/bits/shared_ptr_base.h' line='860' column='1' id='type-id-1024'>
        <data-member access='private' layout-offset-in-bits='0'>
          <var-decl name='_M_ptr' type-id='type-id-1620' visibility='default' filepath='/usr/include/c++/4.9/bits/shared_ptr_base.h' line='1174' column='1'/>
        </data-member>
        <data-member access='private' layout-offset-in-bits='64'>
          <var-decl name='_M_refcount' type-id='type-id-1020' visibility='default' filepath='/usr/include/c++/4.9/bits/shared_ptr_base.h' line='1175' column='1'/>
        </data-member>
        <member-function access='public'>
          <function-decl name='__shared_ptr' filepath='/usr/include/c++/4.9/bits/shared_ptr_base.h' line='865' column='1' visibility='default' binding='global' size-in-bits='64'>
            <parameter type-id='type-id-1919' is-artificial='yes'/>
            <return type-id='type-id-62'/>
          </function-decl>
        </member-function>
        <member-function access='public'>
          <function-decl name='__shared_ptr' filepath='/usr/include/c++/4.9/bits/shared_ptr_base.h' line='912' column='1' visibility='default' binding='global' size-in-bits='64'>
            <parameter type-id='type-id-1919' is-artificial='yes'/>
            <parameter type-id='type-id-1026'/>
            <return type-id='type-id-62'/>
          </function-decl>
        </member-function>
        <member-function access='public' destructor='yes'>
          <function-decl name='~__shared_ptr' filepath='/usr/include/c++/4.9/bits/shared_ptr_base.h' line='914' column='1' visibility='default' binding='global' size-in-bits='64'>
            <parameter type-id='type-id-1919' is-artificial='yes'/>
            <parameter type-id='type-id-29' is-artificial='yes'/>
            <return type-id='type-id-62'/>
          </function-decl>
        </member-function>
        <member-function access='public'>
          <function-decl name='__shared_ptr' filepath='/usr/include/c++/4.9/bits/shared_ptr_base.h' line='922' column='1' visibility='default' binding='global' size-in-bits='64'>
            <parameter type-id='type-id-1919' is-artificial='yes'/>
            <parameter type-id='type-id-1918'/>
            <return type-id='type-id-62'/>
          </function-decl>
        </member-function>
        <member-function access='protected'>
          <function-decl name='__shared_ptr' filepath='/usr/include/c++/4.9/bits/shared_ptr_base.h' line='1145' column='1' visibility='default' binding='global' size-in-bits='64'>
            <parameter type-id='type-id-1919' is-artificial='yes'/>
            <parameter type-id='type-id-1033'/>
            <parameter type-id='type-id-2460'/>
            <return type-id='type-id-62'/>
          </function-decl>
        </member-function>
        <member-function access='public' destructor='yes'>
          <function-decl name='~__shared_ptr' mangled-name='_ZNSt12__shared_ptrIN5mongo17optionenvironment10ConstraintELN9__gnu_cxx12_Lock_policyE2EED2Ev' filepath='/usr/include/c++/4.9/bits/shared_ptr_base.h' line='914' column='1' visibility='default' binding='global' size-in-bits='64' elf-symbol-id='_ZNSt12__shared_ptrIN5mongo17optionenvironment10ConstraintELN9__gnu_cxx12_Lock_policyE2EED2Ev'>
            <parameter type-id='type-id-1919' is-artificial='yes'/>
            <parameter type-id='type-id-29' is-artificial='yes'/>
            <return type-id='type-id-62'/>
          </function-decl>
        </member-function>
      </class-decl>
      <class-decl name='__copy_move&lt;false, false, std::random_access_iterator_tag&gt;' size-in-bits='8' is-struct='yes' visibility='default' filepath='/usr/include/c++/4.9/bits/stl_algobase.h' line='327' column='1' id='type-id-2463'>
        <member-function access='public' static='yes'>
          <function-decl name='__copy_m&lt;const std::basic_string&lt;char&gt;*, std::basic_string&lt;char&gt;*&gt;' mangled-name='_ZNSt11__copy_moveILb0ELb0ESt26random_access_iterator_tagE8__copy_mIPKSsPSsEET0_T_S7_S6_' filepath='/usr/include/c++/4.9/bits/stl_algobase.h' line='331' column='1' visibility='default' binding='global' size-in-bits='64' elf-symbol-id='_ZNSt11__copy_moveILb0ELb0ESt26random_access_iterator_tagE8__copy_mIPKSsPSsEET0_T_S7_S6_'>
            <parameter type-id='type-id-1108'/>
            <parameter type-id='type-id-1108'/>
            <parameter type-id='type-id-1989'/>
            <return type-id='type-id-1989'/>
          </function-decl>
        </member-function>
        <member-function access='public' static='yes'>
          <function-decl name='__copy_m&lt;std::basic_string&lt;char&gt;*, std::basic_string&lt;char&gt;*&gt;' mangled-name='_ZNSt11__copy_moveILb0ELb0ESt26random_access_iterator_tagE8__copy_mIPSsS3_EET0_T_S5_S4_' filepath='/usr/include/c++/4.9/bits/stl_algobase.h' line='331' column='1' visibility='default' binding='global' size-in-bits='64' elf-symbol-id='_ZNSt11__copy_moveILb0ELb0ESt26random_access_iterator_tagE8__copy_mIPSsS3_EET0_T_S5_S4_'>
            <parameter type-id='type-id-1989'/>
            <parameter type-id='type-id-1989'/>
            <parameter type-id='type-id-1989'/>
            <return type-id='type-id-1989'/>
          </function-decl>
        </member-function>
      </class-decl>
      <typedef-decl name='_Bit_type' type-id='type-id-50' filepath='/usr/include/c++/4.9/bits/stl_bvector.h' line='67' column='1' id='type-id-1659'/>
      <class-decl name='_Bit_reference' size-in-bits='128' is-struct='yes' visibility='default' filepath='/usr/include/c++/4.9/bits/stl_bvector.h' line='70' column='1' id='type-id-672'>
        <data-member access='public' layout-offset-in-bits='0'>
          <var-decl name='_M_p' type-id='type-id-1660' visibility='default' filepath='/usr/include/c++/4.9/bits/stl_bvector.h' line='72' column='1'/>
        </data-member>
        <data-member access='public' layout-offset-in-bits='64'>
          <var-decl name='_M_mask' type-id='type-id-1659' visibility='default' filepath='/usr/include/c++/4.9/bits/stl_bvector.h' line='73' column='1'/>
        </data-member>
        <member-function access='public' constructor='yes'>
          <function-decl name='_Bit_reference' filepath='/usr/include/c++/4.9/bits/stl_bvector.h' line='75' column='1' visibility='default' binding='global' size-in-bits='64'>
            <parameter type-id='type-id-1658' is-artificial='yes'/>
            <parameter type-id='type-id-1660'/>
            <parameter type-id='type-id-1659'/>
            <return type-id='type-id-62'/>
          </function-decl>
        </member-function>
        <member-function access='public' constructor='yes'>
          <function-decl name='_Bit_reference' filepath='/usr/include/c++/4.9/bits/stl_bvector.h' line='78' column='1' visibility='default' binding='global' size-in-bits='64'>
            <parameter type-id='type-id-1658' is-artificial='yes'/>
            <return type-id='type-id-62'/>
          </function-decl>
        </member-function>
      </class-decl>
      <class-decl name='_Bit_iterator_base' size-in-bits='128' is-struct='yes' visibility='default' filepath='/usr/include/c++/4.9/bits/stl_bvector.h' line='136' column='1' id='type-id-668'>
        <base-class access='public' layout-offset-in-bits='0' type-id='type-id-2464'/>
        <data-member access='public' layout-offset-in-bits='0'>
          <var-decl name='_M_p' type-id='type-id-1660' visibility='default' filepath='/usr/include/c++/4.9/bits/stl_bvector.h' line='139' column='1'/>
        </data-member>
        <data-member access='public' layout-offset-in-bits='64'>
          <var-decl name='_M_offset' type-id='type-id-25' visibility='default' filepath='/usr/include/c++/4.9/bits/stl_bvector.h' line='140' column='1'/>
        </data-member>
        <member-function access='public' constructor='yes'>
          <function-decl name='_Bit_iterator_base' filepath='/usr/include/c++/4.9/bits/stl_bvector.h' line='142' column='1' visibility='default' binding='global' size-in-bits='64'>
            <parameter type-id='type-id-1656' is-artificial='yes'/>
            <parameter type-id='type-id-1660'/>
            <parameter type-id='type-id-25'/>
            <return type-id='type-id-62'/>
          </function-decl>
        </member-function>
      </class-decl>
      <class-decl name='_Bit_iterator' size-in-bits='128' is-struct='yes' visibility='default' filepath='/usr/include/c++/4.9/bits/stl_bvector.h' line='214' column='1' id='type-id-664'>
        <base-class access='public' layout-offset-in-bits='0' type-id='type-id-668'/>
        <member-type access='public'>
          <typedef-decl name='reference' type-id='type-id-672' filepath='/usr/include/c++/4.9/bits/stl_bvector.h' line='216' column='1' id='type-id-2465'/>
        </member-type>
        <member-type access='public'>
          <typedef-decl name='pointer' type-id='type-id-1658' filepath='/usr/include/c++/4.9/bits/stl_bvector.h' line='217' column='1' id='type-id-2466'/>
        </member-type>
        <member-type access='public'>
          <typedef-decl name='iterator' type-id='type-id-664' filepath='/usr/include/c++/4.9/bits/stl_bvector.h' line='218' column='1' id='type-id-1654'/>
        </member-type>
        <member-function access='public' constructor='yes'>
          <function-decl name='_Bit_iterator' filepath='/usr/include/c++/4.9/bits/stl_bvector.h' line='220' column='1' visibility='default' binding='global' size-in-bits='64'>
            <parameter type-id='type-id-1653' is-artificial='yes'/>
            <return type-id='type-id-62'/>
          </function-decl>
        </member-function>
        <member-function access='public' constructor='yes'>
          <function-decl name='_Bit_iterator' filepath='/usr/include/c++/4.9/bits/stl_bvector.h' line='222' column='1' visibility='default' binding='global' size-in-bits='64'>
            <parameter type-id='type-id-1653' is-artificial='yes'/>
            <parameter type-id='type-id-1660'/>
            <parameter type-id='type-id-25'/>
            <return type-id='type-id-62'/>
          </function-decl>
        </member-function>
      </class-decl>
      <class-decl name='_Bit_const_iterator' size-in-bits='128' is-struct='yes' visibility='default' filepath='/usr/include/c++/4.9/bits/stl_bvector.h' line='300' column='1' id='type-id-661'>
        <base-class access='public' layout-offset-in-bits='0' type-id='type-id-668'/>
        <member-type access='public'>
          <typedef-decl name='reference' type-id='type-id-1' filepath='/usr/include/c++/4.9/bits/stl_bvector.h' line='302' column='1' id='type-id-2467'/>
        </member-type>
        <member-type access='public'>
          <typedef-decl name='const_reference' type-id='type-id-1' filepath='/usr/include/c++/4.9/bits/stl_bvector.h' line='303' column='1' id='type-id-2468'/>
        </member-type>
        <member-type access='public'>
          <typedef-decl name='pointer' type-id='type-id-335' filepath='/usr/include/c++/4.9/bits/stl_bvector.h' line='304' column='1' id='type-id-2469'/>
        </member-type>
        <member-type access='public'>
          <typedef-decl name='const_iterator' type-id='type-id-661' filepath='/usr/include/c++/4.9/bits/stl_bvector.h' line='305' column='1' id='type-id-1651'/>
        </member-type>
        <member-function access='public' constructor='yes'>
          <function-decl name='_Bit_const_iterator' filepath='/usr/include/c++/4.9/bits/stl_bvector.h' line='307' column='1' visibility='default' binding='global' size-in-bits='64'>
            <parameter type-id='type-id-1650' is-artificial='yes'/>
            <return type-id='type-id-62'/>
          </function-decl>
        </member-function>
        <member-function access='public' constructor='yes'>
          <function-decl name='_Bit_const_iterator' filepath='/usr/include/c++/4.9/bits/stl_bvector.h' line='309' column='1' visibility='default' binding='global' size-in-bits='64'>
            <parameter type-id='type-id-1650' is-artificial='yes'/>
            <parameter type-id='type-id-1660'/>
            <parameter type-id='type-id-25'/>
            <return type-id='type-id-62'/>
          </function-decl>
        </member-function>
        <member-function access='public' constructor='yes'>
          <function-decl name='_Bit_const_iterator' filepath='/usr/include/c++/4.9/bits/stl_bvector.h' line='312' column='1' visibility='default' binding='global' size-in-bits='64'>
            <parameter type-id='type-id-1650' is-artificial='yes'/>
            <parameter type-id='type-id-666'/>
            <return type-id='type-id-62'/>
          </function-decl>
        </member-function>
      </class-decl>
      <class-decl name='_Bvector_base&lt;std::allocator&lt;bool&gt; &gt;' size-in-bits='320' is-struct='yes' visibility='default' filepath='/usr/include/c++/4.9/bits/stl_bvector.h' line='411' column='1' id='type-id-676'>
        <member-type access='public'>
          <typedef-decl name='_Bit_alloc_type' type-id='type-id-2354' filepath='/usr/include/c++/4.9/bits/stl_bvector.h' line='414' column='1' id='type-id-679'/>
        </member-type>
        <member-type access='public'>
          <class-decl name='_Bvector_impl' size-in-bits='320' is-struct='yes' visibility='default' filepath='/usr/include/c++/4.9/bits/stl_bvector.h' line='416' column='1' id='type-id-1665'>
            <base-class access='public' layout-offset-in-bits='0' type-id='type-id-1046'/>
            <data-member access='public' layout-offset-in-bits='0'>
              <var-decl name='_M_start' type-id='type-id-664' visibility='default' filepath='/usr/include/c++/4.9/bits/stl_bvector.h' line='419' column='1'/>
            </data-member>
            <data-member access='public' layout-offset-in-bits='128'>
              <var-decl name='_M_finish' type-id='type-id-664' visibility='default' filepath='/usr/include/c++/4.9/bits/stl_bvector.h' line='420' column='1'/>
            </data-member>
            <data-member access='public' layout-offset-in-bits='256'>
              <var-decl name='_M_end_of_storage' type-id='type-id-1660' visibility='default' filepath='/usr/include/c++/4.9/bits/stl_bvector.h' line='421' column='1'/>
            </data-member>
            <member-function access='public' constructor='yes'>
              <function-decl name='_Bvector_impl' filepath='/usr/include/c++/4.9/bits/stl_bvector.h' line='423' column='1' visibility='default' binding='global' size-in-bits='64'>
                <parameter type-id='type-id-1666' is-artificial='yes'/>
                <return type-id='type-id-62'/>
              </function-decl>
            </member-function>
            <member-function access='public' constructor='yes'>
              <function-decl name='_Bvector_impl' filepath='/usr/include/c++/4.9/bits/stl_bvector.h' line='427' column='1' visibility='default' binding='global' size-in-bits='64'>
                <parameter type-id='type-id-1666' is-artificial='yes'/>
                <parameter type-id='type-id-681'/>
                <return type-id='type-id-62'/>
              </function-decl>
            </member-function>
            <member-function access='public' constructor='yes'>
              <function-decl name='_Bvector_impl' filepath='/usr/include/c++/4.9/bits/stl_bvector.h' line='432' column='1' visibility='default' binding='global' size-in-bits='64'>
                <parameter type-id='type-id-1666' is-artificial='yes'/>
                <parameter type-id='type-id-1664'/>
                <return type-id='type-id-62'/>
              </function-decl>
            </member-function>
          </class-decl>
        </member-type>
        <member-type access='public'>
          <typedef-decl name='allocator_type' type-id='type-id-1034' filepath='/usr/include/c++/4.9/bits/stl_bvector.h' line='440' column='1' id='type-id-682'/>
        </member-type>
        <data-member access='protected' layout-offset-in-bits='0'>
          <var-decl name='_M_impl' type-id='type-id-1665' visibility='default' filepath='/usr/include/c++/4.9/bits/stl_bvector.h' line='477' column='1'/>
        </data-member>
        <member-function access='public'>
          <function-decl name='_Bvector_base' filepath='/usr/include/c++/4.9/bits/stl_bvector.h' line='454' column='1' visibility='default' binding='global' size-in-bits='64'>
            <parameter type-id='type-id-1662' is-artificial='yes'/>
            <return type-id='type-id-62'/>
          </function-decl>
        </member-function>
        <member-function access='public'>
          <function-decl name='_Bvector_base' filepath='/usr/include/c++/4.9/bits/stl_bvector.h' line='457' column='1' visibility='default' binding='global' size-in-bits='64'>
            <parameter type-id='type-id-1662' is-artificial='yes'/>
            <parameter type-id='type-id-684'/>
            <return type-id='type-id-62'/>
          </function-decl>
        </member-function>
        <member-function access='public'>
          <function-decl name='_Bvector_base' filepath='/usr/include/c++/4.9/bits/stl_bvector.h' line='461' column='1' visibility='default' binding='global' size-in-bits='64'>
            <parameter type-id='type-id-1662' is-artificial='yes'/>
            <parameter type-id='type-id-1661'/>
            <return type-id='type-id-62'/>
          </function-decl>
        </member-function>
        <member-function access='public' destructor='yes'>
          <function-decl name='~_Bvector_base' filepath='/usr/include/c++/4.9/bits/stl_bvector.h' line='473' column='1' visibility='default' binding='global' size-in-bits='64'>
            <parameter type-id='type-id-1662' is-artificial='yes'/>
            <parameter type-id='type-id-29' is-artificial='yes'/>
            <return type-id='type-id-62'/>
          </function-decl>
        </member-function>
      </class-decl>
      <class-decl name='vector&lt;bool, std::allocator&lt;bool&gt; &gt;' size-in-bits='320' visibility='default' filepath='/usr/include/c++/4.9/bits/stl_bvector.h' line='526' column='1' id='type-id-1390'>
        <base-class access='protected' layout-offset-in-bits='0' type-id='type-id-676'/>
        <member-type access='public'>
          <typedef-decl name='size_type' type-id='type-id-1335' filepath='/usr/include/c++/4.9/bits/stl_bvector.h' line='536' column='1' id='type-id-2470'/>
        </member-type>
        <member-type access='public'>
          <typedef-decl name='reference' type-id='type-id-672' filepath='/usr/include/c++/4.9/bits/stl_bvector.h' line='538' column='1' id='type-id-2471'/>
        </member-type>
        <member-type access='public'>
          <typedef-decl name='const_reference' type-id='type-id-1' filepath='/usr/include/c++/4.9/bits/stl_bvector.h' line='539' column='1' id='type-id-2472'/>
        </member-type>
        <member-type access='public'>
          <typedef-decl name='iterator' type-id='type-id-664' filepath='/usr/include/c++/4.9/bits/stl_bvector.h' line='542' column='1' id='type-id-2473'/>
        </member-type>
        <member-type access='public'>
          <typedef-decl name='const_iterator' type-id='type-id-661' filepath='/usr/include/c++/4.9/bits/stl_bvector.h' line='543' column='1' id='type-id-2474'/>
        </member-type>
        <member-type access='public'>
          <typedef-decl name='const_reverse_iterator' type-id='type-id-1310' filepath='/usr/include/c++/4.9/bits/stl_bvector.h' line='544' column='1' id='type-id-2475'/>
        </member-type>
        <member-type access='public'>
          <typedef-decl name='reverse_iterator' type-id='type-id-1314' filepath='/usr/include/c++/4.9/bits/stl_bvector.h' line='545' column='1' id='type-id-2476'/>
        </member-type>
        <member-type access='public'>
          <typedef-decl name='allocator_type' type-id='type-id-1034' filepath='/usr/include/c++/4.9/bits/stl_bvector.h' line='546' column='1' id='type-id-1394'/>
        </member-type>
        <member-function access='public'>
          <function-decl name='vector' filepath='/usr/include/c++/4.9/bits/stl_bvector.h' line='558' column='1' visibility='default' binding='global' size-in-bits='64'>
            <parameter type-id='type-id-2138' is-artificial='yes'/>
            <return type-id='type-id-62'/>
          </function-decl>
        </member-function>
        <member-function access='public'>
          <function-decl name='vector' filepath='/usr/include/c++/4.9/bits/stl_bvector.h' line='562' column='1' visibility='default' binding='global' size-in-bits='64'>
            <parameter type-id='type-id-2138' is-artificial='yes'/>
            <parameter type-id='type-id-1396'/>
            <return type-id='type-id-62'/>
          </function-decl>
        </member-function>
        <member-function access='public'>
          <function-decl name='vector' filepath='/usr/include/c++/4.9/bits/stl_bvector.h' line='567' column='1' visibility='default' binding='global' size-in-bits='64'>
            <parameter type-id='type-id-2138' is-artificial='yes'/>
            <parameter type-id='type-id-2470'/>
            <parameter type-id='type-id-1396'/>
            <return type-id='type-id-62'/>
          </function-decl>
        </member-function>
        <member-function access='public'>
          <function-decl name='vector' filepath='/usr/include/c++/4.9/bits/stl_bvector.h' line='571' column='1' visibility='default' binding='global' size-in-bits='64'>
            <parameter type-id='type-id-2138' is-artificial='yes'/>
            <parameter type-id='type-id-2470'/>
            <parameter type-id='type-id-334'/>
            <parameter type-id='type-id-1396'/>
            <return type-id='type-id-62'/>
          </function-decl>
        </member-function>
        <member-function access='public'>
          <function-decl name='vector' filepath='/usr/include/c++/4.9/bits/stl_bvector.h' line='591' column='1' visibility='default' binding='global' size-in-bits='64'>
            <parameter type-id='type-id-2138' is-artificial='yes'/>
            <parameter type-id='type-id-1392'/>
            <return type-id='type-id-62'/>
          </function-decl>
        </member-function>
        <member-function access='public'>
          <function-decl name='vector' filepath='/usr/include/c++/4.9/bits/stl_bvector.h' line='599' column='1' visibility='default' binding='global' size-in-bits='64'>
            <parameter type-id='type-id-2138' is-artificial='yes'/>
            <parameter type-id='type-id-2137'/>
            <return type-id='type-id-62'/>
          </function-decl>
        </member-function>
        <member-function access='public'>
          <function-decl name='vector' filepath='/usr/include/c++/4.9/bits/stl_bvector.h' line='602' column='1' visibility='default' binding='global' size-in-bits='64'>
            <parameter type-id='type-id-2138' is-artificial='yes'/>
            <parameter type-id='type-id-1166'/>
            <parameter type-id='type-id-1396'/>
            <return type-id='type-id-62'/>
          </function-decl>
        </member-function>
        <member-function access='public' destructor='yes'>
          <function-decl name='~vector' filepath='/usr/include/c++/4.9/bits/stl_bvector.h' line='629' column='1' visibility='default' binding='global' size-in-bits='64'>
            <parameter type-id='type-id-2138' is-artificial='yes'/>
            <parameter type-id='type-id-29' is-artificial='yes'/>
            <return type-id='type-id-62'/>
          </function-decl>
        </member-function>
      </class-decl>
      <class-decl name='_Destroy_aux&lt;false&gt;' size-in-bits='8' is-struct='yes' visibility='default' filepath='/usr/include/c++/4.9/bits/stl_construct.h' line='96' column='1' id='type-id-2477'>
        <member-function access='public' static='yes'>
          <function-decl name='__destroy&lt;std::basic_string&lt;char&gt;*&gt;' mangled-name='_ZNSt12_Destroy_auxILb0EE9__destroyIPSsEEvT_S3_' filepath='/usr/include/c++/4.9/bits/stl_construct.h' line='100' column='1' visibility='default' binding='global' size-in-bits='64' elf-symbol-id='_ZNSt12_Destroy_auxILb0EE9__destroyIPSsEEvT_S3_'>
            <parameter type-id='type-id-1989'/>
            <parameter type-id='type-id-1989'/>
            <return type-id='type-id-62'/>
          </function-decl>
        </member-function>
        <member-function access='public' static='yes'>
          <function-decl name='__destroy&lt;std::shared_ptr&lt;mongo::optionenvironment::Constraint&gt;*&gt;' mangled-name='_ZNSt12_Destroy_auxILb0EE9__destroyIPSt10shared_ptrIN5mongo17optionenvironment10ConstraintEEEEvT_S8_' filepath='/usr/include/c++/4.9/bits/stl_construct.h' line='100' column='1' visibility='default' binding='global' size-in-bits='64' elf-symbol-id='_ZNSt12_Destroy_auxILb0EE9__destroyIPSt10shared_ptrIN5mongo17optionenvironment10ConstraintEEEEvT_S8_'>
            <parameter type-id='type-id-2109'/>
            <parameter type-id='type-id-2109'/>
            <return type-id='type-id-62'/>
          </function-decl>
        </member-function>
        <member-function access='public' static='yes'>
          <function-decl name='__destroy&lt;__gnu_cxx::__normal_iterator&lt;std::basic_string&lt;char&gt;*, std::vector&lt;std::basic_string&lt;char&gt; &gt; &gt; &gt;' mangled-name='_ZNSt12_Destroy_auxILb0EE9__destroyIN9__gnu_cxx17__normal_iteratorIPSsSt6vectorISsSaISsEEEEEEvT_S9_' filepath='/usr/include/c++/4.9/bits/stl_construct.h' line='100' column='1' visibility='default' binding='global' size-in-bits='64' elf-symbol-id='_ZNSt12_Destroy_auxILb0EE9__destroyIN9__gnu_cxx17__normal_iteratorIPSsSt6vectorISsSaISsEEEEEEvT_S9_'>
            <parameter type-id='type-id-136'/>
            <parameter type-id='type-id-136'/>
            <return type-id='type-id-62'/>
          </function-decl>
        </member-function>
      </class-decl>
      <class-decl name='unary_function&lt;mongo::InitializerContext*, mongo::Status&gt;' size-in-bits='8' is-struct='yes' visibility='default' filepath='/usr/include/c++/4.9/bits/stl_function.h' line='105' column='1' id='type-id-2478'/>
      <class-decl name='binary_function&lt;std::basic_string&lt;char, std::char_traits&lt;char&gt;, std::allocator&lt;char&gt; &gt;, std::basic_string&lt;char, std::char_traits&lt;char&gt;, std::allocator&lt;char&gt; &gt;, bool&gt;' size-in-bits='8' is-struct='yes' visibility='default' filepath='/usr/include/c++/4.9/bits/stl_function.h' line='118' column='1' id='type-id-2479'/>
      <class-decl name='equal_to&lt;std::basic_string&lt;char, std::char_traits&lt;char&gt;, std::allocator&lt;char&gt; &gt; &gt;' size-in-bits='8' is-struct='yes' visibility='default' filepath='/usr/include/c++/4.9/bits/stl_function.h' line='340' column='1' id='type-id-1154'>
        <base-class access='public' layout-offset-in-bits='0' type-id='type-id-2479'/>
      </class-decl>
      <class-decl name='less&lt;std::basic_string&lt;char, std::char_traits&lt;char&gt;, std::allocator&lt;char&gt; &gt; &gt;' size-in-bits='8' is-struct='yes' visibility='default' filepath='/usr/include/c++/4.9/bits/stl_function.h' line='367' column='1' id='type-id-1210'>
        <base-class access='public' layout-offset-in-bits='0' type-id='type-id-2479'/>
      </class-decl>
      <class-decl name='reverse_iterator&lt;std::_Bit_const_iterator&gt;' size-in-bits='128' visibility='default' filepath='/usr/include/c++/4.9/bits/stl_iterator.h' line='97' column='1' id='type-id-1310'>
        <base-class access='public' layout-offset-in-bits='0' type-id='type-id-2480'/>
        <member-type access='public'>
          <typedef-decl name='iterator_type' type-id='type-id-661' filepath='/usr/include/c++/4.9/bits/stl_iterator.h' line='110' column='1' id='type-id-2481'/>
        </member-type>
        <member-type access='public'>
          <typedef-decl name='difference_type' type-id='type-id-2482' filepath='/usr/include/c++/4.9/bits/stl_iterator.h' line='111' column='1' id='type-id-2483'/>
        </member-type>
        <member-type access='public'>
          <typedef-decl name='pointer' type-id='type-id-2484' filepath='/usr/include/c++/4.9/bits/stl_iterator.h' line='112' column='1' id='type-id-2485'/>
        </member-type>
        <member-type access='public'>
          <typedef-decl name='reference' type-id='type-id-2486' filepath='/usr/include/c++/4.9/bits/stl_iterator.h' line='113' column='1' id='type-id-2487'/>
        </member-type>
        <data-member access='protected' layout-offset-in-bits='0'>
          <var-decl name='current' type-id='type-id-661' visibility='default' filepath='/usr/include/c++/4.9/bits/stl_iterator.h' line='105' column='1'/>
        </data-member>
        <member-function access='public'>
          <function-decl name='reverse_iterator' filepath='/usr/include/c++/4.9/bits/stl_iterator.h' line='121' column='1' visibility='default' binding='global' size-in-bits='64'>
            <parameter type-id='type-id-2100' is-artificial='yes'/>
            <return type-id='type-id-62'/>
          </function-decl>
        </member-function>
        <member-function access='public'>
          <function-decl name='reverse_iterator' filepath='/usr/include/c++/4.9/bits/stl_iterator.h' line='127' column='1' visibility='default' binding='global' size-in-bits='64'>
            <parameter type-id='type-id-2100' is-artificial='yes'/>
            <parameter type-id='type-id-2481'/>
            <return type-id='type-id-62'/>
          </function-decl>
        </member-function>
        <member-function access='public'>
          <function-decl name='reverse_iterator' filepath='/usr/include/c++/4.9/bits/stl_iterator.h' line='132' column='1' visibility='default' binding='global' size-in-bits='64'>
            <parameter type-id='type-id-2100' is-artificial='yes'/>
            <parameter type-id='type-id-1312'/>
            <return type-id='type-id-62'/>
          </function-decl>
        </member-function>
      </class-decl>
      <class-decl name='reverse_iterator&lt;std::_Bit_iterator&gt;' size-in-bits='128' visibility='default' filepath='/usr/include/c++/4.9/bits/stl_iterator.h' line='97' column='1' id='type-id-1314'>
        <base-class access='public' layout-offset-in-bits='0' type-id='type-id-2488'/>
        <member-type access='public'>
          <typedef-decl name='iterator_type' type-id='type-id-664' filepath='/usr/include/c++/4.9/bits/stl_iterator.h' line='110' column='1' id='type-id-2489'/>
        </member-type>
        <member-type access='public'>
          <typedef-decl name='difference_type' type-id='type-id-2490' filepath='/usr/include/c++/4.9/bits/stl_iterator.h' line='111' column='1' id='type-id-2491'/>
        </member-type>
        <member-type access='public'>
          <typedef-decl name='pointer' type-id='type-id-2492' filepath='/usr/include/c++/4.9/bits/stl_iterator.h' line='112' column='1' id='type-id-2493'/>
        </member-type>
        <member-type access='public'>
          <typedef-decl name='reference' type-id='type-id-2494' filepath='/usr/include/c++/4.9/bits/stl_iterator.h' line='113' column='1' id='type-id-2495'/>
        </member-type>
        <data-member access='protected' layout-offset-in-bits='0'>
          <var-decl name='current' type-id='type-id-664' visibility='default' filepath='/usr/include/c++/4.9/bits/stl_iterator.h' line='105' column='1'/>
        </data-member>
        <member-function access='public'>
          <function-decl name='reverse_iterator' filepath='/usr/include/c++/4.9/bits/stl_iterator.h' line='121' column='1' visibility='default' binding='global' size-in-bits='64'>
            <parameter type-id='type-id-2102' is-artificial='yes'/>
            <return type-id='type-id-62'/>
          </function-decl>
        </member-function>
        <member-function access='public'>
          <function-decl name='reverse_iterator' filepath='/usr/include/c++/4.9/bits/stl_iterator.h' line='127' column='1' visibility='default' binding='global' size-in-bits='64'>
            <parameter type-id='type-id-2102' is-artificial='yes'/>
            <parameter type-id='type-id-2489'/>
            <return type-id='type-id-62'/>
          </function-decl>
        </member-function>
        <member-function access='public'>
          <function-decl name='reverse_iterator' filepath='/usr/include/c++/4.9/bits/stl_iterator.h' line='132' column='1' visibility='default' binding='global' size-in-bits='64'>
            <parameter type-id='type-id-2102' is-artificial='yes'/>
            <parameter type-id='type-id-1316'/>
            <return type-id='type-id-62'/>
          </function-decl>
        </member-function>
      </class-decl>
      <class-decl name='move_iterator&lt;std::basic_string&lt;char, std::char_traits&lt;char&gt;, std::allocator&lt;char&gt; &gt;*&gt;' size-in-bits='64' visibility='default' filepath='/usr/include/c++/4.9/bits/stl_iterator.h' line='947' column='1' id='type-id-1284'>
        <member-type access='public'>
          <typedef-decl name='iterator_type' type-id='type-id-1989' filepath='/usr/include/c++/4.9/bits/stl_iterator.h' line='955' column='1' id='type-id-2496'/>
        </member-type>
        <member-type access='public'>
          <typedef-decl name='value_type' type-id='type-id-2497' filepath='/usr/include/c++/4.9/bits/stl_iterator.h' line='957' column='1' id='type-id-2055'/>
        </member-type>
        <member-type access='public'>
          <typedef-decl name='difference_type' type-id='type-id-2498' filepath='/usr/include/c++/4.9/bits/stl_iterator.h' line='958' column='1' id='type-id-2499'/>
        </member-type>
        <member-type access='public'>
          <typedef-decl name='pointer' type-id='type-id-1989' filepath='/usr/include/c++/4.9/bits/stl_iterator.h' line='960' column='1' id='type-id-2500'/>
        </member-type>
        <member-type access='public'>
          <typedef-decl name='reference' type-id='type-id-2056' filepath='/usr/include/c++/4.9/bits/stl_iterator.h' line='961' column='1' id='type-id-2501'/>
        </member-type>
        <data-member access='protected' layout-offset-in-bits='0'>
          <var-decl name='_M_current' type-id='type-id-1989' visibility='default' filepath='/usr/include/c++/4.9/bits/stl_iterator.h' line='950' column='1'/>
        </data-member>
        <member-function access='public'>
          <function-decl name='move_iterator' filepath='/usr/include/c++/4.9/bits/stl_iterator.h' line='963' column='1' visibility='default' binding='global' size-in-bits='64'>
            <parameter type-id='type-id-2054' is-artificial='yes'/>
            <return type-id='type-id-62'/>
          </function-decl>
        </member-function>
        <member-function access='public'>
          <function-decl name='move_iterator' filepath='/usr/include/c++/4.9/bits/stl_iterator.h' line='967' column='1' visibility='default' binding='global' size-in-bits='64'>
            <parameter type-id='type-id-2054' is-artificial='yes'/>
            <parameter type-id='type-id-2496'/>
            <return type-id='type-id-62'/>
          </function-decl>
        </member-function>
        <member-function access='public'>
          <function-decl name='move_iterator' mangled-name='_ZNSt13move_iteratorIPSsEC2ES0_' filepath='/usr/include/c++/4.9/bits/stl_iterator.h' line='967' column='1' visibility='default' binding='global' size-in-bits='64' elf-symbol-id='_ZNSt13move_iteratorIPSsEC2ES0_'>
            <parameter type-id='type-id-2054' is-artificial='yes'/>
            <parameter type-id='type-id-2496'/>
            <return type-id='type-id-62'/>
          </function-decl>
        </member-function>
        <member-function access='public'>
          <function-decl name='operator++' mangled-name='_ZNSt13move_iteratorIPSsEppEv' filepath='/usr/include/c++/4.9/bits/stl_iterator.h' line='987' column='1' visibility='default' binding='global' size-in-bits='64' elf-symbol-id='_ZNSt13move_iteratorIPSsEppEv'>
            <parameter type-id='type-id-2054' is-artificial='yes'/>
            <return type-id='type-id-2053'/>
          </function-decl>
        </member-function>
        <member-function access='public' const='yes'>
          <function-decl name='operator*' mangled-name='_ZNKSt13move_iteratorIPSsEdeEv' filepath='/usr/include/c++/4.9/bits/stl_iterator.h' line='979' column='1' visibility='default' binding='global' size-in-bits='64' elf-symbol-id='_ZNKSt13move_iteratorIPSsEdeEv'>
            <parameter type-id='type-id-1287' is-artificial='yes'/>
            <return type-id='type-id-2501'/>
          </function-decl>
        </member-function>
        <member-function access='public' const='yes'>
          <function-decl name='base' mangled-name='_ZNKSt13move_iteratorIPSsE4baseEv' filepath='/usr/include/c++/4.9/bits/stl_iterator.h' line='975' column='1' visibility='default' binding='global' size-in-bits='64' elf-symbol-id='_ZNKSt13move_iteratorIPSsE4baseEv'>
            <parameter type-id='type-id-1287' is-artificial='yes'/>
            <return type-id='type-id-2496'/>
          </function-decl>
        </member-function>
      </class-decl>
      <class-decl name='iterator&lt;std::random_access_iterator_tag, bool, long int, bool const*, bool&gt;' size-in-bits='8' is-struct='yes' visibility='default' filepath='/usr/include/c++/4.9/bits/stl_iterator_base_types.h' line='118' column='1' id='type-id-2480'/>
      <class-decl name='iterator&lt;std::random_access_iterator_tag, bool, long int, bool*, bool&amp;&gt;' size-in-bits='8' is-struct='yes' visibility='default' filepath='/usr/include/c++/4.9/bits/stl_iterator_base_types.h' line='118' column='1' id='type-id-2464'>
        <member-type access='public'>
          <typedef-decl name='difference_type' type-id='type-id-23' filepath='/usr/include/c++/4.9/bits/stl_iterator_base_types.h' line='125' column='1' id='type-id-2502'/>
        </member-type>
      </class-decl>
      <class-decl name='iterator&lt;std::random_access_iterator_tag, bool, long int, std::_Bit_reference*, std::_Bit_reference&gt;' size-in-bits='8' is-struct='yes' visibility='default' filepath='/usr/include/c++/4.9/bits/stl_iterator_base_types.h' line='118' column='1' id='type-id-2488'/>
      <class-decl name='__iterator_traits&lt;std::_Bit_const_iterator, true&gt;' size-in-bits='8' is-struct='yes' visibility='default' filepath='/usr/include/c++/4.9/bits/stl_iterator_base_types.h' line='149' column='1' id='type-id-2503'>
        <member-type access='public'>
          <typedef-decl name='difference_type' type-id='type-id-2502' filepath='/usr/include/c++/4.9/bits/stl_iterator_base_types.h' line='153' column='1' id='type-id-2482'/>
        </member-type>
        <member-type access='public'>
          <typedef-decl name='pointer' type-id='type-id-2469' filepath='/usr/include/c++/4.9/bits/stl_iterator_base_types.h' line='154' column='1' id='type-id-2484'/>
        </member-type>
        <member-type access='public'>
          <typedef-decl name='reference' type-id='type-id-2467' filepath='/usr/include/c++/4.9/bits/stl_iterator_base_types.h' line='155' column='1' id='type-id-2486'/>
        </member-type>
      </class-decl>
      <class-decl name='__iterator_traits&lt;std::_Bit_iterator, true&gt;' size-in-bits='8' is-struct='yes' visibility='default' filepath='/usr/include/c++/4.9/bits/stl_iterator_base_types.h' line='149' column='1' id='type-id-2504'>
        <member-type access='public'>
          <typedef-decl name='difference_type' type-id='type-id-2502' filepath='/usr/include/c++/4.9/bits/stl_iterator_base_types.h' line='153' column='1' id='type-id-2490'/>
        </member-type>
        <member-type access='public'>
          <typedef-decl name='pointer' type-id='type-id-2466' filepath='/usr/include/c++/4.9/bits/stl_iterator_base_types.h' line='154' column='1' id='type-id-2492'/>
        </member-type>
        <member-type access='public'>
          <typedef-decl name='reference' type-id='type-id-2465' filepath='/usr/include/c++/4.9/bits/stl_iterator_base_types.h' line='155' column='1' id='type-id-2494'/>
        </member-type>
      </class-decl>
      <class-decl name='iterator_traits&lt;char*&gt;' size-in-bits='8' is-struct='yes' visibility='default' filepath='/usr/include/c++/4.9/bits/stl_iterator_base_types.h' line='175' column='1' id='type-id-2505'>
        <member-type access='public'>
          <typedef-decl name='difference_type' type-id='type-id-2428' filepath='/usr/include/c++/4.9/bits/stl_iterator_base_types.h' line='179' column='1' id='type-id-2506'/>
        </member-type>
        <member-type access='public'>
          <typedef-decl name='pointer' type-id='type-id-68' filepath='/usr/include/c++/4.9/bits/stl_iterator_base_types.h' line='180' column='1' id='type-id-2507'/>
        </member-type>
        <member-type access='public'>
          <typedef-decl name='reference' type-id='type-id-216' filepath='/usr/include/c++/4.9/bits/stl_iterator_base_types.h' line='181' column='1' id='type-id-2508'/>
        </member-type>
      </class-decl>
      <class-decl name='iterator_traits&lt;std::basic_string&lt;char, std::char_traits&lt;char&gt;, std::allocator&lt;char&gt; &gt;*&gt;' size-in-bits='8' is-struct='yes' visibility='default' filepath='/usr/include/c++/4.9/bits/stl_iterator_base_types.h' line='175' column='1' id='type-id-2509'>
        <member-type access='public'>
          <typedef-decl name='value_type' type-id='type-id-37' filepath='/usr/include/c++/4.9/bits/stl_iterator_base_types.h' line='178' column='1' id='type-id-2497'/>
        </member-type>
        <member-type access='public'>
          <typedef-decl name='difference_type' type-id='type-id-2428' filepath='/usr/include/c++/4.9/bits/stl_iterator_base_types.h' line='179' column='1' id='type-id-2498'/>
        </member-type>
        <member-type access='public'>
          <typedef-decl name='pointer' type-id='type-id-1989' filepath='/usr/include/c++/4.9/bits/stl_iterator_base_types.h' line='180' column='1' id='type-id-2510'/>
        </member-type>
        <member-type access='public'>
          <typedef-decl name='reference' type-id='type-id-1987' filepath='/usr/include/c++/4.9/bits/stl_iterator_base_types.h' line='181' column='1' id='type-id-2511'/>
        </member-type>
      </class-decl>
      <class-decl name='iterator_traits&lt;char const*&gt;' size-in-bits='8' is-struct='yes' visibility='default' filepath='/usr/include/c++/4.9/bits/stl_iterator_base_types.h' line='186' column='1' id='type-id-2512'>
        <member-type access='public'>
          <typedef-decl name='difference_type' type-id='type-id-2428' filepath='/usr/include/c++/4.9/bits/stl_iterator_base_types.h' line='190' column='1' id='type-id-2513'/>
        </member-type>
        <member-type access='public'>
          <typedef-decl name='pointer' type-id='type-id-95' filepath='/usr/include/c++/4.9/bits/stl_iterator_base_types.h' line='191' column='1' id='type-id-2514'/>
        </member-type>
        <member-type access='public'>
          <typedef-decl name='reference' type-id='type-id-362' filepath='/usr/include/c++/4.9/bits/stl_iterator_base_types.h' line='192' column='1' id='type-id-2515'/>
        </member-type>
      </class-decl>
      <class-decl name='iterator_traits&lt;const std::basic_string&lt;char, std::char_traits&lt;char&gt;, std::allocator&lt;char&gt; &gt;*&gt;' size-in-bits='8' is-struct='yes' visibility='default' filepath='/usr/include/c++/4.9/bits/stl_iterator_base_types.h' line='186' column='1' id='type-id-2516'>
        <member-type access='public'>
          <typedef-decl name='difference_type' type-id='type-id-2428' filepath='/usr/include/c++/4.9/bits/stl_iterator_base_types.h' line='190' column='1' id='type-id-2517'/>
        </member-type>
        <member-type access='public'>
          <typedef-decl name='pointer' type-id='type-id-1108' filepath='/usr/include/c++/4.9/bits/stl_iterator_base_types.h' line='191' column='1' id='type-id-2518'/>
        </member-type>
        <member-type access='public'>
          <typedef-decl name='reference' type-id='type-id-1107' filepath='/usr/include/c++/4.9/bits/stl_iterator_base_types.h' line='192' column='1' id='type-id-2519'/>
        </member-type>
      </class-decl>
      <class-decl name='_Iter_base&lt;__gnu_cxx::__normal_iterator&lt;const std::basic_string&lt;char, std::char_traits&lt;char&gt;, std::allocator&lt;char&gt; &gt;*, std::vector&lt;std::basic_string&lt;char, std::char_traits&lt;char&gt;, std::allocator&lt;char&gt; &gt;, std::allocator&lt;std::basic_string&lt;char, std::char_traits&lt;char&gt;, std::allocator&lt;char&gt; &gt; &gt; &gt; &gt;, false&gt;' size-in-bits='8' is-struct='yes' visibility='default' filepath='/usr/include/c++/4.9/bits/stl_iterator_base_types.h' line='209' column='1' id='type-id-2520'>
        <member-type access='public'>
          <typedef-decl name='iterator_type' type-id='type-id-133' filepath='/usr/include/c++/4.9/bits/stl_iterator_base_types.h' line='211' column='1' id='type-id-2521'/>
        </member-type>
        <member-function access='public' static='yes'>
          <function-decl name='_S_base' mangled-name='_ZNSt10_Iter_baseIN9__gnu_cxx17__normal_iteratorIPKSsSt6vectorISsSaISsEEEELb0EE7_S_baseES7_' filepath='/usr/include/c++/4.9/bits/stl_iterator_base_types.h' line='212' column='1' visibility='default' binding='global' size-in-bits='64' elf-symbol-id='_ZNSt10_Iter_baseIN9__gnu_cxx17__normal_iteratorIPKSsSt6vectorISsSaISsEEEELb0EE7_S_baseES7_'>
            <parameter type-id='type-id-133'/>
            <return type-id='type-id-2521'/>
          </function-decl>
        </member-function>
      </class-decl>
      <class-decl name='_Iter_base&lt;std::basic_string&lt;char, std::char_traits&lt;char&gt;, std::allocator&lt;char&gt; &gt;*, false&gt;' size-in-bits='8' is-struct='yes' visibility='default' filepath='/usr/include/c++/4.9/bits/stl_iterator_base_types.h' line='209' column='1' id='type-id-2522'>
        <member-type access='public'>
          <typedef-decl name='iterator_type' type-id='type-id-1989' filepath='/usr/include/c++/4.9/bits/stl_iterator_base_types.h' line='211' column='1' id='type-id-2523'/>
        </member-type>
        <member-function access='public' static='yes'>
          <function-decl name='_S_base' mangled-name='_ZNSt10_Iter_baseIPSsLb0EE7_S_baseES0_' filepath='/usr/include/c++/4.9/bits/stl_iterator_base_types.h' line='212' column='1' visibility='default' binding='global' size-in-bits='64' elf-symbol-id='_ZNSt10_Iter_baseIPSsLb0EE7_S_baseES0_'>
            <parameter type-id='type-id-1989'/>
            <return type-id='type-id-2523'/>
          </function-decl>
        </member-function>
      </class-decl>
      <class-decl name='_Iter_base&lt;__gnu_cxx::__normal_iterator&lt;const std::basic_string&lt;char, std::char_traits&lt;char&gt;, std::allocator&lt;char&gt; &gt;*, std::vector&lt;std::basic_string&lt;char, std::char_traits&lt;char&gt;, std::allocator&lt;char&gt; &gt;, std::allocator&lt;std::basic_string&lt;char, std::char_traits&lt;char&gt;, std::allocator&lt;char&gt; &gt; &gt; &gt; &gt;, true&gt;' size-in-bits='8' is-struct='yes' visibility='default' filepath='/usr/include/c++/4.9/bits/stl_iterator_base_types.h' line='217' column='1' id='type-id-2524'>
        <member-type access='public'>
          <typedef-decl name='iterator_type' type-id='type-id-2525' filepath='/usr/include/c++/4.9/bits/stl_iterator_base_types.h' line='219' column='1' id='type-id-2526'/>
        </member-type>
        <member-function access='public' static='yes'>
          <function-decl name='_S_base' mangled-name='_ZNSt10_Iter_baseIN9__gnu_cxx17__normal_iteratorIPKSsSt6vectorISsSaISsEEEELb1EE7_S_baseES7_' filepath='/usr/include/c++/4.9/bits/stl_iterator_base_types.h' line='220' column='1' visibility='default' binding='global' size-in-bits='64' elf-symbol-id='_ZNSt10_Iter_baseIN9__gnu_cxx17__normal_iteratorIPKSsSt6vectorISsSaISsEEEELb1EE7_S_baseES7_'>
            <parameter type-id='type-id-133'/>
            <return type-id='type-id-2526'/>
          </function-decl>
        </member-function>
      </class-decl>
      <class-decl name='_Iter_base&lt;__gnu_cxx::__normal_iterator&lt;std::basic_string&lt;char, std::char_traits&lt;char&gt;, std::allocator&lt;char&gt; &gt;*, std::vector&lt;std::basic_string&lt;char, std::char_traits&lt;char&gt;, std::allocator&lt;char&gt; &gt;, std::allocator&lt;std::basic_string&lt;char, std::char_traits&lt;char&gt;, std::allocator&lt;char&gt; &gt; &gt; &gt; &gt;, true&gt;' size-in-bits='8' is-struct='yes' visibility='default' filepath='/usr/include/c++/4.9/bits/stl_iterator_base_types.h' line='217' column='1' id='type-id-2527'>
        <member-type access='public'>
          <typedef-decl name='iterator_type' type-id='type-id-2528' filepath='/usr/include/c++/4.9/bits/stl_iterator_base_types.h' line='219' column='1' id='type-id-2529'/>
        </member-type>
        <member-function access='public' static='yes'>
          <function-decl name='_S_base' mangled-name='_ZNSt10_Iter_baseIN9__gnu_cxx17__normal_iteratorIPSsSt6vectorISsSaISsEEEELb1EE7_S_baseES6_' filepath='/usr/include/c++/4.9/bits/stl_iterator_base_types.h' line='220' column='1' visibility='default' binding='global' size-in-bits='64' elf-symbol-id='_ZNSt10_Iter_baseIN9__gnu_cxx17__normal_iteratorIPSsSt6vectorISsSaISsEEEELb1EE7_S_baseES6_'>
            <parameter type-id='type-id-136'/>
            <return type-id='type-id-2529'/>
          </function-decl>
        </member-function>
      </class-decl>
      <class-decl name='_List_node&lt;mongo::optionenvironment::OptionDescription&gt;' size-in-bits='2496' is-struct='yes' visibility='default' filepath='/usr/include/c++/4.9/bits/stl_list.h' line='106' column='1' id='type-id-734'>
        <base-class access='public' layout-offset-in-bits='0' type-id='type-id-1883'/>
        <data-member access='public' layout-offset-in-bits='128'>
          <var-decl name='_M_data' type-id='type-id-578' visibility='default' filepath='/usr/include/c++/4.9/bits/stl_list.h' line='109' column='1'/>
        </data-member>
      </class-decl>
      <class-decl name='_List_node&lt;mongo::optionenvironment::OptionSection&gt;' size-in-bits='448' is-struct='yes' visibility='default' filepath='/usr/include/c++/4.9/bits/stl_list.h' line='106' column='1' id='type-id-738'>
        <base-class access='public' layout-offset-in-bits='0' type-id='type-id-1883'/>
        <data-member access='public' layout-offset-in-bits='128'>
          <var-decl name='_M_data' type-id='type-id-582' visibility='default' filepath='/usr/include/c++/4.9/bits/stl_list.h' line='109' column='1'/>
        </data-member>
      </class-decl>
      <class-decl name='_List_base&lt;mongo::optionenvironment::OptionDescription, std::allocator&lt;mongo::optionenvironment::OptionDescription&gt; &gt;' size-in-bits='128' visibility='default' filepath='/usr/include/c++/4.9/bits/stl_list.h' line='298' column='1' id='type-id-722'>
        <member-type access='protected'>
          <typedef-decl name='_Node_alloc_type' type-id='type-id-2368' filepath='/usr/include/c++/4.9/bits/stl_list.h' line='315' column='1' id='type-id-725'/>
        </member-type>
        <member-type access='protected'>
          <typedef-decl name='_Tp_alloc_type' type-id='type-id-2366' filepath='/usr/include/c++/4.9/bits/stl_list.h' line='317' column='1' id='type-id-2530'/>
        </member-type>
