<abi-corpus version='2.1' path='data/test-read-dwarf/test14-pr18893.so' soname='libGLU.so.1'>
  <elf-needed>
    <dependency name='libGL.so.1'/>
    <dependency name='libstdc++.so.6'/>
    <dependency name='libm.so.6'/>
    <dependency name='libgcc_s.so.1'/>
    <dependency name='libc.so.6'/>
  </elf-needed>
  <elf-function-symbols>
    <elf-symbol name='gluBeginCurve' type='func-type' binding='global-binding' visibility='default-visibility' is-defined='yes'/>
    <elf-symbol name='gluBeginPolygon' type='func-type' binding='global-binding' visibility='default-visibility' is-defined='yes'/>
    <elf-symbol name='gluBeginSurface' type='func-type' binding='global-binding' visibility='default-visibility' is-defined='yes'/>
    <elf-symbol name='gluBeginTrim' type='func-type' binding='global-binding' visibility='default-visibility' is-defined='yes'/>
    <elf-symbol name='gluBuild1DMipmapLevels' type='func-type' binding='global-binding' visibility='default-visibility' is-defined='yes'/>
    <elf-symbol name='gluBuild1DMipmaps' type='func-type' binding='global-binding' visibility='default-visibility' is-defined='yes'/>
    <elf-symbol name='gluBuild2DMipmapLevels' type='func-type' binding='global-binding' visibility='default-visibility' is-defined='yes'/>
    <elf-symbol name='gluBuild2DMipmaps' type='func-type' binding='global-binding' visibility='default-visibility' is-defined='yes'/>
    <elf-symbol name='gluBuild3DMipmapLevels' type='func-type' binding='global-binding' visibility='default-visibility' is-defined='yes'/>
    <elf-symbol name='gluBuild3DMipmaps' type='func-type' binding='global-binding' visibility='default-visibility' is-defined='yes'/>
    <elf-symbol name='gluCheckExtension' type='func-type' binding='global-binding' visibility='default-visibility' is-defined='yes'/>
    <elf-symbol name='gluCylinder' type='func-type' binding='global-binding' visibility='default-visibility' is-defined='yes'/>
    <elf-symbol name='gluDeleteNurbsRenderer' type='func-type' binding='global-binding' visibility='default-visibility' is-defined='yes'/>
    <elf-symbol name='gluDeleteQuadric' type='func-type' binding='global-binding' visibility='default-visibility' is-defined='yes'/>
    <elf-symbol name='gluDeleteTess' type='func-type' binding='global-binding' visibility='default-visibility' is-defined='yes'/>
    <elf-symbol name='gluDisk' type='func-type' binding='global-binding' visibility='default-visibility' is-defined='yes'/>
    <elf-symbol name='gluEndCurve' type='func-type' binding='global-binding' visibility='default-visibility' is-defined='yes'/>
    <elf-symbol name='gluEndPolygon' type='func-type' binding='global-binding' visibility='default-visibility' is-defined='yes'/>
    <elf-symbol name='gluEndSurface' type='func-type' binding='global-binding' visibility='default-visibility' is-defined='yes'/>
    <elf-symbol name='gluEndTrim' type='func-type' binding='global-binding' visibility='default-visibility' is-defined='yes'/>
    <elf-symbol name='gluErrorString' type='func-type' binding='global-binding' visibility='default-visibility' is-defined='yes'/>
    <elf-symbol name='gluGetNurbsProperty' type='func-type' binding='global-binding' visibility='default-visibility' is-defined='yes'/>
    <elf-symbol name='gluGetString' type='func-type' binding='global-binding' visibility='default-visibility' is-defined='yes'/>
    <elf-symbol name='gluGetTessProperty' type='func-type' binding='global-binding' visibility='default-visibility' is-defined='yes'/>
    <elf-symbol name='gluLoadSamplingMatrices' type='func-type' binding='global-binding' visibility='default-visibility' is-defined='yes'/>
    <elf-symbol name='gluLookAt' type='func-type' binding='global-binding' visibility='default-visibility' is-defined='yes'/>
    <elf-symbol name='gluNewNurbsRenderer' type='func-type' binding='global-binding' visibility='default-visibility' is-defined='yes'/>
    <elf-symbol name='gluNewQuadric' type='func-type' binding='global-binding' visibility='default-visibility' is-defined='yes'/>
    <elf-symbol name='gluNewTess' type='func-type' binding='global-binding' visibility='default-visibility' is-defined='yes'/>
    <elf-symbol name='gluNextContour' type='func-type' binding='global-binding' visibility='default-visibility' is-defined='yes'/>
    <elf-symbol name='gluNurbsCallback' type='func-type' binding='global-binding' visibility='default-visibility' is-defined='yes'/>
    <elf-symbol name='gluNurbsCallbackData' type='func-type' binding='global-binding' visibility='default-visibility' is-defined='yes'/>
    <elf-symbol name='gluNurbsCallbackDataEXT' type='func-type' binding='global-binding' visibility='default-visibility' is-defined='yes'/>
    <elf-symbol name='gluNurbsCurve' type='func-type' binding='global-binding' visibility='default-visibility' is-defined='yes'/>
    <elf-symbol name='gluNurbsProperty' type='func-type' binding='global-binding' visibility='default-visibility' is-defined='yes'/>
    <elf-symbol name='gluNurbsSurface' type='func-type' binding='global-binding' visibility='default-visibility' is-defined='yes'/>
    <elf-symbol name='gluOrtho2D' type='func-type' binding='global-binding' visibility='default-visibility' is-defined='yes'/>
    <elf-symbol name='gluPartialDisk' type='func-type' binding='global-binding' visibility='default-visibility' is-defined='yes'/>
    <elf-symbol name='gluPerspective' type='func-type' binding='global-binding' visibility='default-visibility' is-defined='yes'/>
    <elf-symbol name='gluPickMatrix' type='func-type' binding='global-binding' visibility='default-visibility' is-defined='yes'/>
    <elf-symbol name='gluProject' type='func-type' binding='global-binding' visibility='default-visibility' is-defined='yes'/>
    <elf-symbol name='gluPwlCurve' type='func-type' binding='global-binding' visibility='default-visibility' is-defined='yes'/>
    <elf-symbol name='gluQuadricCallback' type='func-type' binding='global-binding' visibility='default-visibility' is-defined='yes'/>
    <elf-symbol name='gluQuadricDrawStyle' type='func-type' binding='global-binding' visibility='default-visibility' is-defined='yes'/>
    <elf-symbol name='gluQuadricNormals' type='func-type' binding='global-binding' visibility='default-visibility' is-defined='yes'/>
    <elf-symbol name='gluQuadricOrientation' type='func-type' binding='global-binding' visibility='default-visibility' is-defined='yes'/>
    <elf-symbol name='gluQuadricTexture' type='func-type' binding='global-binding' visibility='default-visibility' is-defined='yes'/>
    <elf-symbol name='gluScaleImage' type='func-type' binding='global-binding' visibility='default-visibility' is-defined='yes'/>
    <elf-symbol name='gluSphere' type='func-type' binding='global-binding' visibility='default-visibility' is-defined='yes'/>
    <elf-symbol name='gluTessBeginContour' type='func-type' binding='global-binding' visibility='default-visibility' is-defined='yes'/>
    <elf-symbol name='gluTessBeginPolygon' type='func-type' binding='global-binding' visibility='default-visibility' is-defined='yes'/>
    <elf-symbol name='gluTessCallback' type='func-type' binding='global-binding' visibility='default-visibility' is-defined='yes'/>
    <elf-symbol name='gluTessEndContour' type='func-type' binding='global-binding' visibility='default-visibility' is-defined='yes'/>
    <elf-symbol name='gluTessEndPolygon' type='func-type' binding='global-binding' visibility='default-visibility' is-defined='yes'/>
    <elf-symbol name='gluTessNormal' type='func-type' binding='global-binding' visibility='default-visibility' is-defined='yes'/>
    <elf-symbol name='gluTessProperty' type='func-type' binding='global-binding' visibility='default-visibility' is-defined='yes'/>
    <elf-symbol name='gluTessVertex' type='func-type' binding='global-binding' visibility='default-visibility' is-defined='yes'/>
    <elf-symbol name='gluUnProject' type='func-type' binding='global-binding' visibility='default-visibility' is-defined='yes'/>
    <elf-symbol name='gluUnProject4' type='func-type' binding='global-binding' visibility='default-visibility' is-defined='yes'/>
  </elf-function-symbols>
  <abi-instr address-size='64' path='libnurbs/interface/glcurveval.cc' comp-dir-path='/tmp/legendre/spack-stage/spack-stage-T0fsxk/Mesa-8.0.5/src/glu/sgi' language='LANG_C_plus_plus'>
    <array-type-def dimensions='1' type-id='type-id-1' size-in-bits='5120' id='type-id-2'>
      <subrange length='160' type-id='type-id-3' id='type-id-4'/>
    </array-type-def>
    <array-type-def dimensions='1' type-id='type-id-1' size-in-bits='1280' id='type-id-5'>
      <subrange length='40' type-id='type-id-3' id='type-id-6'/>
    </array-type-def>
    <class-decl name='curveEvalMachine' size-in-bits='6592' is-struct='yes' visibility='default' filepath='libnurbs/interface/glcurveval.h' line='55' column='1' id='type-id-7'>
      <data-member access='public' layout-offset-in-bits='0'>
        <var-decl name='uprime' type-id='type-id-1' visibility='default' filepath='libnurbs/interface/glcurveval.h' line='56' column='1'/>
      </data-member>
      <data-member access='public' layout-offset-in-bits='32'>
        <var-decl name='k' type-id='type-id-8' visibility='default' filepath='libnurbs/interface/glcurveval.h' line='57' column='1'/>
      </data-member>
      <data-member access='public' layout-offset-in-bits='64'>
        <var-decl name='u1' type-id='type-id-1' visibility='default' filepath='libnurbs/interface/glcurveval.h' line='58' column='1'/>
      </data-member>
      <data-member access='public' layout-offset-in-bits='96'>
        <var-decl name='u2' type-id='type-id-1' visibility='default' filepath='libnurbs/interface/glcurveval.h' line='59' column='1'/>
      </data-member>
      <data-member access='public' layout-offset-in-bits='128'>
        <var-decl name='ustride' type-id='type-id-8' visibility='default' filepath='libnurbs/interface/glcurveval.h' line='60' column='1'/>
      </data-member>
      <data-member access='public' layout-offset-in-bits='160'>
        <var-decl name='uorder' type-id='type-id-8' visibility='default' filepath='libnurbs/interface/glcurveval.h' line='61' column='1'/>
      </data-member>
      <data-member access='public' layout-offset-in-bits='192'>
        <var-decl name='ctlpoints' type-id='type-id-2' visibility='default' filepath='libnurbs/interface/glcurveval.h' line='62' column='1'/>
      </data-member>
      <data-member access='public' layout-offset-in-bits='5312'>
        <var-decl name='ucoeff' type-id='type-id-5' visibility='default' filepath='libnurbs/interface/glcurveval.h' line='63' column='1'/>
      </data-member>
    </class-decl>
    <typedef-decl name='curveEvalMachine' type-id='type-id-7' filepath='libnurbs/interface/glcurveval.h' line='64' column='1' id='type-id-9'/>
    <class-decl name='CachingEvaluator' size-in-bits='64' visibility='default' filepath='libnurbs/internals/cachingeval.h' line='39' column='1' id='type-id-10'>
      <member-type access='private'>
        <enum-decl name='ServiceMode' filepath='libnurbs/internals/cachingeval.h' line='42' column='1' id='type-id-11'>
          <underlying-type type-id='type-id-12'/>
          <enumerator name='play' value='0'/>
          <enumerator name='record' value='1'/>
          <enumerator name='playAndRecord' value='2'/>
        </enum-decl>
      </member-type>
      <member-function access='private' destructor='yes' vtable-offset='-1'>
        <function-decl name='~CachingEvaluator' filepath='libnurbs/internals/cachingeval.h' line='41' column='1' visibility='default' binding='global' size-in-bits='64'>
          <parameter type-id='type-id-13' is-artificial='yes'/>
          <parameter type-id='type-id-8' is-artificial='yes'/>
          <return type-id='type-id-14'/>
        </function-decl>
      </member-function>
      <member-function access='private' vtable-offset='2'>
        <function-decl name='canRecord' mangled-name='_ZN16CachingEvaluator9canRecordEv' filepath='libnurbs/internals/cachingeval.cc' line='43' column='1' visibility='default' binding='global' size-in-bits='64'>
          <parameter type-id='type-id-13' is-artificial='yes'/>
          <return type-id='type-id-8'/>
        </function-decl>
      </member-function>
      <member-function access='private' vtable-offset='3'>
        <function-decl name='canPlayAndRecord' mangled-name='_ZN16CachingEvaluator16canPlayAndRecordEv' filepath='libnurbs/internals/cachingeval.cc' line='49' column='1' visibility='default' binding='global' size-in-bits='64'>
          <parameter type-id='type-id-13' is-artificial='yes'/>
          <return type-id='type-id-8'/>
        </function-decl>
      </member-function>
      <member-function access='private' vtable-offset='4'>
        <function-decl name='createHandle' mangled-name='_ZN16CachingEvaluator12createHandleEi' filepath='libnurbs/internals/cachingeval.cc' line='55' column='1' visibility='default' binding='global' size-in-bits='64'>
          <parameter type-id='type-id-13' is-artificial='yes'/>
          <parameter type-id='type-id-8'/>
          <return type-id='type-id-8'/>
        </function-decl>
      </member-function>
      <member-function access='private' vtable-offset='5'>
        <function-decl name='beginOutput' mangled-name='_ZN16CachingEvaluator11beginOutputENS_11ServiceModeEi' filepath='libnurbs/internals/cachingeval.cc' line='61' column='1' visibility='default' binding='global' size-in-bits='64'>
          <parameter type-id='type-id-13' is-artificial='yes'/>
          <parameter type-id='type-id-11'/>
          <parameter type-id='type-id-8'/>
          <return type-id='type-id-14'/>
        </function-decl>
      </member-function>
      <member-function access='private' vtable-offset='6'>
        <function-decl name='endOutput' mangled-name='_ZN16CachingEvaluator9endOutputEv' filepath='libnurbs/internals/cachingeval.cc' line='66' column='1' visibility='default' binding='global' size-in-bits='64'>
          <parameter type-id='type-id-13' is-artificial='yes'/>
          <return type-id='type-id-14'/>
        </function-decl>
      </member-function>
      <member-function access='private' vtable-offset='7'>
        <function-decl name='discardRecording' mangled-name='_ZN16CachingEvaluator16discardRecordingEi' filepath='libnurbs/internals/cachingeval.cc' line='71' column='1' visibility='default' binding='global' size-in-bits='64'>
          <parameter type-id='type-id-13' is-artificial='yes'/>
          <parameter type-id='type-id-8' is-artificial='yes'/>
          <return type-id='type-id-14'/>
        </function-decl>
      </member-function>
      <member-function access='private' vtable-offset='8'>
        <function-decl name='playRecording' mangled-name='_ZN16CachingEvaluator13playRecordingEi' filepath='libnurbs/internals/cachingeval.cc' line='76' column='1' visibility='default' binding='global' size-in-bits='64'>
          <parameter type-id='type-id-13' is-artificial='yes'/>
          <parameter type-id='type-id-8' is-artificial='yes'/>
          <return type-id='type-id-14'/>
        </function-decl>
      </member-function>
    </class-decl>
    <typedef-decl name='REAL' type-id='type-id-15' filepath='libnurbs/internals/types.h' line='41' column='1' id='type-id-1'/>
    <pointer-type-def type-id='type-id-16' size-in-bits='64' id='type-id-17'/>
    <pointer-type-def type-id='type-id-10' size-in-bits='64' id='type-id-13'/>
    <pointer-type-def type-id='type-id-18' size-in-bits='64' id='type-id-19'/>
    <pointer-type-def type-id='type-id-20' size-in-bits='64' id='type-id-21'/>
    <pointer-type-def type-id='type-id-1' size-in-bits='64' id='type-id-22'/>
    <qualified-type-def type-id='type-id-23' const='yes' id='type-id-24'/>
    <pointer-type-def type-id='type-id-24' size-in-bits='64' id='type-id-25'/>
    <pointer-type-def type-id='type-id-9' size-in-bits='64' id='type-id-26'/>
    <pointer-type-def type-id='type-id-27' size-in-bits='64' id='type-id-28'/>
    <pointer-type-def type-id='type-id-29' size-in-bits='64' id='type-id-30'/>
    <class-decl name='CurveMap' is-struct='yes' visibility='default' is-declaration-only='yes' id='type-id-18'/>
    <class-decl name='OpenGLCurveEvaluator' visibility='default' filepath='libnurbs/interface/glcurveval.h' line='66' column='1' is-declaration-only='yes' id='type-id-20'>
      <base-class access='public' layout-offset-in-bits='0' type-id='type-id-16'/>
      <data-member access='private' layout-offset-in-bits='64'>
        <var-decl name='em_vertex' type-id='type-id-9' visibility='default' filepath='libnurbs/interface/glcurveval.h' line='102' column='1'/>
      </data-member>
      <data-member access='private' layout-offset-in-bits='6656'>
        <var-decl name='em_normal' type-id='type-id-9' visibility='default' filepath='libnurbs/interface/glcurveval.h' line='103' column='1'/>
      </data-member>
      <data-member access='private' layout-offset-in-bits='13248'>
        <var-decl name='em_color' type-id='type-id-9' visibility='default' filepath='libnurbs/interface/glcurveval.h' line='104' column='1'/>
      </data-member>
      <data-member access='private' layout-offset-in-bits='19840'>
        <var-decl name='em_texcoord' type-id='type-id-9' visibility='default' filepath='libnurbs/interface/glcurveval.h' line='105' column='1'/>
      </data-member>
      <data-member access='private' layout-offset-in-bits='26432'>
        <var-decl name='vertex_flag' type-id='type-id-8' visibility='default' filepath='libnurbs/interface/glcurveval.h' line='106' column='1'/>
      </data-member>
      <data-member access='private' layout-offset-in-bits='26464'>
        <var-decl name='normal_flag' type-id='type-id-8' visibility='default' filepath='libnurbs/interface/glcurveval.h' line='107' column='1'/>
      </data-member>
      <data-member access='private' layout-offset-in-bits='26496'>
        <var-decl name='color_flag' type-id='type-id-8' visibility='default' filepath='libnurbs/interface/glcurveval.h' line='108' column='1'/>
      </data-member>
      <data-member access='private' layout-offset-in-bits='26528'>
        <var-decl name='texcoord_flag' type-id='type-id-8' visibility='default' filepath='libnurbs/interface/glcurveval.h' line='109' column='1'/>
      </data-member>
      <data-member access='private' layout-offset-in-bits='26560'>
        <var-decl name='global_grid_u0' type-id='type-id-1' visibility='default' filepath='libnurbs/interface/glcurveval.h' line='111' column='1'/>
      </data-member>
      <data-member access='private' layout-offset-in-bits='26592'>
        <var-decl name='global_grid_u1' type-id='type-id-1' visibility='default' filepath='libnurbs/interface/glcurveval.h' line='112' column='1'/>
      </data-member>
      <data-member access='private' layout-offset-in-bits='26624'>
        <var-decl name='global_grid_nu' type-id='type-id-8' visibility='default' filepath='libnurbs/interface/glcurveval.h' line='113' column='1'/>
      </data-member>
      <data-member access='private' layout-offset-in-bits='26688'>
        <var-decl name='beginCallBackN' type-id='type-id-31' visibility='default' filepath='libnurbs/interface/glcurveval.h' line='128' column='1'/>
      </data-member>
      <data-member access='private' layout-offset-in-bits='26752'>
        <var-decl name='endCallBackN' type-id='type-id-32' visibility='default' filepath='libnurbs/interface/glcurveval.h' line='129' column='1'/>
      </data-member>
      <data-member access='private' layout-offset-in-bits='26816'>
        <var-decl name='vertexCallBackN' type-id='type-id-28' visibility='default' filepath='libnurbs/interface/glcurveval.h' line='130' column='1'/>
      </data-member>
      <data-member access='private' layout-offset-in-bits='26880'>
        <var-decl name='normalCallBackN' type-id='type-id-28' visibility='default' filepath='libnurbs/interface/glcurveval.h' line='131' column='1'/>
      </data-member>
      <data-member access='private' layout-offset-in-bits='26944'>
        <var-decl name='colorCallBackN' type-id='type-id-28' visibility='default' filepath='libnurbs/interface/glcurveval.h' line='132' column='1'/>
      </data-member>
      <data-member access='private' layout-offset-in-bits='27008'>
        <var-decl name='texcoordCallBackN' type-id='type-id-28' visibility='default' filepath='libnurbs/interface/glcurveval.h' line='133' column='1'/>
      </data-member>
      <data-member access='private' layout-offset-in-bits='27072'>
        <var-decl name='beginCallBackData' type-id='type-id-33' visibility='default' filepath='libnurbs/interface/glcurveval.h' line='135' column='1'/>
      </data-member>
      <data-member access='private' layout-offset-in-bits='27136'>
        <var-decl name='endCallBackData' type-id='type-id-34' visibility='default' filepath='libnurbs/interface/glcurveval.h' line='136' column='1'/>
      </data-member>
      <data-member access='private' layout-offset-in-bits='27200'>
        <var-decl name='vertexCallBackData' type-id='type-id-30' visibility='default' filepath='libnurbs/interface/glcurveval.h' line='137' column='1'/>
      </data-member>
      <data-member access='private' layout-offset-in-bits='27264'>
        <var-decl name='normalCallBackData' type-id='type-id-30' visibility='default' filepath='libnurbs/interface/glcurveval.h' line='138' column='1'/>
      </data-member>
      <data-member access='private' layout-offset-in-bits='27328'>
        <var-decl name='colorCallBackData' type-id='type-id-30' visibility='default' filepath='libnurbs/interface/glcurveval.h' line='139' column='1'/>
      </data-member>
      <data-member access='private' layout-offset-in-bits='27392'>
        <var-decl name='texcoordCallBackData' type-id='type-id-30' visibility='default' filepath='libnurbs/interface/glcurveval.h' line='140' column='1'/>
      </data-member>
      <data-member access='private' layout-offset-in-bits='27456'>
        <var-decl name='userData' type-id='type-id-35' visibility='default' filepath='libnurbs/interface/glcurveval.h' line='142' column='1'/>
      </data-member>
      <data-member access='private' layout-offset-in-bits='27520'>
        <var-decl name='output_triangles' type-id='type-id-8' visibility='default' filepath='libnurbs/interface/glcurveval.h' line='154' column='1'/>
      </data-member>
      <member-function access='private' constructor='yes'>
        <function-decl name='OpenGLCurveEvaluator' filepath='libnurbs/interface/glcurveval.cc' line='48' column='1' visibility='default' binding='global' size-in-bits='64'>
          <parameter type-id='type-id-21' is-artificial='yes'/>
          <return type-id='type-id-14'/>
        </function-decl>
      </member-function>
      <member-function access='private'>
        <function-decl name='addMap' mangled-name='_ZN20OpenGLCurveEvaluator6addMapEP8CurveMap' filepath='libnurbs/interface/glcurveval.cc' line='84' column='1' visibility='default' binding='global' size-in-bits='64'>
          <parameter type-id='type-id-21' is-artificial='yes'/>
          <parameter type-id='type-id-19'/>
          <return type-id='type-id-14'/>
        </function-decl>
      </member-function>
      <member-function access='private'>
        <function-decl name='putCallBack' mangled-name='_ZN20OpenGLCurveEvaluator11putCallBackEjPFvvE' filepath='libnurbs/interface/glcurveval.cc' line='305' column='1' visibility='default' binding='global' size-in-bits='64'>
          <parameter type-id='type-id-21' is-artificial='yes'/>
          <parameter type-id='type-id-36'/>
          <parameter type-id='type-id-37'/>
          <return type-id='type-id-14'/>
        </function-decl>
      </member-function>
      <member-function access='private'>
        <function-decl name='beginCallBack' mangled-name='_ZN20OpenGLCurveEvaluator13beginCallBackEjPv' filepath='libnurbs/interface/glcurveval.cc' line='350' column='1' visibility='default' binding='global' size-in-bits='64'>
          <parameter type-id='type-id-21' is-artificial='yes'/>
          <parameter type-id='type-id-36'/>
          <parameter type-id='type-id-35'/>
          <return type-id='type-id-14'/>
        </function-decl>
      </member-function>
      <member-function access='private'>
        <function-decl name='endCallBack' mangled-name='_ZN20OpenGLCurveEvaluator11endCallBackEPv' filepath='libnurbs/interface/glcurveval.cc' line='359' column='1' visibility='default' binding='global' size-in-bits='64'>
          <parameter type-id='type-id-21' is-artificial='yes'/>
          <parameter type-id='type-id-35'/>
          <return type-id='type-id-14'/>
        </function-decl>
      </member-function>
      <member-function access='private'>
        <function-decl name='vertexCallBack' mangled-name='_ZN20OpenGLCurveEvaluator14vertexCallBackEPKfPv' filepath='libnurbs/interface/glcurveval.cc' line='368' column='1' visibility='default' binding='global' size-in-bits='64'>
          <parameter type-id='type-id-21' is-artificial='yes'/>
          <parameter type-id='type-id-25'/>
          <parameter type-id='type-id-35'/>
          <return type-id='type-id-14'/>
        </function-decl>
      </member-function>
      <member-function access='private'>
        <function-decl name='normalCallBack' mangled-name='_ZN20OpenGLCurveEvaluator14normalCallBackEPKfPv' filepath='libnurbs/interface/glcurveval.cc' line='378' column='1' visibility='default' binding='global' size-in-bits='64'>
          <parameter type-id='type-id-21' is-artificial='yes'/>
          <parameter type-id='type-id-25'/>
          <parameter type-id='type-id-35'/>
          <return type-id='type-id-14'/>
        </function-decl>
      </member-function>
      <member-function access='private'>
        <function-decl name='colorCallBack' mangled-name='_ZN20OpenGLCurveEvaluator13colorCallBackEPKfPv' filepath='libnurbs/interface/glcurveval.cc' line='387' column='1' visibility='default' binding='global' size-in-bits='64'>
          <parameter type-id='type-id-21' is-artificial='yes'/>
          <parameter type-id='type-id-25'/>
          <parameter type-id='type-id-35'/>
          <return type-id='type-id-14'/>
        </function-decl>
      </member-function>
      <member-function access='private'>
        <function-decl name='texcoordCallBack' mangled-name='_ZN20OpenGLCurveEvaluator16texcoordCallBackEPKfPv' filepath='libnurbs/interface/glcurveval.cc' line='396' column='1' visibility='default' binding='global' size-in-bits='64'>
          <parameter type-id='type-id-21' is-artificial='yes'/>
          <parameter type-id='type-id-25'/>
          <parameter type-id='type-id-35'/>
          <return type-id='type-id-14'/>
        </function-decl>
      </member-function>
      <member-function access='private'>
        <function-decl name='evalpoint1i' mangled-name='_ZN20OpenGLCurveEvaluator11evalpoint1iEl' filepath='libnurbs/interface/glcurveval.cc' line='287' column='1' visibility='default' binding='global' size-in-bits='64'>
          <parameter type-id='type-id-21' is-artificial='yes'/>
          <parameter type-id='type-id-38'/>
          <return type-id='type-id-14'/>
        </function-decl>
      </member-function>
      <member-function access='private'>
        <function-decl name='set_callback_userData' mangled-name='_ZN20OpenGLCurveEvaluator21set_callback_userDataEPv' filepath='libnurbs/interface/glcurveval.h' line='96' column='1' visibility='default' binding='global' size-in-bits='64'>
          <parameter type-id='type-id-21' is-artificial='yes'/>
          <parameter type-id='type-id-35'/>
          <return type-id='type-id-14'/>
        </function-decl>
      </member-function>
      <member-function access='private'>
        <function-decl name='put_vertices_call_back' mangled-name='_ZN20OpenGLCurveEvaluator22put_vertices_call_backEi' filepath='libnurbs/interface/glcurveval.h' line='87' column='1' visibility='default' binding='global' size-in-bits='64'>
          <parameter type-id='type-id-21' is-artificial='yes'/>
          <parameter type-id='type-id-8' is-artificial='yes'/>
          <return type-id='type-id-14'/>
        </function-decl>
      </member-function>
      <member-function access='private'>
        <function-decl name='inPreEvaluate' mangled-name='_ZN20OpenGLCurveEvaluator13inPreEvaluateEifPf' filepath='libnurbs/interface/incurveeval.cc' line='57' column='1' visibility='default' binding='global' size-in-bits='64'>
          <parameter type-id='type-id-21' is-artificial='yes'/>
          <parameter type-id='type-id-8'/>
          <parameter type-id='type-id-1'/>
          <parameter type-id='type-id-22'/>
          <return type-id='type-id-14'/>
        </function-decl>
      </member-function>
      <member-function access='private'>
        <function-decl name='inMap1f' mangled-name='_ZN20OpenGLCurveEvaluator7inMap1fEiiffiiPf' filepath='libnurbs/interface/incurveeval.cc' line='90' column='1' visibility='default' binding='global' size-in-bits='64'>
          <parameter type-id='type-id-21' is-artificial='yes'/>
          <parameter type-id='type-id-8'/>
          <parameter type-id='type-id-8'/>
          <parameter type-id='type-id-1'/>
          <parameter type-id='type-id-1'/>
          <parameter type-id='type-id-8'/>
          <parameter type-id='type-id-8'/>
          <parameter type-id='type-id-22'/>
          <return type-id='type-id-14'/>
        </function-decl>
      </member-function>
      <member-function access='private'>
        <function-decl name='inDoDomain1' mangled-name='_ZN20OpenGLCurveEvaluator11inDoDomain1EP16curveEvalMachinefPf' filepath='libnurbs/interface/incurveeval.cc' line='136' column='1' visibility='default' binding='global' size-in-bits='64'>
          <parameter type-id='type-id-21' is-artificial='yes'/>
          <parameter type-id='type-id-26'/>
          <parameter type-id='type-id-1'/>
          <parameter type-id='type-id-22'/>
          <return type-id='type-id-14'/>
        </function-decl>
      </member-function>
      <member-function access='private'>
        <function-decl name='inDoEvalCoord1' mangled-name='_ZN20OpenGLCurveEvaluator14inDoEvalCoord1Ef' filepath='libnurbs/interface/incurveeval.cc' line='162' column='1' visibility='default' binding='global' size-in-bits='64'>
          <parameter type-id='type-id-21' is-artificial='yes'/>
          <parameter type-id='type-id-1'/>
          <return type-id='type-id-14'/>
        </function-decl>
      </member-function>
      <member-function access='private'>
        <function-decl name='inMapMesh1f' mangled-name='_ZN20OpenGLCurveEvaluator11inMapMesh1fEii' filepath='libnurbs/interface/incurveeval.cc' line='193' column='1' visibility='default' binding='global' size-in-bits='64'>
          <parameter type-id='type-id-21' is-artificial='yes'/>
          <parameter type-id='type-id-8'/>
          <parameter type-id='type-id-8'/>
          <return type-id='type-id-14'/>
        </function-decl>
      </member-function>
      <member-function access='private' destructor='yes' vtable-offset='-1'>
        <function-decl name='~OpenGLCurveEvaluator' filepath='libnurbs/interface/glcurveval.cc' line='78' column='1' visibility='default' binding='global' size-in-bits='64'>
          <parameter type-id='type-id-21' is-artificial='yes'/>
          <parameter type-id='type-id-8' is-artificial='yes'/>
          <return type-id='type-id-14'/>
        </function-decl>
      </member-function>
      <member-function access='private' vtable-offset='9'>
        <function-decl name='domain1f' mangled-name='_ZN20OpenGLCurveEvaluator8domain1fEff' filepath='libnurbs/interface/glcurveval.cc' line='98' column='1' visibility='default' binding='global' size-in-bits='64'>
          <parameter type-id='type-id-21' is-artificial='yes'/>
          <parameter type-id='type-id-1'/>
          <parameter type-id='type-id-1'/>
          <return type-id='type-id-14'/>
        </function-decl>
      </member-function>
      <member-function access='private' vtable-offset='10'>
        <function-decl name='range1f' mangled-name='_ZN20OpenGLCurveEvaluator7range1fElPfS0_' filepath='libnurbs/interface/glcurveval.cc' line='90' column='1' visibility='default' binding='global' size-in-bits='64'>
          <parameter type-id='type-id-21' is-artificial='yes'/>
          <parameter type-id='type-id-38'/>
          <parameter type-id='type-id-22'/>
          <parameter type-id='type-id-22'/>
          <return type-id='type-id-14'/>
        </function-decl>
      </member-function>
      <member-function access='private' vtable-offset='11'>
        <function-decl name='enable' mangled-name='_ZN20OpenGLCurveEvaluator6enableEl' filepath='libnurbs/interface/glcurveval.cc' line='137' column='1' visibility='default' binding='global' size-in-bits='64'>
          <parameter type-id='type-id-21' is-artificial='yes'/>
          <parameter type-id='type-id-38'/>
          <return type-id='type-id-14'/>
        </function-decl>
      </member-function>
      <member-function access='private' vtable-offset='12'>
        <function-decl name='disable' mangled-name='_ZN20OpenGLCurveEvaluator7disableEl' filepath='libnurbs/interface/glcurveval.cc' line='127' column='1' visibility='default' binding='global' size-in-bits='64'>
          <parameter type-id='type-id-21' is-artificial='yes'/>
          <parameter type-id='type-id-38'/>
          <return type-id='type-id-14'/>
        </function-decl>
      </member-function>
      <member-function access='private' vtable-offset='13'>
        <function-decl name='bgnmap1f' mangled-name='_ZN20OpenGLCurveEvaluator8bgnmap1fEl' filepath='libnurbs/interface/glcurveval.cc' line='164' column='1' visibility='default' binding='global' size-in-bits='64'>
          <parameter type-id='type-id-21' is-artificial='yes'/>
          <parameter type-id='type-id-38'/>
          <return type-id='type-id-14'/>
        </function-decl>
      </member-function>
      <member-function access='private' vtable-offset='14'>
        <function-decl name='map1f' mangled-name='_ZN20OpenGLCurveEvaluator5map1fElffllPf' filepath='libnurbs/interface/glcurveval.cc' line='199' column='1' visibility='default' binding='global' size-in-bits='64'>
          <parameter type-id='type-id-21' is-artificial='yes'/>
          <parameter type-id='type-id-38'/>
          <parameter type-id='type-id-1'/>
          <parameter type-id='type-id-1'/>
          <parameter type-id='type-id-38'/>
          <parameter type-id='type-id-38'/>
          <parameter type-id='type-id-22'/>
          <return type-id='type-id-14'/>
        </function-decl>
      </member-function>
      <member-function access='private' vtable-offset='15'>
        <function-decl name='mapgrid1f' mangled-name='_ZN20OpenGLCurveEvaluator9mapgrid1fElff' filepath='libnurbs/interface/glcurveval.cc' line='147' column='1' visibility='default' binding='global' size-in-bits='64'>
          <parameter type-id='type-id-21' is-artificial='yes'/>
          <parameter type-id='type-id-38'/>
          <parameter type-id='type-id-1'/>
          <parameter type-id='type-id-1'/>
          <return type-id='type-id-14'/>
        </function-decl>
      </member-function>
      <member-function access='private' vtable-offset='16'>
        <function-decl name='mapmesh1f' mangled-name='_ZN20OpenGLCurveEvaluator9mapmesh1fElll' filepath='libnurbs/interface/glcurveval.cc' line='262' column='1' visibility='default' binding='global' size-in-bits='64'>
          <parameter type-id='type-id-21' is-artificial='yes'/>
          <parameter type-id='type-id-38'/>
          <parameter type-id='type-id-38'/>
          <parameter type-id='type-id-38'/>
          <return type-id='type-id-14'/>
        </function-decl>
      </member-function>
      <member-function access='private' vtable-offset='17'>
        <function-decl name='evalcoord1f' mangled-name='_ZN20OpenGLCurveEvaluator11evalcoord1fElf' filepath='libnurbs/interface/glcurveval.cc' line='296' column='1' visibility='default' binding='global' size-in-bits='64'>
          <parameter type-id='type-id-21' is-artificial='yes'/>
          <parameter type-id='type-id-38'/>
          <parameter type-id='type-id-1'/>
          <return type-id='type-id-14'/>
        </function-decl>
      </member-function>
      <member-function access='private' vtable-offset='18'>
        <function-decl name='endmap1f' mangled-name='_ZN20OpenGLCurveEvaluator8endmap1fEv' filepath='libnurbs/interface/glcurveval.cc' line='184' column='1' visibility='default' binding='global' size-in-bits='64'>
          <parameter type-id='type-id-21' is-artificial='yes'/>
          <return type-id='type-id-14'/>
        </function-decl>
      </member-function>
      <member-function access='private' vtable-offset='19'>
        <function-decl name='bgnline' mangled-name='_ZN20OpenGLCurveEvaluator7bgnlineEv' filepath='libnurbs/interface/glcurveval.cc' line='105' column='1' visibility='default' binding='global' size-in-bits='64'>
          <parameter type-id='type-id-21' is-artificial='yes'/>
          <return type-id='type-id-14'/>
        </function-decl>
      </member-function>
      <member-function access='private' vtable-offset='20'>
        <function-decl name='endline' mangled-name='_ZN20OpenGLCurveEvaluator7endlineEv' filepath='libnurbs/interface/glcurveval.cc' line='114' column='1' visibility='default' binding='global' size-in-bits='64'>
          <parameter type-id='type-id-21' is-artificial='yes'/>
          <return type-id='type-id-14'/>
        </function-decl>
      </member-function>
    </class-decl>
    <class-decl name='BasicCurveEvaluator' is-struct='yes' visibility='default' filepath='libnurbs/internals/basiccrveval.h' line='43' column='1' is-declaration-only='yes' id='type-id-16'>
      <base-class access='public' layout-offset-in-bits='0' type-id='type-id-10'/>
      <member-function access='public' destructor='yes' vtable-offset='-1'>
        <function-decl name='~BasicCurveEvaluator' filepath='libnurbs/internals/basiccrveval.h' line='45' column='1' visibility='default' binding='global' size-in-bits='64'>
          <parameter type-id='type-id-17' is-artificial='yes'/>
          <parameter type-id='type-id-8' is-artificial='yes'/>
          <return type-id='type-id-14'/>
        </function-decl>
      </member-function>
      <member-function access='public' vtable-offset='9'>
        <function-decl name='domain1f' mangled-name='_ZN19BasicCurveEvaluator8domain1fEff' filepath='libnurbs/internals/basiccrveval.cc' line='45' column='1' visibility='default' binding='global' size-in-bits='64'>
          <parameter type-id='type-id-17' is-artificial='yes'/>
          <parameter type-id='type-id-1'/>
          <parameter type-id='type-id-1'/>
          <return type-id='type-id-14'/>
        </function-decl>
      </member-function>
      <member-function access='public' vtable-offset='10'>
        <function-decl name='range1f' mangled-name='_ZN19BasicCurveEvaluator7range1fElPfS0_' filepath='libnurbs/internals/basiccrveval.cc' line='53' column='1' visibility='default' binding='global' size-in-bits='64'>
          <parameter type-id='type-id-17' is-artificial='yes'/>
          <parameter type-id='type-id-38'/>
          <parameter type-id='type-id-22'/>
          <parameter type-id='type-id-22'/>
          <return type-id='type-id-14'/>
        </function-decl>
      </member-function>
      <member-function access='public' vtable-offset='11'>
        <function-decl name='enable' mangled-name='_ZN19BasicCurveEvaluator6enableEl' filepath='libnurbs/internals/basiccrveval.cc' line='61' column='1' visibility='default' binding='global' size-in-bits='64'>
          <parameter type-id='type-id-17' is-artificial='yes'/>
          <parameter type-id='type-id-38'/>
          <return type-id='type-id-14'/>
        </function-decl>
      </member-function>
      <member-function access='public' vtable-offset='12'>
        <function-decl name='disable' mangled-name='_ZN19BasicCurveEvaluator7disableEl' filepath='libnurbs/internals/basiccrveval.cc' line='69' column='1' visibility='default' binding='global' size-in-bits='64'>
          <parameter type-id='type-id-17' is-artificial='yes'/>
          <parameter type-id='type-id-38'/>
          <return type-id='type-id-14'/>
        </function-decl>
      </member-function>
      <member-function access='public' vtable-offset='13'>
        <function-decl name='bgnmap1f' mangled-name='_ZN19BasicCurveEvaluator8bgnmap1fEl' filepath='libnurbs/internals/basiccrveval.cc' line='77' column='1' visibility='default' binding='global' size-in-bits='64'>
          <parameter type-id='type-id-17' is-artificial='yes'/>
          <parameter type-id='type-id-38'/>
          <return type-id='type-id-14'/>
        </function-decl>
      </member-function>
      <member-function access='public' vtable-offset='14'>
        <function-decl name='map1f' mangled-name='_ZN19BasicCurveEvaluator5map1fElffllPf' filepath='libnurbs/internals/basiccrveval.cc' line='85' column='1' visibility='default' binding='global' size-in-bits='64'>
          <parameter type-id='type-id-17' is-artificial='yes'/>
          <parameter type-id='type-id-38'/>
          <parameter type-id='type-id-1'/>
          <parameter type-id='type-id-1'/>
          <parameter type-id='type-id-38'/>
          <parameter type-id='type-id-38'/>
          <parameter type-id='type-id-22'/>
          <return type-id='type-id-14'/>
        </function-decl>
      </member-function>
      <member-function access='public' vtable-offset='15'>
        <function-decl name='mapgrid1f' mangled-name='_ZN19BasicCurveEvaluator9mapgrid1fElff' filepath='libnurbs/internals/basiccrveval.cc' line='93' column='1' visibility='default' binding='global' size-in-bits='64'>
          <parameter type-id='type-id-17' is-artificial='yes'/>
          <parameter type-id='type-id-38'/>
          <parameter type-id='type-id-1'/>
          <parameter type-id='type-id-1'/>
          <return type-id='type-id-14'/>
        </function-decl>
      </member-function>
      <member-function access='public' vtable-offset='16'>
        <function-decl name='mapmesh1f' mangled-name='_ZN19BasicCurveEvaluator9mapmesh1fElll' filepath='libnurbs/internals/basiccrveval.cc' line='101' column='1' visibility='default' binding='global' size-in-bits='64'>
          <parameter type-id='type-id-17' is-artificial='yes'/>
          <parameter type-id='type-id-38'/>
          <parameter type-id='type-id-38'/>
          <parameter type-id='type-id-38'/>
          <return type-id='type-id-14'/>
        </function-decl>
      </member-function>
      <member-function access='public' vtable-offset='17'>
        <function-decl name='evalcoord1f' mangled-name='_ZN19BasicCurveEvaluator11evalcoord1fElf' filepath='libnurbs/internals/basiccrveval.cc' line='109' column='1' visibility='default' binding='global' size-in-bits='64'>
          <parameter type-id='type-id-17' is-artificial='yes'/>
          <parameter type-id='type-id-38'/>
          <parameter type-id='type-id-1'/>
          <return type-id='type-id-14'/>
        </function-decl>
      </member-function>
      <member-function access='public' vtable-offset='18'>
        <function-decl name='endmap1f' mangled-name='_ZN19BasicCurveEvaluator8endmap1fEv' filepath='libnurbs/internals/basiccrveval.cc' line='117' column='1' visibility='default' binding='global' size-in-bits='64'>
          <parameter type-id='type-id-17' is-artificial='yes'/>
          <return type-id='type-id-14'/>
        </function-decl>
      </member-function>
      <member-function access='public' vtable-offset='19'>
        <function-decl name='bgnline' mangled-name='_ZN19BasicCurveEvaluator7bgnlineEv' filepath='libnurbs/internals/basiccrveval.cc' line='125' column='1' visibility='default' binding='global' size-in-bits='64'>
          <parameter type-id='type-id-17' is-artificial='yes'/>
          <return type-id='type-id-14'/>
        </function-decl>
      </member-function>
      <member-function access='public' vtable-offset='20'>
        <function-decl name='endline' mangled-name='_ZN19BasicCurveEvaluator7endlineEv' filepath='libnurbs/internals/basiccrveval.cc' line='133' column='1' visibility='default' binding='global' size-in-bits='64'>
          <parameter type-id='type-id-17' is-artificial='yes'/>
          <return type-id='type-id-14'/>
        </function-decl>
      </member-function>
    </class-decl>
    <function-type size-in-bits='64' id='type-id-27'>
      <parameter type-id='type-id-25'/>
      <return type-id='type-id-14'/>
    </function-type>
    <function-type size-in-bits='64' id='type-id-29'>
      <parameter type-id='type-id-25'/>
      <parameter type-id='type-id-35'/>
      <return type-id='type-id-14'/>
    </function-type>
  </abi-instr>
  <abi-instr address-size='64' path='libnurbs/interface/glinterface.cc' comp-dir-path='/tmp/legendre/spack-stage/spack-stage-T0fsxk/Mesa-8.0.5/src/glu/sgi' language='LANG_C_plus_plus'>
    <class-decl name='GLUnurbs' size-in-bits='1149440' is-struct='yes' visibility='default' filepath='libnurbs/interface/glrenderer.h' line='49' column='1' id='type-id-39'>
      <base-class access='public' layout-offset-in-bits='0' type-id='type-id-40'/>
      <data-member access='public' layout-offset-in-bits='47616'>
        <var-decl name='errorCallback' type-id='type-id-41' visibility='default' filepath='libnurbs/interface/glrenderer.h' line='71' column='1'/>
      </data-member>
      <data-member access='private' layout-offset-in-bits='47680'>
        <var-decl name='autoloadmode' type-id='type-id-42' visibility='default' filepath='libnurbs/interface/glrenderer.h' line='130' column='1'/>
      </data-member>
      <data-member access='private' layout-offset-in-bits='47744'>
        <var-decl name='surfaceEvaluator' type-id='type-id-43' visibility='default' filepath='libnurbs/interface/glrenderer.h' line='131' column='1'/>
      </data-member>
      <data-member access='private' layout-offset-in-bits='1121792'>
        <var-decl name='curveEvaluator' type-id='type-id-20' visibility='default' filepath='libnurbs/interface/glrenderer.h' line='132' column='1'/>
      </data-member>
      <data-member access='private' layout-offset-in-bits='1149376'>
        <var-decl name='callbackFlag' type-id='type-id-8' visibility='default' filepath='libnurbs/interface/glrenderer.h' line='143' column='1'/>
      </data-member>
      <member-function access='public'>
        <function-decl name='setNurbsCallbackData' mangled-name='_ZN8GLUnurbs20setNurbsCallbackDataEPv' filepath='libnurbs/interface/glrenderer.h' line='104' column='1' visibility='default' binding='global' size-in-bits='64'>
          <parameter type-id='type-id-44' is-artificial='yes'/>
          <parameter type-id='type-id-35'/>
          <return type-id='type-id-14'/>
        </function-decl>
      </member-function>
      <member-function access='public'>
        <function-decl name='putSurfCallBack' mangled-name='_ZN8GLUnurbs15putSurfCallBackEjPFvvE' filepath='libnurbs/interface/glrenderer.h' line='77' column='1' visibility='default' binding='global' size-in-bits='64'>
          <parameter type-id='type-id-44' is-artificial='yes'/>
          <parameter type-id='type-id-36'/>
          <parameter type-id='type-id-37'/>
          <return type-id='type-id-14'/>
        </function-decl>
      </member-function>
      <member-function access='public'>
        <function-decl name='postError' mangled-name='_ZN8GLUnurbs9postErrorEi' filepath='libnurbs/interface/glrenderer.h' line='72' column='1' visibility='default' binding='global' size-in-bits='64'>
          <parameter type-id='type-id-44' is-artificial='yes'/>
          <parameter type-id='type-id-8'/>
          <return type-id='type-id-14'/>
        </function-decl>
      </member-function>
      <member-function access='public'>
        <function-decl name='getautoloadmode' mangled-name='_ZN8GLUnurbs15getautoloadmodeEv' filepath='libnurbs/interface/glrenderer.h' line='69' column='1' visibility='default' binding='global' size-in-bits='64'>
          <parameter type-id='type-id-44' is-artificial='yes'/>
          <return type-id='type-id-42'/>
        </function-decl>
      </member-function>
      <member-function access='public'>
        <function-decl name='is_callback' mangled-name='_ZN8GLUnurbs11is_callbackEv' filepath='libnurbs/interface/glrenderer.h' line='118' column='1' visibility='default' binding='global' size-in-bits='64'>
          <parameter type-id='type-id-44' is-artificial='yes'/>
          <return type-id='type-id-8'/>
        </function-decl>
      </member-function>
      <member-function access='public'>
        <function-decl name='setautoloadmode' mangled-name='_ZN8GLUnurbs15setautoloadmodeEf' filepath='libnurbs/interface/glrenderer.h' line='62' column='1' visibility='default' binding='global' size-in-bits='64'>
          <parameter type-id='type-id-44' is-artificial='yes'/>
          <parameter type-id='type-id-15'/>
          <return type-id='type-id-14'/>
        </function-decl>
      </member-function>
      <member-function access='public'>
        <function-decl name='put_callbackFlag' mangled-name='_ZN8GLUnurbs16put_callbackFlagEi' filepath='libnurbs/interface/glrenderer.h' line='122' column='1' visibility='default' binding='global' size-in-bits='64'>
          <parameter type-id='type-id-44' is-artificial='yes'/>
          <parameter type-id='type-id-8'/>
          <return type-id='type-id-14'/>
        </function-decl>
      </member-function>
      <member-function access='public'>
        <function-decl name='LOD_eval_list' mangled-name='_ZN8GLUnurbs13LOD_eval_listEi' filepath='libnurbs/interface/glrenderer.h' line='112' column='1' visibility='default' binding='global' size-in-bits='64'>
          <parameter type-id='type-id-44' is-artificial='yes'/>
          <parameter type-id='type-id-8'/>
          <return type-id='type-id-14'/>
        </function-decl>
      </member-function>
      <member-function access='public' constructor='yes'>
        <function-decl name='GLUnurbs' filepath='libnurbs/interface/glrenderer.cc' line='42' column='1' visibility='default' binding='global' size-in-bits='64'>
          <parameter type-id='type-id-44' is-artificial='yes'/>
          <return type-id='type-id-14'/>
        </function-decl>
      </member-function>
      <member-function access='private' static='yes'>
        <function-decl name='transform4d' mangled-name='_ZN8GLUnurbs11transform4dEPfS0_PA4_f' filepath='libnurbs/interface/glrenderer.cc' line='280' column='1' visibility='default' binding='global' size-in-bits='64'>
          <parameter type-id='type-id-45'/>
          <parameter type-id='type-id-45'/>
          <parameter type-id='type-id-46'/>
          <return type-id='type-id-14'/>
        </function-decl>
      </member-function>
      <member-function access='private' static='yes'>
        <function-decl name='multmatrix4d' mangled-name='_ZN8GLUnurbs12multmatrix4dEPA4_fPA4_KfS4_' filepath='libnurbs/interface/glrenderer.cc' line='294' column='1' visibility='default' binding='global' size-in-bits='64'>
          <parameter type-id='type-id-46'/>
          <parameter type-id='type-id-46'/>
          <parameter type-id='type-id-46'/>
          <return type-id='type-id-14'/>
        </function-decl>
      </member-function>
      <member-function access='private'>
        <function-decl name='loadCullingMatrix' mangled-name='_ZN8GLUnurbs17loadCullingMatrixEPA4_f' filepath='libnurbs/interface/glrenderer.cc' line='237' column='1' visibility='default' binding='global' size-in-bits='64'>
          <parameter type-id='type-id-44' is-artificial='yes'/>
          <parameter type-id='type-id-46'/>
          <return type-id='type-id-14'/>
        </function-decl>
      </member-function>
      <member-function access='private'>
        <function-decl name='loadSamplingMatrix' mangled-name='_ZN8GLUnurbs18loadSamplingMatrixEPA4_KfPKi' filepath='libnurbs/interface/glrenderer.cc' line='194' column='1' visibility='default' binding='global' size-in-bits='64'>
          <parameter type-id='type-id-44' is-artificial='yes'/>
          <parameter type-id='type-id-46'/>
          <parameter type-id='type-id-47'/>
          <return type-id='type-id-14'/>
        </function-decl>
      </member-function>
      <member-function access='public'>
        <function-decl name='useGLMatrices' mangled-name='_ZN8GLUnurbs13useGLMatricesEPKfS1_PKi' filepath='libnurbs/interface/glrenderer.cc' line='141' column='1' visibility='default' binding='global' size-in-bits='64'>
          <parameter type-id='type-id-44' is-artificial='yes'/>
          <parameter type-id='type-id-25'/>
          <parameter type-id='type-id-25'/>
          <parameter type-id='type-id-47'/>
          <return type-id='type-id-14'/>
        </function-decl>
      </member-function>
      <member-function access='public'>
        <function-decl name='setSamplingMatrixIdentity' mangled-name='_ZN8GLUnurbs25setSamplingMatrixIdentityEv' filepath='libnurbs/interface/glrenderer.cc' line='171' column='1' visibility='default' binding='global' size-in-bits='64'>
          <parameter type-id='type-id-44' is-artificial='yes'/>
          <return type-id='type-id-14'/>
        </function-decl>
      </member-function>
      <member-function access='private' static='yes'>
        <function-decl name='grabGLMatrix' mangled-name='_ZN8GLUnurbs12grabGLMatrixEPA4_f' filepath='libnurbs/interface/glrenderer.cc' line='159' column='1' visibility='default' binding='global' size-in-bits='64'>
          <parameter type-id='type-id-46'/>
          <return type-id='type-id-14'/>
        </function-decl>
      </member-function>
      <member-function access='public'>
        <function-decl name='loadGLMatrices' mangled-name='_ZN8GLUnurbs14loadGLMatricesEv' filepath='libnurbs/interface/glrenderer.cc' line='129' column='1' visibility='default' binding='global' size-in-bits='64'>
          <parameter type-id='type-id-44' is-artificial='yes'/>
          <return type-id='type-id-14'/>
        </function-decl>
      </member-function>
      <member-function access='public' vtable-offset='2'>
        <function-decl name='bgnrender' mangled-name='_ZN8GLUnurbs9bgnrenderEv' filepath='libnurbs/interface/glrenderer.cc' line='107' column='1' visibility='default' binding='global' size-in-bits='64'>
          <parameter type-id='type-id-44' is-artificial='yes'/>
          <return type-id='type-id-14'/>
        </function-decl>
      </member-function>
      <member-function access='public' vtable-offset='3'>
        <function-decl name='endrender' mangled-name='_ZN8GLUnurbs9endrenderEv' filepath='libnurbs/interface/glrenderer.cc' line='115' column='1' visibility='default' binding='global' size-in-bits='64'>
          <parameter type-id='type-id-44' is-artificial='yes'/>
          <return type-id='type-id-14'/>
        </function-decl>
      </member-function>
      <member-function access='public' vtable-offset='6'>
        <function-decl name='errorHandler' mangled-name='_ZN8GLUnurbs12errorHandlerEi' filepath='libnurbs/interface/glrenderer.cc' line='120' column='1' visibility='default' binding='global' size-in-bits='64'>
          <parameter type-id='type-id-44' is-artificial='yes'/>
          <parameter type-id='type-id-8'/>
          <return type-id='type-id-14'/>
        </function-decl>
      </member-function>
    </class-decl>
    <pointer-type-def type-id='type-id-39' size-in-bits='64' id='type-id-44'/>
    <pointer-type-def type-id='type-id-43' size-in-bits='64' id='type-id-48'/>
    <pointer-type-def type-id='type-id-15' size-in-bits='64' id='type-id-49'/>
    <function-decl name='gluNewNurbsRenderer' mangled-name='gluNewNurbsRenderer' filepath='libnurbs/interface/glinterface.cc' line='66' column='1' visibility='default' binding='global' size-in-bits='64' elf-symbol-id='gluNewNurbsRenderer'>
      <return type-id='type-id-44'/>
    </function-decl>
    <function-decl name='gluDeleteNurbsRenderer' mangled-name='gluDeleteNurbsRenderer' filepath='libnurbs/interface/glinterface.cc' line='75' column='1' visibility='default' binding='global' size-in-bits='64' elf-symbol-id='gluDeleteNurbsRenderer'>
      <parameter type-id='type-id-44' name='r' filepath='libnurbs/interface/glinterface.cc' line='75' column='1'/>
      <return type-id='type-id-14'/>
    </function-decl>
    <function-decl name='gluBeginSurface' mangled-name='gluBeginSurface' filepath='libnurbs/interface/glinterface.cc' line='89' column='1' visibility='default' binding='global' size-in-bits='64' elf-symbol-id='gluBeginSurface'>
      <parameter type-id='type-id-44' name='r' filepath='libnurbs/interface/glinterface.cc' line='75' column='1'/>
      <return type-id='type-id-14'/>
    </function-decl>
    <function-decl name='gluBeginCurve' mangled-name='gluBeginCurve' filepath='libnurbs/interface/glinterface.cc' line='99' column='1' visibility='default' binding='global' size-in-bits='64' elf-symbol-id='gluBeginCurve'>
      <parameter type-id='type-id-44' name='r' filepath='libnurbs/interface/glinterface.cc' line='75' column='1'/>
      <return type-id='type-id-14'/>
    </function-decl>
    <function-decl name='gluEndCurve' mangled-name='gluEndCurve' filepath='libnurbs/interface/glinterface.cc' line='105' column='1' visibility='default' binding='global' size-in-bits='64' elf-symbol-id='gluEndCurve'>
      <parameter type-id='type-id-44' name='r' filepath='libnurbs/interface/glinterface.cc' line='75' column='1'/>
      <return type-id='type-id-14'/>
    </function-decl>
    <function-decl name='gluEndSurface' mangled-name='gluEndSurface' filepath='libnurbs/interface/glinterface.cc' line='111' column='1' visibility='default' binding='global' size-in-bits='64' elf-symbol-id='gluEndSurface'>
      <parameter type-id='type-id-44' name='r' filepath='libnurbs/interface/glinterface.cc' line='75' column='1'/>
      <return type-id='type-id-14'/>
    </function-decl>
    <function-decl name='gluBeginTrim' mangled-name='gluBeginTrim' filepath='libnurbs/interface/glinterface.cc' line='131' column='1' visibility='default' binding='global' size-in-bits='64' elf-symbol-id='gluBeginTrim'>
      <parameter type-id='type-id-44' name='r' filepath='libnurbs/interface/glinterface.cc' line='75' column='1'/>
      <return type-id='type-id-14'/>
    </function-decl>
    <function-decl name='gluEndTrim' mangled-name='gluEndTrim' filepath='libnurbs/interface/glinterface.cc' line='141' column='1' visibility='default' binding='global' size-in-bits='64' elf-symbol-id='gluEndTrim'>
      <parameter type-id='type-id-44' name='r' filepath='libnurbs/interface/glinterface.cc' line='75' column='1'/>
      <return type-id='type-id-14'/>
    </function-decl>
    <function-decl name='gluPwlCurve' mangled-name='gluPwlCurve' filepath='libnurbs/interface/glinterface.cc' line='150' column='1' visibility='default' binding='global' size-in-bits='64' elf-symbol-id='gluPwlCurve'>
      <parameter type-id='type-id-44' name='r' filepath='libnurbs/interface/glinterface.cc' line='150' column='1'/>
      <parameter type-id='type-id-50' name='count' filepath='libnurbs/interface/glinterface.cc' line='150' column='1'/>
      <parameter type-id='type-id-49' name='array' filepath='libnurbs/interface/glinterface.cc' line='150' column='1'/>
      <parameter type-id='type-id-50' name='stride' filepath='libnurbs/interface/glinterface.cc' line='151' column='1'/>
      <parameter type-id='type-id-36' name='type' filepath='libnurbs/interface/glinterface.cc' line='151' column='1'/>
      <return type-id='type-id-14'/>
    </function-decl>
    <function-decl name='gluNurbsCurve' mangled-name='gluNurbsCurve' filepath='libnurbs/interface/glinterface.cc' line='173' column='1' visibility='default' binding='global' size-in-bits='64' elf-symbol-id='gluNurbsCurve'>
      <parameter type-id='type-id-44' name='r' filepath='libnurbs/interface/glinterface.cc' line='173' column='1'/>
      <parameter type-id='type-id-50' name='nknots' filepath='libnurbs/interface/glinterface.cc' line='173' column='1'/>
      <parameter type-id='type-id-49' name='knot' filepath='libnurbs/interface/glinterface.cc' line='173' column='1'/>
      <parameter type-id='type-id-50' name='stride' filepath='libnurbs/interface/glinterface.cc' line='173' column='1'/>
      <parameter type-id='type-id-49' name='ctlarray' filepath='libnurbs/interface/glinterface.cc' line='174' column='1'/>
      <parameter type-id='type-id-50' name='order' filepath='libnurbs/interface/glinterface.cc' line='174' column='1'/>
      <parameter type-id='type-id-36' name='type' filepath='libnurbs/interface/glinterface.cc' line='174' column='1'/>
      <return type-id='type-id-14'/>
    </function-decl>
    <function-decl name='gluNurbsSurface' mangled-name='gluNurbsSurface' filepath='libnurbs/interface/glinterface.cc' line='199' column='1' visibility='default' binding='global' size-in-bits='64' elf-symbol-id='gluNurbsSurface'>
      <parameter type-id='type-id-44' name='r' filepath='libnurbs/interface/glinterface.cc' line='199' column='1'/>
      <parameter type-id='type-id-50' name='sknot_count' filepath='libnurbs/interface/glinterface.cc' line='199' column='1'/>
      <parameter type-id='type-id-45' name='sknot' filepath='libnurbs/interface/glinterface.cc' line='199' column='1'/>
      <parameter type-id='type-id-50' name='tknot_count' filepath='libnurbs/interface/glinterface.cc' line='200' column='1'/>
      <parameter type-id='type-id-45' name='tknot' filepath='libnurbs/interface/glinterface.cc' line='200' column='1'/>
      <parameter type-id='type-id-50' name='s_stride' filepath='libnurbs/interface/glinterface.cc' line='201' column='1'/>
      <parameter type-id='type-id-50' name='t_stride' filepath='libnurbs/interface/glinterface.cc' line='201' column='1'/>
      <parameter type-id='type-id-45' name='ctlarray' filepath='libnurbs/interface/glinterface.cc' line='202' column='1'/>
      <parameter type-id='type-id-50' name='sorder' filepath='libnurbs/interface/glinterface.cc' line='202' column='1'/>
      <parameter type-id='type-id-50' name='torder' filepath='libnurbs/interface/glinterface.cc' line='202' column='1'/>
      <parameter type-id='type-id-36' name='type' filepath='libnurbs/interface/glinterface.cc' line='203' column='1'/>
      <return type-id='type-id-14'/>
    </function-decl>
    <function-decl name='gluLoadSamplingMatrices' mangled-name='gluLoadSamplingMatrices' filepath='libnurbs/interface/glinterface.cc' line='235' column='1' visibility='default' binding='global' size-in-bits='64' elf-symbol-id='gluLoadSamplingMatrices'>
      <parameter type-id='type-id-44' name='r' filepath='libnurbs/interface/glinterface.cc' line='235' column='1'/>
      <parameter type-id='type-id-25' name='modelMatrix' filepath='libnurbs/interface/glinterface.cc' line='235' column='1'/>
      <parameter type-id='type-id-25' name='projMatrix' filepath='libnurbs/interface/glinterface.cc' line='236' column='1'/>
      <parameter type-id='type-id-47' name='viewport' filepath='libnurbs/interface/glinterface.cc' line='237' column='1'/>
      <return type-id='type-id-14'/>
    </function-decl>
    <function-decl name='gluNurbsProperty' mangled-name='gluNurbsProperty' filepath='libnurbs/interface/glinterface.cc' line='243' column='1' visibility='default' binding='global' size-in-bits='64' elf-symbol-id='gluNurbsProperty'>
      <parameter type-id='type-id-44' name='r' filepath='libnurbs/interface/glinterface.cc' line='243' column='1'/>
      <parameter type-id='type-id-36' name='property' filepath='libnurbs/interface/glinterface.cc' line='243' column='1'/>
      <parameter type-id='type-id-23' name='value' filepath='libnurbs/interface/glinterface.cc' line='243' column='1'/>
      <return type-id='type-id-14'/>
    </function-decl>
    <function-decl name='gluGetNurbsProperty' mangled-name='gluGetNurbsProperty' filepath='libnurbs/interface/glinterface.cc' line='359' column='1' visibility='default' binding='global' size-in-bits='64' elf-symbol-id='gluGetNurbsProperty'>
      <parameter type-id='type-id-44' name='r' filepath='libnurbs/interface/glinterface.cc' line='359' column='1'/>
      <parameter type-id='type-id-36' name='property' filepath='libnurbs/interface/glinterface.cc' line='359' column='1'/>
      <parameter type-id='type-id-45' name='value' filepath='libnurbs/interface/glinterface.cc' line='359' column='1'/>
      <return type-id='type-id-14'/>
    </function-decl>
    <function-decl name='gluNurbsCallback' mangled-name='gluNurbsCallback' filepath='libnurbs/interface/glinterface.cc' line='430' column='1' visibility='default' binding='global' size-in-bits='64' elf-symbol-id='gluNurbsCallback'>
      <parameter type-id='type-id-44' name='r' filepath='libnurbs/interface/glinterface.cc' line='430' column='1'/>
      <parameter type-id='type-id-36' name='which' filepath='libnurbs/interface/glinterface.cc' line='430' column='1'/>
      <parameter type-id='type-id-37' name='fn' filepath='libnurbs/interface/glinterface.cc' line='430' column='1'/>
      <return type-id='type-id-14'/>
    </function-decl>
    <function-decl name='gluNurbsCallbackDataEXT' mangled-name='gluNurbsCallbackDataEXT' filepath='libnurbs/interface/glinterface.cc' line='459' column='1' visibility='default' binding='global' size-in-bits='64' elf-symbol-id='gluNurbsCallbackDataEXT'>
      <parameter type-id='type-id-44' name='r' filepath='libnurbs/interface/glinterface.cc' line='459' column='1'/>
      <parameter type-id='type-id-35' name='userData' filepath='libnurbs/interface/glinterface.cc' line='459' column='1'/>
      <return type-id='type-id-14'/>
    </function-decl>
    <function-decl name='gluNurbsCallbackData' mangled-name='gluNurbsCallbackData' filepath='libnurbs/interface/glinterface.cc' line='466' column='1' visibility='default' binding='global' size-in-bits='64' elf-symbol-id='gluNurbsCallbackData'>
      <parameter type-id='type-id-44' name='r' filepath='libnurbs/interface/glinterface.cc' line='459' column='1'/>
      <parameter type-id='type-id-35' name='userData' filepath='libnurbs/interface/glinterface.cc' line='459' column='1'/>
      <return type-id='type-id-14'/>
    </function-decl>
    <class-decl name='OpenGLSurfaceEvaluator' is-struct='yes' visibility='default' filepath='libnurbs/interface/glsurfeval.h' line='100' column='1' is-declaration-only='yes' id='type-id-43'>
      <base-class access='public' layout-offset-in-bits='0' type-id='type-id-51'/>
      <data-member access='private' layout-offset-in-bits='64'>
        <var-decl name='vertexCache' type-id='type-id-52' visibility='default' filepath='libnurbs/interface/glsurfeval.h' line='180' column='1'/>
      </data-member>
      <data-member access='private' layout-offset-in-bits='256'>
        <var-decl name='tmeshing' type-id='type-id-8' visibility='default' filepath='libnurbs/interface/glsurfeval.h' line='181' column='1'/>
      </data-member>
      <data-member access='private' layout-offset-in-bits='288'>
        <var-decl name='which' type-id='type-id-8' visibility='default' filepath='libnurbs/interface/glsurfeval.h' line='182' column='1'/>
      </data-member>
      <data-member access='private' layout-offset-in-bits='320'>
        <var-decl name='vcount' type-id='type-id-8' visibility='default' filepath='libnurbs/interface/glsurfeval.h' line='183' column='1'/>
      </data-member>
      <data-member access='private' layout-offset-in-bits='352'>
        <var-decl name='gl_polygon_mode' type-id='type-id-53' visibility='default' filepath='libnurbs/interface/glsurfeval.h' line='185' column='1'/>
      </data-member>
      <data-member access='private' layout-offset-in-bits='448'>
        <var-decl name='global_bpm' type-id='type-id-54' visibility='default' filepath='libnurbs/interface/glsurfeval.h' line='188' column='1'/>
      </data-member>
      <data-member access='private' layout-offset-in-bits='512'>
        <var-decl name='output_triangles' type-id='type-id-8' visibility='default' filepath='libnurbs/interface/glsurfeval.h' line='189' column='1'/>
      </data-member>
      <data-member access='private' layout-offset-in-bits='576'>
        <var-decl name='beginCallBackN' type-id='type-id-31' visibility='default' filepath='libnurbs/interface/glsurfeval.h' line='193' column='1'/>
      </data-member>
      <data-member access='private' layout-offset-in-bits='640'>
        <var-decl name='endCallBackN' type-id='type-id-32' visibility='default' filepath='libnurbs/interface/glsurfeval.h' line='194' column='1'/>
      </data-member>
      <data-member access='private' layout-offset-in-bits='704'>
        <var-decl name='vertexCallBackN' type-id='type-id-28' visibility='default' filepath='libnurbs/interface/glsurfeval.h' line='195' column='1'/>
      </data-member>
      <data-member access='private' layout-offset-in-bits='768'>
        <var-decl name='normalCallBackN' type-id='type-id-28' visibility='default' filepath='libnurbs/interface/glsurfeval.h' line='196' column='1'/>
      </data-member>
      <data-member access='private' layout-offset-in-bits='832'>
        <var-decl name='colorCallBackN' type-id='type-id-28' visibility='default' filepath='libnurbs/interface/glsurfeval.h' line='197' column='1'/>
      </data-member>
      <data-member access='private' layout-offset-in-bits='896'>
        <var-decl name='texcoordCallBackN' type-id='type-id-28' visibility='default' filepath='libnurbs/interface/glsurfeval.h' line='198' column='1'/>
      </data-member>
      <data-member access='private' layout-offset-in-bits='960'>
        <var-decl name='beginCallBackData' type-id='type-id-33' visibility='default' filepath='libnurbs/interface/glsurfeval.h' line='200' column='1'/>
      </data-member>
      <data-member access='private' layout-offset-in-bits='1024'>
        <var-decl name='endCallBackData' type-id='type-id-34' visibility='default' filepath='libnurbs/interface/glsurfeval.h' line='201' column='1'/>
      </data-member>
      <data-member access='private' layout-offset-in-bits='1088'>
        <var-decl name='vertexCallBackData' type-id='type-id-30' visibility='default' filepath='libnurbs/interface/glsurfeval.h' line='202' column='1'/>
      </data-member>
      <data-member access='private' layout-offset-in-bits='1152'>
        <var-decl name='normalCallBackData' type-id='type-id-30' visibility='default' filepath='libnurbs/interface/glsurfeval.h' line='203' column='1'/>
      </data-member>
      <data-member access='private' layout-offset-in-bits='1216'>
        <var-decl name='colorCallBackData' type-id='type-id-30' visibility='default' filepath='libnurbs/interface/glsurfeval.h' line='204' column='1'/>
      </data-member>
      <data-member access='private' layout-offset-in-bits='1280'>
        <var-decl name='texcoordCallBackData' type-id='type-id-30' visibility='default' filepath='libnurbs/interface/glsurfeval.h' line='205' column='1'/>
      </data-member>
      <data-member access='private' layout-offset-in-bits='1344'>
        <var-decl name='userData' type-id='type-id-35' visibility='default' filepath='libnurbs/interface/glsurfeval.h' line='215' column='1'/>
      </data-member>
      <data-member access='private' layout-offset-in-bits='1408'>
        <var-decl name='LOD_eval_level' type-id='type-id-8' visibility='default' filepath='libnurbs/interface/glsurfeval.h' line='222' column='1'/>
      </data-member>
      <data-member access='private' layout-offset-in-bits='1440'>
        <var-decl name='global_uorder' type-id='type-id-8' visibility='default' filepath='libnurbs/interface/glsurfeval.h' line='231' column='1'/>
      </data-member>
      <data-member access='private' layout-offset-in-bits='1472'>
        <var-decl name='global_vorder' type-id='type-id-8' visibility='default' filepath='libnurbs/interface/glsurfeval.h' line='232' column='1'/>
      </data-member>
      <data-member access='private' layout-offset-in-bits='1504'>
        <var-decl name='global_uprime' type-id='type-id-1' visibility='default' filepath='libnurbs/interface/glsurfeval.h' line='233' column='1'/>
      </data-member>
      <data-member access='private' layout-offset-in-bits='1536'>
        <var-decl name='global_vprime' type-id='type-id-1' visibility='default' filepath='libnurbs/interface/glsurfeval.h' line='234' column='1'/>
      </data-member>
      <data-member access='private' layout-offset-in-bits='1568'>
        <var-decl name='global_vprime_BV' type-id='type-id-1' visibility='default' filepath='libnurbs/interface/glsurfeval.h' line='235' column='1'/>
      </data-member>
      <data-member access='private' layout-offset-in-bits='1600'>
        <var-decl name='global_uprime_BU' type-id='type-id-1' visibility='default' filepath='libnurbs/interface/glsurfeval.h' line='236' column='1'/>
      </data-member>
      <data-member access='private' layout-offset-in-bits='1632'>
        <var-decl name='global_uorder_BV' type-id='type-id-8' visibility='default' filepath='libnurbs/interface/glsurfeval.h' line='237' column='1'/>
      </data-member>
      <data-member access='private' layout-offset-in-bits='1664'>
        <var-decl name='global_vorder_BV' type-id='type-id-8' visibility='default' filepath='libnurbs/interface/glsurfeval.h' line='238' column='1'/>
      </data-member>
      <data-member access='private' layout-offset-in-bits='1696'>
        <var-decl name='global_uorder_BU' type-id='type-id-8' visibility='default' filepath='libnurbs/interface/glsurfeval.h' line='239' column='1'/>
      </data-member>
      <data-member access='private' layout-offset-in-bits='1728'>
        <var-decl name='global_vorder_BU' type-id='type-id-8' visibility='default' filepath='libnurbs/interface/glsurfeval.h' line='240' column='1'/>
      </data-member>
      <data-member access='private' layout-offset-in-bits='1760'>
        <var-decl name='global_ucoeff' type-id='type-id-5' visibility='default' filepath='libnurbs/interface/glsurfeval.h' line='242' column='1'/>
      </data-member>
      <data-member access='private' layout-offset-in-bits='3040'>
        <var-decl name='global_vcoeff' type-id='type-id-5' visibility='default' filepath='libnurbs/interface/glsurfeval.h' line='243' column='1'/>
      </data-member>
      <data-member access='private' layout-offset-in-bits='4320'>
        <var-decl name='global_ucoeffDeriv' type-id='type-id-5' visibility='default' filepath='libnurbs/interface/glsurfeval.h' line='244' column='1'/>
      </data-member>
      <data-member access='private' layout-offset-in-bits='5600'>
        <var-decl name='global_vcoeffDeriv' type-id='type-id-5' visibility='default' filepath='libnurbs/interface/glsurfeval.h' line='245' column='1'/>
      </data-member>
      <data-member access='private' layout-offset-in-bits='6880'>
        <var-decl name='global_BV' type-id='type-id-55' visibility='default' filepath='libnurbs/interface/glsurfeval.h' line='247' column='1'/>
      </data-member>
      <data-member access='private' layout-offset-in-bits='12000'>
        <var-decl name='global_PBV' type-id='type-id-55' visibility='default' filepath='libnurbs/interface/glsurfeval.h' line='248' column='1'/>
      </data-member>
      <data-member access='private' layout-offset-in-bits='17120'>
        <var-decl name='global_BU' type-id='type-id-55' visibility='default' filepath='libnurbs/interface/glsurfeval.h' line='249' column='1'/>
      </data-member>
      <data-member access='private' layout-offset-in-bits='22240'>
        <var-decl name='global_PBU' type-id='type-id-55' visibility='default' filepath='libnurbs/interface/glsurfeval.h' line='250' column='1'/>
      </data-member>
      <data-member access='private' layout-offset-in-bits='27392'>
        <var-decl name='global_baseData' type-id='type-id-22' visibility='default' filepath='libnurbs/interface/glsurfeval.h' line='251' column='1'/>
      </data-member>
      <data-member access='private' layout-offset-in-bits='27456'>
        <var-decl name='global_ev_k' type-id='type-id-8' visibility='default' filepath='libnurbs/interface/glsurfeval.h' line='253' column='1'/>
      </data-member>
      <data-member access='private' layout-offset-in-bits='27488'>
        <var-decl name='global_ev_u1' type-id='type-id-1' visibility='default' filepath='libnurbs/interface/glsurfeval.h' line='254' column='1'/>
      </data-member>
      <data-member access='private' layout-offset-in-bits='27520'>
        <var-decl name='global_ev_u2' type-id='type-id-1' visibility='default' filepath='libnurbs/interface/glsurfeval.h' line='255' column='1'/>
      </data-member>
      <data-member access='private' layout-offset-in-bits='27552'>
        <var-decl name='global_ev_ustride' type-id='type-id-8' visibility='default' filepath='libnurbs/interface/glsurfeval.h' line='256' column='1'/>
      </data-member>
      <data-member access='private' layout-offset-in-bits='27584'>
        <var-decl name='global_ev_uorder' type-id='type-id-8' visibility='default' filepath='libnurbs/interface/glsurfeval.h' line='257' column='1'/>
      </data-member>
      <data-member access='private' layout-offset-in-bits='27616'>
        <var-decl name='global_ev_v1' type-id='type-id-1' visibility='default' filepath='libnurbs/interface/glsurfeval.h' line='258' column='1'/>
      </data-member>
      <data-member access='private' layout-offset-in-bits='27648'>
        <var-decl name='global_ev_v2' type-id='type-id-1' visibility='default' filepath='libnurbs/interface/glsurfeval.h' line='259' column='1'/>
      </data-member>
      <data-member access='private' layout-offset-in-bits='27680'>
        <var-decl name='global_ev_vstride' type-id='type-id-8' visibility='default' filepath='libnurbs/interface/glsurfeval.h' line='260' column='1'/>
      </data-member>
      <data-member access='private' layout-offset-in-bits='27712'>
        <var-decl name='global_ev_vorder' type-id='type-id-8' visibility='default' filepath='libnurbs/interface/glsurfeval.h' line='261' column='1'/>
      </data-member>
      <data-member access='private' layout-offset-in-bits='27744'>
        <var-decl name='global_ev_ctlPoints' type-id='type-id-56' visibility='default' filepath='libnurbs/interface/glsurfeval.h' line='262' column='1'/>
      </data-member>
      <data-member access='private' layout-offset-in-bits='232544'>
        <var-decl name='global_grid_u0' type-id='type-id-1' visibility='default' filepath='libnurbs/interface/glsurfeval.h' line='264' column='1'/>
      </data-member>
      <data-member access='private' layout-offset-in-bits='232576'>
        <var-decl name='global_grid_u1' type-id='type-id-1' visibility='default' filepath='libnurbs/interface/glsurfeval.h' line='265' column='1'/>
      </data-member>
      <data-member access='private' layout-offset-in-bits='232608'>
        <var-decl name='global_grid_nu' type-id='type-id-8' visibility='default' filepath='libnurbs/interface/glsurfeval.h' line='266' column='1'/>
      </data-member>
      <data-member access='private' layout-offset-in-bits='232640'>
        <var-decl name='global_grid_v0' type-id='type-id-1' visibility='default' filepath='libnurbs/interface/glsurfeval.h' line='267' column='1'/>
      </data-member>
      <data-member access='private' layout-offset-in-bits='232672'>
        <var-decl name='global_grid_v1' type-id='type-id-1' visibility='default' filepath='libnurbs/interface/glsurfeval.h' line='268' column='1'/>
      </data-member>
      <data-member access='private' layout-offset-in-bits='232704'>
        <var-decl name='global_grid_nv' type-id='type-id-8' visibility='default' filepath='libnurbs/interface/glsurfeval.h' line='269' column='1'/>
      </data-member>
      <data-member access='private' layout-offset-in-bits='232736'>
        <var-decl name='em_vertex' type-id='type-id-57' visibility='default' filepath='libnurbs/interface/glsurfeval.h' line='349' column='1'/>
      </data-member>
      <data-member access='private' layout-offset-in-bits='443008'>
        <var-decl name='em_normal' type-id='type-id-57' visibility='default' filepath='libnurbs/interface/glsurfeval.h' line='350' column='1'/>
      </data-member>
      <data-member access='private' layout-offset-in-bits='653280'>
        <var-decl name='em_color' type-id='type-id-57' visibility='default' filepath='libnurbs/interface/glsurfeval.h' line='351' column='1'/>
      </data-member>
      <data-member access='private' layout-offset-in-bits='863552'>
        <var-decl name='em_texcoord' type-id='type-id-57' visibility='default' filepath='libnurbs/interface/glsurfeval.h' line='352' column='1'/>
      </data-member>
      <data-member access='private' layout-offset-in-bits='1073824'>
        <var-decl name='auto_normal_flag' type-id='type-id-8' visibility='default' filepath='libnurbs/interface/glsurfeval.h' line='354' column='1'/>
      </data-member>
      <data-member access='private' layout-offset-in-bits='1073856'>
        <var-decl name='callback_auto_normal' type-id='type-id-8' visibility='default' filepath='libnurbs/interface/glsurfeval.h' line='356' column='1'/>
      </data-member>
      <data-member access='private' layout-offset-in-bits='1073888'>
        <var-decl name='vertex_flag' type-id='type-id-8' visibility='default' filepath='libnurbs/interface/glsurfeval.h' line='357' column='1'/>
      </data-member>
      <data-member access='private' layout-offset-in-bits='1073920'>
        <var-decl name='normal_flag' type-id='type-id-8' visibility='default' filepath='libnurbs/interface/glsurfeval.h' line='358' column='1'/>
      </data-member>
      <data-member access='private' layout-offset-in-bits='1073952'>
        <var-decl name='color_flag' type-id='type-id-8' visibility='default' filepath='libnurbs/interface/glsurfeval.h' line='359' column='1'/>
      </data-member>
      <data-member access='private' layout-offset-in-bits='1073984'>
        <var-decl name='texcoord_flag' type-id='type-id-8' visibility='default' filepath='libnurbs/interface/glsurfeval.h' line='360' column='1'/>
      </data-member>
      <member-function access='public'>
        <function-decl name='set_callback_userData' mangled-name='_ZN22OpenGLSurfaceEvaluator21set_callback_userDataEPv' filepath='libnurbs/interface/glsurfeval.h' line='168' column='1' visibility='default' binding='global' size-in-bits='64'>
          <parameter type-id='type-id-48' is-artificial='yes'/>
          <parameter type-id='type-id-35'/>
          <return type-id='type-id-14'/>
        </function-decl>
      </member-function>
      <member-function access='public'>
        <function-decl name='put_vertices_call_back' mangled-name='_ZN22OpenGLSurfaceEvaluator22put_vertices_call_backEi' filepath='libnurbs/interface/glsurfeval.h' line='153' column='1' visibility='default' binding='global' size-in-bits='64'>
          <parameter type-id='type-id-48' is-artificial='yes'/>
          <parameter type-id='type-id-8'/>
          <return type-id='type-id-14'/>
        </function-decl>
      </member-function>
      <member-function access='public' constructor='yes'>
        <function-decl name='OpenGLSurfaceEvaluator' filepath='libnurbs/interface/glsurfeval.cc' line='99' column='1' visibility='default' binding='global' size-in-bits='64'>
          <parameter type-id='type-id-48' is-artificial='yes'/>
          <return type-id='type-id-14'/>
        </function-decl>
      </member-function>
      <member-function access='public'>
        <function-decl name='putCallBack' mangled-name='_ZN22OpenGLSurfaceEvaluator11putCallBackEjPFvvE' filepath='libnurbs/interface/glsurfeval.cc' line='1190' column='1' visibility='default' binding='global' size-in-bits='64'>
          <parameter type-id='type-id-48' is-artificial='yes'/>
          <parameter type-id='type-id-36'/>
          <parameter type-id='type-id-37'/>
          <return type-id='type-id-14'/>
        </function-decl>
      </member-function>
      <member-function access='private'>
        <function-decl name='beginCallBack' mangled-name='_ZN22OpenGLSurfaceEvaluator13beginCallBackEjPv' filepath='libnurbs/interface/glsurfeval.cc' line='1237' column='1' visibility='default' binding='global' size-in-bits='64'>
          <parameter type-id='type-id-48' is-artificial='yes'/>
          <parameter type-id='type-id-36'/>
          <parameter type-id='type-id-35'/>
          <return type-id='type-id-14'/>
        </function-decl>
      </member-function>
      <member-function access='private'>
        <function-decl name='endCallBack' mangled-name='_ZN22OpenGLSurfaceEvaluator11endCallBackEPv' filepath='libnurbs/interface/glsurfeval.cc' line='1246' column='1' visibility='default' binding='global' size-in-bits='64'>
          <parameter type-id='type-id-48' is-artificial='yes'/>
          <parameter type-id='type-id-35'/>
          <return type-id='type-id-14'/>
        </function-decl>
      </member-function>
      <member-function access='private'>
        <function-decl name='vertexCallBack' mangled-name='_ZN22OpenGLSurfaceEvaluator14vertexCallBackEPKfPv' filepath='libnurbs/interface/glsurfeval.cc' line='1255' column='1' visibility='default' binding='global' size-in-bits='64'>
          <parameter type-id='type-id-48' is-artificial='yes'/>
          <parameter type-id='type-id-25'/>
          <parameter type-id='type-id-35'/>
          <return type-id='type-id-14'/>
        </function-decl>
      </member-function>
      <member-function access='private'>
        <function-decl name='normalCallBack' mangled-name='_ZN22OpenGLSurfaceEvaluator14normalCallBackEPKfPv' filepath='libnurbs/interface/glsurfeval.cc' line='1265' column='1' visibility='default' binding='global' size-in-bits='64'>
          <parameter type-id='type-id-48' is-artificial='yes'/>
          <parameter type-id='type-id-25'/>
          <parameter type-id='type-id-35'/>
          <return type-id='type-id-14'/>
        </function-decl>
      </member-function>
      <member-function access='private'>
        <function-decl name='colorCallBack' mangled-name='_ZN22OpenGLSurfaceEvaluator13colorCallBackEPKfPv' filepath='libnurbs/interface/glsurfeval.cc' line='1274' column='1' visibility='default' binding='global' size-in-bits='64'>
          <parameter type-id='type-id-48' is-artificial='yes'/>
          <parameter type-id='type-id-25'/>
          <parameter type-id='type-id-35'/>
          <return type-id='type-id-14'/>
        </function-decl>
      </member-function>
      <member-function access='private'>
        <function-decl name='texcoordCallBack' mangled-name='_ZN22OpenGLSurfaceEvaluator16texcoordCallBackEPKfPv' filepath='libnurbs/interface/glsurfeval.cc' line='1283' column='1' visibility='default' binding='global' size-in-bits='64'>
          <parameter type-id='type-id-48' is-artificial='yes'/>
          <parameter type-id='type-id-25'/>
          <parameter type-id='type-id-35'/>
          <return type-id='type-id-14'/>
        </function-decl>
      </member-function>
      <member-function access='public'>
        <function-decl name='coord2f' mangled-name='_ZN22OpenGLSurfaceEvaluator7coord2fEff' filepath='libnurbs/interface/glsurfeval.cc' line='1106' column='1' visibility='default' binding='global' size-in-bits='64'>
          <parameter type-id='type-id-48' is-artificial='yes'/>
          <parameter type-id='type-id-1'/>
          <parameter type-id='type-id-1'/>
          <return type-id='type-id-14'/>
        </function-decl>
      </member-function>
      <member-function access='public'>
        <function-decl name='point2i' mangled-name='_ZN22OpenGLSurfaceEvaluator7point2iEll' filepath='libnurbs/interface/glsurfeval.cc' line='1069' column='1' visibility='default' binding='global' size-in-bits='64'>
          <parameter type-id='type-id-48' is-artificial='yes'/>
          <parameter type-id='type-id-38'/>
          <parameter type-id='type-id-38'/>
          <return type-id='type-id-14'/>
        </function-decl>
      </member-function>
      <member-function access='public'>
        <function-decl name='newtmeshvert' mangled-name='_ZN22OpenGLSurfaceEvaluator12newtmeshvertEff' filepath='libnurbs/interface/glsurfeval.cc' line='1160' column='1' visibility='default' binding='global' size-in-bits='64'>
          <parameter type-id='type-id-48' is-artificial='yes'/>
          <parameter type-id='type-id-1'/>
          <parameter type-id='type-id-1'/>
          <return type-id='type-id-14'/>
        </function-decl>
      </member-function>
      <member-function access='public'>
        <function-decl name='newtmeshvert' mangled-name='_ZN22OpenGLSurfaceEvaluator12newtmeshvertEll' filepath='libnurbs/interface/glsurfeval.cc' line='1134' column='1' visibility='default' binding='global' size-in-bits='64'>
          <parameter type-id='type-id-48' is-artificial='yes'/>
          <parameter type-id='type-id-38'/>
          <parameter type-id='type-id-38'/>
          <return type-id='type-id-14'/>
        </function-decl>
      </member-function>
      <member-function access='public'>
        <function-decl name='LOD_eval_list' mangled-name='_ZN22OpenGLSurfaceEvaluator13LOD_eval_listEi' filepath='libnurbs/interface/glsurfeval.cc' line='84' column='1' visibility='default' binding='global' size-in-bits='64'>
          <parameter type-id='type-id-48' is-artificial='yes'/>
          <parameter type-id='type-id-8'/>
          <return type-id='type-id-14'/>
        </function-decl>
      </member-function>
      <member-function access='private'>
        <function-decl name='inMapGrid2f' mangled-name='_ZN22OpenGLSurfaceEvaluator11inMapGrid2fEiffiff' filepath='libnurbs/interface/insurfeval.cc' line='389' column='1' visibility='default' binding='global' size-in-bits='64'>
          <parameter type-id='type-id-48' is-artificial='yes'/>
          <parameter type-id='type-id-8'/>
          <parameter type-id='type-id-1'/>
          <parameter type-id='type-id-1'/>
          <parameter type-id='type-id-8'/>
          <parameter type-id='type-id-1'/>
          <parameter type-id='type-id-1'/>
          <return type-id='type-id-14'/>
        </function-decl>
      </member-function>
      <member-function access='private'>
        <function-decl name='inComputeFirstPartials' mangled-name='_ZN22OpenGLSurfaceEvaluator22inComputeFirstPartialsEPfS0_S0_' filepath='libnurbs/interface/insurfeval.cc' line='501' column='1' visibility='default' binding='global' size-in-bits='64'>
          <parameter type-id='type-id-48' is-artificial='yes'/>
          <parameter type-id='type-id-22'/>
          <parameter type-id='type-id-22'/>
          <parameter type-id='type-id-22'/>
          <return type-id='type-id-14'/>
        </function-decl>
      </member-function>
      <member-function access='private'>
        <function-decl name='inPreEvaluate' mangled-name='_ZN22OpenGLSurfaceEvaluator13inPreEvaluateEifPf' filepath='libnurbs/interface/insurfeval.cc' line='1022' column='1' visibility='default' binding='global' size-in-bits='64'>
          <parameter type-id='type-id-48' is-artificial='yes'/>
          <parameter type-id='type-id-8'/>
          <parameter type-id='type-id-1'/>
          <parameter type-id='type-id-22'/>
          <return type-id='type-id-14'/>
        </function-decl>
      </member-function>
      <member-function access='private'>
        <function-decl name='inPreEvaluateWithDeriv' mangled-name='_ZN22OpenGLSurfaceEvaluator22inPreEvaluateWithDerivEifPfS0_' filepath='libnurbs/interface/insurfeval.cc' line='1066' column='1' visibility='default' binding='global' size-in-bits='64'>
          <parameter type-id='type-id-48' is-artificial='yes'/>
          <parameter type-id='type-id-8'/>
          <parameter type-id='type-id-1'/>
          <parameter type-id='type-id-22'/>
          <parameter type-id='type-id-22'/>
          <return type-id='type-id-14'/>
        </function-decl>
      </member-function>
      <member-function access='private'>
        <function-decl name='inDoDomain2WithDerivs' mangled-name='_ZN22OpenGLSurfaceEvaluator21inDoDomain2WithDerivsEiffffiffiPfS0_S0_S0_' filepath='libnurbs/interface/insurfeval.cc' line='949' column='1' visibility='default' binding='global' size-in-bits='64'>
          <parameter type-id='type-id-48' is-artificial='yes'/>
          <parameter type-id='type-id-8'/>
          <parameter type-id='type-id-1'/>
          <parameter type-id='type-id-1'/>
          <parameter type-id='type-id-1'/>
          <parameter type-id='type-id-1'/>
          <parameter type-id='type-id-8'/>
          <parameter type-id='type-id-1'/>
          <parameter type-id='type-id-1'/>
          <parameter type-id='type-id-8'/>
          <parameter type-id='type-id-22'/>
          <parameter type-id='type-id-22'/>
          <parameter type-id='type-id-22'/>
          <parameter type-id='type-id-22'/>
          <return type-id='type-id-14'/>
        </function-decl>
      </member-function>
      <member-function access='private'>
        <function-decl name='inDoDomain2WithDerivsBV' mangled-name='_ZN22OpenGLSurfaceEvaluator23inDoDomain2WithDerivsBVEiffffiffiPfS0_S0_S0_' filepath='libnurbs/interface/insurfeval.cc' line='903' column='1' visibility='default' binding='global' size-in-bits='64'>
          <parameter type-id='type-id-48' is-artificial='yes'/>
          <parameter type-id='type-id-8'/>
          <parameter type-id='type-id-1'/>
          <parameter type-id='type-id-1'/>
          <parameter type-id='type-id-1'/>
          <parameter type-id='type-id-1'/>
          <parameter type-id='type-id-8'/>
          <parameter type-id='type-id-1'/>
          <parameter type-id='type-id-1'/>
          <parameter type-id='type-id-8'/>
          <parameter type-id='type-id-22'/>
          <parameter type-id='type-id-22'/>
          <parameter type-id='type-id-22'/>
          <parameter type-id='type-id-22'/>
          <return type-id='type-id-14'/>
        </function-decl>
      </member-function>
      <member-function access='private'>
        <function-decl name='inDoDomain2WithDerivsBU' mangled-name='_ZN22OpenGLSurfaceEvaluator23inDoDomain2WithDerivsBUEiffffiffiPfS0_S0_S0_' filepath='libnurbs/interface/insurfeval.cc' line='868' column='1' visibility='default' binding='global' size-in-bits='64'>
          <parameter type-id='type-id-48' is-artificial='yes'/>
          <parameter type-id='type-id-8'/>
          <parameter type-id='type-id-1'/>
          <parameter type-id='type-id-1'/>
          <parameter type-id='type-id-1'/>
          <parameter type-id='type-id-1'/>
          <parameter type-id='type-id-8'/>
          <parameter type-id='type-id-1'/>
          <parameter type-id='type-id-1'/>
          <parameter type-id='type-id-8'/>
          <parameter type-id='type-id-22'/>
          <parameter type-id='type-id-22'/>
          <parameter type-id='type-id-22'/>
          <parameter type-id='type-id-22'/>
          <return type-id='type-id-14'/>
        </function-decl>
      </member-function>
      <member-function access='private'>
        <function-decl name='inPreEvaluateBU' mangled-name='_ZN22OpenGLSurfaceEvaluator15inPreEvaluateBUEiiifPf' filepath='libnurbs/interface/insurfeval.cc' line='838' column='1' visibility='default' binding='global' size-in-bits='64'>
          <parameter type-id='type-id-48' is-artificial='yes'/>
          <parameter type-id='type-id-8'/>
          <parameter type-id='type-id-8'/>
          <parameter type-id='type-id-8'/>
          <parameter type-id='type-id-1'/>
          <parameter type-id='type-id-22'/>
          <return type-id='type-id-14'/>
        </function-decl>
      </member-function>
      <member-function access='private'>
        <function-decl name='inPreEvaluateBV' mangled-name='_ZN22OpenGLSurfaceEvaluator15inPreEvaluateBVEiiifPf' filepath='libnurbs/interface/insurfeval.cc' line='809' column='1' visibility='default' binding='global' size-in-bits='64'>
          <parameter type-id='type-id-48' is-artificial='yes'/>
          <parameter type-id='type-id-8'/>
          <parameter type-id='type-id-8'/>
          <parameter type-id='type-id-8'/>
          <parameter type-id='type-id-1'/>
          <parameter type-id='type-id-22'/>
          <return type-id='type-id-14'/>
        </function-decl>
      </member-function>
      <member-function access='private'>
        <function-decl name='inEvalULine' mangled-name='_ZN22OpenGLSurfaceEvaluator11inEvalULineEifPfiPA3_fS2_' filepath='libnurbs/interface/insurfeval.cc' line='1125' column='1' visibility='default' binding='global' size-in-bits='64'>
          <parameter type-id='type-id-48' is-artificial='yes'/>
          <parameter type-id='type-id-8'/>
          <parameter type-id='type-id-1'/>
          <parameter type-id='type-id-22'/>
          <parameter type-id='type-id-8'/>
          <parameter type-id='type-id-58'/>
          <parameter type-id='type-id-58'/>
          <return type-id='type-id-14'/>
        </function-decl>
      </member-function>
      <member-function access='private'>
        <function-decl name='inEvalVLine' mangled-name='_ZN22OpenGLSurfaceEvaluator11inEvalVLineEifPfiPA3_fS2_' filepath='libnurbs/interface/insurfeval.cc' line='1144' column='1' visibility='default' binding='global' size-in-bits='64'>
          <parameter type-id='type-id-48' is-artificial='yes'/>
          <parameter type-id='type-id-8'/>
          <parameter type-id='type-id-1'/>
          <parameter type-id='type-id-22'/>
          <parameter type-id='type-id-8'/>
          <parameter type-id='type-id-58'/>
          <parameter type-id='type-id-58'/>
          <return type-id='type-id-14'/>
        </function-decl>
      </member-function>
      <member-function access='private'>
        <function-decl name='inMap2fEM' mangled-name='_ZN22OpenGLSurfaceEvaluator9inMap2fEMEiiffiiffiiPf' filepath='libnurbs/interface/insurfeval.cc' line='1540' column='1' visibility='default' binding='global' size-in-bits='64'>
          <parameter type-id='type-id-48' is-artificial='yes'/>
          <parameter type-id='type-id-8'/>
          <parameter type-id='type-id-8'/>
          <parameter type-id='type-id-1'/>
          <parameter type-id='type-id-1'/>
          <parameter type-id='type-id-8'/>
          <parameter type-id='type-id-8'/>
          <parameter type-id='type-id-1'/>
          <parameter type-id='type-id-1'/>
          <parameter type-id='type-id-8'/>
          <parameter type-id='type-id-8'/>
          <parameter type-id='type-id-22'/>
          <return type-id='type-id-14'/>
        </function-decl>
      </member-function>
      <member-function access='private'>
        <function-decl name='inDoDomain2WithDerivsEM' mangled-name='_ZN22OpenGLSurfaceEvaluator23inDoDomain2WithDerivsEMEP15surfEvalMachineffPfS2_S2_' filepath='libnurbs/interface/insurfeval.cc' line='1600' column='1' visibility='default' binding='global' size-in-bits='64'>
          <parameter type-id='type-id-48' is-artificial='yes'/>
          <parameter type-id='type-id-59'/>
          <parameter type-id='type-id-1'/>
          <parameter type-id='type-id-1'/>
          <parameter type-id='type-id-22'/>
          <parameter type-id='type-id-22'/>
          <parameter type-id='type-id-22'/>
          <return type-id='type-id-14'/>
        </function-decl>
      </member-function>
      <member-function access='private'>
        <function-decl name='inDoDomain2EM' mangled-name='_ZN22OpenGLSurfaceEvaluator13inDoDomain2EMEP15surfEvalMachineffPf' filepath='libnurbs/interface/insurfeval.cc' line='1653' column='1' visibility='default' binding='global' size-in-bits='64'>
          <parameter type-id='type-id-48' is-artificial='yes'/>
          <parameter type-id='type-id-59'/>
          <parameter type-id='type-id-1'/>
          <parameter type-id='type-id-1'/>
          <parameter type-id='type-id-22'/>
          <return type-id='type-id-14'/>
        </function-decl>
      </member-function>
      <member-function access='private'>
        <function-decl name='inEvalVStrip' mangled-name='_ZN22OpenGLSurfaceEvaluator12inEvalVStripEifPfifS0_' filepath='libnurbs/interface/insurfeval.cc' line='1355' column='1' visibility='default' binding='global' size-in-bits='64'>
          <parameter type-id='type-id-48' is-artificial='yes'/>
          <parameter type-id='type-id-8'/>
          <parameter type-id='type-id-1'/>
          <parameter type-id='type-id-22'/>
          <parameter type-id='type-id-8'/>
          <parameter type-id='type-id-1'/>
          <parameter type-id='type-id-22'/>
          <return type-id='type-id-14'/>
        </function-decl>
      </member-function>
      <member-function access='private'>
        <function-decl name='inEvalUStrip' mangled-name='_ZN22OpenGLSurfaceEvaluator12inEvalUStripEifPfifS0_' filepath='libnurbs/interface/insurfeval.cc' line='1166' column='1' visibility='default' binding='global' size-in-bits='64'>
          <parameter type-id='type-id-48' is-artificial='yes'/>
          <parameter type-id='type-id-8'/>
          <parameter type-id='type-id-1'/>
          <parameter type-id='type-id-22'/>
          <parameter type-id='type-id-8'/>
          <parameter type-id='type-id-1'/>
          <parameter type-id='type-id-22'/>
          <return type-id='type-id-14'/>
        </function-decl>
      </member-function>
      <member-function access='private'>
        <function-decl name='inComputeNormal2' mangled-name='_ZN22OpenGLSurfaceEvaluator16inComputeNormal2EPfS0_S0_' filepath='libnurbs/interface/insurfeval.cc' line='518' column='1' visibility='default' binding='global' size-in-bits='64'>
          <parameter type-id='type-id-48' is-artificial='yes'/>
          <parameter type-id='type-id-22'/>
          <parameter type-id='type-id-22'/>
          <parameter type-id='type-id-22'/>
          <return type-id='type-id-14'/>
        </function-decl>
      </member-function>
      <member-function access='private'>
        <function-decl name='inDoEvalCoord2EM' mangled-name='_ZN22OpenGLSurfaceEvaluator16inDoEvalCoord2EMEff' filepath='libnurbs/interface/insurfeval.cc' line='1702' column='1' visibility='default' binding='global' size-in-bits='64'>
          <parameter type-id='type-id-48' is-artificial='yes'/>
          <parameter type-id='type-id-1'/>
          <parameter type-id='type-id-1'/>
          <return type-id='type-id-14'/>
        </function-decl>
      </member-function>
      <member-function access='private'>
        <function-decl name='inBPMEvalEM' mangled-name='_ZN22OpenGLSurfaceEvaluator11inBPMEvalEMEP15bezierPatchMesh' filepath='libnurbs/interface/insurfeval.cc' line='1826' column='1' visibility='default' binding='global' size-in-bits='64'>
          <parameter type-id='type-id-48' is-artificial='yes'/>
          <parameter type-id='type-id-54'/>
          <return type-id='type-id-14'/>
        </function-decl>
      </member-function>
      <member-function access='private'>
        <function-decl name='inBPMListEvalEM' mangled-name='_ZN22OpenGLSurfaceEvaluator15inBPMListEvalEMEP15bezierPatchMesh' filepath='libnurbs/interface/insurfeval.cc' line='2056' column='1' visibility='default' binding='global' size-in-bits='64'>
          <parameter type-id='type-id-48' is-artificial='yes'/>
          <parameter type-id='type-id-54'/>
          <return type-id='type-id-14'/>
        </function-decl>
      </member-function>
      <member-function access='private'>
        <function-decl name='inDoEvalCoord2' mangled-name='_ZN22OpenGLSurfaceEvaluator14inDoEvalCoord2EffPfS0_' filepath='libnurbs/interface/insurfeval.cc' line='541' column='1' visibility='default' binding='global' size-in-bits='64'>
          <parameter type-id='type-id-48' is-artificial='yes'/>
          <parameter type-id='type-id-1'/>
          <parameter type-id='type-id-1'/>
          <parameter type-id='type-id-22'/>
          <parameter type-id='type-id-22'/>
          <return type-id='type-id-14'/>
        </function-decl>
      </member-function>
      <member-function access='private'>
        <function-decl name='inEvalMesh2' mangled-name='_ZN22OpenGLSurfaceEvaluator11inEvalMesh2Eiiii' filepath='libnurbs/interface/insurfeval.cc' line='400' column='1' visibility='default' binding='global' size-in-bits='64'>
          <parameter type-id='type-id-48' is-artificial='yes'/>
          <parameter type-id='type-id-8'/>
          <parameter type-id='type-id-8'/>
          <parameter type-id='type-id-8'/>
          <parameter type-id='type-id-8'/>
          <return type-id='type-id-14'/>
        </function-decl>
      </member-function>
      <member-function access='private'>
        <function-decl name='inEvalCoord2f' mangled-name='_ZN22OpenGLSurfaceEvaluator13inEvalCoord2fEff' filepath='libnurbs/interface/insurfeval.cc' line='375' column='1' visibility='default' binding='global' size-in-bits='64'>
          <parameter type-id='type-id-48' is-artificial='yes'/>
          <parameter type-id='type-id-1'/>
          <parameter type-id='type-id-1'/>
          <return type-id='type-id-14'/>
        </function-decl>
      </member-function>
      <member-function access='private'>
        <function-decl name='inEvalPoint2' mangled-name='_ZN22OpenGLSurfaceEvaluator12inEvalPoint2Eii' filepath='libnurbs/interface/insurfeval.cc' line='362' column='1' visibility='default' binding='global' size-in-bits='64'>
          <parameter type-id='type-id-48' is-artificial='yes'/>
          <parameter type-id='type-id-8'/>
          <parameter type-id='type-id-8'/>
          <return type-id='type-id-14'/>
        </function-decl>
      </member-function>
      <member-function access='private'>
        <function-decl name='inMap2f' mangled-name='_ZN22OpenGLSurfaceEvaluator7inMap2fEiffiiffiiPf' filepath='libnurbs/interface/insurfeval.cc' line='444' column='1' visibility='default' binding='global' size-in-bits='64'>
          <parameter type-id='type-id-48' is-artificial='yes'/>
          <parameter type-id='type-id-8'/>
          <parameter type-id='type-id-1'/>
          <parameter type-id='type-id-1'/>
          <parameter type-id='type-id-8'/>
          <parameter type-id='type-id-8'/>
          <parameter type-id='type-id-1'/>
          <parameter type-id='type-id-1'/>
          <parameter type-id='type-id-8'/>
          <parameter type-id='type-id-8'/>
          <parameter type-id='type-id-22'/>
          <return type-id='type-id-14'/>
        </function-decl>
      </member-function>
      <member-function access='private'>
        <function-decl name='inBPMEval' mangled-name='_ZN22OpenGLSurfaceEvaluator9inBPMEvalEP15bezierPatchMesh' filepath='libnurbs/interface/insurfeval.cc' line='247' column='1' visibility='default' binding='global' size-in-bits='64'>
          <parameter type-id='type-id-48' is-artificial='yes'/>
          <parameter type-id='type-id-54'/>
          <return type-id='type-id-14'/>
        </function-decl>
      </member-function>
      <member-function access='private'>
        <function-decl name='inBPMListEval' mangled-name='_ZN22OpenGLSurfaceEvaluator13inBPMListEvalEP15bezierPatchMesh' filepath='libnurbs/interface/insurfeval.cc' line='238' column='1' visibility='default' binding='global' size-in-bits='64'>
          <parameter type-id='type-id-48' is-artificial='yes'/>
          <parameter type-id='type-id-54'/>
          <return type-id='type-id-14'/>
        </function-decl>
      </member-function>
      <member-function access='public' destructor='yes' vtable-offset='-1'>
        <function-decl name='~OpenGLSurfaceEvaluator' filepath='libnurbs/interface/glsurfeval.cc' line='162' column='1' visibility='default' binding='global' size-in-bits='64'>
          <parameter type-id='type-id-48' is-artificial='yes'/>
          <parameter type-id='type-id-8'/>
          <return type-id='type-id-14'/>
        </function-decl>
      </member-function>
      <member-function access='public' vtable-offset='9'>
        <function-decl name='range2f' mangled-name='_ZN22OpenGLSurfaceEvaluator7range2fElPfS0_' filepath='libnurbs/interface/glsurfeval.cc' line='258' column='1' visibility='default' binding='global' size-in-bits='64'>
          <parameter type-id='type-id-48' is-artificial='yes'/>
          <parameter type-id='type-id-38'/>
          <parameter type-id='type-id-22'/>
          <parameter type-id='type-id-22'/>
          <return type-id='type-id-14'/>
        </function-decl>
      </member-function>
      <member-function access='public' vtable-offset='10'>
        <function-decl name='domain2f' mangled-name='_ZN22OpenGLSurfaceEvaluator8domain2fEffff' filepath='libnurbs/interface/glsurfeval.cc' line='263' column='1' visibility='default' binding='global' size-in-bits='64'>
          <parameter type-id='type-id-48' is-artificial='yes'/>
          <parameter type-id='type-id-1'/>
          <parameter type-id='type-id-1'/>
          <parameter type-id='type-id-1'/>
          <parameter type-id='type-id-1'/>
          <return type-id='type-id-14'/>
        </function-decl>
      </member-function>
      <member-function access='public' vtable-offset='11'>
        <function-decl name='enable' mangled-name='_ZN22OpenGLSurfaceEvaluator6enableEl' filepath='libnurbs/interface/glsurfeval.cc' line='185' column='1' visibility='default' binding='global' size-in-bits='64'>
          <parameter type-id='type-id-48' is-artificial='yes'/>
          <parameter type-id='type-id-38'/>
          <return type-id='type-id-14'/>
        </function-decl>
      </member-function>
      <member-function access='public' vtable-offset='12'>
        <function-decl name='disable' mangled-name='_ZN22OpenGLSurfaceEvaluator7disableEl' filepath='libnurbs/interface/glsurfeval.cc' line='175' column='1' visibility='default' binding='global' size-in-bits='64'>
          <parameter type-id='type-id-48' is-artificial='yes'/>
          <parameter type-id='type-id-38'/>
          <return type-id='type-id-14'/>
        </function-decl>
      </member-function>
      <member-function access='public' vtable-offset='13'>
        <function-decl name='bgnmap2f' mangled-name='_ZN22OpenGLSurfaceEvaluator8bgnmap2fEl' filepath='libnurbs/interface/glsurfeval.cc' line='739' column='1' visibility='default' binding='global' size-in-bits='64'>
          <parameter type-id='type-id-48' is-artificial='yes'/>
          <parameter type-id='type-id-38'/>
          <return type-id='type-id-14'/>
        </function-decl>
      </member-function>
      <member-function access='public' vtable-offset='14'>
        <function-decl name='map2f' mangled-name='_ZN22OpenGLSurfaceEvaluator5map2fElffllffllPf' filepath='libnurbs/interface/glsurfeval.cc' line='872' column='1' visibility='default' binding='global' size-in-bits='64'>
          <parameter type-id='type-id-48' is-artificial='yes'/>
          <parameter type-id='type-id-38'/>
          <parameter type-id='type-id-1'/>
          <parameter type-id='type-id-1'/>
          <parameter type-id='type-id-38'/>
          <parameter type-id='type-id-38'/>
          <parameter type-id='type-id-1'/>
          <parameter type-id='type-id-1'/>
          <parameter type-id='type-id-38'/>
          <parameter type-id='type-id-38'/>
          <parameter type-id='type-id-22'/>
          <return type-id='type-id-14'/>
        </function-decl>
      </member-function>
      <member-function access='public' vtable-offset='15'>
        <function-decl name='mapgrid2f' mangled-name='_ZN22OpenGLSurfaceEvaluator9mapgrid2fElfflff' filepath='libnurbs/interface/glsurfeval.cc' line='195' column='1' visibility='default' binding='global' size-in-bits='64'>
          <parameter type-id='type-id-48' is-artificial='yes'/>
          <parameter type-id='type-id-38'/>
          <parameter type-id='type-id-1'/>
          <parameter type-id='type-id-1'/>
          <parameter type-id='type-id-38'/>
          <parameter type-id='type-id-1'/>
          <parameter type-id='type-id-1'/>
          <return type-id='type-id-14'/>
        </function-decl>
      </member-function>
      <member-function access='public' vtable-offset='16'>
        <function-decl name='mapmesh2f' mangled-name='_ZN22OpenGLSurfaceEvaluator9mapmesh2fElllll' filepath='libnurbs/interface/glsurfeval.cc' line='946' column='1' visibility='default' binding='global' size-in-bits='64'>
          <parameter type-id='type-id-48' is-artificial='yes'/>
          <parameter type-id='type-id-38'/>
          <parameter type-id='type-id-38'/>
          <parameter type-id='type-id-38'/>
          <parameter type-id='type-id-38'/>
          <parameter type-id='type-id-38'/>
          <return type-id='type-id-14'/>
        </function-decl>
      </member-function>
      <member-function access='public' vtable-offset='17'>
        <function-decl name='evalcoord2f' mangled-name='_ZN22OpenGLSurfaceEvaluator11evalcoord2fElff' filepath='libnurbs/interface/glsurfeval.cc' line='1042' column='1' visibility='default' binding='global' size-in-bits='64'>
          <parameter type-id='type-id-48' is-artificial='yes'/>
          <parameter type-id='type-id-38'/>
          <parameter type-id='type-id-1'/>
          <parameter type-id='type-id-1'/>
          <return type-id='type-id-14'/>
        </function-decl>
      </member-function>
      <member-function access='public' vtable-offset='18'>
        <function-decl name='evalpoint2i' mangled-name='_ZN22OpenGLSurfaceEvaluator11evalpoint2iEll' filepath='libnurbs/interface/glsurfeval.cc' line='1059' column='1' visibility='default' binding='global' size-in-bits='64'>
          <parameter type-id='type-id-48' is-artificial='yes'/>
          <parameter type-id='type-id-38'/>
          <parameter type-id='type-id-38'/>
          <return type-id='type-id-14'/>
        </function-decl>
      </member-function>
      <member-function access='public' vtable-offset='19'>
        <function-decl name='endmap2f' mangled-name='_ZN22OpenGLSurfaceEvaluator8endmap2fEv' filepath='libnurbs/interface/glsurfeval.cc' line='801' column='1' visibility='default' binding='global' size-in-bits='64'>
          <parameter type-id='type-id-48' is-artificial='yes'/>
          <return type-id='type-id-14'/>
        </function-decl>
      </member-function>
      <member-function access='public' vtable-offset='20'>
        <function-decl name='polymode' mangled-name='_ZN22OpenGLSurfaceEvaluator8polymodeEl' filepath='libnurbs/interface/glsurfeval.cc' line='219' column='1' visibility='default' binding='global' size-in-bits='64'>
          <parameter type-id='type-id-48' is-artificial='yes'/>
          <parameter type-id='type-id-38'/>
          <return type-id='type-id-14'/>
        </function-decl>
      </member-function>
      <member-function access='public' vtable-offset='21'>
        <function-decl name='bgnline' mangled-name='_ZN22OpenGLSurfaceEvaluator7bgnlineEv' filepath='libnurbs/interface/glsurfeval.cc' line='240' column='1' visibility='default' binding='global' size-in-bits='64'>
          <parameter type-id='type-id-48' is-artificial='yes'/>
          <return type-id='type-id-14'/>
        </function-decl>
      </member-function>
      <member-function access='public' vtable-offset='22'>
        <function-decl name='endline' mangled-name='_ZN22OpenGLSurfaceEvaluator7endlineEv' filepath='libnurbs/interface/glsurfeval.cc' line='249' column='1' visibility='default' binding='global' size-in-bits='64'>
          <parameter type-id='type-id-48' is-artificial='yes'/>
          <return type-id='type-id-14'/>
        </function-decl>
      </member-function>
      <member-function access='public' vtable-offset='23'>
        <function-decl name='bgnclosedline' mangled-name='_ZN22OpenGLSurfaceEvaluator13bgnclosedlineEv' filepath='libnurbs/interface/glsurfeval.cc' line='268' column='1' visibility='default' binding='global' size-in-bits='64'>
          <parameter type-id='type-id-48' is-artificial='yes'/>
          <return type-id='type-id-14'/>
        </function-decl>
      </member-function>
      <member-function access='public' vtable-offset='24'>
        <function-decl name='endclosedline' mangled-name='_ZN22OpenGLSurfaceEvaluator13endclosedlineEv' filepath='libnurbs/interface/glsurfeval.cc' line='277' column='1' visibility='default' binding='global' size-in-bits='64'>
          <parameter type-id='type-id-48' is-artificial='yes'/>
          <return type-id='type-id-14'/>
        </function-decl>
      </member-function>
      <member-function access='public' vtable-offset='25'>
        <function-decl name='bgntmesh' mangled-name='_ZN22OpenGLSurfaceEvaluator8bgntmeshEv' filepath='libnurbs/interface/glsurfeval.cc' line='290' column='1' visibility='default' binding='global' size-in-bits='64'>
          <parameter type-id='type-id-48' is-artificial='yes'/>
          <return type-id='type-id-14'/>
        </function-decl>
      </member-function>
      <member-function access='public' vtable-offset='26'>
        <function-decl name='swaptmesh' mangled-name='_ZN22OpenGLSurfaceEvaluator9swaptmeshEv' filepath='libnurbs/interface/glsurfeval.cc' line='305' column='1' visibility='default' binding='global' size-in-bits='64'>
          <parameter type-id='type-id-48' is-artificial='yes'/>
          <return type-id='type-id-14'/>
        </function-decl>
      </member-function>
      <member-function access='public' vtable-offset='27'>
        <function-decl name='endtmesh' mangled-name='_ZN22OpenGLSurfaceEvaluator8endtmeshEv' filepath='libnurbs/interface/glsurfeval.cc' line='312' column='1' visibility='default' binding='global' size-in-bits='64'>
          <parameter type-id='type-id-48' is-artificial='yes'/>
          <return type-id='type-id-14'/>
        </function-decl>
      </member-function>
      <member-function access='public' vtable-offset='28'>
        <function-decl name='bgnqstrip' mangled-name='_ZN22OpenGLSurfaceEvaluator9bgnqstripEv' filepath='libnurbs/interface/glsurfeval.cc' line='712' column='1' visibility='default' binding='global' size-in-bits='64'>
          <parameter type-id='type-id-48' is-artificial='yes'/>
          <return type-id='type-id-14'/>
        </function-decl>
      </member-function>
      <member-function access='public' vtable-offset='29'>
        <function-decl name='endqstrip' mangled-name='_ZN22OpenGLSurfaceEvaluator9endqstripEv' filepath='libnurbs/interface/glsurfeval.cc' line='725' column='1' visibility='default' binding='global' size-in-bits='64'>
          <parameter type-id='type-id-48' is-artificial='yes'/>
          <return type-id='type-id-14'/>
        </function-decl>
      </member-function>
      <member-function access='public' vtable-offset='30'>
        <function-decl name='bgntfan' mangled-name='_ZN22OpenGLSurfaceEvaluator7bgntfanEv' filepath='libnurbs/interface/glsurfeval.cc' line='324' column='1' visibility='default' binding='global' size-in-bits='64'>
          <parameter type-id='type-id-48' is-artificial='yes'/>
          <return type-id='type-id-14'/>
        </function-decl>
      </member-function>
      <member-function access='public' vtable-offset='31'>
        <function-decl name='endtfan' mangled-name='_ZN22OpenGLSurfaceEvaluator7endtfanEv' filepath='libnurbs/interface/glsurfeval.cc' line='334' column='1' visibility='default' binding='global' size-in-bits='64'>
          <parameter type-id='type-id-48' is-artificial='yes'/>
          <return type-id='type-id-14'/>
        </function-decl>
      </member-function>
      <member-function access='public' vtable-offset='32'>
        <function-decl name='evalUStrip' mangled-name='_ZN22OpenGLSurfaceEvaluator10evalUStripEifPfifS0_' filepath='libnurbs/interface/glsurfeval.cc' line='343' column='1' visibility='default' binding='global' size-in-bits='64'>
          <parameter type-id='type-id-48' is-artificial='yes'/>
          <parameter type-id='type-id-8'/>
          <parameter type-id='type-id-1'/>
          <parameter type-id='type-id-22'/>
          <parameter type-id='type-id-8'/>
          <parameter type-id='type-id-1'/>
          <parameter type-id='type-id-22'/>
          <return type-id='type-id-14'/>
        </function-decl>
      </member-function>
      <member-function access='public' vtable-offset='33'>
        <function-decl name='evalVStrip' mangled-name='_ZN22OpenGLSurfaceEvaluator10evalVStripEifPfifS0_' filepath='libnurbs/interface/glsurfeval.cc' line='530' column='1' visibility='default' binding='global' size-in-bits='64'>
          <parameter type-id='type-id-48' is-artificial='yes'/>
          <parameter type-id='type-id-8'/>
          <parameter type-id='type-id-1'/>
          <parameter type-id='type-id-22'/>
          <parameter type-id='type-id-8'/>
          <parameter type-id='type-id-1'/>
          <parameter type-id='type-id-22'/>
          <return type-id='type-id-14'/>
        </function-decl>
      </member-function>
      <member-function access='private' vtable-offset='34'>
        <function-decl name='inDoEvalCoord2NOGE' mangled-name='_ZN22OpenGLSurfaceEvaluator18inDoEvalCoord2NOGEEffPfS0_' filepath='libnurbs/interface/glsurfeval.h' line='283' column='1' visibility='default' binding='global' size-in-bits='64'>
          <parameter type-id='type-id-48' is-artificial='yes'/>
          <parameter type-id='type-id-1'/>
          <parameter type-id='type-id-1'/>
          <parameter type-id='type-id-22'/>
          <parameter type-id='type-id-22'/>
          <return type-id='type-id-14'/>
        </function-decl>
      </member-function>
      <member-function access='private' vtable-offset='35'>
        <function-decl name='inDoEvalCoord2NOGE_BU' mangled-name='_ZN22OpenGLSurfaceEvaluator21inDoEvalCoord2NOGE_BUEffPfS0_' filepath='libnurbs/interface/glsurfeval.h' line='342' column='1' visibility='default' binding='global' size-in-bits='64'>
          <parameter type-id='type-id-48' is-artificial='yes'/>
          <parameter type-id='type-id-1'/>
          <parameter type-id='type-id-1'/>
          <parameter type-id='type-id-22'/>
          <parameter type-id='type-id-22'/>
          <return type-id='type-id-14'/>
        </function-decl>
      </member-function>
      <member-function access='private' vtable-offset='36'>
        <function-decl name='inDoEvalCoord2NOGE_BV' mangled-name='_ZN22OpenGLSurfaceEvaluator21inDoEvalCoord2NOGE_BVEffPfS0_' filepath='libnurbs/interface/glsurfeval.h' line='339' column='1' visibility='default' binding='global' size-in-bits='64'>
          <parameter type-id='type-id-48' is-artificial='yes'/>
          <parameter type-id='type-id-1'/>
          <parameter type-id='type-id-1'/>
          <parameter type-id='type-id-22'/>
          <parameter type-id='type-id-22'/>
          <return type-id='type-id-14'/>
        </function-decl>
      </member-function>
      <member-function access='private' vtable-offset='37'>
        <function-decl name='inPreEvaluateBV_intfac' mangled-name='_ZN22OpenGLSurfaceEvaluator22inPreEvaluateBV_intfacEf' filepath='libnurbs/interface/glsurfeval.h' line='316' column='1' visibility='default' binding='global' size-in-bits='64'>
          <parameter type-id='type-id-48' is-artificial='yes'/>
          <parameter type-id='type-id-1'/>
          <return type-id='type-id-14'/>
        </function-decl>
      </member-function>
      <member-function access='private' vtable-offset='38'>
        <function-decl name='inPreEvaluateBU_intfac' mangled-name='_ZN22OpenGLSurfaceEvaluator22inPreEvaluateBU_intfacEf' filepath='libnurbs/interface/glsurfeval.h' line='321' column='1' visibility='default' binding='global' size-in-bits='64'>
          <parameter type-id='type-id-48' is-artificial='yes'/>
          <parameter type-id='type-id-1'/>
          <return type-id='type-id-14'/>
        </function-decl>
      </member-function>
    </class-decl>
  </abi-instr>
  <abi-instr address-size='64' path='libnurbs/interface/glrenderer.cc' comp-dir-path='/tmp/legendre/spack-stage/spack-stage-T0fsxk/Mesa-8.0.5/src/glu/sgi' language='LANG_C_plus_plus'>
    <array-type-def dimensions='1' type-id='type-id-23' size-in-bits='128' id='type-id-60'>
      <subrange length='4' type-id='type-id-3' id='type-id-61'/>
    </array-type-def>
    <typedef-decl name='errorCallbackType' type-id='type-id-31' filepath='libnurbs/interface/glrenderer.h' line='46' column='1' id='type-id-41'/>
    <pointer-type-def type-id='type-id-60' size-in-bits='64' id='type-id-46'/>
    <class-decl name='NurbsTessellator' visibility='default' filepath='libnurbs/internals/nurbstess.h' line='53' column='1' is-declaration-only='yes' id='type-id-40'>
      <data-member access='protected' layout-offset-in-bits='64'>
        <var-decl name='renderhints' type-id='type-id-62' visibility='default' filepath='libnurbs/internals/nurbstess.h' line='104' column='1'/>
      </data-member>
      <data-member access='protected' layout-offset-in-bits='320'>
        <var-decl name='maplist' type-id='type-id-63' visibility='default' filepath='libnurbs/internals/nurbstess.h' line='105' column='1'/>
      </data-member>
      <data-member access='protected' layout-offset-in-bits='3008'>
        <var-decl name='backend' type-id='type-id-64' visibility='default' filepath='libnurbs/internals/nurbstess.h' line='106' column='1'/>
      </data-member>
      <data-member access='private' layout-offset-in-bits='3648'>
        <var-decl name='subdivider' type-id='type-id-65' visibility='default' filepath='libnurbs/internals/nurbstess.h' line='134' column='1'/>
      </data-member>
      <data-member access='private' layout-offset-in-bits='24064'>
        <var-decl name='jumpbuffer' type-id='type-id-66' visibility='default' filepath='libnurbs/internals/nurbstess.h' line='135' column='1'/>
      </data-member>
      <data-member access='private' layout-offset-in-bits='24128'>
        <var-decl name='o_pwlcurvePool' type-id='type-id-67' visibility='default' filepath='libnurbs/internals/nurbstess.h' line='136' column='1'/>
      </data-member>
      <data-member access='private' layout-offset-in-bits='26624'>
        <var-decl name='o_nurbscurvePool' type-id='type-id-67' visibility='default' filepath='libnurbs/internals/nurbstess.h' line='137' column='1'/>
      </data-member>
      <data-member access='private' layout-offset-in-bits='29120'>
        <var-decl name='o_curvePool' type-id='type-id-67' visibility='default' filepath='libnurbs/internals/nurbstess.h' line='138' column='1'/>
      </data-member>
      <data-member access='private' layout-offset-in-bits='31616'>
        <var-decl name='o_trimPool' type-id='type-id-67' visibility='default' filepath='libnurbs/internals/nurbstess.h' line='139' column='1'/>
      </data-member>
      <data-member access='private' layout-offset-in-bits='34112'>
        <var-decl name='o_surfacePool' type-id='type-id-67' visibility='default' filepath='libnurbs/internals/nurbstess.h' line='140' column='1'/>
      </data-member>
      <data-member access='private' layout-offset-in-bits='36608'>
        <var-decl name='o_nurbssurfacePool' type-id='type-id-67' visibility='default' filepath='libnurbs/internals/nurbstess.h' line='141' column='1'/>
      </data-member>
      <data-member access='private' layout-offset-in-bits='39104'>
        <var-decl name='propertyPool' type-id='type-id-67' visibility='default' filepath='libnurbs/internals/nurbstess.h' line='142' column='1'/>
      </data-member>
      <data-member access='private' layout-offset-in-bits='41600'>
        <var-decl name='quiltPool' type-id='type-id-67' visibility='default' filepath='libnurbs/internals/nurbstess.h' line='144' column='1'/>
      </data-member>
      <data-member access='private' layout-offset-in-bits='44096'>
        <var-decl name='extTrimVertexPool' type-id='type-id-68' visibility='default' filepath='libnurbs/internals/nurbstess.h' line='146' column='1'/>
      </data-member>
      <data-member access='private' layout-offset-in-bits='46720'>
        <var-decl name='inSurface' type-id='type-id-8' visibility='default' filepath='libnurbs/internals/nurbstess.h' line='148' column='1'/>
      </data-member>
      <data-member access='private' layout-offset-in-bits='46752'>
        <var-decl name='inCurve' type-id='type-id-8' visibility='default' filepath='libnurbs/internals/nurbstess.h' line='149' column='1'/>
      </data-member>
      <data-member access='private' layout-offset-in-bits='46784'>
        <var-decl name='inTrim' type-id='type-id-8' visibility='default' filepath='libnurbs/internals/nurbstess.h' line='150' column='1'/>
      </data-member>
      <data-member access='private' layout-offset-in-bits='46816'>
        <var-decl name='isCurveModified' type-id='type-id-8' visibility='default' filepath='libnurbs/internals/nurbstess.h' line='151' column='1'/>
      </data-member>
      <data-member access='private' layout-offset-in-bits='46848'>
        <var-decl name='isTrimModified' type-id='type-id-8' visibility='default' filepath='libnurbs/internals/nurbstess.h' line='152' column='1'/>
      </data-member>
      <data-member access='private' layout-offset-in-bits='46880'>
        <var-decl name='isSurfaceModified' type-id='type-id-8' visibility='default' filepath='libnurbs/internals/nurbstess.h' line='153' column='1'/>
      </data-member>
      <data-member access='private' layout-offset-in-bits='46912'>
        <var-decl name='isDataValid' type-id='type-id-8' visibility='default' filepath='libnurbs/internals/nurbstess.h' line='154' column='1'/>
      </data-member>
      <data-member access='private' layout-offset-in-bits='46944'>
        <var-decl name='numTrims' type-id='type-id-8' visibility='default' filepath='libnurbs/internals/nurbstess.h' line='155' column='1'/>
      </data-member>
      <data-member access='private' layout-offset-in-bits='46976'>
        <var-decl name='playBack' type-id='type-id-8' visibility='default' filepath='libnurbs/internals/nurbstess.h' line='156' column='1'/>
      </data-member>
      <data-member access='private' layout-offset-in-bits='47040'>
        <var-decl name='nextTrim' type-id='type-id-69' visibility='default' filepath='libnurbs/internals/nurbstess.h' line='158' column='1'/>
      </data-member>
      <data-member access='private' layout-offset-in-bits='47104'>
        <var-decl name='nextCurve' type-id='type-id-70' visibility='default' filepath='libnurbs/internals/nurbstess.h' line='159' column='1'/>
      </data-member>
      <data-member access='private' layout-offset-in-bits='47168'>
        <var-decl name='nextNurbscurve' type-id='type-id-71' visibility='default' filepath='libnurbs/internals/nurbstess.h' line='160' column='1'/>
      </data-member>
      <data-member access='private' layout-offset-in-bits='47232'>
        <var-decl name='nextPwlcurve' type-id='type-id-72' visibility='default' filepath='libnurbs/internals/nurbstess.h' line='161' column='1'/>
      </data-member>
      <data-member access='private' layout-offset-in-bits='47296'>
        <var-decl name='nextNurbssurface' type-id='type-id-73' visibility='default' filepath='libnurbs/internals/nurbstess.h' line='162' column='1'/>
      </data-member>
      <data-member access='private' layout-offset-in-bits='47360'>
        <var-decl name='currentSurface' type-id='type-id-74' visibility='default' filepath='libnurbs/internals/nurbstess.h' line='164' column='1'/>
      </data-member>
      <data-member access='private' layout-offset-in-bits='47424'>
        <var-decl name='currentTrim' type-id='type-id-75' visibility='default' filepath='libnurbs/internals/nurbstess.h' line='165' column='1'/>
      </data-member>
      <data-member access='private' layout-offset-in-bits='47488'>
        <var-decl name='currentCurve' type-id='type-id-76' visibility='default' filepath='libnurbs/internals/nurbstess.h' line='166' column='1'/>
      </data-member>
      <data-member access='private' layout-offset-in-bits='47552'>
        <var-decl name='dl' type-id='type-id-77' visibility='default' filepath='libnurbs/internals/nurbstess.h' line='168' column='1'/>
      </data-member>
      <member-function access='private' constructor='yes'>
        <function-decl name='NurbsTessellator' filepath='libnurbs/internals/nurbsinterfac.cc' line='66' column='1' visibility='default' binding='global' size-in-bits='64'>
          <parameter type-id='type-id-78' is-artificial='yes'/>
          <parameter type-id='type-id-79'/>
          <parameter type-id='type-id-80'/>
          <return type-id='type-id-14'/>
        </function-decl>
      </member-function>
      <member-function access='private'>
        <function-decl name='playRecording' mangled-name='_ZN16NurbsTessellator13playRecordingEPv' filepath='libnurbs/internals/nurbsinterfac.cc' line='529' column='1' visibility='default' binding='global' size-in-bits='64'>
          <parameter type-id='type-id-78' is-artificial='yes'/>
          <parameter type-id='type-id-35'/>
          <return type-id='type-id-14'/>
        </function-decl>
      </member-function>
      <member-function access='private'>
        <function-decl name='endRecording' mangled-name='_ZN16NurbsTessellator12endRecordingEv' filepath='libnurbs/internals/nurbsinterfac.cc' line='522' column='1' visibility='default' binding='global' size-in-bits='64'>
          <parameter type-id='type-id-78' is-artificial='yes'/>
          <return type-id='type-id-14'/>
        </function-decl>
      </member-function>
      <member-function access='private'>
        <function-decl name='beginRecording' mangled-name='_ZN16NurbsTessellator14beginRecordingEv' filepath='libnurbs/internals/nurbsinterfac.cc' line='515' column='1' visibility='default' binding='global' size-in-bits='64'>
          <parameter type-id='type-id-78' is-artificial='yes'/>
          <return type-id='type-id-35'/>
        </function-decl>
      </member-function>
      <member-function access='private'>
        <function-decl name='discardRecording' mangled-name='_ZN16NurbsTessellator16discardRecordingEPv' filepath='libnurbs/internals/nurbsinterfac.cc' line='509' column='1' visibility='default' binding='global' size-in-bits='64'>
          <parameter type-id='type-id-78' is-artificial='yes'/>
          <parameter type-id='type-id-35'/>
          <return type-id='type-id-14'/>
        </function-decl>
      </member-function>
      <member-function access='private'>
        <function-decl name='defineMap' mangled-name='_ZN16NurbsTessellator9defineMapElll' filepath='libnurbs/internals/nurbsinterfac.cc' line='503' column='1' visibility='default' binding='global' size-in-bits='64'>
          <parameter type-id='type-id-78' is-artificial='yes'/>
          <parameter type-id='type-id-38'/>
          <parameter type-id='type-id-38'/>
          <parameter type-id='type-id-38'/>
          <return type-id='type-id-14'/>
        </function-decl>
      </member-function>
      <member-function access='private'>
        <function-decl name='redefineMaps' mangled-name='_ZN16NurbsTessellator12redefineMapsEv' filepath='libnurbs/internals/nurbsinterfac.cc' line='497' column='1' visibility='default' binding='global' size-in-bits='64'>
          <parameter type-id='type-id-78' is-artificial='yes'/>
          <return type-id='type-id-14'/>
        </function-decl>
      </member-function>
      <member-function access='private'>
        <function-decl name='setnurbsproperty' mangled-name='_ZN16NurbsTessellator16setnurbspropertyEllPfll' filepath='libnurbs/internals/nurbsinterfac.cc' line='474' column='1' visibility='default' binding='global' size-in-bits='64'>
          <parameter type-id='type-id-78' is-artificial='yes'/>
          <parameter type-id='type-id-38'/>
          <parameter type-id='type-id-38'/>
          <parameter type-id='type-id-49'/>
          <parameter type-id='type-id-38'/>
          <parameter type-id='type-id-38'/>
          <return type-id='type-id-14'/>
        </function-decl>
      </member-function>
      <member-function access='private'>
        <function-decl name='setnurbsproperty' mangled-name='_ZN16NurbsTessellator16setnurbspropertyEllPf' filepath='libnurbs/internals/nurbsinterfac.cc' line='451' column='1' visibility='default' binding='global' size-in-bits='64'>
          <parameter type-id='type-id-78' is-artificial='yes'/>
          <parameter type-id='type-id-38'/>
          <parameter type-id='type-id-38'/>
          <parameter type-id='type-id-49'/>
          <return type-id='type-id-14'/>
        </function-decl>
      </member-function>
      <member-function access='private'>
        <function-decl name='getnurbsproperty' mangled-name='_ZN16NurbsTessellator16getnurbspropertyEllPf' filepath='libnurbs/internals/nurbsinterfac.cc' line='431' column='1' visibility='default' binding='global' size-in-bits='64'>
          <parameter type-id='type-id-78' is-artificial='yes'/>
          <parameter type-id='type-id-38'/>
          <parameter type-id='type-id-38'/>
          <parameter type-id='type-id-49'/>
          <return type-id='type-id-14'/>
        </function-decl>
      </member-function>
      <member-function access='private'>
        <function-decl name='getnurbsproperty' mangled-name='_ZN16NurbsTessellator16getnurbspropertyElPf' filepath='libnurbs/internals/nurbsinterfac.cc' line='415' column='1' visibility='default' binding='global' size-in-bits='64'>
          <parameter type-id='type-id-78' is-artificial='yes'/>
          <parameter type-id='type-id-38'/>
          <parameter type-id='type-id-49'/>
          <return type-id='type-id-14'/>
        </function-decl>
      </member-function>
      <member-function access='private'>
        <function-decl name='endtrim' mangled-name='_ZN16NurbsTessellator7endtrimEv' filepath='libnurbs/internals/nurbsinterfac.cc' line='179' column='1' visibility='default' binding='global' size-in-bits='64'>
          <parameter type-id='type-id-78' is-artificial='yes'/>
          <return type-id='type-id-14'/>
        </function-decl>
      </member-function>
      <member-function access='private'>
        <function-decl name='endsurface' mangled-name='_ZN16NurbsTessellator10endsurfaceEv' filepath='libnurbs/internals/nurbsinterfac.cc' line='153' column='1' visibility='default' binding='global' size-in-bits='64'>
          <parameter type-id='type-id-78' is-artificial='yes'/>
          <return type-id='type-id-14'/>
        </function-decl>
      </member-function>
      <member-function access='private'>
        <function-decl name='endcurve' mangled-name='_ZN16NurbsTessellator8endcurveEv' filepath='libnurbs/internals/nurbsinterfac.cc' line='141' column='1' visibility='default' binding='global' size-in-bits='64'>
          <parameter type-id='type-id-78' is-artificial='yes'/>
          <return type-id='type-id-14'/>
        </function-decl>
      </member-function>
      <member-function access='private'>
        <function-decl name='bgnsurface' mangled-name='_ZN16NurbsTessellator10bgnsurfaceEl' filepath='libnurbs/internals/nurbsinterfac.cc' line='113' column='1' visibility='default' binding='global' size-in-bits='64'>
          <parameter type-id='type-id-78' is-artificial='yes'/>
          <parameter type-id='type-id-38'/>
          <return type-id='type-id-14'/>
        </function-decl>
      </member-function>
      <member-function access='private'>
        <function-decl name='bgntrim' mangled-name='_ZN16NurbsTessellator7bgntrimEv' filepath='libnurbs/internals/nurbsinterfac.cc' line='166' column='1' visibility='default' binding='global' size-in-bits='64'>
          <parameter type-id='type-id-78' is-artificial='yes'/>
          <return type-id='type-id-14'/>
        </function-decl>
      </member-function>
      <member-function access='private'>
        <function-decl name='bgncurve' mangled-name='_ZN16NurbsTessellator8bgncurveEl' filepath='libnurbs/internals/nurbsinterfac.cc' line='127' column='1' visibility='default' binding='global' size-in-bits='64'>
          <parameter type-id='type-id-78' is-artificial='yes'/>
          <parameter type-id='type-id-38'/>
          <return type-id='type-id-14'/>
        </function-decl>
      </member-function>
      <member-function access='private'>
        <function-decl name='setnurbsproperty' mangled-name='_ZN16NurbsTessellator16setnurbspropertyElf' filepath='libnurbs/internals/nurbsinterfac.cc' line='373' column='1' visibility='default' binding='global' size-in-bits='64'>
          <parameter type-id='type-id-78' is-artificial='yes'/>
          <parameter type-id='type-id-38'/>
          <parameter type-id='type-id-15'/>
          <return type-id='type-id-14'/>
        </function-decl>
      </member-function>
      <member-function access='private'>
        <function-decl name='pwlcurve' mangled-name='_ZN16NurbsTessellator8pwlcurveElPfll' filepath='libnurbs/internals/nurbsinterfac.cc' line='197' column='1' visibility='default' binding='global' size-in-bits='64'>
          <parameter type-id='type-id-78' is-artificial='yes'/>
          <parameter type-id='type-id-38'/>
          <parameter type-id='type-id-49'/>
          <parameter type-id='type-id-38'/>
          <parameter type-id='type-id-38'/>
          <return type-id='type-id-14'/>
        </function-decl>
      </member-function>
      <member-function access='private'>
        <function-decl name='setnurbsproperty' mangled-name='_ZN16NurbsTessellator16setnurbspropertyEllf' filepath='libnurbs/internals/nurbsinterfac.cc' line='389' column='1' visibility='default' binding='global' size-in-bits='64'>
          <parameter type-id='type-id-78' is-artificial='yes'/>
          <parameter type-id='type-id-38'/>
          <parameter type-id='type-id-38'/>
          <parameter type-id='type-id-15'/>
          <return type-id='type-id-14'/>
        </function-decl>
      </member-function>
      <member-function access='private'>
        <function-decl name='nurbscurve' mangled-name='_ZN16NurbsTessellator10nurbscurveElPflS0_ll' filepath='libnurbs/internals/nurbsinterfac.cc' line='269' column='1' visibility='default' binding='global' size-in-bits='64'>
          <parameter type-id='type-id-78' is-artificial='yes'/>
          <parameter type-id='type-id-38'/>
          <parameter type-id='type-id-49'/>
          <parameter type-id='type-id-38'/>
          <parameter type-id='type-id-49'/>
          <parameter type-id='type-id-38'/>
          <parameter type-id='type-id-38'/>
          <return type-id='type-id-14'/>
        </function-decl>
      </member-function>
      <member-function access='private'>
        <function-decl name='nurbssurface' mangled-name='_ZN16NurbsTessellator12nurbssurfaceElPflS0_llS0_lll' filepath='libnurbs/internals/nurbsinterfac.cc' line='318' column='1' visibility='default' binding='global' size-in-bits='64'>
          <parameter type-id='type-id-78' is-artificial='yes'/>
          <parameter type-id='type-id-38'/>
          <parameter type-id='type-id-49'/>
          <parameter type-id='type-id-38'/>
          <parameter type-id='type-id-49'/>
          <parameter type-id='type-id-38'/>
          <parameter type-id='type-id-38'/>
          <parameter type-id='type-id-49'/>
          <parameter type-id='type-id-38'/>
          <parameter type-id='type-id-38'/>
          <parameter type-id='type-id-38'/>
          <return type-id='type-id-14'/>
        </function-decl>
      </member-function>
      <member-function access='private'>
        <function-decl name='do_freenurbsproperty' mangled-name='_ZN16NurbsTessellator20do_freenurbspropertyEP8Property' filepath='libnurbs/internals/nurbstess.cc' line='636' column='1' visibility='default' binding='global' size-in-bits='64'>
          <parameter type-id='type-id-78' is-artificial='yes'/>
          <parameter type-id='type-id-81'/>
          <return type-id='type-id-14'/>
        </function-decl>
      </member-function>
      <member-function access='private'>
        <function-decl name='do_freepwlcurve' mangled-name='_ZN16NurbsTessellator15do_freepwlcurveEP10O_pwlcurve' filepath='libnurbs/internals/nurbstess.cc' line='450' column='1' visibility='default' binding='global' size-in-bits='64'>
          <parameter type-id='type-id-78' is-artificial='yes'/>
          <parameter type-id='type-id-82'/>
          <return type-id='type-id-14'/>
        </function-decl>
      </member-function>
      <member-function access='private'>
        <function-decl name='do_freebgncurve' mangled-name='_ZN16NurbsTessellator15do_freebgncurveEP7O_curve' filepath='libnurbs/internals/nurbstess.cc' line='456' column='1' visibility='default' binding='global' size-in-bits='64'>
          <parameter type-id='type-id-78' is-artificial='yes'/>
          <parameter type-id='type-id-76'/>
          <return type-id='type-id-14'/>
        </function-decl>
      </member-function>
      <member-function access='private'>
        <function-decl name='do_freebgntrim' mangled-name='_ZN16NurbsTessellator14do_freebgntrimEP6O_trim' filepath='libnurbs/internals/nurbstess.cc' line='376' column='1' visibility='default' binding='global' size-in-bits='64'>
          <parameter type-id='type-id-78' is-artificial='yes'/>
          <parameter type-id='type-id-75'/>
          <return type-id='type-id-14'/>
        </function-decl>
      </member-function>
      <member-function access='private'>
        <function-decl name='do_freebgnsurface' mangled-name='_ZN16NurbsTessellator17do_freebgnsurfaceEP9O_surface' filepath='libnurbs/internals/nurbstess.cc' line='115' column='1' visibility='default' binding='global' size-in-bits='64'>
          <parameter type-id='type-id-78' is-artificial='yes'/>
          <parameter type-id='type-id-74'/>
          <return type-id='type-id-14'/>
        </function-decl>
      </member-function>
      <member-function access='private'>
        <function-decl name='resetObjects' mangled-name='_ZN16NurbsTessellator12resetObjectsEv' filepath='libnurbs/internals/nurbstess.cc' line='71' column='1' visibility='default' binding='global' size-in-bits='64'>
          <parameter type-id='type-id-78' is-artificial='yes'/>
          <return type-id='type-id-14'/>
        </function-decl>
      </member-function>
      <member-function access='private'>
        <function-decl name='set_domain_distance_u_rate' mangled-name='_ZN16NurbsTessellator26set_domain_distance_u_rateEf' filepath='libnurbs/internals/nurbstess.cc' line='53' column='1' visibility='default' binding='global' size-in-bits='64'>
          <parameter type-id='type-id-78' is-artificial='yes'/>
          <parameter type-id='type-id-1'/>
          <return type-id='type-id-14'/>
        </function-decl>
      </member-function>
      <member-function access='private'>
        <function-decl name='set_domain_distance_v_rate' mangled-name='_ZN16NurbsTessellator26set_domain_distance_v_rateEf' filepath='libnurbs/internals/nurbstess.cc' line='59' column='1' visibility='default' binding='global' size-in-bits='64'>
          <parameter type-id='type-id-78' is-artificial='yes'/>
          <parameter type-id='type-id-1'/>
          <return type-id='type-id-14'/>
        </function-decl>
      </member-function>
      <member-function access='private'>
        <function-decl name='set_is_domain_distance_sampling' mangled-name='_ZN16NurbsTessellator31set_is_domain_distance_samplingEi' filepath='libnurbs/internals/nurbstess.cc' line='65' column='1' visibility='default' binding='global' size-in-bits='64'>
          <parameter type-id='type-id-78' is-artificial='yes'/>
          <parameter type-id='type-id-8' is-artificial='yes'/>
          <return type-id='type-id-14'/>
        </function-decl>
      </member-function>
      <member-function access='private'>
        <function-decl name='do_nurbserror' mangled-name='_ZN16NurbsTessellator13do_nurbserrorEi' filepath='libnurbs/internals/nurbstess.cc' line='672' column='1' visibility='default' binding='global' size-in-bits='64'>
          <parameter type-id='type-id-78' is-artificial='yes'/>
          <parameter type-id='type-id-8' is-artificial='yes'/>
          <return type-id='type-id-14'/>
        </function-decl>
      </member-function>
      <member-function access='private'>
        <function-decl name='do_endtrim' mangled-name='_ZN16NurbsTessellator10do_endtrimEv' filepath='libnurbs/internals/nurbstess.cc' line='422' column='1' visibility='default' binding='global' size-in-bits='64'>
          <parameter type-id='type-id-78' is-artificial='yes'/>
          <return type-id='type-id-14'/>
        </function-decl>
      </member-function>
      <member-function access='private'>
        <function-decl name='do_check_knots' mangled-name='_ZN16NurbsTessellator14do_check_knotsEP10KnotvectorPKc' filepath='libnurbs/internals/nurbstess.cc' line='678' column='1' visibility='default' binding='global' size-in-bits='64'>
          <parameter type-id='type-id-78' is-artificial='yes'/>
          <parameter type-id='type-id-83'/>
          <parameter type-id='type-id-84'/>
          <return type-id='type-id-8'/>
        </function-decl>
      </member-function>
      <member-function access='private'>
        <function-decl name='do_setnurbsproperty2' mangled-name='_ZN16NurbsTessellator20do_setnurbsproperty2EP8Property' filepath='libnurbs/internals/nurbstess.cc' line='657' column='1' visibility='default' binding='global' size-in-bits='64'>
          <parameter type-id='type-id-78' is-artificial='yes'/>
          <parameter type-id='type-id-81'/>
          <return type-id='type-id-14'/>
        </function-decl>
      </member-function>
      <member-function access='private'>
        <function-decl name='do_setnurbsproperty' mangled-name='_ZN16NurbsTessellator19do_setnurbspropertyEP8Property' filepath='libnurbs/internals/nurbstess.cc' line='649' column='1' visibility='default' binding='global' size-in-bits='64'>
          <parameter type-id='type-id-78' is-artificial='yes'/>
          <parameter type-id='type-id-81'/>
          <return type-id='type-id-14'/>
        </function-decl>
      </member-function>
      <member-function access='private'>
        <function-decl name='do_nurbssurface' mangled-name='_ZN16NurbsTessellator15do_nurbssurfaceEP14O_nurbssurface' filepath='libnurbs/internals/nurbstess.cc' line='598' column='1' visibility='default' binding='global' size-in-bits='64'>
          <parameter type-id='type-id-78' is-artificial='yes'/>
          <parameter type-id='type-id-85'/>
          <return type-id='type-id-14'/>
        </function-decl>
      </member-function>
      <member-function access='private'>
        <function-decl name='do_bgnsurface' mangled-name='_ZN16NurbsTessellator13do_bgnsurfaceEP9O_surface' filepath='libnurbs/internals/nurbstess.cc' line='128' column='1' visibility='default' binding='global' size-in-bits='64'>
          <parameter type-id='type-id-78' is-artificial='yes'/>
          <parameter type-id='type-id-74'/>
          <return type-id='type-id-14'/>
        </function-decl>
      </member-function>
      <member-function access='private'>
        <function-decl name='do_freenurbssurface' mangled-name='_ZN16NurbsTessellator19do_freenurbssurfaceEP14O_nurbssurface' filepath='libnurbs/internals/nurbstess.cc' line='585' column='1' visibility='default' binding='global' size-in-bits='64'>
          <parameter type-id='type-id-78' is-artificial='yes'/>
          <parameter type-id='type-id-85'/>
          <return type-id='type-id-14'/>
        </function-decl>
      </member-function>
      <member-function access='private'>
        <function-decl name='do_freenurbscurve' mangled-name='_ZN16NurbsTessellator17do_freenurbscurveEP12O_nurbscurve' filepath='libnurbs/internals/nurbstess.cc' line='520' column='1' visibility='default' binding='global' size-in-bits='64'>
          <parameter type-id='type-id-78' is-artificial='yes'/>
          <parameter type-id='type-id-86'/>
          <return type-id='type-id-14'/>
        </function-decl>
      </member-function>
      <member-function access='private'>
        <function-decl name='do_freecurveall' mangled-name='_ZN16NurbsTessellator15do_freecurveallEP7O_curve' filepath='libnurbs/internals/nurbstess.cc' line='341' column='1' visibility='default' binding='global' size-in-bits='64'>
          <parameter type-id='type-id-78' is-artificial='yes'/>
          <parameter type-id='type-id-76'/>
          <return type-id='type-id-14'/>
        </function-decl>
      </member-function>
      <member-function access='private'>
        <function-decl name='do_freeall' mangled-name='_ZN16NurbsTessellator10do_freeallEv' filepath='libnurbs/internals/nurbstess.cc' line='315' column='1' visibility='default' binding='global' size-in-bits='64'>
          <parameter type-id='type-id-78' is-artificial='yes'/>
          <return type-id='type-id-14'/>
        </function-decl>
      </member-function>
      <member-function access='private'>
        <function-decl name='do_nurbscurve' mangled-name='_ZN16NurbsTessellator13do_nurbscurveEP12O_nurbscurve' filepath='libnurbs/internals/nurbstess.cc' line='534' column='1' visibility='default' binding='global' size-in-bits='64'>
          <parameter type-id='type-id-78' is-artificial='yes'/>
          <parameter type-id='type-id-86'/>
          <return type-id='type-id-14'/>
        </function-decl>
      </member-function>
      <member-function access='private'>
        <function-decl name='do_pwlcurve' mangled-name='_ZN16NurbsTessellator11do_pwlcurveEP10O_pwlcurve' filepath='libnurbs/internals/nurbstess.cc' line='468' column='1' visibility='default' binding='global' size-in-bits='64'>
          <parameter type-id='type-id-78' is-artificial='yes'/>
          <parameter type-id='type-id-82'/>
          <return type-id='type-id-14'/>
        </function-decl>
      </member-function>
      <member-function access='private'>
        <function-decl name='do_bgncurve' mangled-name='_ZN16NurbsTessellator11do_bgncurveEP7O_curve' filepath='libnurbs/internals/nurbstess.cc' line='154' column='1' visibility='default' binding='global' size-in-bits='64'>
          <parameter type-id='type-id-78' is-artificial='yes'/>
          <parameter type-id='type-id-76'/>
          <return type-id='type-id-14'/>
        </function-decl>
      </member-function>
      <member-function access='private'>
        <function-decl name='do_bgntrim' mangled-name='_ZN16NurbsTessellator10do_bgntrimEP6O_trim' filepath='libnurbs/internals/nurbstess.cc' line='389' column='1' visibility='default' binding='global' size-in-bits='64'>
          <parameter type-id='type-id-78' is-artificial='yes'/>
          <parameter type-id='type-id-75'/>
          <return type-id='type-id-14'/>
        </function-decl>
      </member-function>
      <member-function access='private'>
        <function-decl name='do_endsurface' mangled-name='_ZN16NurbsTessellator13do_endsurfaceEv' filepath='libnurbs/internals/nurbstess.cc' line='239' column='1' visibility='default' binding='global' size-in-bits='64'>
          <parameter type-id='type-id-78' is-artificial='yes'/>
          <return type-id='type-id-14'/>
        </function-decl>
      </member-function>
      <member-function access='private'>
        <function-decl name='do_endcurve' mangled-name='_ZN16NurbsTessellator11do_endcurveEv' filepath='libnurbs/internals/nurbstess.cc' line='187' column='1' visibility='default' binding='global' size-in-bits='64'>
          <parameter type-id='type-id-78' is-artificial='yes'/>
          <return type-id='type-id-14'/>
        </function-decl>
      </member-function>
      <member-function access='private' destructor='yes' vtable-offset='-1'>
        <function-decl name='~NurbsTessellator' filepath='libnurbs/internals/nurbsinterfac.cc' line='88' column='1' visibility='default' binding='global' size-in-bits='64'>
          <parameter type-id='type-id-78' is-artificial='yes'/>
          <parameter type-id='type-id-8' is-artificial='yes'/>
          <return type-id='type-id-14'/>
        </function-decl>
      </member-function>
      <member-function access='private' vtable-offset='2'>
        <function-decl name='bgnrender' mangled-name='_ZN16NurbsTessellator9bgnrenderEv' filepath='libnurbs/internals/nurbstess.h' line='67' column='1' visibility='default' binding='global' size-in-bits='64'>
          <parameter type-id='type-id-78' is-artificial='yes'/>
          <return type-id='type-id-14'/>
        </function-decl>
      </member-function>
      <member-function access='private' vtable-offset='3'>
        <function-decl name='endrender' mangled-name='_ZN16NurbsTessellator9endrenderEv' filepath='libnurbs/internals/nurbstess.h' line='68' column='1' visibility='default' binding='global' size-in-bits='64'>
          <parameter type-id='type-id-78' is-artificial='yes'/>
          <return type-id='type-id-14'/>
        </function-decl>
      </member-function>
      <member-function access='private' vtable-offset='4'>
        <function-decl name='makeobj' mangled-name='_ZN16NurbsTessellator7makeobjEi' filepath='libnurbs/internals/nurbstess.h' line='71' column='1' visibility='default' binding='global' size-in-bits='64'>
          <parameter type-id='type-id-78' is-artificial='yes'/>
          <parameter type-id='type-id-8' is-artificial='yes'/>
          <return type-id='type-id-14'/>
        </function-decl>
      </member-function>
      <member-function access='private' vtable-offset='5'>
        <function-decl name='closeobj' mangled-name='_ZN16NurbsTessellator8closeobjEv' filepath='libnurbs/internals/nurbstess.h' line='72' column='1' visibility='default' binding='global' size-in-bits='64'>
          <parameter type-id='type-id-78' is-artificial='yes'/>
          <return type-id='type-id-14'/>
        </function-decl>
      </member-function>
      <member-function access='private' vtable-offset='6'>
        <function-decl name='errorHandler' mangled-name='_ZN16NurbsTessellator12errorHandlerEi' filepath='libnurbs/internals/nurbstess.h' line='75' column='1' visibility='default' binding='global' size-in-bits='64'>
          <parameter type-id='type-id-78' is-artificial='yes'/>
          <parameter type-id='type-id-8' is-artificial='yes'/>
          <return type-id='type-id-14'/>
        </function-decl>
      </member-function>
    </class-decl>
  </abi-instr>
  <abi-instr address-size='64' path='libnurbs/interface/glsurfeval.cc' comp-dir-path='/tmp/legendre/spack-stage/spack-stage-T0fsxk/Mesa-8.0.5/src/glu/sgi' language='LANG_C_plus_plus'>
    <array-type-def dimensions='1' type-id='type-id-50' size-in-bits='64' id='type-id-53'>
      <subrange length='2' type-id='type-id-3' id='type-id-87'/>
    </array-type-def>
    <array-type-def dimensions='1' type-id='type-id-1' size-in-bits='64' id='type-id-88'>
      <subrange length='2' type-id='type-id-3' id='type-id-87'/>
    </array-type-def>
    <array-type-def dimensions='1' type-id='type-id-1' size-in-bits='96' id='type-id-89'>
      <subrange length='3' type-id='type-id-3' id='type-id-90'/>
    </array-type-def>
    <array-type-def dimensions='2' type-id='type-id-1' size-in-bits='5120' id='type-id-55'>
      <subrange length='40' type-id='type-id-3' id='type-id-6'/>
      <subrange length='4' type-id='type-id-3' id='type-id-61'/>
    </array-type-def>
    <array-type-def dimensions='1' type-id='type-id-1' size-in-bits='204800' id='type-id-56'>
      <subrange length='6400' type-id='type-id-3' id='type-id-91'/>
    </array-type-def>
    <array-type-def dimensions='1' type-id='type-id-92' size-in-bits='192' id='type-id-52'>
      <subrange length='3' type-id='type-id-3' id='type-id-90'/>
    </array-type-def>
    <array-type-def dimensions='1' type-id='type-id-38' size-in-bits='128' id='type-id-93'>
      <subrange length='2' type-id='type-id-3' id='type-id-87'/>
    </array-type-def>
    <class-decl name='bezierPatch' size-in-bits='384' is-struct='yes' visibility='default' filepath='libnurbs/interface/bezierPatch.h' line='36' column='1' id='type-id-94'>
      <data-member access='public' layout-offset-in-bits='0'>
        <var-decl name='umin' type-id='type-id-15' visibility='default' filepath='libnurbs/interface/bezierPatch.h' line='37' column='1'/>
      </data-member>
      <data-member access='public' layout-offset-in-bits='32'>
        <var-decl name='vmin' type-id='type-id-15' visibility='default' filepath='libnurbs/interface/bezierPatch.h' line='37' column='1'/>
      </data-member>
      <data-member access='public' layout-offset-in-bits='64'>
        <var-decl name='umax' type-id='type-id-15' visibility='default' filepath='libnurbs/interface/bezierPatch.h' line='37' column='1'/>
      </data-member>
      <data-member access='public' layout-offset-in-bits='96'>
        <var-decl name='vmax' type-id='type-id-15' visibility='default' filepath='libnurbs/interface/bezierPatch.h' line='37' column='1'/>
      </data-member>
      <data-member access='public' layout-offset-in-bits='128'>
        <var-decl name='uorder' type-id='type-id-8' visibility='default' filepath='libnurbs/interface/bezierPatch.h' line='38' column='1'/>
      </data-member>
      <data-member access='public' layout-offset-in-bits='160'>
        <var-decl name='vorder' type-id='type-id-8' visibility='default' filepath='libnurbs/interface/bezierPatch.h' line='39' column='1'/>
      </data-member>
      <data-member access='public' layout-offset-in-bits='192'>
        <var-decl name='dimension' type-id='type-id-8' visibility='default' filepath='libnurbs/interface/bezierPatch.h' line='57' column='1'/>
      </data-member>
      <data-member access='public' layout-offset-in-bits='256'>
        <var-decl name='ctlpoints' type-id='type-id-49' visibility='default' filepath='libnurbs/interface/bezierPatch.h' line='58' column='1'/>
      </data-member>
      <data-member access='public' layout-offset-in-bits='320'>
        <var-decl name='next' type-id='type-id-95' visibility='default' filepath='libnurbs/interface/bezierPatch.h' line='63' column='1'/>
      </data-member>
    </class-decl>
    <typedef-decl name='bezierPatch' type-id='type-id-94' filepath='libnurbs/interface/bezierPatch.h' line='65' column='1' id='type-id-96'/>
    <class-decl name='bezierPatchMesh' size-in-bits='960' is-struct='yes' visibility='default' filepath='libnurbs/interface/bezierPatchMesh.h' line='39' column='1' id='type-id-97'>
      <data-member access='public' layout-offset-in-bits='0'>
        <var-decl name='bpatch' type-id='type-id-95' visibility='default' filepath='libnurbs/interface/bezierPatchMesh.h' line='40' column='1'/>
      </data-member>
      <data-member access='public' layout-offset-in-bits='64'>
        <var-decl name='bpatch_normal' type-id='type-id-95' visibility='default' filepath='libnurbs/interface/bezierPatchMesh.h' line='41' column='1'/>
      </data-member>
      <data-member access='public' layout-offset-in-bits='128'>
        <var-decl name='bpatch_texcoord' type-id='type-id-95' visibility='default' filepath='libnurbs/interface/bezierPatchMesh.h' line='42' column='1'/>
      </data-member>
      <data-member access='public' layout-offset-in-bits='192'>
        <var-decl name='bpatch_color' type-id='type-id-95' visibility='default' filepath='libnurbs/interface/bezierPatchMesh.h' line='43' column='1'/>
      </data-member>
      <data-member access='public' layout-offset-in-bits='256'>
        <var-decl name='UVarray' type-id='type-id-49' visibility='default' filepath='libnurbs/interface/bezierPatchMesh.h' line='45' column='1'/>
      </data-member>
      <data-member access='public' layout-offset-in-bits='320'>
        <var-decl name='length_array' type-id='type-id-98' visibility='default' filepath='libnurbs/interface/bezierPatchMesh.h' line='46' column='1'/>
      </data-member>
      <data-member access='public' layout-offset-in-bits='384'>
        <var-decl name='type_array' type-id='type-id-99' visibility='default' filepath='libnurbs/interface/bezierPatchMesh.h' line='47' column='1'/>
      </data-member>
      <data-member access='public' layout-offset-in-bits='448'>
        <var-decl name='size_UVarray' type-id='type-id-8' visibility='default' filepath='libnurbs/interface/bezierPatchMesh.h' line='50' column='1'/>
      </data-member>
      <data-member access='public' layout-offset-in-bits='480'>
        <var-decl name='index_UVarray' type-id='type-id-8' visibility='default' filepath='libnurbs/interface/bezierPatchMesh.h' line='51' column='1'/>
      </data-member>
      <data-member access='public' layout-offset-in-bits='512'>
        <var-decl name='size_length_array' type-id='type-id-8' visibility='default' filepath='libnurbs/interface/bezierPatchMesh.h' line='52' column='1'/>
      </data-member>
      <data-member access='public' layout-offset-in-bits='544'>
        <var-decl name='index_length_array' type-id='type-id-8' visibility='default' filepath='libnurbs/interface/bezierPatchMesh.h' line='53' column='1'/>
      </data-member>
      <data-member access='public' layout-offset-in-bits='576'>
        <var-decl name='counter' type-id='type-id-8' visibility='default' filepath='libnurbs/interface/bezierPatchMesh.h' line='55' column='1'/>
      </data-member>
      <data-member access='public' layout-offset-in-bits='608'>
        <var-decl name='type' type-id='type-id-36' visibility='default' filepath='libnurbs/interface/bezierPatchMesh.h' line='56' column='1'/>
      </data-member>
      <data-member access='public' layout-offset-in-bits='640'>
        <var-decl name='vertex_array' type-id='type-id-49' visibility='default' filepath='libnurbs/interface/bezierPatchMesh.h' line='59' column='1'/>
      </data-member>
      <data-member access='public' layout-offset-in-bits='704'>
        <var-decl name='normal_array' type-id='type-id-49' visibility='default' filepath='libnurbs/interface/bezierPatchMesh.h' line='60' column='1'/>
      </data-member>
      <data-member access='public' layout-offset-in-bits='768'>
        <var-decl name='color_array' type-id='type-id-49' visibility='default' filepath='libnurbs/interface/bezierPatchMesh.h' line='61' column='1'/>
      </data-member>
      <data-member access='public' layout-offset-in-bits='832'>
        <var-decl name='texcoord_array' type-id='type-id-49' visibility='default' filepath='libnurbs/interface/bezierPatchMesh.h' line='62' column='1'/>
      </data-member>
      <data-member access='public' layout-offset-in-bits='896'>
        <var-decl name='next' type-id='type-id-54' visibility='default' filepath='libnurbs/interface/bezierPatchMesh.h' line='65' column='1'/>
      </data-member>
    </class-decl>
    <typedef-decl name='bezierPatchMesh' type-id='type-id-97' filepath='libnurbs/interface/bezierPatchMesh.h' line='66' column='1' id='type-id-100'/>
    <class-decl name='surfEvalMachine' size-in-bits='210272' is-struct='yes' visibility='default' filepath='libnurbs/interface/glsurfeval.h' line='63' column='1' id='type-id-101'>
      <data-member access='public' layout-offset-in-bits='0'>
        <var-decl name='uprime' type-id='type-id-1' visibility='default' filepath='libnurbs/interface/glsurfeval.h' line='64' column='1'/>
      </data-member>
      <data-member access='public' layout-offset-in-bits='32'>
        <var-decl name='vprime' type-id='type-id-1' visibility='default' filepath='libnurbs/interface/glsurfeval.h' line='65' column='1'/>
      </data-member>
      <data-member access='public' layout-offset-in-bits='64'>
        <var-decl name='k' type-id='type-id-8' visibility='default' filepath='libnurbs/interface/glsurfeval.h' line='66' column='1'/>
      </data-member>
      <data-member access='public' layout-offset-in-bits='96'>
        <var-decl name='u1' type-id='type-id-1' visibility='default' filepath='libnurbs/interface/glsurfeval.h' line='67' column='1'/>
      </data-member>
      <data-member access='public' layout-offset-in-bits='128'>
        <var-decl name='u2' type-id='type-id-1' visibility='default' filepath='libnurbs/interface/glsurfeval.h' line='68' column='1'/>
      </data-member>
      <data-member access='public' layout-offset-in-bits='160'>
        <var-decl name='ustride' type-id='type-id-8' visibility='default' filepath='libnurbs/interface/glsurfeval.h' line='69' column='1'/>
      </data-member>
      <data-member access='public' layout-offset-in-bits='192'>
        <var-decl name='uorder' type-id='type-id-8' visibility='default' filepath='libnurbs/interface/glsurfeval.h' line='70' column='1'/>
      </data-member>
      <data-member access='public' layout-offset-in-bits='224'>
        <var-decl name='v1' type-id='type-id-1' visibility='default' filepath='libnurbs/interface/glsurfeval.h' line='71' column='1'/>
      </data-member>
      <data-member access='public' layout-offset-in-bits='256'>
        <var-decl name='v2' type-id='type-id-1' visibility='default' filepath='libnurbs/interface/glsurfeval.h' line='72' column='1'/>
      </data-member>
      <data-member access='public' layout-offset-in-bits='288'>
        <var-decl name='vstride' type-id='type-id-8' visibility='default' filepath='libnurbs/interface/glsurfeval.h' line='73' column='1'/>
      </data-member>
      <data-member access='public' layout-offset-in-bits='320'>
        <var-decl name='vorder' type-id='type-id-8' visibility='default' filepath='libnurbs/interface/glsurfeval.h' line='74' column='1'/>
      </data-member>
      <data-member access='public' layout-offset-in-bits='352'>
        <var-decl name='ctlPoints' type-id='type-id-56' visibility='default' filepath='libnurbs/interface/glsurfeval.h' line='75' column='1'/>
      </data-member>
      <data-member access='public' layout-offset-in-bits='205152'>
        <var-decl name='ucoeff' type-id='type-id-5' visibility='default' filepath='libnurbs/interface/glsurfeval.h' line='76' column='1'/>
      </data-member>
      <data-member access='public' layout-offset-in-bits='206432'>
        <var-decl name='vcoeff' type-id='type-id-5' visibility='default' filepath='libnurbs/interface/glsurfeval.h' line='77' column='1'/>
      </data-member>
      <data-member access='public' layout-offset-in-bits='207712'>
        <var-decl name='ucoeffDeriv' type-id='type-id-5' visibility='default' filepath='libnurbs/interface/glsurfeval.h' line='78' column='1'/>
      </data-member>
      <data-member access='public' layout-offset-in-bits='208992'>
        <var-decl name='vcoeffDeriv' type-id='type-id-5' visibility='default' filepath='libnurbs/interface/glsurfeval.h' line='79' column='1'/>
      </data-member>
    </class-decl>
    <typedef-decl name='surfEvalMachine' type-id='type-id-101' filepath='libnurbs/interface/glsurfeval.h' line='80' column='1' id='type-id-57'/>
    <class-decl name='StoredVertex' size-in-bits='256' visibility='default' filepath='libnurbs/interface/glsurfeval.h' line='84' column='1' id='type-id-102'>
      <data-member access='private' layout-offset-in-bits='0'>
        <var-decl name='type' type-id='type-id-8' visibility='default' filepath='libnurbs/interface/glsurfeval.h' line='95' column='1'/>
      </data-member>
      <data-member access='private' layout-offset-in-bits='32'>
        <var-decl name='coord' type-id='type-id-88' visibility='default' filepath='libnurbs/interface/glsurfeval.h' line='96' column='1'/>
      </data-member>
      <data-member access='private' layout-offset-in-bits='128'>
        <var-decl name='point' type-id='type-id-93' visibility='default' filepath='libnurbs/interface/glsurfeval.h' line='97' column='1'/>
      </data-member>
      <member-function access='private' constructor='yes'>
        <function-decl name='StoredVertex' filepath='libnurbs/interface/glsurfeval.h' line='86' column='1' visibility='default' binding='global' size-in-bits='64'>
          <parameter type-id='type-id-92' is-artificial='yes'/>
          <return type-id='type-id-14'/>
        </function-decl>
      </member-function>
      <member-function access='private' destructor='yes'>
        <function-decl name='~StoredVertex' filepath='libnurbs/interface/glsurfeval.h' line='87' column='1' visibility='default' binding='global' size-in-bits='64'>
          <parameter type-id='type-id-92' is-artificial='yes'/>
          <parameter type-id='type-id-8' is-artificial='yes'/>
          <return type-id='type-id-14'/>
        </function-decl>
      </member-function>
      <member-function access='private'>
        <function-decl name='saveEvalCoord' mangled-name='_ZN12StoredVertex13saveEvalCoordEff' filepath='libnurbs/interface/glsurfeval.h' line='88' column='1' visibility='default' binding='global' size-in-bits='64'>
          <parameter type-id='type-id-92' is-artificial='yes'/>
          <parameter type-id='type-id-1'/>
          <parameter type-id='type-id-1'/>
          <return type-id='type-id-14'/>
        </function-decl>
      </member-function>
      <member-function access='private'>
        <function-decl name='saveEvalPoint' mangled-name='_ZN12StoredVertex13saveEvalPointEll' filepath='libnurbs/interface/glsurfeval.h' line='90' column='1' visibility='default' binding='global' size-in-bits='64'>
          <parameter type-id='type-id-92' is-artificial='yes'/>
          <parameter type-id='type-id-38'/>
          <parameter type-id='type-id-38'/>
          <return type-id='type-id-14'/>
        </function-decl>
      </member-function>
      <member-function access='private'>
        <function-decl name='invoke' mangled-name='_ZN12StoredVertex6invokeEP22OpenGLSurfaceEvaluator' filepath='libnurbs/interface/glsurfeval.h' line='92' column='1' visibility='default' binding='global' size-in-bits='64'>
          <parameter type-id='type-id-92' is-artificial='yes'/>
          <parameter type-id='type-id-48'/>
          <return type-id='type-id-14'/>
        </function-decl>
      </member-function>
    </class-decl>
    <pointer-type-def type-id='type-id-51' size-in-bits='64' id='type-id-103'/>
    <pointer-type-def type-id='type-id-36' size-in-bits='64' id='type-id-99'/>
    <pointer-type-def type-id='type-id-89' size-in-bits='64' id='type-id-58'/>
    <pointer-type-def type-id='type-id-102' size-in-bits='64' id='type-id-92'/>
    <pointer-type-def type-id='type-id-104' size-in-bits='64' id='type-id-105'/>
    <pointer-type-def type-id='type-id-94' size-in-bits='64' id='type-id-95'/>
    <pointer-type-def type-id='type-id-97' size-in-bits='64' id='type-id-54'/>
    <pointer-type-def type-id='type-id-8' size-in-bits='64' id='type-id-98'/>
    <pointer-type-def type-id='type-id-57' size-in-bits='64' id='type-id-59'/>
    <class-decl name='SurfaceMap' is-struct='yes' visibility='default' is-declaration-only='yes' id='type-id-104'/>
    <class-decl name='BasicSurfaceEvaluator' is-struct='yes' visibility='default' filepath='libnurbs/internals/basicsurfeval.h' line='43' column='1' is-declaration-only='yes' id='type-id-51'>
      <base-class access='public' layout-offset-in-bits='0' type-id='type-id-10'/>
      <member-function access='public' destructor='yes' vtable-offset='-1'>
        <function-decl name='~BasicSurfaceEvaluator' filepath='libnurbs/internals/basicsurfeval.h' line='45' column='1' visibility='default' binding='global' size-in-bits='64'>
          <parameter type-id='type-id-103' is-artificial='yes'/>
          <parameter type-id='type-id-8' is-artificial='yes'/>
          <return type-id='type-id-14'/>
        </function-decl>
      </member-function>
      <member-function access='public' vtable-offset='9'>
        <function-decl name='range2f' mangled-name='_ZN21BasicSurfaceEvaluator7range2fElPfS0_' filepath='libnurbs/internals/basicsurfeval.cc' line='65' column='1' visibility='default' binding='global' size-in-bits='64'>
          <parameter type-id='type-id-103' is-artificial='yes'/>
          <parameter type-id='type-id-38'/>
          <parameter type-id='type-id-22'/>
          <parameter type-id='type-id-22'/>
          <return type-id='type-id-14'/>
        </function-decl>
      </member-function>
      <member-function access='public' vtable-offset='10'>
        <function-decl name='domain2f' mangled-name='_ZN21BasicSurfaceEvaluator8domain2fEffff' filepath='libnurbs/internals/basicsurfeval.cc' line='49' column='1' visibility='default' binding='global' size-in-bits='64'>
          <parameter type-id='type-id-103' is-artificial='yes'/>
          <parameter type-id='type-id-1'/>
          <parameter type-id='type-id-1'/>
          <parameter type-id='type-id-1'/>
          <parameter type-id='type-id-1'/>
          <return type-id='type-id-14'/>
        </function-decl>
      </member-function>
      <member-function access='public' vtable-offset='11'>
        <function-decl name='enable' mangled-name='_ZN21BasicSurfaceEvaluator6enableEl' filepath='libnurbs/internals/basicsurfeval.cc' line='74' column='1' visibility='default' binding='global' size-in-bits='64'>
          <parameter type-id='type-id-103' is-artificial='yes'/>
          <parameter type-id='type-id-38'/>
          <return type-id='type-id-14'/>
        </function-decl>
      </member-function>
      <member-function access='public' vtable-offset='12'>
        <function-decl name='disable' mangled-name='_ZN21BasicSurfaceEvaluator7disableEl' filepath='libnurbs/internals/basicsurfeval.cc' line='82' column='1' visibility='default' binding='global' size-in-bits='64'>
          <parameter type-id='type-id-103' is-artificial='yes'/>
          <parameter type-id='type-id-38'/>
          <return type-id='type-id-14'/>
        </function-decl>
      </member-function>
      <member-function access='public' vtable-offset='13'>
        <function-decl name='bgnmap2f' mangled-name='_ZN21BasicSurfaceEvaluator8bgnmap2fEl' filepath='libnurbs/internals/basicsurfeval.cc' line='90' column='1' visibility='default' binding='global' size-in-bits='64'>
          <parameter type-id='type-id-103' is-artificial='yes'/>
          <parameter type-id='type-id-38'/>
          <return type-id='type-id-14'/>
        </function-decl>
      </member-function>
      <member-function access='public' vtable-offset='14'>
        <function-decl name='map2f' mangled-name='_ZN21BasicSurfaceEvaluator5map2fElffllffllPf' filepath='libnurbs/internals/basicsurfeval.cc' line='106' column='1' visibility='default' binding='global' size-in-bits='64'>
          <parameter type-id='type-id-103' is-artificial='yes'/>
          <parameter type-id='type-id-38'/>
          <parameter type-id='type-id-1'/>
          <parameter type-id='type-id-1'/>
          <parameter type-id='type-id-38'/>
          <parameter type-id='type-id-38'/>
          <parameter type-id='type-id-1'/>
          <parameter type-id='type-id-1'/>
          <parameter type-id='type-id-38'/>
          <parameter type-id='type-id-38'/>
          <parameter type-id='type-id-22'/>
          <return type-id='type-id-14'/>
        </function-decl>
      </member-function>
      <member-function access='public' vtable-offset='15'>
        <function-decl name='mapgrid2f' mangled-name='_ZN21BasicSurfaceEvaluator9mapgrid2fElfflff' filepath='libnurbs/internals/basicsurfeval.cc' line='116' column='1' visibility='default' binding='global' size-in-bits='64'>
          <parameter type-id='type-id-103' is-artificial='yes'/>
          <parameter type-id='type-id-38'/>
          <parameter type-id='type-id-1'/>
          <parameter type-id='type-id-1'/>
          <parameter type-id='type-id-38'/>
          <parameter type-id='type-id-1'/>
          <parameter type-id='type-id-1'/>
          <return type-id='type-id-14'/>
        </function-decl>
      </member-function>
      <member-function access='public' vtable-offset='16'>
        <function-decl name='mapmesh2f' mangled-name='_ZN21BasicSurfaceEvaluator9mapmesh2fElllll' filepath='libnurbs/internals/basicsurfeval.cc' line='124' column='1' visibility='default' binding='global' size-in-bits='64'>
          <parameter type-id='type-id-103' is-artificial='yes'/>
          <parameter type-id='type-id-38'/>
          <parameter type-id='type-id-38'/>
          <parameter type-id='type-id-38'/>
          <parameter type-id='type-id-38'/>
          <parameter type-id='type-id-38'/>
          <return type-id='type-id-14'/>
        </function-decl>
      </member-function>
      <member-function access='public' vtable-offset='17'>
        <function-decl name='evalcoord2f' mangled-name='_ZN21BasicSurfaceEvaluator11evalcoord2fElff' filepath='libnurbs/internals/basicsurfeval.cc' line='132' column='1' visibility='default' binding='global' size-in-bits='64'>
          <parameter type-id='type-id-103' is-artificial='yes'/>
          <parameter type-id='type-id-38'/>
          <parameter type-id='type-id-1'/>
          <parameter type-id='type-id-1'/>
          <return type-id='type-id-14'/>
        </function-decl>
      </member-function>
      <member-function access='public' vtable-offset='18'>
        <function-decl name='evalpoint2i' mangled-name='_ZN21BasicSurfaceEvaluator11evalpoint2iEll' filepath='libnurbs/internals/basicsurfeval.cc' line='140' column='1' visibility='default' binding='global' size-in-bits='64'>
          <parameter type-id='type-id-103' is-artificial='yes'/>
          <parameter type-id='type-id-38'/>
          <parameter type-id='type-id-38'/>
          <return type-id='type-id-14'/>
        </function-decl>
      </member-function>
      <member-function access='public' vtable-offset='19'>
        <function-decl name='endmap2f' mangled-name='_ZN21BasicSurfaceEvaluator8endmap2fEv' filepath='libnurbs/internals/basicsurfeval.cc' line='98' column='1' visibility='default' binding='global' size-in-bits='64'>
          <parameter type-id='type-id-103' is-artificial='yes'/>
          <return type-id='type-id-14'/>
        </function-decl>
      </member-function>
      <member-function access='public' vtable-offset='20'>
        <function-decl name='polymode' mangled-name='_ZN21BasicSurfaceEvaluator8polymodeEl' filepath='libnurbs/internals/basicsurfeval.cc' line='57' column='1' visibility='default' binding='global' size-in-bits='64'>
          <parameter type-id='type-id-103' is-artificial='yes'/>
          <parameter type-id='type-id-38'/>
          <return type-id='type-id-14'/>
        </function-decl>
      </member-function>
      <member-function access='public' vtable-offset='21'>
        <function-decl name='bgnline' mangled-name='_ZN21BasicSurfaceEvaluator7bgnlineEv' filepath='libnurbs/internals/basicsurfeval.cc' line='148' column='1' visibility='default' binding='global' size-in-bits='64'>
          <parameter type-id='type-id-103' is-artificial='yes'/>
          <return type-id='type-id-14'/>
        </function-decl>
      </member-function>
      <member-function access='public' vtable-offset='22'>
        <function-decl name='endline' mangled-name='_ZN21BasicSurfaceEvaluator7endlineEv' filepath='libnurbs/internals/basicsurfeval.cc' line='156' column='1' visibility='default' binding='global' size-in-bits='64'>
          <parameter type-id='type-id-103' is-artificial='yes'/>
          <return type-id='type-id-14'/>
        </function-decl>
      </member-function>
      <member-function access='public' vtable-offset='23'>
        <function-decl name='bgnclosedline' mangled-name='_ZN21BasicSurfaceEvaluator13bgnclosedlineEv' filepath='libnurbs/internals/basicsurfeval.cc' line='164' column='1' visibility='default' binding='global' size-in-bits='64'>
          <parameter type-id='type-id-103' is-artificial='yes'/>
          <return type-id='type-id-14'/>
        </function-decl>
      </member-function>
      <member-function access='public' vtable-offset='24'>
        <function-decl name='endclosedline' mangled-name='_ZN21BasicSurfaceEvaluator13endclosedlineEv' filepath='libnurbs/internals/basicsurfeval.cc' line='172' column='1' visibility='default' binding='global' size-in-bits='64'>
          <parameter type-id='type-id-103' is-artificial='yes'/>
          <return type-id='type-id-14'/>
        </function-decl>
      </member-function>
      <member-function access='public' vtable-offset='25'>
        <function-decl name='bgntmesh' mangled-name='_ZN21BasicSurfaceEvaluator8bgntmeshEv' filepath='libnurbs/internals/basicsurfeval.cc' line='194' column='1' visibility='default' binding='global' size-in-bits='64'>
          <parameter type-id='type-id-103' is-artificial='yes'/>
          <return type-id='type-id-14'/>
        </function-decl>
      </member-function>
      <member-function access='public' vtable-offset='26'>
        <function-decl name='swaptmesh' mangled-name='_ZN21BasicSurfaceEvaluator9swaptmeshEv' filepath='libnurbs/internals/basicsurfeval.cc' line='202' column='1' visibility='default' binding='global' size-in-bits='64'>
          <parameter type-id='type-id-103' is-artificial='yes'/>
          <return type-id='type-id-14'/>
        </function-decl>
      </member-function>
      <member-function access='public' vtable-offset='27'>
        <function-decl name='endtmesh' mangled-name='_ZN21BasicSurfaceEvaluator8endtmeshEv' filepath='libnurbs/internals/basicsurfeval.cc' line='210' column='1' visibility='default' binding='global' size-in-bits='64'>
          <parameter type-id='type-id-103' is-artificial='yes'/>
          <return type-id='type-id-14'/>
        </function-decl>
      </member-function>
      <member-function access='public' vtable-offset='28'>
        <function-decl name='bgnqstrip' mangled-name='_ZN21BasicSurfaceEvaluator9bgnqstripEv' filepath='libnurbs/internals/basicsurfeval.cc' line='218' column='1' visibility='default' binding='global' size-in-bits='64'>
          <parameter type-id='type-id-103' is-artificial='yes'/>
          <return type-id='type-id-14'/>
        </function-decl>
      </member-function>
      <member-function access='public' vtable-offset='29'>
        <function-decl name='endqstrip' mangled-name='_ZN21BasicSurfaceEvaluator9endqstripEv' filepath='libnurbs/internals/basicsurfeval.cc' line='226' column='1' visibility='default' binding='global' size-in-bits='64'>
          <parameter type-id='type-id-103' is-artificial='yes'/>
          <return type-id='type-id-14'/>
        </function-decl>
      </member-function>
      <member-function access='public' vtable-offset='30'>
        <function-decl name='bgntfan' mangled-name='_ZN21BasicSurfaceEvaluator7bgntfanEv' filepath='libnurbs/internals/basicsurfeval.cc' line='180' column='1' visibility='default' binding='global' size-in-bits='64'>
          <parameter type-id='type-id-103' is-artificial='yes'/>
          <return type-id='type-id-14'/>
        </function-decl>
      </member-function>
      <member-function access='public' vtable-offset='31'>
        <function-decl name='endtfan' mangled-name='_ZN21BasicSurfaceEvaluator7endtfanEv' filepath='libnurbs/internals/basicsurfeval.cc' line='188' column='1' visibility='default' binding='global' size-in-bits='64'>
          <parameter type-id='type-id-103' is-artificial='yes'/>
          <return type-id='type-id-14'/>
        </function-decl>
      </member-function>
      <member-function access='public' vtable-offset='32'>
        <function-decl name='evalUStrip' mangled-name='_ZN21BasicSurfaceEvaluator10evalUStripEifPfifS0_' filepath='libnurbs/internals/basicsurfeval.h' line='75' column='1' visibility='default' binding='global' size-in-bits='64'>
          <parameter type-id='type-id-103' is-artificial='yes'/>
          <parameter type-id='type-id-8'/>
          <parameter type-id='type-id-1'/>
          <parameter type-id='type-id-22'/>
          <parameter type-id='type-id-8'/>
          <parameter type-id='type-id-1'/>
          <parameter type-id='type-id-22'/>
          <return type-id='type-id-14'/>
        </function-decl>
      </member-function>
      <member-function access='public' vtable-offset='33'>
        <function-decl name='evalVStrip' mangled-name='_ZN21BasicSurfaceEvaluator10evalVStripEifPfifS0_' filepath='libnurbs/internals/basicsurfeval.h' line='79' column='1' visibility='default' binding='global' size-in-bits='64'>
          <parameter type-id='type-id-103' is-artificial='yes'/>
          <parameter type-id='type-id-8'/>
          <parameter type-id='type-id-1'/>
          <parameter type-id='type-id-22'/>
          <parameter type-id='type-id-8'/>
          <parameter type-id='type-id-1'/>
          <parameter type-id='type-id-22'/>
          <return type-id='type-id-14'/>
        </function-decl>
      </member-function>
      <member-function access='public' vtable-offset='34'>
        <function-decl name='inDoEvalCoord2NOGE' mangled-name='_ZN21BasicSurfaceEvaluator18inDoEvalCoord2NOGEEffPfS0_' filepath='libnurbs/internals/basicsurfeval.h' line='82' column='1' visibility='default' binding='global' size-in-bits='64'>
          <parameter type-id='type-id-103' is-artificial='yes'/>
          <parameter type-id='type-id-1'/>
          <parameter type-id='type-id-1'/>
          <parameter type-id='type-id-22'/>
          <parameter type-id='type-id-22'/>
          <return type-id='type-id-14'/>
        </function-decl>
      </member-function>
      <member-function access='public' vtable-offset='35'>
        <function-decl name='inDoEvalCoord2NOGE_BU' mangled-name='_ZN21BasicSurfaceEvaluator21inDoEvalCoord2NOGE_BUEffPfS0_' filepath='libnurbs/internals/basicsurfeval.h' line='83' column='1' visibility='default' binding='global' size-in-bits='64'>
          <parameter type-id='type-id-103' is-artificial='yes'/>
          <parameter type-id='type-id-1'/>
          <parameter type-id='type-id-1'/>
          <parameter type-id='type-id-22'/>
          <parameter type-id='type-id-22'/>
          <return type-id='type-id-14'/>
        </function-decl>
      </member-function>
      <member-function access='public' vtable-offset='36'>
        <function-decl name='inDoEvalCoord2NOGE_BV' mangled-name='_ZN21BasicSurfaceEvaluator21inDoEvalCoord2NOGE_BVEffPfS0_' filepath='libnurbs/internals/basicsurfeval.h' line='84' column='1' visibility='default' binding='global' size-in-bits='64'>
          <parameter type-id='type-id-103' is-artificial='yes'/>
          <parameter type-id='type-id-1'/>
          <parameter type-id='type-id-1'/>
          <parameter type-id='type-id-22'/>
          <parameter type-id='type-id-22'/>
          <return type-id='type-id-14'/>
        </function-decl>
      </member-function>
      <member-function access='public' vtable-offset='37'>
        <function-decl name='inPreEvaluateBV_intfac' mangled-name='_ZN21BasicSurfaceEvaluator22inPreEvaluateBV_intfacEf' filepath='libnurbs/internals/basicsurfeval.h' line='85' column='1' visibility='default' binding='global' size-in-bits='64'>
          <parameter type-id='type-id-103' is-artificial='yes'/>
          <parameter type-id='type-id-1'/>
          <return type-id='type-id-14'/>
        </function-decl>
      </member-function>
      <member-function access='public' vtable-offset='38'>
        <function-decl name='inPreEvaluateBU_intfac' mangled-name='_ZN21BasicSurfaceEvaluator22inPreEvaluateBU_intfacEf' filepath='libnurbs/internals/basicsurfeval.h' line='86' column='1' visibility='default' binding='global' size-in-bits='64'>
          <parameter type-id='type-id-103' is-artificial='yes'/>
          <parameter type-id='type-id-1'/>
          <return type-id='type-id-14'/>
        </function-decl>
      </member-function>
    </class-decl>
  </abi-instr>
  <abi-instr address-size='64' path='libnurbs/interface/insurfeval.cc' comp-dir-path='/tmp/legendre/spack-stage/spack-stage-T0fsxk/Mesa-8.0.5/src/glu/sgi' language='LANG_C_plus_plus'>
  </abi-instr>
  <abi-instr address-size='64' path='libnurbs/internals/arc.cc' comp-dir-path='/tmp/legendre/spack-stage/spack-stage-T0fsxk/Mesa-8.0.5/src/glu/sgi' language='LANG_C_plus_plus'>
    <type-decl name='char' size-in-bits='8' id='type-id-106'/>
    <array-type-def dimensions='1' type-id='type-id-107' size-in-bits='2048' id='type-id-108'>
      <subrange length='32' type-id='type-id-3' id='type-id-109'/>
    </array-type-def>
    <typedef-decl name='size_t' type-id='type-id-3' filepath='/usr/lib/gcc/x86_64-redhat-linux/4.4.7/include/stddef.h' line='211' column='1' id='type-id-110'/>
    <typedef-decl name='Arc_ptr' type-id='type-id-111' filepath='libnurbs/internals/arc.h' line='50' column='1' id='type-id-112'/>
    <enum-decl name='arc_side' filepath='libnurbs/internals/arc.h' line='52' column='1' id='type-id-113'>
      <underlying-type type-id='type-id-12'/>
      <enumerator name='arc_none' value='0'/>
      <enumerator name='arc_right' value='1'/>
      <enumerator name='arc_top' value='2'/>
      <enumerator name='arc_left' value='3'/>
      <enumerator name='arc_bottom' value='4'/>
    </enum-decl>
    <class-decl name='Arc' size-in-bits='448' is-struct='yes' visibility='default' filepath='libnurbs/internals/arc.h' line='55' column='1' id='type-id-114'>
      <base-class access='public' layout-offset-in-bits='0' type-id='type-id-115'/>
      <data-member access='public' static='yes'>
        <var-decl name='bezier_tag' type-id='type-id-116' mangled-name='_ZN3Arc10bezier_tagE' visibility='default' filepath='libnurbs/internals/arc.h' line='58' column='1'/>
      </data-member>
      <data-member access='public' static='yes'>
        <var-decl name='arc_tag' type-id='type-id-116' mangled-name='_ZN3Arc7arc_tagE' visibility='default' filepath='libnurbs/internals/arc.h' line='59' column='1'/>
      </data-member>
      <data-member access='public' static='yes'>
        <var-decl name='tail_tag' type-id='type-id-116' mangled-name='_ZN3Arc8tail_tagE' visibility='default' filepath='libnurbs/internals/arc.h' line='60' column='1'/>
      </data-member>
      <data-member access='public' layout-offset-in-bits='0'>
        <var-decl name='prev' type-id='type-id-112' visibility='default' filepath='libnurbs/internals/arc.h' line='61' column='1'/>
      </data-member>
      <data-member access='public' layout-offset-in-bits='64'>
        <var-decl name='next' type-id='type-id-112' visibility='default' filepath='libnurbs/internals/arc.h' line='62' column='1'/>
      </data-member>
      <data-member access='public' layout-offset-in-bits='128'>
        <var-decl name='link' type-id='type-id-112' visibility='default' filepath='libnurbs/internals/arc.h' line='63' column='1'/>
      </data-member>
      <data-member access='public' layout-offset-in-bits='192'>
        <var-decl name='bezierArc' type-id='type-id-117' visibility='default' filepath='libnurbs/internals/arc.h' line='64' column='1'/>
      </data-member>
      <data-member access='public' layout-offset-in-bits='256'>
        <var-decl name='pwlArc' type-id='type-id-118' visibility='default' filepath='libnurbs/internals/arc.h' line='65' column='1'/>
      </data-member>
      <data-member access='public' layout-offset-in-bits='320'>
        <var-decl name='type' type-id='type-id-38' visibility='default' filepath='libnurbs/internals/arc.h' line='66' column='1'/>
      </data-member>
      <data-member access='public' layout-offset-in-bits='384'>
        <var-decl name='nuid' type-id='type-id-38' visibility='default' filepath='libnurbs/internals/arc.h' line='67' column='1'/>
      </data-member>
      <member-function access='public' constructor='yes'>
        <function-decl name='Arc' filepath='libnurbs/internals/arc.h' line='69' column='1' visibility='default' binding='global' size-in-bits='64'>
          <parameter type-id='type-id-111' is-artificial='yes'/>
          <parameter type-id='type-id-111'/>
          <parameter type-id='type-id-118'/>
          <return type-id='type-id-14'/>
        </function-decl>
      </member-function>
      <member-function access='public' constructor='yes'>
        <function-decl name='Arc' filepath='libnurbs/internals/arc.h' line='70' column='1' visibility='default' binding='global' size-in-bits='64'>
          <parameter type-id='type-id-111' is-artificial='yes'/>
          <parameter type-id='type-id-113'/>
          <parameter type-id='type-id-38'/>
          <return type-id='type-id-14'/>
        </function-decl>
      </member-function>
      <member-function access='public'>
        <function-decl name='clearside' mangled-name='_ZN3Arc9clearsideEv' filepath='libnurbs/internals/arc.h' line='94' column='1' visibility='default' binding='global' size-in-bits='64'>
          <parameter type-id='type-id-111' is-artificial='yes'/>
          <return type-id='type-id-14'/>
        </function-decl>
      </member-function>
      <member-function access='public'>
        <function-decl name='clearbezier' mangled-name='_ZN3Arc11clearbezierEv' filepath='libnurbs/internals/arc.h' line='85' column='1' visibility='default' binding='global' size-in-bits='64'>
          <parameter type-id='type-id-111' is-artificial='yes'/>
          <return type-id='type-id-14'/>
        </function-decl>
      </member-function>
      <member-function access='public'>
        <function-decl name='setside' mangled-name='_ZN3Arc7setsideE8arc_side' filepath='libnurbs/internals/arc.h' line='95' column='1' visibility='default' binding='global' size-in-bits='64'>
          <parameter type-id='type-id-111' is-artificial='yes'/>
          <parameter type-id='type-id-113'/>
          <return type-id='type-id-14'/>
        </function-decl>
      </member-function>
      <member-function access='public'>
        <function-decl name='tail' mangled-name='_ZN3Arc4tailEv' filepath='libnurbs/internals/arc.h' line='88' column='1' visibility='default' binding='global' size-in-bits='64'>
          <parameter type-id='type-id-111' is-artificial='yes'/>
          <return type-id='type-id-22'/>
        </function-decl>
      </member-function>
      <member-function access='public'>
        <function-decl name='rhead' mangled-name='_ZN3Arc5rheadEv' filepath='libnurbs/internals/arc.h' line='90' column='1' visibility='default' binding='global' size-in-bits='64'>
          <parameter type-id='type-id-111' is-artificial='yes'/>
          <return type-id='type-id-22'/>
        </function-decl>
      </member-function>
      <member-function access='public'>
        <function-decl name='show' mangled-name='_ZN3Arc4showEv' filepath='libnurbs/internals/arc.h' line='80' column='1' visibility='default' binding='global' size-in-bits='64'>
          <parameter type-id='type-id-111' is-artificial='yes'/>
          <return type-id='type-id-14'/>
        </function-decl>
      </member-function>
      <member-function access='public'>
        <function-decl name='isbezier' mangled-name='_ZN3Arc8isbezierEv' filepath='libnurbs/internals/arc.h' line='83' column='1' visibility='default' binding='global' size-in-bits='64'>
          <parameter type-id='type-id-111' is-artificial='yes'/>
          <return type-id='type-id-38'/>
        </function-decl>
      </member-function>
      <member-function access='public'>
        <function-decl name='makeSide' mangled-name='_ZN3Arc8makeSideEP6PwlArc8arc_side' filepath='libnurbs/internals/arc.h' line='81' column='1' visibility='default' binding='global' size-in-bits='64'>
          <parameter type-id='type-id-111' is-artificial='yes'/>
          <parameter type-id='type-id-118'/>
          <parameter type-id='type-id-113'/>
          <return type-id='type-id-14'/>
        </function-decl>
      </member-function>
      <member-function access='public'>
        <function-decl name='numpts' mangled-name='_ZN3Arc6numptsEv' filepath='libnurbs/internals/arc.h' line='76' column='1' visibility='default' binding='global' size-in-bits='64'>
          <parameter type-id='type-id-111' is-artificial='yes'/>
          <return type-id='type-id-8'/>
        </function-decl>
      </member-function>
      <member-function access='public'>
        <function-decl name='markverts' mangled-name='_ZN3Arc9markvertsEv' filepath='libnurbs/internals/arc.h' line='77' column='1' visibility='default' binding='global' size-in-bits='64'>
          <parameter type-id='type-id-111' is-artificial='yes'/>
          <return type-id='type-id-14'/>
        </function-decl>
      </member-function>
      <member-function access='public'>
        <function-decl name='getextrema' mangled-name='_ZN3Arc10getextremaEPPS_' filepath='libnurbs/internals/arc.h' line='78' column='1' visibility='default' binding='global' size-in-bits='64'>
          <parameter type-id='type-id-111' is-artificial='yes'/>
          <parameter type-id='type-id-119'/>
          <return type-id='type-id-14'/>
        </function-decl>
      </member-function>
      <member-function access='public'>
        <function-decl name='print' mangled-name='_ZN3Arc5printEv' filepath='libnurbs/internals/arc.h' line='79' column='1' visibility='default' binding='global' size-in-bits='64'>
          <parameter type-id='type-id-111' is-artificial='yes'/>
          <return type-id='type-id-14'/>
        </function-decl>
      </member-function>
      <member-function access='public'>
        <function-decl name='isDisconnected' mangled-name='_ZN3Arc14isDisconnectedEv' filepath='libnurbs/internals/arc.h' line='75' column='1' visibility='default' binding='global' size-in-bits='64'>
          <parameter type-id='type-id-111' is-artificial='yes'/>
          <return type-id='type-id-8'/>
        </function-decl>
      </member-function>
      <member-function access='public'>
        <function-decl name='check' mangled-name='_ZN3Arc5checkEv' filepath='libnurbs/internals/arc.h' line='73' column='1' visibility='default' binding='global' size-in-bits='64'>
          <parameter type-id='type-id-111' is-artificial='yes'/>
          <return type-id='type-id-8'/>
        </function-decl>
      </member-function>
      <member-function access='public'>
        <function-decl name='append' mangled-name='_ZN3Arc6appendEPS_' filepath='libnurbs/internals/arc.h' line='72' column='1' visibility='default' binding='global' size-in-bits='64'>
          <parameter type-id='type-id-111' is-artificial='yes'/>
          <parameter type-id='type-id-112'/>
          <return type-id='type-id-112'/>
        </function-decl>
      </member-function>
      <member-function access='public'>
        <function-decl name='getitail' mangled-name='_ZN3Arc8getitailEv' filepath='libnurbs/internals/arc.h' line='97' column='1' visibility='default' binding='global' size-in-bits='64'>
          <parameter type-id='type-id-111' is-artificial='yes'/>
          <return type-id='type-id-8'/>
        </function-decl>
      </member-function>
      <member-function access='public'>
        <function-decl name='head' mangled-name='_ZN3Arc4headEv' filepath='libnurbs/internals/arc.h' line='89' column='1' visibility='default' binding='global' size-in-bits='64'>
          <parameter type-id='type-id-111' is-artificial='yes'/>
          <return type-id='type-id-22'/>
        </function-decl>
      </member-function>
      <member-function access='public'>
        <function-decl name='setbezier' mangled-name='_ZN3Arc9setbezierEv' filepath='libnurbs/internals/arc.h' line='84' column='1' visibility='default' binding='global' size-in-bits='64'>
          <parameter type-id='type-id-111' is-artificial='yes'/>
          <return type-id='type-id-14'/>
        </function-decl>
      </member-function>
      <member-function access='public'>
        <function-decl name='setmark' mangled-name='_ZN3Arc7setmarkEv' filepath='libnurbs/internals/arc.h' line='92' column='1' visibility='default' binding='global' size-in-bits='64'>
          <parameter type-id='type-id-111' is-artificial='yes'/>
          <return type-id='type-id-14'/>
        </function-decl>
      </member-function>
      <member-function access='public'>
        <function-decl name='ismarked' mangled-name='_ZN3Arc8ismarkedEv' filepath='libnurbs/internals/arc.h' line='91' column='1' visibility='default' binding='global' size-in-bits='64'>
          <parameter type-id='type-id-111' is-artificial='yes'/>
          <return type-id='type-id-38'/>
        </function-decl>
      </member-function>
      <member-function access='public'>
        <function-decl name='clearmark' mangled-name='_ZN3Arc9clearmarkEv' filepath='libnurbs/internals/arc.h' line='93' column='1' visibility='default' binding='global' size-in-bits='64'>
          <parameter type-id='type-id-111' is-artificial='yes'/>
          <return type-id='type-id-14'/>
        </function-decl>
      </member-function>
      <member-function access='public'>
        <function-decl name='setitail' mangled-name='_ZN3Arc8setitailEv' filepath='libnurbs/internals/arc.h' line='98' column='1' visibility='default' binding='global' size-in-bits='64'>
          <parameter type-id='type-id-111' is-artificial='yes'/>
          <return type-id='type-id-14'/>
        </function-decl>
      </member-function>
      <member-function access='public'>
        <function-decl name='clearitail' mangled-name='_ZN3Arc10clearitailEv' filepath='libnurbs/internals/arc.h' line='99' column='1' visibility='default' binding='global' size-in-bits='64'>
          <parameter type-id='type-id-111' is-artificial='yes'/>
          <return type-id='type-id-14'/>
        </function-decl>
      </member-function>
      <member-function access='public'>
        <function-decl name='getside' mangled-name='_ZN3Arc7getsideEv' filepath='libnurbs/internals/arc.h' line='96' column='1' visibility='default' binding='global' size-in-bits='64'>
          <parameter type-id='type-id-111' is-artificial='yes'/>
          <return type-id='type-id-113'/>
        </function-decl>
      </member-function>
      <member-function access='public'>
        <function-decl name='isTessellated' mangled-name='_ZN3Arc13isTessellatedEv' filepath='libnurbs/internals/arc.h' line='82' column='1' visibility='default' binding='global' size-in-bits='64'>
          <parameter type-id='type-id-111' is-artificial='yes'/>
          <return type-id='type-id-8'/>
        </function-decl>
      </member-function>
    </class-decl>
    <class-decl name='Buffer' size-in-bits='64' visibility='default' filepath='libnurbs/internals/bufpool.h' line='45' column='1' id='type-id-120'>
      <data-member access='private' layout-offset-in-bits='0'>
        <var-decl name='next' type-id='type-id-121' visibility='default' filepath='libnurbs/internals/bufpool.h' line='47' column='1'/>
      </data-member>
    </class-decl>
    <class-decl name='Pool' size-in-bits='2496' visibility='default' filepath='libnurbs/internals/bufpool.h' line='50' column='1' id='type-id-67'>
      <member-type access='protected'>
        <enum-decl name='Magic' filepath='libnurbs/internals/bufpool.h' line='70' column='1' id='type-id-122'>
          <underlying-type type-id='type-id-12'/>
          <enumerator name='is_allocated' value='62369'/>
          <enumerator name='is_free' value='61858'/>
        </enum-decl>
      </member-type>
      <data-member access='protected' layout-offset-in-bits='0'>
        <var-decl name='freelist' type-id='type-id-121' visibility='default' filepath='libnurbs/internals/bufpool.h' line='62' column='1'/>
      </data-member>
      <data-member access='protected' layout-offset-in-bits='64'>
        <var-decl name='blocklist' type-id='type-id-108' visibility='default' filepath='libnurbs/internals/bufpool.h' line='63' column='1'/>
      </data-member>
      <data-member access='protected' layout-offset-in-bits='2112'>
        <var-decl name='nextblock' type-id='type-id-8' visibility='default' filepath='libnurbs/internals/bufpool.h' line='64' column='1'/>
      </data-member>
      <data-member access='protected' layout-offset-in-bits='2176'>
        <var-decl name='curblock' type-id='type-id-107' visibility='default' filepath='libnurbs/internals/bufpool.h' line='65' column='1'/>
      </data-member>
      <data-member access='protected' layout-offset-in-bits='2240'>
        <var-decl name='buffersize' type-id='type-id-8' visibility='default' filepath='libnurbs/internals/bufpool.h' line='66' column='1'/>
      </data-member>
      <data-member access='protected' layout-offset-in-bits='2272'>
        <var-decl name='nextsize' type-id='type-id-8' visibility='default' filepath='libnurbs/internals/bufpool.h' line='67' column='1'/>
      </data-member>
      <data-member access='protected' layout-offset-in-bits='2304'>
        <var-decl name='nextfree' type-id='type-id-8' visibility='default' filepath='libnurbs/internals/bufpool.h' line='68' column='1'/>
      </data-member>
      <data-member access='protected' layout-offset-in-bits='2336'>
        <var-decl name='initsize' type-id='type-id-8' visibility='default' filepath='libnurbs/internals/bufpool.h' line='69' column='1'/>
      </data-member>
      <data-member access='protected' layout-offset-in-bits='2368'>
        <var-decl name='name' type-id='type-id-84' visibility='default' filepath='libnurbs/internals/bufpool.h' line='71' column='1'/>
      </data-member>
      <data-member access='protected' layout-offset-in-bits='2432'>
        <var-decl name='magic' type-id='type-id-122' visibility='default' filepath='libnurbs/internals/bufpool.h' line='72' column='1'/>
      </data-member>
      <member-function access='private' constructor='yes'>
        <function-decl name='Pool' filepath='libnurbs/internals/bufpool.h' line='52' column='1' visibility='default' binding='global' size-in-bits='64'>
          <parameter type-id='type-id-123' is-artificial='yes'/>
          <parameter type-id='type-id-8'/>
          <parameter type-id='type-id-8'/>
          <parameter type-id='type-id-84'/>
          <return type-id='type-id-14'/>
        </function-decl>
      </member-function>
      <member-function access='private' destructor='yes'>
        <function-decl name='~Pool' filepath='libnurbs/internals/bufpool.h' line='53' column='1' visibility='default' binding='global' size-in-bits='64'>
          <parameter type-id='type-id-123' is-artificial='yes'/>
          <parameter type-id='type-id-8' is-artificial='yes'/>
          <return type-id='type-id-14'/>
        </function-decl>
      </member-function>
      <member-function access='private'>
        <function-decl name='new_buffer' mangled-name='_ZN4Pool10new_bufferEv' filepath='libnurbs/internals/bufpool.h' line='54' column='1' visibility='default' binding='global' size-in-bits='64'>
          <parameter type-id='type-id-123' is-artificial='yes'/>
          <return type-id='type-id-35'/>
        </function-decl>
      </member-function>
      <member-function access='private'>
        <function-decl name='clear' mangled-name='_ZN4Pool5clearEv' filepath='libnurbs/internals/bufpool.h' line='56' column='1' visibility='default' binding='global' size-in-bits='64'>
          <parameter type-id='type-id-123' is-artificial='yes'/>
          <return type-id='type-id-14'/>
        </function-decl>
      </member-function>
      <member-function access='private'>
        <function-decl name='grow' mangled-name='_ZN4Pool4growEv' filepath='libnurbs/internals/bufpool.h' line='59' column='1' visibility='default' binding='global' size-in-bits='64'>
          <parameter type-id='type-id-123' is-artificial='yes'/>
          <return type-id='type-id-14'/>
        </function-decl>
      </member-function>
      <member-function access='private'>
        <function-decl name='free_buffer' mangled-name='_ZN4Pool11free_bufferEPv' filepath='libnurbs/internals/bufpool.h' line='55' column='1' visibility='default' binding='global' size-in-bits='64'>
          <parameter type-id='type-id-123' is-artificial='yes'/>
          <parameter type-id='type-id-35'/>
          <return type-id='type-id-14'/>
        </function-decl>
      </member-function>
    </class-decl>
    <class-decl name='PooledObj' size-in-bits='8' visibility='default' filepath='libnurbs/internals/bufpool.h' line='118' column='1' id='type-id-115'>
      <member-function access='private' static='yes'>
        <function-decl name='operator delete' mangled-name='_ZN9PooledObjdlEPvR4Pool' filepath='libnurbs/internals/bufpool.h' line='125' column='1' visibility='default' binding='global' size-in-bits='64'>
          <parameter type-id='type-id-35'/>
          <parameter type-id='type-id-124'/>
          <return type-id='type-id-14'/>
        </function-decl>
      </member-function>
      <member-function access='private' static='yes'>
        <function-decl name='operator new' mangled-name='_ZN9PooledObjnwEmR4Pool' filepath='libnurbs/internals/bufpool.h' line='120' column='1' visibility='default' binding='global' size-in-bits='64'>
          <parameter type-id='type-id-110'/>
          <parameter type-id='type-id-124'/>
          <return type-id='type-id-35'/>
        </function-decl>
      </member-function>
      <member-function access='private'>
        <function-decl name='deleteMe' mangled-name='_ZN9PooledObj8deleteMeER4Pool' filepath='libnurbs/internals/bufpool.h' line='126' column='1' visibility='default' binding='global' size-in-bits='64'>
          <parameter type-id='type-id-125' is-artificial='yes'/>
          <parameter type-id='type-id-124'/>
          <return type-id='type-id-14'/>
        </function-decl>
      </member-function>
    </class-decl>
    <class-decl name='PwlArc' size-in-bits='192' visibility='default' filepath='libnurbs/internals/pwlarc.h' line='44' column='1' id='type-id-126'>
      <base-class access='public' layout-offset-in-bits='0' type-id='type-id-115'/>
      <data-member access='private' layout-offset-in-bits='0'>
        <var-decl name='pts' type-id='type-id-127' visibility='default' filepath='libnurbs/internals/pwlarc.h' line='46' column='1'/>
      </data-member>
      <data-member access='private' layout-offset-in-bits='64'>
        <var-decl name='npts' type-id='type-id-8' visibility='default' filepath='libnurbs/internals/pwlarc.h' line='47' column='1'/>
      </data-member>
      <data-member access='private' layout-offset-in-bits='128'>
        <var-decl name='type' type-id='type-id-38' visibility='default' filepath='libnurbs/internals/pwlarc.h' line='48' column='1'/>
      </data-member>
      <member-function access='private' constructor='yes'>
        <function-decl name='PwlArc' filepath='libnurbs/internals/pwlarc.h' line='49' column='1' visibility='default' binding='global' size-in-bits='64'>
          <parameter type-id='type-id-118' is-artificial='yes'/>
          <return type-id='type-id-14'/>
        </function-decl>
      </member-function>
      <member-function access='private' constructor='yes'>
        <function-decl name='PwlArc' filepath='libnurbs/internals/pwlarc.h' line='50' column='1' visibility='default' binding='global' size-in-bits='64'>
          <parameter type-id='type-id-118' is-artificial='yes'/>
          <parameter type-id='type-id-8'/>
          <parameter type-id='type-id-127'/>
          <return type-id='type-id-14'/>
        </function-decl>
      </member-function>
      <member-function access='private' constructor='yes'>
        <function-decl name='PwlArc' filepath='libnurbs/internals/pwlarc.h' line='51' column='1' visibility='default' binding='global' size-in-bits='64'>
          <parameter type-id='type-id-118' is-artificial='yes'/>
          <parameter type-id='type-id-8'/>
          <parameter type-id='type-id-127'/>
          <parameter type-id='type-id-38'/>
          <return type-id='type-id-14'/>
        </function-decl>
      </member-function>
    </class-decl>
    <class-decl name='TrimVertex' size-in-bits='128' is-struct='yes' visibility='default' filepath='libnurbs/internals/trimvertex.h' line='43' column='1' id='type-id-128'>
      <data-member access='public' layout-offset-in-bits='0'>
        <var-decl name='param' type-id='type-id-88' visibility='default' filepath='libnurbs/internals/trimvertex.h' line='45' column='1'/>
      </data-member>
      <data-member access='public' layout-offset-in-bits='64'>
        <var-decl name='nuid' type-id='type-id-38' visibility='default' filepath='libnurbs/internals/trimvertex.h' line='50' column='1'/>
      </data-member>
    </class-decl>
    <pointer-type-def type-id='type-id-114' size-in-bits='64' id='type-id-111'/>
    <pointer-type-def type-id='type-id-112' size-in-bits='64' id='type-id-119'/>
    <pointer-type-def type-id='type-id-129' size-in-bits='64' id='type-id-117'/>
    <pointer-type-def type-id='type-id-120' size-in-bits='64' id='type-id-121'/>
    <reference-type-def kind='lvalue' type-id='type-id-67' size-in-bits='64' id='type-id-124'/>
    <pointer-type-def type-id='type-id-67' size-in-bits='64' id='type-id-123'/>
    <pointer-type-def type-id='type-id-115' size-in-bits='64' id='type-id-125'/>
    <pointer-type-def type-id='type-id-126' size-in-bits='64' id='type-id-118'/>
    <pointer-type-def type-id='type-id-128' size-in-bits='64' id='type-id-127'/>
    <pointer-type-def type-id='type-id-106' size-in-bits='64' id='type-id-107'/>
    <qualified-type-def type-id='type-id-106' const='yes' id='type-id-130'/>
    <pointer-type-def type-id='type-id-130' size-in-bits='64' id='type-id-84'/>
    <qualified-type-def type-id='type-id-8' const='yes' id='type-id-116'/>
    <class-decl name='BezierArc' is-struct='yes' visibility='default' is-declaration-only='yes' id='type-id-129'/>
  </abi-instr>
  <abi-instr address-size='64' path='libnurbs/internals/arcsorter.cc' comp-dir-path='/tmp/legendre/spack-stage/spack-stage-T0fsxk/Mesa-8.0.5/src/glu/sgi' language='LANG_C_plus_plus'>
    <array-type-def dimensions='1' type-id='type-id-1' size-in-bits='128' id='type-id-131'>
      <subrange length='4' type-id='type-id-3' id='type-id-61'/>
    </array-type-def>
    <array-type-def dimensions='3' type-id='type-id-1' size-in-bits='infinite' id='type-id-132'>
      <subrange length='infinite' id='type-id-133'/>
      <subrange length='24' type-id='type-id-3' id='type-id-134'/>
      <subrange length='24' type-id='type-id-3' id='type-id-134'/>
    </array-type-def>
    <class-decl name='ArcTessellator' size-in-bits='128' visibility='default' filepath='libnurbs/internals/arctess.h' line='47' column='1' id='type-id-135'>
      <data-member access='private' static='yes'>
        <var-decl name='gl_Bernstein' type-id='type-id-132' mangled-name='_ZN14ArcTessellator12gl_BernsteinE' visibility='default' filepath='libnurbs/internals/arctess.h' line='60' column='1'/>
      </data-member>
      <data-member access='private' layout-offset-in-bits='0'>
        <var-decl name='pwlarcpool' type-id='type-id-124' visibility='default' filepath='libnurbs/internals/arctess.h' line='61' column='1'/>
      </data-member>
      <data-member access='private' layout-offset-in-bits='64'>
        <var-decl name='trimvertexpool' type-id='type-id-136' visibility='default' filepath='libnurbs/internals/arctess.h' line='62' column='1'/>
      </data-member>
      <member-function access='private' constructor='yes'>
        <function-decl name='ArcTessellator' filepath='libnurbs/internals/arctess.h' line='49' column='1' visibility='default' binding='global' size-in-bits='64'>
          <parameter type-id='type-id-137' is-artificial='yes'/>
          <parameter type-id='type-id-136'/>
          <parameter type-id='type-id-124'/>
          <return type-id='type-id-14'/>
        </function-decl>
      </member-function>
      <member-function access='private' destructor='yes'>
        <function-decl name='~ArcTessellator' filepath='libnurbs/internals/arctess.h' line='50' column='1' visibility='default' binding='global' size-in-bits='64'>
          <parameter type-id='type-id-137' is-artificial='yes'/>
          <parameter type-id='type-id-8' is-artificial='yes'/>
          <return type-id='type-id-14'/>
        </function-decl>
      </member-function>
      <member-function access='private' static='yes'>
        <function-decl name='trim_power_coeffs' mangled-name='_ZN14ArcTessellator17trim_power_coeffsEP9BezierArcPfi' filepath='libnurbs/internals/arctess.h' line='63' column='1' visibility='default' binding='global' size-in-bits='64'>
          <parameter type-id='type-id-117'/>
          <parameter type-id='type-id-22'/>
          <parameter type-id='type-id-8'/>
          <return type-id='type-id-14'/>
        </function-decl>
      </member-function>
      <member-function access='private'>
        <function-decl name='pwl_left' mangled-name='_ZN14ArcTessellator8pwl_leftEP3Arcffff' filepath='libnurbs/internals/arctess.h' line='53' column='1' visibility='default' binding='global' size-in-bits='64'>
          <parameter type-id='type-id-137' is-artificial='yes'/>
          <parameter type-id='type-id-112'/>
          <parameter type-id='type-id-1'/>
          <parameter type-id='type-id-1'/>
          <parameter type-id='type-id-1'/>
          <parameter type-id='type-id-1'/>
          <return type-id='type-id-14'/>
        </function-decl>
      </member-function>
      <member-function access='private'>
        <function-decl name='tessellateNonlinear' mangled-name='_ZN14ArcTessellator19tessellateNonlinearEP3Arcffi' filepath='libnurbs/internals/arctess.h' line='58' column='1' visibility='default' binding='global' size-in-bits='64'>
          <parameter type-id='type-id-137' is-artificial='yes'/>
          <parameter type-id='type-id-112'/>
          <parameter type-id='type-id-1'/>
          <parameter type-id='type-id-1'/>
          <parameter type-id='type-id-8'/>
          <return type-id='type-id-14'/>
        </function-decl>
      </member-function>
      <member-function access='private'>
        <function-decl name='pwl' mangled-name='_ZN14ArcTessellator3pwlEP3Arcfffff' filepath='libnurbs/internals/arctess.h' line='52' column='1' visibility='default' binding='global' size-in-bits='64'>
          <parameter type-id='type-id-137' is-artificial='yes'/>
          <parameter type-id='type-id-112'/>
          <parameter type-id='type-id-1'/>
          <parameter type-id='type-id-1'/>
          <parameter type-id='type-id-1'/>
          <parameter type-id='type-id-1'/>
          <parameter type-id='type-id-1'/>
          <return type-id='type-id-14'/>
        </function-decl>
      </member-function>
      <member-function access='private'>
        <function-decl name='bezier' mangled-name='_ZN14ArcTessellator6bezierEP3Arcffff' filepath='libnurbs/internals/arctess.h' line='51' column='1' visibility='default' binding='global' size-in-bits='64'>
          <parameter type-id='type-id-137' is-artificial='yes'/>
          <parameter type-id='type-id-112'/>
          <parameter type-id='type-id-1'/>
          <parameter type-id='type-id-1'/>
          <parameter type-id='type-id-1'/>
          <parameter type-id='type-id-1'/>
          <return type-id='type-id-14'/>
        </function-decl>
      </member-function>
      <member-function access='private'>
        <function-decl name='pwl_bottom' mangled-name='_ZN14ArcTessellator10pwl_bottomEP3Arcffff' filepath='libnurbs/internals/arctess.h' line='56' column='1' visibility='default' binding='global' size-in-bits='64'>
          <parameter type-id='type-id-137' is-artificial='yes'/>
          <parameter type-id='type-id-112'/>
          <parameter type-id='type-id-1'/>
          <parameter type-id='type-id-1'/>
          <parameter type-id='type-id-1'/>
          <parameter type-id='type-id-1'/>
          <return type-id='type-id-14'/>
        </function-decl>
      </member-function>
      <member-function access='private'>
        <function-decl name='pwl_top' mangled-name='_ZN14ArcTessellator7pwl_topEP3Arcffff' filepath='libnurbs/internals/arctess.h' line='55' column='1' visibility='default' binding='global' size-in-bits='64'>
          <parameter type-id='type-id-137' is-artificial='yes'/>
          <parameter type-id='type-id-112'/>
          <parameter type-id='type-id-1'/>
          <parameter type-id='type-id-1'/>
          <parameter type-id='type-id-1'/>
          <parameter type-id='type-id-1'/>
          <return type-id='type-id-14'/>
        </function-decl>
      </member-function>
      <member-function access='private'>
        <function-decl name='pwl_right' mangled-name='_ZN14ArcTessellator9pwl_rightEP3Arcffff' filepath='libnurbs/internals/arctess.h' line='54' column='1' visibility='default' binding='global' size-in-bits='64'>
          <parameter type-id='type-id-137' is-artificial='yes'/>
          <parameter type-id='type-id-112'/>
          <parameter type-id='type-id-1'/>
          <parameter type-id='type-id-1'/>
          <parameter type-id='type-id-1'/>
          <parameter type-id='type-id-1'/>
          <return type-id='type-id-14'/>
        </function-decl>
      </member-function>
      <member-function access='private'>
        <function-decl name='tessellateLinear' mangled-name='_ZN14ArcTessellator16tessellateLinearEP3Arcffi' filepath='libnurbs/internals/arctess.h' line='57' column='1' visibility='default' binding='global' size-in-bits='64'>
          <parameter type-id='type-id-137' is-artificial='yes'/>
          <parameter type-id='type-id-112'/>
          <parameter type-id='type-id-1'/>
          <parameter type-id='type-id-1'/>
          <parameter type-id='type-id-8'/>
          <return type-id='type-id-14'/>
        </function-decl>
      </member-function>
    </class-decl>
    <class-decl name='Backend' size-in-bits='640' is-struct='yes' visibility='default' filepath='libnurbs/internals/backend.h' line='46' column='1' id='type-id-64'>
      <data-member access='private' layout-offset-in-bits='0'>
        <var-decl name='curveEvaluator' type-id='type-id-79' visibility='default' filepath='libnurbs/internals/backend.h' line='48' column='1'/>
      </data-member>
      <data-member access='private' layout-offset-in-bits='64'>
        <var-decl name='surfaceEvaluator' type-id='type-id-80' visibility='default' filepath='libnurbs/internals/backend.h' line='49' column='1'/>
      </data-member>
      <data-member access='private' layout-offset-in-bits='128'>
        <var-decl name='wireframetris' type-id='type-id-8' visibility='default' filepath='libnurbs/internals/backend.h' line='105' column='1'/>
      </data-member>
      <data-member access='private' layout-offset-in-bits='160'>
        <var-decl name='wireframequads' type-id='type-id-8' visibility='default' filepath='libnurbs/internals/backend.h' line='106' column='1'/>
      </data-member>
      <data-member access='private' layout-offset-in-bits='192'>
        <var-decl name='npts' type-id='type-id-8' visibility='default' filepath='libnurbs/internals/backend.h' line='107' column='1'/>
      </data-member>
      <data-member access='private' layout-offset-in-bits='224'>
        <var-decl name='mesh' type-id='type-id-138' visibility='default' filepath='libnurbs/internals/backend.h' line='108' column='1'/>
      </data-member>
      <data-member access='private' layout-offset-in-bits='608'>
        <var-decl name='meshindex' type-id='type-id-8' visibility='default' filepath='libnurbs/internals/backend.h' line='109' column='1'/>
      </data-member>
      <member-function access='public' constructor='yes'>
        <function-decl name='Backend' filepath='libnurbs/internals/backend.h' line='51' column='1' visibility='default' binding='global' size-in-bits='64'>
          <parameter type-id='type-id-139' is-artificial='yes'/>
          <parameter type-id='type-id-79'/>
          <parameter type-id='type-id-80'/>
          <return type-id='type-id-14'/>
        </function-decl>
      </member-function>
      <member-function access='public'>
        <function-decl name='bgnsurf' mangled-name='_ZN7Backend7bgnsurfEiil' filepath='libnurbs/internals/backend.h' line='55' column='1' visibility='default' binding='global' size-in-bits='64'>
          <parameter type-id='type-id-139' is-artificial='yes'/>
          <parameter type-id='type-id-8'/>
          <parameter type-id='type-id-8'/>
          <parameter type-id='type-id-38'/>
          <return type-id='type-id-14'/>
        </function-decl>
      </member-function>
      <member-function access='public'>
        <function-decl name='patch' mangled-name='_ZN7Backend5patchEffff' filepath='libnurbs/internals/backend.h' line='56' column='1' visibility='default' binding='global' size-in-bits='64'>
          <parameter type-id='type-id-139' is-artificial='yes'/>
          <parameter type-id='type-id-1'/>
          <parameter type-id='type-id-1'/>
          <parameter type-id='type-id-1'/>
          <parameter type-id='type-id-1'/>
          <return type-id='type-id-14'/>
        </function-decl>
      </member-function>
      <member-function access='public'>
        <function-decl name='surfbbox' mangled-name='_ZN7Backend8surfbboxElPfS0_' filepath='libnurbs/internals/backend.h' line='59' column='1' visibility='default' binding='global' size-in-bits='64'>
          <parameter type-id='type-id-139' is-artificial='yes'/>
          <parameter type-id='type-id-38'/>
          <parameter type-id='type-id-22'/>
          <parameter type-id='type-id-22'/>
          <return type-id='type-id-14'/>
        </function-decl>
      </member-function>
      <member-function access='public'>
        <function-decl name='surfpts' mangled-name='_ZN7Backend7surfptsElPflliiffff' filepath='libnurbs/internals/backend.h' line='57' column='1' visibility='default' binding='global' size-in-bits='64'>
          <parameter type-id='type-id-139' is-artificial='yes'/>
          <parameter type-id='type-id-38'/>
          <parameter type-id='type-id-22'/>
          <parameter type-id='type-id-38'/>
          <parameter type-id='type-id-38'/>
          <parameter type-id='type-id-8'/>
          <parameter type-id='type-id-8'/>
          <parameter type-id='type-id-1'/>
          <parameter type-id='type-id-1'/>
          <parameter type-id='type-id-1'/>
          <parameter type-id='type-id-1'/>
          <return type-id='type-id-14'/>
        </function-decl>
      </member-function>
      <member-function access='public'>
        <function-decl name='surfgrid' mangled-name='_ZN7Backend8surfgridEfflffl' filepath='libnurbs/internals/backend.h' line='60' column='1' visibility='default' binding='global' size-in-bits='64'>
          <parameter type-id='type-id-139' is-artificial='yes'/>
          <parameter type-id='type-id-1'/>
          <parameter type-id='type-id-1'/>
          <parameter type-id='type-id-38'/>
          <parameter type-id='type-id-1'/>
          <parameter type-id='type-id-1'/>
          <parameter type-id='type-id-38'/>
          <return type-id='type-id-14'/>
        </function-decl>
      </member-function>
      <member-function access='public'>
        <function-decl name='surfmesh' mangled-name='_ZN7Backend8surfmeshEllll' filepath='libnurbs/internals/backend.h' line='61' column='1' visibility='default' binding='global' size-in-bits='64'>
          <parameter type-id='type-id-139' is-artificial='yes'/>
          <parameter type-id='type-id-38'/>
          <parameter type-id='type-id-38'/>
          <parameter type-id='type-id-38'/>
          <parameter type-id='type-id-38'/>
          <return type-id='type-id-14'/>
        </function-decl>
      </member-function>
      <member-function access='public'>
        <function-decl name='endsurf' mangled-name='_ZN7Backend7endsurfEv' filepath='libnurbs/internals/backend.h' line='73' column='1' visibility='default' binding='global' size-in-bits='64'>
          <parameter type-id='type-id-139' is-artificial='yes'/>
          <return type-id='type-id-14'/>
        </function-decl>
      </member-function>
      <member-function access='public'>
        <function-decl name='bgntfan' mangled-name='_ZN7Backend7bgntfanEv' filepath='libnurbs/internals/backend.h' line='76' column='1' visibility='default' binding='global' size-in-bits='64'>
          <parameter type-id='type-id-139' is-artificial='yes'/>
          <return type-id='type-id-14'/>
        </function-decl>
      </member-function>
      <member-function access='public'>
        <function-decl name='endtfan' mangled-name='_ZN7Backend7endtfanEv' filepath='libnurbs/internals/backend.h' line='77' column='1' visibility='default' binding='global' size-in-bits='64'>
          <parameter type-id='type-id-139' is-artificial='yes'/>
          <return type-id='type-id-14'/>
        </function-decl>
      </member-function>
      <member-function access='public'>
        <function-decl name='bgnqstrip' mangled-name='_ZN7Backend9bgnqstripEv' filepath='libnurbs/internals/backend.h' line='78' column='1' visibility='default' binding='global' size-in-bits='64'>
          <parameter type-id='type-id-139' is-artificial='yes'/>
          <return type-id='type-id-14'/>
        </function-decl>
      </member-function>
      <member-function access='public'>
        <function-decl name='endqstrip' mangled-name='_ZN7Backend9endqstripEv' filepath='libnurbs/internals/backend.h' line='79' column='1' visibility='default' binding='global' size-in-bits='64'>
          <parameter type-id='type-id-139' is-artificial='yes'/>
          <return type-id='type-id-14'/>
        </function-decl>
      </member-function>
      <member-function access='public'>
        <function-decl name='evalUStrip' mangled-name='_ZN7Backend10evalUStripEifPfifS0_' filepath='libnurbs/internals/backend.h' line='80' column='1' visibility='default' binding='global' size-in-bits='64'>
          <parameter type-id='type-id-139' is-artificial='yes'/>
          <parameter type-id='type-id-8'/>
          <parameter type-id='type-id-1'/>
          <parameter type-id='type-id-22'/>
          <parameter type-id='type-id-8'/>
          <parameter type-id='type-id-1'/>
          <parameter type-id='type-id-22'/>
          <return type-id='type-id-14'/>
        </function-decl>
      </member-function>
      <member-function access='public'>
        <function-decl name='evalVStrip' mangled-name='_ZN7Backend10evalVStripEifPfifS0_' filepath='libnurbs/internals/backend.h' line='83' column='1' visibility='default' binding='global' size-in-bits='64'>
          <parameter type-id='type-id-139' is-artificial='yes'/>
          <parameter type-id='type-id-8'/>
          <parameter type-id='type-id-1'/>
          <parameter type-id='type-id-22'/>
          <parameter type-id='type-id-8'/>
          <parameter type-id='type-id-1'/>
          <parameter type-id='type-id-22'/>
          <return type-id='type-id-14'/>
        </function-decl>
      </member-function>
      <member-function access='public'>
        <function-decl name='bgntmesh' mangled-name='_ZN7Backend8bgntmeshEPKc' filepath='libnurbs/internals/backend.h' line='62' column='1' visibility='default' binding='global' size-in-bits='64'>
          <parameter type-id='type-id-139' is-artificial='yes'/>
          <parameter type-id='type-id-84'/>
          <return type-id='type-id-14'/>
        </function-decl>
      </member-function>
      <member-function access='public'>
        <function-decl name='tmeshvertNOGE' mangled-name='_ZN7Backend13tmeshvertNOGEEP10TrimVertex' filepath='libnurbs/internals/backend.h' line='86' column='1' visibility='default' binding='global' size-in-bits='64'>
          <parameter type-id='type-id-139' is-artificial='yes'/>
          <parameter type-id='type-id-127'/>
          <return type-id='type-id-14'/>
        </function-decl>
      </member-function>
      <member-function access='public'>
        <function-decl name='tmeshvertNOGE_BU' mangled-name='_ZN7Backend16tmeshvertNOGE_BUEP10TrimVertex' filepath='libnurbs/internals/backend.h' line='87' column='1' visibility='default' binding='global' size-in-bits='64'>
          <parameter type-id='type-id-139' is-artificial='yes'/>
          <parameter type-id='type-id-127'/>
          <return type-id='type-id-14'/>
        </function-decl>
      </member-function>
      <member-function access='public'>
        <function-decl name='tmeshvertNOGE_BV' mangled-name='_ZN7Backend16tmeshvertNOGE_BVEP10TrimVertex' filepath='libnurbs/internals/backend.h' line='88' column='1' visibility='default' binding='global' size-in-bits='64'>
          <parameter type-id='type-id-139' is-artificial='yes'/>
          <parameter type-id='type-id-127'/>
          <return type-id='type-id-14'/>
        </function-decl>
      </member-function>
      <member-function access='public'>
        <function-decl name='preEvaluateBU' mangled-name='_ZN7Backend13preEvaluateBUEf' filepath='libnurbs/internals/backend.h' line='89' column='1' visibility='default' binding='global' size-in-bits='64'>
          <parameter type-id='type-id-139' is-artificial='yes'/>
          <parameter type-id='type-id-1'/>
          <return type-id='type-id-14'/>
        </function-decl>
      </member-function>
      <member-function access='public'>
        <function-decl name='preEvaluateBV' mangled-name='_ZN7Backend13preEvaluateBVEf' filepath='libnurbs/internals/backend.h' line='90' column='1' visibility='default' binding='global' size-in-bits='64'>
          <parameter type-id='type-id-139' is-artificial='yes'/>
          <parameter type-id='type-id-1'/>
          <return type-id='type-id-14'/>
        </function-decl>
      </member-function>
      <member-function access='public'>
        <function-decl name='tmeshvert' mangled-name='_ZN7Backend9tmeshvertEP10TrimVertex' filepath='libnurbs/internals/backend.h' line='66' column='1' visibility='default' binding='global' size-in-bits='64'>
          <parameter type-id='type-id-139' is-artificial='yes'/>
          <parameter type-id='type-id-127'/>
          <return type-id='type-id-14'/>
        </function-decl>
      </member-function>
      <member-function access='public'>
        <function-decl name='tmeshvert' mangled-name='_ZN7Backend9tmeshvertEff' filepath='libnurbs/internals/backend.h' line='68' column='1' visibility='default' binding='global' size-in-bits='64'>
          <parameter type-id='type-id-139' is-artificial='yes'/>
          <parameter type-id='type-id-1'/>
          <parameter type-id='type-id-1'/>
          <return type-id='type-id-14'/>
        </function-decl>
      </member-function>
      <member-function access='public'>
        <function-decl name='tmeshvert' mangled-name='_ZN7Backend9tmeshvertEP10GridVertex' filepath='libnurbs/internals/backend.h' line='67' column='1' visibility='default' binding='global' size-in-bits='64'>
          <parameter type-id='type-id-139' is-artificial='yes'/>
          <parameter type-id='type-id-140'/>
          <return type-id='type-id-14'/>
        </function-decl>
      </member-function>
      <member-function access='public'>
        <function-decl name='tmeshvert' mangled-name='_ZN7Backend9tmeshvertEP14GridTrimVertex' filepath='libnurbs/internals/backend.h' line='65' column='1' visibility='default' binding='global' size-in-bits='64'>
          <parameter type-id='type-id-139' is-artificial='yes'/>
          <parameter type-id='type-id-141'/>
          <return type-id='type-id-14'/>
        </function-decl>
      </member-function>
      <member-function access='public'>
        <function-decl name='swaptmesh' mangled-name='_ZN7Backend9swaptmeshEv' filepath='libnurbs/internals/backend.h' line='64' column='1' visibility='default' binding='global' size-in-bits='64'>
          <parameter type-id='type-id-139' is-artificial='yes'/>
          <return type-id='type-id-14'/>
        </function-decl>
      </member-function>
      <member-function access='public'>
        <function-decl name='endtmesh' mangled-name='_ZN7Backend8endtmeshEv' filepath='libnurbs/internals/backend.h' line='63' column='1' visibility='default' binding='global' size-in-bits='64'>
          <parameter type-id='type-id-139' is-artificial='yes'/>
          <return type-id='type-id-14'/>
        </function-decl>
      </member-function>
      <member-function access='public'>
        <function-decl name='bgnoutline' mangled-name='_ZN7Backend10bgnoutlineEv' filepath='libnurbs/internals/backend.h' line='71' column='1' visibility='default' binding='global' size-in-bits='64'>
          <parameter type-id='type-id-139' is-artificial='yes'/>
          <return type-id='type-id-14'/>
        </function-decl>
      </member-function>
      <member-function access='public'>
        <function-decl name='linevert' mangled-name='_ZN7Backend8linevertEP10TrimVertex' filepath='libnurbs/internals/backend.h' line='69' column='1' visibility='default' binding='global' size-in-bits='64'>
          <parameter type-id='type-id-139' is-artificial='yes'/>
          <parameter type-id='type-id-127'/>
          <return type-id='type-id-14'/>
        </function-decl>
      </member-function>
      <member-function access='public'>
        <function-decl name='linevert' mangled-name='_ZN7Backend8linevertEP10GridVertex' filepath='libnurbs/internals/backend.h' line='70' column='1' visibility='default' binding='global' size-in-bits='64'>
          <parameter type-id='type-id-139' is-artificial='yes'/>
          <parameter type-id='type-id-140'/>
          <return type-id='type-id-14'/>
        </function-decl>
      </member-function>
      <member-function access='public'>
        <function-decl name='endoutline' mangled-name='_ZN7Backend10endoutlineEv' filepath='libnurbs/internals/backend.h' line='72' column='1' visibility='default' binding='global' size-in-bits='64'>
          <parameter type-id='type-id-139' is-artificial='yes'/>
          <return type-id='type-id-14'/>
        </function-decl>
      </member-function>
      <member-function access='public'>
        <function-decl name='triangle' mangled-name='_ZN7Backend8triangleEP10TrimVertexS1_S1_' filepath='libnurbs/internals/backend.h' line='74' column='1' visibility='default' binding='global' size-in-bits='64'>
          <parameter type-id='type-id-139' is-artificial='yes'/>
          <parameter type-id='type-id-127'/>
          <parameter type-id='type-id-127'/>
          <parameter type-id='type-id-127'/>
          <return type-id='type-id-14'/>
        </function-decl>
      </member-function>
      <member-function access='public'>
        <function-decl name='bgncurv' mangled-name='_ZN7Backend7bgncurvEv' filepath='libnurbs/internals/backend.h' line='94' column='1' visibility='default' binding='global' size-in-bits='64'>
          <parameter type-id='type-id-139' is-artificial='yes'/>
          <return type-id='type-id-14'/>
        </function-decl>
      </member-function>
      <member-function access='public'>
        <function-decl name='segment' mangled-name='_ZN7Backend7segmentEff' filepath='libnurbs/internals/backend.h' line='95' column='1' visibility='default' binding='global' size-in-bits='64'>
          <parameter type-id='type-id-139' is-artificial='yes'/>
          <parameter type-id='type-id-1'/>
          <parameter type-id='type-id-1'/>
          <return type-id='type-id-14'/>
        </function-decl>
      </member-function>
      <member-function access='public'>
        <function-decl name='curvpts' mangled-name='_ZN7Backend7curvptsElPfliff' filepath='libnurbs/internals/backend.h' line='96' column='1' visibility='default' binding='global' size-in-bits='64'>
          <parameter type-id='type-id-139' is-artificial='yes'/>
          <parameter type-id='type-id-38'/>
          <parameter type-id='type-id-22'/>
          <parameter type-id='type-id-38'/>
          <parameter type-id='type-id-8'/>
          <parameter type-id='type-id-1'/>
          <parameter type-id='type-id-1'/>
          <return type-id='type-id-14'/>
        </function-decl>
      </member-function>
      <member-function access='public'>
        <function-decl name='curvgrid' mangled-name='_ZN7Backend8curvgridEffl' filepath='libnurbs/internals/backend.h' line='97' column='1' visibility='default' binding='global' size-in-bits='64'>
          <parameter type-id='type-id-139' is-artificial='yes'/>
          <parameter type-id='type-id-1'/>
          <parameter type-id='type-id-1'/>
          <parameter type-id='type-id-38'/>
          <return type-id='type-id-14'/>
        </function-decl>
      </member-function>
      <member-function access='public'>
        <function-decl name='curvmesh' mangled-name='_ZN7Backend8curvmeshEll' filepath='libnurbs/internals/backend.h' line='98' column='1' visibility='default' binding='global' size-in-bits='64'>
          <parameter type-id='type-id-139' is-artificial='yes'/>
          <parameter type-id='type-id-38'/>
          <parameter type-id='type-id-38'/>
          <return type-id='type-id-14'/>
        </function-decl>
      </member-function>
      <member-function access='public'>
        <function-decl name='curvpt' mangled-name='_ZN7Backend6curvptEf' filepath='libnurbs/internals/backend.h' line='99' column='1' visibility='default' binding='global' size-in-bits='64'>
          <parameter type-id='type-id-139' is-artificial='yes'/>
          <parameter type-id='type-id-1'/>
          <return type-id='type-id-14'/>
        </function-decl>
      </member-function>
      <member-function access='public'>
        <function-decl name='bgnline' mangled-name='_ZN7Backend7bgnlineEv' filepath='libnurbs/internals/backend.h' line='100' column='1' visibility='default' binding='global' size-in-bits='64'>
          <parameter type-id='type-id-139' is-artificial='yes'/>
          <return type-id='type-id-14'/>
        </function-decl>
      </member-function>
      <member-function access='public'>
        <function-decl name='endline' mangled-name='_ZN7Backend7endlineEv' filepath='libnurbs/internals/backend.h' line='101' column='1' visibility='default' binding='global' size-in-bits='64'>
          <parameter type-id='type-id-139' is-artificial='yes'/>
          <return type-id='type-id-14'/>
        </function-decl>
      </member-function>
      <member-function access='public'>
        <function-decl name='endcurv' mangled-name='_ZN7Backend7endcurvEv' filepath='libnurbs/internals/backend.h' line='102' column='1' visibility='default' binding='global' size-in-bits='64'>
          <parameter type-id='type-id-139' is-artificial='yes'/>
          <return type-id='type-id-14'/>
        </function-decl>
      </member-function>
    </class-decl>
    <class-decl name='Bin' size-in-bits='128' visibility='default' filepath='libnurbs/internals/bin.h' line='44' column='1' id='type-id-142'>
      <data-member access='private' layout-offset-in-bits='0'>
        <var-decl name='head' type-id='type-id-112' visibility='default' filepath='libnurbs/internals/bin.h' line='46' column='1'/>
      </data-member>
      <data-member access='private' layout-offset-in-bits='64'>
        <var-decl name='current' type-id='type-id-112' visibility='default' filepath='libnurbs/internals/bin.h' line='47' column='1'/>
      </data-member>
      <member-function access='private' constructor='yes'>
        <function-decl name='Bin' filepath='libnurbs/internals/bin.h' line='49' column='1' visibility='default' binding='global' size-in-bits='64'>
          <parameter type-id='type-id-143' is-artificial='yes'/>
          <return type-id='type-id-14'/>
        </function-decl>
      </member-function>
      <member-function access='private' destructor='yes'>
        <function-decl name='~Bin' filepath='libnurbs/internals/bin.h' line='50' column='1' visibility='default' binding='global' size-in-bits='64'>
          <parameter type-id='type-id-143' is-artificial='yes'/>
          <parameter type-id='type-id-8' is-artificial='yes'/>
          <return type-id='type-id-14'/>
        </function-decl>
      </member-function>
      <member-function access='private'>
        <function-decl name='nextarc' mangled-name='_ZN3Bin7nextarcEv' filepath='libnurbs/internals/bin.h' line='52' column='1' visibility='default' binding='global' size-in-bits='64'>
          <parameter type-id='type-id-143' is-artificial='yes'/>
          <return type-id='type-id-112'/>
        </function-decl>
      </member-function>
      <member-function access='private'>
        <function-decl name='firstarc' mangled-name='_ZN3Bin8firstarcEv' filepath='libnurbs/internals/bin.h' line='51' column='1' visibility='default' binding='global' size-in-bits='64'>
          <parameter type-id='type-id-143' is-artificial='yes'/>
          <return type-id='type-id-112'/>
        </function-decl>
      </member-function>
      <member-function access='private'>
        <function-decl name='markall' mangled-name='_ZN3Bin7markallEv' filepath='libnurbs/internals/bin.h' line='59' column='1' visibility='default' binding='global' size-in-bits='64'>
          <parameter type-id='type-id-143' is-artificial='yes'/>
          <return type-id='type-id-14'/>
        </function-decl>
      </member-function>
      <member-function access='private'>
        <function-decl name='removearc' mangled-name='_ZN3Bin9removearcEv' filepath='libnurbs/internals/bin.h' line='53' column='1' visibility='default' binding='global' size-in-bits='64'>
          <parameter type-id='type-id-143' is-artificial='yes'/>
          <return type-id='type-id-112'/>
        </function-decl>
      </member-function>
      <member-function access='private'>
        <function-decl name='remove_this_arc' mangled-name='_ZN3Bin15remove_this_arcEP3Arc' filepath='libnurbs/internals/bin.h' line='56' column='1' visibility='default' binding='global' size-in-bits='64'>
          <parameter type-id='type-id-143' is-artificial='yes'/>
          <parameter type-id='type-id-112'/>
          <return type-id='type-id-14'/>
        </function-decl>
      </member-function>
      <member-function access='private'>
        <function-decl name='numarcs' mangled-name='_ZN3Bin7numarcsEv' filepath='libnurbs/internals/bin.h' line='57' column='1' visibility='default' binding='global' size-in-bits='64'>
          <parameter type-id='type-id-143' is-artificial='yes'/>
          <return type-id='type-id-8'/>
        </function-decl>
      </member-function>
      <member-function access='private'>
        <function-decl name='adopt' mangled-name='_ZN3Bin5adoptEv' filepath='libnurbs/internals/bin.h' line='58' column='1' visibility='default' binding='global' size-in-bits='64'>
          <parameter type-id='type-id-143' is-artificial='yes'/>
          <return type-id='type-id-14'/>
        </function-decl>
      </member-function>
      <member-function access='private'>
        <function-decl name='show' mangled-name='_ZN3Bin4showEPKc' filepath='libnurbs/internals/bin.h' line='60' column='1' visibility='default' binding='global' size-in-bits='64'>
          <parameter type-id='type-id-143' is-artificial='yes'/>
          <parameter type-id='type-id-84'/>
          <return type-id='type-id-14'/>
        </function-decl>
      </member-function>
      <member-function access='private'>
        <function-decl name='listBezier' mangled-name='_ZN3Bin10listBezierEv' filepath='libnurbs/internals/bin.h' line='61' column='1' visibility='default' binding='global' size-in-bits='64'>
          <parameter type-id='type-id-143' is-artificial='yes'/>
          <return type-id='type-id-14'/>
        </function-decl>
      </member-function>
      <member-function access='private'>
        <function-decl name='addarc' mangled-name='_ZN3Bin6addarcEP3Arc' filepath='libnurbs/internals/bin.h' line='55' column='1' visibility='default' binding='global' size-in-bits='64'>
          <parameter type-id='type-id-143' is-artificial='yes'/>
          <parameter type-id='type-id-112'/>
          <return type-id='type-id-14'/>
        </function-decl>
      </member-function>
      <member-function access='private'>
        <function-decl name='isnonempty' mangled-name='_ZN3Bin10isnonemptyEv' filepath='libnurbs/internals/bin.h' line='54' column='1' visibility='default' binding='global' size-in-bits='64'>
          <parameter type-id='type-id-143' is-artificial='yes'/>
          <return type-id='type-id-8'/>
        </function-decl>
      </member-function>
    </class-decl>
    <class-decl name='Curvelist' size-in-bits='256' is-struct='yes' visibility='default' filepath='libnurbs/internals/curvelist.h' line='47' column='1' id='type-id-144'>
      <data-member access='private' layout-offset-in-bits='0'>
        <var-decl name='curve' type-id='type-id-145' visibility='default' filepath='libnurbs/internals/curvelist.h' line='57' column='1'/>
      </data-member>
      <data-member access='private' layout-offset-in-bits='64'>
        <var-decl name='range' type-id='type-id-146' visibility='default' filepath='libnurbs/internals/curvelist.h' line='58' column='1'/>
      </data-member>
      <data-member access='private' layout-offset-in-bits='160'>
        <var-decl name='needsSubdivision' type-id='type-id-8' visibility='default' filepath='libnurbs/internals/curvelist.h' line='59' column='1'/>
      </data-member>
      <data-member access='private' layout-offset-in-bits='192'>
        <var-decl name='stepsize' type-id='type-id-15' visibility='default' filepath='libnurbs/internals/curvelist.h' line='60' column='1'/>
      </data-member>
      <member-function access='public' constructor='yes'>
        <function-decl name='Curvelist' filepath='libnurbs/internals/curvelist.h' line='50' column='1' visibility='default' binding='global' size-in-bits='64'>
          <parameter type-id='type-id-147' is-artificial='yes'/>
          <parameter type-id='type-id-148'/>
          <parameter type-id='type-id-1'/>
          <parameter type-id='type-id-1'/>
          <return type-id='type-id-14'/>
        </function-decl>
      </member-function>
      <member-function access='public' constructor='yes'>
        <function-decl name='Curvelist' filepath='libnurbs/internals/curvelist.h' line='51' column='1' visibility='default' binding='global' size-in-bits='64'>
          <parameter type-id='type-id-147' is-artificial='yes'/>
          <parameter type-id='type-id-149'/>
          <parameter type-id='type-id-1'/>
          <return type-id='type-id-14'/>
        </function-decl>
      </member-function>
      <member-function access='public' destructor='yes'>
        <function-decl name='~Curvelist' filepath='libnurbs/internals/curvelist.h' line='52' column='1' visibility='default' binding='global' size-in-bits='64'>
          <parameter type-id='type-id-147' is-artificial='yes'/>
          <parameter type-id='type-id-8' is-artificial='yes'/>
          <return type-id='type-id-14'/>
        </function-decl>
      </member-function>
      <member-function access='public'>
        <function-decl name='needsSamplingSubdivision' mangled-name='_ZN9Curvelist24needsSamplingSubdivisionEv' filepath='libnurbs/internals/curvelist.h' line='55' column='1' visibility='default' binding='global' size-in-bits='64'>
          <parameter type-id='type-id-147' is-artificial='yes'/>
          <return type-id='type-id-8'/>
        </function-decl>
      </member-function>
      <member-function access='public'>
        <function-decl name='getstepsize' mangled-name='_ZN9Curvelist11getstepsizeEv' filepath='libnurbs/internals/curvelist.h' line='54' column='1' visibility='default' binding='global' size-in-bits='64'>
          <parameter type-id='type-id-147' is-artificial='yes'/>
          <return type-id='type-id-14'/>
        </function-decl>
      </member-function>
      <member-function access='public'>
        <function-decl name='cullCheck' mangled-name='_ZN9Curvelist9cullCheckEv' filepath='libnurbs/internals/curvelist.h' line='53' column='1' visibility='default' binding='global' size-in-bits='64'>
          <parameter type-id='type-id-147' is-artificial='yes'/>
          <return type-id='type-id-8'/>
        </function-decl>
      </member-function>
    </class-decl>
    <class-decl name='Flist' size-in-bits='320' visibility='default' filepath='libnurbs/internals/flist.h' line='42' column='1' id='type-id-150'>
      <data-member access='private' layout-offset-in-bits='0'>
        <var-decl name='pts' type-id='type-id-22' visibility='default' filepath='libnurbs/internals/flist.h' line='44' column='1'/>
      </data-member>
      <data-member access='private' layout-offset-in-bits='64'>
        <var-decl name='npts' type-id='type-id-8' visibility='default' filepath='libnurbs/internals/flist.h' line='45' column='1'/>
      </data-member>
      <data-member access='private' layout-offset-in-bits='96'>
        <var-decl name='start' type-id='type-id-8' visibility='default' filepath='libnurbs/internals/flist.h' line='46' column='1'/>
      </data-member>
      <data-member access='private' layout-offset-in-bits='128'>
        <var-decl name='end' type-id='type-id-8' visibility='default' filepath='libnurbs/internals/flist.h' line='47' column='1'/>
      </data-member>
      <data-member access='protected' layout-offset-in-bits='192'>
        <var-decl name='sorter' type-id='type-id-151' visibility='default' filepath='libnurbs/internals/flist.h' line='56' column='1'/>
      </data-member>
      <member-function access='private' constructor='yes'>
        <function-decl name='Flist' filepath='libnurbs/internals/flist.h' line='49' column='1' visibility='default' binding='global' size-in-bits='64'>
          <parameter type-id='type-id-152' is-artificial='yes'/>
          <return type-id='type-id-14'/>
        </function-decl>
      </member-function>
      <member-function access='private' destructor='yes'>
        <function-decl name='~Flist' filepath='libnurbs/internals/flist.h' line='50' column='1' visibility='default' binding='global' size-in-bits='64'>
          <parameter type-id='type-id-152' is-artificial='yes'/>
          <parameter type-id='type-id-8' is-artificial='yes'/>
          <return type-id='type-id-14'/>
        </function-decl>
      </member-function>
      <member-function access='private'>
        <function-decl name='add' mangled-name='_ZN5Flist3addEf' filepath='libnurbs/internals/flist.h' line='51' column='1' visibility='default' binding='global' size-in-bits='64'>
          <parameter type-id='type-id-152' is-artificial='yes'/>
          <parameter type-id='type-id-1'/>
          <return type-id='type-id-14'/>
        </function-decl>
      </member-function>
      <member-function access='private'>
        <function-decl name='taper' mangled-name='_ZN5Flist5taperEff' filepath='libnurbs/internals/flist.h' line='54' column='1' visibility='default' binding='global' size-in-bits='64'>
          <parameter type-id='type-id-152' is-artificial='yes'/>
          <parameter type-id='type-id-1'/>
          <parameter type-id='type-id-1'/>
          <return type-id='type-id-14'/>
        </function-decl>
      </member-function>
      <member-function access='private'>
        <function-decl name='grow' mangled-name='_ZN5Flist4growEi' filepath='libnurbs/internals/flist.h' line='53' column='1' visibility='default' binding='global' size-in-bits='64'>
          <parameter type-id='type-id-152' is-artificial='yes'/>
          <parameter type-id='type-id-8' is-artificial='yes'/>
          <return type-id='type-id-14'/>
        </function-decl>
      </member-function>
      <member-function access='private'>
        <function-decl name='filter' mangled-name='_ZN5Flist6filterEv' filepath='libnurbs/internals/flist.h' line='52' column='1' visibility='default' binding='global' size-in-bits='64'>
          <parameter type-id='type-id-152' is-artificial='yes'/>
          <return type-id='type-id-14'/>
        </function-decl>
      </member-function>
    </class-decl>
    <class-decl name='FlistSorter' size-in-bits='128' visibility='default' filepath='libnurbs/internals/flistsorter.h' line='42' column='1' id='type-id-151'>
      <base-class access='public' layout-offset-in-bits='0' type-id='type-id-153'/>
      <member-function access='private' constructor='yes'>
        <function-decl name='FlistSorter' filepath='libnurbs/internals/flistsorter.cc' line='43' column='1' visibility='default' binding='global' size-in-bits='64'>
          <parameter type-id='type-id-154' is-artificial='yes'/>
          <return type-id='type-id-14'/>
        </function-decl>
      </member-function>
      <member-function access='private'>
        <function-decl name='qsort' mangled-name='_ZN11FlistSorter5qsortEPfi' filepath='libnurbs/internals/flistsorter.cc' line='48' column='1' visibility='default' binding='global' size-in-bits='64'>
          <parameter type-id='type-id-154' is-artificial='yes'/>
          <parameter type-id='type-id-22'/>
          <parameter type-id='type-id-8'/>
          <return type-id='type-id-14'/>
        </function-decl>
      </member-function>
      <member-function access='private' destructor='yes' vtable-offset='-1'>
        <function-decl name='~FlistSorter' filepath='libnurbs/internals/flistsorter.h' line='45' column='1' visibility='default' binding='global' size-in-bits='64'>
          <parameter type-id='type-id-154' is-artificial='yes'/>
          <parameter type-id='type-id-8' is-artificial='yes'/>
          <return type-id='type-id-14'/>
        </function-decl>
      </member-function>
      <member-function access='protected' vtable-offset='2'>
        <function-decl name='qscmp' mangled-name='_ZN11FlistSorter5qscmpEPcS0_' filepath='libnurbs/internals/flistsorter.cc' line='54' column='1' visibility='default' binding='global' size-in-bits='64'>
          <parameter type-id='type-id-154' is-artificial='yes'/>
          <parameter type-id='type-id-107'/>
          <parameter type-id='type-id-107'/>
          <return type-id='type-id-8'/>
        </function-decl>
      </member-function>
      <member-function access='protected' vtable-offset='3'>
        <function-decl name='qsexc' mangled-name='_ZN11FlistSorter5qsexcEPcS0_' filepath='libnurbs/internals/flistsorter.cc' line='62' column='1' visibility='default' binding='global' size-in-bits='64'>
          <parameter type-id='type-id-154' is-artificial='yes'/>
          <parameter type-id='type-id-107'/>
          <parameter type-id='type-id-107'/>
          <return type-id='type-id-14'/>
        </function-decl>
      </member-function>
      <member-function access='protected' vtable-offset='4'>
        <function-decl name='qstexc' mangled-name='_ZN11FlistSorter6qstexcEPcS0_S0_' filepath='libnurbs/internals/flistsorter.cc' line='72' column='1' visibility='default' binding='global' size-in-bits='64'>
          <parameter type-id='type-id-154' is-artificial='yes'/>
          <parameter type-id='type-id-107'/>
          <parameter type-id='type-id-107'/>
          <parameter type-id='type-id-107'/>
          <return type-id='type-id-14'/>
        </function-decl>
      </member-function>
    </class-decl>
    <class-decl name='JumpBuffer' size-in-bits='1600' is-struct='yes' visibility='default' filepath='libnurbs/internals/mysetjmp.h' line='56' column='1' id='type-id-155'>
      <data-member access='public' layout-offset-in-bits='0'>
        <var-decl name='buf' type-id='type-id-156' visibility='default' filepath='libnurbs/internals/mysetjmp.h' line='57' column='1'/>
      </data-member>
    </class-decl>
    <class-decl name='Patchlist' size-in-bits='640' is-struct='yes' visibility='default' filepath='libnurbs/internals/patchlist.h' line='45' column='1' id='type-id-157'>
      <data-member access='private' layout-offset-in-bits='0'>
        <var-decl name='patch' type-id='type-id-158' visibility='default' filepath='libnurbs/internals/patchlist.h' line='63' column='1'/>
      </data-member>
      <data-member access='private' layout-offset-in-bits='64'>
        <var-decl name='notInBbox' type-id='type-id-8' visibility='default' filepath='libnurbs/internals/patchlist.h' line='64' column='1'/>
      </data-member>
      <data-member access='private' layout-offset-in-bits='96'>
        <var-decl name='needsSampling' type-id='type-id-8' visibility='default' filepath='libnurbs/internals/patchlist.h' line='65' column='1'/>
      </data-member>
      <data-member access='private' layout-offset-in-bits='128'>
        <var-decl name='pspec' type-id='type-id-159' visibility='default' filepath='libnurbs/internals/patchlist.h' line='66' column='1'/>
      </data-member>
      <member-function access='public' constructor='yes'>
        <function-decl name='Patchlist' filepath='libnurbs/internals/patchlist.h' line='48' column='1' visibility='default' binding='global' size-in-bits='64'>
          <parameter type-id='type-id-160' is-artificial='yes'/>
          <parameter type-id='type-id-148'/>
          <parameter type-id='type-id-22'/>
          <parameter type-id='type-id-22'/>
          <return type-id='type-id-14'/>
        </function-decl>
      </member-function>
      <member-function access='public' constructor='yes'>
        <function-decl name='Patchlist' filepath='libnurbs/internals/patchlist.h' line='49' column='1' visibility='default' binding='global' size-in-bits='64'>
          <parameter type-id='type-id-160' is-artificial='yes'/>
          <parameter type-id='type-id-161'/>
          <parameter type-id='type-id-8'/>
          <parameter type-id='type-id-1'/>
          <return type-id='type-id-14'/>
        </function-decl>
      </member-function>
      <member-function access='public' destructor='yes'>
        <function-decl name='~Patchlist' filepath='libnurbs/internals/patchlist.h' line='50' column='1' visibility='default' binding='global' size-in-bits='64'>
          <parameter type-id='type-id-160' is-artificial='yes'/>
          <parameter type-id='type-id-8' is-artificial='yes'/>
          <return type-id='type-id-14'/>
        </function-decl>
      </member-function>
      <member-function access='public'>
        <function-decl name='getRanges' mangled-name='_ZN9Patchlist9getRangesEPf' filepath='libnurbs/internals/patchlist.h' line='58' column='1' visibility='default' binding='global' size-in-bits='64'>
          <parameter type-id='type-id-160' is-artificial='yes'/>
          <parameter type-id='type-id-22'/>
          <return type-id='type-id-14'/>
        </function-decl>
      </member-function>
      <member-function access='public'>
        <function-decl name='needsSamplingSubdivision' mangled-name='_ZN9Patchlist24needsSamplingSubdivisionEv' filepath='libnurbs/internals/patchlist.h' line='55' column='1' visibility='default' binding='global' size-in-bits='64'>
          <parameter type-id='type-id-160' is-artificial='yes'/>
          <return type-id='type-id-8'/>
        </function-decl>
      </member-function>
      <member-function access='public'>
        <function-decl name='needsSubdivision' mangled-name='_ZN9Patchlist16needsSubdivisionEi' filepath='libnurbs/internals/patchlist.h' line='56' column='1' visibility='default' binding='global' size-in-bits='64'>
          <parameter type-id='type-id-160' is-artificial='yes'/>
          <parameter type-id='type-id-8'/>
          <return type-id='type-id-8'/>
        </function-decl>
      </member-function>
      <member-function access='public'>
        <function-decl name='needsNonSamplingSubdivision' mangled-name='_ZN9Patchlist27needsNonSamplingSubdivisionEv' filepath='libnurbs/internals/patchlist.h' line='54' column='1' visibility='default' binding='global' size-in-bits='64'>
          <parameter type-id='type-id-160' is-artificial='yes'/>
          <return type-id='type-id-8'/>
        </function-decl>
      </member-function>
      <member-function access='public'>
        <function-decl name='bbox' mangled-name='_ZN9Patchlist4bboxEv' filepath='libnurbs/internals/patchlist.h' line='51' column='1' visibility='default' binding='global' size-in-bits='64'>
          <parameter type-id='type-id-160' is-artificial='yes'/>
          <return type-id='type-id-14'/>
        </function-decl>
      </member-function>
      <member-function access='public'>
        <function-decl name='getstepsize' mangled-name='_ZN9Patchlist11getstepsizeEv' filepath='libnurbs/internals/patchlist.h' line='53' column='1' visibility='default' binding='global' size-in-bits='64'>
          <parameter type-id='type-id-160' is-artificial='yes'/>
          <return type-id='type-id-14'/>
        </function-decl>
      </member-function>
      <member-function access='public'>
        <function-decl name='cullCheck' mangled-name='_ZN9Patchlist9cullCheckEv' filepath='libnurbs/internals/patchlist.h' line='52' column='1' visibility='default' binding='global' size-in-bits='64'>
          <parameter type-id='type-id-160' is-artificial='yes'/>
          <return type-id='type-id-8'/>
        </function-decl>
      </member-function>
      <member-function access='public'>
        <function-decl name='getStepsize' mangled-name='_ZN9Patchlist11getStepsizeEi' filepath='libnurbs/internals/patchlist.h' line='57' column='1' visibility='default' binding='global' size-in-bits='64'>
          <parameter type-id='type-id-160' is-artificial='yes'/>
          <parameter type-id='type-id-8'/>
          <return type-id='type-id-1'/>
        </function-decl>
      </member-function>
      <member-function access='public'>
        <function-decl name='get_uorder' mangled-name='_ZN9Patchlist10get_uorderEv' filepath='libnurbs/internals/patchlist.h' line='60' column='1' visibility='default' binding='global' size-in-bits='64'>
          <parameter type-id='type-id-160' is-artificial='yes'/>
          <return type-id='type-id-8'/>
        </function-decl>
      </member-function>
      <member-function access='public'>
        <function-decl name='get_vorder' mangled-name='_ZN9Patchlist10get_vorderEv' filepath='libnurbs/internals/patchlist.h' line='61' column='1' visibility='default' binding='global' size-in-bits='64'>
          <parameter type-id='type-id-160' is-artificial='yes'/>
          <return type-id='type-id-8'/>
        </function-decl>
      </member-function>
    </class-decl>
    <class-decl name='Quilt' size-in-bits='896' is-struct='yes' visibility='default' filepath='libnurbs/internals/quilt.h' line='64' column='1' id='type-id-162'>
      <base-class access='public' layout-offset-in-bits='0' type-id='type-id-115'/>
      <data-member access='public' layout-offset-in-bits='0'>
        <var-decl name='mapdesc' type-id='type-id-163' visibility='default' filepath='libnurbs/internals/quilt.h' line='67' column='1'/>
      </data-member>
      <data-member access='public' layout-offset-in-bits='64'>
        <var-decl name='cpts' type-id='type-id-22' visibility='default' filepath='libnurbs/internals/quilt.h' line='68' column='1'/>
      </data-member>
      <data-member access='public' layout-offset-in-bits='128'>
        <var-decl name='qspec' type-id='type-id-164' visibility='default' filepath='libnurbs/internals/quilt.h' line='69' column='1'/>
      </data-member>
      <data-member access='public' layout-offset-in-bits='768'>
        <var-decl name='eqspec' type-id='type-id-165' visibility='default' filepath='libnurbs/internals/quilt.h' line='70' column='1'/>
      </data-member>
      <data-member access='public' layout-offset-in-bits='832'>
        <var-decl name='next' type-id='type-id-148' visibility='default' filepath='libnurbs/internals/quilt.h' line='71' column='1'/>
      </data-member>
      <member-function access='public' constructor='yes'>
        <function-decl name='Quilt' filepath='libnurbs/internals/quilt.h' line='66' column='1' visibility='default' binding='global' size-in-bits='64'>
          <parameter type-id='type-id-148' is-artificial='yes'/>
          <parameter type-id='type-id-163'/>
          <return type-id='type-id-14'/>
        </function-decl>
      </member-function>
      <member-function access='public'>
        <function-decl name='getDimension' mangled-name='_ZN5Quilt12getDimensionEv' filepath='libnurbs/internals/quilt.h' line='78' column='1' visibility='default' binding='global' size-in-bits='64'>
          <parameter type-id='type-id-148' is-artificial='yes'/>
          <return type-id='type-id-8'/>
        </function-decl>
      </member-function>
      <member-function access='public'>
        <function-decl name='show' mangled-name='_ZN5Quilt4showEv' filepath='libnurbs/internals/quilt.h' line='87' column='1' visibility='default' binding='global' size-in-bits='64'>
          <parameter type-id='type-id-148' is-artificial='yes'/>
          <return type-id='type-id-14'/>
        </function-decl>
      </member-function>
      <member-function access='public'>
        <function-decl name='select' mangled-name='_ZN5Quilt6selectEPfS0_' filepath='libnurbs/internals/quilt.h' line='77' column='1' visibility='default' binding='global' size-in-bits='64'>
          <parameter type-id='type-id-148' is-artificial='yes'/>
          <parameter type-id='type-id-22'/>
          <parameter type-id='type-id-22'/>
          <return type-id='type-id-14'/>
        </function-decl>
      </member-function>
      <member-function access='public'>
        <function-decl name='findSampleRates' mangled-name='_ZN5Quilt15findSampleRatesER5FlistS1_' filepath='libnurbs/internals/quilt.h' line='86' column='1' visibility='default' binding='global' size-in-bits='64'>
          <parameter type-id='type-id-148' is-artificial='yes'/>
          <parameter type-id='type-id-166'/>
          <parameter type-id='type-id-166'/>
          <return type-id='type-id-14'/>
        </function-decl>
      </member-function>
      <member-function access='public'>
        <function-decl name='findRates' mangled-name='_ZN5Quilt9findRatesER5FlistS1_Pf' filepath='libnurbs/internals/quilt.h' line='85' column='1' visibility='default' binding='global' size-in-bits='64'>
          <parameter type-id='type-id-148' is-artificial='yes'/>
          <parameter type-id='type-id-166'/>
          <parameter type-id='type-id-166'/>
          <parameter type-id='type-id-22'/>
          <return type-id='type-id-14'/>
        </function-decl>
      </member-function>
      <member-function access='public'>
        <function-decl name='getRange' mangled-name='_ZN5Quilt8getRangeEPfS0_iR5Flist' filepath='libnurbs/internals/quilt.h' line='83' column='1' visibility='default' binding='global' size-in-bits='64'>
          <parameter type-id='type-id-148' is-artificial='yes'/>
          <parameter type-id='type-id-22'/>
          <parameter type-id='type-id-22'/>
          <parameter type-id='type-id-8'/>
          <parameter type-id='type-id-166'/>
          <return type-id='type-id-14'/>
        </function-decl>
      </member-function>
      <member-function access='public'>
        <function-decl name='getRange' mangled-name='_ZN5Quilt8getRangeEPfS0_R5Flist' filepath='libnurbs/internals/quilt.h' line='84' column='1' visibility='default' binding='global' size-in-bits='64'>
          <parameter type-id='type-id-148' is-artificial='yes'/>
          <parameter type-id='type-id-22'/>
          <parameter type-id='type-id-22'/>
          <parameter type-id='type-id-166'/>
          <return type-id='type-id-14'/>
        </function-decl>
      </member-function>
      <member-function access='public'>
        <function-decl name='getRange' mangled-name='_ZN5Quilt8getRangeEPfS0_R5FlistS2_' filepath='libnurbs/internals/quilt.h' line='82' column='1' visibility='default' binding='global' size-in-bits='64'>
          <parameter type-id='type-id-148' is-artificial='yes'/>
          <parameter type-id='type-id-22'/>
          <parameter type-id='type-id-22'/>
          <parameter type-id='type-id-166'/>
          <parameter type-id='type-id-166'/>
          <return type-id='type-id-14'/>
        </function-decl>
      </member-function>
      <member-function access='public'>
        <function-decl name='isCulled' mangled-name='_ZN5Quilt8isCulledEv' filepath='libnurbs/internals/quilt.h' line='81' column='1' visibility='default' binding='global' size-in-bits='64'>
          <parameter type-id='type-id-148' is-artificial='yes'/>
          <return type-id='type-id-8'/>
        </function-decl>
      </member-function>
      <member-function access='public'>
        <function-decl name='download' mangled-name='_ZN5Quilt8downloadER7Backend' filepath='libnurbs/internals/quilt.h' line='79' column='1' visibility='default' binding='global' size-in-bits='64'>
          <parameter type-id='type-id-148' is-artificial='yes'/>
          <parameter type-id='type-id-167'/>
          <return type-id='type-id-14'/>
        </function-decl>
      </member-function>
      <member-function access='public'>
        <function-decl name='downloadAll' mangled-name='_ZN5Quilt11downloadAllEPfS0_R7Backend' filepath='libnurbs/internals/quilt.h' line='80' column='1' visibility='default' binding='global' size-in-bits='64'>
          <parameter type-id='type-id-148' is-artificial='yes'/>
          <parameter type-id='type-id-22'/>
          <parameter type-id='type-id-22'/>
          <parameter type-id='type-id-167'/>
          <return type-id='type-id-14'/>
        </function-decl>
      </member-function>
      <member-function access='public'>
        <function-decl name='deleteMe' mangled-name='_ZN5Quilt8deleteMeER4Pool' filepath='libnurbs/internals/quilt.h' line='74' column='1' visibility='default' binding='global' size-in-bits='64'>
          <parameter type-id='type-id-148' is-artificial='yes'/>
          <parameter type-id='type-id-124'/>
          <return type-id='type-id-14'/>
        </function-decl>
      </member-function>
      <member-function access='public'>
        <function-decl name='toBezier' mangled-name='_ZN5Quilt8toBezierER10KnotvectorS1_Pfl' filepath='libnurbs/internals/quilt.h' line='76' column='1' visibility='default' binding='global' size-in-bits='64'>
          <parameter type-id='type-id-148' is-artificial='yes'/>
          <parameter type-id='type-id-168'/>
          <parameter type-id='type-id-168'/>
          <parameter type-id='type-id-49'/>
          <parameter type-id='type-id-38'/>
          <return type-id='type-id-14'/>
        </function-decl>
      </member-function>
      <member-function access='public'>
        <function-decl name='toBezier' mangled-name='_ZN5Quilt8toBezierER10KnotvectorPfl' filepath='libnurbs/internals/quilt.h' line='75' column='1' visibility='default' binding='global' size-in-bits='64'>
          <parameter type-id='type-id-148' is-artificial='yes'/>
          <parameter type-id='type-id-168'/>
          <parameter type-id='type-id-49'/>
          <parameter type-id='type-id-38'/>
          <return type-id='type-id-14'/>
        </function-decl>
      </member-function>
    </class-decl>
    <class-decl name='Renderhints' size-in-bits='256' is-struct='yes' visibility='default' filepath='libnurbs/internals/renderhints.h' line='41' column='1' id='type-id-62'>
      <data-member access='public' layout-offset-in-bits='0'>
        <var-decl name='display_method' type-id='type-id-1' visibility='default' filepath='libnurbs/internals/renderhints.h' line='49' column='1'/>
      </data-member>
      <data-member access='public' layout-offset-in-bits='32'>
        <var-decl name='errorchecking' type-id='type-id-1' visibility='default' filepath='libnurbs/internals/renderhints.h' line='50' column='1'/>
      </data-member>
      <data-member access='public' layout-offset-in-bits='64'>
        <var-decl name='subdivisions' type-id='type-id-1' visibility='default' filepath='libnurbs/internals/renderhints.h' line='51' column='1'/>
      </data-member>
      <data-member access='public' layout-offset-in-bits='96'>
        <var-decl name='tmp1' type-id='type-id-1' visibility='default' filepath='libnurbs/internals/renderhints.h' line='52' column='1'/>
      </data-member>
      <data-member access='public' layout-offset-in-bits='128'>
        <var-decl name='displaydomain' type-id='type-id-8' visibility='default' filepath='libnurbs/internals/renderhints.h' line='54' column='1'/>
      </data-member>
      <data-member access='public' layout-offset-in-bits='160'>
        <var-decl name='maxsubdivisions' type-id='type-id-8' visibility='default' filepath='libnurbs/internals/renderhints.h' line='55' column='1'/>
      </data-member>
      <data-member access='public' layout-offset-in-bits='192'>
        <var-decl name='wiretris' type-id='type-id-8' visibility='default' filepath='libnurbs/internals/renderhints.h' line='56' column='1'/>
      </data-member>
      <data-member access='public' layout-offset-in-bits='224'>
        <var-decl name='wirequads' type-id='type-id-8' visibility='default' filepath='libnurbs/internals/renderhints.h' line='57' column='1'/>
      </data-member>
      <member-function access='public' constructor='yes'>
        <function-decl name='Renderhints' filepath='libnurbs/internals/renderhints.h' line='43' column='1' visibility='default' binding='global' size-in-bits='64'>
          <parameter type-id='type-id-169' is-artificial='yes'/>
          <return type-id='type-id-14'/>
        </function-decl>
      </member-function>
      <member-function access='public'>
        <function-decl name='init' mangled-name='_ZN11Renderhints4initEv' filepath='libnurbs/internals/renderhints.h' line='44' column='1' visibility='default' binding='global' size-in-bits='64'>
          <parameter type-id='type-id-169' is-artificial='yes'/>
          <return type-id='type-id-14'/>
        </function-decl>
      </member-function>
      <member-function access='public'>
        <function-decl name='isProperty' mangled-name='_ZN11Renderhints10isPropertyEl' filepath='libnurbs/internals/renderhints.h' line='45' column='1' visibility='default' binding='global' size-in-bits='64'>
          <parameter type-id='type-id-169' is-artificial='yes'/>
          <parameter type-id='type-id-38'/>
          <return type-id='type-id-8'/>
        </function-decl>
      </member-function>
      <member-function access='public'>
        <function-decl name='setProperty' mangled-name='_ZN11Renderhints11setPropertyElf' filepath='libnurbs/internals/renderhints.h' line='47' column='1' visibility='default' binding='global' size-in-bits='64'>
          <parameter type-id='type-id-169' is-artificial='yes'/>
          <parameter type-id='type-id-38'/>
          <parameter type-id='type-id-1'/>
          <return type-id='type-id-14'/>
        </function-decl>
      </member-function>
      <member-function access='public'>
        <function-decl name='getProperty' mangled-name='_ZN11Renderhints11getPropertyEl' filepath='libnurbs/internals/renderhints.h' line='46' column='1' visibility='default' binding='global' size-in-bits='64'>
          <parameter type-id='type-id-169' is-artificial='yes'/>
          <parameter type-id='type-id-38'/>
          <return type-id='type-id-1'/>
        </function-decl>
      </member-function>
    </class-decl>
    <class-decl name='Subdivider' size-in-bits='20416' visibility='default' filepath='libnurbs/internals/subdivider.h' line='55' column='1' id='type-id-65'>
      <member-type access='private'>
        <enum-decl name='dir' filepath='libnurbs/internals/subdivider.h' line='105' column='1' id='type-id-170'>
          <underlying-type type-id='type-id-12'/>
          <enumerator name='down' value='0'/>
          <enumerator name='same' value='1'/>
          <enumerator name='up' value='2'/>
          <enumerator name='none' value='3'/>
        </enum-decl>
      </member-type>
      <data-member access='private' layout-offset-in-bits='0'>
        <var-decl name='slicer' type-id='type-id-171' visibility='default' filepath='libnurbs/internals/subdivider.h' line='112' column='1'/>
      </data-member>
      <data-member access='private' layout-offset-in-bits='8064'>
        <var-decl name='arctessellator' type-id='type-id-135' visibility='default' filepath='libnurbs/internals/subdivider.h' line='113' column='1'/>
      </data-member>
      <data-member access='private' layout-offset-in-bits='8192'>
        <var-decl name='arcpool' type-id='type-id-67' visibility='default' filepath='libnurbs/internals/subdivider.h' line='114' column='1'/>
      </data-member>
      <data-member access='private' layout-offset-in-bits='10688'>
        <var-decl name='bezierarcpool' type-id='type-id-67' visibility='default' filepath='libnurbs/internals/subdivider.h' line='115' column='1'/>
      </data-member>
      <data-member access='private' layout-offset-in-bits='13184'>
        <var-decl name='pwlarcpool' type-id='type-id-67' visibility='default' filepath='libnurbs/internals/subdivider.h' line='116' column='1'/>
      </data-member>
      <data-member access='private' layout-offset-in-bits='15680'>
        <var-decl name='trimvertexpool' type-id='type-id-68' visibility='default' filepath='libnurbs/internals/subdivider.h' line='117' column='1'/>
      </data-member>
      <data-member access='private' layout-offset-in-bits='18304'>
        <var-decl name='jumpbuffer' type-id='type-id-66' visibility='default' filepath='libnurbs/internals/subdivider.h' line='119' column='1'/>
      </data-member>
      <data-member access='private' layout-offset-in-bits='18368'>
        <var-decl name='renderhints' type-id='type-id-172' visibility='default' filepath='libnurbs/internals/subdivider.h' line='120' column='1'/>
      </data-member>
      <data-member access='private' layout-offset-in-bits='18432'>
        <var-decl name='backend' type-id='type-id-167' visibility='default' filepath='libnurbs/internals/subdivider.h' line='121' column='1'/>
      </data-member>
      <data-member access='private' layout-offset-in-bits='18496'>
        <var-decl name='initialbin' type-id='type-id-142' visibility='default' filepath='libnurbs/internals/subdivider.h' line='123' column='1'/>
      </data-member>
      <data-member access='private' layout-offset-in-bits='18624'>
        <var-decl name='pjarc' type-id='type-id-112' visibility='default' filepath='libnurbs/internals/subdivider.h' line='124' column='1'/>
      </data-member>
      <data-member access='private' layout-offset-in-bits='18688'>
        <var-decl name='s_index' type-id='type-id-8' visibility='default' filepath='libnurbs/internals/subdivider.h' line='125' column='1'/>
      </data-member>
      <data-member access='private' layout-offset-in-bits='18720'>
        <var-decl name='t_index' type-id='type-id-8' visibility='default' filepath='libnurbs/internals/subdivider.h' line='126' column='1'/>
      </data-member>
      <data-member access='private' layout-offset-in-bits='18752'>
        <var-decl name='qlist' type-id='type-id-148' visibility='default' filepath='libnurbs/internals/subdivider.h' line='127' column='1'/>
      </data-member>
      <data-member access='private' layout-offset-in-bits='18816'>
        <var-decl name='spbrkpts' type-id='type-id-150' visibility='default' filepath='libnurbs/internals/subdivider.h' line='128' column='1'/>
      </data-member>
      <data-member access='private' layout-offset-in-bits='19136'>
        <var-decl name='tpbrkpts' type-id='type-id-150' visibility='default' filepath='libnurbs/internals/subdivider.h' line='129' column='1'/>
      </data-member>
      <data-member access='private' layout-offset-in-bits='19456'>
        <var-decl name='smbrkpts' type-id='type-id-150' visibility='default' filepath='libnurbs/internals/subdivider.h' line='130' column='1'/>
      </data-member>
      <data-member access='private' layout-offset-in-bits='19776'>
        <var-decl name='tmbrkpts' type-id='type-id-150' visibility='default' filepath='libnurbs/internals/subdivider.h' line='131' column='1'/>
      </data-member>
      <data-member access='private' layout-offset-in-bits='20096'>
        <var-decl name='stepsizes' type-id='type-id-131' visibility='default' filepath='libnurbs/internals/subdivider.h' line='132' column='1'/>
      </data-member>
      <data-member access='private' layout-offset-in-bits='20224'>
        <var-decl name='showDegenerate' type-id='type-id-8' visibility='default' filepath='libnurbs/internals/subdivider.h' line='133' column='1'/>
      </data-member>
      <data-member access='private' layout-offset-in-bits='20256'>
        <var-decl name='isArcTypeBezier' type-id='type-id-8' visibility='default' filepath='libnurbs/internals/subdivider.h' line='134' column='1'/>
      </data-member>
      <data-member access='private' layout-offset-in-bits='20288'>
        <var-decl name='domain_distance_u_rate' type-id='type-id-1' visibility='default' filepath='libnurbs/internals/subdivider.h' line='188' column='1'/>
      </data-member>
      <data-member access='private' layout-offset-in-bits='20320'>
        <var-decl name='domain_distance_v_rate' type-id='type-id-1' visibility='default' filepath='libnurbs/internals/subdivider.h' line='189' column='1'/>
      </data-member>
      <data-member access='private' layout-offset-in-bits='20352'>
        <var-decl name='is_domain_distance_sampling' type-id='type-id-8' visibility='default' filepath='libnurbs/internals/subdivider.h' line='190' column='1'/>
      </data-member>
      <member-function access='private' constructor='yes'>
        <function-decl name='Subdivider' filepath='libnurbs/internals/subdivider.h' line='57' column='1' visibility='default' binding='global' size-in-bits='64'>
          <parameter type-id='type-id-173' is-artificial='yes'/>
          <parameter type-id='type-id-172'/>
          <parameter type-id='type-id-167'/>
          <return type-id='type-id-14'/>
        </function-decl>
      </member-function>
      <member-function access='private' destructor='yes'>
        <function-decl name='~Subdivider' filepath='libnurbs/internals/subdivider.h' line='58' column='1' visibility='default' binding='global' size-in-bits='64'>
          <parameter type-id='type-id-173' is-artificial='yes'/>
          <parameter type-id='type-id-8' is-artificial='yes'/>
          <return type-id='type-id-14'/>
        </function-decl>
      </member-function>
      <member-function access='private' static='yes'>
        <function-decl name='bbox' mangled-name='_ZN10Subdivider4bboxEffffff' filepath='libnurbs/internals/subdivider.h' line='168' column='1' visibility='default' binding='global' size-in-bits='64'>
          <parameter type-id='type-id-1'/>
          <parameter type-id='type-id-1'/>
          <parameter type-id='type-id-1'/>
          <parameter type-id='type-id-1'/>
          <parameter type-id='type-id-1'/>
          <parameter type-id='type-id-1'/>
          <return type-id='type-id-8'/>
        </function-decl>
      </member-function>
      <member-function access='private' static='yes'>
        <function-decl name='ccw' mangled-name='_ZN10Subdivider3ccwEP10TrimVertexS1_S1_' filepath='libnurbs/internals/subdivider.h' line='169' column='1' visibility='default' binding='global' size-in-bits='64'>
          <parameter type-id='type-id-127'/>
          <parameter type-id='type-id-127'/>
          <parameter type-id='type-id-127'/>
          <return type-id='type-id-8'/>
        </function-decl>
      </member-function>
      <member-function access='private'>
        <function-decl name='bbox' mangled-name='_ZN10Subdivider4bboxEP10TrimVertexS1_S1_i' filepath='libnurbs/internals/subdivider.h' line='167' column='1' visibility='default' binding='global' size-in-bits='64'>
          <parameter type-id='type-id-173' is-artificial='yes'/>
          <parameter type-id='type-id-127'/>
          <parameter type-id='type-id-127'/>
          <parameter type-id='type-id-127'/>
          <parameter type-id='type-id-8'/>
          <return type-id='type-id-8'/>
        </function-decl>
      </member-function>
      <member-function access='private'>
        <function-decl name='ccwTurn_tl' mangled-name='_ZN10Subdivider10ccwTurn_tlEP3ArcS1_' filepath='libnurbs/internals/subdivider.h' line='77' column='1' visibility='default' binding='global' size-in-bits='64'>
          <parameter type-id='type-id-173' is-artificial='yes'/>
          <parameter type-id='type-id-112'/>
          <parameter type-id='type-id-112'/>
          <return type-id='type-id-8'/>
        </function-decl>
      </member-function>
      <member-function access='private'>
        <function-decl name='ccwTurn_sr' mangled-name='_ZN10Subdivider10ccwTurn_srEP3ArcS1_' filepath='libnurbs/internals/subdivider.h' line='76' column='1' visibility='default' binding='global' size-in-bits='64'>
          <parameter type-id='type-id-173' is-artificial='yes'/>
          <parameter type-id='type-id-112'/>
          <parameter type-id='type-id-112'/>
          <return type-id='type-id-8'/>
        </function-decl>
      </member-function>
      <member-function access='private'>
        <function-decl name='ccwTurn_sl' mangled-name='_ZN10Subdivider10ccwTurn_slEP3ArcS1_' filepath='libnurbs/internals/subdivider.h' line='75' column='1' visibility='default' binding='global' size-in-bits='64'>
          <parameter type-id='type-id-173' is-artificial='yes'/>
          <parameter type-id='type-id-112'/>
          <parameter type-id='type-id-112'/>
          <return type-id='type-id-8'/>
        </function-decl>
      </member-function>
      <member-function access='private'>
        <function-decl name='ccwTurn_tr' mangled-name='_ZN10Subdivider10ccwTurn_trEP3ArcS1_' filepath='libnurbs/internals/subdivider.h' line='78' column='1' visibility='default' binding='global' size-in-bits='64'>
          <parameter type-id='type-id-173' is-artificial='yes'/>
          <parameter type-id='type-id-112'/>
          <parameter type-id='type-id-112'/>
          <return type-id='type-id-8'/>
        </function-decl>
      </member-function>
      <member-function access='private'>
        <function-decl name='samplingSplit' mangled-name='_ZN10Subdivider13samplingSplitER9Curvelisti' filepath='libnurbs/internals/subdivider.h' line='136' column='1' visibility='default' binding='global' size-in-bits='64'>
          <parameter type-id='type-id-173' is-artificial='yes'/>
          <parameter type-id='type-id-149'/>
          <parameter type-id='type-id-8'/>
          <return type-id='type-id-14'/>
        </function-decl>
      </member-function>
      <member-function access='private'>
        <function-decl name='drawCurves' mangled-name='_ZN10Subdivider10drawCurvesEv' filepath='libnurbs/internals/subdivider.h' line='72' column='1' visibility='default' binding='global' size-in-bits='64'>
          <parameter type-id='type-id-173' is-artificial='yes'/>
          <return type-id='type-id-14'/>
        </function-decl>
      </member-function>
      <member-function access='private'>
        <function-decl name='showingDegenerate' mangled-name='_ZN10Subdivider17showingDegenerateEv' filepath='libnurbs/internals/subdivider.h' line='155' column='1' visibility='default' binding='global' size-in-bits='64'>
          <parameter type-id='type-id-173' is-artificial='yes'/>
          <return type-id='type-id-8'/>
        </function-decl>
      </member-function>
      <member-function access='private'>
        <function-decl name='classify_headonright_t' mangled-name='_ZN10Subdivider22classify_headonright_tER3BinS1_S1_f' filepath='libnurbs/internals/subdivider.h' line='102' column='1' visibility='default' binding='global' size-in-bits='64'>
          <parameter type-id='type-id-173' is-artificial='yes'/>
          <parameter type-id='type-id-174'/>
          <parameter type-id='type-id-174'/>
          <parameter type-id='type-id-174'/>
          <parameter type-id='type-id-1'/>
          <return type-id='type-id-14'/>
        </function-decl>
      </member-function>
      <member-function access='private'>
        <function-decl name='classify_tailonright_t' mangled-name='_ZN10Subdivider22classify_tailonright_tER3BinS1_S1_f' filepath='libnurbs/internals/subdivider.h' line='103' column='1' visibility='default' binding='global' size-in-bits='64'>
          <parameter type-id='type-id-173' is-artificial='yes'/>
          <parameter type-id='type-id-174'/>
          <parameter type-id='type-id-174'/>
          <parameter type-id='type-id-174'/>
          <parameter type-id='type-id-1'/>
          <return type-id='type-id-14'/>
        </function-decl>
      </member-function>
      <member-function access='private'>
        <function-decl name='classify_headonright_s' mangled-name='_ZN10Subdivider22classify_headonright_sER3BinS1_S1_f' filepath='libnurbs/internals/subdivider.h' line='98' column='1' visibility='default' binding='global' size-in-bits='64'>
          <parameter type-id='type-id-173' is-artificial='yes'/>
          <parameter type-id='type-id-174'/>
          <parameter type-id='type-id-174'/>
          <parameter type-id='type-id-174'/>
          <parameter type-id='type-id-1'/>
          <return type-id='type-id-14'/>
        </function-decl>
      </member-function>
      <member-function access='private'>
        <function-decl name='classify_tailonright_s' mangled-name='_ZN10Subdivider22classify_tailonright_sER3BinS1_S1_f' filepath='libnurbs/internals/subdivider.h' line='99' column='1' visibility='default' binding='global' size-in-bits='64'>
          <parameter type-id='type-id-173' is-artificial='yes'/>
          <parameter type-id='type-id-174'/>
          <parameter type-id='type-id-174'/>
          <parameter type-id='type-id-174'/>
          <parameter type-id='type-id-1'/>
          <return type-id='type-id-14'/>
        </function-decl>
      </member-function>
      <member-function access='private'>
        <function-decl name='classify_headonleft_t' mangled-name='_ZN10Subdivider21classify_headonleft_tER3BinS1_S1_f' filepath='libnurbs/internals/subdivider.h' line='100' column='1' visibility='default' binding='global' size-in-bits='64'>
          <parameter type-id='type-id-173' is-artificial='yes'/>
          <parameter type-id='type-id-174'/>
          <parameter type-id='type-id-174'/>
          <parameter type-id='type-id-174'/>
          <parameter type-id='type-id-1'/>
          <return type-id='type-id-14'/>
        </function-decl>
      </member-function>
      <member-function access='private'>
        <function-decl name='classify_tailonleft_t' mangled-name='_ZN10Subdivider21classify_tailonleft_tER3BinS1_S1_f' filepath='libnurbs/internals/subdivider.h' line='101' column='1' visibility='default' binding='global' size-in-bits='64'>
          <parameter type-id='type-id-173' is-artificial='yes'/>
          <parameter type-id='type-id-174'/>
          <parameter type-id='type-id-174'/>
          <parameter type-id='type-id-174'/>
          <parameter type-id='type-id-1'/>
          <return type-id='type-id-14'/>
        </function-decl>
      </member-function>
      <member-function access='private'>
        <function-decl name='classify_headonleft_s' mangled-name='_ZN10Subdivider21classify_headonleft_sER3BinS1_S1_f' filepath='libnurbs/internals/subdivider.h' line='96' column='1' visibility='default' binding='global' size-in-bits='64'>
          <parameter type-id='type-id-173' is-artificial='yes'/>
          <parameter type-id='type-id-174'/>
          <parameter type-id='type-id-174'/>
          <parameter type-id='type-id-174'/>
          <parameter type-id='type-id-1'/>
          <return type-id='type-id-14'/>
        </function-decl>
      </member-function>
      <member-function access='private'>
        <function-decl name='classify_tailonleft_s' mangled-name='_ZN10Subdivider21classify_tailonleft_sER3BinS1_S1_f' filepath='libnurbs/internals/subdivider.h' line='97' column='1' visibility='default' binding='global' size-in-bits='64'>
          <parameter type-id='type-id-173' is-artificial='yes'/>
          <parameter type-id='type-id-174'/>
          <parameter type-id='type-id-174'/>
          <parameter type-id='type-id-174'/>
          <parameter type-id='type-id-1'/>
          <return type-id='type-id-14'/>
        </function-decl>
      </member-function>
      <member-function access='private'>
        <function-decl name='arc_split' mangled-name='_ZN10Subdivider9arc_splitEP3Arcifi' filepath='libnurbs/internals/subdivider.h' line='172' column='1' visibility='default' binding='global' size-in-bits='64'>
          <parameter type-id='type-id-173' is-artificial='yes'/>
          <parameter type-id='type-id-112'/>
          <parameter type-id='type-id-8'/>
          <parameter type-id='type-id-1'/>
          <parameter type-id='type-id-8'/>
          <return type-id='type-id-8'/>
        </function-decl>
      </member-function>
      <member-function access='private'>
        <function-decl name='partition' mangled-name='_ZN10Subdivider9partitionER3BinS1_S1_S1_S1_if' filepath='libnurbs/internals/subdivider.h' line='162' column='1' visibility='default' binding='global' size-in-bits='64'>
          <parameter type-id='type-id-173' is-artificial='yes'/>
          <parameter type-id='type-id-174'/>
          <parameter type-id='type-id-174'/>
          <parameter type-id='type-id-174'/>
          <parameter type-id='type-id-174'/>
          <parameter type-id='type-id-174'/>
          <parameter type-id='type-id-8'/>
          <parameter type-id='type-id-1'/>
          <return type-id='type-id-14'/>
        </function-decl>
      </member-function>
      <member-function access='private'>
        <function-decl name='isMonotone' mangled-name='_ZN10Subdivider10isMonotoneEP3Arc' filepath='libnurbs/internals/subdivider.h' line='108' column='1' visibility='default' binding='global' size-in-bits='64'>
          <parameter type-id='type-id-173' is-artificial='yes'/>
          <parameter type-id='type-id-112'/>
          <return type-id='type-id-8'/>
        </function-decl>
      </member-function>
      <member-function access='private'>
        <function-decl name='monotonize' mangled-name='_ZN10Subdivider10monotonizeEP3ArcR3Bin' filepath='libnurbs/internals/subdivider.h' line='107' column='1' visibility='default' binding='global' size-in-bits='64'>
          <parameter type-id='type-id-173' is-artificial='yes'/>
          <parameter type-id='type-id-112'/>
          <parameter type-id='type-id-174'/>
          <return type-id='type-id-14'/>
        </function-decl>
      </member-function>
      <member-function access='private'>
        <function-decl name='tessellate' mangled-name='_ZN10Subdivider10tessellateEP3Arcf' filepath='libnurbs/internals/subdivider.h' line='106' column='1' visibility='default' binding='global' size-in-bits='64'>
          <parameter type-id='type-id-173' is-artificial='yes'/>
          <parameter type-id='type-id-112'/>
          <parameter type-id='type-id-1'/>
          <return type-id='type-id-14'/>
        </function-decl>
      </member-function>
      <member-function access='private'>
        <function-decl name='decompose' mangled-name='_ZN10Subdivider9decomposeER3Binf' filepath='libnurbs/internals/subdivider.h' line='109' column='1' visibility='default' binding='global' size-in-bits='64'>
          <parameter type-id='type-id-173' is-artificial='yes'/>
          <parameter type-id='type-id-174'/>
          <parameter type-id='type-id-1'/>
          <return type-id='type-id-8'/>
        </function-decl>
      </member-function>
      <member-function access='private'>
        <function-decl name='set_domain_distance_u_rate' mangled-name='_ZN10Subdivider26set_domain_distance_u_rateEf' filepath='libnurbs/internals/subdivider.h' line='82' column='1' visibility='default' binding='global' size-in-bits='64'>
          <parameter type-id='type-id-173' is-artificial='yes'/>
          <parameter type-id='type-id-1'/>
          <return type-id='type-id-14'/>
        </function-decl>
      </member-function>
      <member-function access='private'>
        <function-decl name='set_domain_distance_v_rate' mangled-name='_ZN10Subdivider26set_domain_distance_v_rateEf' filepath='libnurbs/internals/subdivider.h' line='86' column='1' visibility='default' binding='global' size-in-bits='64'>
          <parameter type-id='type-id-173' is-artificial='yes'/>
          <parameter type-id='type-id-1'/>
          <return type-id='type-id-14'/>
        </function-decl>
      </member-function>
      <member-function access='private'>
        <function-decl name='set_is_domain_distance_sampling' mangled-name='_ZN10Subdivider31set_is_domain_distance_samplingEi' filepath='libnurbs/internals/subdivider.h' line='90' column='1' visibility='default' binding='global' size-in-bits='64'>
          <parameter type-id='type-id-173' is-artificial='yes'/>
          <parameter type-id='type-id-8' is-artificial='yes'/>
          <return type-id='type-id-14'/>
        </function-decl>
      </member-function>
      <member-function access='private'>
        <function-decl name='beginTrims' mangled-name='_ZN10Subdivider10beginTrimsEv' filepath='libnurbs/internals/subdivider.h' line='61' column='1' visibility='default' binding='global' size-in-bits='64'>
          <parameter type-id='type-id-173' is-artificial='yes'/>
          <return type-id='type-id-14'/>
        </function-decl>
      </member-function>
      <member-function access='private'>
        <function-decl name='beginLoop' mangled-name='_ZN10Subdivider9beginLoopEv' filepath='libnurbs/internals/subdivider.h' line='62' column='1' visibility='default' binding='global' size-in-bits='64'>
          <parameter type-id='type-id-173' is-artificial='yes'/>
          <return type-id='type-id-14'/>
        </function-decl>
      </member-function>
      <member-function access='private'>
        <function-decl name='endLoop' mangled-name='_ZN10Subdivider7endLoopEv' filepath='libnurbs/internals/subdivider.h' line='65' column='1' visibility='default' binding='global' size-in-bits='64'>
          <parameter type-id='type-id-173' is-artificial='yes'/>
          <return type-id='type-id-14'/>
        </function-decl>
      </member-function>
      <member-function access='private'>
        <function-decl name='endTrims' mangled-name='_ZN10Subdivider8endTrimsEv' filepath='libnurbs/internals/subdivider.h' line='66' column='1' visibility='default' binding='global' size-in-bits='64'>
          <parameter type-id='type-id-173' is-artificial='yes'/>
          <return type-id='type-id-14'/>
        </function-decl>
      </member-function>
      <member-function access='private'>
        <function-decl name='endQuilts' mangled-name='_ZN10Subdivider9endQuiltsEv' filepath='libnurbs/internals/subdivider.h' line='70' column='1' visibility='default' binding='global' size-in-bits='64'>
          <parameter type-id='type-id-173' is-artificial='yes'/>
          <return type-id='type-id-14'/>
        </function-decl>
      </member-function>
      <member-function access='private'>
        <function-decl name='simple_link' mangled-name='_ZN10Subdivider11simple_linkEP3ArcS1_' filepath='libnurbs/internals/subdivider.h' line='176' column='1' visibility='default' binding='global' size-in-bits='64'>
          <parameter type-id='type-id-173' is-artificial='yes'/>
          <parameter type-id='type-id-112'/>
          <parameter type-id='type-id-112'/>
          <return type-id='type-id-14'/>
        </function-decl>
      </member-function>
      <member-function access='private'>
        <function-decl name='isBezierArcType' mangled-name='_ZN10Subdivider15isBezierArcTypeEv' filepath='libnurbs/internals/subdivider.h' line='158' column='1' visibility='default' binding='global' size-in-bits='64'>
          <parameter type-id='type-id-173' is-artificial='yes'/>
          <return type-id='type-id-8'/>
        </function-decl>
      </member-function>
      <member-function access='private'>
        <function-decl name='link' mangled-name='_ZN10Subdivider4linkEP3ArcS1_S1_S1_' filepath='libnurbs/internals/subdivider.h' line='175' column='1' visibility='default' binding='global' size-in-bits='64'>
          <parameter type-id='type-id-173' is-artificial='yes'/>
          <parameter type-id='type-id-112'/>
          <parameter type-id='type-id-112'/>
          <parameter type-id='type-id-112'/>
          <parameter type-id='type-id-112'/>
          <return type-id='type-id-14'/>
        </function-decl>
      </member-function>
      <member-function access='private'>
        <function-decl name='check_t' mangled-name='_ZN10Subdivider7check_tEP3ArcS1_' filepath='libnurbs/internals/subdivider.h' line='174' column='1' visibility='default' binding='global' size-in-bits='64'>
          <parameter type-id='type-id-173' is-artificial='yes'/>
          <parameter type-id='type-id-112'/>
          <parameter type-id='type-id-112'/>
          <return type-id='type-id-14'/>
        </function-decl>
      </member-function>
      <member-function access='private'>
        <function-decl name='check_s' mangled-name='_ZN10Subdivider7check_sEP3ArcS1_' filepath='libnurbs/internals/subdivider.h' line='173' column='1' visibility='default' binding='global' size-in-bits='64'>
          <parameter type-id='type-id-173' is-artificial='yes'/>
          <parameter type-id='type-id-112'/>
          <parameter type-id='type-id-112'/>
          <return type-id='type-id-14'/>
        </function-decl>
      </member-function>
      <member-function access='private'>
        <function-decl name='join_t' mangled-name='_ZN10Subdivider6join_tER3BinS1_P3ArcS3_' filepath='libnurbs/internals/subdivider.h' line='171' column='1' visibility='default' binding='global' size-in-bits='64'>
          <parameter type-id='type-id-173' is-artificial='yes'/>
          <parameter type-id='type-id-174'/>
          <parameter type-id='type-id-174'/>
          <parameter type-id='type-id-112'/>
          <parameter type-id='type-id-112'/>
          <return type-id='type-id-14'/>
        </function-decl>
      </member-function>
      <member-function access='private'>
        <function-decl name='join_s' mangled-name='_ZN10Subdivider6join_sER3BinS1_P3ArcS3_' filepath='libnurbs/internals/subdivider.h' line='170' column='1' visibility='default' binding='global' size-in-bits='64'>
          <parameter type-id='type-id-173' is-artificial='yes'/>
          <parameter type-id='type-id-174'/>
          <parameter type-id='type-id-174'/>
          <parameter type-id='type-id-112'/>
          <parameter type-id='type-id-112'/>
          <return type-id='type-id-14'/>
        </function-decl>
      </member-function>
      <member-function access='private'>
        <function-decl name='split' mangled-name='_ZN10Subdivider5splitER3BinS1_S1_if' filepath='libnurbs/internals/subdivider.h' line='150' column='1' visibility='default' binding='global' size-in-bits='64'>
          <parameter type-id='type-id-173' is-artificial='yes'/>
          <parameter type-id='type-id-174'/>
          <parameter type-id='type-id-174'/>
          <parameter type-id='type-id-174'/>
          <parameter type-id='type-id-8'/>
          <parameter type-id='type-id-1'/>
          <return type-id='type-id-14'/>
        </function-decl>
      </member-function>
      <member-function access='private'>
        <function-decl name='setArcTypePwl' mangled-name='_ZN10Subdivider13setArcTypePwlEv' filepath='libnurbs/internals/subdivider.h' line='157' column='1' visibility='default' binding='global' size-in-bits='64'>
          <parameter type-id='type-id-173' is-artificial='yes'/>
          <return type-id='type-id-14'/>
        </function-decl>
      </member-function>
      <member-function access='private'>
        <function-decl name='setDegenerate' mangled-name='_ZN10Subdivider13setDegenerateEv' filepath='libnurbs/internals/subdivider.h' line='153' column='1' visibility='default' binding='global' size-in-bits='64'>
          <parameter type-id='type-id-173' is-artificial='yes'/>
          <return type-id='type-id-14'/>
        </function-decl>
      </member-function>
      <member-function access='private'>
        <function-decl name='setArcTypeBezier' mangled-name='_ZN10Subdivider16setArcTypeBezierEv' filepath='libnurbs/internals/subdivider.h' line='156' column='1' visibility='default' binding='global' size-in-bits='64'>
          <parameter type-id='type-id-173' is-artificial='yes'/>
          <return type-id='type-id-14'/>
        </function-decl>
      </member-function>
      <member-function access='private'>
        <function-decl name='setNonDegenerate' mangled-name='_ZN10Subdivider16setNonDegenerateEv' filepath='libnurbs/internals/subdivider.h' line='154' column='1' visibility='default' binding='global' size-in-bits='64'>
          <parameter type-id='type-id-173' is-artificial='yes'/>
          <return type-id='type-id-14'/>
        </function-decl>
      </member-function>
      <member-function access='private'>
        <function-decl name='setJumpbuffer' mangled-name='_ZN10Subdivider13setJumpbufferEP10JumpBuffer' filepath='libnurbs/internals/subdivider.h' line='80' column='1' visibility='default' binding='global' size-in-bits='64'>
          <parameter type-id='type-id-173' is-artificial='yes'/>
          <parameter type-id='type-id-66'/>
          <return type-id='type-id-14'/>
        </function-decl>
      </member-function>
      <member-function access='private'>
        <function-decl name='beginQuilts' mangled-name='_ZN10Subdivider11beginQuiltsEv' filepath='libnurbs/internals/subdivider.h' line='68' column='1' visibility='default' binding='global' size-in-bits='64'>
          <parameter type-id='type-id-173' is-artificial='yes'/>
          <return type-id='type-id-14'/>
        </function-decl>
      </member-function>
      <member-function access='private'>
        <function-decl name='addQuilt' mangled-name='_ZN10Subdivider8addQuiltEP5Quilt' filepath='libnurbs/internals/subdivider.h' line='69' column='1' visibility='default' binding='global' size-in-bits='64'>
          <parameter type-id='type-id-173' is-artificial='yes'/>
          <parameter type-id='type-id-148'/>
          <return type-id='type-id-14'/>
        </function-decl>
      </member-function>
      <member-function access='private'>
        <function-decl name='tessellate' mangled-name='_ZN10Subdivider10tessellateER3Binffff' filepath='libnurbs/internals/subdivider.h' line='151' column='1' visibility='default' binding='global' size-in-bits='64'>
          <parameter type-id='type-id-173' is-artificial='yes'/>
          <parameter type-id='type-id-174'/>
          <parameter type-id='type-id-1'/>
          <parameter type-id='type-id-1'/>
          <parameter type-id='type-id-1'/>
          <parameter type-id='type-id-1'/>
          <return type-id='type-id-14'/>
        </function-decl>
      </member-function>
      <member-function access='private'>
        <function-decl name='freejarcs' mangled-name='_ZN10Subdivider9freejarcsER3Bin' filepath='libnurbs/internals/subdivider.h' line='148' column='1' visibility='default' binding='global' size-in-bits='64'>
          <parameter type-id='type-id-173' is-artificial='yes'/>
          <parameter type-id='type-id-174'/>
          <return type-id='type-id-14'/>
        </function-decl>
      </member-function>
      <member-function access='private'>
        <function-decl name='outline' mangled-name='_ZN10Subdivider7outlineER3Bin' filepath='libnurbs/internals/subdivider.h' line='147' column='1' visibility='default' binding='global' size-in-bits='64'>
          <parameter type-id='type-id-173' is-artificial='yes'/>
          <parameter type-id='type-id-174'/>
          <return type-id='type-id-14'/>
        </function-decl>
      </member-function>
      <member-function access='private'>
        <function-decl name='render' mangled-name='_ZN10Subdivider6renderER3Bin' filepath='libnurbs/internals/subdivider.h' line='149' column='1' visibility='default' binding='global' size-in-bits='64'>
          <parameter type-id='type-id-173' is-artificial='yes'/>
          <parameter type-id='type-id-174'/>
          <return type-id='type-id-14'/>
        </function-decl>
      </member-function>
      <member-function access='private'>
        <function-decl name='findIrregularT' mangled-name='_ZN10Subdivider14findIrregularTER3Bin' filepath='libnurbs/internals/subdivider.h' line='164' column='1' visibility='default' binding='global' size-in-bits='64'>
          <parameter type-id='type-id-173' is-artificial='yes'/>
          <parameter type-id='type-id-174'/>
          <return type-id='type-id-14'/>
        </function-decl>
      </member-function>
      <member-function access='private'>
        <function-decl name='findIrregularS' mangled-name='_ZN10Subdivider14findIrregularSER3Bin' filepath='libnurbs/internals/subdivider.h' line='163' column='1' visibility='default' binding='global' size-in-bits='64'>
          <parameter type-id='type-id-173' is-artificial='yes'/>
          <parameter type-id='type-id-174'/>
          <return type-id='type-id-14'/>
        </function-decl>
      </member-function>
      <member-function access='private'>
        <function-decl name='monosplitInT' mangled-name='_ZN10Subdivider12monosplitInTER3Binii' filepath='libnurbs/internals/subdivider.h' line='145' column='1' visibility='default' binding='global' size-in-bits='64'>
          <parameter type-id='type-id-173' is-artificial='yes'/>
          <parameter type-id='type-id-174'/>
          <parameter type-id='type-id-8'/>
          <parameter type-id='type-id-8'/>
          <return type-id='type-id-14'/>
        </function-decl>
      </member-function>
      <member-function access='private'>
        <function-decl name='monosplitInS' mangled-name='_ZN10Subdivider12monosplitInSER3Binii' filepath='libnurbs/internals/subdivider.h' line='144' column='1' visibility='default' binding='global' size-in-bits='64'>
          <parameter type-id='type-id-173' is-artificial='yes'/>
          <parameter type-id='type-id-174'/>
          <parameter type-id='type-id-8'/>
          <parameter type-id='type-id-8'/>
          <return type-id='type-id-14'/>
        </function-decl>
      </member-function>
      <member-function access='private'>
        <function-decl name='tessellation' mangled-name='_ZN10Subdivider12tessellationER3BinR9Patchlist' filepath='libnurbs/internals/subdivider.h' line='143' column='1' visibility='default' binding='global' size-in-bits='64'>
          <parameter type-id='type-id-173' is-artificial='yes'/>
          <parameter type-id='type-id-174'/>
          <parameter type-id='type-id-161'/>
          <return type-id='type-id-14'/>
        </function-decl>
      </member-function>
      <member-function access='private'>
        <function-decl name='nonSamplingSplit' mangled-name='_ZN10Subdivider16nonSamplingSplitER3BinR9Patchlistii' filepath='libnurbs/internals/subdivider.h' line='142' column='1' visibility='default' binding='global' size-in-bits='64'>
          <parameter type-id='type-id-173' is-artificial='yes'/>
          <parameter type-id='type-id-174'/>
          <parameter type-id='type-id-161'/>
          <parameter type-id='type-id-8'/>
          <parameter type-id='type-id-8'/>
          <return type-id='type-id-14'/>
        </function-decl>
      </member-function>
      <member-function access='private'>
        <function-decl name='samplingSplit' mangled-name='_ZN10Subdivider13samplingSplitER3BinR9Patchlistii' filepath='libnurbs/internals/subdivider.h' line='141' column='1' visibility='default' binding='global' size-in-bits='64'>
          <parameter type-id='type-id-173' is-artificial='yes'/>
          <parameter type-id='type-id-174'/>
          <parameter type-id='type-id-161'/>
          <parameter type-id='type-id-8'/>
          <parameter type-id='type-id-8'/>
          <return type-id='type-id-14'/>
        </function-decl>
      </member-function>
      <member-function access='private'>
        <function-decl name='splitInT' mangled-name='_ZN10Subdivider8splitInTER3Binii' filepath='libnurbs/internals/subdivider.h' line='140' column='1' visibility='default' binding='global' size-in-bits='64'>
          <parameter type-id='type-id-173' is-artificial='yes'/>
          <parameter type-id='type-id-174'/>
          <parameter type-id='type-id-8'/>
          <parameter type-id='type-id-8'/>
          <return type-id='type-id-14'/>
        </function-decl>
      </member-function>
      <member-function access='private'>
        <function-decl name='splitInS' mangled-name='_ZN10Subdivider8splitInSER3Binii' filepath='libnurbs/internals/subdivider.h' line='139' column='1' visibility='default' binding='global' size-in-bits='64'>
          <parameter type-id='type-id-173' is-artificial='yes'/>
          <parameter type-id='type-id-174'/>
          <parameter type-id='type-id-8'/>
          <parameter type-id='type-id-8'/>
          <return type-id='type-id-14'/>
        </function-decl>
      </member-function>
      <member-function access='private'>
        <function-decl name='subdivideInS' mangled-name='_ZN10Subdivider12subdivideInSER3Bin' filepath='libnurbs/internals/subdivider.h' line='138' column='1' visibility='default' binding='global' size-in-bits='64'>
          <parameter type-id='type-id-173' is-artificial='yes'/>
          <parameter type-id='type-id-174'/>
          <return type-id='type-id-14'/>
        </function-decl>
      </member-function>
      <member-function access='private'>
        <function-decl name='clear' mangled-name='_ZN10Subdivider5clearEv' filepath='libnurbs/internals/subdivider.h' line='59' column='1' visibility='default' binding='global' size-in-bits='64'>
          <parameter type-id='type-id-173' is-artificial='yes'/>
          <return type-id='type-id-14'/>
        </function-decl>
      </member-function>
      <member-function access='private'>
        <function-decl name='makeBorderTrim' mangled-name='_ZN10Subdivider14makeBorderTrimEPKfS1_' filepath='libnurbs/internals/subdivider.h' line='160' column='1' visibility='default' binding='global' size-in-bits='64'>
          <parameter type-id='type-id-173' is-artificial='yes'/>
          <parameter type-id='type-id-175'/>
          <parameter type-id='type-id-175'/>
          <return type-id='type-id-14'/>
        </function-decl>
      </member-function>
      <member-function access='private'>
        <function-decl name='drawSurfaces' mangled-name='_ZN10Subdivider12drawSurfacesEl' filepath='libnurbs/internals/subdivider.h' line='73' column='1' visibility='default' binding='global' size-in-bits='64'>
          <parameter type-id='type-id-173' is-artificial='yes'/>
          <parameter type-id='type-id-38'/>
          <return type-id='type-id-14'/>
        </function-decl>
      </member-function>
      <member-function access='private'>
        <function-decl name='addArc' mangled-name='_ZN10Subdivider6addArcEiP10TrimVertexl' filepath='libnurbs/internals/subdivider.h' line='64' column='1' visibility='default' binding='global' size-in-bits='64'>
          <parameter type-id='type-id-173' is-artificial='yes'/>
          <parameter type-id='type-id-8'/>
          <parameter type-id='type-id-127'/>
          <parameter type-id='type-id-38'/>
          <return type-id='type-id-14'/>
        </function-decl>
      </member-function>
      <member-function access='private'>
        <function-decl name='addArc' mangled-name='_ZN10Subdivider6addArcEPfP5Quiltl' filepath='libnurbs/internals/subdivider.h' line='63' column='1' visibility='default' binding='global' size-in-bits='64'>
          <parameter type-id='type-id-173' is-artificial='yes'/>
          <parameter type-id='type-id-22'/>
          <parameter type-id='type-id-148'/>
          <parameter type-id='type-id-38'/>
          <return type-id='type-id-14'/>
        </function-decl>
      </member-function>
      <member-function access='private'>
        <function-decl name='makePatchBoundary' mangled-name='_ZN10Subdivider17makePatchBoundaryEPKfS1_' filepath='libnurbs/internals/subdivider.h' line='178' column='1' visibility='default' binding='global' size-in-bits='64'>
          <parameter type-id='type-id-173' is-artificial='yes'/>
          <parameter type-id='type-id-175'/>
          <parameter type-id='type-id-175'/>
          <return type-id='type-id-143'/>
        </function-decl>
      </member-function>
    </class-decl>
    <class-decl name='TrimVertexPool' size-in-bits='2624' is-struct='yes' visibility='default' filepath='libnurbs/internals/trimvertpool.h' line='45' column='1' id='type-id-68'>
      <data-member access='private' layout-offset-in-bits='0'>
        <var-decl name='pool' type-id='type-id-67' visibility='default' filepath='libnurbs/internals/trimvertpool.h' line='52' column='1'/>
      </data-member>
      <data-member access='private' layout-offset-in-bits='2496'>
        <var-decl name='vlist' type-id='type-id-176' visibility='default' filepath='libnurbs/internals/trimvertpool.h' line='53' column='1'/>
      </data-member>
      <data-member access='private' layout-offset-in-bits='2560'>
        <var-decl name='nextvlistslot' type-id='type-id-8' visibility='default' filepath='libnurbs/internals/trimvertpool.h' line='54' column='1'/>
      </data-member>
      <data-member access='private' layout-offset-in-bits='2592'>
        <var-decl name='vlistsize' type-id='type-id-8' visibility='default' filepath='libnurbs/internals/trimvertpool.h' line='55' column='1'/>
      </data-member>
      <member-function access='public' constructor='yes'>
        <function-decl name='TrimVertexPool' filepath='libnurbs/internals/trimvertpool.h' line='47' column='1' visibility='default' binding='global' size-in-bits='64'>
          <parameter type-id='type-id-177' is-artificial='yes'/>
          <return type-id='type-id-14'/>
        </function-decl>
      </member-function>
      <member-function access='public' destructor='yes'>
        <function-decl name='~TrimVertexPool' filepath='libnurbs/internals/trimvertpool.h' line='48' column='1' visibility='default' binding='global' size-in-bits='64'>
          <parameter type-id='type-id-177' is-artificial='yes'/>
          <parameter type-id='type-id-8' is-artificial='yes'/>
          <return type-id='type-id-14'/>
        </function-decl>
      </member-function>
      <member-function access='public'>
        <function-decl name='get' mangled-name='_ZN14TrimVertexPool3getEi' filepath='libnurbs/internals/trimvertpool.h' line='50' column='1' visibility='default' binding='global' size-in-bits='64'>
          <parameter type-id='type-id-177' is-artificial='yes'/>
          <parameter type-id='type-id-8'/>
          <return type-id='type-id-127'/>
        </function-decl>
      </member-function>
      <member-function access='public'>
        <function-decl name='clear' mangled-name='_ZN14TrimVertexPool5clearEv' filepath='libnurbs/internals/trimvertpool.h' line='49' column='1' visibility='default' binding='global' size-in-bits='64'>
          <parameter type-id='type-id-177' is-artificial='yes'/>
          <return type-id='type-id-14'/>
        </function-decl>
      </member-function>
    </class-decl>
    <pointer-type-def type-id='type-id-111' size-in-bits='64' id='type-id-178'/>
    <pointer-type-def type-id='type-id-179' size-in-bits='64' id='type-id-180'/>
    <pointer-type-def type-id='type-id-181' size-in-bits='64' id='type-id-182'/>
    <pointer-type-def type-id='type-id-183' size-in-bits='64' id='type-id-184'/>
    <pointer-type-def type-id='type-id-135' size-in-bits='64' id='type-id-137'/>
    <reference-type-def kind='lvalue' type-id='type-id-64' size-in-bits='64' id='type-id-167'/>
    <reference-type-def kind='lvalue' type-id='type-id-142' size-in-bits='64' id='type-id-174'/>
    <pointer-type-def type-id='type-id-142' size-in-bits='64' id='type-id-143'/>
    <reference-type-def kind='lvalue' type-id='type-id-144' size-in-bits='64' id='type-id-149'/>
    <pointer-type-def type-id='type-id-150' size-in-bits='64' id='type-id-152'/>
    <pointer-type-def type-id='type-id-155' size-in-bits='64' id='type-id-66'/>
    <reference-type-def kind='lvalue' type-id='type-id-157' size-in-bits='64' id='type-id-161'/>
    <pointer-type-def type-id='type-id-162' size-in-bits='64' id='type-id-148'/>
    <reference-type-def kind='lvalue' type-id='type-id-62' size-in-bits='64' id='type-id-172'/>
    <pointer-type-def type-id='type-id-153' size-in-bits='64' id='type-id-185'/>
    <reference-type-def kind='lvalue' type-id='type-id-65' size-in-bits='64' id='type-id-186'/>
    <pointer-type-def type-id='type-id-65' size-in-bits='64' id='type-id-173'/>
    <pointer-type-def type-id='type-id-127' size-in-bits='64' id='type-id-176'/>
    <reference-type-def kind='lvalue' type-id='type-id-68' size-in-bits='64' id='type-id-136'/>
    <pointer-type-def type-id='type-id-68' size-in-bits='64' id='type-id-177'/>
    <qualified-type-def type-id='type-id-1' const='yes' id='type-id-187'/>
    <pointer-type-def type-id='type-id-187' size-in-bits='64' id='type-id-175'/>
    <class-decl name='ArcSorter' visibility='default' filepath='libnurbs/internals/arcsorter.h' line='44' column='1' is-declaration-only='yes' id='type-id-181'>
      <base-class access='private' layout-offset-in-bits='0' type-id='type-id-153'/>
      <data-member access='protected' layout-offset-in-bits='128'>
        <var-decl name='subdivider' type-id='type-id-186' visibility='default' filepath='libnurbs/internals/arcsorter.h' line='50' column='1'/>
      </data-member>
      <member-function access='private' constructor='yes'>
        <function-decl name='ArcSorter' filepath='libnurbs/internals/arcsorter.cc' line='48' column='1' visibility='default' binding='global' size-in-bits='64'>
          <parameter type-id='type-id-182' is-artificial='yes'/>
          <parameter type-id='type-id-186'/>
          <return type-id='type-id-14'/>
        </function-decl>
      </member-function>
      <member-function access='private'>
        <function-decl name='qsort' mangled-name='_ZN9ArcSorter5qsortEPP3Arci' filepath='libnurbs/internals/arcsorter.cc' line='60' column='1' visibility='default' binding='global' size-in-bits='64'>
          <parameter type-id='type-id-182' is-artificial='yes'/>
          <parameter type-id='type-id-178'/>
          <parameter type-id='type-id-8'/>
          <return type-id='type-id-14'/>
        </function-decl>
      </member-function>
      <member-function access='protected' vtable-offset='2'>
        <function-decl name='qscmp' mangled-name='_ZN9ArcSorter5qscmpEPcS0_' filepath='libnurbs/internals/arcsorter.cc' line='53' column='1' visibility='default' binding='global' size-in-bits='64'>
          <parameter type-id='type-id-182' is-artificial='yes'/>
          <parameter type-id='type-id-107'/>
          <parameter type-id='type-id-107'/>
          <return type-id='type-id-8'/>
        </function-decl>
      </member-function>
      <member-function access='private' vtable-offset='3'>
        <function-decl name='qsexc' mangled-name='_ZN9ArcSorter5qsexcEPcS0_' filepath='libnurbs/internals/arcsorter.cc' line='66' column='1' visibility='default' binding='global' size-in-bits='64'>
          <parameter type-id='type-id-182' is-artificial='yes'/>
          <parameter type-id='type-id-107'/>
          <parameter type-id='type-id-107'/>
          <return type-id='type-id-14'/>
        </function-decl>
      </member-function>
      <member-function access='private' vtable-offset='4'>
        <function-decl name='qstexc' mangled-name='_ZN9ArcSorter6qstexcEPcS0_S0_' filepath='libnurbs/internals/arcsorter.cc' line='76' column='1' visibility='default' binding='global' size-in-bits='64'>
          <parameter type-id='type-id-182' is-artificial='yes'/>
          <parameter type-id='type-id-107'/>
          <parameter type-id='type-id-107'/>
          <parameter type-id='type-id-107'/>
          <return type-id='type-id-14'/>
        </function-decl>
      </member-function>
    </class-decl>
    <class-decl name='ArcSdirSorter' visibility='default' filepath='libnurbs/internals/arcsorter.h' line='57' column='1' is-declaration-only='yes' id='type-id-179'>
      <base-class access='public' layout-offset-in-bits='0' type-id='type-id-181'/>
      <member-function access='private' constructor='yes'>
        <function-decl name='ArcSdirSorter' filepath='libnurbs/internals/arcsorter.cc' line='88' column='1' visibility='default' binding='global' size-in-bits='64'>
          <parameter type-id='type-id-180' is-artificial='yes'/>
          <parameter type-id='type-id-186'/>
          <return type-id='type-id-14'/>
        </function-decl>
      </member-function>
      <member-function access='private' vtable-offset='2'>
        <function-decl name='qscmp' mangled-name='_ZN13ArcSdirSorter5qscmpEPcS0_' filepath='libnurbs/internals/arcsorter.cc' line='93' column='1' visibility='default' binding='global' size-in-bits='64'>
          <parameter type-id='type-id-180' is-artificial='yes'/>
          <parameter type-id='type-id-107'/>
          <parameter type-id='type-id-107'/>
          <return type-id='type-id-8'/>
        </function-decl>
      </member-function>
    </class-decl>
    <class-decl name='ArcTdirSorter' visibility='default' filepath='libnurbs/internals/arcsorter.h' line='65' column='1' is-declaration-only='yes' id='type-id-183'>
      <base-class access='public' layout-offset-in-bits='0' type-id='type-id-181'/>
      <member-function access='private' constructor='yes'>
        <function-decl name='ArcTdirSorter' filepath='libnurbs/internals/arcsorter.cc' line='125' column='1' visibility='default' binding='global' size-in-bits='64'>
          <parameter type-id='type-id-184' is-artificial='yes'/>
          <parameter type-id='type-id-186'/>
          <return type-id='type-id-14'/>
        </function-decl>
      </member-function>
      <member-function access='private' vtable-offset='2'>
        <function-decl name='qscmp' mangled-name='_ZN13ArcTdirSorter5qscmpEPcS0_' filepath='libnurbs/internals/arcsorter.cc' line='138' column='1' visibility='default' binding='global' size-in-bits='64'>
          <parameter type-id='type-id-184' is-artificial='yes'/>
          <parameter type-id='type-id-107'/>
          <parameter type-id='type-id-107'/>
          <return type-id='type-id-8'/>
        </function-decl>
      </member-function>
    </class-decl>
    <class-decl name='Slicer' visibility='default' filepath='libnurbs/internals/slicer.h' line='49' column='1' is-declaration-only='yes' id='type-id-171'>
      <base-class access='public' layout-offset-in-bits='0' type-id='type-id-188'/>
      <base-class access='public' layout-offset-in-bits='128' type-id='type-id-189'/>
      <data-member access='private' layout-offset-in-bits='5248'>
        <var-decl name='backend' type-id='type-id-167' visibility='default' filepath='libnurbs/internals/slicer.h' line='72' column='1'/>
      </data-member>
      <data-member access='private' layout-offset-in-bits='5312'>
        <var-decl name='oneOverDu' type-id='type-id-1' visibility='default' filepath='libnurbs/internals/slicer.h' line='73' column='1'/>
      </data-member>
      <data-member access='private' layout-offset-in-bits='5344'>
        <var-decl name='du' type-id='type-id-1' visibility='default' filepath='libnurbs/internals/slicer.h' line='74' column='1'/>
      </data-member>
      <data-member access='private' layout-offset-in-bits='5376'>
        <var-decl name='dv' type-id='type-id-1' visibility='default' filepath='libnurbs/internals/slicer.h' line='74' column='1'/>
      </data-member>
      <data-member access='private' layout-offset-in-bits='5408'>
        <var-decl name='isolines' type-id='type-id-8' visibility='default' filepath='libnurbs/internals/slicer.h' line='75' column='1'/>
      </data-member>
      <data-member access='private' layout-offset-in-bits='5440'>
        <var-decl name='ulinear' type-id='type-id-8' visibility='default' filepath='libnurbs/internals/slicer.h' line='81' column='1'/>
      </data-member>
      <data-member access='private' layout-offset-in-bits='5472'>
        <var-decl name='vlinear' type-id='type-id-8' visibility='default' filepath='libnurbs/internals/slicer.h' line='82' column='1'/>
      </data-member>
      <member-function access='private' constructor='yes'>
        <function-decl name='Slicer' filepath='libnurbs/internals/slicer.cc' line='1181' column='1' visibility='default' binding='global' size-in-bits='64'>
          <parameter type-id='type-id-190' is-artificial='yes'/>
          <parameter type-id='type-id-8' is-artificial='yes'/>
          <parameter type-id='type-id-191' is-artificial='yes'/>
          <parameter type-id='type-id-167'/>
          <return type-id='type-id-14'/>
        </function-decl>
      </member-function>
      <member-function access='private' destructor='yes'>
        <function-decl name='~Slicer' filepath='libnurbs/internals/slicer.cc' line='1192' column='1' visibility='default' binding='global' size-in-bits='64'>
          <parameter type-id='type-id-190' is-artificial='yes'/>
          <parameter type-id='type-id-8' is-artificial='yes'/>
          <parameter type-id='type-id-191' is-artificial='yes'/>
          <return type-id='type-id-14'/>
        </function-decl>
      </member-function>
      <member-function access='private'>
        <function-decl name='setisolines' mangled-name='_ZN6Slicer11setisolinesEi' filepath='libnurbs/internals/slicer.cc' line='1197' column='1' visibility='default' binding='global' size-in-bits='64'>
          <parameter type-id='type-id-190' is-artificial='yes'/>
          <parameter type-id='type-id-8'/>
          <return type-id='type-id-14'/>
        </function-decl>
      </member-function>
      <member-function access='private'>
        <function-decl name='outline' mangled-name='_ZN6Slicer7outlineEP3Arc' filepath='libnurbs/internals/slicer.cc' line='1292' column='1' visibility='default' binding='global' size-in-bits='64'>
          <parameter type-id='type-id-190' is-artificial='yes'/>
          <parameter type-id='type-id-112'/>
          <return type-id='type-id-14'/>
        </function-decl>
      </member-function>
      <member-function access='private'>
        <function-decl name='outline' mangled-name='_ZN6Slicer7outlineEv' filepath='libnurbs/internals/slicer.cc' line='1266' column='1' visibility='default' binding='global' size-in-bits='64'>
          <parameter type-id='type-id-190' is-artificial='yes'/>
          <return type-id='type-id-14'/>
        </function-decl>
      </member-function>
      <member-function access='private'>
        <function-decl name='slice_old' mangled-name='_ZN6Slicer9slice_oldEP3Arc' filepath='libnurbs/internals/slicer.cc' line='1212' column='1' visibility='default' binding='global' size-in-bits='64'>
          <parameter type-id='type-id-190' is-artificial='yes'/>
          <parameter type-id='type-id-112'/>
          <return type-id='type-id-14'/>
        </function-decl>
      </member-function>
      <member-function access='private'>
        <function-decl name='setstriptessellation' mangled-name='_ZN6Slicer20setstriptessellationEff' filepath='libnurbs/internals/slicer.cc' line='1203' column='1' visibility='default' binding='global' size-in-bits='64'>
          <parameter type-id='type-id-190' is-artificial='yes'/>
          <parameter type-id='type-id-1'/>
          <parameter type-id='type-id-1'/>
          <return type-id='type-id-14'/>
        </function-decl>
      </member-function>
      <member-function access='private'>
        <function-decl name='evalRBArray' mangled-name='_ZN6Slicer11evalRBArrayEP14rectBlockArrayP8gridWrap' filepath='libnurbs/internals/slicer.cc' line='1001' column='1' visibility='default' binding='global' size-in-bits='64'>
          <parameter type-id='type-id-190' is-artificial='yes'/>
          <parameter type-id='type-id-192'/>
          <parameter type-id='type-id-193'/>
          <return type-id='type-id-14'/>
        </function-decl>
      </member-function>
      <member-function access='private'>
        <function-decl name='evalStream' mangled-name='_ZN6Slicer10evalStreamEP10primStream' filepath='libnurbs/internals/slicer.cc' line='1027' column='1' visibility='default' binding='global' size-in-bits='64'>
          <parameter type-id='type-id-190' is-artificial='yes'/>
          <parameter type-id='type-id-194'/>
          <return type-id='type-id-14'/>
        </function-decl>
      </member-function>
      <member-function access='private'>
        <function-decl name='slice_new' mangled-name='_ZN6Slicer9slice_newEP3Arc' filepath='libnurbs/internals/slicer.cc' line='1068' column='1' visibility='default' binding='global' size-in-bits='64'>
          <parameter type-id='type-id-190' is-artificial='yes'/>
          <parameter type-id='type-id-112'/>
          <return type-id='type-id-14'/>
        </function-decl>
      </member-function>
      <member-function access='private'>
        <function-decl name='slice' mangled-name='_ZN6Slicer5sliceEP3Arc' filepath='libnurbs/internals/slicer.cc' line='1165' column='1' visibility='default' binding='global' size-in-bits='64'>
          <parameter type-id='type-id-190' is-artificial='yes'/>
          <parameter type-id='type-id-112'/>
          <return type-id='type-id-14'/>
        </function-decl>
      </member-function>
      <member-function access='private'>
        <function-decl name='set_ulinear' mangled-name='_ZN6Slicer11set_ulinearEi' filepath='libnurbs/internals/slicer.h' line='63' column='1' visibility='default' binding='global' size-in-bits='64'>
          <parameter type-id='type-id-190' is-artificial='yes'/>
          <parameter type-id='type-id-8'/>
          <return type-id='type-id-14'/>
        </function-decl>
      </member-function>
      <member-function access='private'>
        <function-decl name='set_vlinear' mangled-name='_ZN6Slicer11set_vlinearEi' filepath='libnurbs/internals/slicer.h' line='67' column='1' visibility='default' binding='global' size-in-bits='64'>
          <parameter type-id='type-id-190' is-artificial='yes'/>
          <parameter type-id='type-id-8'/>
          <return type-id='type-id-14'/>
        </function-decl>
      </member-function>
    </class-decl>
    <class-decl name='Sorter' visibility='default' filepath='libnurbs/internals/sorter.h' line='36' column='1' is-declaration-only='yes' id='type-id-153'>
      <data-member access='private' layout-offset-in-bits='64'>
        <var-decl name='es' type-id='type-id-8' visibility='default' filepath='libnurbs/internals/sorter.h' line='49' column='1'/>
      </data-member>
      <member-function access='private' constructor='yes'>
        <function-decl name='Sorter' filepath='libnurbs/internals/sorter.cc' line='44' column='1' visibility='default' binding='global' size-in-bits='64'>
          <parameter type-id='type-id-185' is-artificial='yes'/>
          <parameter type-id='type-id-8' is-artificial='yes'/>
          <return type-id='type-id-14'/>
        </function-decl>
      </member-function>
      <member-function access='private'>
        <function-decl name='qs1' mangled-name='_ZN6Sorter3qs1EPcS0_' filepath='libnurbs/internals/sorter.cc' line='77' column='1' visibility='default' binding='global' size-in-bits='64'>
          <parameter type-id='type-id-185' is-artificial='yes'/>
          <parameter type-id='type-id-107'/>
          <parameter type-id='type-id-107'/>
          <return type-id='type-id-14'/>
        </function-decl>
      </member-function>
      <member-function access='private'>
        <function-decl name='qsort' mangled-name='_ZN6Sorter5qsortEPvi' filepath='libnurbs/internals/sorter.cc' line='50' column='1' visibility='default' binding='global' size-in-bits='64'>
          <parameter type-id='type-id-185' is-artificial='yes'/>
          <parameter type-id='type-id-35'/>
          <parameter type-id='type-id-8'/>
          <return type-id='type-id-14'/>
        </function-decl>
      </member-function>
      <member-function access='private' destructor='yes' vtable-offset='-1'>
        <function-decl name='~Sorter' filepath='libnurbs/internals/sorter.h' line='39' column='1' visibility='default' binding='global' size-in-bits='64'>
          <parameter type-id='type-id-185' is-artificial='yes'/>
          <parameter type-id='type-id-8' is-artificial='yes'/>
          <return type-id='type-id-14'/>
        </function-decl>
      </member-function>
      <member-function access='protected' vtable-offset='2'>
        <function-decl name='qscmp' mangled-name='_ZN6Sorter5qscmpEPcS0_' filepath='libnurbs/internals/sorter.cc' line='56' column='1' visibility='default' binding='global' size-in-bits='64'>
          <parameter type-id='type-id-185' is-artificial='yes'/>
          <parameter type-id='type-id-107'/>
          <parameter type-id='type-id-107'/>
          <return type-id='type-id-8'/>
        </function-decl>
      </member-function>
      <member-function access='protected' vtable-offset='3'>
        <function-decl name='qsexc' mangled-name='_ZN6Sorter5qsexcEPcS0_' filepath='libnurbs/internals/sorter.cc' line='64' column='1' visibility='default' binding='global' size-in-bits='64'>
          <parameter type-id='type-id-185' is-artificial='yes'/>
          <parameter type-id='type-id-107'/>
          <parameter type-id='type-id-107'/>
          <return type-id='type-id-14'/>
        </function-decl>
      </member-function>
      <member-function access='protected' vtable-offset='4'>
        <function-decl name='qstexc' mangled-name='_ZN6Sorter6qstexcEPcS0_S0_' filepath='libnurbs/internals/sorter.cc' line='71' column='1' visibility='default' binding='global' size-in-bits='64'>
          <parameter type-id='type-id-185' is-artificial='yes'/>
          <parameter type-id='type-id-107'/>
          <parameter type-id='type-id-107'/>
          <parameter type-id='type-id-107'/>
          <return type-id='type-id-14'/>
        </function-decl>
      </member-function>
    </class-decl>
  </abi-instr>
  <abi-instr address-size='64' path='libnurbs/internals/arctess.cc' comp-dir-path='/tmp/legendre/spack-stage/spack-stage-T0fsxk/Mesa-8.0.5/src/glu/sgi' language='LANG_C_plus_plus'>
  </abi-instr>
  <abi-instr address-size='64' path='libnurbs/internals/backend.cc' comp-dir-path='/tmp/legendre/spack-stage/spack-stage-T0fsxk/Mesa-8.0.5/src/glu/sgi' language='LANG_C_plus_plus'>
    <array-type-def dimensions='2' type-id='type-id-1' size-in-bits='384' id='type-id-138'>
      <subrange length='3' type-id='type-id-3' id='type-id-90'/>
      <subrange length='4' type-id='type-id-3' id='type-id-61'/>
    </array-type-def>
    <class-decl name='GridTrimVertex' size-in-bits='384' visibility='default' filepath='libnurbs/internals/gridtrimvertex.h' line='45' column='1' id='type-id-195'>
      <base-class access='public' layout-offset-in-bits='0' type-id='type-id-115'/>
      <data-member access='private' layout-offset-in-bits='0'>
        <var-decl name='dummyt' type-id='type-id-128' visibility='default' filepath='libnurbs/internals/gridtrimvertex.h' line='47' column='1'/>
      </data-member>
      <data-member access='private' layout-offset-in-bits='128'>
        <var-decl name='dummyg' type-id='type-id-196' visibility='default' filepath='libnurbs/internals/gridtrimvertex.h' line='48' column='1'/>
      </data-member>
      <data-member access='private' layout-offset-in-bits='256'>
        <var-decl name='t' type-id='type-id-127' visibility='default' filepath='libnurbs/internals/gridtrimvertex.h' line='51' column='1'/>
      </data-member>
      <data-member access='private' layout-offset-in-bits='320'>
        <var-decl name='g' type-id='type-id-140' visibility='default' filepath='libnurbs/internals/gridtrimvertex.h' line='52' column='1'/>
      </data-member>
      <member-function access='private' constructor='yes'>
        <function-decl name='GridTrimVertex' filepath='libnurbs/internals/gridtrimvertex.h' line='50' column='1' visibility='default' binding='global' size-in-bits='64'>
          <parameter type-id='type-id-141' is-artificial='yes'/>
          <return type-id='type-id-14'/>
        </function-decl>
      </member-function>
      <member-function access='private'>
        <function-decl name='isGridVert' mangled-name='_ZN14GridTrimVertex10isGridVertEv' filepath='libnurbs/internals/gridtrimvertex.h' line='58' column='1' visibility='default' binding='global' size-in-bits='64'>
          <parameter type-id='type-id-141' is-artificial='yes'/>
          <return type-id='type-id-8'/>
        </function-decl>
      </member-function>
      <member-function access='private'>
        <function-decl name='set' mangled-name='_ZN14GridTrimVertex3setEP10TrimVertex' filepath='libnurbs/internals/gridtrimvertex.h' line='56' column='1' visibility='default' binding='global' size-in-bits='64'>
          <parameter type-id='type-id-141' is-artificial='yes'/>
          <parameter type-id='type-id-127'/>
          <return type-id='type-id-14'/>
        </function-decl>
      </member-function>
      <member-function access='private'>
        <function-decl name='set' mangled-name='_ZN14GridTrimVertex3setEll' filepath='libnurbs/internals/gridtrimvertex.h' line='54' column='1' visibility='default' binding='global' size-in-bits='64'>
          <parameter type-id='type-id-141' is-artificial='yes'/>
          <parameter type-id='type-id-38'/>
          <parameter type-id='type-id-38'/>
          <return type-id='type-id-14'/>
        </function-decl>
      </member-function>
      <member-function access='private'>
        <function-decl name='isTrimVert' mangled-name='_ZN14GridTrimVertex10isTrimVertEv' filepath='libnurbs/internals/gridtrimvertex.h' line='59' column='1' visibility='default' binding='global' size-in-bits='64'>
          <parameter type-id='type-id-141' is-artificial='yes'/>
          <return type-id='type-id-8'/>
        </function-decl>
      </member-function>
      <member-function access='private'>
        <function-decl name='set' mangled-name='_ZN14GridTrimVertex3setEff' filepath='libnurbs/internals/gridtrimvertex.h' line='55' column='1' visibility='default' binding='global' size-in-bits='64'>
          <parameter type-id='type-id-141' is-artificial='yes'/>
          <parameter type-id='type-id-1'/>
          <parameter type-id='type-id-1'/>
          <return type-id='type-id-14'/>
        </function-decl>
      </member-function>
    </class-decl>
    <class-decl name='GridVertex' size-in-bits='128' is-struct='yes' visibility='default' filepath='libnurbs/internals/gridvertex.h' line='39' column='1' id='type-id-196'>
      <data-member access='public' layout-offset-in-bits='0'>
        <var-decl name='gparam' type-id='type-id-93' visibility='default' filepath='libnurbs/internals/gridvertex.h' line='40' column='1'/>
      </data-member>
      <member-function access='public' constructor='yes'>
        <function-decl name='GridVertex' filepath='libnurbs/internals/gridvertex.h' line='41' column='1' visibility='default' binding='global' size-in-bits='64'>
          <parameter type-id='type-id-140' is-artificial='yes'/>
          <return type-id='type-id-14'/>
        </function-decl>
      </member-function>
      <member-function access='public' constructor='yes'>
        <function-decl name='GridVertex' filepath='libnurbs/internals/gridvertex.h' line='42' column='1' visibility='default' binding='global' size-in-bits='64'>
          <parameter type-id='type-id-140' is-artificial='yes'/>
          <parameter type-id='type-id-38'/>
          <parameter type-id='type-id-38'/>
          <return type-id='type-id-14'/>
        </function-decl>
      </member-function>
      <member-function access='public'>
        <function-decl name='nextu' mangled-name='_ZN10GridVertex5nextuEv' filepath='libnurbs/internals/gridvertex.h' line='44' column='1' visibility='default' binding='global' size-in-bits='64'>
          <parameter type-id='type-id-140' is-artificial='yes'/>
          <return type-id='type-id-38'/>
        </function-decl>
      </member-function>
      <member-function access='public'>
        <function-decl name='prevu' mangled-name='_ZN10GridVertex5prevuEv' filepath='libnurbs/internals/gridvertex.h' line='45' column='1' visibility='default' binding='global' size-in-bits='64'>
          <parameter type-id='type-id-140' is-artificial='yes'/>
          <return type-id='type-id-38'/>
        </function-decl>
      </member-function>
    </class-decl>
    <pointer-type-def type-id='type-id-64' size-in-bits='64' id='type-id-139'/>
    <reference-type-def kind='lvalue' type-id='type-id-16' size-in-bits='64' id='type-id-79'/>
    <reference-type-def kind='lvalue' type-id='type-id-51' size-in-bits='64' id='type-id-80'/>
    <pointer-type-def type-id='type-id-195' size-in-bits='64' id='type-id-141'/>
    <pointer-type-def type-id='type-id-196' size-in-bits='64' id='type-id-140'/>
  </abi-instr>
  <abi-instr address-size='64' path='libnurbs/internals/cachingeval.cc' comp-dir-path='/tmp/legendre/spack-stage/spack-stage-T0fsxk/Mesa-8.0.5/src/glu/sgi' language='LANG_C_plus_plus'>
  </abi-instr>
  <abi-instr address-size='64' path='libnurbs/internals/coveandtiler.cc' comp-dir-path='/tmp/legendre/spack-stage/spack-stage-T0fsxk/Mesa-8.0.5/src/glu/sgi' language='LANG_C_plus_plus'>
    <class-decl name='CoveAndTiler' size-in-bits='2688' visibility='default' filepath='libnurbs/internals/coveandtiler.h' line='46' column='1' id='type-id-188'>
      <base-class access='public' layout-offset-in-bits='192' is-virtual='yes' type-id='type-id-197'/>
      <data-member access='private' layout-offset-in-bits='64'>
        <var-decl name='backend' type-id='type-id-167' visibility='default' filepath='libnurbs/internals/coveandtiler.h' line='52' column='1'/>
      </data-member>
      <data-member access='private' static='yes'>
        <var-decl name='MAXSTRIPSIZE' type-id='type-id-116' mangled-name='_ZN12CoveAndTiler12MAXSTRIPSIZEE' visibility='default' filepath='libnurbs/internals/coveandtiler.cc' line='50' column='1'/>
      </data-member>
      <member-function access='private' constructor='yes'>
        <function-decl name='CoveAndTiler' filepath='libnurbs/internals/coveandtiler.cc' line='52' column='1' visibility='default' binding='global' size-in-bits='64'>
          <parameter type-id='type-id-198' is-artificial='yes'/>
          <parameter type-id='type-id-8' is-artificial='yes'/>
          <parameter type-id='type-id-191' is-artificial='yes'/>
          <parameter type-id='type-id-167'/>
          <return type-id='type-id-14'/>
        </function-decl>
      </member-function>
      <member-function access='private' destructor='yes'>
        <function-decl name='~CoveAndTiler' filepath='libnurbs/internals/coveandtiler.cc' line='56' column='1' visibility='default' binding='global' size-in-bits='64'>
          <parameter type-id='type-id-198' is-artificial='yes'/>
          <parameter type-id='type-id-8' is-artificial='yes'/>
          <parameter type-id='type-id-191' is-artificial='yes'/>
          <return type-id='type-id-14'/>
        </function-decl>
      </member-function>
      <member-function access='private'>
        <function-decl name='output' mangled-name='_ZN12CoveAndTiler6outputEP10TrimVertex' filepath='libnurbs/internals/coveandtiler.cc' line='66' column='1' visibility='default' binding='global' size-in-bits='64'>
          <parameter type-id='type-id-198' is-artificial='yes'/>
          <parameter type-id='type-id-127'/>
          <return type-id='type-id-14'/>
        </function-decl>
      </member-function>
      <member-function access='private'>
        <function-decl name='output' mangled-name='_ZN12CoveAndTiler6outputER10GridVertex' filepath='libnurbs/internals/coveandtiler.cc' line='60' column='1' visibility='default' binding='global' size-in-bits='64'>
          <parameter type-id='type-id-198' is-artificial='yes'/>
          <parameter type-id='type-id-199'/>
          <return type-id='type-id-14'/>
        </function-decl>
      </member-function>
      <member-function access='private'>
        <function-decl name='output' mangled-name='_ZN12CoveAndTiler6outputER14GridTrimVertex' filepath='libnurbs/internals/coveandtiler.cc' line='72' column='1' visibility='default' binding='global' size-in-bits='64'>
          <parameter type-id='type-id-198' is-artificial='yes'/>
          <parameter type-id='type-id-200'/>
          <return type-id='type-id-14'/>
        </function-decl>
      </member-function>
      <member-function access='private'>
        <function-decl name='coveLR' mangled-name='_ZN12CoveAndTiler6coveLREv' filepath='libnurbs/internals/coveandtiler.cc' line='409' column='1' visibility='default' binding='global' size-in-bits='64'>
          <parameter type-id='type-id-198' is-artificial='yes'/>
          <return type-id='type-id-14'/>
        </function-decl>
      </member-function>
      <member-function access='private'>
        <function-decl name='coveLL' mangled-name='_ZN12CoveAndTiler6coveLLEv' filepath='libnurbs/internals/coveandtiler.cc' line='348' column='1' visibility='default' binding='global' size-in-bits='64'>
          <parameter type-id='type-id-198' is-artificial='yes'/>
          <return type-id='type-id-14'/>
        </function-decl>
      </member-function>
      <member-function access='private'>
        <function-decl name='coveUL' mangled-name='_ZN12CoveAndTiler6coveULEv' filepath='libnurbs/internals/coveandtiler.cc' line='287' column='1' visibility='default' binding='global' size-in-bits='64'>
          <parameter type-id='type-id-198' is-artificial='yes'/>
          <return type-id='type-id-14'/>
        </function-decl>
      </member-function>
      <member-function access='private'>
        <function-decl name='coveUR' mangled-name='_ZN12CoveAndTiler6coveUREv' filepath='libnurbs/internals/coveandtiler.cc' line='225' column='1' visibility='default' binding='global' size-in-bits='64'>
          <parameter type-id='type-id-198' is-artificial='yes'/>
          <return type-id='type-id-14'/>
        </function-decl>
      </member-function>
      <member-function access='private'>
        <function-decl name='coveLowerRightNoGrid' mangled-name='_ZN12CoveAndTiler20coveLowerRightNoGridEP10TrimVertex' filepath='libnurbs/internals/coveandtiler.cc' line='397' column='1' visibility='default' binding='global' size-in-bits='64'>
          <parameter type-id='type-id-198' is-artificial='yes'/>
          <parameter type-id='type-id-127'/>
          <return type-id='type-id-14'/>
        </function-decl>
      </member-function>
      <member-function access='private'>
        <function-decl name='coveLowerRight' mangled-name='_ZN12CoveAndTiler14coveLowerRightEv' filepath='libnurbs/internals/coveandtiler.cc' line='381' column='1' visibility='default' binding='global' size-in-bits='64'>
          <parameter type-id='type-id-198' is-artificial='yes'/>
          <return type-id='type-id-14'/>
        </function-decl>
      </member-function>
      <member-function access='private'>
        <function-decl name='coveLowerLeftNoGrid' mangled-name='_ZN12CoveAndTiler19coveLowerLeftNoGridEP10TrimVertex' filepath='libnurbs/internals/coveandtiler.cc' line='336' column='1' visibility='default' binding='global' size-in-bits='64'>
          <parameter type-id='type-id-198' is-artificial='yes'/>
          <parameter type-id='type-id-127'/>
          <return type-id='type-id-14'/>
        </function-decl>
      </member-function>
      <member-function access='private'>
        <function-decl name='coveLowerLeft' mangled-name='_ZN12CoveAndTiler13coveLowerLeftEv' filepath='libnurbs/internals/coveandtiler.cc' line='320' column='1' visibility='default' binding='global' size-in-bits='64'>
          <parameter type-id='type-id-198' is-artificial='yes'/>
          <return type-id='type-id-14'/>
        </function-decl>
      </member-function>
      <member-function access='private'>
        <function-decl name='coveUpperLeftNoGrid' mangled-name='_ZN12CoveAndTiler19coveUpperLeftNoGridEP10TrimVertex' filepath='libnurbs/internals/coveandtiler.cc' line='275' column='1' visibility='default' binding='global' size-in-bits='64'>
          <parameter type-id='type-id-198' is-artificial='yes'/>
          <parameter type-id='type-id-127'/>
          <return type-id='type-id-14'/>
        </function-decl>
      </member-function>
      <member-function access='private'>
        <function-decl name='coveUpperLeft' mangled-name='_ZN12CoveAndTiler13coveUpperLeftEv' filepath='libnurbs/internals/coveandtiler.cc' line='259' column='1' visibility='default' binding='global' size-in-bits='64'>
          <parameter type-id='type-id-198' is-artificial='yes'/>
          <return type-id='type-id-14'/>
        </function-decl>
      </member-function>
      <member-function access='private'>
        <function-decl name='coveUpperRightNoGrid' mangled-name='_ZN12CoveAndTiler20coveUpperRightNoGridEP10TrimVertex' filepath='libnurbs/internals/coveandtiler.cc' line='213' column='1' visibility='default' binding='global' size-in-bits='64'>
          <parameter type-id='type-id-198' is-artificial='yes'/>
          <parameter type-id='type-id-127'/>
          <return type-id='type-id-14'/>
        </function-decl>
      </member-function>
      <member-function access='private'>
        <function-decl name='coveUpperRight' mangled-name='_ZN12CoveAndTiler14coveUpperRightEv' filepath='libnurbs/internals/coveandtiler.cc' line='197' column='1' visibility='default' binding='global' size-in-bits='64'>
          <parameter type-id='type-id-198' is-artificial='yes'/>
          <return type-id='type-id-14'/>
        </function-decl>
      </member-function>
      <member-function access='private'>
        <function-decl name='tile' mangled-name='_ZN12CoveAndTiler4tileElll' filepath='libnurbs/internals/coveandtiler.cc' line='181' column='1' visibility='default' binding='global' size-in-bits='64'>
          <parameter type-id='type-id-198' is-artificial='yes'/>
          <parameter type-id='type-id-38'/>
          <parameter type-id='type-id-38'/>
          <parameter type-id='type-id-38'/>
          <return type-id='type-id-14'/>
        </function-decl>
      </member-function>
      <member-function access='private'>
        <function-decl name='coveAndTile' mangled-name='_ZN12CoveAndTiler11coveAndTileEv' filepath='libnurbs/internals/coveandtiler.cc' line='78' column='1' visibility='default' binding='global' size-in-bits='64'>
          <parameter type-id='type-id-198' is-artificial='yes'/>
          <return type-id='type-id-14'/>
        </function-decl>
      </member-function>
    </class-decl>
    <class-decl name='Gridline' size-in-bits='320' is-struct='yes' visibility='default' filepath='libnurbs/internals/gridline.h' line='39' column='1' id='type-id-201'>
      <data-member access='public' layout-offset-in-bits='0'>
        <var-decl name='v' type-id='type-id-38' visibility='default' filepath='libnurbs/internals/gridline.h' line='40' column='1'/>
      </data-member>
      <data-member access='public' layout-offset-in-bits='64'>
        <var-decl name='vval' type-id='type-id-1' visibility='default' filepath='libnurbs/internals/gridline.h' line='41' column='1'/>
      </data-member>
      <data-member access='public' layout-offset-in-bits='128'>
        <var-decl name='vindex' type-id='type-id-38' visibility='default' filepath='libnurbs/internals/gridline.h' line='42' column='1'/>
      </data-member>
      <data-member access='public' layout-offset-in-bits='192'>
        <var-decl name='ustart' type-id='type-id-38' visibility='default' filepath='libnurbs/internals/gridline.h' line='43' column='1'/>
      </data-member>
      <data-member access='public' layout-offset-in-bits='256'>
        <var-decl name='uend' type-id='type-id-38' visibility='default' filepath='libnurbs/internals/gridline.h' line='44' column='1'/>
      </data-member>
    </class-decl>
    <class-decl name='Jarcloc' size-in-bits='192' visibility='default' filepath='libnurbs/internals/jarcloc.h' line='41' column='1' id='type-id-202'>
      <data-member access='private' layout-offset-in-bits='0'>
        <var-decl name='arc' type-id='type-id-112' visibility='default' filepath='libnurbs/internals/jarcloc.h' line='43' column='1'/>
      </data-member>
      <data-member access='private' layout-offset-in-bits='64'>
        <var-decl name='p' type-id='type-id-127' visibility='default' filepath='libnurbs/internals/jarcloc.h' line='44' column='1'/>
      </data-member>
      <data-member access='private' layout-offset-in-bits='128'>
        <var-decl name='plast' type-id='type-id-127' visibility='default' filepath='libnurbs/internals/jarcloc.h' line='45' column='1'/>
      </data-member>
      <member-function access='private'>
        <function-decl name='getnextpt' mangled-name='_ZN7Jarcloc9getnextptEv' filepath='libnurbs/internals/jarcloc.h' line='48' column='1' visibility='default' binding='global' size-in-bits='64'>
          <parameter type-id='type-id-203' is-artificial='yes'/>
          <return type-id='type-id-127'/>
        </function-decl>
      </member-function>
      <member-function access='private'>
        <function-decl name='getprevpt' mangled-name='_ZN7Jarcloc9getprevptEv' filepath='libnurbs/internals/jarcloc.h' line='49' column='1' visibility='default' binding='global' size-in-bits='64'>
          <parameter type-id='type-id-203' is-artificial='yes'/>
          <return type-id='type-id-127'/>
        </function-decl>
      </member-function>
      <member-function access='private'>
        <function-decl name='reverse' mangled-name='_ZN7Jarcloc7reverseEv' filepath='libnurbs/internals/jarcloc.h' line='50' column='1' visibility='default' binding='global' size-in-bits='64'>
          <parameter type-id='type-id-203' is-artificial='yes'/>
          <return type-id='type-id-14'/>
        </function-decl>
      </member-function>
      <member-function access='private'>
        <function-decl name='init' mangled-name='_ZN7Jarcloc4initEP3Arcll' filepath='libnurbs/internals/jarcloc.h' line='47' column='1' visibility='default' binding='global' size-in-bits='64'>
          <parameter type-id='type-id-203' is-artificial='yes'/>
          <parameter type-id='type-id-112'/>
          <parameter type-id='type-id-38'/>
          <parameter type-id='type-id-38'/>
          <return type-id='type-id-14'/>
        </function-decl>
      </member-function>
    </class-decl>
    <class-decl name='Trimline' size-in-bits='832' visibility='default' filepath='libnurbs/internals/trimline.h' line='46' column='1' id='type-id-204'>
      <data-member access='private' layout-offset-in-bits='0'>
        <var-decl name='pts' type-id='type-id-176' visibility='default' filepath='libnurbs/internals/trimline.h' line='48' column='1'/>
      </data-member>
      <data-member access='private' layout-offset-in-bits='64'>
        <var-decl name='numverts' type-id='type-id-38' visibility='default' filepath='libnurbs/internals/trimline.h' line='49' column='1'/>
      </data-member>
      <data-member access='private' layout-offset-in-bits='128'>
        <var-decl name='i' type-id='type-id-38' visibility='default' filepath='libnurbs/internals/trimline.h' line='50' column='1'/>
      </data-member>
      <data-member access='private' layout-offset-in-bits='192'>
        <var-decl name='size' type-id='type-id-38' visibility='default' filepath='libnurbs/internals/trimline.h' line='51' column='1'/>
      </data-member>
      <data-member access='private' layout-offset-in-bits='256'>
        <var-decl name='jarcl' type-id='type-id-202' visibility='default' filepath='libnurbs/internals/trimline.h' line='52' column='1'/>
      </data-member>
      <data-member access='private' layout-offset-in-bits='448'>
        <var-decl name='t' type-id='type-id-128' visibility='default' filepath='libnurbs/internals/trimline.h' line='53' column='1'/>
      </data-member>
      <data-member access='private' layout-offset-in-bits='576'>
        <var-decl name='b' type-id='type-id-128' visibility='default' filepath='libnurbs/internals/trimline.h' line='53' column='1'/>
      </data-member>
      <data-member access='private' layout-offset-in-bits='704'>
        <var-decl name='tinterp' type-id='type-id-127' visibility='default' filepath='libnurbs/internals/trimline.h' line='54' column='1'/>
      </data-member>
      <data-member access='private' layout-offset-in-bits='768'>
        <var-decl name='binterp' type-id='type-id-127' visibility='default' filepath='libnurbs/internals/trimline.h' line='54' column='1'/>
      </data-member>
      <member-function access='private' constructor='yes'>
        <function-decl name='Trimline' filepath='libnurbs/internals/trimline.h' line='64' column='1' visibility='default' binding='global' size-in-bits='64'>
          <parameter type-id='type-id-205' is-artificial='yes'/>
          <return type-id='type-id-14'/>
        </function-decl>
      </member-function>
      <member-function access='private' destructor='yes'>
        <function-decl name='~Trimline' filepath='libnurbs/internals/trimline.h' line='65' column='1' visibility='default' binding='global' size-in-bits='64'>
          <parameter type-id='type-id-205' is-artificial='yes'/>
          <parameter type-id='type-id-8' is-artificial='yes'/>
          <return type-id='type-id-14'/>
        </function-decl>
      </member-function>
      <member-function access='private'>
        <function-decl name='prev' mangled-name='_ZN8Trimline4prevEv' filepath='libnurbs/internals/trimline.h' line='75' column='1' visibility='default' binding='global' size-in-bits='64'>
          <parameter type-id='type-id-205' is-artificial='yes'/>
          <return type-id='type-id-127'/>
        </function-decl>
      </member-function>
      <member-function access='private'>
        <function-decl name='next' mangled-name='_ZN8Trimline4nextEv' filepath='libnurbs/internals/trimline.h' line='74' column='1' visibility='default' binding='global' size-in-bits='64'>
          <parameter type-id='type-id-205' is-artificial='yes'/>
          <return type-id='type-id-127'/>
        </function-decl>
      </member-function>
      <member-function access='private'>
        <function-decl name='last' mangled-name='_ZN8Trimline4lastEv' filepath='libnurbs/internals/trimline.h' line='77' column='1' visibility='default' binding='global' size-in-bits='64'>
          <parameter type-id='type-id-205' is-artificial='yes'/>
          <return type-id='type-id-127'/>
        </function-decl>
      </member-function>
      <member-function access='private'>
        <function-decl name='first' mangled-name='_ZN8Trimline5firstEv' filepath='libnurbs/internals/trimline.h' line='76' column='1' visibility='default' binding='global' size-in-bits='64'>
          <parameter type-id='type-id-205' is-artificial='yes'/>
          <return type-id='type-id-127'/>
        </function-decl>
      </member-function>
      <member-function access='private'>
        <function-decl name='reset' mangled-name='_ZN8Trimline5resetEv' filepath='libnurbs/internals/trimline.h' line='55' column='1' visibility='default' binding='global' size-in-bits='64'>
          <parameter type-id='type-id-205' is-artificial='yes'/>
          <return type-id='type-id-14'/>
        </function-decl>
      </member-function>
      <member-function access='private'>
        <function-decl name='swap' mangled-name='_ZN8Trimline4swapEv' filepath='libnurbs/internals/trimline.h' line='57' column='1' visibility='default' binding='global' size-in-bits='64'>
          <parameter type-id='type-id-205' is-artificial='yes'/>
          <return type-id='type-id-14'/>
        </function-decl>
      </member-function>
      <member-function access='private'>
        <function-decl name='append' mangled-name='_ZN8Trimline6appendEP10TrimVertex' filepath='libnurbs/internals/trimline.h' line='58' column='1' visibility='default' binding='global' size-in-bits='64'>
          <parameter type-id='type-id-205' is-artificial='yes'/>
          <parameter type-id='type-id-127'/>
          <return type-id='type-id-14'/>
        </function-decl>
      </member-function>
      <member-function access='private'>
        <function-decl name='getNextPt' mangled-name='_ZN8Trimline9getNextPtEv' filepath='libnurbs/internals/trimline.h' line='68' column='1' visibility='default' binding='global' size-in-bits='64'>
          <parameter type-id='type-id-205' is-artificial='yes'/>
          <return type-id='type-id-14'/>
        </function-decl>
      </member-function>
      <member-function access='private'>
        <function-decl name='getPrevPt' mangled-name='_ZN8Trimline9getPrevPtEv' filepath='libnurbs/internals/trimline.h' line='69' column='1' visibility='default' binding='global' size-in-bits='64'>
          <parameter type-id='type-id-205' is-artificial='yes'/>
          <return type-id='type-id-14'/>
        </function-decl>
      </member-function>
      <member-function access='private'>
        <function-decl name='getNextPts' mangled-name='_ZN8Trimline10getNextPtsEP3Arc' filepath='libnurbs/internals/trimline.h' line='72' column='1' visibility='default' binding='global' size-in-bits='64'>
          <parameter type-id='type-id-205' is-artificial='yes'/>
          <parameter type-id='type-id-112'/>
          <return type-id='type-id-14'/>
        </function-decl>
      </member-function>
      <member-function access='private'>
        <function-decl name='getPrevPts' mangled-name='_ZN8Trimline10getPrevPtsEP3Arc' filepath='libnurbs/internals/trimline.h' line='73' column='1' visibility='default' binding='global' size-in-bits='64'>
          <parameter type-id='type-id-205' is-artificial='yes'/>
          <parameter type-id='type-id-112'/>
          <return type-id='type-id-14'/>
        </function-decl>
      </member-function>
      <member-function access='private' static='yes'>
        <function-decl name='interpvert' mangled-name='_ZN8Trimline10interpvertEP10TrimVertexS1_S1_f' filepath='libnurbs/internals/trimline.h' line='59' column='1' visibility='default' binding='global' size-in-bits='64'>
          <parameter type-id='type-id-127'/>
          <parameter type-id='type-id-127'/>
          <parameter type-id='type-id-127'/>
          <parameter type-id='type-id-1'/>
          <return type-id='type-id-38'/>
        </function-decl>
      </member-function>
      <member-function access='private'>
        <function-decl name='getPrevPts' mangled-name='_ZN8Trimline10getPrevPtsEfR7Backend' filepath='libnurbs/internals/trimline.h' line='71' column='1' visibility='default' binding='global' size-in-bits='64'>
          <parameter type-id='type-id-205' is-artificial='yes'/>
          <parameter type-id='type-id-1'/>
          <parameter type-id='type-id-167'/>
          <return type-id='type-id-14'/>
        </function-decl>
      </member-function>
      <member-function access='private'>
        <function-decl name='getNextPts' mangled-name='_ZN8Trimline10getNextPtsEfR7Backend' filepath='libnurbs/internals/trimline.h' line='70' column='1' visibility='default' binding='global' size-in-bits='64'>
          <parameter type-id='type-id-205' is-artificial='yes'/>
          <parameter type-id='type-id-1'/>
          <parameter type-id='type-id-167'/>
          <return type-id='type-id-14'/>
        </function-decl>
      </member-function>
      <member-function access='private'>
        <function-decl name='grow' mangled-name='_ZN8Trimline4growEl' filepath='libnurbs/internals/trimline.h' line='56' column='1' visibility='default' binding='global' size-in-bits='64'>
          <parameter type-id='type-id-205' is-artificial='yes'/>
          <parameter type-id='type-id-38'/>
          <return type-id='type-id-14'/>
        </function-decl>
      </member-function>
      <member-function access='private'>
        <function-decl name='init' mangled-name='_ZN8Trimline4initElP3Arcl' filepath='libnurbs/internals/trimline.h' line='67' column='1' visibility='default' binding='global' size-in-bits='64'>
          <parameter type-id='type-id-205' is-artificial='yes'/>
          <parameter type-id='type-id-38'/>
          <parameter type-id='type-id-112'/>
          <parameter type-id='type-id-38'/>
          <return type-id='type-id-14'/>
        </function-decl>
      </member-function>
      <member-function access='private'>
        <function-decl name='init' mangled-name='_ZN8Trimline4initEP10TrimVertex' filepath='libnurbs/internals/trimline.h' line='66' column='1' visibility='default' binding='global' size-in-bits='64'>
          <parameter type-id='type-id-205' is-artificial='yes'/>
          <parameter type-id='type-id-127'/>
          <return type-id='type-id-14'/>
        </function-decl>
      </member-function>
    </class-decl>
    <class-decl name='TrimRegion' size-in-bits='2560' visibility='default' filepath='libnurbs/internals/trimregion.h' line='46' column='1' id='type-id-197'>
      <data-member access='private' layout-offset-in-bits='0'>
        <var-decl name='left' type-id='type-id-204' visibility='default' filepath='libnurbs/internals/trimregion.h' line='49' column='1'/>
      </data-member>
      <data-member access='private' layout-offset-in-bits='832'>
        <var-decl name='right' type-id='type-id-204' visibility='default' filepath='libnurbs/internals/trimregion.h' line='50' column='1'/>
      </data-member>
      <data-member access='private' layout-offset-in-bits='1664'>
        <var-decl name='top' type-id='type-id-201' visibility='default' filepath='libnurbs/internals/trimregion.h' line='51' column='1'/>
      </data-member>
      <data-member access='private' layout-offset-in-bits='1984'>
        <var-decl name='bot' type-id='type-id-201' visibility='default' filepath='libnurbs/internals/trimregion.h' line='52' column='1'/>
      </data-member>
      <data-member access='private' layout-offset-in-bits='2304'>
        <var-decl name='uarray' type-id='type-id-206' visibility='default' filepath='libnurbs/internals/trimregion.h' line='53' column='1'/>
      </data-member>
      <data-member access='private' layout-offset-in-bits='2496'>
        <var-decl name='oneOverDu' type-id='type-id-1' visibility='default' filepath='libnurbs/internals/trimregion.h' line='65' column='1'/>
      </data-member>
      <member-function access='private' constructor='yes'>
        <function-decl name='TrimRegion' filepath='libnurbs/internals/trimregion.h' line='48' column='1' visibility='default' binding='global' size-in-bits='64'>
          <parameter type-id='type-id-207' is-artificial='yes'/>
          <return type-id='type-id-14'/>
        </function-decl>
      </member-function>
      <member-function access='private'>
        <function-decl name='init' mangled-name='_ZN10TrimRegion4initEf' filepath='libnurbs/internals/trimregion.h' line='55' column='1' visibility='default' binding='global' size-in-bits='64'>
          <parameter type-id='type-id-207' is-artificial='yes'/>
          <parameter type-id='type-id-1'/>
          <return type-id='type-id-14'/>
        </function-decl>
      </member-function>
      <member-function access='private'>
        <function-decl name='advance' mangled-name='_ZN10TrimRegion7advanceEfff' filepath='libnurbs/internals/trimregion.h' line='56' column='1' visibility='default' binding='global' size-in-bits='64'>
          <parameter type-id='type-id-207' is-artificial='yes'/>
          <parameter type-id='type-id-1'/>
          <parameter type-id='type-id-1'/>
          <parameter type-id='type-id-1'/>
          <return type-id='type-id-14'/>
        </function-decl>
      </member-function>
      <member-function access='private'>
        <function-decl name='setDu' mangled-name='_ZN10TrimRegion5setDuEf' filepath='libnurbs/internals/trimregion.h' line='57' column='1' visibility='default' binding='global' size-in-bits='64'>
          <parameter type-id='type-id-207' is-artificial='yes'/>
          <parameter type-id='type-id-1'/>
          <return type-id='type-id-14'/>
        </function-decl>
      </member-function>
      <member-function access='private'>
        <function-decl name='getGridExtent' mangled-name='_ZN10TrimRegion13getGridExtentEP10TrimVertexS1_' filepath='libnurbs/internals/trimregion.h' line='61' column='1' visibility='default' binding='global' size-in-bits='64'>
          <parameter type-id='type-id-207' is-artificial='yes'/>
          <parameter type-id='type-id-127'/>
          <parameter type-id='type-id-127'/>
          <return type-id='type-id-14'/>
        </function-decl>
      </member-function>
      <member-function access='private'>
        <function-decl name='getGridExtent' mangled-name='_ZN10TrimRegion13getGridExtentEv' filepath='libnurbs/internals/trimregion.h' line='62' column='1' visibility='default' binding='global' size-in-bits='64'>
          <parameter type-id='type-id-207' is-artificial='yes'/>
          <return type-id='type-id-14'/>
        </function-decl>
      </member-function>
      <member-function access='private'>
        <function-decl name='canTile' mangled-name='_ZN10TrimRegion7canTileEv' filepath='libnurbs/internals/trimregion.h' line='63' column='1' visibility='default' binding='global' size-in-bits='64'>
          <parameter type-id='type-id-207' is-artificial='yes'/>
          <return type-id='type-id-8'/>
        </function-decl>
      </member-function>
      <member-function access='private'>
        <function-decl name='getPts' mangled-name='_ZN10TrimRegion6getPtsER7Backend' filepath='libnurbs/internals/trimregion.h' line='60' column='1' visibility='default' binding='global' size-in-bits='64'>
          <parameter type-id='type-id-207' is-artificial='yes'/>
          <parameter type-id='type-id-167'/>
          <return type-id='type-id-14'/>
        </function-decl>
      </member-function>
      <member-function access='private'>
        <function-decl name='getPts' mangled-name='_ZN10TrimRegion6getPtsEP3Arc' filepath='libnurbs/internals/trimregion.h' line='59' column='1' visibility='default' binding='global' size-in-bits='64'>
          <parameter type-id='type-id-207' is-artificial='yes'/>
          <parameter type-id='type-id-112'/>
          <return type-id='type-id-14'/>
        </function-decl>
      </member-function>
      <member-function access='private'>
        <function-decl name='init' mangled-name='_ZN10TrimRegion4initElP3Arc' filepath='libnurbs/internals/trimregion.h' line='58' column='1' visibility='default' binding='global' size-in-bits='64'>
          <parameter type-id='type-id-207' is-artificial='yes'/>
          <parameter type-id='type-id-38'/>
          <parameter type-id='type-id-112'/>
          <return type-id='type-id-14'/>
        </function-decl>
      </member-function>
    </class-decl>
    <class-decl name='Uarray' size-in-bits='192' visibility='default' filepath='libnurbs/internals/uarray.h' line='44' column='1' id='type-id-206'>
      <data-member access='private' layout-offset-in-bits='0'>
        <var-decl name='size' type-id='type-id-38' visibility='default' filepath='libnurbs/internals/uarray.h' line='46' column='1'/>
      </data-member>
      <data-member access='private' layout-offset-in-bits='64'>
        <var-decl name='ulines' type-id='type-id-38' visibility='default' filepath='libnurbs/internals/uarray.h' line='47' column='1'/>
      </data-member>
      <data-member access='private' layout-offset-in-bits='128'>
        <var-decl name='uarray' type-id='type-id-22' visibility='default' filepath='libnurbs/internals/uarray.h' line='52' column='1'/>
      </data-member>
      <member-function access='private' constructor='yes'>
        <function-decl name='Uarray' filepath='libnurbs/internals/uarray.h' line='49' column='1' visibility='default' binding='global' size-in-bits='64'>
          <parameter type-id='type-id-208' is-artificial='yes'/>
          <return type-id='type-id-14'/>
        </function-decl>
      </member-function>
      <member-function access='private' destructor='yes'>
        <function-decl name='~Uarray' filepath='libnurbs/internals/uarray.h' line='50' column='1' visibility='default' binding='global' size-in-bits='64'>
          <parameter type-id='type-id-208' is-artificial='yes'/>
          <parameter type-id='type-id-8' is-artificial='yes'/>
          <return type-id='type-id-14'/>
        </function-decl>
      </member-function>
      <member-function access='private'>
        <function-decl name='init' mangled-name='_ZN6Uarray4initEfP3ArcS1_' filepath='libnurbs/internals/uarray.h' line='51' column='1' visibility='default' binding='global' size-in-bits='64'>
          <parameter type-id='type-id-208' is-artificial='yes'/>
          <parameter type-id='type-id-1'/>
          <parameter type-id='type-id-112'/>
          <parameter type-id='type-id-112'/>
          <return type-id='type-id-38'/>
        </function-decl>
      </member-function>
    </class-decl>
    <pointer-type-def type-id='type-id-188' size-in-bits='64' id='type-id-198'/>
    <reference-type-def kind='lvalue' type-id='type-id-195' size-in-bits='64' id='type-id-200'/>
    <reference-type-def kind='lvalue' type-id='type-id-196' size-in-bits='64' id='type-id-199'/>
    <pointer-type-def type-id='type-id-202' size-in-bits='64' id='type-id-203'/>
    <pointer-type-def type-id='type-id-197' size-in-bits='64' id='type-id-207'/>
    <pointer-type-def type-id='type-id-204' size-in-bits='64' id='type-id-205'/>
    <pointer-type-def type-id='type-id-206' size-in-bits='64' id='type-id-208'/>
  </abi-instr>
  <abi-instr address-size='64' path='libnurbs/internals/curve.cc' comp-dir-path='/tmp/legendre/spack-stage/spack-stage-T0fsxk/Mesa-8.0.5/src/glu/sgi' language='LANG_C_plus_plus'>
    <array-type-def dimensions='1' type-id='type-id-209' size-in-bits='640' id='type-id-164'>
      <subrange length='2' type-id='type-id-3' id='type-id-87'/>
    </array-type-def>
    <array-type-def dimensions='1' type-id='type-id-1' size-in-bits='3840' id='type-id-210'>
      <subrange length='120' type-id='type-id-3' id='type-id-211'/>
    </array-type-def>
    <array-type-def dimensions='1' type-id='type-id-1' size-in-bits='160' id='type-id-212'>
      <subrange length='5' type-id='type-id-3' id='type-id-213'/>
    </array-type-def>
    <array-type-def dimensions='2' type-id='type-id-1' size-in-bits='800' id='type-id-214'>
      <subrange length='5' type-id='type-id-3' id='type-id-213'/>
      <subrange length='5' type-id='type-id-3' id='type-id-213'/>
    </array-type-def>
    <array-type-def dimensions='1' type-id='type-id-15' size-in-bits='128' id='type-id-215'>
      <subrange length='4' type-id='type-id-3' id='type-id-61'/>
    </array-type-def>
    <array-type-def dimensions='1' type-id='type-id-8' size-in-bits='64' id='type-id-216'>
      <subrange length='2' type-id='type-id-3' id='type-id-87'/>
    </array-type-def>
    <class-decl name='Curve' size-in-bits='8128' visibility='default' filepath='libnurbs/internals/curve.h' line='46' column='1' id='type-id-217'>
      <data-member access='private' layout-offset-in-bits='0'>
        <var-decl name='next' type-id='type-id-145' visibility='default' filepath='libnurbs/internals/curve.h' line='51' column='1'/>
      </data-member>
      <data-member access='private' layout-offset-in-bits='64'>
        <var-decl name='mapdesc' type-id='type-id-163' visibility='default' filepath='libnurbs/internals/curve.h' line='53' column='1'/>
      </data-member>
      <data-member access='private' layout-offset-in-bits='128'>
        <var-decl name='stride' type-id='type-id-8' visibility='default' filepath='libnurbs/internals/curve.h' line='54' column='1'/>
      </data-member>
      <data-member access='private' layout-offset-in-bits='160'>
        <var-decl name='order' type-id='type-id-8' visibility='default' filepath='libnurbs/internals/curve.h' line='55' column='1'/>
      </data-member>
      <data-member access='private' layout-offset-in-bits='192'>
        <var-decl name='cullval' type-id='type-id-8' visibility='default' filepath='libnurbs/internals/curve.h' line='56' column='1'/>
      </data-member>
      <data-member access='private' layout-offset-in-bits='224'>
        <var-decl name='needsSampling' type-id='type-id-8' visibility='default' filepath='libnurbs/internals/curve.h' line='57' column='1'/>
      </data-member>
      <data-member access='private' layout-offset-in-bits='256'>
        <var-decl name='cpts' type-id='type-id-210' visibility='default' filepath='libnurbs/internals/curve.h' line='58' column='1'/>
      </data-member>
      <data-member access='private' layout-offset-in-bits='4096'>
        <var-decl name='spts' type-id='type-id-210' visibility='default' filepath='libnurbs/internals/curve.h' line='59' column='1'/>
      </data-member>
      <data-member access='private' layout-offset-in-bits='7936'>
        <var-decl name='stepsize' type-id='type-id-1' visibility='default' filepath='libnurbs/internals/curve.h' line='60' column='1'/>
      </data-member>
      <data-member access='private' layout-offset-in-bits='7968'>
        <var-decl name='minstepsize' type-id='type-id-1' visibility='default' filepath='libnurbs/internals/curve.h' line='61' column='1'/>
      </data-member>
      <data-member access='private' layout-offset-in-bits='8000'>
        <var-decl name='range' type-id='type-id-89' visibility='default' filepath='libnurbs/internals/curve.h' line='62' column='1'/>
      </data-member>
      <member-function access='private' constructor='yes'>
        <function-decl name='Curve' filepath='libnurbs/internals/curve.h' line='49' column='1' visibility='default' binding='global' size-in-bits='64'>
          <parameter type-id='type-id-145' is-artificial='yes'/>
          <parameter type-id='type-id-148'/>
          <parameter type-id='type-id-1'/>
          <parameter type-id='type-id-1'/>
          <parameter type-id='type-id-145'/>
          <return type-id='type-id-14'/>
        </function-decl>
      </member-function>
      <member-function access='private' constructor='yes'>
        <function-decl name='Curve' filepath='libnurbs/internals/curve.h' line='50' column='1' visibility='default' binding='global' size-in-bits='64'>
          <parameter type-id='type-id-145' is-artificial='yes'/>
          <parameter type-id='type-id-218'/>
          <parameter type-id='type-id-1'/>
          <parameter type-id='type-id-145'/>
          <return type-id='type-id-14'/>
        </function-decl>
      </member-function>
      <member-function access='private'>
        <function-decl name='clamp' mangled-name='_ZN5Curve5clampEv' filepath='libnurbs/internals/curve.h' line='64' column='1' visibility='default' binding='global' size-in-bits='64'>
          <parameter type-id='type-id-145' is-artificial='yes'/>
          <return type-id='type-id-14'/>
        </function-decl>
      </member-function>
      <member-function access='private'>
        <function-decl name='setstepsize' mangled-name='_ZN5Curve11setstepsizeEf' filepath='libnurbs/internals/curve.h' line='65' column='1' visibility='default' binding='global' size-in-bits='64'>
          <parameter type-id='type-id-145' is-artificial='yes'/>
          <parameter type-id='type-id-1'/>
          <return type-id='type-id-14'/>
        </function-decl>
      </member-function>
      <member-function access='private'>
        <function-decl name='needsSamplingSubdivision' mangled-name='_ZN5Curve24needsSamplingSubdivisionEv' filepath='libnurbs/internals/curve.h' line='68' column='1' visibility='default' binding='global' size-in-bits='64'>
          <parameter type-id='type-id-145' is-artificial='yes'/>
          <return type-id='type-id-8'/>
        </function-decl>
      </member-function>
      <member-function access='private'>
        <function-decl name='cullCheck' mangled-name='_ZN5Curve9cullCheckEv' filepath='libnurbs/internals/curve.h' line='67' column='1' visibility='default' binding='global' size-in-bits='64'>
          <parameter type-id='type-id-145' is-artificial='yes'/>
          <return type-id='type-id-8'/>
        </function-decl>
      </member-function>
      <member-function access='private'>
        <function-decl name='getstepsize' mangled-name='_ZN5Curve11getstepsizeEv' filepath='libnurbs/internals/curve.h' line='66' column='1' visibility='default' binding='global' size-in-bits='64'>
          <parameter type-id='type-id-145' is-artificial='yes'/>
          <return type-id='type-id-14'/>
        </function-decl>
      </member-function>
    </class-decl>
    <class-decl name='Knotvector' size-in-bits='256' is-struct='yes' visibility='default' filepath='libnurbs/internals/knotvector.h' line='41' column='1' id='type-id-219'>
      <data-member access='public' layout-offset-in-bits='0'>
        <var-decl name='order' type-id='type-id-38' visibility='default' filepath='libnurbs/internals/knotvector.h' line='48' column='1'/>
      </data-member>
      <data-member access='public' layout-offset-in-bits='64'>
        <var-decl name='knotcount' type-id='type-id-38' visibility='default' filepath='libnurbs/internals/knotvector.h' line='49' column='1'/>
      </data-member>
      <data-member access='public' layout-offset-in-bits='128'>
        <var-decl name='stride' type-id='type-id-38' visibility='default' filepath='libnurbs/internals/knotvector.h' line='50' column='1'/>
      </data-member>
      <data-member access='public' layout-offset-in-bits='192'>
        <var-decl name='knotlist' type-id='type-id-220' visibility='default' filepath='libnurbs/internals/knotvector.h' line='51' column='1'/>
      </data-member>
      <member-function access='public' constructor='yes'>
        <function-decl name='Knotvector' filepath='libnurbs/internals/knotvector.h' line='42' column='1' visibility='default' binding='global' size-in-bits='64'>
          <parameter type-id='type-id-83' is-artificial='yes'/>
          <return type-id='type-id-14'/>
        </function-decl>
      </member-function>
      <member-function access='public' destructor='yes'>
        <function-decl name='~Knotvector' filepath='libnurbs/internals/knotvector.h' line='43' column='1' visibility='default' binding='global' size-in-bits='64'>
          <parameter type-id='type-id-83' is-artificial='yes'/>
          <parameter type-id='type-id-8' is-artificial='yes'/>
          <return type-id='type-id-14'/>
        </function-decl>
      </member-function>
      <member-function access='public'>
        <function-decl name='validate' mangled-name='_ZN10Knotvector8validateEv' filepath='libnurbs/internals/knotvector.h' line='45' column='1' visibility='default' binding='global' size-in-bits='64'>
          <parameter type-id='type-id-83' is-artificial='yes'/>
          <return type-id='type-id-8'/>
        </function-decl>
      </member-function>
      <member-function access='public'>
        <function-decl name='show' mangled-name='_ZN10Knotvector4showEPKc' filepath='libnurbs/internals/knotvector.h' line='46' column='1' visibility='default' binding='global' size-in-bits='64'>
          <parameter type-id='type-id-83' is-artificial='yes'/>
          <parameter type-id='type-id-84'/>
          <return type-id='type-id-14'/>
        </function-decl>
      </member-function>
      <member-function access='public'>
        <function-decl name='init' mangled-name='_ZN10Knotvector4initElllPf' filepath='libnurbs/internals/knotvector.h' line='44' column='1' visibility='default' binding='global' size-in-bits='64'>
          <parameter type-id='type-id-83' is-artificial='yes'/>
          <parameter type-id='type-id-38'/>
          <parameter type-id='type-id-38'/>
          <parameter type-id='type-id-38'/>
          <parameter type-id='type-id-49'/>
          <return type-id='type-id-14'/>
        </function-decl>
      </member-function>
    </class-decl>
    <typedef-decl name='Maxmatrix' type-id='type-id-214' filepath='libnurbs/internals/mapdesc.h' line='45' column='1' id='type-id-221'/>
    <class-decl name='Mapdesc' size-in-bits='3392' is-struct='yes' visibility='default' filepath='libnurbs/internals/mapdesc.h' line='49' column='1' id='type-id-222'>
      <base-class access='public' layout-offset-in-bits='0' type-id='type-id-115'/>
      <data-member access='public' layout-offset-in-bits='0'>
        <var-decl name='pixel_tolerance' type-id='type-id-1' visibility='default' filepath='libnurbs/internals/mapdesc.h' line='104' column='1'/>
      </data-member>
      <data-member access='public' layout-offset-in-bits='32'>
        <var-decl name='error_tolerance' type-id='type-id-1' visibility='default' filepath='libnurbs/internals/mapdesc.h' line='105' column='1'/>
      </data-member>
      <data-member access='public' layout-offset-in-bits='64'>
        <var-decl name='object_space_error_tolerance' type-id='type-id-1' visibility='default' filepath='libnurbs/internals/mapdesc.h' line='106' column='1'/>
      </data-member>
      <data-member access='public' layout-offset-in-bits='96'>
        <var-decl name='clampfactor' type-id='type-id-1' visibility='default' filepath='libnurbs/internals/mapdesc.h' line='107' column='1'/>
      </data-member>
      <data-member access='public' layout-offset-in-bits='128'>
        <var-decl name='minsavings' type-id='type-id-1' visibility='default' filepath='libnurbs/internals/mapdesc.h' line='108' column='1'/>
      </data-member>
      <data-member access='public' layout-offset-in-bits='160'>
        <var-decl name='maxrate' type-id='type-id-1' visibility='default' filepath='libnurbs/internals/mapdesc.h' line='109' column='1'/>
      </data-member>
      <data-member access='public' layout-offset-in-bits='192'>
        <var-decl name='maxsrate' type-id='type-id-1' visibility='default' filepath='libnurbs/internals/mapdesc.h' line='110' column='1'/>
      </data-member>
      <data-member access='public' layout-offset-in-bits='224'>
        <var-decl name='maxtrate' type-id='type-id-1' visibility='default' filepath='libnurbs/internals/mapdesc.h' line='111' column='1'/>
      </data-member>
      <data-member access='public' layout-offset-in-bits='256'>
        <var-decl name='bboxsize' type-id='type-id-212' visibility='default' filepath='libnurbs/internals/mapdesc.h' line='112' column='1'/>
      </data-member>
      <data-member access='private' layout-offset-in-bits='448'>
        <var-decl name='type' type-id='type-id-38' visibility='default' filepath='libnurbs/internals/mapdesc.h' line='115' column='1'/>
      </data-member>
      <data-member access='private' layout-offset-in-bits='512'>
        <var-decl name='isrational' type-id='type-id-8' visibility='default' filepath='libnurbs/internals/mapdesc.h' line='116' column='1'/>
      </data-member>
      <data-member access='private' layout-offset-in-bits='544'>
        <var-decl name='ncoords' type-id='type-id-8' visibility='default' filepath='libnurbs/internals/mapdesc.h' line='117' column='1'/>
      </data-member>
      <data-member access='private' layout-offset-in-bits='576'>
        <var-decl name='hcoords' type-id='type-id-8' visibility='default' filepath='libnurbs/internals/mapdesc.h' line='118' column='1'/>
      </data-member>
      <data-member access='private' layout-offset-in-bits='608'>
        <var-decl name='inhcoords' type-id='type-id-8' visibility='default' filepath='libnurbs/internals/mapdesc.h' line='119' column='1'/>
      </data-member>
      <data-member access='private' layout-offset-in-bits='640'>
        <var-decl name='mask' type-id='type-id-8' visibility='default' filepath='libnurbs/internals/mapdesc.h' line='120' column='1'/>
      </data-member>
      <data-member access='private' layout-offset-in-bits='672'>
        <var-decl name='bmat' type-id='type-id-221' visibility='default' filepath='libnurbs/internals/mapdesc.h' line='121' column='1'/>
      </data-member>
      <data-member access='private' layout-offset-in-bits='1472'>
        <var-decl name='cmat' type-id='type-id-221' visibility='default' filepath='libnurbs/internals/mapdesc.h' line='122' column='1'/>
      </data-member>
      <data-member access='private' layout-offset-in-bits='2272'>
        <var-decl name='smat' type-id='type-id-221' visibility='default' filepath='libnurbs/internals/mapdesc.h' line='123' column='1'/>
      </data-member>
      <data-member access='private' layout-offset-in-bits='3072'>
        <var-decl name='s_steps' type-id='type-id-1' visibility='default' filepath='libnurbs/internals/mapdesc.h' line='124' column='1'/>
      </data-member>
      <data-member access='private' layout-offset-in-bits='3104'>
        <var-decl name='t_steps' type-id='type-id-1' visibility='default' filepath='libnurbs/internals/mapdesc.h' line='125' column='1'/>
      </data-member>
      <data-member access='private' layout-offset-in-bits='3136'>
        <var-decl name='sampling_method' type-id='type-id-1' visibility='default' filepath='libnurbs/internals/mapdesc.h' line='126' column='1'/>
      </data-member>
      <data-member access='private' layout-offset-in-bits='3168'>
        <var-decl name='culling_method' type-id='type-id-1' visibility='default' filepath='libnurbs/internals/mapdesc.h' line='127' column='1'/>
      </data-member>
      <data-member access='private' layout-offset-in-bits='3200'>
        <var-decl name='bbox_subdividing' type-id='type-id-1' visibility='default' filepath='libnurbs/internals/mapdesc.h' line='128' column='1'/>
      </data-member>
      <data-member access='private' layout-offset-in-bits='3264'>
        <var-decl name='next' type-id='type-id-163' visibility='default' filepath='libnurbs/internals/mapdesc.h' line='129' column='1'/>
      </data-member>
      <data-member access='private' layout-offset-in-bits='3328'>
        <var-decl name='backend' type-id='type-id-167' visibility='default' filepath='libnurbs/internals/mapdesc.h' line='130' column='1'/>
      </data-member>
      <member-function access='public' constructor='yes'>
        <function-decl name='Mapdesc' filepath='libnurbs/internals/mapdesc.h' line='53' column='1' visibility='default' binding='global' size-in-bits='64'>
          <parameter type-id='type-id-163' is-artificial='yes'/>
          <parameter type-id='type-id-38'/>
          <parameter type-id='type-id-8'/>
          <parameter type-id='type-id-8'/>
          <parameter type-id='type-id-167'/>
          <return type-id='type-id-14'/>
        </function-decl>
      </member-function>
      <member-function access='public'>
        <function-decl name='isParametricDistanceSampling' mangled-name='_ZN7Mapdesc28isParametricDistanceSamplingEv' filepath='libnurbs/internals/mapdesc.h' line='61' column='1' visibility='default' binding='global' size-in-bits='64'>
          <parameter type-id='type-id-163' is-artificial='yes'/>
          <return type-id='type-id-8'/>
        </function-decl>
      </member-function>
      <member-function access='public'>
        <function-decl name='isPathLengthSampling' mangled-name='_ZN7Mapdesc20isPathLengthSamplingEv' filepath='libnurbs/internals/mapdesc.h' line='65' column='1' visibility='default' binding='global' size-in-bits='64'>
          <parameter type-id='type-id-163' is-artificial='yes'/>
          <return type-id='type-id-8'/>
        </function-decl>
      </member-function>
      <member-function access='public'>
        <function-decl name='isSurfaceAreaSampling' mangled-name='_ZN7Mapdesc21isSurfaceAreaSamplingEv' filepath='libnurbs/internals/mapdesc.h' line='64' column='1' visibility='default' binding='global' size-in-bits='64'>
          <parameter type-id='type-id-163' is-artificial='yes'/>
          <return type-id='type-id-8'/>
        </function-decl>
      </member-function>
      <member-function access='public'>
        <function-decl name='isObjectSpaceParaSampling' mangled-name='_ZN7Mapdesc25isObjectSpaceParaSamplingEv' filepath='libnurbs/internals/mapdesc.h' line='62' column='1' visibility='default' binding='global' size-in-bits='64'>
          <parameter type-id='type-id-163' is-artificial='yes'/>
          <return type-id='type-id-8'/>
        </function-decl>
      </member-function>
      <member-function access='public'>
        <function-decl name='isObjectSpacePathSampling' mangled-name='_ZN7Mapdesc25isObjectSpacePathSamplingEv' filepath='libnurbs/internals/mapdesc.h' line='63' column='1' visibility='default' binding='global' size-in-bits='64'>
          <parameter type-id='type-id-163' is-artificial='yes'/>
          <return type-id='type-id-8'/>
        </function-decl>
      </member-function>
      <member-function access='public'>
        <function-decl name='isConstantSampling' mangled-name='_ZN7Mapdesc18isConstantSamplingEv' filepath='libnurbs/internals/mapdesc.h' line='57' column='1' visibility='default' binding='global' size-in-bits='64'>
          <parameter type-id='type-id-163' is-artificial='yes'/>
          <return type-id='type-id-8'/>
        </function-decl>
      </member-function>
      <member-function access='public'>
        <function-decl name='isDomainSampling' mangled-name='_ZN7Mapdesc16isDomainSamplingEv' filepath='libnurbs/internals/mapdesc.h' line='58' column='1' visibility='default' binding='global' size-in-bits='64'>
          <parameter type-id='type-id-163' is-artificial='yes'/>
          <return type-id='type-id-8'/>
        </function-decl>
      </member-function>
      <member-function access='public'>
        <function-decl name='isRangeSampling' mangled-name='_ZN7Mapdesc15isRangeSamplingEv' filepath='libnurbs/internals/mapdesc.h' line='59' column='1' visibility='default' binding='global' size-in-bits='64'>
          <parameter type-id='type-id-163' is-artificial='yes'/>
          <return type-id='type-id-8'/>
        </function-decl>
      </member-function>
      <member-function access='public'>
        <function-decl name='isCulling' mangled-name='_ZN7Mapdesc9isCullingEv' filepath='libnurbs/internals/mapdesc.h' line='66' column='1' visibility='default' binding='global' size-in-bits='64'>
          <parameter type-id='type-id-163' is-artificial='yes'/>
          <return type-id='type-id-8'/>
        </function-decl>
      </member-function>
      <member-function access='private'>
        <function-decl name='xformCulling' mangled-name='_ZN7Mapdesc12xformCullingEPfS0_' filepath='libnurbs/internals/mapdesc.h' line='143' column='1' visibility='default' binding='global' size-in-bits='64'>
          <parameter type-id='type-id-163' is-artificial='yes'/>
          <parameter type-id='type-id-22'/>
          <parameter type-id='type-id-22'/>
          <return type-id='type-id-14'/>
        </function-decl>
      </member-function>
      <member-function access='public'>
        <function-decl name='setBboxsize' mangled-name='_ZN7Mapdesc11setBboxsizeEPf' filepath='libnurbs/internals/mapdesc.h' line='97' column='1' visibility='default' binding='global' size-in-bits='64'>
          <parameter type-id='type-id-163' is-artificial='yes'/>
          <parameter type-id='type-id-49'/>
          <return type-id='type-id-14'/>
        </function-decl>
      </member-function>
      <member-function access='private' static='yes'>
        <function-decl name='copy' mangled-name='_ZN7Mapdesc4copyEPA5_flPfll' filepath='libnurbs/internals/mapdesc.h' line='134' column='1' visibility='default' binding='global' size-in-bits='64'>
          <parameter type-id='type-id-223'/>
          <parameter type-id='type-id-38'/>
          <parameter type-id='type-id-49'/>
          <parameter type-id='type-id-38'/>
          <parameter type-id='type-id-38'/>
          <return type-id='type-id-14'/>
        </function-decl>
      </member-function>
      <member-function access='private'>
        <function-decl name='sumPt' mangled-name='_ZN7Mapdesc5sumPtEPfS0_S0_ff' filepath='libnurbs/internals/mapdesc.h' line='141' column='1' visibility='default' binding='global' size-in-bits='64'>
          <parameter type-id='type-id-163' is-artificial='yes'/>
          <parameter type-id='type-id-22'/>
          <parameter type-id='type-id-22'/>
          <parameter type-id='type-id-22'/>
          <parameter type-id='type-id-1'/>
          <parameter type-id='type-id-1'/>
          <return type-id='type-id-14'/>
        </function-decl>
      </member-function>
      <member-function access='private'>
        <function-decl name='xformRational' mangled-name='_ZN7Mapdesc13xformRationalEPA5_fPfS2_' filepath='libnurbs/internals/mapdesc.h' line='144' column='1' visibility='default' binding='global' size-in-bits='64'>
          <parameter type-id='type-id-163' is-artificial='yes'/>
          <parameter type-id='type-id-223'/>
          <parameter type-id='type-id-22'/>
          <parameter type-id='type-id-22'/>
          <return type-id='type-id-14'/>
        </function-decl>
      </member-function>
      <member-function access='private'>
        <function-decl name='xformNonrational' mangled-name='_ZN7Mapdesc16xformNonrationalEPA5_fPfS2_' filepath='libnurbs/internals/mapdesc.h' line='145' column='1' visibility='default' binding='global' size-in-bits='64'>
          <parameter type-id='type-id-163' is-artificial='yes'/>
          <parameter type-id='type-id-223'/>
          <parameter type-id='type-id-22'/>
          <parameter type-id='type-id-22'/>
          <return type-id='type-id-14'/>
        </function-decl>
      </member-function>
      <member-function access='public'>
        <function-decl name='xformMat' mangled-name='_ZN7Mapdesc8xformMatEPA5_fPfiiS2_i' filepath='libnurbs/internals/mapdesc.h' line='76' column='1' visibility='default' binding='global' size-in-bits='64'>
          <parameter type-id='type-id-163' is-artificial='yes'/>
          <parameter type-id='type-id-223'/>
          <parameter type-id='type-id-22'/>
          <parameter type-id='type-id-8'/>
          <parameter type-id='type-id-8'/>
          <parameter type-id='type-id-22'/>
          <parameter type-id='type-id-8'/>
          <return type-id='type-id-14'/>
        </function-decl>
      </member-function>
      <member-function access='public'>
        <function-decl name='xformCulling' mangled-name='_ZN7Mapdesc12xformCullingEPfiiS0_i' filepath='libnurbs/internals/mapdesc.h' line='74' column='1' visibility='default' binding='global' size-in-bits='64'>
          <parameter type-id='type-id-163' is-artificial='yes'/>
          <parameter type-id='type-id-22'/>
          <parameter type-id='type-id-8'/>
          <parameter type-id='type-id-8'/>
          <parameter type-id='type-id-22'/>
          <parameter type-id='type-id-8'/>
          <return type-id='type-id-14'/>
        </function-decl>
      </member-function>
      <member-function access='public'>
        <function-decl name='xformBounding' mangled-name='_ZN7Mapdesc13xformBoundingEPfiiS0_i' filepath='libnurbs/internals/mapdesc.h' line='73' column='1' visibility='default' binding='global' size-in-bits='64'>
          <parameter type-id='type-id-163' is-artificial='yes'/>
          <parameter type-id='type-id-22'/>
          <parameter type-id='type-id-8'/>
          <parameter type-id='type-id-8'/>
          <parameter type-id='type-id-22'/>
          <parameter type-id='type-id-8'/>
          <return type-id='type-id-14'/>
        </function-decl>
      </member-function>
      <member-function access='public'>
        <function-decl name='xformSampling' mangled-name='_ZN7Mapdesc13xformSamplingEPfiiS0_i' filepath='libnurbs/internals/mapdesc.h' line='75' column='1' visibility='default' binding='global' size-in-bits='64'>
          <parameter type-id='type-id-163' is-artificial='yes'/>
          <parameter type-id='type-id-22'/>
          <parameter type-id='type-id-8'/>
          <parameter type-id='type-id-8'/>
          <parameter type-id='type-id-22'/>
          <parameter type-id='type-id-8'/>
          <return type-id='type-id-14'/>
        </function-decl>
      </member-function>
      <member-function access='public'>
        <function-decl name='xformMat' mangled-name='_ZN7Mapdesc8xformMatEPA5_fPfiiiiS2_ii' filepath='libnurbs/internals/mapdesc.h' line='88' column='1' visibility='default' binding='global' size-in-bits='64'>
          <parameter type-id='type-id-163' is-artificial='yes'/>
          <parameter type-id='type-id-223'/>
          <parameter type-id='type-id-22'/>
          <parameter type-id='type-id-8'/>
          <parameter type-id='type-id-8'/>
          <parameter type-id='type-id-8'/>
          <parameter type-id='type-id-8'/>
          <parameter type-id='type-id-22'/>
          <parameter type-id='type-id-8'/>
          <parameter type-id='type-id-8'/>
          <return type-id='type-id-14'/>
        </function-decl>
      </member-function>
      <member-function access='public'>
        <function-decl name='xformBounding' mangled-name='_ZN7Mapdesc13xformBoundingEPfiiiiS0_ii' filepath='libnurbs/internals/mapdesc.h' line='85' column='1' visibility='default' binding='global' size-in-bits='64'>
          <parameter type-id='type-id-163' is-artificial='yes'/>
          <parameter type-id='type-id-22'/>
          <parameter type-id='type-id-8'/>
          <parameter type-id='type-id-8'/>
          <parameter type-id='type-id-8'/>
          <parameter type-id='type-id-8'/>
          <parameter type-id='type-id-22'/>
          <parameter type-id='type-id-8'/>
          <parameter type-id='type-id-8'/>
          <return type-id='type-id-14'/>
        </function-decl>
      </member-function>
      <member-function access='public'>
        <function-decl name='xformSampling' mangled-name='_ZN7Mapdesc13xformSamplingEPfiiiiS0_ii' filepath='libnurbs/internals/mapdesc.h' line='87' column='1' visibility='default' binding='global' size-in-bits='64'>
          <parameter type-id='type-id-163' is-artificial='yes'/>
          <parameter type-id='type-id-22'/>
          <parameter type-id='type-id-8'/>
          <parameter type-id='type-id-8'/>
          <parameter type-id='type-id-8'/>
          <parameter type-id='type-id-8'/>
          <parameter type-id='type-id-22'/>
          <parameter type-id='type-id-8'/>
          <parameter type-id='type-id-8'/>
          <return type-id='type-id-14'/>
        </function-decl>
      </member-function>
      <member-function access='public'>
        <function-decl name='xformCulling' mangled-name='_ZN7Mapdesc12xformCullingEPfiiiiS0_ii' filepath='libnurbs/internals/mapdesc.h' line='86' column='1' visibility='default' binding='global' size-in-bits='64'>
          <parameter type-id='type-id-163' is-artificial='yes'/>
          <parameter type-id='type-id-22'/>
          <parameter type-id='type-id-8'/>
          <parameter type-id='type-id-8'/>
          <parameter type-id='type-id-8'/>
          <parameter type-id='type-id-8'/>
          <parameter type-id='type-id-22'/>
          <parameter type-id='type-id-8'/>
          <parameter type-id='type-id-8'/>
          <return type-id='type-id-14'/>
        </function-decl>
      </member-function>
      <member-function access='public'>
        <function-decl name='project' mangled-name='_ZN7Mapdesc7projectEPfiiS0_iiii' filepath='libnurbs/internals/mapdesc.h' line='90' column='1' visibility='default' binding='global' size-in-bits='64'>
          <parameter type-id='type-id-163' is-artificial='yes'/>
          <parameter type-id='type-id-22'/>
          <parameter type-id='type-id-8'/>
          <parameter type-id='type-id-8'/>
          <parameter type-id='type-id-22'/>
          <parameter type-id='type-id-8'/>
          <parameter type-id='type-id-8'/>
          <parameter type-id='type-id-8'/>
          <parameter type-id='type-id-8'/>
          <return type-id='type-id-8'/>
        </function-decl>
      </member-function>
      <member-function access='public'>
        <function-decl name='project' mangled-name='_ZN7Mapdesc7projectEPfiS0_ii' filepath='libnurbs/internals/mapdesc.h' line='78' column='1' visibility='default' binding='global' size-in-bits='64'>
          <parameter type-id='type-id-163' is-artificial='yes'/>
          <parameter type-id='type-id-22'/>
          <parameter type-id='type-id-8'/>
          <parameter type-id='type-id-22'/>
          <parameter type-id='type-id-8'/>
          <parameter type-id='type-id-8'/>
          <return type-id='type-id-8'/>
        </function-decl>
      </member-function>
      <member-function access='private'>
        <function-decl name='bbox' mangled-name='_ZN7Mapdesc4bboxEPA5_fPfiiii' filepath='libnurbs/internals/mapdesc.h' line='132' column='1' visibility='default' binding='global' size-in-bits='64'>
          <parameter type-id='type-id-163' is-artificial='yes'/>
          <parameter type-id='type-id-223'/>
          <parameter type-id='type-id-22'/>
          <parameter type-id='type-id-8'/>
          <parameter type-id='type-id-8'/>
          <parameter type-id='type-id-8'/>
          <parameter type-id='type-id-8'/>
          <return type-id='type-id-14'/>
        </function-decl>
      </member-function>
      <member-function access='public'>
        <function-decl name='isProperty' mangled-name='_ZN7Mapdesc10isPropertyEl' filepath='libnurbs/internals/mapdesc.h' line='54' column='1' visibility='default' binding='global' size-in-bits='64'>
          <parameter type-id='type-id-163' is-artificial='yes'/>
          <parameter type-id='type-id-38'/>
          <return type-id='type-id-8'/>
        </function-decl>
      </member-function>
      <member-function access='public'>
        <function-decl name='setProperty' mangled-name='_ZN7Mapdesc11setPropertyElf' filepath='libnurbs/internals/mapdesc.h' line='56' column='1' visibility='default' binding='global' size-in-bits='64'>
          <parameter type-id='type-id-163' is-artificial='yes'/>
          <parameter type-id='type-id-38'/>
          <parameter type-id='type-id-1'/>
          <return type-id='type-id-14'/>
        </function-decl>
      </member-function>
      <member-function access='public'>
        <function-decl name='getProperty' mangled-name='_ZN7Mapdesc11getPropertyEl' filepath='libnurbs/internals/mapdesc.h' line='55' column='1' visibility='default' binding='global' size-in-bits='64'>
          <parameter type-id='type-id-163' is-artificial='yes'/>
          <parameter type-id='type-id-38'/>
          <return type-id='type-id-1'/>
        </function-decl>
      </member-function>
      <member-function access='private'>
        <function-decl name='clipbits' mangled-name='_ZN7Mapdesc8clipbitsEPf' filepath='libnurbs/internals/mapdesc.h' line='146' column='1' visibility='default' binding='global' size-in-bits='64'>
          <parameter type-id='type-id-163' is-artificial='yes'/>
          <parameter type-id='type-id-22'/>
          <return type-id='type-id-224'/>
        </function-decl>
      </member-function>
      <member-function access='public'>
        <function-decl name='cullCheck' mangled-name='_ZN7Mapdesc9cullCheckEPfii' filepath='libnurbs/internals/mapdesc.h' line='72' column='1' visibility='default' binding='global' size-in-bits='64'>
          <parameter type-id='type-id-163' is-artificial='yes'/>
          <parameter type-id='type-id-22'/>
          <parameter type-id='type-id-8'/>
          <parameter type-id='type-id-8'/>
          <return type-id='type-id-8'/>
        </function-decl>
      </member-function>
      <member-function access='public'>
        <function-decl name='cullCheck' mangled-name='_ZN7Mapdesc9cullCheckEPfiiii' filepath='libnurbs/internals/mapdesc.h' line='84' column='1' visibility='default' binding='global' size-in-bits='64'>
          <parameter type-id='type-id-163' is-artificial='yes'/>
          <parameter type-id='type-id-22'/>
          <parameter type-id='type-id-8'/>
          <parameter type-id='type-id-8'/>
          <parameter type-id='type-id-8'/>
          <parameter type-id='type-id-8'/>
          <return type-id='type-id-8'/>
        </function-decl>
      </member-function>
      <member-function access='public'>
        <function-decl name='xformAndCullCheck' mangled-name='_ZN7Mapdesc17xformAndCullCheckEPfiiii' filepath='libnurbs/internals/mapdesc.h' line='94' column='1' visibility='default' binding='global' size-in-bits='64'>
          <parameter type-id='type-id-163' is-artificial='yes'/>
          <parameter type-id='type-id-22'/>
          <parameter type-id='type-id-8'/>
          <parameter type-id='type-id-8'/>
          <parameter type-id='type-id-8'/>
          <parameter type-id='type-id-8'/>
          <return type-id='type-id-8'/>
        </function-decl>
      </member-function>
      <member-function access='public'>
        <function-decl name='calcVelocityNonrational' mangled-name='_ZN7Mapdesc23calcVelocityNonrationalEPfii' filepath='libnurbs/internals/mapdesc.h' line='80' column='1' visibility='default' binding='global' size-in-bits='64'>
          <parameter type-id='type-id-163' is-artificial='yes'/>
          <parameter type-id='type-id-22'/>
          <parameter type-id='type-id-8'/>
          <parameter type-id='type-id-8'/>
          <return type-id='type-id-1'/>
        </function-decl>
      </member-function>
      <member-function access='public'>
        <function-decl name='calcVelocityRational' mangled-name='_ZN7Mapdesc20calcVelocityRationalEPfii' filepath='libnurbs/internals/mapdesc.h' line='79' column='1' visibility='default' binding='global' size-in-bits='64'>
          <parameter type-id='type-id-163' is-artificial='yes'/>
          <parameter type-id='type-id-22'/>
          <parameter type-id='type-id-8'/>
          <parameter type-id='type-id-8'/>
          <return type-id='type-id-1'/>
        </function-decl>
      </member-function>
      <member-function access='public'>
        <function-decl name='bboxTooBig' mangled-name='_ZN7Mapdesc10bboxTooBigEPfiiiiPA5_f' filepath='libnurbs/internals/mapdesc.h' line='93' column='1' visibility='default' binding='global' size-in-bits='64'>
          <parameter type-id='type-id-163' is-artificial='yes'/>
          <parameter type-id='type-id-22'/>
          <parameter type-id='type-id-8'/>
          <parameter type-id='type-id-8'/>
          <parameter type-id='type-id-8'/>
          <parameter type-id='type-id-8'/>
          <parameter type-id='type-id-223'/>
          <return type-id='type-id-8'/>
        </function-decl>
      </member-function>
      <member-function access='private'>
        <function-decl name='copyPt' mangled-name='_ZN7Mapdesc6copyPtEPfS0_' filepath='libnurbs/internals/mapdesc.h' line='140' column='1' visibility='default' binding='global' size-in-bits='64'>
          <parameter type-id='type-id-163' is-artificial='yes'/>
          <parameter type-id='type-id-22'/>
          <parameter type-id='type-id-22'/>
          <return type-id='type-id-14'/>
        </function-decl>
      </member-function>
      <member-function access='public'>
        <function-decl name='subdivide' mangled-name='_ZN7Mapdesc9subdivideEPfS0_fiiii' filepath='libnurbs/internals/mapdesc.h' line='83' column='1' visibility='default' binding='global' size-in-bits='64'>
          <parameter type-id='type-id-163' is-artificial='yes'/>
          <parameter type-id='type-id-22'/>
          <parameter type-id='type-id-22'/>
          <parameter type-id='type-id-1'/>
          <parameter type-id='type-id-8'/>
          <parameter type-id='type-id-8'/>
          <parameter type-id='type-id-8'/>
          <parameter type-id='type-id-8'/>
          <return type-id='type-id-14'/>
        </function-decl>
      </member-function>
      <member-function access='public'>
        <function-decl name='subdivide' mangled-name='_ZN7Mapdesc9subdivideEPfS0_fii' filepath='libnurbs/internals/mapdesc.h' line='71' column='1' visibility='default' binding='global' size-in-bits='64'>
          <parameter type-id='type-id-163' is-artificial='yes'/>
          <parameter type-id='type-id-22'/>
          <parameter type-id='type-id-22'/>
          <parameter type-id='type-id-1'/>
          <parameter type-id='type-id-8'/>
          <parameter type-id='type-id-8'/>
          <return type-id='type-id-14'/>
        </function-decl>
      </member-function>
      <member-function access='public'>
        <function-decl name='surfbbox' mangled-name='_ZN7Mapdesc8surfbboxEPA5_f' filepath='libnurbs/internals/mapdesc.h' line='91' column='1' visibility='default' binding='global' size-in-bits='64'>
          <parameter type-id='type-id-163' is-artificial='yes'/>
          <parameter type-id='type-id-223'/>
          <return type-id='type-id-14'/>
        </function-decl>
      </member-function>
      <member-function access='public'>
        <function-decl name='identify' mangled-name='_ZN7Mapdesc8identifyEPA5_f' filepath='libnurbs/internals/mapdesc.h' line='96' column='1' visibility='default' binding='global' size-in-bits='64'>
          <parameter type-id='type-id-163' is-artificial='yes'/>
          <parameter type-id='type-id-223'/>
          <return type-id='type-id-14'/>
        </function-decl>
      </member-function>
      <member-function access='public'>
        <function-decl name='calcPartialVelocity' mangled-name='_ZN7Mapdesc19calcPartialVelocityEPfS0_iiiiiiffi' filepath='libnurbs/internals/mapdesc.h' line='89' column='1' visibility='default' binding='global' size-in-bits='64'>
          <parameter type-id='type-id-163' is-artificial='yes'/>
          <parameter type-id='type-id-22'/>
          <parameter type-id='type-id-22'/>
          <parameter type-id='type-id-8'/>
          <parameter type-id='type-id-8'/>
          <parameter type-id='type-id-8'/>
          <parameter type-id='type-id-8'/>
          <parameter type-id='type-id-8'/>
          <parameter type-id='type-id-8'/>
          <parameter type-id='type-id-1'/>
          <parameter type-id='type-id-1'/>
          <parameter type-id='type-id-8'/>
          <return type-id='type-id-1'/>
        </function-decl>
      </member-function>
      <member-function access='public'>
        <function-decl name='calcPartialVelocity' mangled-name='_ZN7Mapdesc19calcPartialVelocityEPfiiif' filepath='libnurbs/internals/mapdesc.h' line='77' column='1' visibility='default' binding='global' size-in-bits='64'>
          <parameter type-id='type-id-163' is-artificial='yes'/>
          <parameter type-id='type-id-22'/>
          <parameter type-id='type-id-8'/>
          <parameter type-id='type-id-8'/>
          <parameter type-id='type-id-8'/>
          <parameter type-id='type-id-1'/>
          <return type-id='type-id-1'/>
        </function-decl>
      </member-function>
      <member-function access='public'>
        <function-decl name='getType' mangled-name='_ZN7Mapdesc7getTypeEv' filepath='libnurbs/internals/mapdesc.h' line='68' column='1' visibility='default' binding='global' size-in-bits='64'>
          <parameter type-id='type-id-163' is-artificial='yes'/>
          <return type-id='type-id-38'/>
        </function-decl>
      </member-function>
      <member-function access='public'>
        <function-decl name='isRational' mangled-name='_ZN7Mapdesc10isRationalEv' filepath='libnurbs/internals/mapdesc.h' line='101' column='1' visibility='default' binding='global' size-in-bits='64'>
          <parameter type-id='type-id-163' is-artificial='yes'/>
          <return type-id='type-id-8'/>
        </function-decl>
      </member-function>
      <member-function access='public'>
        <function-decl name='setCmat' mangled-name='_ZN7Mapdesc7setCmatEPfll' filepath='libnurbs/internals/mapdesc.h' line='99' column='1' visibility='default' binding='global' size-in-bits='64'>
          <parameter type-id='type-id-163' is-artificial='yes'/>
          <parameter type-id='type-id-49'/>
          <parameter type-id='type-id-38'/>
          <parameter type-id='type-id-38'/>
          <return type-id='type-id-14'/>
        </function-decl>
      </member-function>
      <member-function access='public'>
        <function-decl name='setSmat' mangled-name='_ZN7Mapdesc7setSmatEPfll' filepath='libnurbs/internals/mapdesc.h' line='100' column='1' visibility='default' binding='global' size-in-bits='64'>
          <parameter type-id='type-id-163' is-artificial='yes'/>
          <parameter type-id='type-id-49'/>
          <parameter type-id='type-id-38'/>
          <parameter type-id='type-id-38'/>
          <return type-id='type-id-14'/>
        </function-decl>
      </member-function>
      <member-function access='public'>
        <function-decl name='setBmat' mangled-name='_ZN7Mapdesc7setBmatEPfll' filepath='libnurbs/internals/mapdesc.h' line='98' column='1' visibility='default' binding='global' size-in-bits='64'>
          <parameter type-id='type-id-163' is-artificial='yes'/>
          <parameter type-id='type-id-49'/>
          <parameter type-id='type-id-38'/>
          <parameter type-id='type-id-38'/>
          <return type-id='type-id-14'/>
        </function-decl>
      </member-function>
      <member-function access='public'>
        <function-decl name='getNcoords' mangled-name='_ZN7Mapdesc10getNcoordsEv' filepath='libnurbs/internals/mapdesc.h' line='102' column='1' visibility='default' binding='global' size-in-bits='64'>
          <parameter type-id='type-id-163' is-artificial='yes'/>
          <return type-id='type-id-8'/>
        </function-decl>
      </member-function>
      <member-function access='public'>
        <function-decl name='isBboxSubdividing' mangled-name='_ZN7Mapdesc17isBboxSubdividingEv' filepath='libnurbs/internals/mapdesc.h' line='67' column='1' visibility='default' binding='global' size-in-bits='64'>
          <parameter type-id='type-id-163' is-artificial='yes'/>
          <return type-id='type-id-8'/>
        </function-decl>
      </member-function>
    </class-decl>
    <class-decl name='Quiltspec' size-in-bits='320' is-struct='yes' visibility='default' filepath='libnurbs/internals/quilt.h' line='51' column='1' id='type-id-209'>
      <data-member access='public' layout-offset-in-bits='0'>
        <var-decl name='stride' type-id='type-id-8' visibility='default' filepath='libnurbs/internals/quilt.h' line='52' column='1'/>
      </data-member>
      <data-member access='public' layout-offset-in-bits='32'>
        <var-decl name='width' type-id='type-id-8' visibility='default' filepath='libnurbs/internals/quilt.h' line='53' column='1'/>
      </data-member>
      <data-member access='public' layout-offset-in-bits='64'>
        <var-decl name='offset' type-id='type-id-8' visibility='default' filepath='libnurbs/internals/quilt.h' line='54' column='1'/>
      </data-member>
      <data-member access='public' layout-offset-in-bits='96'>
        <var-decl name='order' type-id='type-id-8' visibility='default' filepath='libnurbs/internals/quilt.h' line='55' column='1'/>
      </data-member>
      <data-member access='public' layout-offset-in-bits='128'>
        <var-decl name='index' type-id='type-id-8' visibility='default' filepath='libnurbs/internals/quilt.h' line='56' column='1'/>
      </data-member>
      <data-member access='public' layout-offset-in-bits='160'>
        <var-decl name='bdry' type-id='type-id-216' visibility='default' filepath='libnurbs/internals/quilt.h' line='57' column='1'/>
      </data-member>
      <data-member access='public' layout-offset-in-bits='224'>
        <var-decl name='step_size' type-id='type-id-1' visibility='default' filepath='libnurbs/internals/quilt.h' line='58' column='1'/>
      </data-member>
      <data-member access='public' layout-offset-in-bits='256'>
        <var-decl name='breakpoints' type-id='type-id-220' visibility='default' filepath='libnurbs/internals/quilt.h' line='59' column='1'/>
      </data-member>
    </class-decl>
    <typedef-decl name='Quiltspec_ptr' type-id='type-id-225' filepath='libnurbs/internals/quilt.h' line='62' column='1' id='type-id-165'/>
    <typedef-decl name='Knot' type-id='type-id-1' filepath='libnurbs/internals/types.h' line='45' column='1' id='type-id-226'/>
    <reference-type-def kind='lvalue' type-id='type-id-217' size-in-bits='64' id='type-id-218'/>
    <pointer-type-def type-id='type-id-217' size-in-bits='64' id='type-id-145'/>
    <reference-type-def kind='lvalue' type-id='type-id-150' size-in-bits='64' id='type-id-166'/>
    <pointer-type-def type-id='type-id-226' size-in-bits='64' id='type-id-220'/>
    <reference-type-def kind='lvalue' type-id='type-id-219' size-in-bits='64' id='type-id-168'/>
    <pointer-type-def type-id='type-id-222' size-in-bits='64' id='type-id-163'/>
    <pointer-type-def type-id='type-id-209' size-in-bits='64' id='type-id-225'/>
    <pointer-type-def type-id='type-id-212' size-in-bits='64' id='type-id-223'/>
    <pointer-type-def type-id='type-id-215' size-in-bits='64' id='type-id-227'/>
  </abi-instr>
  <abi-instr address-size='64' path='libnurbs/internals/curvelist.cc' comp-dir-path='/tmp/legendre/spack-stage/spack-stage-T0fsxk/Mesa-8.0.5/src/glu/sgi' language='LANG_C_plus_plus'>
    <array-type-def dimensions='1' type-id='type-id-15' size-in-bits='96' id='type-id-146'>
      <subrange length='3' type-id='type-id-3' id='type-id-90'/>
    </array-type-def>
    <pointer-type-def type-id='type-id-144' size-in-bits='64' id='type-id-147'/>
  </abi-instr>
  <abi-instr address-size='64' path='libnurbs/internals/displaylist.cc' comp-dir-path='/tmp/legendre/spack-stage/spack-stage-T0fsxk/Mesa-8.0.5/src/glu/sgi' language='LANG_C_plus_plus'>
    <class-decl name='PFVS' size-in-bits='128' is-struct='yes' naming-typedef-id='type-id-228' visibility='default' filepath='libnurbs/internals/displaylist.h' line='46' column='1' id='type-id-229'>
      <data-member access='public' layout-offset-in-bits='0'>
        <var-decl name='__pfn' type-id='type-id-230' visibility='default' filepath='libnurbs/internals/displaylist.h' line='46' column='1'/>
      </data-member>
      <data-member access='public' layout-offset-in-bits='64'>
        <var-decl name='__delta' type-id='type-id-38' visibility='default' filepath='libnurbs/internals/displaylist.h' line='46' column='1'/>
      </data-member>
    </class-decl>
    <typedef-decl name='PFVS' type-id='type-id-229' filepath='libnurbs/internals/displaylist.h' line='46' column='1' id='type-id-228'/>
    <class-decl name='Dlnode' size-in-bits='384' is-struct='yes' visibility='default' filepath='libnurbs/internals/displaylist.h' line='48' column='1' id='type-id-231'>
      <base-class access='public' layout-offset-in-bits='0' type-id='type-id-115'/>
      <data-member access='public' layout-offset-in-bits='0'>
        <var-decl name='work' type-id='type-id-228' visibility='default' filepath='libnurbs/internals/displaylist.h' line='50' column='1'/>
      </data-member>
      <data-member access='public' layout-offset-in-bits='128'>
        <var-decl name='arg' type-id='type-id-35' visibility='default' filepath='libnurbs/internals/displaylist.h' line='51' column='1'/>
      </data-member>
      <data-member access='public' layout-offset-in-bits='192'>
        <var-decl name='cleanup' type-id='type-id-228' visibility='default' filepath='libnurbs/internals/displaylist.h' line='52' column='1'/>
      </data-member>
      <data-member access='public' layout-offset-in-bits='320'>
        <var-decl name='next' type-id='type-id-232' visibility='default' filepath='libnurbs/internals/displaylist.h' line='53' column='1'/>
      </data-member>
      <member-function access='public' constructor='yes'>
        <function-decl name='Dlnode' filepath='libnurbs/internals/displaylist.h' line='49' column='1' visibility='default' binding='global' size-in-bits='64'>
          <parameter type-id='type-id-232' is-artificial='yes'/>
          <parameter type-id='type-id-228'/>
          <parameter type-id='type-id-35'/>
          <parameter type-id='type-id-228'/>
          <return type-id='type-id-14'/>
        </function-decl>
      </member-function>
    </class-decl>
    <class-decl name='DisplayList' size-in-bits='2688' visibility='default' filepath='libnurbs/internals/displaylist.h' line='65' column='1' id='type-id-233'>
      <data-member access='private' layout-offset-in-bits='0'>
        <var-decl name='nodes' type-id='type-id-232' visibility='default' filepath='libnurbs/internals/displaylist.h' line='73' column='1'/>
      </data-member>
      <data-member access='private' layout-offset-in-bits='64'>
        <var-decl name='dlnodePool' type-id='type-id-67' visibility='default' filepath='libnurbs/internals/displaylist.h' line='74' column='1'/>
      </data-member>
      <data-member access='private' layout-offset-in-bits='2560'>
        <var-decl name='lastNode' type-id='type-id-234' visibility='default' filepath='libnurbs/internals/displaylist.h' line='75' column='1'/>
      </data-member>
      <data-member access='private' layout-offset-in-bits='2624'>
        <var-decl name='nt' type-id='type-id-78' visibility='default' filepath='libnurbs/internals/displaylist.h' line='76' column='1'/>
      </data-member>
      <member-function access='private' constructor='yes'>
        <function-decl name='DisplayList' filepath='libnurbs/internals/displaylist.h' line='67' column='1' visibility='default' binding='global' size-in-bits='64'>
          <parameter type-id='type-id-77' is-artificial='yes'/>
          <parameter type-id='type-id-78'/>
          <return type-id='type-id-14'/>
        </function-decl>
      </member-function>
      <member-function access='private' destructor='yes'>
        <function-decl name='~DisplayList' filepath='libnurbs/internals/displaylist.h' line='68' column='1' visibility='default' binding='global' size-in-bits='64'>
          <parameter type-id='type-id-77' is-artificial='yes'/>
          <parameter type-id='type-id-8' is-artificial='yes'/>
          <return type-id='type-id-14'/>
        </function-decl>
      </member-function>
      <member-function access='private'>
        <function-decl name='play' mangled-name='_ZN11DisplayList4playEv' filepath='libnurbs/internals/displaylist.h' line='69' column='1' visibility='default' binding='global' size-in-bits='64'>
          <parameter type-id='type-id-77' is-artificial='yes'/>
          <return type-id='type-id-14'/>
        </function-decl>
      </member-function>
      <member-function access='private'>
        <function-decl name='endList' mangled-name='_ZN11DisplayList7endListEv' filepath='libnurbs/internals/displaylist.h' line='71' column='1' visibility='default' binding='global' size-in-bits='64'>
          <parameter type-id='type-id-77' is-artificial='yes'/>
          <return type-id='type-id-14'/>
        </function-decl>
      </member-function>
      <member-function access='private'>
        <function-decl name='append' mangled-name='_ZN11DisplayList6appendEM16NurbsTessellatorFvPvES1_S3_' filepath='libnurbs/internals/displaylist.h' line='70' column='1' visibility='default' binding='global' size-in-bits='64'>
          <parameter type-id='type-id-77' is-artificial='yes'/>
          <parameter type-id='type-id-228'/>
          <parameter type-id='type-id-35'/>
          <parameter type-id='type-id-228'/>
          <return type-id='type-id-14'/>
        </function-decl>
      </member-function>
    </class-decl>
    <pointer-type-def type-id='type-id-233' size-in-bits='64' id='type-id-77'/>
    <pointer-type-def type-id='type-id-231' size-in-bits='64' id='type-id-232'/>
    <pointer-type-def type-id='type-id-232' size-in-bits='64' id='type-id-234'/>
    <pointer-type-def type-id='type-id-40' size-in-bits='64' id='type-id-78'/>
    <pointer-type-def type-id='type-id-235' size-in-bits='64' id='type-id-230'/>
    <function-type size-in-bits='64' id='type-id-235'>
      <parameter type-id='type-id-78' is-artificial='yes'/>
      <parameter type-id='type-id-35'/>
      <return type-id='type-id-14'/>
    </function-type>
  </abi-instr>
  <abi-instr address-size='64' path='libnurbs/internals/flist.cc' comp-dir-path='/tmp/legendre/spack-stage/spack-stage-T0fsxk/Mesa-8.0.5/src/glu/sgi' language='LANG_C_plus_plus'>
    <pointer-type-def type-id='type-id-151' size-in-bits='64' id='type-id-154'/>
  </abi-instr>
  <abi-instr address-size='64' path='libnurbs/internals/hull.cc' comp-dir-path='/tmp/legendre/spack-stage/spack-stage-T0fsxk/Mesa-8.0.5/src/glu/sgi' language='LANG_C_plus_plus'>
    <class-decl name='Hull' size-in-bits='4800' visibility='default' filepath='libnurbs/internals/hull.h' line='47' column='1' id='type-id-236'>
      <base-class access='public' layout-offset-in-bits='192' is-virtual='yes' type-id='type-id-197'/>
      <member-type access='private'>
        <class-decl name='Side' size-in-bits='256' is-struct='yes' visibility='default' filepath='libnurbs/internals/hull.h' line='55' column='1' id='type-id-237'>
          <data-member access='public' layout-offset-in-bits='0'>
            <var-decl name='left' type-id='type-id-205' visibility='default' filepath='libnurbs/internals/hull.h' line='56' column='1'/>
          </data-member>
          <data-member access='public' layout-offset-in-bits='64'>
            <var-decl name='line' type-id='type-id-238' visibility='default' filepath='libnurbs/internals/hull.h' line='57' column='1'/>
          </data-member>
          <data-member access='public' layout-offset-in-bits='128'>
            <var-decl name='right' type-id='type-id-205' visibility='default' filepath='libnurbs/internals/hull.h' line='58' column='1'/>
          </data-member>
          <data-member access='public' layout-offset-in-bits='192'>
            <var-decl name='index' type-id='type-id-38' visibility='default' filepath='libnurbs/internals/hull.h' line='59' column='1'/>
          </data-member>
        </class-decl>
      </member-type>
      <data-member access='private' layout-offset-in-bits='64'>
        <var-decl name='lower' type-id='type-id-237' visibility='default' filepath='libnurbs/internals/hull.h' line='62' column='1'/>
      </data-member>
      <data-member access='private' layout-offset-in-bits='320'>
        <var-decl name='upper' type-id='type-id-237' visibility='default' filepath='libnurbs/internals/hull.h' line='63' column='1'/>
      </data-member>
      <data-member access='private' layout-offset-in-bits='576'>
        <var-decl name='fakeleft' type-id='type-id-204' visibility='default' filepath='libnurbs/internals/hull.h' line='64' column='1'/>
      </data-member>
      <data-member access='private' layout-offset-in-bits='1408'>
        <var-decl name='fakeright' type-id='type-id-204' visibility='default' filepath='libnurbs/internals/hull.h' line='65' column='1'/>
      </data-member>
      <member-function access='private' constructor='yes'>
        <function-decl name='Hull' filepath='libnurbs/internals/hull.cc' line='51' column='1' visibility='default' binding='global' size-in-bits='64'>
          <parameter type-id='type-id-239' is-artificial='yes'/>
          <parameter type-id='type-id-8' is-artificial='yes'/>
          <parameter type-id='type-id-191' is-artificial='yes'/>
          <return type-id='type-id-14'/>
        </function-decl>
      </member-function>
      <member-function access='private' destructor='yes'>
        <function-decl name='~Hull' filepath='libnurbs/internals/hull.cc' line='54' column='1' visibility='default' binding='global' size-in-bits='64'>
          <parameter type-id='type-id-239' is-artificial='yes'/>
          <parameter type-id='type-id-8' is-artificial='yes'/>
          <parameter type-id='type-id-191' is-artificial='yes'/>
          <return type-id='type-id-14'/>
        </function-decl>
      </member-function>
      <member-function access='private'>
        <function-decl name='nextupper' mangled-name='_ZN4Hull9nextupperEP14GridTrimVertex' filepath='libnurbs/internals/hull.cc' line='116' column='1' visibility='default' binding='global' size-in-bits='64'>
          <parameter type-id='type-id-239' is-artificial='yes'/>
          <parameter type-id='type-id-141'/>
          <return type-id='type-id-141'/>
        </function-decl>
      </member-function>
      <member-function access='private'>
        <function-decl name='nextlower' mangled-name='_ZN4Hull9nextlowerEP14GridTrimVertex' filepath='libnurbs/internals/hull.cc' line='142' column='1' visibility='default' binding='global' size-in-bits='64'>
          <parameter type-id='type-id-239' is-artificial='yes'/>
          <parameter type-id='type-id-141'/>
          <return type-id='type-id-141'/>
        </function-decl>
      </member-function>
      <member-function access='private'>
        <function-decl name='init' mangled-name='_ZN4Hull4initEv' filepath='libnurbs/internals/hull.cc' line='63' column='1' visibility='default' binding='global' size-in-bits='64'>
          <parameter type-id='type-id-239' is-artificial='yes'/>
          <return type-id='type-id-14'/>
        </function-decl>
      </member-function>
    </class-decl>
    <pointer-type-def type-id='type-id-201' size-in-bits='64' id='type-id-238'/>
    <pointer-type-def type-id='type-id-236' size-in-bits='64' id='type-id-239'/>
  </abi-instr>
  <abi-instr address-size='64' path='libnurbs/internals/knotvector.cc' comp-dir-path='/tmp/legendre/spack-stage/spack-stage-T0fsxk/Mesa-8.0.5/src/glu/sgi' language='LANG_C_plus_plus'>
    <pointer-type-def type-id='type-id-219' size-in-bits='64' id='type-id-83'/>
  </abi-instr>
  <abi-instr address-size='64' path='libnurbs/internals/mapdesc.cc' comp-dir-path='/tmp/legendre/spack-stage/spack-stage-T0fsxk/Mesa-8.0.5/src/glu/sgi' language='LANG_C_plus_plus'>
  </abi-instr>
  <abi-instr address-size='64' path='libnurbs/internals/mapdescv.cc' comp-dir-path='/tmp/legendre/spack-stage/spack-stage-T0fsxk/Mesa-8.0.5/src/glu/sgi' language='LANG_C_plus_plus'>
  </abi-instr>
  <abi-instr address-size='64' path='libnurbs/internals/maplist.cc' comp-dir-path='/tmp/legendre/spack-stage/spack-stage-T0fsxk/Mesa-8.0.5/src/glu/sgi' language='LANG_C_plus_plus'>
    <class-decl name='Maplist' size-in-bits='2688' visibility='default' filepath='libnurbs/internals/maplist.h' line='46' column='1' id='type-id-63'>
      <data-member access='private' layout-offset-in-bits='0'>
        <var-decl name='mapdescPool' type-id='type-id-67' visibility='default' filepath='libnurbs/internals/maplist.h' line='58' column='1'/>
      </data-member>
      <data-member access='private' layout-offset-in-bits='2496'>
        <var-decl name='maps' type-id='type-id-163' visibility='default' filepath='libnurbs/internals/maplist.h' line='59' column='1'/>
      </data-member>
      <data-member access='private' layout-offset-in-bits='2560'>
        <var-decl name='lastmap' type-id='type-id-240' visibility='default' filepath='libnurbs/internals/maplist.h' line='60' column='1'/>
      </data-member>
      <data-member access='private' layout-offset-in-bits='2624'>
        <var-decl name='backend' type-id='type-id-167' visibility='default' filepath='libnurbs/internals/maplist.h' line='61' column='1'/>
      </data-member>
      <member-function access='private' constructor='yes'>
        <function-decl name='Maplist' filepath='libnurbs/internals/maplist.h' line='48' column='1' visibility='default' binding='global' size-in-bits='64'>
          <parameter type-id='type-id-241' is-artificial='yes'/>
          <parameter type-id='type-id-167'/>
          <return type-id='type-id-14'/>
        </function-decl>
      </member-function>
      <member-function access='private'>
        <function-decl name='locate' mangled-name='_ZN7Maplist6locateEl' filepath='libnurbs/internals/maplist.h' line='55' column='1' visibility='default' binding='global' size-in-bits='64'>
          <parameter type-id='type-id-241' is-artificial='yes'/>
          <parameter type-id='type-id-38'/>
          <return type-id='type-id-163'/>
        </function-decl>
      </member-function>
      <member-function access='private'>
        <function-decl name='define' mangled-name='_ZN7Maplist6defineElii' filepath='libnurbs/internals/maplist.h' line='49' column='1' visibility='default' binding='global' size-in-bits='64'>
          <parameter type-id='type-id-241' is-artificial='yes'/>
          <parameter type-id='type-id-38'/>
          <parameter type-id='type-id-8'/>
          <parameter type-id='type-id-8'/>
          <return type-id='type-id-14'/>
        </function-decl>
      </member-function>
      <member-function access='private'>
        <function-decl name='find' mangled-name='_ZN7Maplist4findEl' filepath='libnurbs/internals/maplist.h' line='54' column='1' visibility='default' binding='global' size-in-bits='64'>
          <parameter type-id='type-id-241' is-artificial='yes'/>
          <parameter type-id='type-id-38'/>
          <return type-id='type-id-163'/>
        </function-decl>
      </member-function>
      <member-function access='private'>
        <function-decl name='freeMaps' mangled-name='_ZN7Maplist8freeMapsEv' filepath='libnurbs/internals/maplist.h' line='65' column='1' visibility='default' binding='global' size-in-bits='64'>
          <parameter type-id='type-id-241' is-artificial='yes'/>
          <return type-id='type-id-14'/>
        </function-decl>
      </member-function>
      <member-function access='private'>
        <function-decl name='remove' mangled-name='_ZN7Maplist6removeEP7Mapdesc' filepath='libnurbs/internals/maplist.h' line='64' column='1' visibility='default' binding='global' size-in-bits='64'>
          <parameter type-id='type-id-241' is-artificial='yes'/>
          <parameter type-id='type-id-163'/>
          <return type-id='type-id-14'/>
        </function-decl>
      </member-function>
      <member-function access='private'>
        <function-decl name='add' mangled-name='_ZN7Maplist3addElii' filepath='libnurbs/internals/maplist.h' line='63' column='1' visibility='default' binding='global' size-in-bits='64'>
          <parameter type-id='type-id-241' is-artificial='yes'/>
          <parameter type-id='type-id-38'/>
          <parameter type-id='type-id-8'/>
          <parameter type-id='type-id-8'/>
          <return type-id='type-id-14'/>
        </function-decl>
      </member-function>
      <member-function access='private'>
        <function-decl name='initialize' mangled-name='_ZN7Maplist10initializeEv' filepath='libnurbs/internals/maplist.h' line='53' column='1' visibility='default' binding='global' size-in-bits='64'>
          <parameter type-id='type-id-241' is-artificial='yes'/>
          <return type-id='type-id-14'/>
        </function-decl>
      </member-function>
    </class-decl>
    <pointer-type-def type-id='type-id-163' size-in-bits='64' id='type-id-240'/>
    <pointer-type-def type-id='type-id-63' size-in-bits='64' id='type-id-241'/>
  </abi-instr>
  <abi-instr address-size='64' path='libnurbs/internals/mesher.cc' comp-dir-path='/tmp/legendre/spack-stage/spack-stage-T0fsxk/Mesa-8.0.5/src/glu/sgi' language='LANG_C_plus_plus'>
    <array-type-def dimensions='1' type-id='type-id-141' size-in-bits='128' id='type-id-242'>
      <subrange length='2' type-id='type-id-3' id='type-id-87'/>
    </array-type-def>
    <class-decl name='Mesher' size-in-bits='7680' visibility='default' filepath='libnurbs/internals/mesher.h' line='47' column='1' id='type-id-189'>
      <base-class access='public' layout-offset-in-bits='192' is-virtual='yes' type-id='type-id-197'/>
      <base-class access='public' layout-offset-in-bits='0' type-id='type-id-236'/>
      <data-member access='private' static='yes'>
        <var-decl name='ZERO' type-id='type-id-243' mangled-name='_ZN6Mesher4ZEROE' visibility='default' filepath='libnurbs/internals/mesher.cc' line='53' column='1'/>
      </data-member>
      <data-member access='private' layout-offset-in-bits='2240'>
        <var-decl name='backend' type-id='type-id-167' visibility='default' filepath='libnurbs/internals/mesher.h' line='56' column='1'/>
      </data-member>
      <data-member access='private' layout-offset-in-bits='2304'>
        <var-decl name='p' type-id='type-id-67' visibility='default' filepath='libnurbs/internals/mesher.h' line='58' column='1'/>
      </data-member>
      <data-member access='private' layout-offset-in-bits='4800'>
        <var-decl name='stacksize' type-id='type-id-224' visibility='default' filepath='libnurbs/internals/mesher.h' line='59' column='1'/>
      </data-member>
      <data-member access='private' layout-offset-in-bits='4864'>
        <var-decl name='vdata' type-id='type-id-244' visibility='default' filepath='libnurbs/internals/mesher.h' line='60' column='1'/>
      </data-member>
      <data-member access='private' layout-offset-in-bits='4928'>
        <var-decl name='last' type-id='type-id-242' visibility='default' filepath='libnurbs/internals/mesher.h' line='61' column='1'/>
      </data-member>
      <data-member access='private' layout-offset-in-bits='5056'>
        <var-decl name='itop' type-id='type-id-8' visibility='default' filepath='libnurbs/internals/mesher.h' line='62' column='1'/>
      </data-member>
      <data-member access='private' layout-offset-in-bits='5088'>
        <var-decl name='lastedge' type-id='type-id-8' visibility='default' filepath='libnurbs/internals/mesher.h' line='63' column='1'/>
      </data-member>
      <member-function access='private' constructor='yes'>
        <function-decl name='Mesher' filepath='libnurbs/internals/mesher.cc' line='55' column='1' visibility='default' binding='global' size-in-bits='64'>
          <parameter type-id='type-id-245' is-artificial='yes'/>
          <parameter type-id='type-id-8' is-artificial='yes'/>
          <parameter type-id='type-id-191' is-artificial='yes'/>
          <parameter type-id='type-id-167'/>
          <return type-id='type-id-14'/>
        </function-decl>
      </member-function>
      <member-function access='private' destructor='yes'>
        <function-decl name='~Mesher' filepath='libnurbs/internals/mesher.cc' line='67' column='1' visibility='default' binding='global' size-in-bits='64'>
          <parameter type-id='type-id-245' is-artificial='yes'/>
          <parameter type-id='type-id-8' is-artificial='yes'/>
          <parameter type-id='type-id-191' is-artificial='yes'/>
          <return type-id='type-id-14'/>
        </function-decl>
      </member-function>
      <member-function access='private'>
        <function-decl name='equal' mangled-name='_ZN6Mesher5equalEii' filepath='libnurbs/internals/mesher.cc' line='240' column='1' visibility='default' binding='global' size-in-bits='64'>
          <parameter type-id='type-id-245' is-artificial='yes'/>
          <parameter type-id='type-id-8'/>
          <parameter type-id='type-id-8'/>
          <return type-id='type-id-8'/>
        </function-decl>
      </member-function>
      <member-function access='private'>
        <function-decl name='swapMesh' mangled-name='_ZN6Mesher8swapMeshEv' filepath='libnurbs/internals/mesher.cc' line='108' column='1' visibility='default' binding='global' size-in-bits='64'>
          <parameter type-id='type-id-245' is-artificial='yes'/>
          <return type-id='type-id-14'/>
        </function-decl>
      </member-function>
      <member-function access='private'>
        <function-decl name='copy' mangled-name='_ZN6Mesher4copyEii' filepath='libnurbs/internals/mesher.cc' line='246' column='1' visibility='default' binding='global' size-in-bits='64'>
          <parameter type-id='type-id-245' is-artificial='yes'/>
          <parameter type-id='type-id-8'/>
          <parameter type-id='type-id-8'/>
          <return type-id='type-id-14'/>
        </function-decl>
      </member-function>
      <member-function access='private'>
        <function-decl name='closeMesh' mangled-name='_ZN6Mesher9closeMeshEv' filepath='libnurbs/internals/mesher.cc' line='102' column='1' visibility='default' binding='global' size-in-bits='64'>
          <parameter type-id='type-id-245' is-artificial='yes'/>
          <return type-id='type-id-14'/>
        </function-decl>
      </member-function>
      <member-function access='private'>
        <function-decl name='openMesh' mangled-name='_ZN6Mesher8openMeshEv' filepath='libnurbs/internals/mesher.cc' line='96' column='1' visibility='default' binding='global' size-in-bits='64'>
          <parameter type-id='type-id-245' is-artificial='yes'/>
          <return type-id='type-id-14'/>
        </function-decl>
      </member-function>
      <member-function access='private'>
        <function-decl name='move' mangled-name='_ZN6Mesher4moveEii' filepath='libnurbs/internals/mesher.cc' line='252' column='1' visibility='default' binding='global' size-in-bits='64'>
          <parameter type-id='type-id-245' is-artificial='yes'/>
          <parameter type-id='type-id-8'/>
          <parameter type-id='type-id-8'/>
          <return type-id='type-id-14'/>
        </function-decl>
      </member-function>
      <member-function access='private'>
        <function-decl name='isCw' mangled-name='_ZN6Mesher4isCwEi' filepath='libnurbs/internals/mesher.cc' line='233' column='1' visibility='default' binding='global' size-in-bits='64'>
          <parameter type-id='type-id-245' is-artificial='yes'/>
          <parameter type-id='type-id-8'/>
          <return type-id='type-id-8'/>
        </function-decl>
      </member-function>
      <member-function access='private'>
        <function-decl name='isCcw' mangled-name='_ZN6Mesher5isCcwEi' filepath='libnurbs/internals/mesher.cc' line='226' column='1' visibility='default' binding='global' size-in-bits='64'>
          <parameter type-id='type-id-245' is-artificial='yes'/>
          <parameter type-id='type-id-8'/>
          <return type-id='type-id-8'/>
        </function-decl>
      </member-function>
      <member-function access='private'>
        <function-decl name='push' mangled-name='_ZN6Mesher4pushEP14GridTrimVertex' filepath='libnurbs/internals/mesher.cc' line='84' column='1' visibility='default' binding='global' size-in-bits='64'>
          <parameter type-id='type-id-245' is-artificial='yes'/>
          <parameter type-id='type-id-141'/>
          <return type-id='type-id-14'/>
        </function-decl>
      </member-function>
      <member-function access='private'>
        <function-decl name='clearStack' mangled-name='_ZN6Mesher10clearStackEv' filepath='libnurbs/internals/mesher.cc' line='114' column='1' visibility='default' binding='global' size-in-bits='64'>
          <parameter type-id='type-id-245' is-artificial='yes'/>
          <return type-id='type-id-14'/>
        </function-decl>
      </member-function>
      <member-function access='private'>
        <function-decl name='init' mangled-name='_ZN6Mesher4initEj' filepath='libnurbs/internals/mesher.cc' line='73' column='1' visibility='default' binding='global' size-in-bits='64'>
          <parameter type-id='type-id-245' is-artificial='yes'/>
          <parameter type-id='type-id-224'/>
          <return type-id='type-id-14'/>
        </function-decl>
      </member-function>
      <member-function access='private'>
        <function-decl name='output' mangled-name='_ZN6Mesher6outputEi' filepath='libnurbs/internals/mesher.cc' line='258' column='1' visibility='default' binding='global' size-in-bits='64'>
          <parameter type-id='type-id-245' is-artificial='yes'/>
          <parameter type-id='type-id-8'/>
          <return type-id='type-id-14'/>
        </function-decl>
      </member-function>
      <member-function access='private'>
        <function-decl name='addLast' mangled-name='_ZN6Mesher7addLastEv' filepath='libnurbs/internals/mesher.cc' line='277' column='1' visibility='default' binding='global' size-in-bits='64'>
          <parameter type-id='type-id-245' is-artificial='yes'/>
          <return type-id='type-id-14'/>
        </function-decl>
      </member-function>
      <member-function access='private'>
        <function-decl name='addLower' mangled-name='_ZN6Mesher8addLowerEv' filepath='libnurbs/internals/mesher.cc' line='415' column='1' visibility='default' binding='global' size-in-bits='64'>
          <parameter type-id='type-id-245' is-artificial='yes'/>
          <return type-id='type-id-14'/>
        </function-decl>
      </member-function>
      <member-function access='private'>
        <function-decl name='finishLower' mangled-name='_ZN6Mesher11finishLowerEP14GridTrimVertex' filepath='libnurbs/internals/mesher.cc' line='121' column='1' visibility='default' binding='global' size-in-bits='64'>
          <parameter type-id='type-id-245' is-artificial='yes'/>
          <parameter type-id='type-id-141'/>
          <return type-id='type-id-14'/>
        </function-decl>
      </member-function>
      <member-function access='private'>
        <function-decl name='addUpper' mangled-name='_ZN6Mesher8addUpperEv' filepath='libnurbs/internals/mesher.cc' line='341' column='1' visibility='default' binding='global' size-in-bits='64'>
          <parameter type-id='type-id-245' is-artificial='yes'/>
          <return type-id='type-id-14'/>
        </function-decl>
      </member-function>
      <member-function access='private'>
        <function-decl name='finishUpper' mangled-name='_ZN6Mesher11finishUpperEP14GridTrimVertex' filepath='libnurbs/internals/mesher.cc' line='131' column='1' visibility='default' binding='global' size-in-bits='64'>
          <parameter type-id='type-id-245' is-artificial='yes'/>
          <parameter type-id='type-id-141'/>
          <return type-id='type-id-14'/>
        </function-decl>
      </member-function>
      <member-function access='private'>
        <function-decl name='mesh' mangled-name='_ZN6Mesher4meshEv' filepath='libnurbs/internals/mesher.cc' line='141' column='1' visibility='default' binding='global' size-in-bits='64'>
          <parameter type-id='type-id-245' is-artificial='yes'/>
          <return type-id='type-id-14'/>
        </function-decl>
      </member-function>
    </class-decl>
    <pointer-type-def type-id='type-id-141' size-in-bits='64' id='type-id-244'/>
    <pointer-type-def type-id='type-id-189' size-in-bits='64' id='type-id-245'/>
    <qualified-type-def type-id='type-id-15' const='yes' id='type-id-243'/>
  </abi-instr>
  <abi-instr address-size='64' path='libnurbs/internals/monoTriangulationBackend.cc' comp-dir-path='/tmp/legendre/spack-stage/spack-stage-T0fsxk/Mesa-8.0.5/src/glu/sgi' language='LANG_C_plus_plus'>
    <array-type-def dimensions='1' type-id='type-id-246' size-in-bits='64' id='type-id-247'>
      <subrange length='2' type-id='type-id-3' id='type-id-87'/>
    </array-type-def>
    <typedef-decl name='Real' type-id='type-id-15' filepath='libnurbs/nurbtess/definitions.h' line='36' column='1' id='type-id-246'/>
    <typedef-decl name='Int' type-id='type-id-8' filepath='libnurbs/nurbtess/definitions.h' line='37' column='1' id='type-id-248'/>
    <typedef-decl name='Real2' type-id='type-id-247' filepath='libnurbs/nurbtess/definitions.h' line='38' column='1' id='type-id-249'/>
    <class-decl name='reflexChain' size-in-bits='192' visibility='default' filepath='libnurbs/nurbtess/monoTriangulation.h' line='43' column='1' id='type-id-250'>
      <data-member access='private' layout-offset-in-bits='0'>
        <var-decl name='queue' type-id='type-id-251' visibility='default' filepath='libnurbs/nurbtess/monoTriangulation.h' line='44' column='1'/>
      </data-member>
      <data-member access='private' layout-offset-in-bits='64'>
        <var-decl name='isIncreasing' type-id='type-id-248' visibility='default' filepath='libnurbs/nurbtess/monoTriangulation.h' line='50' column='1'/>
      </data-member>
      <data-member access='private' layout-offset-in-bits='96'>
        <var-decl name='index_queue' type-id='type-id-248' visibility='default' filepath='libnurbs/nurbtess/monoTriangulation.h' line='51' column='1'/>
      </data-member>
      <data-member access='private' layout-offset-in-bits='128'>
        <var-decl name='size_queue' type-id='type-id-248' visibility='default' filepath='libnurbs/nurbtess/monoTriangulation.h' line='52' column='1'/>
      </data-member>
      <member-function access='private' constructor='yes'>
        <function-decl name='reflexChain' filepath='libnurbs/nurbtess/monoTriangulation.h' line='55' column='1' visibility='default' binding='global' size-in-bits='64'>
          <parameter type-id='type-id-252' is-artificial='yes'/>
          <parameter type-id='type-id-248'/>
          <parameter type-id='type-id-248'/>
          <return type-id='type-id-14'/>
        </function-decl>
      </member-function>
      <member-function access='private' destructor='yes'>
        <function-decl name='~reflexChain' filepath='libnurbs/nurbtess/monoTriangulation.h' line='56' column='1' visibility='default' binding='global' size-in-bits='64'>
          <parameter type-id='type-id-252' is-artificial='yes'/>
          <parameter type-id='type-id-8' is-artificial='yes'/>
          <return type-id='type-id-14'/>
        </function-decl>
      </member-function>
      <member-function access='private'>
        <function-decl name='processNewVertex' mangled-name='_ZN11reflexChain16processNewVertexEPfP7Backend' filepath='libnurbs/nurbtess/monoTriangulation.h' line='64' column='1' visibility='default' binding='global' size-in-bits='64'>
          <parameter type-id='type-id-252' is-artificial='yes'/>
          <parameter type-id='type-id-253'/>
          <parameter type-id='type-id-139'/>
          <return type-id='type-id-14'/>
        </function-decl>
      </member-function>
      <member-function access='private'>
        <function-decl name='outputFan' mangled-name='_ZN11reflexChain9outputFanEPfP7Backend' filepath='libnurbs/nurbtess/monoTriangulation.h' line='65' column='1' visibility='default' binding='global' size-in-bits='64'>
          <parameter type-id='type-id-252' is-artificial='yes'/>
          <parameter type-id='type-id-253'/>
          <parameter type-id='type-id-139'/>
          <return type-id='type-id-14'/>
        </function-decl>
      </member-function>
      <member-function access='private'>
        <function-decl name='print' mangled-name='_ZN11reflexChain5printEv' filepath='libnurbs/nurbtess/monoTriangulation.h' line='67' column='1' visibility='default' binding='global' size-in-bits='64'>
          <parameter type-id='type-id-252' is-artificial='yes'/>
          <return type-id='type-id-14'/>
        </function-decl>
      </member-function>
      <member-function access='private'>
        <function-decl name='insert' mangled-name='_ZN11reflexChain6insertEff' filepath='libnurbs/nurbtess/monoTriangulation.h' line='58' column='1' visibility='default' binding='global' size-in-bits='64'>
          <parameter type-id='type-id-252' is-artificial='yes'/>
          <parameter type-id='type-id-246'/>
          <parameter type-id='type-id-246'/>
          <return type-id='type-id-14'/>
        </function-decl>
      </member-function>
      <member-function access='private'>
        <function-decl name='insert' mangled-name='_ZN11reflexChain6insertEPf' filepath='libnurbs/nurbtess/monoTriangulation.h' line='59' column='1' visibility='default' binding='global' size-in-bits='64'>
          <parameter type-id='type-id-252' is-artificial='yes'/>
          <parameter type-id='type-id-253'/>
          <return type-id='type-id-14'/>
        </function-decl>
      </member-function>
      <member-function access='private'>
        <function-decl name='outputFan' mangled-name='_ZN11reflexChain9outputFanEPfP10primStream' filepath='libnurbs/nurbtess/monoTriangulation.h' line='62' column='1' visibility='default' binding='global' size-in-bits='64'>
          <parameter type-id='type-id-252' is-artificial='yes'/>
          <parameter type-id='type-id-253'/>
          <parameter type-id='type-id-194'/>
          <return type-id='type-id-14'/>
        </function-decl>
      </member-function>
      <member-function access='private'>
        <function-decl name='processNewVertex' mangled-name='_ZN11reflexChain16processNewVertexEPfP10primStream' filepath='libnurbs/nurbtess/monoTriangulation.h' line='61' column='1' visibility='default' binding='global' size-in-bits='64'>
          <parameter type-id='type-id-252' is-artificial='yes'/>
          <parameter type-id='type-id-253'/>
          <parameter type-id='type-id-194'/>
          <return type-id='type-id-14'/>
        </function-decl>
      </member-function>
    </class-decl>
    <class-decl name='vertexArray' size-in-bits='128' visibility='default' filepath='libnurbs/nurbtess/monoTriangulation.h' line='77' column='1' id='type-id-254'>
      <data-member access='private' layout-offset-in-bits='0'>
        <var-decl name='array' type-id='type-id-255' visibility='default' filepath='libnurbs/nurbtess/monoTriangulation.h' line='78' column='1'/>
      </data-member>
      <data-member access='private' layout-offset-in-bits='64'>
        <var-decl name='index' type-id='type-id-248' visibility='default' filepath='libnurbs/nurbtess/monoTriangulation.h' line='79' column='1'/>
      </data-member>
      <data-member access='private' layout-offset-in-bits='96'>
        <var-decl name='size' type-id='type-id-248' visibility='default' filepath='libnurbs/nurbtess/monoTriangulation.h' line='80' column='1'/>
      </data-member>
      <member-function access='private' constructor='yes'>
        <function-decl name='vertexArray' filepath='libnurbs/nurbtess/monoTriangulation.h' line='82' column='1' visibility='default' binding='global' size-in-bits='64'>
          <parameter type-id='type-id-256' is-artificial='yes'/>
          <parameter type-id='type-id-248'/>
          <return type-id='type-id-14'/>
        </function-decl>
      </member-function>
      <member-function access='private' constructor='yes'>
        <function-decl name='vertexArray' filepath='libnurbs/nurbtess/monoTriangulation.h' line='83' column='1' visibility='default' binding='global' size-in-bits='64'>
          <parameter type-id='type-id-256' is-artificial='yes'/>
          <parameter type-id='type-id-257'/>
          <parameter type-id='type-id-248'/>
          <return type-id='type-id-14'/>
        </function-decl>
      </member-function>
      <member-function access='private' destructor='yes'>
        <function-decl name='~vertexArray' filepath='libnurbs/nurbtess/monoTriangulation.h' line='84' column='1' visibility='default' binding='global' size-in-bits='64'>
          <parameter type-id='type-id-256' is-artificial='yes'/>
          <parameter type-id='type-id-8' is-artificial='yes'/>
          <return type-id='type-id-14'/>
        </function-decl>
      </member-function>
      <member-function access='private'>
        <function-decl name='getNumElements' mangled-name='_ZN11vertexArray14getNumElementsEv' filepath='libnurbs/nurbtess/monoTriangulation.h' line='88' column='1' visibility='default' binding='global' size-in-bits='64'>
          <parameter type-id='type-id-256' is-artificial='yes'/>
          <return type-id='type-id-248'/>
        </function-decl>
      </member-function>
      <member-function access='private'>
        <function-decl name='getArray' mangled-name='_ZN11vertexArray8getArrayEv' filepath='libnurbs/nurbtess/monoTriangulation.h' line='87' column='1' visibility='default' binding='global' size-in-bits='64'>
          <parameter type-id='type-id-256' is-artificial='yes'/>
          <return type-id='type-id-255'/>
        </function-decl>
      </member-function>
      <member-function access='private'>
        <function-decl name='getVertex' mangled-name='_ZN11vertexArray9getVertexEi' filepath='libnurbs/nurbtess/monoTriangulation.h' line='86' column='1' visibility='default' binding='global' size-in-bits='64'>
          <parameter type-id='type-id-256' is-artificial='yes'/>
          <parameter type-id='type-id-248'/>
          <return type-id='type-id-253'/>
        </function-decl>
      </member-function>
      <member-function access='private'>
        <function-decl name='findIndexAbove' mangled-name='_ZN11vertexArray14findIndexAboveEf' filepath='libnurbs/nurbtess/monoTriangulation.h' line='89' column='1' visibility='default' binding='global' size-in-bits='64'>
          <parameter type-id='type-id-256' is-artificial='yes'/>
          <parameter type-id='type-id-246'/>
          <return type-id='type-id-248'/>
        </function-decl>
      </member-function>
      <member-function access='private'>
        <function-decl name='findIndexBelowGen' mangled-name='_ZN11vertexArray17findIndexBelowGenEfii' filepath='libnurbs/nurbtess/monoTriangulation.h' line='91' column='1' visibility='default' binding='global' size-in-bits='64'>
          <parameter type-id='type-id-256' is-artificial='yes'/>
          <parameter type-id='type-id-246'/>
          <parameter type-id='type-id-248'/>
          <parameter type-id='type-id-248'/>
          <return type-id='type-id-248'/>
        </function-decl>
      </member-function>
      <member-function access='private'>
        <function-decl name='findIndexStrictBelowGen' mangled-name='_ZN11vertexArray23findIndexStrictBelowGenEfii' filepath='libnurbs/nurbtess/monoTriangulation.h' line='92' column='1' visibility='default' binding='global' size-in-bits='64'>
          <parameter type-id='type-id-256' is-artificial='yes'/>
          <parameter type-id='type-id-246'/>
          <parameter type-id='type-id-248'/>
          <parameter type-id='type-id-248'/>
          <return type-id='type-id-248'/>
        </function-decl>
      </member-function>
      <member-function access='private'>
        <function-decl name='findIndexFirstAboveEqualGen' mangled-name='_ZN11vertexArray27findIndexFirstAboveEqualGenEfii' filepath='libnurbs/nurbtess/monoTriangulation.h' line='93' column='1' visibility='default' binding='global' size-in-bits='64'>
          <parameter type-id='type-id-256' is-artificial='yes'/>
          <parameter type-id='type-id-246'/>
          <parameter type-id='type-id-248'/>
          <parameter type-id='type-id-248'/>
          <return type-id='type-id-248'/>
        </function-decl>
      </member-function>
      <member-function access='private'>
        <function-decl name='findIndexAboveGen' mangled-name='_ZN11vertexArray17findIndexAboveGenEfii' filepath='libnurbs/nurbtess/monoTriangulation.h' line='90' column='1' visibility='default' binding='global' size-in-bits='64'>
          <parameter type-id='type-id-256' is-artificial='yes'/>
          <parameter type-id='type-id-246'/>
          <parameter type-id='type-id-248'/>
          <parameter type-id='type-id-248'/>
          <return type-id='type-id-248'/>
        </function-decl>
      </member-function>
      <member-function access='private'>
        <function-decl name='findDecreaseChainFromEnd' mangled-name='_ZN11vertexArray24findDecreaseChainFromEndEii' filepath='libnurbs/nurbtess/monoTriangulation.h' line='96' column='1' visibility='default' binding='global' size-in-bits='64'>
          <parameter type-id='type-id-256' is-artificial='yes'/>
          <parameter type-id='type-id-248'/>
          <parameter type-id='type-id-248'/>
          <return type-id='type-id-248'/>
        </function-decl>
      </member-function>
      <member-function access='private'>
        <function-decl name='skipEqualityFromStart' mangled-name='_ZN11vertexArray21skipEqualityFromStartEfii' filepath='libnurbs/nurbtess/monoTriangulation.h' line='94' column='1' visibility='default' binding='global' size-in-bits='64'>
          <parameter type-id='type-id-256' is-artificial='yes'/>
          <parameter type-id='type-id-246'/>
          <parameter type-id='type-id-248'/>
          <parameter type-id='type-id-248'/>
          <return type-id='type-id-248'/>
        </function-decl>
      </member-function>
      <member-function access='private'>
        <function-decl name='print' mangled-name='_ZN11vertexArray5printEv' filepath='libnurbs/nurbtess/monoTriangulation.h' line='97' column='1' visibility='default' binding='global' size-in-bits='64'>
          <parameter type-id='type-id-256' is-artificial='yes'/>
          <return type-id='type-id-14'/>
        </function-decl>
      </member-function>
      <member-function access='private'>
        <function-decl name='appendVertex' mangled-name='_ZN11vertexArray12appendVertexEPf' filepath='libnurbs/nurbtess/monoTriangulation.h' line='85' column='1' visibility='default' binding='global' size-in-bits='64'>
          <parameter type-id='type-id-256' is-artificial='yes'/>
          <parameter type-id='type-id-253'/>
          <return type-id='type-id-14'/>
        </function-decl>
      </member-function>
    </class-decl>
    <class-decl name='primStream' size-in-bits='384' visibility='default' filepath='libnurbs/nurbtess/primitiveStream.h' line='44' column='1' id='type-id-258'>
      <data-member access='private' layout-offset-in-bits='0'>
        <var-decl name='lengths' type-id='type-id-259' visibility='default' filepath='libnurbs/nurbtess/primitiveStream.h' line='45' column='1'/>
      </data-member>
      <data-member access='private' layout-offset-in-bits='64'>
        <var-decl name='types' type-id='type-id-259' visibility='default' filepath='libnurbs/nurbtess/primitiveStream.h' line='46' column='1'/>
      </data-member>
      <data-member access='private' layout-offset-in-bits='128'>
        <var-decl name='vertices' type-id='type-id-253' visibility='default' filepath='libnurbs/nurbtess/primitiveStream.h' line='47' column='1'/>
      </data-member>
      <data-member access='private' layout-offset-in-bits='192'>
        <var-decl name='index_lengths' type-id='type-id-248' visibility='default' filepath='libnurbs/nurbtess/primitiveStream.h' line='50' column='1'/>
      </data-member>
      <data-member access='private' layout-offset-in-bits='224'>
        <var-decl name='size_lengths' type-id='type-id-248' visibility='default' filepath='libnurbs/nurbtess/primitiveStream.h' line='51' column='1'/>
      </data-member>
      <data-member access='private' layout-offset-in-bits='256'>
        <var-decl name='index_vertices' type-id='type-id-248' visibility='default' filepath='libnurbs/nurbtess/primitiveStream.h' line='52' column='1'/>
      </data-member>
      <data-member access='private' layout-offset-in-bits='288'>
        <var-decl name='size_vertices' type-id='type-id-248' visibility='default' filepath='libnurbs/nurbtess/primitiveStream.h' line='53' column='1'/>
      </data-member>
      <data-member access='private' layout-offset-in-bits='320'>
        <var-decl name='counter' type-id='type-id-248' visibility='default' filepath='libnurbs/nurbtess/primitiveStream.h' line='59' column='1'/>
      </data-member>
      <member-function access='private' constructor='yes'>
        <function-decl name='primStream' filepath='libnurbs/nurbtess/primitiveStream.h' line='62' column='1' visibility='default' binding='global' size-in-bits='64'>
          <parameter type-id='type-id-194' is-artificial='yes'/>
          <parameter type-id='type-id-248'/>
          <parameter type-id='type-id-248'/>
          <return type-id='type-id-14'/>
        </function-decl>
      </member-function>
      <member-function access='private' destructor='yes'>
        <function-decl name='~primStream' filepath='libnurbs/nurbtess/primitiveStream.h' line='63' column='1' visibility='default' binding='global' size-in-bits='64'>
          <parameter type-id='type-id-194' is-artificial='yes'/>
          <parameter type-id='type-id-8' is-artificial='yes'/>
          <return type-id='type-id-14'/>
        </function-decl>
      </member-function>
      <member-function access='private'>
        <function-decl name='get_vertices' mangled-name='_ZN10primStream12get_verticesEv' filepath='libnurbs/nurbtess/primitiveStream.h' line='77' column='1' visibility='default' binding='global' size-in-bits='64'>
          <parameter type-id='type-id-194' is-artificial='yes'/>
          <return type-id='type-id-253'/>
        </function-decl>
      </member-function>
      <member-function access='private'>
        <function-decl name='get_type' mangled-name='_ZN10primStream8get_typeEi' filepath='libnurbs/nurbtess/primitiveStream.h' line='69' column='1' visibility='default' binding='global' size-in-bits='64'>
          <parameter type-id='type-id-194' is-artificial='yes'/>
          <parameter type-id='type-id-248'/>
          <return type-id='type-id-248'/>
        </function-decl>
      </member-function>
      <member-function access='private'>
        <function-decl name='get_length' mangled-name='_ZN10primStream10get_lengthEi' filepath='libnurbs/nurbtess/primitiveStream.h' line='73' column='1' visibility='default' binding='global' size-in-bits='64'>
          <parameter type-id='type-id-194' is-artificial='yes'/>
          <parameter type-id='type-id-248'/>
          <return type-id='type-id-248'/>
        </function-decl>
      </member-function>
      <member-function access='private'>
        <function-decl name='get_n_prims' mangled-name='_ZN10primStream11get_n_primsEv' filepath='libnurbs/nurbtess/primitiveStream.h' line='65' column='1' visibility='default' binding='global' size-in-bits='64'>
          <parameter type-id='type-id-194' is-artificial='yes'/>
          <return type-id='type-id-248'/>
        </function-decl>
      </member-function>
      <member-function access='private'>
        <function-decl name='insert' mangled-name='_ZN10primStream6insertEPf' filepath='libnurbs/nurbtess/primitiveStream.h' line='84' column='1' visibility='default' binding='global' size-in-bits='64'>
          <parameter type-id='type-id-194' is-artificial='yes'/>
          <parameter type-id='type-id-253'/>
          <return type-id='type-id-14'/>
        </function-decl>
      </member-function>
      <member-function access='private'>
        <function-decl name='triangle' mangled-name='_ZN10primStream8triangleEPfS0_S0_' filepath='libnurbs/nurbtess/primitiveStream.h' line='89' column='1' visibility='default' binding='global' size-in-bits='64'>
          <parameter type-id='type-id-194' is-artificial='yes'/>
          <parameter type-id='type-id-253'/>
          <parameter type-id='type-id-253'/>
          <parameter type-id='type-id-253'/>
          <return type-id='type-id-14'/>
        </function-decl>
      </member-function>
      <member-function access='private'>
        <function-decl name='num_triangles' mangled-name='_ZN10primStream13num_trianglesEv' filepath='libnurbs/nurbtess/primitiveStream.h' line='87' column='1' visibility='default' binding='global' size-in-bits='64'>
          <parameter type-id='type-id-194' is-artificial='yes'/>
          <return type-id='type-id-248'/>
        </function-decl>
      </member-function>
      <member-function access='private'>
        <function-decl name='begin' mangled-name='_ZN10primStream5beginEv' filepath='libnurbs/nurbtess/primitiveStream.h' line='82' column='1' visibility='default' binding='global' size-in-bits='64'>
          <parameter type-id='type-id-194' is-artificial='yes'/>
          <return type-id='type-id-14'/>
        </function-decl>
      </member-function>
      <member-function access='private'>
        <function-decl name='draw' mangled-name='_ZN10primStream4drawEv' filepath='libnurbs/nurbtess/primitiveStream.h' line='98' column='1' visibility='default' binding='global' size-in-bits='64'>
          <parameter type-id='type-id-194' is-artificial='yes'/>
          <return type-id='type-id-14'/>
        </function-decl>
      </member-function>
      <member-function access='private'>
        <function-decl name='end' mangled-name='_ZN10primStream3endEi' filepath='libnurbs/nurbtess/primitiveStream.h' line='85' column='1' visibility='default' binding='global' size-in-bits='64'>
          <parameter type-id='type-id-194' is-artificial='yes'/>
          <parameter type-id='type-id-248'/>
          <return type-id='type-id-14'/>
        </function-decl>
      </member-function>
      <member-function access='private'>
        <function-decl name='insert' mangled-name='_ZN10primStream6insertEff' filepath='libnurbs/nurbtess/primitiveStream.h' line='83' column='1' visibility='default' binding='global' size-in-bits='64'>
          <parameter type-id='type-id-194' is-artificial='yes'/>
          <parameter type-id='type-id-246'/>
          <parameter type-id='type-id-246'/>
          <return type-id='type-id-14'/>
        </function-decl>
      </member-function>
      <member-function access='private'>
        <function-decl name='print' mangled-name='_ZN10primStream5printEv' filepath='libnurbs/nurbtess/primitiveStream.h' line='97' column='1' visibility='default' binding='global' size-in-bits='64'>
          <parameter type-id='type-id-194' is-artificial='yes'/>
          <return type-id='type-id-14'/>
        </function-decl>
      </member-function>
    </class-decl>
    <pointer-type-def type-id='type-id-248' size-in-bits='64' id='type-id-259'/>
    <pointer-type-def type-id='type-id-246' size-in-bits='64' id='type-id-253'/>
    <pointer-type-def type-id='type-id-253' size-in-bits='64' id='type-id-255'/>
    <pointer-type-def type-id='type-id-249' size-in-bits='64' id='type-id-251'/>
    <pointer-type-def type-id='type-id-247' size-in-bits='64' id='type-id-257'/>
    <pointer-type-def type-id='type-id-258' size-in-bits='64' id='type-id-194'/>
    <pointer-type-def type-id='type-id-250' size-in-bits='64' id='type-id-252'/>
    <pointer-type-def type-id='type-id-254' size-in-bits='64' id='type-id-256'/>
  </abi-instr>
  <abi-instr address-size='64' path='libnurbs/internals/monotonizer.cc' comp-dir-path='/tmp/legendre/spack-stage/spack-stage-T0fsxk/Mesa-8.0.5/src/glu/sgi' language='LANG_C_plus_plus'>
  </abi-instr>
  <abi-instr address-size='64' path='libnurbs/internals/nurbsinterfac.cc' comp-dir-path='/tmp/legendre/spack-stage/spack-stage-T0fsxk/Mesa-8.0.5/src/glu/sgi' language='LANG_C_plus_plus'>
    <enum-decl name='Curvetype' filepath='libnurbs/internals/reader.h' line='42' column='1' id='type-id-260'>
      <underlying-type type-id='type-id-12'/>
      <enumerator name='ct_nurbscurve' value='0'/>
      <enumerator name='ct_pwlcurve' value='1'/>
      <enumerator name='ct_none' value='2'/>
    </enum-decl>
    <class-decl name='O_curve' size-in-bits='384' is-struct='yes' visibility='default' filepath='libnurbs/internals/reader.h' line='55' column='1' id='type-id-261'>
      <base-class access='public' layout-offset-in-bits='0' type-id='type-id-115'/>
      <member-type access='public'>
        <union-decl name='__anonymous_union__' size-in-bits='64' is-anonymous='yes' visibility='default' filepath='libnurbs/internals/reader.h' line='56' column='1' id='type-id-262'>
          <data-member access='public'>
            <var-decl name='o_nurbscurve' type-id='type-id-86' visibility='default' filepath='libnurbs/internals/reader.h' line='57' column='1'/>
          </data-member>
          <data-member access='public'>
            <var-decl name='o_pwlcurve' type-id='type-id-82' visibility='default' filepath='libnurbs/internals/reader.h' line='58' column='1'/>
          </data-member>
        </union-decl>
      </member-type>
      <data-member access='public' layout-offset-in-bits='0'>
        <var-decl name='curve' type-id='type-id-262' visibility='default' filepath='libnurbs/internals/reader.h' line='59' column='1'/>
      </data-member>
      <data-member access='public' layout-offset-in-bits='64'>
        <var-decl name='curvetype' type-id='type-id-260' visibility='default' filepath='libnurbs/internals/reader.h' line='60' column='1'/>
      </data-member>
      <data-member access='public' layout-offset-in-bits='128'>
        <var-decl name='next' type-id='type-id-76' visibility='default' filepath='libnurbs/internals/reader.h' line='61' column='1'/>
      </data-member>
      <data-member access='public' layout-offset-in-bits='192'>
        <var-decl name='owner' type-id='type-id-74' visibility='default' filepath='libnurbs/internals/reader.h' line='62' column='1'/>
      </data-member>
      <data-member access='public' layout-offset-in-bits='256'>
        <var-decl name='used' type-id='type-id-8' visibility='default' filepath='libnurbs/internals/reader.h' line='63' column='1'/>
      </data-member>
      <data-member access='public' layout-offset-in-bits='288'>
        <var-decl name='save' type-id='type-id-8' visibility='default' filepath='libnurbs/internals/reader.h' line='64' column='1'/>
      </data-member>
      <data-member access='public' layout-offset-in-bits='320'>
        <var-decl name='nuid' type-id='type-id-38' visibility='default' filepath='libnurbs/internals/reader.h' line='65' column='1'/>
      </data-member>
      <member-function access='public' constructor='yes'>
        <function-decl name='O_curve' filepath='libnurbs/internals/reader.h' line='66' column='1' visibility='default' binding='global' size-in-bits='64'>
          <parameter type-id='type-id-76' is-artificial='yes'/>
          <return type-id='type-id-14'/>
        </function-decl>
      </member-function>
    </class-decl>
    <class-decl name='O_nurbscurve' size-in-bits='384' is-struct='yes' visibility='default' filepath='libnurbs/internals/reader.h' line='70' column='1' id='type-id-263'>
      <base-class access='public' layout-offset-in-bits='0' type-id='type-id-115'/>
      <data-member access='public' layout-offset-in-bits='0'>
        <var-decl name='bezier_curves' type-id='type-id-148' visibility='default' filepath='libnurbs/internals/reader.h' line='71' column='1'/>
      </data-member>
      <data-member access='public' layout-offset-in-bits='64'>
        <var-decl name='type' type-id='type-id-38' visibility='default' filepath='libnurbs/internals/reader.h' line='72' column='1'/>
      </data-member>
      <data-member access='public' layout-offset-in-bits='128'>
        <var-decl name='tesselation' type-id='type-id-1' visibility='default' filepath='libnurbs/internals/reader.h' line='73' column='1'/>
      </data-member>
      <data-member access='public' layout-offset-in-bits='160'>
        <var-decl name='method' type-id='type-id-8' visibility='default' filepath='libnurbs/internals/reader.h' line='74' column='1'/>
      </data-member>
      <data-member access='public' layout-offset-in-bits='192'>
        <var-decl name='next' type-id='type-id-86' visibility='default' filepath='libnurbs/internals/reader.h' line='75' column='1'/>
      </data-member>
      <data-member access='public' layout-offset-in-bits='256'>
        <var-decl name='used' type-id='type-id-8' visibility='default' filepath='libnurbs/internals/reader.h' line='76' column='1'/>
      </data-member>
      <data-member access='public' layout-offset-in-bits='288'>
        <var-decl name='save' type-id='type-id-8' visibility='default' filepath='libnurbs/internals/reader.h' line='77' column='1'/>
      </data-member>
      <data-member access='public' layout-offset-in-bits='320'>
        <var-decl name='owner' type-id='type-id-76' visibility='default' filepath='libnurbs/internals/reader.h' line='78' column='1'/>
      </data-member>
      <member-function access='public' constructor='yes'>
        <function-decl name='O_nurbscurve' filepath='libnurbs/internals/reader.h' line='79' column='1' visibility='default' binding='global' size-in-bits='64'>
          <parameter type-id='type-id-86' is-artificial='yes'/>
          <parameter type-id='type-id-38'/>
          <return type-id='type-id-14'/>
        </function-decl>
      </member-function>
    </class-decl>
    <class-decl name='O_pwlcurve' size-in-bits='320' is-struct='yes' visibility='default' filepath='libnurbs/internals/reader.h' line='83' column='1' id='type-id-264'>
      <base-class access='public' layout-offset-in-bits='0' type-id='type-id-115'/>
      <data-member access='public' layout-offset-in-bits='0'>
        <var-decl name='pts' type-id='type-id-127' visibility='default' filepath='libnurbs/internals/reader.h' line='85' column='1'/>
      </data-member>
      <data-member access='public' layout-offset-in-bits='64'>
        <var-decl name='npts' type-id='type-id-8' visibility='default' filepath='libnurbs/internals/reader.h' line='86' column='1'/>
      </data-member>
      <data-member access='public' layout-offset-in-bits='128'>
        <var-decl name='next' type-id='type-id-82' visibility='default' filepath='libnurbs/internals/reader.h' line='87' column='1'/>
      </data-member>
      <data-member access='public' layout-offset-in-bits='192'>
        <var-decl name='used' type-id='type-id-8' visibility='default' filepath='libnurbs/internals/reader.h' line='88' column='1'/>
      </data-member>
      <data-member access='public' layout-offset-in-bits='224'>
        <var-decl name='save' type-id='type-id-8' visibility='default' filepath='libnurbs/internals/reader.h' line='89' column='1'/>
      </data-member>
      <data-member access='public' layout-offset-in-bits='256'>
        <var-decl name='owner' type-id='type-id-76' visibility='default' filepath='libnurbs/internals/reader.h' line='90' column='1'/>
      </data-member>
      <member-function access='public' constructor='yes'>
        <function-decl name='O_pwlcurve' filepath='libnurbs/internals/reader.h' line='91' column='1' visibility='default' binding='global' size-in-bits='64'>
          <parameter type-id='type-id-82' is-artificial='yes'/>
          <parameter type-id='type-id-38'/>
          <parameter type-id='type-id-38'/>
          <parameter type-id='type-id-49'/>
          <parameter type-id='type-id-38'/>
          <parameter type-id='type-id-127'/>
          <return type-id='type-id-14'/>
        </function-decl>
      </member-function>
    </class-decl>
    <class-decl name='O_trim' size-in-bits='192' is-struct='yes' visibility='default' filepath='libnurbs/internals/reader.h' line='94' column='1' id='type-id-265'>
      <base-class access='public' layout-offset-in-bits='0' type-id='type-id-115'/>
      <data-member access='public' layout-offset-in-bits='0'>
        <var-decl name='o_curve' type-id='type-id-76' visibility='default' filepath='libnurbs/internals/reader.h' line='95' column='1'/>
      </data-member>
      <data-member access='public' layout-offset-in-bits='64'>
        <var-decl name='next' type-id='type-id-75' visibility='default' filepath='libnurbs/internals/reader.h' line='96' column='1'/>
      </data-member>
      <data-member access='public' layout-offset-in-bits='128'>
        <var-decl name='save' type-id='type-id-8' visibility='default' filepath='libnurbs/internals/reader.h' line='97' column='1'/>
      </data-member>
      <member-function access='public' constructor='yes'>
        <function-decl name='O_trim' filepath='libnurbs/internals/reader.h' line='98' column='1' visibility='default' binding='global' size-in-bits='64'>
          <parameter type-id='type-id-75' is-artificial='yes'/>
          <return type-id='type-id-14'/>
        </function-decl>
      </member-function>
    </class-decl>
    <class-decl name='O_nurbssurface' size-in-bits='320' is-struct='yes' visibility='default' filepath='libnurbs/internals/reader.h' line='101' column='1' id='type-id-266'>
      <base-class access='public' layout-offset-in-bits='0' type-id='type-id-115'/>
      <data-member access='public' layout-offset-in-bits='0'>
        <var-decl name='bezier_patches' type-id='type-id-148' visibility='default' filepath='libnurbs/internals/reader.h' line='102' column='1'/>
      </data-member>
      <data-member access='public' layout-offset-in-bits='64'>
        <var-decl name='type' type-id='type-id-38' visibility='default' filepath='libnurbs/internals/reader.h' line='103' column='1'/>
      </data-member>
      <data-member access='public' layout-offset-in-bits='128'>
        <var-decl name='owner' type-id='type-id-74' visibility='default' filepath='libnurbs/internals/reader.h' line='104' column='1'/>
      </data-member>
      <data-member access='public' layout-offset-in-bits='192'>
        <var-decl name='next' type-id='type-id-85' visibility='default' filepath='libnurbs/internals/reader.h' line='105' column='1'/>
      </data-member>
      <data-member access='public' layout-offset-in-bits='256'>
        <var-decl name='save' type-id='type-id-8' visibility='default' filepath='libnurbs/internals/reader.h' line='106' column='1'/>
      </data-member>
      <data-member access='public' layout-offset-in-bits='288'>
        <var-decl name='used' type-id='type-id-8' visibility='default' filepath='libnurbs/internals/reader.h' line='107' column='1'/>
      </data-member>
      <member-function access='public' constructor='yes'>
        <function-decl name='O_nurbssurface' filepath='libnurbs/internals/reader.h' line='108' column='1' visibility='default' binding='global' size-in-bits='64'>
          <parameter type-id='type-id-85' is-artificial='yes'/>
          <parameter type-id='type-id-38'/>
          <return type-id='type-id-14'/>
        </function-decl>
      </member-function>
    </class-decl>
    <class-decl name='O_surface' size-in-bits='256' is-struct='yes' visibility='default' filepath='libnurbs/internals/reader.h' line='112' column='1' id='type-id-267'>
      <base-class access='public' layout-offset-in-bits='0' type-id='type-id-115'/>
      <data-member access='public' layout-offset-in-bits='0'>
        <var-decl name='o_nurbssurface' type-id='type-id-85' visibility='default' filepath='libnurbs/internals/reader.h' line='113' column='1'/>
      </data-member>
      <data-member access='public' layout-offset-in-bits='64'>
        <var-decl name='o_trim' type-id='type-id-75' visibility='default' filepath='libnurbs/internals/reader.h' line='114' column='1'/>
      </data-member>
      <data-member access='public' layout-offset-in-bits='128'>
        <var-decl name='save' type-id='type-id-8' visibility='default' filepath='libnurbs/internals/reader.h' line='115' column='1'/>
      </data-member>
      <data-member access='public' layout-offset-in-bits='192'>
        <var-decl name='nuid' type-id='type-id-38' visibility='default' filepath='libnurbs/internals/reader.h' line='116' column='1'/>
      </data-member>
      <member-function access='public' constructor='yes'>
        <function-decl name='O_surface' filepath='libnurbs/internals/reader.h' line='117' column='1' visibility='default' binding='global' size-in-bits='64'>
          <parameter type-id='type-id-74' is-artificial='yes'/>
          <return type-id='type-id-14'/>
        </function-decl>
      </member-function>
    </class-decl>
    <class-decl name='Property' size-in-bits='192' is-struct='yes' visibility='default' filepath='libnurbs/internals/reader.h' line='120' column='1' id='type-id-268'>
      <base-class access='public' layout-offset-in-bits='0' type-id='type-id-115'/>
      <data-member access='public' layout-offset-in-bits='0'>
        <var-decl name='type' type-id='type-id-38' visibility='default' filepath='libnurbs/internals/reader.h' line='121' column='1'/>
      </data-member>
      <data-member access='public' layout-offset-in-bits='64'>
        <var-decl name='tag' type-id='type-id-38' visibility='default' filepath='libnurbs/internals/reader.h' line='122' column='1'/>
      </data-member>
      <data-member access='public' layout-offset-in-bits='128'>
        <var-decl name='value' type-id='type-id-1' visibility='default' filepath='libnurbs/internals/reader.h' line='123' column='1'/>
      </data-member>
      <data-member access='public' layout-offset-in-bits='160'>
        <var-decl name='save' type-id='type-id-8' visibility='default' filepath='libnurbs/internals/reader.h' line='124' column='1'/>
      </data-member>
      <member-function access='public' constructor='yes'>
        <function-decl name='Property' filepath='libnurbs/internals/reader.h' line='125' column='1' visibility='default' binding='global' size-in-bits='64'>
          <parameter type-id='type-id-81' is-artificial='yes'/>
          <parameter type-id='type-id-38'/>
          <parameter type-id='type-id-38'/>
          <parameter type-id='type-id-15'/>
          <return type-id='type-id-14'/>
        </function-decl>
      </member-function>
      <member-function access='public' constructor='yes'>
        <function-decl name='Property' filepath='libnurbs/internals/reader.h' line='127' column='1' visibility='default' binding='global' size-in-bits='64'>
          <parameter type-id='type-id-81' is-artificial='yes'/>
          <parameter type-id='type-id-38'/>
          <parameter type-id='type-id-15'/>
          <return type-id='type-id-14'/>
        </function-decl>
      </member-function>
    </class-decl>
    <pointer-type-def type-id='type-id-261' size-in-bits='64' id='type-id-76'/>
    <pointer-type-def type-id='type-id-76' size-in-bits='64' id='type-id-70'/>
